GAS LISTING /tmp/cctaWfnU.s 			page 1


   1              		.file	"buffer_CPP_API.cpp"
   2              		.option nopic
   3              		.option norelax
   4              		.attribute arch, "rv64i2p0_m2p0_a2p0"
   5              		.attribute unaligned_access, 0
   6              		.attribute stack_align, 16
   7              		.text
   8              	.Ltext0:
   9              		.section	.text._ZN9SemaphoreD2Ev,"axG",@progbits,_ZN9SemaphoreD5Ev,comdat
  10              		.align	2
  11              		.weak	_ZN9SemaphoreD2Ev
  13              	_ZN9SemaphoreD2Ev:
  14              	.LFB11:
  15              		.file 1 "src/user/test/../../../h/syscall_cpp.hpp"
   1:src/user/test/../../../h/syscall_cpp.hpp **** #ifndef _syscall_cpp
   2:src/user/test/../../../h/syscall_cpp.hpp **** #define _syscall_cpp
   3:src/user/test/../../../h/syscall_cpp.hpp **** #include "syscall_c.h"
   4:src/user/test/../../../h/syscall_cpp.hpp **** 
   5:src/user/test/../../../h/syscall_cpp.hpp **** void* operator new (size_t);
   6:src/user/test/../../../h/syscall_cpp.hpp **** void operator delete (void*);
   7:src/user/test/../../../h/syscall_cpp.hpp **** 
   8:src/user/test/../../../h/syscall_cpp.hpp **** class Thread {
   9:src/user/test/../../../h/syscall_cpp.hpp **** public:
  10:src/user/test/../../../h/syscall_cpp.hpp ****     Thread (void (*body)(void*), void* arg);
  11:src/user/test/../../../h/syscall_cpp.hpp ****     virtual ~Thread ();
  12:src/user/test/../../../h/syscall_cpp.hpp ****     int start ();
  13:src/user/test/../../../h/syscall_cpp.hpp ****     static void dispatch () { thread_dispatch(); }
  14:src/user/test/../../../h/syscall_cpp.hpp ****     static void sleep (time_t time){ time_sleep(time); }
  15:src/user/test/../../../h/syscall_cpp.hpp **** protected:
  16:src/user/test/../../../h/syscall_cpp.hpp ****     Thread (){ myHandle = nullptr;}
  17:src/user/test/../../../h/syscall_cpp.hpp ****     virtual void run () {}
  18:src/user/test/../../../h/syscall_cpp.hpp **** private:
  19:src/user/test/../../../h/syscall_cpp.hpp ****     static void runWrapper(void*);
  20:src/user/test/../../../h/syscall_cpp.hpp ****     thread_t myHandle;
  21:src/user/test/../../../h/syscall_cpp.hpp **** };
  22:src/user/test/../../../h/syscall_cpp.hpp **** 
  23:src/user/test/../../../h/syscall_cpp.hpp **** class Semaphore {
  24:src/user/test/../../../h/syscall_cpp.hpp **** public:
  25:src/user/test/../../../h/syscall_cpp.hpp ****     Semaphore (unsigned init = 1) { sem_open(&myHandle, init); } 
  26:src/user/test/../../../h/syscall_cpp.hpp ****     virtual ~Semaphore (){ sem_close(myHandle); }
  16              		.loc 1 26 13
  17              		.cfi_startproc
  18              		.cfi_personality 0x9b,DW.ref.__gxx_personality_v0
  19              		.cfi_lsda 0x1b,.LLSDA11
  20              	.LVL0:
  21 0000 130101FF 		addi	sp,sp,-16
  22              		.cfi_def_cfa_offset 16
  23 0004 23341100 		sd	ra,8(sp)
  24 0008 23308100 		sd	s0,0(sp)
  25              		.cfi_offset 1, -8
  26              		.cfi_offset 8, -16
  27 000c 13040101 		addi	s0,sp,16
  28              		.cfi_def_cfa 8, 0
  29              	.LBB53:
  30              		.loc 1 26 26 is_stmt 0
  31 0010 97070000 		lla	a5,_ZTV9Semaphore+16
  31      93870700 
GAS LISTING /tmp/cctaWfnU.s 			page 2


  32 0018 2330F500 		sd	a5,0(a0)
  33              		.loc 1 26 28 is_stmt 1
  34              		.loc 1 26 37 is_stmt 0
  35 001c 03358500 		ld	a0,8(a0)
  36              	.LVL1:
  37 0020 97000000 		call	sem_close
  37      E7800000 
  38              	.LVL2:
  39              	.LBE53:
  40              		.loc 1 26 49
  41 0028 83308100 		ld	ra,8(sp)
  42              		.cfi_restore 1
  43 002c 03340100 		ld	s0,0(sp)
  44              		.cfi_restore 8
  45              		.cfi_def_cfa 2, 16
  46 0030 13010101 		addi	sp,sp,16
  47              		.cfi_def_cfa_offset 0
  48 0034 67800000 		jr	ra
  49              		.cfi_endproc
  50              	.LFE11:
  51              		.globl	__gxx_personality_v0
  52              		.section	.gcc_except_table._ZN9SemaphoreD2Ev,"awG",@progbits,_ZN9SemaphoreD5Ev,comdat
  53              	.LLSDA11:
  54 0000 FF       		.byte	0xff
  55 0001 FF       		.byte	0xff
  56 0002 03       		.byte	0x3
  57 0003 00       		.byte	0
  58              		.section	.text._ZN9SemaphoreD2Ev,"axG",@progbits,_ZN9SemaphoreD5Ev,comdat
  60              		.weak	_ZN9SemaphoreD1Ev
  61              		.set	_ZN9SemaphoreD1Ev,_ZN9SemaphoreD2Ev
  62              		.section	.text._ZN9SemaphoreD0Ev,"axG",@progbits,_ZN9SemaphoreD5Ev,comdat
  63              		.align	2
  64              		.weak	_ZN9SemaphoreD0Ev
  66              	_ZN9SemaphoreD0Ev:
  67              	.LFB13:
  68              		.loc 1 26 13 is_stmt 1
  69              		.cfi_startproc
  70              		.cfi_personality 0x9b,DW.ref.__gxx_personality_v0
  71              		.cfi_lsda 0x1b,.LLSDA13
  72              	.LVL3:
  73 0000 130101FE 		addi	sp,sp,-32
  74              		.cfi_def_cfa_offset 32
  75 0004 233C1100 		sd	ra,24(sp)
  76 0008 23388100 		sd	s0,16(sp)
  77 000c 23349100 		sd	s1,8(sp)
  78              		.cfi_offset 1, -8
  79              		.cfi_offset 8, -16
  80              		.cfi_offset 9, -24
  81 0010 13040102 		addi	s0,sp,32
  82              		.cfi_def_cfa 8, 0
  83 0014 93040500 		mv	s1,a0
  84              	.LVL4:
  85              	.LBB54:
  86              	.LBB55:
  87              		.loc 1 26 26 is_stmt 0
  88 0018 97070000 		lla	a5,_ZTV9Semaphore+16
  88      93870700 
GAS LISTING /tmp/cctaWfnU.s 			page 3


  89 0020 2330F500 		sd	a5,0(a0)
  90              		.loc 1 26 28 is_stmt 1
  91              		.loc 1 26 37 is_stmt 0
  92 0024 03358500 		ld	a0,8(a0)
  93              	.LVL5:
  94 0028 97000000 		call	sem_close
  94      E7800000 
  95              	.LVL6:
  96              	.LBE55:
  97              	.LBE54:
  98              		.loc 1 26 49
  99 0030 13850400 		mv	a0,s1
 100              	.LEHB0:
 101 0034 97000000 		call	_ZdlPv
 101      E7800000 
 102              	.LVL7:
 103              	.LEHE0:
 104 003c 83308101 		ld	ra,24(sp)
 105              		.cfi_restore 1
 106 0040 03340101 		ld	s0,16(sp)
 107              		.cfi_restore 8
 108              		.cfi_def_cfa 2, 32
 109 0044 83348100 		ld	s1,8(sp)
 110              		.cfi_restore 9
 111              	.LVL8:
 112 0048 13010102 		addi	sp,sp,32
 113              		.cfi_def_cfa_offset 0
 114 004c 67800000 		jr	ra
 115              		.cfi_endproc
 116              	.LFE13:
 117              		.section	.gcc_except_table._ZN9SemaphoreD0Ev,"awG",@progbits,_ZN9SemaphoreD5Ev,comdat
 118              	.LLSDA13:
 119 0000 FF       		.byte	0xff
 120 0001 FF       		.byte	0xff
 121 0002 03       		.byte	0x3
 122 0003 0D       		.byte	0xd
 123 0004 00000000 		.4byte	.LEHB0-.LFB13
 124 0008 00000000 		.4byte	.LEHE0-.LEHB0
 125 000c 00000000 		.4byte	0
 126 0010 00       		.byte	0
 127              		.section	.text._ZN9SemaphoreD0Ev,"axG",@progbits,_ZN9SemaphoreD5Ev,comdat
 129              		.text
 130              		.align	2
 131              		.globl	_ZN9BufferCPPC2Ei
 133              	_ZN9BufferCPPC2Ei:
 134              	.LFB20:
 135              		.file 2 "src/user/test/buffer_CPP_API.cpp"
   1:src/user/test/buffer_CPP_API.cpp **** #include "buffer_CPP_API.hpp"
   2:src/user/test/buffer_CPP_API.cpp **** 
   3:src/user/test/buffer_CPP_API.cpp **** BufferCPP::BufferCPP(int _cap) : cap(_cap + 1), head(0), tail(0) {
 136              		.loc 2 3 1 is_stmt 1
 137              		.cfi_startproc
 138              		.cfi_personality 0x9b,DW.ref.__gxx_personality_v0
 139              		.cfi_lsda 0x1b,.LLSDA20
 140              	.LVL9:
 141 0000 130101FD 		addi	sp,sp,-48
 142              		.cfi_def_cfa_offset 48
GAS LISTING /tmp/cctaWfnU.s 			page 4


 143 0004 23341102 		sd	ra,40(sp)
 144 0008 23308102 		sd	s0,32(sp)
 145 000c 233C9100 		sd	s1,24(sp)
 146 0010 23382101 		sd	s2,16(sp)
 147 0014 23343101 		sd	s3,8(sp)
 148              		.cfi_offset 1, -8
 149              		.cfi_offset 8, -16
 150              		.cfi_offset 9, -24
 151              		.cfi_offset 18, -32
 152              		.cfi_offset 19, -40
 153 0018 13040103 		addi	s0,sp,48
 154              		.cfi_def_cfa 8, 0
 155 001c 93040500 		mv	s1,a0
 156 0020 93890500 		mv	s3,a1
 157              	.LBB56:
 158              		.loc 2 3 43 is_stmt 0
 159 0024 9B871500 		addiw	a5,a1,1
 160 0028 1B850700 		sext.w	a0,a5
 161              	.LVL10:
 162              		.loc 2 3 64
 163 002c 23A0F400 		sw	a5,0(s1)
 164 0030 23A80400 		sw	zero,16(s1)
 165 0034 23AA0400 		sw	zero,20(s1)
   4:src/user/test/buffer_CPP_API.cpp ****     buffer = (int *)mem_alloc(sizeof(int) * cap);
 166              		.loc 2 4 5 is_stmt 1
 167              		.loc 2 4 30 is_stmt 0
 168 0038 13152500 		slli	a0,a0,2
 169              	.LEHB1:
 170 003c 97000000 		call	mem_alloc
 170      E7800000 
 171              	.LVL11:
 172              		.loc 2 4 12
 173 0044 23B4A400 		sd	a0,8(s1)
   5:src/user/test/buffer_CPP_API.cpp ****     itemAvailable = new Semaphore(0);
 174              		.loc 2 5 5 is_stmt 1
 175              		.loc 2 5 36 is_stmt 0
 176 0048 13050001 		li	a0,16
 177 004c 97000000 		call	_Znwm
 177      E7800000 
 178              	.LVL12:
 179              	.LEHE1:
 180 0054 13090500 		mv	s2,a0
 181 0058 63000502 		beq	a0,zero,.L6
 182              	.LVL13:
 183              	.LBB57:
 184              	.LBB58:
  25:src/user/test/../../../h/syscall_cpp.hpp ****     virtual ~Semaphore (){ sem_close(myHandle); }
 185              		.loc 1 25 35
 186 005c 97070000 		lla	a5,_ZTV9Semaphore+16
 186      93870700 
 187 0064 2330F500 		sd	a5,0(a0)
  25:src/user/test/../../../h/syscall_cpp.hpp ****     virtual ~Semaphore (){ sem_close(myHandle); }
 188              		.loc 1 25 37 is_stmt 1
  25:src/user/test/../../../h/syscall_cpp.hpp ****     virtual ~Semaphore (){ sem_close(myHandle); }
 189              		.loc 1 25 45 is_stmt 0
 190 0068 93050000 		li	a1,0
 191 006c 13058500 		addi	a0,a0,8
GAS LISTING /tmp/cctaWfnU.s 			page 5


 192              	.LVL14:
 193              	.LEHB2:
 194 0070 97000000 		call	sem_open
 194      E7800000 
 195              	.LVL15:
 196              	.LEHE2:
 197              	.L6:
 198              	.LBE58:
 199              	.LBE57:
 200              		.loc 2 5 19 discriminator 6
 201 0078 23B02403 		sd	s2,32(s1)
   6:src/user/test/buffer_CPP_API.cpp ****     spaceAvailable = new Semaphore(_cap);
 202              		.loc 2 6 5 is_stmt 1 discriminator 6
 203              		.loc 2 6 40 is_stmt 0 discriminator 6
 204 007c 13050001 		li	a0,16
 205              	.LEHB3:
 206 0080 97000000 		call	_Znwm
 206      E7800000 
 207              	.LVL16:
 208              	.LEHE3:
 209 0088 13090500 		mv	s2,a0
 210 008c 63000502 		beq	a0,zero,.L7
 211              	.LVL17:
 212              	.LBB59:
 213              	.LBB60:
  25:src/user/test/../../../h/syscall_cpp.hpp ****     virtual ~Semaphore (){ sem_close(myHandle); }
 214              		.loc 1 25 35 discriminator 1
 215 0090 97070000 		lla	a5,_ZTV9Semaphore+16
 215      93870700 
 216 0098 2330F500 		sd	a5,0(a0)
  25:src/user/test/../../../h/syscall_cpp.hpp ****     virtual ~Semaphore (){ sem_close(myHandle); }
 217              		.loc 1 25 37 is_stmt 1 discriminator 1
  25:src/user/test/../../../h/syscall_cpp.hpp ****     virtual ~Semaphore (){ sem_close(myHandle); }
 218              		.loc 1 25 45 is_stmt 0 discriminator 1
 219 009c 93850900 		mv	a1,s3
 220 00a0 13058500 		addi	a0,a0,8
 221              	.LVL18:
 222              	.LEHB4:
 223 00a4 97000000 		call	sem_open
 223      E7800000 
 224              	.LVL19:
 225              	.LEHE4:
 226              	.L7:
 227              	.LBE60:
 228              	.LBE59:
 229              		.loc 2 6 20 discriminator 6
 230 00ac 23BC2401 		sd	s2,24(s1)
   7:src/user/test/buffer_CPP_API.cpp ****     mutexHead = new Semaphore(1);
 231              		.loc 2 7 5 is_stmt 1 discriminator 6
 232              		.loc 2 7 32 is_stmt 0 discriminator 6
 233 00b0 13050001 		li	a0,16
 234              	.LEHB5:
 235 00b4 97000000 		call	_Znwm
 235      E7800000 
 236              	.LVL20:
 237              	.LEHE5:
 238 00bc 13090500 		mv	s2,a0
GAS LISTING /tmp/cctaWfnU.s 			page 6


 239 00c0 63000502 		beq	a0,zero,.L8
 240              	.LVL21:
 241              	.LBB61:
 242              	.LBB62:
  25:src/user/test/../../../h/syscall_cpp.hpp ****     virtual ~Semaphore (){ sem_close(myHandle); }
 243              		.loc 1 25 35
 244 00c4 97070000 		lla	a5,_ZTV9Semaphore+16
 244      93870700 
 245 00cc 2330F500 		sd	a5,0(a0)
  25:src/user/test/../../../h/syscall_cpp.hpp ****     virtual ~Semaphore (){ sem_close(myHandle); }
 246              		.loc 1 25 37 is_stmt 1
  25:src/user/test/../../../h/syscall_cpp.hpp ****     virtual ~Semaphore (){ sem_close(myHandle); }
 247              		.loc 1 25 45 is_stmt 0
 248 00d0 93051000 		li	a1,1
 249 00d4 13058500 		addi	a0,a0,8
 250              	.LVL22:
 251              	.LEHB6:
 252 00d8 97000000 		call	sem_open
 252      E7800000 
 253              	.LVL23:
 254              	.LEHE6:
 255              	.L8:
 256              	.LBE62:
 257              	.LBE61:
 258              		.loc 2 7 15 discriminator 6
 259 00e0 23B42403 		sd	s2,40(s1)
   8:src/user/test/buffer_CPP_API.cpp ****     mutexTail = new Semaphore(1);
 260              		.loc 2 8 5 is_stmt 1 discriminator 6
 261              		.loc 2 8 32 is_stmt 0 discriminator 6
 262 00e4 13050001 		li	a0,16
 263              	.LEHB7:
 264 00e8 97000000 		call	_Znwm
 264      E7800000 
 265              	.LVL24:
 266              	.LEHE7:
 267 00f0 13090500 		mv	s2,a0
 268 00f4 63000502 		beq	a0,zero,.L9
 269              	.LVL25:
 270              	.LBB63:
 271              	.LBB64:
  25:src/user/test/../../../h/syscall_cpp.hpp ****     virtual ~Semaphore (){ sem_close(myHandle); }
 272              		.loc 1 25 35
 273 00f8 97070000 		lla	a5,_ZTV9Semaphore+16
 273      93870700 
 274 0100 2330F500 		sd	a5,0(a0)
  25:src/user/test/../../../h/syscall_cpp.hpp ****     virtual ~Semaphore (){ sem_close(myHandle); }
 275              		.loc 1 25 37 is_stmt 1
  25:src/user/test/../../../h/syscall_cpp.hpp ****     virtual ~Semaphore (){ sem_close(myHandle); }
 276              		.loc 1 25 45 is_stmt 0
 277 0104 93051000 		li	a1,1
 278 0108 13058500 		addi	a0,a0,8
 279              	.LVL26:
 280              	.LEHB8:
 281 010c 97000000 		call	sem_open
 281      E7800000 
 282              	.LVL27:
 283              	.LEHE8:
GAS LISTING /tmp/cctaWfnU.s 			page 7


 284              	.L9:
 285              	.LBE64:
 286              	.LBE63:
 287              		.loc 2 8 15 discriminator 6
 288 0114 23B82403 		sd	s2,48(s1)
 289              	.LBE56:
   9:src/user/test/buffer_CPP_API.cpp **** }
 290              		.loc 2 9 1 discriminator 6
 291 0118 83308102 		ld	ra,40(sp)
 292              		.cfi_remember_state
 293              		.cfi_restore 1
 294 011c 03340102 		ld	s0,32(sp)
 295              		.cfi_restore 8
 296              		.cfi_def_cfa 2, 48
 297 0120 83348101 		ld	s1,24(sp)
 298              		.cfi_restore 9
 299              	.LVL28:
 300 0124 03390101 		ld	s2,16(sp)
 301              		.cfi_restore 18
 302 0128 83398100 		ld	s3,8(sp)
 303              		.cfi_restore 19
 304 012c 13010103 		addi	sp,sp,48
 305              		.cfi_def_cfa_offset 0
 306 0130 67800000 		jr	ra
 307              	.LVL29:
 308              	.L14:
 309              		.cfi_restore_state
 310 0134 93040500 		mv	s1,a0
 311              	.LVL30:
 312              	.LBB65:
   5:src/user/test/buffer_CPP_API.cpp ****     spaceAvailable = new Semaphore(_cap);
 313              		.loc 2 5 36
 314 0138 13050900 		mv	a0,s2
 315 013c 97000000 		call	_ZdlPv
 315      E7800000 
 316              	.LVL31:
 317 0144 13850400 		mv	a0,s1
 318              	.LEHB9:
 319 0148 97000000 		call	_Unwind_Resume
 319      E7800000 
 320              	.LVL32:
 321              	.LEHE9:
 322              	.L15:
 323 0150 93040500 		mv	s1,a0
 324              	.LVL33:
   6:src/user/test/buffer_CPP_API.cpp ****     mutexHead = new Semaphore(1);
 325              		.loc 2 6 40
 326 0154 13050900 		mv	a0,s2
 327 0158 97000000 		call	_ZdlPv
 327      E7800000 
 328              	.LVL34:
 329 0160 13850400 		mv	a0,s1
 330              	.LEHB10:
 331 0164 97000000 		call	_Unwind_Resume
 331      E7800000 
 332              	.LVL35:
 333              	.LEHE10:
GAS LISTING /tmp/cctaWfnU.s 			page 8


 334              	.L16:
 335 016c 93040500 		mv	s1,a0
 336              	.LVL36:
   7:src/user/test/buffer_CPP_API.cpp ****     mutexTail = new Semaphore(1);
 337              		.loc 2 7 32
 338 0170 13050900 		mv	a0,s2
 339 0174 97000000 		call	_ZdlPv
 339      E7800000 
 340              	.LVL37:
 341 017c 13850400 		mv	a0,s1
 342              	.LEHB11:
 343 0180 97000000 		call	_Unwind_Resume
 343      E7800000 
 344              	.LVL38:
 345              	.LEHE11:
 346              	.L17:
 347 0188 93040500 		mv	s1,a0
 348              	.LVL39:
   8:src/user/test/buffer_CPP_API.cpp **** }
 349              		.loc 2 8 32
 350 018c 13050900 		mv	a0,s2
 351 0190 97000000 		call	_ZdlPv
 351      E7800000 
 352              	.LVL40:
 353 0198 13850400 		mv	a0,s1
 354              	.LEHB12:
 355 019c 97000000 		call	_Unwind_Resume
 355      E7800000 
 356              	.LVL41:
 357              	.LEHE12:
 358              	.LBE65:
 359              		.cfi_endproc
 360              	.LFE20:
 361              		.section	.gcc_except_table,"aw",@progbits
 362              	.LLSDA20:
 363 0000 FF       		.byte	0xff
 364 0001 FF       		.byte	0xff
 365 0002 03       		.byte	0x3
 366 0003 9C01     		.byte	0x9c,0x1
 367 0005 00000000 		.4byte	.LEHB1-.LFB20
 368 0009 00000000 		.4byte	.LEHE1-.LEHB1
 369 000d 00000000 		.4byte	0
 370 0011 00       		.byte	0
 371 0012 00000000 		.4byte	.LEHB2-.LFB20
 372 0016 00000000 		.4byte	.LEHE2-.LEHB2
 373 001a 00000000 		.4byte	.L14-.LFB20
 374 001e 00       		.byte	0
 375 001f 00000000 		.4byte	.LEHB3-.LFB20
 376 0023 00000000 		.4byte	.LEHE3-.LEHB3
 377 0027 00000000 		.4byte	0
 378 002b 00       		.byte	0
 379 002c 00000000 		.4byte	.LEHB4-.LFB20
 380 0030 00000000 		.4byte	.LEHE4-.LEHB4
 381 0034 00000000 		.4byte	.L15-.LFB20
 382 0038 00       		.byte	0
 383 0039 00000000 		.4byte	.LEHB5-.LFB20
 384 003d 00000000 		.4byte	.LEHE5-.LEHB5
GAS LISTING /tmp/cctaWfnU.s 			page 9


 385 0041 00000000 		.4byte	0
 386 0045 00       		.byte	0
 387 0046 00000000 		.4byte	.LEHB6-.LFB20
 388 004a 00000000 		.4byte	.LEHE6-.LEHB6
 389 004e 00000000 		.4byte	.L16-.LFB20
 390 0052 00       		.byte	0
 391 0053 00000000 		.4byte	.LEHB7-.LFB20
 392 0057 00000000 		.4byte	.LEHE7-.LEHB7
 393 005b 00000000 		.4byte	0
 394 005f 00       		.byte	0
 395 0060 00000000 		.4byte	.LEHB8-.LFB20
 396 0064 00000000 		.4byte	.LEHE8-.LEHB8
 397 0068 00000000 		.4byte	.L17-.LFB20
 398 006c 00       		.byte	0
 399 006d 00000000 		.4byte	.LEHB9-.LFB20
 400 0071 00000000 		.4byte	.LEHE9-.LEHB9
 401 0075 00000000 		.4byte	0
 402 0079 00       		.byte	0
 403 007a 00000000 		.4byte	.LEHB10-.LFB20
 404 007e 00000000 		.4byte	.LEHE10-.LEHB10
 405 0082 00000000 		.4byte	0
 406 0086 00       		.byte	0
 407 0087 00000000 		.4byte	.LEHB11-.LFB20
 408 008b 00000000 		.4byte	.LEHE11-.LEHB11
 409 008f 00000000 		.4byte	0
 410 0093 00       		.byte	0
 411 0094 00000000 		.4byte	.LEHB12-.LFB20
 412 0098 00000000 		.4byte	.LEHE12-.LEHB12
 413 009c 00000000 		.4byte	0
 414 00a0 00       		.byte	0
 415              		.text
 417              		.globl	_ZN9BufferCPPC1Ei
 418              		.set	_ZN9BufferCPPC1Ei,_ZN9BufferCPPC2Ei
 419              		.align	2
 420              		.globl	_ZN9BufferCPP3putEi
 422              	_ZN9BufferCPP3putEi:
 423              	.LFB25:
  10:src/user/test/buffer_CPP_API.cpp **** 
  11:src/user/test/buffer_CPP_API.cpp **** BufferCPP::~BufferCPP() {
  12:src/user/test/buffer_CPP_API.cpp ****     Console::putc('\n');
  13:src/user/test/buffer_CPP_API.cpp ****     printString("Buffer deleted!\n");
  14:src/user/test/buffer_CPP_API.cpp ****     while (getCnt()) {
  15:src/user/test/buffer_CPP_API.cpp ****         char ch = buffer[head];
  16:src/user/test/buffer_CPP_API.cpp ****         Console::putc(ch);
  17:src/user/test/buffer_CPP_API.cpp ****         head = (head + 1) % cap;
  18:src/user/test/buffer_CPP_API.cpp ****     }
  19:src/user/test/buffer_CPP_API.cpp ****     Console::putc('!');
  20:src/user/test/buffer_CPP_API.cpp ****     Console::putc('\n');
  21:src/user/test/buffer_CPP_API.cpp **** 
  22:src/user/test/buffer_CPP_API.cpp ****     mem_free(buffer);
  23:src/user/test/buffer_CPP_API.cpp ****     delete itemAvailable;
  24:src/user/test/buffer_CPP_API.cpp ****     delete spaceAvailable;
  25:src/user/test/buffer_CPP_API.cpp ****     delete mutexTail;
  26:src/user/test/buffer_CPP_API.cpp ****     delete mutexHead;
  27:src/user/test/buffer_CPP_API.cpp **** 
  28:src/user/test/buffer_CPP_API.cpp **** }
  29:src/user/test/buffer_CPP_API.cpp **** 
GAS LISTING /tmp/cctaWfnU.s 			page 10


  30:src/user/test/buffer_CPP_API.cpp **** void BufferCPP::put(int val) {
 424              		.loc 2 30 30 is_stmt 1
 425              		.cfi_startproc
 426              	.LVL42:
 427 01a4 130101FE 		addi	sp,sp,-32
 428              		.cfi_def_cfa_offset 32
 429 01a8 233C1100 		sd	ra,24(sp)
 430 01ac 23388100 		sd	s0,16(sp)
 431 01b0 23349100 		sd	s1,8(sp)
 432 01b4 23302101 		sd	s2,0(sp)
 433              		.cfi_offset 1, -8
 434              		.cfi_offset 8, -16
 435              		.cfi_offset 9, -24
 436              		.cfi_offset 18, -32
 437 01b8 13040102 		addi	s0,sp,32
 438              		.cfi_def_cfa 8, 0
 439 01bc 93040500 		mv	s1,a0
 440 01c0 13890500 		mv	s2,a1
  31:src/user/test/buffer_CPP_API.cpp ****     spaceAvailable->wait();
 441              		.loc 2 31 5
 442 01c4 83378501 		ld	a5,24(a0)
 443              	.LVL43:
 444              	.LBB66:
 445              	.LBB67:
  27:src/user/test/../../../h/syscall_cpp.hpp ****     void wait (){ sem_wait(myHandle); }
 446              		.loc 1 27 19
 447              		.loc 1 27 27 is_stmt 0
 448 01c8 03B58700 		ld	a0,8(a5)
 449              	.LVL44:
 450 01cc 97000000 		call	sem_wait
 450      E7800000 
 451              	.LVL45:
 452              	.LBE67:
 453              	.LBE66:
  32:src/user/test/buffer_CPP_API.cpp **** 
  33:src/user/test/buffer_CPP_API.cpp ****     mutexTail->wait();
 454              		.loc 2 33 5 is_stmt 1
 455 01d4 83B70403 		ld	a5,48(s1)
 456              	.LVL46:
 457              	.LBB68:
 458              	.LBB69:
 459              		.loc 1 27 19
 460              		.loc 1 27 27 is_stmt 0
 461 01d8 03B58700 		ld	a0,8(a5)
 462 01dc 97000000 		call	sem_wait
 462      E7800000 
 463              	.LVL47:
 464              	.LBE69:
 465              	.LBE68:
  34:src/user/test/buffer_CPP_API.cpp ****     buffer[tail] = val;
 466              		.loc 2 34 5 is_stmt 1
 467 01e4 83B78400 		ld	a5,8(s1)
 468              		.loc 2 34 12 is_stmt 0
 469 01e8 03A74401 		lw	a4,20(s1)
 470              		.loc 2 34 16
 471 01ec 13172700 		slli	a4,a4,2
 472 01f0 B387E700 		add	a5,a5,a4
GAS LISTING /tmp/cctaWfnU.s 			page 11


 473              		.loc 2 34 18
 474 01f4 23A02701 		sw	s2,0(a5)
  35:src/user/test/buffer_CPP_API.cpp ****     tail = (tail + 1) % cap;
 475              		.loc 2 35 5 is_stmt 1
 476              		.loc 2 35 13 is_stmt 0
 477 01f8 83A74401 		lw	a5,20(s1)
 478              		.loc 2 35 18
 479 01fc 9B871700 		addiw	a5,a5,1
 480              		.loc 2 35 25
 481 0200 03A70400 		lw	a4,0(s1)
 482              		.loc 2 35 23
 483 0204 BBE7E702 		remw	a5,a5,a4
 484              		.loc 2 35 10
 485 0208 23AAF400 		sw	a5,20(s1)
  36:src/user/test/buffer_CPP_API.cpp ****     mutexTail->signal();
 486              		.loc 2 36 5 is_stmt 1
 487 020c 83B70403 		ld	a5,48(s1)
 488              	.LVL48:
 489              	.LBB70:
 490              	.LBB71:
  28:src/user/test/../../../h/syscall_cpp.hpp ****     void signal (){ sem_signal(myHandle); }
 491              		.loc 1 28 21
 492              		.loc 1 28 31 is_stmt 0
 493 0210 03B58700 		ld	a0,8(a5)
 494 0214 97000000 		call	sem_signal
 494      E7800000 
 495              	.LVL49:
 496              	.LBE71:
 497              	.LBE70:
  37:src/user/test/buffer_CPP_API.cpp **** 
  38:src/user/test/buffer_CPP_API.cpp ****     itemAvailable->signal();
 498              		.loc 2 38 5 is_stmt 1
 499 021c 83B70402 		ld	a5,32(s1)
 500              	.LVL50:
 501              	.LBB72:
 502              	.LBB73:
 503              		.loc 1 28 21
 504              		.loc 1 28 31 is_stmt 0
 505 0220 03B58700 		ld	a0,8(a5)
 506 0224 97000000 		call	sem_signal
 506      E7800000 
 507              	.LVL51:
 508              	.LBE73:
 509              	.LBE72:
  39:src/user/test/buffer_CPP_API.cpp **** 
  40:src/user/test/buffer_CPP_API.cpp **** }
 510              		.loc 2 40 1
 511 022c 83308101 		ld	ra,24(sp)
 512              		.cfi_restore 1
 513 0230 03340101 		ld	s0,16(sp)
 514              		.cfi_restore 8
 515              		.cfi_def_cfa 2, 32
 516 0234 83348100 		ld	s1,8(sp)
 517              		.cfi_restore 9
 518              	.LVL52:
 519 0238 03390100 		ld	s2,0(sp)
 520              		.cfi_restore 18
GAS LISTING /tmp/cctaWfnU.s 			page 12


 521 023c 13010102 		addi	sp,sp,32
 522              		.cfi_def_cfa_offset 0
 523 0240 67800000 		jr	ra
 524              		.cfi_endproc
 525              	.LFE25:
 527              		.align	2
 528              		.globl	_ZN9BufferCPP3getEv
 530              	_ZN9BufferCPP3getEv:
 531              	.LFB26:
  41:src/user/test/buffer_CPP_API.cpp **** 
  42:src/user/test/buffer_CPP_API.cpp **** int BufferCPP::get() {
 532              		.loc 2 42 22 is_stmt 1
 533              		.cfi_startproc
 534              	.LVL53:
 535 0244 130101FE 		addi	sp,sp,-32
 536              		.cfi_def_cfa_offset 32
 537 0248 233C1100 		sd	ra,24(sp)
 538 024c 23388100 		sd	s0,16(sp)
 539 0250 23349100 		sd	s1,8(sp)
 540 0254 23302101 		sd	s2,0(sp)
 541              		.cfi_offset 1, -8
 542              		.cfi_offset 8, -16
 543              		.cfi_offset 9, -24
 544              		.cfi_offset 18, -32
 545 0258 13040102 		addi	s0,sp,32
 546              		.cfi_def_cfa 8, 0
 547 025c 93040500 		mv	s1,a0
  43:src/user/test/buffer_CPP_API.cpp ****     itemAvailable->wait();
 548              		.loc 2 43 5
 549 0260 83370502 		ld	a5,32(a0)
 550              	.LVL54:
 551              	.LBB74:
 552              	.LBB75:
  27:src/user/test/../../../h/syscall_cpp.hpp ****     void signal (){ sem_signal(myHandle); }
 553              		.loc 1 27 19
  27:src/user/test/../../../h/syscall_cpp.hpp ****     void signal (){ sem_signal(myHandle); }
 554              		.loc 1 27 27 is_stmt 0
 555 0264 03B58700 		ld	a0,8(a5)
 556              	.LVL55:
 557 0268 97000000 		call	sem_wait
 557      E7800000 
 558              	.LVL56:
 559              	.LBE75:
 560              	.LBE74:
  44:src/user/test/buffer_CPP_API.cpp **** 
  45:src/user/test/buffer_CPP_API.cpp ****     mutexHead->wait();
 561              		.loc 2 45 5 is_stmt 1
 562 0270 83B78402 		ld	a5,40(s1)
 563              	.LVL57:
 564              	.LBB76:
 565              	.LBB77:
  27:src/user/test/../../../h/syscall_cpp.hpp ****     void signal (){ sem_signal(myHandle); }
 566              		.loc 1 27 19
  27:src/user/test/../../../h/syscall_cpp.hpp ****     void signal (){ sem_signal(myHandle); }
 567              		.loc 1 27 27 is_stmt 0
 568 0274 03B58700 		ld	a0,8(a5)
 569 0278 97000000 		call	sem_wait
GAS LISTING /tmp/cctaWfnU.s 			page 13


 569      E7800000 
 570              	.LVL58:
 571              	.LBE77:
 572              	.LBE76:
  46:src/user/test/buffer_CPP_API.cpp **** 
  47:src/user/test/buffer_CPP_API.cpp ****     int ret = buffer[head];
 573              		.loc 2 47 5 is_stmt 1
 574              		.loc 2 47 15 is_stmt 0
 575 0280 03B78400 		ld	a4,8(s1)
 576              		.loc 2 47 22
 577 0284 83A70401 		lw	a5,16(s1)
 578              		.loc 2 47 26
 579 0288 93962700 		slli	a3,a5,2
 580 028c 3307D700 		add	a4,a4,a3
 581              		.loc 2 47 9
 582 0290 03290700 		lw	s2,0(a4)
 583              	.LVL59:
  48:src/user/test/buffer_CPP_API.cpp ****     head = (head + 1) % cap;
 584              		.loc 2 48 5 is_stmt 1
 585              		.loc 2 48 18 is_stmt 0
 586 0294 9B871700 		addiw	a5,a5,1
 587              		.loc 2 48 25
 588 0298 03A70400 		lw	a4,0(s1)
 589              		.loc 2 48 23
 590 029c BBE7E702 		remw	a5,a5,a4
 591              		.loc 2 48 10
 592 02a0 23A8F400 		sw	a5,16(s1)
  49:src/user/test/buffer_CPP_API.cpp ****     mutexHead->signal();
 593              		.loc 2 49 5 is_stmt 1
 594 02a4 83B78402 		ld	a5,40(s1)
 595              	.LVL60:
 596              	.LBB78:
 597              	.LBB79:
 598              		.loc 1 28 21
 599              		.loc 1 28 31 is_stmt 0
 600 02a8 03B58700 		ld	a0,8(a5)
 601 02ac 97000000 		call	sem_signal
 601      E7800000 
 602              	.LVL61:
 603              	.LBE79:
 604              	.LBE78:
  50:src/user/test/buffer_CPP_API.cpp **** 
  51:src/user/test/buffer_CPP_API.cpp ****     spaceAvailable->signal();
 605              		.loc 2 51 5 is_stmt 1
 606 02b4 83B78401 		ld	a5,24(s1)
 607              	.LVL62:
 608              	.LBB80:
 609              	.LBB81:
 610              		.loc 1 28 21
 611              		.loc 1 28 31 is_stmt 0
 612 02b8 03B58700 		ld	a0,8(a5)
 613 02bc 97000000 		call	sem_signal
 613      E7800000 
 614              	.LVL63:
 615              	.LBE81:
 616              	.LBE80:
  52:src/user/test/buffer_CPP_API.cpp **** 
GAS LISTING /tmp/cctaWfnU.s 			page 14


  53:src/user/test/buffer_CPP_API.cpp ****     return ret;
 617              		.loc 2 53 5 is_stmt 1
  54:src/user/test/buffer_CPP_API.cpp **** }
 618              		.loc 2 54 1 is_stmt 0
 619 02c4 13050900 		mv	a0,s2
 620 02c8 83308101 		ld	ra,24(sp)
 621              		.cfi_restore 1
 622 02cc 03340101 		ld	s0,16(sp)
 623              		.cfi_restore 8
 624              		.cfi_def_cfa 2, 32
 625 02d0 83348100 		ld	s1,8(sp)
 626              		.cfi_restore 9
 627              	.LVL64:
 628 02d4 03390100 		ld	s2,0(sp)
 629              		.cfi_restore 18
 630              	.LVL65:
 631 02d8 13010102 		addi	sp,sp,32
 632              		.cfi_def_cfa_offset 0
 633 02dc 67800000 		jr	ra
 634              		.cfi_endproc
 635              	.LFE26:
 637              		.align	2
 638              		.globl	_ZN9BufferCPP6getCntEv
 640              	_ZN9BufferCPP6getCntEv:
 641              	.LFB27:
  55:src/user/test/buffer_CPP_API.cpp **** 
  56:src/user/test/buffer_CPP_API.cpp **** int BufferCPP::getCnt() {
 642              		.loc 2 56 25 is_stmt 1
 643              		.cfi_startproc
 644              	.LVL66:
 645 02e0 130101FE 		addi	sp,sp,-32
 646              		.cfi_def_cfa_offset 32
 647 02e4 233C1100 		sd	ra,24(sp)
 648 02e8 23388100 		sd	s0,16(sp)
 649 02ec 23349100 		sd	s1,8(sp)
 650 02f0 23302101 		sd	s2,0(sp)
 651              		.cfi_offset 1, -8
 652              		.cfi_offset 8, -16
 653              		.cfi_offset 9, -24
 654              		.cfi_offset 18, -32
 655 02f4 13040102 		addi	s0,sp,32
 656              		.cfi_def_cfa 8, 0
 657 02f8 93040500 		mv	s1,a0
  57:src/user/test/buffer_CPP_API.cpp ****     int ret;
 658              		.loc 2 57 5
  58:src/user/test/buffer_CPP_API.cpp **** 
  59:src/user/test/buffer_CPP_API.cpp ****     mutexHead->wait();
 659              		.loc 2 59 5
 660 02fc 83378502 		ld	a5,40(a0)
 661              	.LVL67:
 662              	.LBB82:
 663              	.LBB83:
  27:src/user/test/../../../h/syscall_cpp.hpp ****     void signal (){ sem_signal(myHandle); }
 664              		.loc 1 27 19
  27:src/user/test/../../../h/syscall_cpp.hpp ****     void signal (){ sem_signal(myHandle); }
 665              		.loc 1 27 27 is_stmt 0
 666 0300 03B58700 		ld	a0,8(a5)
GAS LISTING /tmp/cctaWfnU.s 			page 15


 667              	.LVL68:
 668 0304 97000000 		call	sem_wait
 668      E7800000 
 669              	.LVL69:
 670              	.LBE83:
 671              	.LBE82:
  60:src/user/test/buffer_CPP_API.cpp ****     mutexTail->wait();
 672              		.loc 2 60 5 is_stmt 1
 673 030c 83B70403 		ld	a5,48(s1)
 674              	.LVL70:
 675              	.LBB84:
 676              	.LBB85:
  27:src/user/test/../../../h/syscall_cpp.hpp ****     void signal (){ sem_signal(myHandle); }
 677              		.loc 1 27 19
  27:src/user/test/../../../h/syscall_cpp.hpp ****     void signal (){ sem_signal(myHandle); }
 678              		.loc 1 27 27 is_stmt 0
 679 0310 03B58700 		ld	a0,8(a5)
 680 0314 97000000 		call	sem_wait
 680      E7800000 
 681              	.LVL71:
 682              	.LBE85:
 683              	.LBE84:
  61:src/user/test/buffer_CPP_API.cpp **** 
  62:src/user/test/buffer_CPP_API.cpp ****     if (tail >= head) {
 684              		.loc 2 62 5 is_stmt 1
 685              		.loc 2 62 9 is_stmt 0
 686 031c 83A74401 		lw	a5,20(s1)
 687              		.loc 2 62 17
 688 0320 03A90401 		lw	s2,16(s1)
 689              		.loc 2 62 5
 690 0324 63C22705 		blt	a5,s2,.L25
  63:src/user/test/buffer_CPP_API.cpp ****         ret = tail - head;
 691              		.loc 2 63 9 is_stmt 1
 692              		.loc 2 63 13 is_stmt 0
 693 0328 3B892741 		subw	s2,a5,s2
 694              	.LVL72:
 695              	.L26:
  64:src/user/test/buffer_CPP_API.cpp ****     } else {
  65:src/user/test/buffer_CPP_API.cpp ****         ret = cap - head + tail;
  66:src/user/test/buffer_CPP_API.cpp ****     }
  67:src/user/test/buffer_CPP_API.cpp **** 
  68:src/user/test/buffer_CPP_API.cpp ****     mutexTail->signal();
 696              		.loc 2 68 5 is_stmt 1
 697 032c 83B70403 		ld	a5,48(s1)
 698              	.LVL73:
 699              	.LBB86:
 700              	.LBB87:
 701              		.loc 1 28 21
 702              		.loc 1 28 31 is_stmt 0
 703 0330 03B58700 		ld	a0,8(a5)
 704 0334 97000000 		call	sem_signal
 704      E7800000 
 705              	.LVL74:
 706              	.LBE87:
 707              	.LBE86:
  69:src/user/test/buffer_CPP_API.cpp ****     mutexHead->signal();
 708              		.loc 2 69 5 is_stmt 1
GAS LISTING /tmp/cctaWfnU.s 			page 16


 709 033c 83B78402 		ld	a5,40(s1)
 710              	.LVL75:
 711              	.LBB88:
 712              	.LBB89:
 713              		.loc 1 28 21
 714              		.loc 1 28 31 is_stmt 0
 715 0340 03B58700 		ld	a0,8(a5)
 716 0344 97000000 		call	sem_signal
 716      E7800000 
 717              	.LVL76:
 718              	.LBE89:
 719              	.LBE88:
  70:src/user/test/buffer_CPP_API.cpp **** 
  71:src/user/test/buffer_CPP_API.cpp ****     return ret;
 720              		.loc 2 71 5 is_stmt 1
  72:src/user/test/buffer_CPP_API.cpp **** }
 721              		.loc 2 72 1 is_stmt 0
 722 034c 13050900 		mv	a0,s2
 723 0350 83308101 		ld	ra,24(sp)
 724              		.cfi_remember_state
 725              		.cfi_restore 1
 726 0354 03340101 		ld	s0,16(sp)
 727              		.cfi_restore 8
 728              		.cfi_def_cfa 2, 32
 729 0358 83348100 		ld	s1,8(sp)
 730              		.cfi_restore 9
 731              	.LVL77:
 732 035c 03390100 		ld	s2,0(sp)
 733              		.cfi_restore 18
 734              	.LVL78:
 735 0360 13010102 		addi	sp,sp,32
 736              		.cfi_def_cfa_offset 0
 737 0364 67800000 		jr	ra
 738              	.LVL79:
 739              	.L25:
 740              		.cfi_restore_state
  65:src/user/test/buffer_CPP_API.cpp ****     }
 741              		.loc 2 65 9 is_stmt 1
  65:src/user/test/buffer_CPP_API.cpp ****     }
 742              		.loc 2 65 15 is_stmt 0
 743 0368 03A70400 		lw	a4,0(s1)
  65:src/user/test/buffer_CPP_API.cpp ****     }
 744              		.loc 2 65 19
 745 036c 3B092741 		subw	s2,a4,s2
  65:src/user/test/buffer_CPP_API.cpp ****     }
 746              		.loc 2 65 13
 747 0370 3B09F900 		addw	s2,s2,a5
 748 0374 6FF09FFB 		j	.L26
 749              		.cfi_endproc
 750              	.LFE27:
 752              		.align	2
 753              		.globl	_ZN9BufferCPPD2Ev
 755              	_ZN9BufferCPPD2Ev:
 756              	.LFB23:
  11:src/user/test/buffer_CPP_API.cpp ****     Console::putc('\n');
 757              		.loc 2 11 1 is_stmt 1
 758              		.cfi_startproc
GAS LISTING /tmp/cctaWfnU.s 			page 17


 759              		.cfi_personality 0x9b,DW.ref.__gxx_personality_v0
 760              		.cfi_lsda 0x1b,.LLSDA23
 761              	.LVL80:
 762 0378 130101FE 		addi	sp,sp,-32
 763              		.cfi_def_cfa_offset 32
 764 037c 233C1100 		sd	ra,24(sp)
 765 0380 23388100 		sd	s0,16(sp)
 766 0384 23349100 		sd	s1,8(sp)
 767              		.cfi_offset 1, -8
 768              		.cfi_offset 8, -16
 769              		.cfi_offset 9, -24
 770 0388 13040102 		addi	s0,sp,32
 771              		.cfi_def_cfa 8, 0
 772 038c 93040500 		mv	s1,a0
 773              	.LBB90:
  12:src/user/test/buffer_CPP_API.cpp ****     printString("Buffer deleted!\n");
 774              		.loc 2 12 5
 775              	.LVL81:
 776              	.LBB91:
 777              	.LBB92:
  29:src/user/test/../../../h/syscall_cpp.hpp **** private:
  30:src/user/test/../../../h/syscall_cpp.hpp ****     sem_t myHandle;
  31:src/user/test/../../../h/syscall_cpp.hpp **** };
  32:src/user/test/../../../h/syscall_cpp.hpp **** 
  33:src/user/test/../../../h/syscall_cpp.hpp **** class PeriodicThread : public Thread {
  34:src/user/test/../../../h/syscall_cpp.hpp **** protected:
  35:src/user/test/../../../h/syscall_cpp.hpp ****     PeriodicThread (time_t period);
  36:src/user/test/../../../h/syscall_cpp.hpp ****     virtual void periodicActivation () {}
  37:src/user/test/../../../h/syscall_cpp.hpp **** private:
  38:src/user/test/../../../h/syscall_cpp.hpp ****     static void periodicWrapper(void*);
  39:src/user/test/../../../h/syscall_cpp.hpp **** };
  40:src/user/test/../../../h/syscall_cpp.hpp **** 
  41:src/user/test/../../../h/syscall_cpp.hpp **** class Console {
  42:src/user/test/../../../h/syscall_cpp.hpp **** public:
  43:src/user/test/../../../h/syscall_cpp.hpp ****     static char getc (){ return ::getc(); }
  44:src/user/test/../../../h/syscall_cpp.hpp ****     static void putc (char c){ ::putc(c); }
 778              		.loc 1 44 32
 779              		.loc 1 44 38 is_stmt 0
 780 0390 1305A000 		li	a0,10
 781              	.LVL82:
 782 0394 97000000 		call	putc
 782      E7800000 
 783              	.LVL83:
 784              	.LBE92:
 785              	.LBE91:
  13:src/user/test/buffer_CPP_API.cpp ****     while (getCnt()) {
 786              		.loc 2 13 5 is_stmt 1
  13:src/user/test/buffer_CPP_API.cpp ****     while (getCnt()) {
 787              		.loc 2 13 16 is_stmt 0
 788 039c 17050000 		lla	a0,.LC0
 788      13050500 
 789 03a4 97000000 		call	_Z11printStringPKc
 789      E7800000 
 790              	.LVL84:
 791              	.L30:
  14:src/user/test/buffer_CPP_API.cpp ****         char ch = buffer[head];
 792              		.loc 2 14 5 is_stmt 1
GAS LISTING /tmp/cctaWfnU.s 			page 18


  14:src/user/test/buffer_CPP_API.cpp ****         char ch = buffer[head];
 793              		.loc 2 14 18 is_stmt 0
 794 03ac 13850400 		mv	a0,s1
 795 03b0 97000000 		call	_ZN9BufferCPP6getCntEv
 795      E7800000 
 796              	.LVL85:
  14:src/user/test/buffer_CPP_API.cpp ****         char ch = buffer[head];
 797              		.loc 2 14 19
 798 03b8 630C0502 		beq	a0,zero,.L29
 799              	.LBB93:
  15:src/user/test/buffer_CPP_API.cpp ****         Console::putc(ch);
 800              		.loc 2 15 9 is_stmt 1
  15:src/user/test/buffer_CPP_API.cpp ****         Console::putc(ch);
 801              		.loc 2 15 19 is_stmt 0
 802 03bc 83B78400 		ld	a5,8(s1)
  15:src/user/test/buffer_CPP_API.cpp ****         Console::putc(ch);
 803              		.loc 2 15 26
 804 03c0 03A70401 		lw	a4,16(s1)
  15:src/user/test/buffer_CPP_API.cpp ****         Console::putc(ch);
 805              		.loc 2 15 30
 806 03c4 13172700 		slli	a4,a4,2
 807 03c8 B387E700 		add	a5,a5,a4
 808              	.LVL86:
  16:src/user/test/buffer_CPP_API.cpp ****         head = (head + 1) % cap;
 809              		.loc 2 16 9 is_stmt 1
 810              	.LBB94:
 811              	.LBB95:
 812              		.loc 1 44 32
 813              		.loc 1 44 38 is_stmt 0
 814 03cc 03C50700 		lbu	a0,0(a5)
 815 03d0 97000000 		call	putc
 815      E7800000 
 816              	.LVL87:
 817              	.LBE95:
 818              	.LBE94:
  17:src/user/test/buffer_CPP_API.cpp ****     }
 819              		.loc 2 17 9 is_stmt 1
  17:src/user/test/buffer_CPP_API.cpp ****     }
 820              		.loc 2 17 17 is_stmt 0
 821 03d8 83A70401 		lw	a5,16(s1)
  17:src/user/test/buffer_CPP_API.cpp ****     }
 822              		.loc 2 17 22
 823 03dc 9B871700 		addiw	a5,a5,1
  17:src/user/test/buffer_CPP_API.cpp ****     }
 824              		.loc 2 17 29
 825 03e0 03A70400 		lw	a4,0(s1)
  17:src/user/test/buffer_CPP_API.cpp ****     }
 826              		.loc 2 17 27
 827 03e4 BBE7E702 		remw	a5,a5,a4
  17:src/user/test/buffer_CPP_API.cpp ****     }
 828              		.loc 2 17 14
 829 03e8 23A8F400 		sw	a5,16(s1)
 830              	.LBE93:
  14:src/user/test/buffer_CPP_API.cpp ****         char ch = buffer[head];
 831              		.loc 2 14 5
 832 03ec 6FF01FFC 		j	.L30
 833              	.L29:
GAS LISTING /tmp/cctaWfnU.s 			page 19


  19:src/user/test/buffer_CPP_API.cpp ****     Console::putc('\n');
 834              		.loc 2 19 5 is_stmt 1
 835              	.LVL88:
 836              	.LBB96:
 837              	.LBB97:
 838              		.loc 1 44 32
 839              		.loc 1 44 38 is_stmt 0
 840 03f0 13051002 		li	a0,33
 841 03f4 97000000 		call	putc
 841      E7800000 
 842              	.LVL89:
 843              	.LBE97:
 844              	.LBE96:
  20:src/user/test/buffer_CPP_API.cpp **** 
 845              		.loc 2 20 5 is_stmt 1
 846              	.LBB98:
 847              	.LBB99:
 848              		.loc 1 44 32
 849              		.loc 1 44 38 is_stmt 0
 850 03fc 1305A000 		li	a0,10
 851 0400 97000000 		call	putc
 851      E7800000 
 852              	.LVL90:
 853              	.LBE99:
 854              	.LBE98:
  22:src/user/test/buffer_CPP_API.cpp ****     delete itemAvailable;
 855              		.loc 2 22 5 is_stmt 1
  22:src/user/test/buffer_CPP_API.cpp ****     delete itemAvailable;
 856              		.loc 2 22 13 is_stmt 0
 857 0408 03B58400 		ld	a0,8(s1)
 858 040c 97000000 		call	mem_free
 858      E7800000 
 859              	.LVL91:
  23:src/user/test/buffer_CPP_API.cpp ****     delete spaceAvailable;
 860              		.loc 2 23 5 is_stmt 1
  23:src/user/test/buffer_CPP_API.cpp ****     delete spaceAvailable;
 861              		.loc 2 23 12 is_stmt 0
 862 0414 03B50402 		ld	a0,32(s1)
  23:src/user/test/buffer_CPP_API.cpp ****     delete spaceAvailable;
 863              		.loc 2 23 25
 864 0418 63080500 		beq	a0,zero,.L31
  23:src/user/test/buffer_CPP_API.cpp ****     delete spaceAvailable;
 865              		.loc 2 23 12 discriminator 1
 866 041c 83370500 		ld	a5,0(a0)
 867 0420 83B78700 		ld	a5,8(a5)
 868 0424 E7800700 		jalr	a5
 869              	.LVL92:
 870              	.L31:
  24:src/user/test/buffer_CPP_API.cpp ****     delete mutexTail;
 871              		.loc 2 24 5 is_stmt 1
  24:src/user/test/buffer_CPP_API.cpp ****     delete mutexTail;
 872              		.loc 2 24 12 is_stmt 0
 873 0428 03B58401 		ld	a0,24(s1)
  24:src/user/test/buffer_CPP_API.cpp ****     delete mutexTail;
 874              		.loc 2 24 26
 875 042c 63080500 		beq	a0,zero,.L32
  24:src/user/test/buffer_CPP_API.cpp ****     delete mutexTail;
GAS LISTING /tmp/cctaWfnU.s 			page 20


 876              		.loc 2 24 12 discriminator 1
 877 0430 83370500 		ld	a5,0(a0)
 878 0434 83B78700 		ld	a5,8(a5)
 879 0438 E7800700 		jalr	a5
 880              	.LVL93:
 881              	.L32:
  25:src/user/test/buffer_CPP_API.cpp ****     delete mutexHead;
 882              		.loc 2 25 5 is_stmt 1
  25:src/user/test/buffer_CPP_API.cpp ****     delete mutexHead;
 883              		.loc 2 25 12 is_stmt 0
 884 043c 03B50403 		ld	a0,48(s1)
  25:src/user/test/buffer_CPP_API.cpp ****     delete mutexHead;
 885              		.loc 2 25 21
 886 0440 63080500 		beq	a0,zero,.L33
  25:src/user/test/buffer_CPP_API.cpp ****     delete mutexHead;
 887              		.loc 2 25 12 discriminator 1
 888 0444 83370500 		ld	a5,0(a0)
 889 0448 83B78700 		ld	a5,8(a5)
 890 044c E7800700 		jalr	a5
 891              	.LVL94:
 892              	.L33:
  26:src/user/test/buffer_CPP_API.cpp **** 
 893              		.loc 2 26 5 is_stmt 1
  26:src/user/test/buffer_CPP_API.cpp **** 
 894              		.loc 2 26 12 is_stmt 0
 895 0450 03B58402 		ld	a0,40(s1)
  26:src/user/test/buffer_CPP_API.cpp **** 
 896              		.loc 2 26 21
 897 0454 63080500 		beq	a0,zero,.L28
  26:src/user/test/buffer_CPP_API.cpp **** 
 898              		.loc 2 26 12 discriminator 1
 899 0458 83370500 		ld	a5,0(a0)
 900 045c 83B78700 		ld	a5,8(a5)
 901 0460 E7800700 		jalr	a5
 902              	.LVL95:
 903              	.L28:
 904              	.LBE90:
  28:src/user/test/buffer_CPP_API.cpp **** 
 905              		.loc 2 28 1
 906 0464 83308101 		ld	ra,24(sp)
 907              		.cfi_restore 1
 908 0468 03340101 		ld	s0,16(sp)
 909              		.cfi_restore 8
 910              		.cfi_def_cfa 2, 32
 911 046c 83348100 		ld	s1,8(sp)
 912              		.cfi_restore 9
 913              	.LVL96:
 914 0470 13010102 		addi	sp,sp,32
 915              		.cfi_def_cfa_offset 0
 916 0474 67800000 		jr	ra
 917              		.cfi_endproc
 918              	.LFE23:
 919              		.section	.gcc_except_table
 920              	.LLSDA23:
 921 00a1 FF       		.byte	0xff
 922 00a2 FF       		.byte	0xff
 923 00a3 03       		.byte	0x3
GAS LISTING /tmp/cctaWfnU.s 			page 21


 924 00a4 00       		.byte	0
 925              		.text
 927              		.globl	_ZN9BufferCPPD1Ev
 928              		.set	_ZN9BufferCPPD1Ev,_ZN9BufferCPPD2Ev
 929              		.weak	_ZTV9Semaphore
 930              		.section	.rodata._ZTV9Semaphore,"aG",@progbits,_ZTV9Semaphore,comdat
 931              		.align	3
 934              	_ZTV9Semaphore:
 935 0000 00000000 		.dword	0
 935      00000000 
 936 0008 00000000 		.dword	0
 936      00000000 
 937 0010 00000000 		.dword	_ZN9SemaphoreD1Ev
 937      00000000 
 938 0018 00000000 		.dword	_ZN9SemaphoreD0Ev
 938      00000000 
 939              		.section	.rodata.str1.8,"aMS",@progbits,1
 940              		.align	3
 941              	.LC0:
 942 0000 42756666 		.string	"Buffer deleted!\n"
 942      65722064 
 942      656C6574 
 942      6564210A 
 942      00
 943              		.text
 944              	.Letext0:
 945              		.file 3 "src/user/test/../../../h/../lib/hw.h"
 946              		.file 4 "src/user/test/../../../h/../h/_semaphore.h"
 947              		.file 5 "src/user/test/../../../h/syscall_c.h"
 948              		.file 6 "src/user/test/buffer_CPP_API.hpp"
 949              		.file 7 "src/user/test/printing.hpp"
 3780              		.align	3
 3783              	DW.ref.__gxx_personality_v0:
 3784 0000 00000000 		.dword	__gxx_personality_v0
 3784      00000000 
 3785              		.ident	"GCC: () 8.3.0"
GAS LISTING /tmp/cctaWfnU.s 			page 22


DEFINED SYMBOLS
                            *ABS*:0000000000000000 buffer_CPP_API.cpp
     /tmp/cctaWfnU.s:13     .text._ZN9SemaphoreD2Ev:0000000000000000 _ZN9SemaphoreD2Ev
     /tmp/cctaWfnU.s:17     .text._ZN9SemaphoreD2Ev:0000000000000000 .L0 
     /tmp/cctaWfnU.s:3783   .sdata.DW.ref.__gxx_personality_v0:0000000000000000 DW.ref.__gxx_personality_v0
     /tmp/cctaWfnU.s:21     .text._ZN9SemaphoreD2Ev:0000000000000000 .L0 
     /tmp/cctaWfnU.s:22     .text._ZN9SemaphoreD2Ev:0000000000000004 .L0 
     /tmp/cctaWfnU.s:25     .text._ZN9SemaphoreD2Ev:000000000000000c .L0 
     /tmp/cctaWfnU.s:26     .text._ZN9SemaphoreD2Ev:000000000000000c .L0 
     /tmp/cctaWfnU.s:28     .text._ZN9SemaphoreD2Ev:0000000000000010 .L0 
     /tmp/cctaWfnU.s:934    .rodata._ZTV9Semaphore:0000000000000000 _ZTV9Semaphore
     /tmp/cctaWfnU.s:31     .text._ZN9SemaphoreD2Ev:0000000000000010 .L0 
     /tmp/cctaWfnU.s:34     .text._ZN9SemaphoreD2Ev:000000000000001c .L0 
     /tmp/cctaWfnU.s:35     .text._ZN9SemaphoreD2Ev:000000000000001c .L0 
     /tmp/cctaWfnU.s:41     .text._ZN9SemaphoreD2Ev:0000000000000028 .L0 
     /tmp/cctaWfnU.s:42     .text._ZN9SemaphoreD2Ev:000000000000002c .L0 
     /tmp/cctaWfnU.s:44     .text._ZN9SemaphoreD2Ev:0000000000000030 .L0 
     /tmp/cctaWfnU.s:45     .text._ZN9SemaphoreD2Ev:0000000000000030 .L0 
     /tmp/cctaWfnU.s:47     .text._ZN9SemaphoreD2Ev:0000000000000034 .L0 
     /tmp/cctaWfnU.s:49     .text._ZN9SemaphoreD2Ev:0000000000000038 .L0 
     /tmp/cctaWfnU.s:13     .text._ZN9SemaphoreD2Ev:0000000000000000 _ZN9SemaphoreD1Ev
     /tmp/cctaWfnU.s:66     .text._ZN9SemaphoreD0Ev:0000000000000000 _ZN9SemaphoreD0Ev
     /tmp/cctaWfnU.s:69     .text._ZN9SemaphoreD0Ev:0000000000000000 .L0 
     /tmp/cctaWfnU.s:73     .text._ZN9SemaphoreD0Ev:0000000000000000 .L0 
     /tmp/cctaWfnU.s:74     .text._ZN9SemaphoreD0Ev:0000000000000004 .L0 
     /tmp/cctaWfnU.s:78     .text._ZN9SemaphoreD0Ev:0000000000000010 .L0 
     /tmp/cctaWfnU.s:79     .text._ZN9SemaphoreD0Ev:0000000000000010 .L0 
     /tmp/cctaWfnU.s:80     .text._ZN9SemaphoreD0Ev:0000000000000010 .L0 
     /tmp/cctaWfnU.s:82     .text._ZN9SemaphoreD0Ev:0000000000000014 .L0 
     /tmp/cctaWfnU.s:88     .text._ZN9SemaphoreD0Ev:0000000000000018 .L0 
     /tmp/cctaWfnU.s:91     .text._ZN9SemaphoreD0Ev:0000000000000024 .L0 
     /tmp/cctaWfnU.s:92     .text._ZN9SemaphoreD0Ev:0000000000000024 .L0 
     /tmp/cctaWfnU.s:99     .text._ZN9SemaphoreD0Ev:0000000000000030 .L0 
     /tmp/cctaWfnU.s:105    .text._ZN9SemaphoreD0Ev:0000000000000040 .L0 
     /tmp/cctaWfnU.s:107    .text._ZN9SemaphoreD0Ev:0000000000000044 .L0 
     /tmp/cctaWfnU.s:108    .text._ZN9SemaphoreD0Ev:0000000000000044 .L0 
     /tmp/cctaWfnU.s:110    .text._ZN9SemaphoreD0Ev:0000000000000048 .L0 
     /tmp/cctaWfnU.s:113    .text._ZN9SemaphoreD0Ev:000000000000004c .L0 
     /tmp/cctaWfnU.s:115    .text._ZN9SemaphoreD0Ev:0000000000000050 .L0 
     /tmp/cctaWfnU.s:133    .text:0000000000000000 _ZN9BufferCPPC2Ei
     /tmp/cctaWfnU.s:137    .text:0000000000000000 .L0 
     /tmp/cctaWfnU.s:141    .text:0000000000000000 .L0 
     /tmp/cctaWfnU.s:142    .text:0000000000000004 .L0 
     /tmp/cctaWfnU.s:148    .text:0000000000000018 .L0 
     /tmp/cctaWfnU.s:149    .text:0000000000000018 .L0 
     /tmp/cctaWfnU.s:150    .text:0000000000000018 .L0 
     /tmp/cctaWfnU.s:151    .text:0000000000000018 .L0 
     /tmp/cctaWfnU.s:152    .text:0000000000000018 .L0 
     /tmp/cctaWfnU.s:154    .text:000000000000001c .L0 
     /tmp/cctaWfnU.s:159    .text:0000000000000024 .L0 
     /tmp/cctaWfnU.s:163    .text:000000000000002c .L0 
     /tmp/cctaWfnU.s:167    .text:0000000000000038 .L0 
     /tmp/cctaWfnU.s:168    .text:0000000000000038 .L0 
     /tmp/cctaWfnU.s:173    .text:0000000000000044 .L0 
     /tmp/cctaWfnU.s:175    .text:0000000000000048 .L0 
     /tmp/cctaWfnU.s:176    .text:0000000000000048 .L0 
     /tmp/cctaWfnU.s:186    .text:000000000000005c .L0 
GAS LISTING /tmp/cctaWfnU.s 			page 23


     /tmp/cctaWfnU.s:189    .text:0000000000000068 .L0 
     /tmp/cctaWfnU.s:190    .text:0000000000000068 .L0 
     /tmp/cctaWfnU.s:201    .text:0000000000000078 .L0 
     /tmp/cctaWfnU.s:203    .text:000000000000007c .L0 
     /tmp/cctaWfnU.s:204    .text:000000000000007c .L0 
     /tmp/cctaWfnU.s:215    .text:0000000000000090 .L0 
     /tmp/cctaWfnU.s:218    .text:000000000000009c .L0 
     /tmp/cctaWfnU.s:219    .text:000000000000009c .L0 
     /tmp/cctaWfnU.s:230    .text:00000000000000ac .L0 
     /tmp/cctaWfnU.s:232    .text:00000000000000b0 .L0 
     /tmp/cctaWfnU.s:233    .text:00000000000000b0 .L0 
     /tmp/cctaWfnU.s:244    .text:00000000000000c4 .L0 
     /tmp/cctaWfnU.s:247    .text:00000000000000d0 .L0 
     /tmp/cctaWfnU.s:248    .text:00000000000000d0 .L0 
     /tmp/cctaWfnU.s:259    .text:00000000000000e0 .L0 
     /tmp/cctaWfnU.s:261    .text:00000000000000e4 .L0 
     /tmp/cctaWfnU.s:262    .text:00000000000000e4 .L0 
     /tmp/cctaWfnU.s:273    .text:00000000000000f8 .L0 
     /tmp/cctaWfnU.s:276    .text:0000000000000104 .L0 
     /tmp/cctaWfnU.s:277    .text:0000000000000104 .L0 
     /tmp/cctaWfnU.s:288    .text:0000000000000114 .L0 
     /tmp/cctaWfnU.s:291    .text:0000000000000118 .L0 
     /tmp/cctaWfnU.s:292    .text:000000000000011c .L0 
     /tmp/cctaWfnU.s:293    .text:000000000000011c .L0 
     /tmp/cctaWfnU.s:295    .text:0000000000000120 .L0 
     /tmp/cctaWfnU.s:296    .text:0000000000000120 .L0 
     /tmp/cctaWfnU.s:298    .text:0000000000000124 .L0 
     /tmp/cctaWfnU.s:301    .text:0000000000000128 .L0 
     /tmp/cctaWfnU.s:303    .text:000000000000012c .L0 
     /tmp/cctaWfnU.s:305    .text:0000000000000130 .L0 
     /tmp/cctaWfnU.s:309    .text:0000000000000134 .L0 
     /tmp/cctaWfnU.s:314    .text:0000000000000138 .L0 
     /tmp/cctaWfnU.s:326    .text:0000000000000154 .L0 
     /tmp/cctaWfnU.s:338    .text:0000000000000170 .L0 
     /tmp/cctaWfnU.s:350    .text:000000000000018c .L0 
     /tmp/cctaWfnU.s:359    .text:00000000000001a4 .L0 
     /tmp/cctaWfnU.s:133    .text:0000000000000000 _ZN9BufferCPPC1Ei
     /tmp/cctaWfnU.s:422    .text:00000000000001a4 _ZN9BufferCPP3putEi
     /tmp/cctaWfnU.s:425    .text:00000000000001a4 .L0 
     /tmp/cctaWfnU.s:427    .text:00000000000001a4 .L0 
     /tmp/cctaWfnU.s:428    .text:00000000000001a8 .L0 
     /tmp/cctaWfnU.s:433    .text:00000000000001b8 .L0 
     /tmp/cctaWfnU.s:434    .text:00000000000001b8 .L0 
     /tmp/cctaWfnU.s:435    .text:00000000000001b8 .L0 
     /tmp/cctaWfnU.s:436    .text:00000000000001b8 .L0 
     /tmp/cctaWfnU.s:438    .text:00000000000001bc .L0 
     /tmp/cctaWfnU.s:442    .text:00000000000001c4 .L0 
     /tmp/cctaWfnU.s:447    .text:00000000000001c8 .L0 
     /tmp/cctaWfnU.s:448    .text:00000000000001c8 .L0 
     /tmp/cctaWfnU.s:455    .text:00000000000001d4 .L0 
     /tmp/cctaWfnU.s:460    .text:00000000000001d8 .L0 
     /tmp/cctaWfnU.s:461    .text:00000000000001d8 .L0 
     /tmp/cctaWfnU.s:467    .text:00000000000001e4 .L0 
     /tmp/cctaWfnU.s:469    .text:00000000000001e8 .L0 
     /tmp/cctaWfnU.s:471    .text:00000000000001ec .L0 
     /tmp/cctaWfnU.s:474    .text:00000000000001f4 .L0 
     /tmp/cctaWfnU.s:476    .text:00000000000001f8 .L0 
GAS LISTING /tmp/cctaWfnU.s 			page 24


     /tmp/cctaWfnU.s:477    .text:00000000000001f8 .L0 
     /tmp/cctaWfnU.s:479    .text:00000000000001fc .L0 
     /tmp/cctaWfnU.s:481    .text:0000000000000200 .L0 
     /tmp/cctaWfnU.s:483    .text:0000000000000204 .L0 
     /tmp/cctaWfnU.s:485    .text:0000000000000208 .L0 
     /tmp/cctaWfnU.s:487    .text:000000000000020c .L0 
     /tmp/cctaWfnU.s:492    .text:0000000000000210 .L0 
     /tmp/cctaWfnU.s:493    .text:0000000000000210 .L0 
     /tmp/cctaWfnU.s:499    .text:000000000000021c .L0 
     /tmp/cctaWfnU.s:504    .text:0000000000000220 .L0 
     /tmp/cctaWfnU.s:505    .text:0000000000000220 .L0 
     /tmp/cctaWfnU.s:511    .text:000000000000022c .L0 
     /tmp/cctaWfnU.s:512    .text:0000000000000230 .L0 
     /tmp/cctaWfnU.s:514    .text:0000000000000234 .L0 
     /tmp/cctaWfnU.s:515    .text:0000000000000234 .L0 
     /tmp/cctaWfnU.s:517    .text:0000000000000238 .L0 
     /tmp/cctaWfnU.s:520    .text:000000000000023c .L0 
     /tmp/cctaWfnU.s:522    .text:0000000000000240 .L0 
     /tmp/cctaWfnU.s:524    .text:0000000000000244 .L0 
     /tmp/cctaWfnU.s:530    .text:0000000000000244 _ZN9BufferCPP3getEv
     /tmp/cctaWfnU.s:533    .text:0000000000000244 .L0 
     /tmp/cctaWfnU.s:535    .text:0000000000000244 .L0 
     /tmp/cctaWfnU.s:536    .text:0000000000000248 .L0 
     /tmp/cctaWfnU.s:541    .text:0000000000000258 .L0 
     /tmp/cctaWfnU.s:542    .text:0000000000000258 .L0 
     /tmp/cctaWfnU.s:543    .text:0000000000000258 .L0 
     /tmp/cctaWfnU.s:544    .text:0000000000000258 .L0 
     /tmp/cctaWfnU.s:546    .text:000000000000025c .L0 
     /tmp/cctaWfnU.s:549    .text:0000000000000260 .L0 
     /tmp/cctaWfnU.s:554    .text:0000000000000264 .L0 
     /tmp/cctaWfnU.s:555    .text:0000000000000264 .L0 
     /tmp/cctaWfnU.s:562    .text:0000000000000270 .L0 
     /tmp/cctaWfnU.s:567    .text:0000000000000274 .L0 
     /tmp/cctaWfnU.s:568    .text:0000000000000274 .L0 
     /tmp/cctaWfnU.s:574    .text:0000000000000280 .L0 
     /tmp/cctaWfnU.s:575    .text:0000000000000280 .L0 
     /tmp/cctaWfnU.s:577    .text:0000000000000284 .L0 
     /tmp/cctaWfnU.s:579    .text:0000000000000288 .L0 
     /tmp/cctaWfnU.s:582    .text:0000000000000290 .L0 
     /tmp/cctaWfnU.s:585    .text:0000000000000294 .L0 
     /tmp/cctaWfnU.s:586    .text:0000000000000294 .L0 
     /tmp/cctaWfnU.s:588    .text:0000000000000298 .L0 
     /tmp/cctaWfnU.s:590    .text:000000000000029c .L0 
     /tmp/cctaWfnU.s:592    .text:00000000000002a0 .L0 
     /tmp/cctaWfnU.s:594    .text:00000000000002a4 .L0 
     /tmp/cctaWfnU.s:599    .text:00000000000002a8 .L0 
     /tmp/cctaWfnU.s:600    .text:00000000000002a8 .L0 
     /tmp/cctaWfnU.s:606    .text:00000000000002b4 .L0 
     /tmp/cctaWfnU.s:611    .text:00000000000002b8 .L0 
     /tmp/cctaWfnU.s:612    .text:00000000000002b8 .L0 
     /tmp/cctaWfnU.s:618    .text:00000000000002c4 .L0 
     /tmp/cctaWfnU.s:619    .text:00000000000002c4 .L0 
     /tmp/cctaWfnU.s:621    .text:00000000000002cc .L0 
     /tmp/cctaWfnU.s:623    .text:00000000000002d0 .L0 
     /tmp/cctaWfnU.s:624    .text:00000000000002d0 .L0 
     /tmp/cctaWfnU.s:626    .text:00000000000002d4 .L0 
     /tmp/cctaWfnU.s:629    .text:00000000000002d8 .L0 
GAS LISTING /tmp/cctaWfnU.s 			page 25


     /tmp/cctaWfnU.s:632    .text:00000000000002dc .L0 
     /tmp/cctaWfnU.s:634    .text:00000000000002e0 .L0 
     /tmp/cctaWfnU.s:640    .text:00000000000002e0 _ZN9BufferCPP6getCntEv
     /tmp/cctaWfnU.s:643    .text:00000000000002e0 .L0 
     /tmp/cctaWfnU.s:645    .text:00000000000002e0 .L0 
     /tmp/cctaWfnU.s:646    .text:00000000000002e4 .L0 
     /tmp/cctaWfnU.s:651    .text:00000000000002f4 .L0 
     /tmp/cctaWfnU.s:652    .text:00000000000002f4 .L0 
     /tmp/cctaWfnU.s:653    .text:00000000000002f4 .L0 
     /tmp/cctaWfnU.s:654    .text:00000000000002f4 .L0 
     /tmp/cctaWfnU.s:656    .text:00000000000002f8 .L0 
     /tmp/cctaWfnU.s:659    .text:00000000000002fc .L0 
     /tmp/cctaWfnU.s:660    .text:00000000000002fc .L0 
     /tmp/cctaWfnU.s:665    .text:0000000000000300 .L0 
     /tmp/cctaWfnU.s:666    .text:0000000000000300 .L0 
     /tmp/cctaWfnU.s:673    .text:000000000000030c .L0 
     /tmp/cctaWfnU.s:678    .text:0000000000000310 .L0 
     /tmp/cctaWfnU.s:679    .text:0000000000000310 .L0 
     /tmp/cctaWfnU.s:685    .text:000000000000031c .L0 
     /tmp/cctaWfnU.s:686    .text:000000000000031c .L0 
     /tmp/cctaWfnU.s:688    .text:0000000000000320 .L0 
     /tmp/cctaWfnU.s:690    .text:0000000000000324 .L0 
     /tmp/cctaWfnU.s:692    .text:0000000000000328 .L0 
     /tmp/cctaWfnU.s:693    .text:0000000000000328 .L0 
     /tmp/cctaWfnU.s:697    .text:000000000000032c .L0 
     /tmp/cctaWfnU.s:702    .text:0000000000000330 .L0 
     /tmp/cctaWfnU.s:703    .text:0000000000000330 .L0 
     /tmp/cctaWfnU.s:709    .text:000000000000033c .L0 
     /tmp/cctaWfnU.s:714    .text:0000000000000340 .L0 
     /tmp/cctaWfnU.s:715    .text:0000000000000340 .L0 
     /tmp/cctaWfnU.s:721    .text:000000000000034c .L0 
     /tmp/cctaWfnU.s:722    .text:000000000000034c .L0 
     /tmp/cctaWfnU.s:724    .text:0000000000000354 .L0 
     /tmp/cctaWfnU.s:725    .text:0000000000000354 .L0 
     /tmp/cctaWfnU.s:727    .text:0000000000000358 .L0 
     /tmp/cctaWfnU.s:728    .text:0000000000000358 .L0 
     /tmp/cctaWfnU.s:730    .text:000000000000035c .L0 
     /tmp/cctaWfnU.s:733    .text:0000000000000360 .L0 
     /tmp/cctaWfnU.s:736    .text:0000000000000364 .L0 
     /tmp/cctaWfnU.s:740    .text:0000000000000368 .L0 
     /tmp/cctaWfnU.s:742    .text:0000000000000368 .L0 
     /tmp/cctaWfnU.s:743    .text:0000000000000368 .L0 
     /tmp/cctaWfnU.s:745    .text:000000000000036c .L0 
     /tmp/cctaWfnU.s:747    .text:0000000000000370 .L0 
     /tmp/cctaWfnU.s:749    .text:0000000000000378 .L0 
     /tmp/cctaWfnU.s:755    .text:0000000000000378 _ZN9BufferCPPD2Ev
     /tmp/cctaWfnU.s:758    .text:0000000000000378 .L0 
     /tmp/cctaWfnU.s:762    .text:0000000000000378 .L0 
     /tmp/cctaWfnU.s:763    .text:000000000000037c .L0 
     /tmp/cctaWfnU.s:767    .text:0000000000000388 .L0 
     /tmp/cctaWfnU.s:768    .text:0000000000000388 .L0 
     /tmp/cctaWfnU.s:769    .text:0000000000000388 .L0 
     /tmp/cctaWfnU.s:771    .text:000000000000038c .L0 
     /tmp/cctaWfnU.s:778    .text:0000000000000390 .L0 
     /tmp/cctaWfnU.s:779    .text:0000000000000390 .L0 
     /tmp/cctaWfnU.s:780    .text:0000000000000390 .L0 
     /tmp/cctaWfnU.s:787    .text:000000000000039c .L0 
GAS LISTING /tmp/cctaWfnU.s 			page 26


     /tmp/cctaWfnU.s:788    .text:000000000000039c .L0 
     /tmp/cctaWfnU.s:793    .text:00000000000003ac .L0 
     /tmp/cctaWfnU.s:794    .text:00000000000003ac .L0 
     /tmp/cctaWfnU.s:798    .text:00000000000003b8 .L0 
     /tmp/cctaWfnU.s:801    .text:00000000000003bc .L0 
     /tmp/cctaWfnU.s:802    .text:00000000000003bc .L0 
     /tmp/cctaWfnU.s:804    .text:00000000000003c0 .L0 
     /tmp/cctaWfnU.s:806    .text:00000000000003c4 .L0 
     /tmp/cctaWfnU.s:812    .text:00000000000003cc .L0 
     /tmp/cctaWfnU.s:813    .text:00000000000003cc .L0 
     /tmp/cctaWfnU.s:814    .text:00000000000003cc .L0 
     /tmp/cctaWfnU.s:820    .text:00000000000003d8 .L0 
     /tmp/cctaWfnU.s:821    .text:00000000000003d8 .L0 
     /tmp/cctaWfnU.s:823    .text:00000000000003dc .L0 
     /tmp/cctaWfnU.s:825    .text:00000000000003e0 .L0 
     /tmp/cctaWfnU.s:827    .text:00000000000003e4 .L0 
     /tmp/cctaWfnU.s:829    .text:00000000000003e8 .L0 
     /tmp/cctaWfnU.s:832    .text:00000000000003ec .L0 
     /tmp/cctaWfnU.s:838    .text:00000000000003f0 .L0 
     /tmp/cctaWfnU.s:839    .text:00000000000003f0 .L0 
     /tmp/cctaWfnU.s:840    .text:00000000000003f0 .L0 
     /tmp/cctaWfnU.s:848    .text:00000000000003fc .L0 
     /tmp/cctaWfnU.s:849    .text:00000000000003fc .L0 
     /tmp/cctaWfnU.s:850    .text:00000000000003fc .L0 
     /tmp/cctaWfnU.s:856    .text:0000000000000408 .L0 
     /tmp/cctaWfnU.s:857    .text:0000000000000408 .L0 
     /tmp/cctaWfnU.s:861    .text:0000000000000414 .L0 
     /tmp/cctaWfnU.s:862    .text:0000000000000414 .L0 
     /tmp/cctaWfnU.s:864    .text:0000000000000418 .L0 
     /tmp/cctaWfnU.s:866    .text:000000000000041c .L0 
     /tmp/cctaWfnU.s:872    .text:0000000000000428 .L0 
     /tmp/cctaWfnU.s:873    .text:0000000000000428 .L0 
     /tmp/cctaWfnU.s:875    .text:000000000000042c .L0 
     /tmp/cctaWfnU.s:877    .text:0000000000000430 .L0 
     /tmp/cctaWfnU.s:883    .text:000000000000043c .L0 
     /tmp/cctaWfnU.s:884    .text:000000000000043c .L0 
     /tmp/cctaWfnU.s:886    .text:0000000000000440 .L0 
     /tmp/cctaWfnU.s:888    .text:0000000000000444 .L0 
     /tmp/cctaWfnU.s:894    .text:0000000000000450 .L0 
     /tmp/cctaWfnU.s:895    .text:0000000000000450 .L0 
     /tmp/cctaWfnU.s:897    .text:0000000000000454 .L0 
     /tmp/cctaWfnU.s:899    .text:0000000000000458 .L0 
     /tmp/cctaWfnU.s:906    .text:0000000000000464 .L0 
     /tmp/cctaWfnU.s:907    .text:0000000000000468 .L0 
     /tmp/cctaWfnU.s:909    .text:000000000000046c .L0 
     /tmp/cctaWfnU.s:910    .text:000000000000046c .L0 
     /tmp/cctaWfnU.s:912    .text:0000000000000470 .L0 
     /tmp/cctaWfnU.s:915    .text:0000000000000474 .L0 
     /tmp/cctaWfnU.s:917    .text:0000000000000478 .L0 
     /tmp/cctaWfnU.s:755    .text:0000000000000378 _ZN9BufferCPPD1Ev
     /tmp/cctaWfnU.s:62     .text._ZN9SemaphoreD2Ev:0000000000000038 .L0 
     /tmp/cctaWfnU.s:129    .text._ZN9SemaphoreD0Ev:0000000000000050 .L0 
     /tmp/cctaWfnU.s:950    .text:0000000000000478 .L0 
     /tmp/cctaWfnU.s:186    .text:000000000000005c .L0 
     /tmp/cctaWfnU.s:215    .text:0000000000000090 .L0 
     /tmp/cctaWfnU.s:244    .text:00000000000000c4 .L0 
     /tmp/cctaWfnU.s:273    .text:00000000000000f8 .L0 
GAS LISTING /tmp/cctaWfnU.s 			page 27


     /tmp/cctaWfnU.s:941    .rodata.str1.8:0000000000000000 .LC0
     /tmp/cctaWfnU.s:788    .text:000000000000039c .L0 
     /tmp/cctaWfnU.s:197    .text:0000000000000078 .L6
     /tmp/cctaWfnU.s:226    .text:00000000000000ac .L7
     /tmp/cctaWfnU.s:255    .text:00000000000000e0 .L8
     /tmp/cctaWfnU.s:284    .text:0000000000000114 .L9
     /tmp/cctaWfnU.s:739    .text:0000000000000368 .L25
     /tmp/cctaWfnU.s:695    .text:000000000000032c .L26
     /tmp/cctaWfnU.s:833    .text:00000000000003f0 .L29
     /tmp/cctaWfnU.s:791    .text:00000000000003ac .L30
     /tmp/cctaWfnU.s:870    .text:0000000000000428 .L31
     /tmp/cctaWfnU.s:881    .text:000000000000043c .L32
     /tmp/cctaWfnU.s:892    .text:0000000000000450 .L33
     /tmp/cctaWfnU.s:903    .text:0000000000000464 .L28
     /tmp/cctaWfnU.s:31     .text._ZN9SemaphoreD2Ev:0000000000000010 .L0 
     /tmp/cctaWfnU.s:88     .text._ZN9SemaphoreD0Ev:0000000000000018 .L0 
     /tmp/cctaWfnU.s:100    .text._ZN9SemaphoreD0Ev:0000000000000034 .LEHB0
     /tmp/cctaWfnU.s:67     .text._ZN9SemaphoreD0Ev:0000000000000000 .LFB13
     /tmp/cctaWfnU.s:103    .text._ZN9SemaphoreD0Ev:000000000000003c .LEHE0
     /tmp/cctaWfnU.s:169    .text:000000000000003c .LEHB1
     /tmp/cctaWfnU.s:134    .text:0000000000000000 .LFB20
     /tmp/cctaWfnU.s:179    .text:0000000000000054 .LEHE1
     /tmp/cctaWfnU.s:193    .text:0000000000000070 .LEHB2
     /tmp/cctaWfnU.s:196    .text:0000000000000078 .LEHE2
     /tmp/cctaWfnU.s:308    .text:0000000000000134 .L14
     /tmp/cctaWfnU.s:205    .text:0000000000000080 .LEHB3
     /tmp/cctaWfnU.s:208    .text:0000000000000088 .LEHE3
     /tmp/cctaWfnU.s:222    .text:00000000000000a4 .LEHB4
     /tmp/cctaWfnU.s:225    .text:00000000000000ac .LEHE4
     /tmp/cctaWfnU.s:322    .text:0000000000000150 .L15
     /tmp/cctaWfnU.s:234    .text:00000000000000b4 .LEHB5
     /tmp/cctaWfnU.s:237    .text:00000000000000bc .LEHE5
     /tmp/cctaWfnU.s:251    .text:00000000000000d8 .LEHB6
     /tmp/cctaWfnU.s:254    .text:00000000000000e0 .LEHE6
     /tmp/cctaWfnU.s:334    .text:000000000000016c .L16
     /tmp/cctaWfnU.s:263    .text:00000000000000e8 .LEHB7
     /tmp/cctaWfnU.s:266    .text:00000000000000f0 .LEHE7
     /tmp/cctaWfnU.s:280    .text:000000000000010c .LEHB8
     /tmp/cctaWfnU.s:283    .text:0000000000000114 .LEHE8
     /tmp/cctaWfnU.s:346    .text:0000000000000188 .L17
     /tmp/cctaWfnU.s:318    .text:0000000000000148 .LEHB9
     /tmp/cctaWfnU.s:321    .text:0000000000000150 .LEHE9
     /tmp/cctaWfnU.s:330    .text:0000000000000164 .LEHB10
     /tmp/cctaWfnU.s:333    .text:000000000000016c .LEHE10
     /tmp/cctaWfnU.s:342    .text:0000000000000180 .LEHB11
     /tmp/cctaWfnU.s:345    .text:0000000000000188 .LEHE11
     /tmp/cctaWfnU.s:354    .text:000000000000019c .LEHB12
     /tmp/cctaWfnU.s:357    .text:00000000000001a4 .LEHE12
     /tmp/cctaWfnU.s:2273   .debug_abbrev:0000000000000000 .Ldebug_abbrev0
     /tmp/cctaWfnU.s:3695   .debug_str:0000000000000212 .LASF64
     /tmp/cctaWfnU.s:3717   .debug_str:0000000000000366 .LASF65
     /tmp/cctaWfnU.s:3757   .debug_str:0000000000000473 .LASF66
     /tmp/cctaWfnU.s:3607   .debug_ranges:0000000000000000 .Ldebug_ranges0
     /tmp/cctaWfnU.s:3617   .debug_line:0000000000000000 .Ldebug_line0
     /tmp/cctaWfnU.s:3705   .debug_str:0000000000000315 .LASF0
     /tmp/cctaWfnU.s:3677   .debug_str:000000000000018a .LASF1
     /tmp/cctaWfnU.s:3667   .debug_str:0000000000000152 .LASF2
GAS LISTING /tmp/cctaWfnU.s 			page 28


     /tmp/cctaWfnU.s:3639   .debug_str:0000000000000083 .LASF4
     /tmp/cctaWfnU.s:3675   .debug_str:0000000000000178 .LASF3
     /tmp/cctaWfnU.s:3625   .debug_str:000000000000002c .LASF5
     /tmp/cctaWfnU.s:3621   .debug_str:0000000000000005 .LASF6
     /tmp/cctaWfnU.s:3657   .debug_str:00000000000000fb .LASF7
     /tmp/cctaWfnU.s:3721   .debug_str:0000000000000392 .LASF8
     /tmp/cctaWfnU.s:3635   .debug_str:0000000000000063 .LASF9
     /tmp/cctaWfnU.s:3775   .debug_str:00000000000004fd .LASF10
     /tmp/cctaWfnU.s:3661   .debug_str:000000000000011e .LASF11
     /tmp/cctaWfnU.s:3759   .debug_str:0000000000000496 .LASF12
     /tmp/cctaWfnU.s:3729   .debug_str:00000000000003d3 .LASF13
     /tmp/cctaWfnU.s:3681   .debug_str:00000000000001ac .LASF14
     /tmp/cctaWfnU.s:3649   .debug_str:00000000000000c0 .LASF15
     /tmp/cctaWfnU.s:3723   .debug_str:00000000000003a2 .LASF16
     /tmp/cctaWfnU.s:3627   .debug_str:0000000000000033 .LASF17
     /tmp/cctaWfnU.s:3749   .debug_str:000000000000044b .LASF18
     /tmp/cctaWfnU.s:3709   .debug_str:0000000000000332 .LASF20
     /tmp/cctaWfnU.s:3643   .debug_str:000000000000008f .LASF22
     /tmp/cctaWfnU.s:3733   .debug_str:00000000000003ed .LASF19
     /tmp/cctaWfnU.s:3669   .debug_str:0000000000000160 .LASF67
     /tmp/cctaWfnU.s:3743   .debug_str:000000000000041f .LASF68
     /tmp/cctaWfnU.s:3739   .debug_str:0000000000000411 .LASF21
     /tmp/cctaWfnU.s:3685   .debug_str:00000000000001c2 .LASF23
     /tmp/cctaWfnU.s:3711   .debug_str:0000000000000342 .LASF24
     /tmp/cctaWfnU.s:3683   .debug_str:00000000000001b8 .LASF25
     /tmp/cctaWfnU.s:3747   .debug_str:0000000000000444 .LASF26
     /tmp/cctaWfnU.s:3697   .debug_str:00000000000002e2 .LASF27
     /tmp/cctaWfnU.s:3651   .debug_str:00000000000000d6 .LASF28
     /tmp/cctaWfnU.s:3679   .debug_str:000000000000019d .LASF29
     /tmp/cctaWfnU.s:3655   .debug_str:00000000000000ed .LASF30
     /tmp/cctaWfnU.s:3731   .debug_str:00000000000003e3 .LASF31
     /tmp/cctaWfnU.s:3771   .debug_str:00000000000004e1 .LASF32
     /tmp/cctaWfnU.s:3663   .debug_str:000000000000012d .LASF34
     /tmp/cctaWfnU.s:3719   .debug_str:0000000000000387 .LASF33
     /tmp/cctaWfnU.s:3745   .debug_str:0000000000000432 .LASF35
     /tmp/cctaWfnU.s:3699   .debug_str:00000000000002e7 .LASF69
     /tmp/cctaWfnU.s:3623   .debug_str:0000000000000018 .LASF70
     /tmp/cctaWfnU.s:3647   .debug_str:00000000000000b9 .LASF36
     /tmp/cctaWfnU.s:3737   .debug_str:00000000000003fa .LASF37
     /tmp/cctaWfnU.s:3763   .debug_str:00000000000004b0 .LASF38
     /tmp/cctaWfnU.s:3645   .debug_str:00000000000000a4 .LASF71
     /tmp/cctaWfnU.s:3659   .debug_str:000000000000010e .LASF72
     /tmp/cctaWfnU.s:3715   .debug_str:0000000000000354 .LASF39
     /tmp/cctaWfnU.s:3631   .debug_str:0000000000000051 .LASF73
     /tmp/cctaWfnU.s:3765   .debug_str:00000000000004ba .LASF74
     /tmp/cctaWfnU.s:3701   .debug_str:00000000000002fb .LASF40
     /tmp/cctaWfnU.s:3703   .debug_str:0000000000000300 .LASF41
     /tmp/cctaWfnU.s:3633   .debug_str:000000000000005c .LASF42
     /tmp/cctaWfnU.s:3691   .debug_str:00000000000001f2 .LASF43
     /tmp/cctaWfnU.s:3741   .debug_str:0000000000000416 .LASF44
     /tmp/cctaWfnU.s:3707   .debug_str:0000000000000322 .LASF75
     /tmp/cctaWfnU.s:641    .text:00000000000002e0 .LFB27
     /tmp/cctaWfnU.s:750    .text:0000000000000378 .LFE27
     /tmp/cctaWfnU.s:3641   .debug_str:000000000000008a .LASF45
     /tmp/cctaWfnU.s:3136   .debug_loc:0000000000000000 .LLST25
     /tmp/cctaWfnU.s:3158   .debug_loc:000000000000005f .LLST26
     /tmp/cctaWfnU.s:662    .text:0000000000000300 .LBB82
GAS LISTING /tmp/cctaWfnU.s 			page 29


     /tmp/cctaWfnU.s:671    .text:000000000000030c .LBE82
     /tmp/cctaWfnU.s:3165   .debug_loc:0000000000000082 .LLST27
     /tmp/cctaWfnU.s:669    .text:000000000000030c .LVL69
     /tmp/cctaWfnU.s:675    .text:0000000000000310 .LBB84
     /tmp/cctaWfnU.s:683    .text:000000000000031c .LBE84
     /tmp/cctaWfnU.s:3172   .debug_loc:00000000000000a5 .LLST28
     /tmp/cctaWfnU.s:681    .text:000000000000031c .LVL71
     /tmp/cctaWfnU.s:699    .text:0000000000000330 .LBB86
     /tmp/cctaWfnU.s:707    .text:000000000000033c .LBE86
     /tmp/cctaWfnU.s:3179   .debug_loc:00000000000000c8 .LLST29
     /tmp/cctaWfnU.s:705    .text:000000000000033c .LVL74
     /tmp/cctaWfnU.s:711    .text:0000000000000340 .LBB88
     /tmp/cctaWfnU.s:719    .text:000000000000034c .LBE88
     /tmp/cctaWfnU.s:3186   .debug_loc:00000000000000eb .LLST30
     /tmp/cctaWfnU.s:717    .text:000000000000034c .LVL76
     /tmp/cctaWfnU.s:531    .text:0000000000000244 .LFB26
     /tmp/cctaWfnU.s:635    .text:00000000000002e0 .LFE26
     /tmp/cctaWfnU.s:3193   .debug_loc:000000000000010e .LLST19
     /tmp/cctaWfnU.s:3211   .debug_loc:000000000000015a .LLST20
     /tmp/cctaWfnU.s:551    .text:0000000000000264 .LBB74
     /tmp/cctaWfnU.s:560    .text:0000000000000270 .LBE74
     /tmp/cctaWfnU.s:3222   .debug_loc:0000000000000190 .LLST21
     /tmp/cctaWfnU.s:558    .text:0000000000000270 .LVL56
     /tmp/cctaWfnU.s:564    .text:0000000000000274 .LBB76
     /tmp/cctaWfnU.s:572    .text:0000000000000280 .LBE76
     /tmp/cctaWfnU.s:3229   .debug_loc:00000000000001b3 .LLST22
     /tmp/cctaWfnU.s:570    .text:0000000000000280 .LVL58
     /tmp/cctaWfnU.s:596    .text:00000000000002a8 .LBB78
     /tmp/cctaWfnU.s:604    .text:00000000000002b4 .LBE78
     /tmp/cctaWfnU.s:3236   .debug_loc:00000000000001d6 .LLST23
     /tmp/cctaWfnU.s:602    .text:00000000000002b4 .LVL61
     /tmp/cctaWfnU.s:608    .text:00000000000002b8 .LBB80
     /tmp/cctaWfnU.s:616    .text:00000000000002c4 .LBE80
     /tmp/cctaWfnU.s:3243   .debug_loc:00000000000001f9 .LLST24
     /tmp/cctaWfnU.s:614    .text:00000000000002c4 .LVL63
     /tmp/cctaWfnU.s:423    .text:00000000000001a4 .LFB25
     /tmp/cctaWfnU.s:525    .text:0000000000000244 .LFE25
     /tmp/cctaWfnU.s:3250   .debug_loc:000000000000021c .LLST13
     /tmp/cctaWfnU.s:3268   .debug_loc:0000000000000268 .LLST14
     /tmp/cctaWfnU.s:444    .text:00000000000001c8 .LBB66
     /tmp/cctaWfnU.s:453    .text:00000000000001d4 .LBE66
     /tmp/cctaWfnU.s:3282   .debug_loc:00000000000002a1 .LLST15
     /tmp/cctaWfnU.s:451    .text:00000000000001d4 .LVL45
     /tmp/cctaWfnU.s:457    .text:00000000000001d8 .LBB68
     /tmp/cctaWfnU.s:465    .text:00000000000001e4 .LBE68
     /tmp/cctaWfnU.s:3289   .debug_loc:00000000000002c4 .LLST16
     /tmp/cctaWfnU.s:463    .text:00000000000001e4 .LVL47
     /tmp/cctaWfnU.s:489    .text:0000000000000210 .LBB70
     /tmp/cctaWfnU.s:497    .text:000000000000021c .LBE70
     /tmp/cctaWfnU.s:3296   .debug_loc:00000000000002e7 .LLST17
     /tmp/cctaWfnU.s:495    .text:000000000000021c .LVL49
     /tmp/cctaWfnU.s:501    .text:0000000000000220 .LBB72
     /tmp/cctaWfnU.s:509    .text:000000000000022c .LBE72
     /tmp/cctaWfnU.s:3303   .debug_loc:000000000000030a .LLST18
     /tmp/cctaWfnU.s:507    .text:000000000000022c .LVL51
     /tmp/cctaWfnU.s:3751   .debug_str:0000000000000456 .LASF46
     /tmp/cctaWfnU.s:3687   .debug_str:00000000000001d5 .LASF47
GAS LISTING /tmp/cctaWfnU.s 			page 30


     /tmp/cctaWfnU.s:756    .text:0000000000000378 .LFB23
     /tmp/cctaWfnU.s:918    .text:0000000000000478 .LFE23
     /tmp/cctaWfnU.s:3310   .debug_loc:000000000000032d .LLST31
     /tmp/cctaWfnU.s:776    .text:0000000000000390 .LBB91
     /tmp/cctaWfnU.s:785    .text:000000000000039c .LBE91
     /tmp/cctaWfnU.s:3328   .debug_loc:0000000000000379 .LLST32
     /tmp/cctaWfnU.s:783    .text:000000000000039c .LVL83
     /tmp/cctaWfnU.s:799    .text:00000000000003bc .LBB93
     /tmp/cctaWfnU.s:830    .text:00000000000003ec .LBE93
     /tmp/cctaWfnU.s:3336   .debug_loc:000000000000039d .LLST33
     /tmp/cctaWfnU.s:810    .text:00000000000003cc .LBB94
     /tmp/cctaWfnU.s:818    .text:00000000000003d8 .LBE94
     /tmp/cctaWfnU.s:816    .text:00000000000003d8 .LVL87
     /tmp/cctaWfnU.s:836    .text:00000000000003f0 .LBB96
     /tmp/cctaWfnU.s:844    .text:00000000000003fc .LBE96
     /tmp/cctaWfnU.s:3344   .debug_loc:00000000000003c1 .LLST35
     /tmp/cctaWfnU.s:842    .text:00000000000003fc .LVL89
     /tmp/cctaWfnU.s:846    .text:00000000000003fc .LBB98
     /tmp/cctaWfnU.s:854    .text:0000000000000408 .LBE98
     /tmp/cctaWfnU.s:3353   .debug_loc:00000000000003e6 .LLST36
     /tmp/cctaWfnU.s:852    .text:0000000000000408 .LVL90
     /tmp/cctaWfnU.s:790    .text:00000000000003ac .LVL84
     /tmp/cctaWfnU.s:796    .text:00000000000003b8 .LVL85
     /tmp/cctaWfnU.s:859    .text:0000000000000414 .LVL91
     /tmp/cctaWfnU.s:3619   .debug_str:0000000000000000 .LASF49
     /tmp/cctaWfnU.s:3637   .debug_str:0000000000000071 .LASF48
     /tmp/cctaWfnU.s:360    .text:00000000000001a4 .LFE20
     /tmp/cctaWfnU.s:3361   .debug_loc:000000000000040a .LLST3
     /tmp/cctaWfnU.s:3423   .debug_loc:00000000000004fa .LLST4
     /tmp/cctaWfnU.s:183    .text:000000000000005c .LBB57
     /tmp/cctaWfnU.s:199    .text:0000000000000078 .LBE57
     /tmp/cctaWfnU.s:3437   .debug_loc:0000000000000533 .LLST5
     /tmp/cctaWfnU.s:3450   .debug_loc:000000000000056b .LLST6
     /tmp/cctaWfnU.s:195    .text:0000000000000078 .LVL15
     /tmp/cctaWfnU.s:212    .text:0000000000000090 .LBB59
     /tmp/cctaWfnU.s:228    .text:00000000000000ac .LBE59
     /tmp/cctaWfnU.s:3465   .debug_loc:00000000000005b4 .LLST7
     /tmp/cctaWfnU.s:3476   .debug_loc:00000000000005ea .LLST8
     /tmp/cctaWfnU.s:224    .text:00000000000000ac .LVL19
     /tmp/cctaWfnU.s:241    .text:00000000000000c4 .LBB61
     /tmp/cctaWfnU.s:257    .text:00000000000000e0 .LBE61
     /tmp/cctaWfnU.s:3491   .debug_loc:0000000000000633 .LLST9
     /tmp/cctaWfnU.s:3504   .debug_loc:000000000000066b .LLST10
     /tmp/cctaWfnU.s:253    .text:00000000000000e0 .LVL23
     /tmp/cctaWfnU.s:270    .text:00000000000000f8 .LBB63
     /tmp/cctaWfnU.s:286    .text:0000000000000114 .LBE63
     /tmp/cctaWfnU.s:3519   .debug_loc:00000000000006b4 .LLST11
     /tmp/cctaWfnU.s:3532   .debug_loc:00000000000006ec .LLST12
     /tmp/cctaWfnU.s:282    .text:0000000000000114 .LVL27
     /tmp/cctaWfnU.s:171    .text:0000000000000044 .LVL11
     /tmp/cctaWfnU.s:178    .text:0000000000000054 .LVL12
     /tmp/cctaWfnU.s:207    .text:0000000000000088 .LVL16
     /tmp/cctaWfnU.s:236    .text:00000000000000bc .LVL20
     /tmp/cctaWfnU.s:265    .text:00000000000000f0 .LVL24
     /tmp/cctaWfnU.s:316    .text:0000000000000144 .LVL31
     /tmp/cctaWfnU.s:320    .text:0000000000000150 .LVL32
     /tmp/cctaWfnU.s:328    .text:0000000000000160 .LVL34
GAS LISTING /tmp/cctaWfnU.s 			page 31


     /tmp/cctaWfnU.s:332    .text:000000000000016c .LVL35
     /tmp/cctaWfnU.s:340    .text:000000000000017c .LVL37
     /tmp/cctaWfnU.s:344    .text:0000000000000188 .LVL38
     /tmp/cctaWfnU.s:352    .text:0000000000000198 .LVL40
     /tmp/cctaWfnU.s:356    .text:00000000000001a4 .LVL41
     /tmp/cctaWfnU.s:3773   .debug_str:00000000000004eb .LASF50
     /tmp/cctaWfnU.s:116    .text._ZN9SemaphoreD0Ev:0000000000000050 .LFE13
     /tmp/cctaWfnU.s:3547   .debug_loc:0000000000000735 .LLST1
     /tmp/cctaWfnU.s:85     .text._ZN9SemaphoreD0Ev:0000000000000018 .LBB54
     /tmp/cctaWfnU.s:97     .text._ZN9SemaphoreD0Ev:0000000000000030 .LBE54
     /tmp/cctaWfnU.s:3565   .debug_loc:0000000000000781 .LLST2
     /tmp/cctaWfnU.s:95     .text._ZN9SemaphoreD0Ev:0000000000000030 .LVL6
     /tmp/cctaWfnU.s:102    .text._ZN9SemaphoreD0Ev:000000000000003c .LVL7
     /tmp/cctaWfnU.s:3653   .debug_str:00000000000000db .LASF51
     /tmp/cctaWfnU.s:14     .text._ZN9SemaphoreD2Ev:0000000000000000 .LFB11
     /tmp/cctaWfnU.s:50     .text._ZN9SemaphoreD2Ev:0000000000000038 .LFE11
     /tmp/cctaWfnU.s:3576   .debug_loc:00000000000007b7 .LLST0
     /tmp/cctaWfnU.s:38     .text._ZN9SemaphoreD2Ev:0000000000000028 .LVL2
     /tmp/cctaWfnU.s:3735   .debug_str:00000000000003f5 .LASF52
     /tmp/cctaWfnU.s:3727   .debug_str:00000000000003c1 .LASF76
     /tmp/cctaWfnU.s:3693   .debug_str:0000000000000209 .LASF53
     /tmp/cctaWfnU.s:3689   .debug_str:00000000000001e7 .LASF54
     /tmp/cctaWfnU.s:3665   .debug_str:000000000000013f .LASF55
     /tmp/cctaWfnU.s:3753   .debug_str:0000000000000460 .LASF56
     /tmp/cctaWfnU.s:3725   .debug_str:00000000000003b8 .LASF57
     /tmp/cctaWfnU.s:3671   .debug_str:0000000000000165 .LASF58
     /tmp/cctaWfnU.s:3761   .debug_str:00000000000004a6 .LASF59
     /tmp/cctaWfnU.s:3767   .debug_str:00000000000004cc .LASF60
     /tmp/cctaWfnU.s:3713   .debug_str:0000000000000347 .LASF61
     /tmp/cctaWfnU.s:3755   .debug_str:000000000000046c .LASF62
     /tmp/cctaWfnU.s:3769   .debug_str:00000000000004d2 .LASF77
     /tmp/cctaWfnU.s:3629   .debug_str:0000000000000039 .LASF78
     /tmp/cctaWfnU.s:3673   .debug_str:000000000000016e .LASF63
     /tmp/cctaWfnU.s:644    .text:00000000000002e0 .LVL66
     /tmp/cctaWfnU.s:667    .text:0000000000000304 .LVL68
     /tmp/cctaWfnU.s:731    .text:000000000000035c .LVL77
     /tmp/cctaWfnU.s:738    .text:0000000000000368 .LVL79
     /tmp/cctaWfnU.s:694    .text:000000000000032c .LVL72
     /tmp/cctaWfnU.s:734    .text:0000000000000360 .LVL78
     /tmp/cctaWfnU.s:661    .text:0000000000000300 .LVL67
     /tmp/cctaWfnU.s:674    .text:0000000000000310 .LVL70
     /tmp/cctaWfnU.s:698    .text:0000000000000330 .LVL73
     /tmp/cctaWfnU.s:710    .text:0000000000000340 .LVL75
     /tmp/cctaWfnU.s:534    .text:0000000000000244 .LVL53
     /tmp/cctaWfnU.s:556    .text:0000000000000268 .LVL55
     /tmp/cctaWfnU.s:627    .text:00000000000002d4 .LVL64
     /tmp/cctaWfnU.s:583    .text:0000000000000294 .LVL59
     /tmp/cctaWfnU.s:630    .text:00000000000002d8 .LVL65
     /tmp/cctaWfnU.s:550    .text:0000000000000264 .LVL54
     /tmp/cctaWfnU.s:563    .text:0000000000000274 .LVL57
     /tmp/cctaWfnU.s:595    .text:00000000000002a8 .LVL60
     /tmp/cctaWfnU.s:607    .text:00000000000002b8 .LVL62
     /tmp/cctaWfnU.s:426    .text:00000000000001a4 .LVL42
     /tmp/cctaWfnU.s:449    .text:00000000000001cc .LVL44
     /tmp/cctaWfnU.s:518    .text:0000000000000238 .LVL52
     /tmp/cctaWfnU.s:443    .text:00000000000001c8 .LVL43
     /tmp/cctaWfnU.s:456    .text:00000000000001d8 .LVL46
GAS LISTING /tmp/cctaWfnU.s 			page 32


     /tmp/cctaWfnU.s:488    .text:0000000000000210 .LVL48
     /tmp/cctaWfnU.s:500    .text:0000000000000220 .LVL50
     /tmp/cctaWfnU.s:761    .text:0000000000000378 .LVL80
     /tmp/cctaWfnU.s:781    .text:0000000000000394 .LVL82
     /tmp/cctaWfnU.s:913    .text:0000000000000470 .LVL96
     /tmp/cctaWfnU.s:775    .text:0000000000000390 .LVL81
     /tmp/cctaWfnU.s:808    .text:00000000000003cc .LVL86
     /tmp/cctaWfnU.s:835    .text:00000000000003f0 .LVL88
     /tmp/cctaWfnU.s:140    .text:0000000000000000 .LVL9
     /tmp/cctaWfnU.s:161    .text:000000000000002c .LVL10
     /tmp/cctaWfnU.s:299    .text:0000000000000124 .LVL28
     /tmp/cctaWfnU.s:307    .text:0000000000000134 .LVL29
     /tmp/cctaWfnU.s:311    .text:0000000000000138 .LVL30
     /tmp/cctaWfnU.s:324    .text:0000000000000154 .LVL33
     /tmp/cctaWfnU.s:336    .text:0000000000000170 .LVL36
     /tmp/cctaWfnU.s:348    .text:000000000000018c .LVL39
     /tmp/cctaWfnU.s:182    .text:000000000000005c .LVL13
     /tmp/cctaWfnU.s:192    .text:0000000000000070 .LVL14
     /tmp/cctaWfnU.s:211    .text:0000000000000090 .LVL17
     /tmp/cctaWfnU.s:221    .text:00000000000000a4 .LVL18
     /tmp/cctaWfnU.s:240    .text:00000000000000c4 .LVL21
     /tmp/cctaWfnU.s:250    .text:00000000000000d8 .LVL22
     /tmp/cctaWfnU.s:269    .text:00000000000000f8 .LVL25
     /tmp/cctaWfnU.s:279    .text:000000000000010c .LVL26
     /tmp/cctaWfnU.s:72     .text._ZN9SemaphoreD0Ev:0000000000000000 .LVL3
     /tmp/cctaWfnU.s:93     .text._ZN9SemaphoreD0Ev:0000000000000028 .LVL5
     /tmp/cctaWfnU.s:111    .text._ZN9SemaphoreD0Ev:0000000000000048 .LVL8
     /tmp/cctaWfnU.s:84     .text._ZN9SemaphoreD0Ev:0000000000000018 .LVL4
     /tmp/cctaWfnU.s:20     .text._ZN9SemaphoreD2Ev:0000000000000000 .LVL0
     /tmp/cctaWfnU.s:36     .text._ZN9SemaphoreD2Ev:0000000000000020 .LVL1
     /tmp/cctaWfnU.s:951    .debug_info:0000000000000000 .Ldebug_info0
     /tmp/cctaWfnU.s:8      .text:0000000000000000 .Ltext0
     /tmp/cctaWfnU.s:944    .text:0000000000000478 .Letext0
     /tmp/cctaWfnU.s:53     .gcc_except_table._ZN9SemaphoreD2Ev:0000000000000000 .LLSDA11
     /tmp/cctaWfnU.s:118    .gcc_except_table._ZN9SemaphoreD0Ev:0000000000000000 .LLSDA13
     /tmp/cctaWfnU.s:362    .gcc_except_table:0000000000000000 .LLSDA20
     /tmp/cctaWfnU.s:920    .gcc_except_table:00000000000000a1 .LLSDA23
                           .group:0000000000000000 _ZN9SemaphoreD5Ev

UNDEFINED SYMBOLS
sem_close
__gxx_personality_v0
_ZdlPv
mem_alloc
_Znwm
sem_open
_Unwind_Resume
sem_wait
sem_signal
putc
_Z11printStringPKc
mem_free
