GAS LISTING /tmp/cctaWfnU.s 			page 1


   1              		.file	"buffer_CPP_API.cpp"
   2              		.option nopic
   3              		.option norelax
   4              		.attribute arch, "rv64i2p0_m2p0_a2p0"
   5              		.attribute unaligned_access, 0
   6              		.attribute stack_align, 16
   7              		.text
   8              	.Ltext0:
   9              		.section	.text._ZN9SemaphoreD2Ev,"axG",@progbits,_ZN9SemaphoreD5Ev,comdat
  10              		.align	2
  11              		.weak	_ZN9SemaphoreD2Ev
  13              	_ZN9SemaphoreD2Ev:
  14              	.LFB11:
  15              		.file 1 "src/user/test/../../../h/syscall_cpp.hpp"
   1:src/user/test/../../../h/syscall_cpp.hpp **** #ifndef _syscall_cpp
   2:src/user/test/../../../h/syscall_cpp.hpp **** #define _syscall_cpp
   3:src/user/test/../../../h/syscall_cpp.hpp **** #include "syscall_c.h"
   4:src/user/test/../../../h/syscall_cpp.hpp **** 
   5:src/user/test/../../../h/syscall_cpp.hpp **** void* operator new (size_t);
   6:src/user/test/../../../h/syscall_cpp.hpp **** void operator delete (void*);
   7:src/user/test/../../../h/syscall_cpp.hpp **** 
   8:src/user/test/../../../h/syscall_cpp.hpp **** class Thread {
   9:src/user/test/../../../h/syscall_cpp.hpp **** public:
  10:src/user/test/../../../h/syscall_cpp.hpp ****     Thread (void (*body)(void*), void* arg);
  11:src/user/test/../../../h/syscall_cpp.hpp ****     virtual ~Thread ();
  12:src/user/test/../../../h/syscall_cpp.hpp ****     int start ();
  13:src/user/test/../../../h/syscall_cpp.hpp ****     static void dispatch () { thread_dispatch(); }
  14:src/user/test/../../../h/syscall_cpp.hpp ****     static void sleep (time_t time){ time_sleep(time); }
  15:src/user/test/../../../h/syscall_cpp.hpp **** protected:
  16:src/user/test/../../../h/syscall_cpp.hpp ****     Thread (){ myHandle = nullptr;}
  17:src/user/test/../../../h/syscall_cpp.hpp ****     virtual void run () {}
  18:src/user/test/../../../h/syscall_cpp.hpp **** private:
  19:src/user/test/../../../h/syscall_cpp.hpp ****     static void runWrapper(void*);
  20:src/user/test/../../../h/syscall_cpp.hpp ****     thread_t myHandle;
  21:src/user/test/../../../h/syscall_cpp.hpp **** };
  22:src/user/test/../../../h/syscall_cpp.hpp **** 
  23:src/user/test/../../../h/syscall_cpp.hpp **** class Semaphore {
  24:src/user/test/../../../h/syscall_cpp.hpp **** public:
  25:src/user/test/../../../h/syscall_cpp.hpp ****     Semaphore (unsigned init = 1) { sem_open(&myHandle, init); } 
  26:src/user/test/../../../h/syscall_cpp.hpp ****     virtual ~Semaphore (){ sem_close(myHandle); }
  16              		.loc 1 26 13
  17              		.cfi_startproc
  18              		.cfi_personality 0x9b,DW.ref.__gxx_personality_v0
  19              		.cfi_lsda 0x1b,.LLSDA11
  20              	.LVL0:
  21 0000 130101FF 		addi	sp,sp,-16
  22              		.cfi_def_cfa_offset 16
  23 0004 23341100 		sd	ra,8(sp)
  24 0008 23308100 		sd	s0,0(sp)
  25              		.cfi_offset 1, -8
  26              		.cfi_offset 8, -16
  27 000c 13040101 		addi	s0,sp,16
  28              		.cfi_def_cfa 8, 0
  29              	.LBB53:
  30              		.loc 1 26 26 is_stmt 0
  31 0010 97070000 		lla	a5,_ZTV9Semaphore+16
  31      93870700 
GAS LISTING /tmp/cctaWfnU.s 			page 2


  32 0018 2330F500 		sd	a5,0(a0)
  33              		.loc 1 26 28 is_stmt 1
  34              		.loc 1 26 37 is_stmt 0
  35 001c 03358500 		ld	a0,8(a0)
  36              	.LVL1:
  37 0020 97000000 		call	sem_close
  37      E7800000 
  38              	.LVL2:
  39              	.LBE53:
  40              		.loc 1 26 49
  41 0028 83308100 		ld	ra,8(sp)
  42              		.cfi_restore 1
  43 002c 03340100 		ld	s0,0(sp)
  44              		.cfi_restore 8
  45              		.cfi_def_cfa 2, 16
  46 0030 13010101 		addi	sp,sp,16
  47              		.cfi_def_cfa_offset 0
  48 0034 67800000 		jr	ra
  49              		.cfi_endproc
  50              	.LFE11:
  51              		.globl	__gxx_personality_v0
  52              		.section	.gcc_except_table._ZN9SemaphoreD2Ev,"awG",@progbits,_ZN9SemaphoreD5Ev,comdat
  53              	.LLSDA11:
  54 0000 FF       		.byte	0xff
  55 0001 FF       		.byte	0xff
  56 0002 03       		.byte	0x3
  57 0003 00       		.byte	0
  58              		.section	.text._ZN9SemaphoreD2Ev,"axG",@progbits,_ZN9SemaphoreD5Ev,comdat
  60              		.weak	_ZN9SemaphoreD1Ev
  61              		.set	_ZN9SemaphoreD1Ev,_ZN9SemaphoreD2Ev
  62              		.section	.text._ZN9SemaphoreD0Ev,"axG",@progbits,_ZN9SemaphoreD5Ev,comdat
  63              		.align	2
  64              		.weak	_ZN9SemaphoreD0Ev
  66              	_ZN9SemaphoreD0Ev:
  67              	.LFB13:
  68              		.loc 1 26 13 is_stmt 1
  69              		.cfi_startproc
  70              		.cfi_personality 0x9b,DW.ref.__gxx_personality_v0
  71              		.cfi_lsda 0x1b,.LLSDA13
  72              	.LVL3:
  73 0000 130101FE 		addi	sp,sp,-32
  74              		.cfi_def_cfa_offset 32
  75 0004 233C1100 		sd	ra,24(sp)
  76 0008 23388100 		sd	s0,16(sp)
  77 000c 23349100 		sd	s1,8(sp)
  78              		.cfi_offset 1, -8
  79              		.cfi_offset 8, -16
  80              		.cfi_offset 9, -24
  81 0010 13040102 		addi	s0,sp,32
  82              		.cfi_def_cfa 8, 0
  83 0014 93040500 		mv	s1,a0
  84              	.LVL4:
  85              	.LBB54:
  86              	.LBB55:
  87              		.loc 1 26 26 is_stmt 0
  88 0018 97070000 		lla	a5,_ZTV9Semaphore+16
  88      93870700 
GAS LISTING /tmp/cctaWfnU.s 			page 3


  89 0020 2330F500 		sd	a5,0(a0)
  90              		.loc 1 26 28 is_stmt 1
  91              		.loc 1 26 37 is_stmt 0
  92 0024 03358500 		ld	a0,8(a0)
  93              	.LVL5:
  94 0028 97000000 		call	sem_close
  94      E7800000 
  95              	.LVL6:
  96              	.LBE55:
  97              	.LBE54:
  98              		.loc 1 26 49
  99 0030 13850400 		mv	a0,s1
 100              	.LEHB0:
 101 0034 97000000 		call	_ZdlPv
 101      E7800000 
 102              	.LVL7:
 103              	.LEHE0:
 104 003c 83308101 		ld	ra,24(sp)
 105              		.cfi_restore 1
 106 0040 03340101 		ld	s0,16(sp)
 107              		.cfi_restore 8
 108              		.cfi_def_cfa 2, 32
 109 0044 83348100 		ld	s1,8(sp)
 110              		.cfi_restore 9
 111              	.LVL8:
 112 0048 13010102 		addi	sp,sp,32
 113              		.cfi_def_cfa_offset 0
 114 004c 67800000 		jr	ra
 115              		.cfi_endproc
 116              	.LFE13:
 117              		.section	.gcc_except_table._ZN9SemaphoreD0Ev,"awG",@progbits,_ZN9SemaphoreD5Ev,comdat
 118              	.LLSDA13:
 119 0000 FF       		.byte	0xff
 120 0001 FF       		.byte	0xff
 121 0002 03       		.byte	0x3
 122 0003 0D       		.byte	0xd
 123 0004 00000000 		.4byte	.LEHB0-.LFB13
 124 0008 00000000 		.4byte	.LEHE0-.LEHB0
 125 000c 00000000 		.4byte	0
 126 0010 00       		.byte	0
 127              		.section	.text._ZN9SemaphoreD0Ev,"axG",@progbits,_ZN9SemaphoreD5Ev,comdat
 129              		.text
 130              		.align	2
 131              		.globl	_ZN9BufferCPPC2Ei
 133              	_ZN9BufferCPPC2Ei:
 134              	.LFB20:
 135              		.file 2 "src/user/test/buffer_CPP_API.cpp"
   1:src/user/test/buffer_CPP_API.cpp **** #include "buffer_CPP_API.hpp"
   2:src/user/test/buffer_CPP_API.cpp **** 
   3:src/user/test/buffer_CPP_API.cpp **** BufferCPP::BufferCPP(int _cap) : cap(_cap + 1), head(0), tail(0) {
 136              		.loc 2 3 1 is_stmt 1
 137              		.cfi_startproc
 138              		.cfi_personality 0x9b,DW.ref.__gxx_personality_v0
 139              		.cfi_lsda 0x1b,.LLSDA20
 140              	.LVL9:
 141 0000 130101FD 		addi	sp,sp,-48
 142              		.cfi_def_cfa_offset 48
GAS LISTING /tmp/cctaWfnU.s 			page 4


 143 0004 23341102 		sd	ra,40(sp)
 144 0008 23308102 		sd	s0,32(sp)
 145 000c 233C9100 		sd	s1,24(sp)
 146 0010 23382101 		sd	s2,16(sp)
 147 0014 23343101 		sd	s3,8(sp)
 148              		.cfi_offset 1, -8
 149              		.cfi_offset 8, -16
 150              		.cfi_offset 9, -24
 151              		.cfi_offset 18, -32
 152              		.cfi_offset 19, -40
 153 0018 13040103 		addi	s0,sp,48
 154              		.cfi_def_cfa 8, 0
 155 001c 93040500 		mv	s1,a0
 156 0020 93890500 		mv	s3,a1
 157              	.LBB56:
 158              		.loc 2 3 43 is_stmt 0
 159 0024 9B871500 		addiw	a5,a1,1
 160 0028 1B850700 		sext.w	a0,a5
 161              	.LVL10:
 162              		.loc 2 3 64
 163 002c 23A0F400 		sw	a5,0(s1)
 164 0030 23A80400 		sw	zero,16(s1)
 165 0034 23AA0400 		sw	zero,20(s1)
   4:src/user/test/buffer_CPP_API.cpp ****     buffer = (int *)mem_alloc(sizeof(int) * cap);
 166              		.loc 2 4 5 is_stmt 1
 167              		.loc 2 4 30 is_stmt 0
 168 0038 13152500 		slli	a0,a0,2
 169              	.LEHB1:
 170 003c 97000000 		call	mem_alloc
 170      E7800000 
 171              	.LVL11:
 172              		.loc 2 4 12
 173 0044 23B4A400 		sd	a0,8(s1)
   5:src/user/test/buffer_CPP_API.cpp ****     itemAvailable = new Semaphore(0);
 174              		.loc 2 5 5 is_stmt 1
 175              		.loc 2 5 36 is_stmt 0
 176 0048 13050001 		li	a0,16
 177 004c 97000000 		call	_Znwm
 177      E7800000 
 178              	.LVL12:
 179              	.LEHE1:
 180 0054 13090500 		mv	s2,a0
 181 0058 63000502 		beq	a0,zero,.L6
 182              	.LVL13:
 183              	.LBB57:
 184              	.LBB58:
  25:src/user/test/../../../h/syscall_cpp.hpp ****     virtual ~Semaphore (){ sem_close(myHandle); }
 185              		.loc 1 25 35
 186 005c 97070000 		lla	a5,_ZTV9Semaphore+16
 186      93870700 
 187 0064 2330F500 		sd	a5,0(a0)
  25:src/user/test/../../../h/syscall_cpp.hpp ****     virtual ~Semaphore (){ sem_close(myHandle); }
 188              		.loc 1 25 37 is_stmt 1
  25:src/user/test/../../../h/syscall_cpp.hpp ****     virtual ~Semaphore (){ sem_close(myHandle); }
 189              		.loc 1 25 45 is_stmt 0
 190 0068 93050000 		li	a1,0
 191 006c 13058500 		addi	a0,a0,8
GAS LISTING /tmp/cctaWfnU.s 			page 5


 192              	.LVL14:
 193              	.LEHB2:
 194 0070 97000000 		call	sem_open
 194      E7800000 
 195              	.LVL15:
 196              	.LEHE2:
 197              	.L6:
 198              	.LBE58:
 199              	.LBE57:
 200              		.loc 2 5 19 discriminator 6
 201 0078 23B02403 		sd	s2,32(s1)
   6:src/user/test/buffer_CPP_API.cpp ****     spaceAvailable = new Semaphore(_cap);
 202              		.loc 2 6 5 is_stmt 1 discriminator 6
 203              		.loc 2 6 40 is_stmt 0 discriminator 6
 204 007c 13050001 		li	a0,16
 205              	.LEHB3:
 206 0080 97000000 		call	_Znwm
 206      E7800000 
 207              	.LVL16:
 208              	.LEHE3:
 209 0088 13090500 		mv	s2,a0
 210 008c 63000502 		beq	a0,zero,.L7
 211              	.LVL17:
 212              	.LBB59:
 213              	.LBB60:
  25:src/user/test/../../../h/syscall_cpp.hpp ****     virtual ~Semaphore (){ sem_close(myHandle); }
 214              		.loc 1 25 35 discriminator 1
 215 0090 97070000 		lla	a5,_ZTV9Semaphore+16
 215      93870700 
 216 0098 2330F500 		sd	a5,0(a0)
  25:src/user/test/../../../h/syscall_cpp.hpp ****     virtual ~Semaphore (){ sem_close(myHandle); }
 217              		.loc 1 25 37 is_stmt 1 discriminator 1
  25:src/user/test/../../../h/syscall_cpp.hpp ****     virtual ~Semaphore (){ sem_close(myHandle); }
 218              		.loc 1 25 45 is_stmt 0 discriminator 1
 219 009c 93850900 		mv	a1,s3
 220 00a0 13058500 		addi	a0,a0,8
 221              	.LVL18:
 222              	.LEHB4:
 223 00a4 97000000 		call	sem_open
 223      E7800000 
 224              	.LVL19:
 225              	.LEHE4:
 226              	.L7:
 227              	.LBE60:
 228              	.LBE59:
 229              		.loc 2 6 20 discriminator 6
 230 00ac 23BC2401 		sd	s2,24(s1)
   7:src/user/test/buffer_CPP_API.cpp ****     mutexHead = new Semaphore(1);
 231              		.loc 2 7 5 is_stmt 1 discriminator 6
 232              		.loc 2 7 32 is_stmt 0 discriminator 6
 233 00b0 13050001 		li	a0,16
 234              	.LEHB5:
 235 00b4 97000000 		call	_Znwm
 235      E7800000 
 236              	.LVL20:
 237              	.LEHE5:
 238 00bc 13090500 		mv	s2,a0
GAS LISTING /tmp/cctaWfnU.s 			page 6


 239 00c0 63000502 		beq	a0,zero,.L8
 240              	.LVL21:
 241              	.LBB61:
 242              	.LBB62:
  25:src/user/test/../../../h/syscall_cpp.hpp ****     virtual ~Semaphore (){ sem_close(myHandle); }
 243              		.loc 1 25 35
 244 00c4 97070000 		lla	a5,_ZTV9Semaphore+16
 244      93870700 
 245 00cc 2330F500 		sd	a5,0(a0)
  25:src/user/test/../../../h/syscall_cpp.hpp ****     virtual ~Semaphore (){ sem_close(myHandle); }
 246              		.loc 1 25 37 is_stmt 1
  25:src/user/test/../../../h/syscall_cpp.hpp ****     virtual ~Semaphore (){ sem_close(myHandle); }
 247              		.loc 1 25 45 is_stmt 0
 248 00d0 93051000 		li	a1,1
 249 00d4 13058500 		addi	a0,a0,8
 250              	.LVL22:
 251              	.LEHB6:
 252 00d8 97000000 		call	sem_open
 252      E7800000 
 253              	.LVL23:
 254              	.LEHE6:
 255              	.L8:
 256              	.LBE62:
 257              	.LBE61:
 258              		.loc 2 7 15 discriminator 6
 259 00e0 23B42403 		sd	s2,40(s1)
   8:src/user/test/buffer_CPP_API.cpp ****     mutexTail = new Semaphore(1);
 260              		.loc 2 8 5 is_stmt 1 discriminator 6
 261              		.loc 2 8 32 is_stmt 0 discriminator 6
 262 00e4 13050001 		li	a0,16
 263              	.LEHB7:
 264 00e8 97000000 		call	_Znwm
 264      E7800000 
 265              	.LVL24:
 266              	.LEHE7:
 267 00f0 13090500 		mv	s2,a0
 268 00f4 63000502 		beq	a0,zero,.L9
 269              	.LVL25:
 270              	.LBB63:
 271              	.LBB64:
  25:src/user/test/../../../h/syscall_cpp.hpp ****     virtual ~Semaphore (){ sem_close(myHandle); }
 272              		.loc 1 25 35
 273 00f8 97070000 		lla	a5,_ZTV9Semaphore+16
 273      93870700 
 274 0100 2330F500 		sd	a5,0(a0)
  25:src/user/test/../../../h/syscall_cpp.hpp ****     virtual ~Semaphore (){ sem_close(myHandle); }
 275              		.loc 1 25 37 is_stmt 1
  25:src/user/test/../../../h/syscall_cpp.hpp ****     virtual ~Semaphore (){ sem_close(myHandle); }
 276              		.loc 1 25 45 is_stmt 0
 277 0104 93051000 		li	a1,1
 278 0108 13058500 		addi	a0,a0,8
 279              	.LVL26:
 280              	.LEHB8:
 281 010c 97000000 		call	sem_open
 281      E7800000 
 282              	.LVL27:
 283              	.LEHE8:
GAS LISTING /tmp/cctaWfnU.s 			page 7


 284              	.L9:
 285              	.LBE64:
 286              	.LBE63:
 287              		.loc 2 8 15 discriminator 6
 288 0114 23B82403 		sd	s2,48(s1)
 289              	.LBE56:
   9:src/user/test/buffer_CPP_API.cpp **** }
 290              		.loc 2 9 1 discriminator 6
 291 0118 83308102 		ld	ra,40(sp)
 292              		.cfi_remember_state
 293              		.cfi_restore 1
 294 011c 03340102 		ld	s0,32(sp)
 295              		.cfi_restore 8
 296              		.cfi_def_cfa 2, 48
 297 0120 83348101 		ld	s1,24(sp)
 298              		.cfi_restore 9
 299              	.LVL28:
 300 0124 03390101 		ld	s2,16(sp)
 301              		.cfi_restore 18
 302 0128 83398100 		ld	s3,8(sp)
 303              		.cfi_restore 19
 304 012c 13010103 		addi	sp,sp,48
 305              		.cfi_def_cfa_offset 0
 306 0130 67800000 		jr	ra
 307              	.LVL29:
 308              	.L14:
 309              		.cfi_restore_state
 310 0134 93040500 		mv	s1,a0
 311              	.LVL30:
 312              	.LBB65:
   5:src/user/test/buffer_CPP_API.cpp ****     spaceAvailable = new Semaphore(_cap);
 313              		.loc 2 5 36
 314 0138 13050900 		mv	a0,s2
 315 013c 97000000 		call	_ZdlPv
 315      E7800000 
 316              	.LVL31:
 317 0144 13850400 		mv	a0,s1
 318              	.LEHB9:
 319 0148 97000000 		call	_Unwind_Resume
 319      E7800000 
 320              	.LVL32:
 321              	.LEHE9:
 322              	.L15:
 323 0150 93040500 		mv	s1,a0
 324              	.LVL33:
   6:src/user/test/buffer_CPP_API.cpp ****     mutexHead = new Semaphore(1);
 325              		.loc 2 6 40
 326 0154 13050900 		mv	a0,s2
 327 0158 97000000 		call	_ZdlPv
 327      E7800000 
 328              	.LVL34:
 329 0160 13850400 		mv	a0,s1
 330              	.LEHB10:
 331 0164 97000000 		call	_Unwind_Resume
 331      E7800000 
 332              	.LVL35:
 333              	.LEHE10:
GAS LISTING /tmp/cctaWfnU.s 			page 8


 334              	.L16:
 335 016c 93040500 		mv	s1,a0
 336              	.LVL36:
   7:src/user/test/buffer_CPP_API.cpp ****     mutexTail = new Semaphore(1);
 337              		.loc 2 7 32
 338 0170 13050900 		mv	a0,s2
 339 0174 97000000 		call	_ZdlPv
 339      E7800000 
 340              	.LVL37:
 341 017c 13850400 		mv	a0,s1
 342              	.LEHB11:
 343 0180 97000000 		call	_Unwind_Resume
 343      E7800000 
 344              	.LVL38:
 345              	.LEHE11:
 346              	.L17:
 347 0188 93040500 		mv	s1,a0
 348              	.LVL39:
   8:src/user/test/buffer_CPP_API.cpp **** }
 349              		.loc 2 8 32
 350 018c 13050900 		mv	a0,s2
 351 0190 97000000 		call	_ZdlPv
 351      E7800000 
 352              	.LVL40:
 353 0198 13850400 		mv	a0,s1
 354              	.LEHB12:
 355 019c 97000000 		call	_Unwind_Resume
 355      E7800000 
 356              	.LVL41:
 357              	.LEHE12:
 358              	.LBE65:
 359              		.cfi_endproc
 360              	.LFE20:
 361              		.section	.gcc_except_table,"aw",@progbits
 362              	.LLSDA20:
 363 0000 FF       		.byte	0xff
 364 0001 FF       		.byte	0xff
 365 0002 03       		.byte	0x3
 366 0003 9C01     		.byte	0x9c,0x1
 367 0005 00000000 		.4byte	.LEHB1-.LFB20
 368 0009 00000000 		.4byte	.LEHE1-.LEHB1
 369 000d 00000000 		.4byte	0
 370 0011 00       		.byte	0
 371 0012 00000000 		.4byte	.LEHB2-.LFB20
 372 0016 00000000 		.4byte	.LEHE2-.LEHB2
 373 001a 00000000 		.4byte	.L14-.LFB20
 374 001e 00       		.byte	0
 375 001f 00000000 		.4byte	.LEHB3-.LFB20
 376 0023 00000000 		.4byte	.LEHE3-.LEHB3
 377 0027 00000000 		.4byte	0
 378 002b 00       		.byte	0
 379 002c 00000000 		.4byte	.LEHB4-.LFB20
 380 0030 00000000 		.4byte	.LEHE4-.LEHB4
 381 0034 00000000 		.4byte	.L15-.LFB20
 382 0038 00       		.byte	0
 383 0039 00000000 		.4byte	.LEHB5-.LFB20
 384 003d 00000000 		.4byte	.LEHE5-.LEHB5
GAS LISTING /tmp/cctaWfnU.s 			page 9


 385 0041 00000000 		.4byte	0
 386 0045 00       		.byte	0
 387 0046 00000000 		.4byte	.LEHB6-.LFB20
 388 004a 00000000 		.4byte	.LEHE6-.LEHB6
 389 004e 00000000 		.4byte	.L16-.LFB20
 390 0052 00       		.byte	0
 391 0053 00000000 		.4byte	.LEHB7-.LFB20
 392 0057 00000000 		.4byte	.LEHE7-.LEHB7
 393 005b 00000000 		.4byte	0
 394 005f 00       		.byte	0
 395 0060 00000000 		.4byte	.LEHB8-.LFB20
 396 0064 00000000 		.4byte	.LEHE8-.LEHB8
 397 0068 00000000 		.4byte	.L17-.LFB20
 398 006c 00       		.byte	0
 399 006d 00000000 		.4byte	.LEHB9-.LFB20
 400 0071 00000000 		.4byte	.LEHE9-.LEHB9
 401 0075 00000000 		.4byte	0
 402 0079 00       		.byte	0
 403 007a 00000000 		.4byte	.LEHB10-.LFB20
 404 007e 00000000 		.4byte	.LEHE10-.LEHB10
 405 0082 00000000 		.4byte	0
 406 0086 00       		.byte	0
 407 0087 00000000 		.4byte	.LEHB11-.LFB20
 408 008b 00000000 		.4byte	.LEHE11-.LEHB11
 409 008f 00000000 		.4byte	0
 410 0093 00       		.byte	0
 411 0094 00000000 		.4byte	.LEHB12-.LFB20
 412 0098 00000000 		.4byte	.LEHE12-.LEHB12
 413 009c 00000000 		.4byte	0
 414 00a0 00       		.byte	0
 415              		.text
 417              		.globl	_ZN9BufferCPPC1Ei
 418              		.set	_ZN9BufferCPPC1Ei,_ZN9BufferCPPC2Ei
 419              		.align	2
 420              		.globl	_ZN9BufferCPP3putEi
 422              	_ZN9BufferCPP3putEi:
 423              	.LFB25:
  10:src/user/test/buffer_CPP_API.cpp **** 
  11:src/user/test/buffer_CPP_API.cpp **** BufferCPP::~BufferCPP() {
  12:src/user/test/buffer_CPP_API.cpp ****     Console::putc('\n');
  13:src/user/test/buffer_CPP_API.cpp ****     printString("Buffer deleted!\n");
  14:src/user/test/buffer_CPP_API.cpp ****     while (getCnt()) {
  15:src/user/test/buffer_CPP_API.cpp ****         char ch = buffer[head];
  16:src/user/test/buffer_CPP_API.cpp ****         Console::putc(ch);
  17:src/user/test/buffer_CPP_API.cpp ****         head = (head + 1) % cap;
  18:src/user/test/buffer_CPP_API.cpp ****     }
  19:src/user/test/buffer_CPP_API.cpp ****     Console::putc('!');
  20:src/user/test/buffer_CPP_API.cpp ****     Console::putc('\n');
  21:src/user/test/buffer_CPP_API.cpp **** 
  22:src/user/test/buffer_CPP_API.cpp ****     mem_free(buffer);
  23:src/user/test/buffer_CPP_API.cpp ****     delete itemAvailable;
  24:src/user/test/buffer_CPP_API.cpp ****     delete spaceAvailable;
  25:src/user/test/buffer_CPP_API.cpp ****     delete mutexTail;
  26:src/user/test/buffer_CPP_API.cpp ****     delete mutexHead;
  27:src/user/test/buffer_CPP_API.cpp **** 
  28:src/user/test/buffer_CPP_API.cpp **** }
  29:src/user/test/buffer_CPP_API.cpp **** 
GAS LISTING /tmp/cctaWfnU.s 			page 10


  30:src/user/test/buffer_CPP_API.cpp **** void BufferCPP::put(int val) {
 424              		.loc 2 30 30 is_stmt 1
 425              		.cfi_startproc
 426              	.LVL42:
 427 01a4 130101FE 		addi	sp,sp,-32
 428              		.cfi_def_cfa_offset 32
 429 01a8 233C1100 		sd	ra,24(sp)
 430 01ac 23388100 		sd	s0,16(sp)
 431 01b0 23349100 		sd	s1,8(sp)
 432 01b4 23302101 		sd	s2,0(sp)
 433              		.cfi_offset 1, -8
 434              		.cfi_offset 8, -16
 435              		.cfi_offset 9, -24
 436              		.cfi_offset 18, -32
 437 01b8 13040102 		addi	s0,sp,32
 438              		.cfi_def_cfa 8, 0
 439 01bc 93040500 		mv	s1,a0
 440 01c0 13890500 		mv	s2,a1
  31:src/user/test/buffer_CPP_API.cpp ****     spaceAvailable->wait();
 441              		.loc 2 31 5
 442 01c4 83378501 		ld	a5,24(a0)
 443              	.LVL43:
 444              	.LBB66:
 445              	.LBB67:
  27:src/user/test/../../../h/syscall_cpp.hpp ****     void wait (){ sem_wait(myHandle); }
 446              		.loc 1 27 19
 447              		.loc 1 27 27 is_stmt 0
 448 01c8 03B58700 		ld	a0,8(a5)
 449              	.LVL44:
 450 01cc 97000000 		call	sem_wait
 450      E7800000 
 451              	.LVL45:
 452              	.LBE67:
 453              	.LBE66:
  32:src/user/test/buffer_CPP_API.cpp **** 
  33:src/user/test/buffer_CPP_API.cpp ****     mutexTail->wait();
 454              		.loc 2 33 5 is_stmt 1
 455 01d4 83B70403 		ld	a5,48(s1)
 456              	.LVL46:
 457              	.LBB68:
 458              	.LBB69:
 459              		.loc 1 27 19
 460              		.loc 1 27 27 is_stmt 0
 461 01d8 03B58700 		ld	a0,8(a5)
 462 01dc 97000000 		call	sem_wait
 462      E7800000 
 463              	.LVL47:
 464              	.LBE69:
 465              	.LBE68:
  34:src/user/test/buffer_CPP_API.cpp ****     buffer[tail] = val;
 466              		.loc 2 34 5 is_stmt 1
 467 01e4 83B78400 		ld	a5,8(s1)
 468              		.loc 2 34 12 is_stmt 0
 469 01e8 03A74401 		lw	a4,20(s1)
 470              		.loc 2 34 16
 471 01ec 13172700 		slli	a4,a4,2
 472 01f0 B387E700 		add	a5,a5,a4
GAS LISTING /tmp/cctaWfnU.s 			page 11


 473              		.loc 2 34 18
 474 01f4 23A02701 		sw	s2,0(a5)
  35:src/user/test/buffer_CPP_API.cpp ****     tail = (tail + 1) % cap;
 475              		.loc 2 35 5 is_stmt 1
 476              		.loc 2 35 13 is_stmt 0
 477 01f8 83A74401 		lw	a5,20(s1)
 478              		.loc 2 35 18
 479 01fc 9B871700 		addiw	a5,a5,1
 480              		.loc 2 35 25
 481 0200 03A70400 		lw	a4,0(s1)
 482              		.loc 2 35 23
 483 0204 BBE7E702 		remw	a5,a5,a4
 484              		.loc 2 35 10
 485 0208 23AAF400 		sw	a5,20(s1)
  36:src/user/test/buffer_CPP_API.cpp ****     mutexTail->signal();
 486              		.loc 2 36 5 is_stmt 1
 487 020c 83B70403 		ld	a5,48(s1)
 488              	.LVL48:
 489              	.LBB70:
 490              	.LBB71:
  28:src/user/test/../../../h/syscall_cpp.hpp ****     void signal (){ sem_signal(myHandle); }
 491              		.loc 1 28 21
 492              		.loc 1 28 31 is_stmt 0
 493 0210 03B58700 		ld	a0,8(a5)
 494 0214 97000000 		call	sem_signal
 494      E7800000 
 495              	.LVL49:
 496              	.LBE71:
 497              	.LBE70:
  37:src/user/test/buffer_CPP_API.cpp **** 
  38:src/user/test/buffer_CPP_API.cpp ****     itemAvailable->signal();
 498              		.loc 2 38 5 is_stmt 1
 499 021c 83B70402 		ld	a5,32(s1)
 500              	.LVL50:
 501              	.LBB72:
 502              	.LBB73:
 503              		.loc 1 28 21
 504              		.loc 1 28 31 is_stmt 0
 505 0220 03B58700 		ld	a0,8(a5)
 506 0224 97000000 		call	sem_signal
 506      E7800000 
 507              	.LVL51:
 508              	.LBE73:
 509              	.LBE72:
  39:src/user/test/buffer_CPP_API.cpp **** 
  40:src/user/test/buffer_CPP_API.cpp **** }
 510              		.loc 2 40 1
 511 022c 83308101 		ld	ra,24(sp)
 512              		.cfi_restore 1
 513 0230 03340101 		ld	s0,16(sp)
 514              		.cfi_restore 8
 515              		.cfi_def_cfa 2, 32
 516 0234 83348100 		ld	s1,8(sp)
 517              		.cfi_restore 9
 518              	.LVL52:
 519 0238 03390100 		ld	s2,0(sp)
 520              		.cfi_restore 18
GAS LISTING /tmp/cctaWfnU.s 			page 12


 521 023c 13010102 		addi	sp,sp,32
 522              		.cfi_def_cfa_offset 0
 523 0240 67800000 		jr	ra
 524              		.cfi_endproc
 525              	.LFE25:
 527              		.align	2
 528              		.globl	_ZN9BufferCPP3getEv
 530              	_ZN9BufferCPP3getEv:
 531              	.LFB26:
  41:src/user/test/buffer_CPP_API.cpp **** 
  42:src/user/test/buffer_CPP_API.cpp **** int BufferCPP::get() {
 532              		.loc 2 42 22 is_stmt 1
 533              		.cfi_startproc
 534              	.LVL53:
 535 0244 130101FE 		addi	sp,sp,-32
 536              		.cfi_def_cfa_offset 32
 537 0248 233C1100 		sd	ra,24(sp)
 538 024c 23388100 		sd	s0,16(sp)
 539 0250 23349100 		sd	s1,8(sp)
 540 0254 23302101 		sd	s2,0(sp)
 541              		.cfi_offset 1, -8
 542              		.cfi_offset 8, -16
 543              		.cfi_offset 9, -24
 544              		.cfi_offset 18, -32
 545 0258 13040102 		addi	s0,sp,32
 546              		.cfi_def_cfa 8, 0
 547 025c 93040500 		mv	s1,a0
  43:src/user/test/buffer_CPP_API.cpp ****     itemAvailable->wait();
 548              		.loc 2 43 5
 549 0260 83370502 		ld	a5,32(a0)
 550              	.LVL54:
 551              	.LBB74:
 552              	.LBB75:
  27:src/user/test/../../../h/syscall_cpp.hpp ****     void signal (){ sem_signal(myHandle); }
 553              		.loc 1 27 19
  27:src/user/test/../../../h/syscall_cpp.hpp ****     void signal (){ sem_signal(myHandle); }
 554              		.loc 1 27 27 is_stmt 0
 555 0264 03B58700 		ld	a0,8(a5)
 556              	.LVL55:
 557 0268 97000000 		call	sem_wait
 557      E7800000 
 558              	.LVL56:
 559              	.LBE75:
 560              	.LBE74:
  44:src/user/test/buffer_CPP_API.cpp **** 
  45:src/user/test/buffer_CPP_API.cpp ****     mutexHead->wait();
 561              		.loc 2 45 5 is_stmt 1
 562 0270 83B78402 		ld	a5,40(s1)
 563              	.LVL57:
 564              	.LBB76:
 565              	.LBB77:
  27:src/user/test/../../../h/syscall_cpp.hpp ****     void signal (){ sem_signal(myHandle); }
 566              		.loc 1 27 19
  27:src/user/test/../../../h/syscall_cpp.hpp ****     void signal (){ sem_signal(myHandle); }
 567              		.loc 1 27 27 is_stmt 0
 568 0274 03B58700 		ld	a0,8(a5)
 569 0278 97000000 		call	sem_wait
GAS LISTING /tmp/cctaWfnU.s 			page 13


 569      E7800000 
 570              	.LVL58:
 571              	.LBE77:
 572              	.LBE76:
  46:src/user/test/buffer_CPP_API.cpp **** 
  47:src/user/test/buffer_CPP_API.cpp ****     int ret = buffer[head];
 573              		.loc 2 47 5 is_stmt 1
 574              		.loc 2 47 15 is_stmt 0
 575 0280 03B78400 		ld	a4,8(s1)
 576              		.loc 2 47 22
 577 0284 83A70401 		lw	a5,16(s1)
 578              		.loc 2 47 26
 579 0288 93962700 		slli	a3,a5,2
 580 028c 3307D700 		add	a4,a4,a3
 581              		.loc 2 47 9
 582 0290 03290700 		lw	s2,0(a4)
 583              	.LVL59:
  48:src/user/test/buffer_CPP_API.cpp ****     head = (head + 1) % cap;
 584              		.loc 2 48 5 is_stmt 1
 585              		.loc 2 48 18 is_stmt 0
 586 0294 9B871700 		addiw	a5,a5,1
 587              		.loc 2 48 25
 588 0298 03A70400 		lw	a4,0(s1)
 589              		.loc 2 48 23
 590 029c BBE7E702 		remw	a5,a5,a4
 591              		.loc 2 48 10
 592 02a0 23A8F400 		sw	a5,16(s1)
  49:src/user/test/buffer_CPP_API.cpp ****     mutexHead->signal();
 593              		.loc 2 49 5 is_stmt 1
 594 02a4 83B78402 		ld	a5,40(s1)
 595              	.LVL60:
 596              	.LBB78:
 597              	.LBB79:
 598              		.loc 1 28 21
 599              		.loc 1 28 31 is_stmt 0
 600 02a8 03B58700 		ld	a0,8(a5)
 601 02ac 97000000 		call	sem_signal
 601      E7800000 
 602              	.LVL61:
 603              	.LBE79:
 604              	.LBE78:
  50:src/user/test/buffer_CPP_API.cpp **** 
  51:src/user/test/buffer_CPP_API.cpp ****     spaceAvailable->signal();
 605              		.loc 2 51 5 is_stmt 1
 606 02b4 83B78401 		ld	a5,24(s1)
 607              	.LVL62:
 608              	.LBB80:
 609              	.LBB81:
 610              		.loc 1 28 21
 611              		.loc 1 28 31 is_stmt 0
 612 02b8 03B58700 		ld	a0,8(a5)
 613 02bc 97000000 		call	sem_signal
 613      E7800000 
 614              	.LVL63:
 615              	.LBE81:
 616              	.LBE80:
  52:src/user/test/buffer_CPP_API.cpp **** 
GAS LISTING /tmp/cctaWfnU.s 			page 14


  53:src/user/test/buffer_CPP_API.cpp ****     return ret;
 617              		.loc 2 53 5 is_stmt 1
  54:src/user/test/buffer_CPP_API.cpp **** }
 618              		.loc 2 54 1 is_stmt 0
 619 02c4 13050900 		mv	a0,s2
 620 02c8 83308101 		ld	ra,24(sp)
 621              		.cfi_restore 1
 622 02cc 03340101 		ld	s0,16(sp)
 623              		.cfi_restore 8
 624              		.cfi_def_cfa 2, 32
 625 02d0 83348100 		ld	s1,8(sp)
 626              		.cfi_restore 9
 627              	.LVL64:
 628 02d4 03390100 		ld	s2,0(sp)
 629              		.cfi_restore 18
 630              	.LVL65:
 631 02d8 13010102 		addi	sp,sp,32
 632              		.cfi_def_cfa_offset 0
 633 02dc 67800000 		jr	ra
 634              		.cfi_endproc
 635              	.LFE26:
 637              		.align	2
 638              		.globl	_ZN9BufferCPP6getCntEv
 640              	_ZN9BufferCPP6getCntEv:
 641              	.LFB27:
  55:src/user/test/buffer_CPP_API.cpp **** 
  56:src/user/test/buffer_CPP_API.cpp **** int BufferCPP::getCnt() {
 642              		.loc 2 56 25 is_stmt 1
 643              		.cfi_startproc
 644              	.LVL66:
 645 02e0 130101FE 		addi	sp,sp,-32
 646              		.cfi_def_cfa_offset 32
 647 02e4 233C1100 		sd	ra,24(sp)
 648 02e8 23388100 		sd	s0,16(sp)
 649 02ec 23349100 		sd	s1,8(sp)
 650 02f0 23302101 		sd	s2,0(sp)
 651              		.cfi_offset 1, -8
 652              		.cfi_offset 8, -16
 653              		.cfi_offset 9, -24
 654              		.cfi_offset 18, -32
 655 02f4 13040102 		addi	s0,sp,32
 656              		.cfi_def_cfa 8, 0
 657 02f8 93040500 		mv	s1,a0
  57:src/user/test/buffer_CPP_API.cpp ****     int ret;
 658              		.loc 2 57 5
  58:src/user/test/buffer_CPP_API.cpp **** 
  59:src/user/test/buffer_CPP_API.cpp ****     mutexHead->wait();
 659              		.loc 2 59 5
 660 02fc 83378502 		ld	a5,40(a0)
 661              	.LVL67:
 662              	.LBB82:
 663              	.LBB83:
  27:src/user/test/../../../h/syscall_cpp.hpp ****     void signal (){ sem_signal(myHandle); }
 664              		.loc 1 27 19
  27:src/user/test/../../../h/syscall_cpp.hpp ****     void signal (){ sem_signal(myHandle); }
 665              		.loc 1 27 27 is_stmt 0
 666 0300 03B58700 		ld	a0,8(a5)
GAS LISTING /tmp/cctaWfnU.s 			page 15


 667              	.LVL68:
 668 0304 97000000 		call	sem_wait
 668      E7800000 
 669              	.LVL69:
 670              	.LBE83:
 671              	.LBE82:
  60:src/user/test/buffer_CPP_API.cpp ****     mutexTail->wait();
 672              		.loc 2 60 5 is_stmt 1
 673 030c 83B70403 		ld	a5,48(s1)
 674              	.LVL70:
 675              	.LBB84:
 676              	.LBB85:
  27:src/user/test/../../../h/syscall_cpp.hpp ****     void signal (){ sem_signal(myHandle); }
 677              		.loc 1 27 19
  27:src/user/test/../../../h/syscall_cpp.hpp ****     void signal (){ sem_signal(myHandle); }
 678              		.loc 1 27 27 is_stmt 0
 679 0310 03B58700 		ld	a0,8(a5)
 680 0314 97000000 		call	sem_wait
 680      E7800000 
 681              	.LVL71:
 682              	.LBE85:
 683              	.LBE84:
  61:src/user/test/buffer_CPP_API.cpp **** 
  62:src/user/test/buffer_CPP_API.cpp ****     if (tail >= head) {
 684              		.loc 2 62 5 is_stmt 1
 685              		.loc 2 62 9 is_stmt 0
 686 031c 83A74401 		lw	a5,20(s1)
 687              		.loc 2 62 17
 688 0320 03A90401 		lw	s2,16(s1)
 689              		.loc 2 62 5
 690 0324 63C22705 		blt	a5,s2,.L25
  63:src/user/test/buffer_CPP_API.cpp ****         ret = tail - head;
 691              		.loc 2 63 9 is_stmt 1
 692              		.loc 2 63 13 is_stmt 0
 693 0328 3B892741 		subw	s2,a5,s2
 694              	.LVL72:
 695              	.L26:
  64:src/user/test/buffer_CPP_API.cpp ****     } else {
  65:src/user/test/buffer_CPP_API.cpp ****         ret = cap - head + tail;
  66:src/user/test/buffer_CPP_API.cpp ****     }
  67:src/user/test/buffer_CPP_API.cpp **** 
  68:src/user/test/buffer_CPP_API.cpp ****     mutexTail->signal();
 696              		.loc 2 68 5 is_stmt 1
 697 032c 83B70403 		ld	a5,48(s1)
 698              	.LVL73:
 699              	.LBB86:
 700              	.LBB87:
 701              		.loc 1 28 21
 702              		.loc 1 28 31 is_stmt 0
 703 0330 03B58700 		ld	a0,8(a5)
 704 0334 97000000 		call	sem_signal
 704      E7800000 
 705              	.LVL74:
 706              	.LBE87:
 707              	.LBE86:
  69:src/user/test/buffer_CPP_API.cpp ****     mutexHead->signal();
 708              		.loc 2 69 5 is_stmt 1
GAS LISTING /tmp/cctaWfnU.s 			page 16


 709 033c 83B78402 		ld	a5,40(s1)
 710              	.LVL75:
 711              	.LBB88:
 712              	.LBB89:
 713              		.loc 1 28 21
 714              		.loc 1 28 31 is_stmt 0
 715 0340 03B58700 		ld	a0,8(a5)
 716 0344 97000000 		call	sem_signal
 716      E7800000 
 717              	.LVL76:
 718              	.LBE89:
 719              	.LBE88:
  70:src/user/test/buffer_CPP_API.cpp **** 
  71:src/user/test/buffer_CPP_API.cpp ****     return ret;
 720              		.loc 2 71 5 is_stmt 1
  72:src/user/test/buffer_CPP_API.cpp **** }
 721              		.loc 2 72 1 is_stmt 0
 722 034c 13050900 		mv	a0,s2
 723 0350 83308101 		ld	ra,24(sp)
 724              		.cfi_remember_state
 725              		.cfi_restore 1
 726 0354 03340101 		ld	s0,16(sp)
 727              		.cfi_restore 8
 728              		.cfi_def_cfa 2, 32
 729 0358 83348100 		ld	s1,8(sp)
 730              		.cfi_restore 9
 731              	.LVL77:
 732 035c 03390100 		ld	s2,0(sp)
 733              		.cfi_restore 18
 734              	.LVL78:
 735 0360 13010102 		addi	sp,sp,32
 736              		.cfi_def_cfa_offset 0
 737 0364 67800000 		jr	ra
 738              	.LVL79:
 739              	.L25:
 740              		.cfi_restore_state
  65:src/user/test/buffer_CPP_API.cpp ****     }
 741              		.loc 2 65 9 is_stmt 1
  65:src/user/test/buffer_CPP_API.cpp ****     }
 742              		.loc 2 65 15 is_stmt 0
 743 0368 03A70400 		lw	a4,0(s1)
  65:src/user/test/buffer_CPP_API.cpp ****     }
 744              		.loc 2 65 19
 745 036c 3B092741 		subw	s2,a4,s2
  65:src/user/test/buffer_CPP_API.cpp ****     }
 746              		.loc 2 65 13
 747 0370 3B09F900 		addw	s2,s2,a5
 748 0374 6FF09FFB 		j	.L26
 749              		.cfi_endproc
 750              	.LFE27:
 752              		.align	2
 753              		.globl	_ZN9BufferCPPD2Ev
 755              	_ZN9BufferCPPD2Ev:
 756              	.LFB23:
  11:src/user/test/buffer_CPP_API.cpp ****     Console::putc('\n');
 757              		.loc 2 11 1 is_stmt 1
 758              		.cfi_startproc
GAS LISTING /tmp/cctaWfnU.s 			page 17


 759              		.cfi_personality 0x9b,DW.ref.__gxx_personality_v0
 760              		.cfi_lsda 0x1b,.LLSDA23
 761              	.LVL80:
 762 0378 130101FE 		addi	sp,sp,-32
 763              		.cfi_def_cfa_offset 32
 764 037c 233C1100 		sd	ra,24(sp)
 765 0380 23388100 		sd	s0,16(sp)
 766 0384 23349100 		sd	s1,8(sp)
 767              		.cfi_offset 1, -8
 768              		.cfi_offset 8, -16
 769              		.cfi_offset 9, -24
 770 0388 13040102 		addi	s0,sp,32
 771              		.cfi_def_cfa 8, 0
 772 038c 93040500 		mv	s1,a0
 773              	.LBB90:
  12:src/user/test/buffer_CPP_API.cpp ****     printString("Buffer deleted!\n");
 774              		.loc 2 12 5
 775              	.LVL81:
 776              	.LBB91:
 777              	.LBB92:
  29:src/user/test/../../../h/syscall_cpp.hpp **** private:
  30:src/user/test/../../../h/syscall_cpp.hpp ****     sem_t myHandle;
  31:src/user/test/../../../h/syscall_cpp.hpp **** };
  32:src/user/test/../../../h/syscall_cpp.hpp **** 
  33:src/user/test/../../../h/syscall_cpp.hpp **** class PeriodicThread : public Thread {
  34:src/user/test/../../../h/syscall_cpp.hpp **** protected:
  35:src/user/test/../../../h/syscall_cpp.hpp ****     PeriodicThread (time_t period);
  36:src/user/test/../../../h/syscall_cpp.hpp ****     virtual void periodicActivation () {}
  37:src/user/test/../../../h/syscall_cpp.hpp **** private:
  38:src/user/test/../../../h/syscall_cpp.hpp ****     static void periodicWrapper(void*);
  39:src/user/test/../../../h/syscall_cpp.hpp **** };
  40:src/user/test/../../../h/syscall_cpp.hpp **** 
  41:src/user/test/../../../h/syscall_cpp.hpp **** class Console {
  42:src/user/test/../../../h/syscall_cpp.hpp **** public:
  43:src/user/test/../../../h/syscall_cpp.hpp ****     static char getc (){ return ::getc(); }
  44:src/user/test/../../../h/syscall_cpp.hpp ****     static void putc (char c){ ::putc(c); }
 778              		.loc 1 44 32
 779              		.loc 1 44 38 is_stmt 0
 780 0390 1305A000 		li	a0,10
 781              	.LVL82:
 782 0394 97000000 		call	putc
 782      E7800000 
 783              	.LVL83:
 784              	.LBE92:
 785              	.LBE91:
  13:src/user/test/buffer_CPP_API.cpp ****     while (getCnt()) {
 786              		.loc 2 13 5 is_stmt 1
  13:src/user/test/buffer_CPP_API.cpp ****     while (getCnt()) {
 787              		.loc 2 13 16 is_stmt 0
 788 039c 17050000 		lla	a0,.LC0
 788      13050500 
 789 03a4 97000000 		call	_Z11printStringPKc
 789      E7800000 
 790              	.LVL84:
 791              	.L30:
  14:src/user/test/buffer_CPP_API.cpp ****         char ch = buffer[head];
 792              		.loc 2 14 5 is_stmt 1
GAS LISTING /tmp/cctaWfnU.s 			page 18


  14:src/user/test/buffer_CPP_API.cpp ****         char ch = buffer[head];
 793              		.loc 2 14 18 is_stmt 0
 794 03ac 13850400 		mv	a0,s1
 795 03b0 97000000 		call	_ZN9BufferCPP6getCntEv
 795      E7800000 
 796              	.LVL85:
  14:src/user/test/buffer_CPP_API.cpp ****         char ch = buffer[head];
 797              		.loc 2 14 19
 798 03b8 630C0502 		beq	a0,zero,.L29
 799              	.LBB93:
  15:src/user/test/buffer_CPP_API.cpp ****         Console::putc(ch);
 800              		.loc 2 15 9 is_stmt 1
  15:src/user/test/buffer_CPP_API.cpp ****         Console::putc(ch);
 801              		.loc 2 15 19 is_stmt 0
 802 03bc 83B78400 		ld	a5,8(s1)
  15:src/user/test/buffer_CPP_API.cpp ****         Console::putc(ch);
 803              		.loc 2 15 26
 804 03c0 03A70401 		lw	a4,16(s1)
  15:src/user/test/buffer_CPP_API.cpp ****         Console::putc(ch);
 805              		.loc 2 15 30
 806 03c4 13172700 		slli	a4,a4,2
 807 03c8 B387E700 		add	a5,a5,a4
 808              	.LVL86:
  16:src/user/test/buffer_CPP_API.cpp ****         head = (head + 1) % cap;
 809              		.loc 2 16 9 is_stmt 1
 810              	.LBB94:
 811              	.LBB95:
 812              		.loc 1 44 32
 813              		.loc 1 44 38 is_stmt 0
 814 03cc 03C50700 		lbu	a0,0(a5)
 815 03d0 97000000 		call	putc
 815      E7800000 
 816              	.LVL87:
 817              	.LBE95:
 818              	.LBE94:
  17:src/user/test/buffer_CPP_API.cpp ****     }
 819              		.loc 2 17 9 is_stmt 1
  17:src/user/test/buffer_CPP_API.cpp ****     }
 820              		.loc 2 17 17 is_stmt 0
 821 03d8 83A70401 		lw	a5,16(s1)
  17:src/user/test/buffer_CPP_API.cpp ****     }
 822              		.loc 2 17 22
 823 03dc 9B871700 		addiw	a5,a5,1
  17:src/user/test/buffer_CPP_API.cpp ****     }
 824              		.loc 2 17 29
 825 03e0 03A70400 		lw	a4,0(s1)
  17:src/user/test/buffer_CPP_API.cpp ****     }
 826              		.loc 2 17 27
 827 03e4 BBE7E702 		remw	a5,a5,a4
  17:src/user/test/buffer_CPP_API.cpp ****     }
 828              		.loc 2 17 14
 829 03e8 23A8F400 		sw	a5,16(s1)
 830              	.LBE93:
  14:src/user/test/buffer_CPP_API.cpp ****         char ch = buffer[head];
 831              		.loc 2 14 5
 832 03ec 6FF01FFC 		j	.L30
 833              	.L29:
GAS LISTING /tmp/cctaWfnU.s 			page 19


  19:src/user/test/buffer_CPP_API.cpp ****     Console::putc('\n');
 834              		.loc 2 19 5 is_stmt 1
 835              	.LVL88:
 836              	.LBB96:
 837              	.LBB97:
 838              		.loc 1 44 32
 839              		.loc 1 44 38 is_stmt 0
 840 03f0 13051002 		li	a0,33
 841 03f4 97000000 		call	putc
 841      E7800000 
 842              	.LVL89:
 843              	.LBE97:
 844              	.LBE96:
  20:src/user/test/buffer_CPP_API.cpp **** 
 845              		.loc 2 20 5 is_stmt 1
 846              	.LBB98:
 847              	.LBB99:
 848              		.loc 1 44 32
 849              		.loc 1 44 38 is_stmt 0
 850 03fc 1305A000 		li	a0,10
 851 0400 97000000 		call	putc
 851      E7800000 
 852              	.LVL90:
 853              	.LBE99:
 854              	.LBE98:
  22:src/user/test/buffer_CPP_API.cpp ****     delete itemAvailable;
 855              		.loc 2 22 5 is_stmt 1
  22:src/user/test/buffer_CPP_API.cpp ****     delete itemAvailable;
 856              		.loc 2 22 13 is_stmt 0
 857 0408 03B58400 		ld	a0,8(s1)
 858 040c 97000000 		call	mem_free
 858      E7800000 
 859              	.LVL91:
  23:src/user/test/buffer_CPP_API.cpp ****     delete spaceAvailable;
 860              		.loc 2 23 5 is_stmt 1
  23:src/user/test/buffer_CPP_API.cpp ****     delete spaceAvailable;
 861              		.loc 2 23 12 is_stmt 0
 862 0414 03B50402 		ld	a0,32(s1)
  23:src/user/test/buffer_CPP_API.cpp ****     delete spaceAvailable;
 863              		.loc 2 23 25
 864 0418 63080500 		beq	a0,zero,.L31
  23:src/user/test/buffer_CPP_API.cpp ****     delete spaceAvailable;
 865              		.loc 2 23 12 discriminator 1
 866 041c 83370500 		ld	a5,0(a0)
 867 0420 83B78700 		ld	a5,8(a5)
 868 0424 E7800700 		jalr	a5
 869              	.LVL92:
 870              	.L31:
  24:src/user/test/buffer_CPP_API.cpp ****     delete mutexTail;
 871              		.loc 2 24 5 is_stmt 1
  24:src/user/test/buffer_CPP_API.cpp ****     delete mutexTail;
 872              		.loc 2 24 12 is_stmt 0
 873 0428 03B58401 		ld	a0,24(s1)
  24:src/user/test/buffer_CPP_API.cpp ****     delete mutexTail;
 874              		.loc 2 24 26
 875 042c 63080500 		beq	a0,zero,.L32
  24:src/user/test/buffer_CPP_API.cpp ****     delete mutexTail;
GAS LISTING /tmp/cctaWfnU.s 			page 20


 876              		.loc 2 24 12 discriminator 1
 877 0430 83370500 		ld	a5,0(a0)
 878 0434 83B78700 		ld	a5,8(a5)
 879 0438 E7800700 		jalr	a5
 880              	.LVL93:
 881              	.L32:
  25:src/user/test/buffer_CPP_API.cpp ****     delete mutexHead;
 882              		.loc 2 25 5 is_stmt 1
  25:src/user/test/buffer_CPP_API.cpp ****     delete mutexHead;
 883              		.loc 2 25 12 is_stmt 0
 884 043c 03B50403 		ld	a0,48(s1)
  25:src/user/test/buffer_CPP_API.cpp ****     delete mutexHead;
 885              		.loc 2 25 21
 886 0440 63080500 		beq	a0,zero,.L33
  25:src/user/test/buffer_CPP_API.cpp ****     delete mutexHead;
 887              		.loc 2 25 12 discriminator 1
 888 0444 83370500 		ld	a5,0(a0)
 889 0448 83B78700 		ld	a5,8(a5)
 890 044c E7800700 		jalr	a5
 891              	.LVL94:
 892              	.L33:
  26:src/user/test/buffer_CPP_API.cpp **** 
 893              		.loc 2 26 5 is_stmt 1
  26:src/user/test/buffer_CPP_API.cpp **** 
 894              		.loc 2 26 12 is_stmt 0
 895 0450 03B58402 		ld	a0,40(s1)
  26:src/user/test/buffer_CPP_API.cpp **** 
 896              		.loc 2 26 21
 897 0454 63080500 		beq	a0,zero,.L28
  26:src/user/test/buffer_CPP_API.cpp **** 
 898              		.loc 2 26 12 discriminator 1
 899 0458 83370500 		ld	a5,0(a0)
 900 045c 83B78700 		ld	a5,8(a5)
 901 0460 E7800700 		jalr	a5
 902              	.LVL95:
 903              	.L28:
 904              	.LBE90:
  28:src/user/test/buffer_CPP_API.cpp **** 
 905              		.loc 2 28 1
 906 0464 83308101 		ld	ra,24(sp)
 907              		.cfi_restore 1
 908 0468 03340101 		ld	s0,16(sp)
 909              		.cfi_restore 8
 910              		.cfi_def_cfa 2, 32
 911 046c 83348100 		ld	s1,8(sp)
 912              		.cfi_restore 9
 913              	.LVL96:
 914 0470 13010102 		addi	sp,sp,32
 915              		.cfi_def_cfa_offset 0
 916 0474 67800000 		jr	ra
 917              		.cfi_endproc
 918              	.LFE23:
 919              		.section	.gcc_except_table
 920              	.LLSDA23:
 921 00a1 FF       		.byte	0xff
 922 00a2 FF       		.byte	0xff
 923 00a3 03       		.byte	0x3
GAS LISTING /tmp/cctaWfnU.s 			page 21


 924 00a4 00       		.byte	0
 925              		.text
 927              		.globl	_ZN9BufferCPPD1Ev
 928              		.set	_ZN9BufferCPPD1Ev,_ZN9BufferCPPD2Ev
 929              		.weak	_ZTV9Semaphore
 930              		.section	.rodata._ZTV9Semaphore,"aG",@progbits,_ZTV9Semaphore,comdat
 931              		.align	3
 934              	_ZTV9Semaphore:
 935 0000 00000000 		.dword	0
 935      00000000 
 936 0008 00000000 		.dword	0
 936      00000000 
 937 0010 00000000 		.dword	_ZN9SemaphoreD1Ev
 937      00000000 
 938 0018 00000000 		.dword	_ZN9SemaphoreD0Ev
 938      00000000 
 939              		.section	.rodata.str1.8,"aMS",@progbits,1
 940              		.align	3
 941              	.LC0:
 942 0000 42756666 		.string	"Buffer deleted!\n"
 942      65722064 
 942      656C6574 
 942      6564210A 
 942      00
 943              		.text
 944              	.Letext0:
 945              		.file 3 "src/user/test/../../../h/../lib/hw.h"
 946              		.file 4 "src/user/test/../../../h/../h/_semaphore.h"
 947              		.file 5 "src/user/test/../../../h/syscall_c.h"
 948              		.file 6 "src/user/test/buffer_CPP_API.hpp"
 949              		.file 7 "src/user/test/printing.hpp"
 3780              		.align	3
 3783              	DW.ref.__gxx_personality_v0:
 3784 0000 00000000 		.dword	__gxx_personality_v0
 3784      00000000 
 3785              		.ident	"GCC: () 8.3.0"
GAS LISTING /tmp/cctaWfnU.s 			page 22

