GAS LISTING /tmp/ccce4vZ9.s 			page 1


   1              		.file	"interrupt_cpp.cpp"
   2              		.option nopic
   3              		.option norelax
   4              		.attribute arch, "rv64i2p0_m2p0_a2p0"
   5              		.attribute unaligned_access, 0
   6              		.attribute stack_align, 16
   7              		.text
   8              	.Ltext0:
   9              		.align	2
  10              		.globl	_Z13timer_handlerv
  12              	_Z13timer_handlerv:
  13              	.LFB113:
  14              		.file 1 "src/kernel/interrupt/interrupt_cpp.cpp"
   1:src/kernel/interrupt/interrupt_cpp.cpp **** #include"../../../h/kernel_lib.h"
   2:src/kernel/interrupt/interrupt_cpp.cpp **** 
   3:src/kernel/interrupt/interrupt_cpp.cpp **** enum sysCallNum
   4:src/kernel/interrupt/interrupt_cpp.cpp **** {
   5:src/kernel/interrupt/interrupt_cpp.cpp ****     MA = 0x1, 
   6:src/kernel/interrupt/interrupt_cpp.cpp ****     MF = 0x2,
   7:src/kernel/interrupt/interrupt_cpp.cpp ****     TC = 0x11,
   8:src/kernel/interrupt/interrupt_cpp.cpp ****     TE = 0x12,
   9:src/kernel/interrupt/interrupt_cpp.cpp ****     TD = 0x13,
  10:src/kernel/interrupt/interrupt_cpp.cpp ****     SO = 0x21,
  11:src/kernel/interrupt/interrupt_cpp.cpp ****     SC = 0x22,
  12:src/kernel/interrupt/interrupt_cpp.cpp ****     SW = 0x23,
  13:src/kernel/interrupt/interrupt_cpp.cpp ****     SS = 0x24,
  14:src/kernel/interrupt/interrupt_cpp.cpp ****     DTH = 0x69,
  15:src/kernel/interrupt/interrupt_cpp.cpp ****     TS = 0x31,
  16:src/kernel/interrupt/interrupt_cpp.cpp ****     GC = 0x41,
  17:src/kernel/interrupt/interrupt_cpp.cpp ****     PC = 0x42,     
  18:src/kernel/interrupt/interrupt_cpp.cpp **** };
  19:src/kernel/interrupt/interrupt_cpp.cpp **** 
  20:src/kernel/interrupt/interrupt_cpp.cpp **** enum intNum
  21:src/kernel/interrupt/interrupt_cpp.cpp **** {
  22:src/kernel/interrupt/interrupt_cpp.cpp ****     IH = 0x8000000000000009,
  23:src/kernel/interrupt/interrupt_cpp.cpp ****     IT = 0x8000000000000001,
  24:src/kernel/interrupt/interrupt_cpp.cpp ****     IS = 9,
  25:src/kernel/interrupt/interrupt_cpp.cpp ****     IU = 8,
  26:src/kernel/interrupt/interrupt_cpp.cpp ****     II = 2,
  27:src/kernel/interrupt/interrupt_cpp.cpp ****     IR = 5,
  28:src/kernel/interrupt/interrupt_cpp.cpp ****     IW = 7,
  29:src/kernel/interrupt/interrupt_cpp.cpp ****     PFL = 13,
  30:src/kernel/interrupt/interrupt_cpp.cpp ****     PFI = 12,
  31:src/kernel/interrupt/interrupt_cpp.cpp ****     PFW = 15
  32:src/kernel/interrupt/interrupt_cpp.cpp **** };
  33:src/kernel/interrupt/interrupt_cpp.cpp **** 
  34:src/kernel/interrupt/interrupt_cpp.cpp **** void timer_handler()
  35:src/kernel/interrupt/interrupt_cpp.cpp **** {
  15              		.loc 1 35 1
  16              		.cfi_startproc
  17 0000 130101FD 		addi	sp,sp,-48
  18              		.cfi_def_cfa_offset 48
  19 0004 23341102 		sd	ra,40(sp)
  20 0008 23308102 		sd	s0,32(sp)
  21 000c 233C9100 		sd	s1,24(sp)
  22 0010 23382101 		sd	s2,16(sp)
  23              		.cfi_offset 1, -8
GAS LISTING /tmp/ccce4vZ9.s 			page 2


  24              		.cfi_offset 8, -16
  25              		.cfi_offset 9, -24
  26              		.cfi_offset 18, -32
  27 0014 13040103 		addi	s0,sp,48
  28              		.cfi_def_cfa 8, 0
  36:src/kernel/interrupt/interrupt_cpp.cpp ****     Scheduler::update_sleep();
  29              		.loc 1 36 5
  30              		.loc 1 36 28 is_stmt 0
  31 0018 97000000 		call	_ZN9Scheduler12update_sleepEv
  31      E7800000 
  32              	.LVL0:
  37:src/kernel/interrupt/interrupt_cpp.cpp **** 
  38:src/kernel/interrupt/interrupt_cpp.cpp ****     //uvecavanje vremena koriscenja procesora tekuceg thread
  39:src/kernel/interrupt/interrupt_cpp.cpp ****     TCB::timeSliceCounter++;
  33              		.loc 1 39 5 is_stmt 1
  34              		.loc 1 39 26 is_stmt 0
  35 0020 17070000 		lla	a4,_ZN3TCB16timeSliceCounterE
  35      13070700 
  36 0028 83370700 		ld	a5,0(a4)
  37 002c 93871700 		addi	a5,a5,1
  38 0030 2330F700 		sd	a5,0(a4)
  40:src/kernel/interrupt/interrupt_cpp.cpp ****     
  41:src/kernel/interrupt/interrupt_cpp.cpp ****     if(TCB::timeSliceCounter >= TCB::running->getTimeSlice())
  39              		.loc 1 41 5 is_stmt 1
  40              	.LBB128:
  41              		.loc 1 41 59 is_stmt 0
  42 0034 17070000 		lla	a4,_ZN3TCB7runningE
  42      13070700 
  43 003c 03370700 		ld	a4,0(a4)
  44              	.LVL1:
  45              	.LBB129:
  46              	.LBB130:
  47              		.file 2 "src/kernel/interrupt/../../../h/../h/tcb.hpp"
   1:src/kernel/interrupt/../../../h/../h/tcb.hpp **** #ifndef __tcb__h
   2:src/kernel/interrupt/../../../h/../h/tcb.hpp **** #define __tcb__h
   3:src/kernel/interrupt/../../../h/../h/tcb.hpp **** 
   4:src/kernel/interrupt/../../../h/../h/tcb.hpp **** #include"../h/memory_allocator.hpp"
   5:src/kernel/interrupt/../../../h/../h/tcb.hpp **** #include"../h/slab_allocator.h"
   6:src/kernel/interrupt/../../../h/../h/tcb.hpp **** #include "object_cache.h"
   7:src/kernel/interrupt/../../../h/../h/tcb.hpp **** 
   8:src/kernel/interrupt/../../../h/../h/tcb.hpp **** class KSemaphore;
   9:src/kernel/interrupt/../../../h/../h/tcb.hpp **** 
  10:src/kernel/interrupt/../../../h/../h/tcb.hpp **** /* THREAD CONTROL BLOCK */
  11:src/kernel/interrupt/../../../h/../h/tcb.hpp **** class TCB{ 
  12:src/kernel/interrupt/../../../h/../h/tcb.hpp ****     
  13:src/kernel/interrupt/../../../h/../h/tcb.hpp **** public:
  14:src/kernel/interrupt/../../../h/../h/tcb.hpp ****     //alokacija
  15:src/kernel/interrupt/../../../h/../h/tcb.hpp ****     //#include"../h/kernel_operators.hpp"
  16:src/kernel/interrupt/../../../h/../h/tcb.hpp ****     
  17:src/kernel/interrupt/../../../h/../h/tcb.hpp ****     void* operator new(size_t sz); 
  18:src/kernel/interrupt/../../../h/../h/tcb.hpp ****     void* operator new[](size_t sz);
  19:src/kernel/interrupt/../../../h/../h/tcb.hpp ****     void operator delete(void* ptr);
  20:src/kernel/interrupt/../../../h/../h/tcb.hpp ****     void operator delete[](void* ptr);
  21:src/kernel/interrupt/../../../h/../h/tcb.hpp **** 
  22:src/kernel/interrupt/../../../h/../h/tcb.hpp ****     using Body = void (*)(void*);
  23:src/kernel/interrupt/../../../h/../h/tcb.hpp ****     enum TCBState{
  24:src/kernel/interrupt/../../../h/../h/tcb.hpp ****         BLOCKED,
GAS LISTING /tmp/ccce4vZ9.s 			page 3


  25:src/kernel/interrupt/../../../h/../h/tcb.hpp ****         READY,
  26:src/kernel/interrupt/../../../h/../h/tcb.hpp ****         FINISHED,
  27:src/kernel/interrupt/../../../h/../h/tcb.hpp ****         SLEEPING,
  28:src/kernel/interrupt/../../../h/../h/tcb.hpp ****         PREPARING
  29:src/kernel/interrupt/../../../h/../h/tcb.hpp ****     };
  30:src/kernel/interrupt/../../../h/../h/tcb.hpp ****     
  31:src/kernel/interrupt/../../../h/../h/tcb.hpp ****     ~TCB(){ 
  32:src/kernel/interrupt/../../../h/../h/tcb.hpp ****         if(isKernelThread()){
  33:src/kernel/interrupt/../../../h/../h/tcb.hpp ****             SlabAllocator::getInstance().kfree(this->stack);
  34:src/kernel/interrupt/../../../h/../h/tcb.hpp ****         }
  35:src/kernel/interrupt/../../../h/../h/tcb.hpp ****         else{
  36:src/kernel/interrupt/../../../h/../h/tcb.hpp ****             MemoryAllocator& allocator = MemoryAllocator::getInstance(); 
  37:src/kernel/interrupt/../../../h/../h/tcb.hpp ****             allocator.mem_free(this->stack);
  38:src/kernel/interrupt/../../../h/../h/tcb.hpp ****         }
  39:src/kernel/interrupt/../../../h/../h/tcb.hpp ****     }
  40:src/kernel/interrupt/../../../h/../h/tcb.hpp ****     
  41:src/kernel/interrupt/../../../h/../h/tcb.hpp ****     //nestaticki metodi
  42:src/kernel/interrupt/../../../h/../h/tcb.hpp ****     void setState(TCBState s) {state = s;}
  43:src/kernel/interrupt/../../../h/../h/tcb.hpp ****     TCBState getState() const{ return state; }
  44:src/kernel/interrupt/../../../h/../h/tcb.hpp ****     void finish() { state = FINISHED; }
  45:src/kernel/interrupt/../../../h/../h/tcb.hpp ****     bool isFinished(){ return state == FINISHED; }
  46:src/kernel/interrupt/../../../h/../h/tcb.hpp ****     uint64 getTimeSlice() const { return timeSlice; }
  48              		.loc 2 46 35 is_stmt 1
  49              		.loc 2 46 42 is_stmt 0
  50 0040 03378702 		ld	a4,40(a4)
  51              	.LVL2:
  52              	.LBE130:
  53              	.LBE129:
  54              		.loc 1 41 5
  55 0044 63F2E702 		bgeu	a5,a4,.L4
  56              	.L2:
  57              	.LBE128:
  42:src/kernel/interrupt/interrupt_cpp.cpp ****     {
  43:src/kernel/interrupt/interrupt_cpp.cpp ****         uint64 sstatus = Riscv::r_sstatus(),
  44:src/kernel/interrupt/interrupt_cpp.cpp ****         sepc = Riscv::r_sepc();
  45:src/kernel/interrupt/interrupt_cpp.cpp ****         
  46:src/kernel/interrupt/interrupt_cpp.cpp ****         TCB::timeSliceCounter = 0;
  47:src/kernel/interrupt/interrupt_cpp.cpp ****         
  48:src/kernel/interrupt/interrupt_cpp.cpp ****         TCB::yield();
  49:src/kernel/interrupt/interrupt_cpp.cpp **** 
  50:src/kernel/interrupt/interrupt_cpp.cpp ****         Riscv::w_sstatus(sstatus);
  51:src/kernel/interrupt/interrupt_cpp.cpp ****         Riscv::w_sepc(sepc);
  52:src/kernel/interrupt/interrupt_cpp.cpp ****     } 
  53:src/kernel/interrupt/interrupt_cpp.cpp **** 
  54:src/kernel/interrupt/interrupt_cpp.cpp ****     
  55:src/kernel/interrupt/interrupt_cpp.cpp ****     Riscv::mc_sip(Riscv::SIP_SSIE);
  58              		.loc 1 55 5 is_stmt 1
  59              	.LVL3:
  60              	.LBB140:
  61              	.LBB141:
  62              		.file 3 "src/kernel/interrupt/../../../h/../h/riscv.hpp"
   1:src/kernel/interrupt/../../../h/../h/riscv.hpp **** #ifndef __riscv__
   2:src/kernel/interrupt/../../../h/../h/riscv.hpp **** #define __riscv__
   3:src/kernel/interrupt/../../../h/../h/riscv.hpp **** 
   4:src/kernel/interrupt/../../../h/../h/riscv.hpp **** #include"../lib/hw.h"
   5:src/kernel/interrupt/../../../h/../h/riscv.hpp **** 
   6:src/kernel/interrupt/../../../h/../h/riscv.hpp **** class Riscv{
GAS LISTING /tmp/ccce4vZ9.s 			page 4


   7:src/kernel/interrupt/../../../h/../h/riscv.hpp **** public:
   8:src/kernel/interrupt/../../../h/../h/riscv.hpp **** /* 
   9:src/kernel/interrupt/../../../h/../h/riscv.hpp **** --------------------SUPERVISOR REGISTERS--------------------    
  10:src/kernel/interrupt/../../../h/../h/riscv.hpp **** */
  11:src/kernel/interrupt/../../../h/../h/riscv.hpp ****     static void w_scause(uint64);
  12:src/kernel/interrupt/../../../h/../h/riscv.hpp ****     static uint64 r_scause(); 
  13:src/kernel/interrupt/../../../h/../h/riscv.hpp **** 
  14:src/kernel/interrupt/../../../h/../h/riscv.hpp ****     static void w_sepc(uint64);
  15:src/kernel/interrupt/../../../h/../h/riscv.hpp ****     static uint64 r_sepc();
  16:src/kernel/interrupt/../../../h/../h/riscv.hpp ****     static void ni_sepc();
  17:src/kernel/interrupt/../../../h/../h/riscv.hpp **** 
  18:src/kernel/interrupt/../../../h/../h/riscv.hpp ****     static void w_stvec(uint64);
  19:src/kernel/interrupt/../../../h/../h/riscv.hpp ****     static uint64 r_stvec();
  20:src/kernel/interrupt/../../../h/../h/riscv.hpp ****      
  21:src/kernel/interrupt/../../../h/../h/riscv.hpp ****     static void w_stval(uint64);
  22:src/kernel/interrupt/../../../h/../h/riscv.hpp ****     static uint64 r_stval();
  23:src/kernel/interrupt/../../../h/../h/riscv.hpp **** 
  24:src/kernel/interrupt/../../../h/../h/riscv.hpp ****     static void w_satp(uint64);
  25:src/kernel/interrupt/../../../h/../h/riscv.hpp ****     static uint64 r_satp();
  26:src/kernel/interrupt/../../../h/../h/riscv.hpp ****     
  27:src/kernel/interrupt/../../../h/../h/riscv.hpp ****     enum BitMaskSip{
  28:src/kernel/interrupt/../../../h/../h/riscv.hpp ****         SIP_SSIE = (1<<1),
  29:src/kernel/interrupt/../../../h/../h/riscv.hpp ****         SIP_STIE = (1<<5),
  30:src/kernel/interrupt/../../../h/../h/riscv.hpp ****         SIP_SEIE = (1<<9),
  31:src/kernel/interrupt/../../../h/../h/riscv.hpp ****     };
  32:src/kernel/interrupt/../../../h/../h/riscv.hpp **** 
  33:src/kernel/interrupt/../../../h/../h/riscv.hpp ****     static void ms_sip(uint64);
  34:src/kernel/interrupt/../../../h/../h/riscv.hpp ****     static void mc_sip(uint64);
  35:src/kernel/interrupt/../../../h/../h/riscv.hpp **** 
  36:src/kernel/interrupt/../../../h/../h/riscv.hpp ****     static void w_sip(uint64);
  37:src/kernel/interrupt/../../../h/../h/riscv.hpp ****     static uint64 r_sip();
  38:src/kernel/interrupt/../../../h/../h/riscv.hpp **** 
  39:src/kernel/interrupt/../../../h/../h/riscv.hpp ****     static void ms_sie(uint64);
  40:src/kernel/interrupt/../../../h/../h/riscv.hpp ****     static void mc_sie(uint64);
  41:src/kernel/interrupt/../../../h/../h/riscv.hpp **** 
  42:src/kernel/interrupt/../../../h/../h/riscv.hpp ****     static void w_sie(uint64);
  43:src/kernel/interrupt/../../../h/../h/riscv.hpp ****     static uint64 r_sie();
  44:src/kernel/interrupt/../../../h/../h/riscv.hpp **** 
  45:src/kernel/interrupt/../../../h/../h/riscv.hpp ****     enum BitMaskSstatus{
  46:src/kernel/interrupt/../../../h/../h/riscv.hpp ****         SSTATUS_SIE = (1<<1),
  47:src/kernel/interrupt/../../../h/../h/riscv.hpp ****         SSTATUS_SPIE = (1<<5),
  48:src/kernel/interrupt/../../../h/../h/riscv.hpp ****         SSTATUS_SPP = (1<<8),
  49:src/kernel/interrupt/../../../h/../h/riscv.hpp ****         SSTATUS_SUM = (1<<18),
  50:src/kernel/interrupt/../../../h/../h/riscv.hpp ****     };
  51:src/kernel/interrupt/../../../h/../h/riscv.hpp **** 
  52:src/kernel/interrupt/../../../h/../h/riscv.hpp ****     static void ms_sstatus(uint64);
  53:src/kernel/interrupt/../../../h/../h/riscv.hpp ****     static void mc_sstatus(uint64);
  54:src/kernel/interrupt/../../../h/../h/riscv.hpp **** 
  55:src/kernel/interrupt/../../../h/../h/riscv.hpp ****     static void w_sstatus(uint64);
  56:src/kernel/interrupt/../../../h/../h/riscv.hpp ****     static uint64 r_sstatus();
  57:src/kernel/interrupt/../../../h/../h/riscv.hpp **** 
  58:src/kernel/interrupt/../../../h/../h/riscv.hpp **** /* 
  59:src/kernel/interrupt/../../../h/../h/riscv.hpp **** --------------------CLASSIC REGISTERS--------------------    
  60:src/kernel/interrupt/../../../h/../h/riscv.hpp **** */
  61:src/kernel/interrupt/../../../h/../h/riscv.hpp ****     static uint64 r_sp();
  62:src/kernel/interrupt/../../../h/../h/riscv.hpp ****     static uint64 r_a0(); /* parameter registers */
  63:src/kernel/interrupt/../../../h/../h/riscv.hpp ****     static uint64 s_a0(uint64 a0);
GAS LISTING /tmp/ccce4vZ9.s 			page 5


  64:src/kernel/interrupt/../../../h/../h/riscv.hpp ****     static uint64 r_a1();
  65:src/kernel/interrupt/../../../h/../h/riscv.hpp ****     static uint64 r_a2();
  66:src/kernel/interrupt/../../../h/../h/riscv.hpp ****     static uint64 r_a3();
  67:src/kernel/interrupt/../../../h/../h/riscv.hpp ****     static uint64 r_a4();
  68:src/kernel/interrupt/../../../h/../h/riscv.hpp **** 
  69:src/kernel/interrupt/../../../h/../h/riscv.hpp ****     static void popRegisters(); /* pop all context registers */
  70:src/kernel/interrupt/../../../h/../h/riscv.hpp ****     static void pushRegisters(); /* push all context registers */
  71:src/kernel/interrupt/../../../h/../h/riscv.hpp ****  
  72:src/kernel/interrupt/../../../h/../h/riscv.hpp ****     static void popSppSpie(); /* jump from kernel to start of thread */
  73:src/kernel/interrupt/../../../h/../h/riscv.hpp **** 
  74:src/kernel/interrupt/../../../h/../h/riscv.hpp **** /* 
  75:src/kernel/interrupt/../../../h/../h/riscv.hpp **** --------------------CONSOLE REGISTERS--------------------    
  76:src/kernel/interrupt/../../../h/../h/riscv.hpp **** */
  77:src/kernel/interrupt/../../../h/../h/riscv.hpp ****     static void mc_cstatus(uint64 mask); 
  78:src/kernel/interrupt/../../../h/../h/riscv.hpp ****     static bool cstatus_ready(uint64 mask);
  79:src/kernel/interrupt/../../../h/../h/riscv.hpp **** };
  80:src/kernel/interrupt/../../../h/../h/riscv.hpp **** 
  81:src/kernel/interrupt/../../../h/../h/riscv.hpp **** /* 
  82:src/kernel/interrupt/../../../h/../h/riscv.hpp **** --------------------CLASSIC REGISTERS--------------------    
  83:src/kernel/interrupt/../../../h/../h/riscv.hpp **** */
  84:src/kernel/interrupt/../../../h/../h/riscv.hpp **** 
  85:src/kernel/interrupt/../../../h/../h/riscv.hpp **** inline uint64 Riscv::r_sp(){
  86:src/kernel/interrupt/../../../h/../h/riscv.hpp ****     uint64 a0;
  87:src/kernel/interrupt/../../../h/../h/riscv.hpp ****     asm volatile("mv %0, sp" : "=r" (a0));
  88:src/kernel/interrupt/../../../h/../h/riscv.hpp ****     return a0;
  89:src/kernel/interrupt/../../../h/../h/riscv.hpp **** }
  90:src/kernel/interrupt/../../../h/../h/riscv.hpp **** 
  91:src/kernel/interrupt/../../../h/../h/riscv.hpp **** inline uint64 Riscv::r_a0(){
  92:src/kernel/interrupt/../../../h/../h/riscv.hpp ****     uint64 a0;
  93:src/kernel/interrupt/../../../h/../h/riscv.hpp ****     asm volatile("mv %0, a0" : "=r" (a0));
  94:src/kernel/interrupt/../../../h/../h/riscv.hpp ****     return a0;
  95:src/kernel/interrupt/../../../h/../h/riscv.hpp **** }
  96:src/kernel/interrupt/../../../h/../h/riscv.hpp **** 
  97:src/kernel/interrupt/../../../h/../h/riscv.hpp **** inline uint64 Riscv::r_a1(){
  98:src/kernel/interrupt/../../../h/../h/riscv.hpp ****     uint64 a0;
  99:src/kernel/interrupt/../../../h/../h/riscv.hpp ****     asm volatile("mv %0, a1" : "=r" (a0));
 100:src/kernel/interrupt/../../../h/../h/riscv.hpp ****     return a0;
 101:src/kernel/interrupt/../../../h/../h/riscv.hpp **** }
 102:src/kernel/interrupt/../../../h/../h/riscv.hpp **** 
 103:src/kernel/interrupt/../../../h/../h/riscv.hpp **** inline uint64 Riscv::r_a2(){
 104:src/kernel/interrupt/../../../h/../h/riscv.hpp ****     uint64 a0;
 105:src/kernel/interrupt/../../../h/../h/riscv.hpp ****     asm volatile("mv %0, a2" : "=r" (a0));
 106:src/kernel/interrupt/../../../h/../h/riscv.hpp ****     return a0;
 107:src/kernel/interrupt/../../../h/../h/riscv.hpp **** }
 108:src/kernel/interrupt/../../../h/../h/riscv.hpp **** 
 109:src/kernel/interrupt/../../../h/../h/riscv.hpp **** inline uint64 Riscv::r_a3(){
 110:src/kernel/interrupt/../../../h/../h/riscv.hpp ****     uint64 a0;
 111:src/kernel/interrupt/../../../h/../h/riscv.hpp ****     asm volatile("mv %0, a3" : "=r" (a0));
 112:src/kernel/interrupt/../../../h/../h/riscv.hpp ****     return a0;
 113:src/kernel/interrupt/../../../h/../h/riscv.hpp **** }
 114:src/kernel/interrupt/../../../h/../h/riscv.hpp **** 
 115:src/kernel/interrupt/../../../h/../h/riscv.hpp **** inline uint64 Riscv::r_a4(){
 116:src/kernel/interrupt/../../../h/../h/riscv.hpp ****     uint64 a0;
 117:src/kernel/interrupt/../../../h/../h/riscv.hpp ****     asm volatile("mv %0, a4" : "=r" (a0));
 118:src/kernel/interrupt/../../../h/../h/riscv.hpp ****     return a0;
 119:src/kernel/interrupt/../../../h/../h/riscv.hpp **** }
 120:src/kernel/interrupt/../../../h/../h/riscv.hpp **** 
GAS LISTING /tmp/ccce4vZ9.s 			page 6


 121:src/kernel/interrupt/../../../h/../h/riscv.hpp **** 
 122:src/kernel/interrupt/../../../h/../h/riscv.hpp **** inline uint64 Riscv::s_a0(uint64 a0){
 123:src/kernel/interrupt/../../../h/../h/riscv.hpp ****     return a0;
 124:src/kernel/interrupt/../../../h/../h/riscv.hpp **** }
 125:src/kernel/interrupt/../../../h/../h/riscv.hpp **** 
 126:src/kernel/interrupt/../../../h/../h/riscv.hpp **** /* 
 127:src/kernel/interrupt/../../../h/../h/riscv.hpp **** --------------------SUPERVISOR REGISTERS--------------------    
 128:src/kernel/interrupt/../../../h/../h/riscv.hpp **** */
 129:src/kernel/interrupt/../../../h/../h/riscv.hpp **** 
 130:src/kernel/interrupt/../../../h/../h/riscv.hpp **** inline void Riscv::w_scause(uint64 scause){
 131:src/kernel/interrupt/../../../h/../h/riscv.hpp ****     asm volatile("csrw scause, %0" : : "r" (scause));
 132:src/kernel/interrupt/../../../h/../h/riscv.hpp **** }
 133:src/kernel/interrupt/../../../h/../h/riscv.hpp **** 
 134:src/kernel/interrupt/../../../h/../h/riscv.hpp **** inline uint64 Riscv::r_scause(){
 135:src/kernel/interrupt/../../../h/../h/riscv.hpp ****     uint64 volatile scause;
 136:src/kernel/interrupt/../../../h/../h/riscv.hpp ****     asm volatile("csrr %0, scause" : "=r" (scause));
 137:src/kernel/interrupt/../../../h/../h/riscv.hpp ****     return scause;
 138:src/kernel/interrupt/../../../h/../h/riscv.hpp **** } 
 139:src/kernel/interrupt/../../../h/../h/riscv.hpp **** 
 140:src/kernel/interrupt/../../../h/../h/riscv.hpp **** inline void Riscv::w_sepc(uint64 sepc){
 141:src/kernel/interrupt/../../../h/../h/riscv.hpp ****     asm volatile("csrw sepc, %0" : : "r" (sepc));
 142:src/kernel/interrupt/../../../h/../h/riscv.hpp **** }
 143:src/kernel/interrupt/../../../h/../h/riscv.hpp **** 
 144:src/kernel/interrupt/../../../h/../h/riscv.hpp **** inline uint64 Riscv::r_sepc(){
 145:src/kernel/interrupt/../../../h/../h/riscv.hpp ****     uint64 volatile sepc;
 146:src/kernel/interrupt/../../../h/../h/riscv.hpp ****     asm volatile("csrr %0, sepc" : "=r" (sepc));
 147:src/kernel/interrupt/../../../h/../h/riscv.hpp ****     return sepc;
 148:src/kernel/interrupt/../../../h/../h/riscv.hpp **** } 
 149:src/kernel/interrupt/../../../h/../h/riscv.hpp **** 
 150:src/kernel/interrupt/../../../h/../h/riscv.hpp **** inline void Riscv::w_stvec(uint64 stvec){
 151:src/kernel/interrupt/../../../h/../h/riscv.hpp ****     asm volatile("csrw stvec, %0" : : "r" (stvec));
 152:src/kernel/interrupt/../../../h/../h/riscv.hpp **** }
 153:src/kernel/interrupt/../../../h/../h/riscv.hpp **** 
 154:src/kernel/interrupt/../../../h/../h/riscv.hpp **** inline uint64 Riscv::r_stvec(){
 155:src/kernel/interrupt/../../../h/../h/riscv.hpp ****     uint64 volatile stvec;
 156:src/kernel/interrupt/../../../h/../h/riscv.hpp ****     asm volatile("csrr %0, stvec" : "=r" (stvec));
 157:src/kernel/interrupt/../../../h/../h/riscv.hpp ****     return stvec;
 158:src/kernel/interrupt/../../../h/../h/riscv.hpp **** } 
 159:src/kernel/interrupt/../../../h/../h/riscv.hpp **** 
 160:src/kernel/interrupt/../../../h/../h/riscv.hpp **** inline void Riscv::w_stval(uint64 stval){
 161:src/kernel/interrupt/../../../h/../h/riscv.hpp ****     asm volatile("csrw stval, %0" : : "r" (stval));
 162:src/kernel/interrupt/../../../h/../h/riscv.hpp **** }
 163:src/kernel/interrupt/../../../h/../h/riscv.hpp **** 
 164:src/kernel/interrupt/../../../h/../h/riscv.hpp **** inline uint64 Riscv::r_stval(){
 165:src/kernel/interrupt/../../../h/../h/riscv.hpp ****     uint64 volatile stval;
 166:src/kernel/interrupt/../../../h/../h/riscv.hpp ****     asm volatile("csrr %0, stval" : "=r" (stval));
 167:src/kernel/interrupt/../../../h/../h/riscv.hpp ****     return stval;
 168:src/kernel/interrupt/../../../h/../h/riscv.hpp **** } 
 169:src/kernel/interrupt/../../../h/../h/riscv.hpp **** 
 170:src/kernel/interrupt/../../../h/../h/riscv.hpp **** inline void Riscv::ms_sip(uint64 mask){
 171:src/kernel/interrupt/../../../h/../h/riscv.hpp ****     asm volatile ("csrs sip, %0" : : "r" (mask));
 172:src/kernel/interrupt/../../../h/../h/riscv.hpp **** }
 173:src/kernel/interrupt/../../../h/../h/riscv.hpp **** 
 174:src/kernel/interrupt/../../../h/../h/riscv.hpp **** inline void Riscv::mc_sip(uint64 mask){
 175:src/kernel/interrupt/../../../h/../h/riscv.hpp ****     asm volatile ("csrc sip, %0" : : "r" (mask));
  63              		.loc 3 175 5
  64              		.loc 3 175 49 is_stmt 0
GAS LISTING /tmp/ccce4vZ9.s 			page 7


  65 0048 93072000 		li	a5,2
  66              	 #APP
  67              	# 175 "src/kernel/interrupt/../../../h/../h/riscv.hpp" 1
 176              	}
  68              		csrc sip, a5
  69              	# 0 "" 2
  70              	.LVL4:
  71              	 #NO_APP
  72              	.LBE141:
  73              	.LBE140:
  56:src/kernel/interrupt/interrupt_cpp.cpp **** }
  74              		.loc 1 56 1
  75 0050 83308102 		ld	ra,40(sp)
  76              		.cfi_remember_state
  77              		.cfi_restore 1
  78 0054 03340102 		ld	s0,32(sp)
  79              		.cfi_restore 8
  80              		.cfi_def_cfa 2, 48
  81 0058 83348101 		ld	s1,24(sp)
  82              		.cfi_restore 9
  83 005c 03390101 		ld	s2,16(sp)
  84              		.cfi_restore 18
  85 0060 13010103 		addi	sp,sp,48
  86              		.cfi_def_cfa_offset 0
  87 0064 67800000 		jr	ra
  88              	.L4:
  89              		.cfi_restore_state
  90              	.LBB142:
  91              	.LBB131:
  43:src/kernel/interrupt/interrupt_cpp.cpp ****         sepc = Riscv::r_sepc();
  92              		.loc 1 43 9 is_stmt 1
  93              	.LBB132:
  94              	.LBB133:
 177:src/kernel/interrupt/../../../h/../h/riscv.hpp **** 
 178:src/kernel/interrupt/../../../h/../h/riscv.hpp **** inline void Riscv::w_sip(uint64 sip){
 179:src/kernel/interrupt/../../../h/../h/riscv.hpp ****     asm volatile("csrw sip, %0" : : "r" (sip));
 180:src/kernel/interrupt/../../../h/../h/riscv.hpp **** }
 181:src/kernel/interrupt/../../../h/../h/riscv.hpp **** 
 182:src/kernel/interrupt/../../../h/../h/riscv.hpp **** inline uint64 Riscv::r_sip(){
 183:src/kernel/interrupt/../../../h/../h/riscv.hpp ****     uint64 volatile sip;
 184:src/kernel/interrupt/../../../h/../h/riscv.hpp ****     asm volatile("csrr %0, sip" : "=r" (sip));
 185:src/kernel/interrupt/../../../h/../h/riscv.hpp ****     return sip;
 186:src/kernel/interrupt/../../../h/../h/riscv.hpp **** } 
 187:src/kernel/interrupt/../../../h/../h/riscv.hpp **** 
 188:src/kernel/interrupt/../../../h/../h/riscv.hpp **** inline void Riscv::ms_sie(uint64 mask){
 189:src/kernel/interrupt/../../../h/../h/riscv.hpp ****     asm volatile ("csrs sie, %0" : : "r" (mask));
 190:src/kernel/interrupt/../../../h/../h/riscv.hpp **** }
 191:src/kernel/interrupt/../../../h/../h/riscv.hpp **** 
 192:src/kernel/interrupt/../../../h/../h/riscv.hpp **** inline void Riscv::mc_sie(uint64 mask){
 193:src/kernel/interrupt/../../../h/../h/riscv.hpp ****     asm volatile ("csrc sie, %0" : : "r" (mask));
 194:src/kernel/interrupt/../../../h/../h/riscv.hpp **** }
 195:src/kernel/interrupt/../../../h/../h/riscv.hpp **** 
 196:src/kernel/interrupt/../../../h/../h/riscv.hpp **** inline void Riscv::w_sie(uint64 sie){
 197:src/kernel/interrupt/../../../h/../h/riscv.hpp ****     asm volatile("csrw sie, %0" : : "r" (sie));
 198:src/kernel/interrupt/../../../h/../h/riscv.hpp **** }
 199:src/kernel/interrupt/../../../h/../h/riscv.hpp **** 
 200:src/kernel/interrupt/../../../h/../h/riscv.hpp **** inline uint64 Riscv::r_sie(){
GAS LISTING /tmp/ccce4vZ9.s 			page 8


 201:src/kernel/interrupt/../../../h/../h/riscv.hpp ****     uint64 volatile sie;
 202:src/kernel/interrupt/../../../h/../h/riscv.hpp ****     asm volatile("csrr %0, sie" : "=r" (sie));
 203:src/kernel/interrupt/../../../h/../h/riscv.hpp ****     return sie;
 204:src/kernel/interrupt/../../../h/../h/riscv.hpp **** } 
 205:src/kernel/interrupt/../../../h/../h/riscv.hpp **** 
 206:src/kernel/interrupt/../../../h/../h/riscv.hpp **** inline void Riscv::ms_sstatus(uint64 mask){
 207:src/kernel/interrupt/../../../h/../h/riscv.hpp ****     asm volatile ("csrs sstatus, %0" : : "r" (mask));
 208:src/kernel/interrupt/../../../h/../h/riscv.hpp **** }
 209:src/kernel/interrupt/../../../h/../h/riscv.hpp **** 
 210:src/kernel/interrupt/../../../h/../h/riscv.hpp **** inline void Riscv::mc_sstatus(uint64 mask){
 211:src/kernel/interrupt/../../../h/../h/riscv.hpp ****     asm volatile ("csrc sstatus, %0" : : "r" (mask));
 212:src/kernel/interrupt/../../../h/../h/riscv.hpp **** }
 213:src/kernel/interrupt/../../../h/../h/riscv.hpp **** 
 214:src/kernel/interrupt/../../../h/../h/riscv.hpp **** inline void Riscv::w_sstatus(uint64 sstatus){
 215:src/kernel/interrupt/../../../h/../h/riscv.hpp ****     asm volatile("csrw sstatus, %0" : : "r" (sstatus));
 216:src/kernel/interrupt/../../../h/../h/riscv.hpp **** }
 217:src/kernel/interrupt/../../../h/../h/riscv.hpp **** 
 218:src/kernel/interrupt/../../../h/../h/riscv.hpp **** inline uint64 Riscv::r_sstatus(){
 219:src/kernel/interrupt/../../../h/../h/riscv.hpp ****     uint64 volatile sstatus;
  95              		.loc 3 219 5
 220:src/kernel/interrupt/../../../h/../h/riscv.hpp ****     asm volatile("csrr %0, sstatus" : "=r" (sstatus));
  96              		.loc 3 220 5
  97              		.loc 3 220 54 is_stmt 0
  98              	 #APP
  99              	# 220 "src/kernel/interrupt/../../../h/../h/riscv.hpp" 1
 221              	    return sstatus;
 100              		csrr a5, sstatus
 101              	# 0 "" 2
 102              	 #NO_APP
 103 006c 233CF4FC 		sd	a5,-40(s0)
 104              		.loc 3 221 5 is_stmt 1
 105              		.loc 3 221 12 is_stmt 0
 106 0070 033984FD 		ld	s2,-40(s0)
 107              	.LVL5:
 108              	.LBE133:
 109              	.LBE132:
 110              	.LBB134:
 111              	.LBB135:
 145:src/kernel/interrupt/../../../h/../h/riscv.hpp ****     asm volatile("csrr %0, sepc" : "=r" (sepc));
 112              		.loc 3 145 5 is_stmt 1
 146:src/kernel/interrupt/../../../h/../h/riscv.hpp ****     return sepc;
 113              		.loc 3 146 5
 146:src/kernel/interrupt/../../../h/../h/riscv.hpp ****     return sepc;
 114              		.loc 3 146 48 is_stmt 0
 115              	 #APP
 116              	# 146 "src/kernel/interrupt/../../../h/../h/riscv.hpp" 1
 117              		csrr a5, sepc
 118              	# 0 "" 2
 119              	 #NO_APP
 120 0078 2338F4FC 		sd	a5,-48(s0)
 147:src/kernel/interrupt/../../../h/../h/riscv.hpp **** } 
 121              		.loc 3 147 5 is_stmt 1
 147:src/kernel/interrupt/../../../h/../h/riscv.hpp **** } 
 122              		.loc 3 147 12 is_stmt 0
 123 007c 833404FD 		ld	s1,-48(s0)
 124              	.LVL6:
 125              	.LBE135:
GAS LISTING /tmp/ccce4vZ9.s 			page 9


 126              	.LBE134:
  46:src/kernel/interrupt/interrupt_cpp.cpp ****         
 127              		.loc 1 46 9 is_stmt 1
  46:src/kernel/interrupt/interrupt_cpp.cpp ****         
 128              		.loc 1 46 31 is_stmt 0
 129 0080 97070000 		sd	zero,_ZN3TCB16timeSliceCounterE,a5
 129      23B00700 
  48:src/kernel/interrupt/interrupt_cpp.cpp **** 
 130              		.loc 1 48 9 is_stmt 1
  48:src/kernel/interrupt/interrupt_cpp.cpp **** 
 131              		.loc 1 48 19 is_stmt 0
 132 0088 97000000 		call	_ZN3TCB5yieldEv
 132      E7800000 
 133              	.LVL7:
  50:src/kernel/interrupt/interrupt_cpp.cpp ****         Riscv::w_sepc(sepc);
 134              		.loc 1 50 9 is_stmt 1
 135              	.LBB136:
 136              	.LBB137:
 215:src/kernel/interrupt/../../../h/../h/riscv.hpp **** }
 137              		.loc 3 215 5
 215:src/kernel/interrupt/../../../h/../h/riscv.hpp **** }
 138              		.loc 3 215 55 is_stmt 0
 139              	 #APP
 140              	# 215 "src/kernel/interrupt/../../../h/../h/riscv.hpp" 1
 141              		csrw sstatus, s2
 142              	# 0 "" 2
 143              	.LVL8:
 144              	 #NO_APP
 145              	.LBE137:
 146              	.LBE136:
  51:src/kernel/interrupt/interrupt_cpp.cpp ****     } 
 147              		.loc 1 51 9 is_stmt 1
 148              	.LBB138:
 149              	.LBB139:
 141:src/kernel/interrupt/../../../h/../h/riscv.hpp **** }
 150              		.loc 3 141 5
 141:src/kernel/interrupt/../../../h/../h/riscv.hpp **** }
 151              		.loc 3 141 49 is_stmt 0
 152              	 #APP
 153              	# 141 "src/kernel/interrupt/../../../h/../h/riscv.hpp" 1
 154              		csrw sepc, s1
 155              	# 0 "" 2
 156              	 #NO_APP
 157 0098 6FF01FFB 		j	.L2
 158              	.LBE139:
 159              	.LBE138:
 160              	.LBE131:
 161              	.LBE142:
 162              		.cfi_endproc
 163              	.LFE113:
 165              		.align	2
 166              		.globl	_Z8usrEcallmmmmm
 168              	_Z8usrEcallmmmmm:
 169              	.LFB114:
  57:src/kernel/interrupt/interrupt_cpp.cpp **** 
  58:src/kernel/interrupt/interrupt_cpp.cpp **** volatile uint64 usrEcall(uint64 a0, uint64 a1, uint64 a2, uint64 a3, uint64 a4)
  59:src/kernel/interrupt/interrupt_cpp.cpp **** {
GAS LISTING /tmp/ccce4vZ9.s 			page 10


 170              		.loc 1 59 1 is_stmt 1
 171              		.cfi_startproc
 172              		.cfi_personality 0x9b,DW.ref.__gxx_personality_v0
 173              		.cfi_lsda 0x1b,.LLSDA114
 174              	.LVL9:
 175 009c 130101FB 		addi	sp,sp,-80
 176              		.cfi_def_cfa_offset 80
 177 00a0 23341104 		sd	ra,72(sp)
 178 00a4 23308104 		sd	s0,64(sp)
 179 00a8 233C9102 		sd	s1,56(sp)
 180 00ac 23382103 		sd	s2,48(sp)
 181 00b0 23343103 		sd	s3,40(sp)
 182 00b4 23304103 		sd	s4,32(sp)
 183 00b8 233C5101 		sd	s5,24(sp)
 184 00bc 23386101 		sd	s6,16(sp)
 185              		.cfi_offset 1, -8
 186              		.cfi_offset 8, -16
 187              		.cfi_offset 9, -24
 188              		.cfi_offset 18, -32
 189              		.cfi_offset 19, -40
 190              		.cfi_offset 20, -48
 191              		.cfi_offset 21, -56
 192              		.cfi_offset 22, -64
 193 00c0 13040105 		addi	s0,sp,80
 194              		.cfi_def_cfa 8, 0
 195 00c4 138A0500 		mv	s4,a1
  60:src/kernel/interrupt/interrupt_cpp.cpp ****     uint64 sepc = Riscv::r_sepc()+4, sstatus = Riscv::r_sstatus(), ret = a0;
 196              		.loc 1 60 5
 197              	.LBB180:
 198              	.LBB181:
 145:src/kernel/interrupt/../../../h/../h/riscv.hpp ****     asm volatile("csrr %0, sepc" : "=r" (sepc));
 199              		.loc 3 145 5
 146:src/kernel/interrupt/../../../h/../h/riscv.hpp ****     return sepc;
 200              		.loc 3 146 5
 146:src/kernel/interrupt/../../../h/../h/riscv.hpp ****     return sepc;
 201              		.loc 3 146 48 is_stmt 0
 202              	 #APP
 203              	# 146 "src/kernel/interrupt/../../../h/../h/riscv.hpp" 1
 204              		csrr a5, sepc
 205              	# 0 "" 2
 206              	 #NO_APP
 207 00cc 233CF4FA 		sd	a5,-72(s0)
 147:src/kernel/interrupt/../../../h/../h/riscv.hpp **** } 
 208              		.loc 3 147 5 is_stmt 1
 147:src/kernel/interrupt/../../../h/../h/riscv.hpp **** } 
 209              		.loc 3 147 12 is_stmt 0
 210 00d0 033984FB 		ld	s2,-72(s0)
 211              	.LBE181:
 212              	.LBE180:
 213              		.loc 1 60 35
 214 00d4 13094900 		addi	s2,s2,4
 215              	.LVL10:
 216              	.LBB182:
 217              	.LBB183:
 219:src/kernel/interrupt/../../../h/../h/riscv.hpp ****     asm volatile("csrr %0, sstatus" : "=r" (sstatus));
 218              		.loc 3 219 5 is_stmt 1
 220:src/kernel/interrupt/../../../h/../h/riscv.hpp ****     return sstatus;
GAS LISTING /tmp/ccce4vZ9.s 			page 11


 219              		.loc 3 220 5
 220:src/kernel/interrupt/../../../h/../h/riscv.hpp ****     return sstatus;
 220              		.loc 3 220 54 is_stmt 0
 221              	 #APP
 222              	# 220 "src/kernel/interrupt/../../../h/../h/riscv.hpp" 1
 223              		csrr a5, sstatus
 224              	# 0 "" 2
 225              	 #NO_APP
 226 00dc 2338F4FA 		sd	a5,-80(s0)
 227              		.loc 3 221 5 is_stmt 1
 228              		.loc 3 221 12 is_stmt 0
 229 00e0 833904FB 		ld	s3,-80(s0)
 230              	.LVL11:
 231              	.LBE183:
 232              	.LBE182:
  61:src/kernel/interrupt/interrupt_cpp.cpp **** 
  62:src/kernel/interrupt/interrupt_cpp.cpp ****     if(a0 == MA){
 233              		.loc 1 62 5 is_stmt 1
 234              	.LBB184:
 235 00e4 93071000 		li	a5,1
 236 00e8 6304F50E 		beq	a0,a5,.L32
 237 00ec 93040500 		mv	s1,a0
 238 00f0 930A0600 		mv	s5,a2
 239              	.LBE184:
  63:src/kernel/interrupt/interrupt_cpp.cpp ****         //mem_alloc
  64:src/kernel/interrupt/interrupt_cpp.cpp ****         ret = (uint64)MemoryAllocator::getInstance().mem_alloc(a1);
  65:src/kernel/interrupt/interrupt_cpp.cpp ****         //KCHECKPRINT(ret);
  66:src/kernel/interrupt/interrupt_cpp.cpp ****     }
  67:src/kernel/interrupt/interrupt_cpp.cpp ****     else if(a0 == MF)
 240              		.loc 1 67 10
 241              	.LBB258:
 242              	.LBB185:
 243 00f4 93072000 		li	a5,2
 244 00f8 6302F512 		beq	a0,a5,.L33
 245              	.LBE185:
 246              	.LBE258:
  68:src/kernel/interrupt/interrupt_cpp.cpp ****     {
  69:src/kernel/interrupt/interrupt_cpp.cpp ****         //mem_free
  70:src/kernel/interrupt/interrupt_cpp.cpp ****         // KCHECKPRINT(a1);
  71:src/kernel/interrupt/interrupt_cpp.cpp ****         // MemoryAllocator::getInstance().print_all_list();
  72:src/kernel/interrupt/interrupt_cpp.cpp ****         ret = (uint64)MemoryAllocator::getInstance().mem_free((void*)a1);
  73:src/kernel/interrupt/interrupt_cpp.cpp ****     }
  74:src/kernel/interrupt/interrupt_cpp.cpp ****     else if(a0 == TC)
 247              		.loc 1 74 10
 248              	.LBB259:
 249              	.LBB249:
 250              	.LBB186:
 251 00fc 93071001 		li	a5,17
 252 0100 630CF512 		beq	a0,a5,.L34
 253              	.LBE186:
 254              	.LBE249:
 255              	.LBE259:
  75:src/kernel/interrupt/interrupt_cpp.cpp ****     {
  76:src/kernel/interrupt/interrupt_cpp.cpp ****         //thread_create
  77:src/kernel/interrupt/interrupt_cpp.cpp ****         uint64* t = (uint64*)a1;
  78:src/kernel/interrupt/interrupt_cpp.cpp ****         *t = (uint64)TCB::createThread((TCB::Body)a2, (void*)a3, (uint64*)a4);
  79:src/kernel/interrupt/interrupt_cpp.cpp ****         if(!(*t)) ret = -4;
GAS LISTING /tmp/ccce4vZ9.s 			page 12


  80:src/kernel/interrupt/interrupt_cpp.cpp ****         else ret = 0;
  81:src/kernel/interrupt/interrupt_cpp.cpp ****     }
  82:src/kernel/interrupt/interrupt_cpp.cpp ****     else if(a0 == TE)
 256              		.loc 1 82 10
 257              	.LBB260:
 258              	.LBB250:
 259              	.LBB241:
 260              	.LBB187:
 261 0104 93072001 		li	a5,18
 262 0108 630EF514 		beq	a0,a5,.L35
 263              	.LBE187:
 264              	.LBE241:
 265              	.LBE250:
 266              	.LBE260:
  83:src/kernel/interrupt/interrupt_cpp.cpp ****     {
  84:src/kernel/interrupt/interrupt_cpp.cpp ****         //thread_exit
  85:src/kernel/interrupt/interrupt_cpp.cpp ****         TCB::running->finish();
  86:src/kernel/interrupt/interrupt_cpp.cpp ****         TCB::dispatch();
  87:src/kernel/interrupt/interrupt_cpp.cpp ****     }
  88:src/kernel/interrupt/interrupt_cpp.cpp ****     else if(a0 == TD)
 267              		.loc 1 88 10
 268              	.LBB261:
 269              	.LBB251:
 270              	.LBB242:
 271              	.LBB233:
 272              	.LBB188:
 273 010c 93073001 		li	a5,19
 274 0110 630AF516 		beq	a0,a5,.L36
 275              	.LBE188:
 276              	.LBE233:
 277              	.LBE242:
 278              	.LBE251:
 279              	.LBE261:
  89:src/kernel/interrupt/interrupt_cpp.cpp ****     {
  90:src/kernel/interrupt/interrupt_cpp.cpp ****         //thread_dispatch
  91:src/kernel/interrupt/interrupt_cpp.cpp ****         TCB::timeSliceCounter = 0;
  92:src/kernel/interrupt/interrupt_cpp.cpp ****         TCB::yield();
  93:src/kernel/interrupt/interrupt_cpp.cpp ****     }
  94:src/kernel/interrupt/interrupt_cpp.cpp ****     else if(a0 == DTH)
 280              		.loc 1 94 10
 281              	.LBB262:
 282              	.LBB252:
 283              	.LBB243:
 284              	.LBB234:
 285              	.LBB225:
 286              	.LBB189:
 287 0114 93079006 		li	a5,105
 288 0118 6300F518 		beq	a0,a5,.L37
 289              	.LBE189:
 290              	.LBE225:
 291              	.LBE234:
 292              	.LBE243:
 293              	.LBE252:
 294              	.LBE262:
  95:src/kernel/interrupt/interrupt_cpp.cpp ****     {
  96:src/kernel/interrupt/interrupt_cpp.cpp ****         //delete thread handle
  97:src/kernel/interrupt/interrupt_cpp.cpp ****         // KCHECKPRINT(a1);
GAS LISTING /tmp/ccce4vZ9.s 			page 13


  98:src/kernel/interrupt/interrupt_cpp.cpp ****         TCB::deleteThread((TCB*)a1);
  99:src/kernel/interrupt/interrupt_cpp.cpp ****     }
 100:src/kernel/interrupt/interrupt_cpp.cpp ****     else if(a0 == SO)
 295              		.loc 1 100 10
 296              	.LBB263:
 297              	.LBB253:
 298              	.LBB244:
 299              	.LBB235:
 300              	.LBB226:
 301              	.LBB220:
 302              	.LBB190:
 303 011c 93071002 		li	a5,33
 304 0120 6304F518 		beq	a0,a5,.L38
 305              	.LBE190:
 306              	.LBE220:
 307              	.LBE226:
 308              	.LBE235:
 309              	.LBE244:
 310              	.LBE253:
 311              	.LBE263:
 101:src/kernel/interrupt/interrupt_cpp.cpp ****     {
 102:src/kernel/interrupt/interrupt_cpp.cpp ****         uint64* t = (uint64*)a1;
 103:src/kernel/interrupt/interrupt_cpp.cpp ****         *t = (uint64)(new KSemaphore(a2));
 104:src/kernel/interrupt/interrupt_cpp.cpp ****         if(!(*t)) ret = -2;
 105:src/kernel/interrupt/interrupt_cpp.cpp ****         else ret = 0;
 106:src/kernel/interrupt/interrupt_cpp.cpp ****     }
 107:src/kernel/interrupt/interrupt_cpp.cpp ****     else if(a0 == SC)
 312              		.loc 1 107 10
 313              	.LBB264:
 314              	.LBB254:
 315              	.LBB245:
 316              	.LBB236:
 317              	.LBB227:
 318              	.LBB221:
 319              	.LBB216:
 320              	.LBB191:
 321 0124 93072002 		li	a5,34
 322 0128 6300F524 		beq	a0,a5,.L39
 323              	.LBE191:
 324              	.LBE216:
 325              	.LBE221:
 326              	.LBE227:
 327              	.LBE236:
 328              	.LBE245:
 329              	.LBE254:
 330              	.LBE264:
 108:src/kernel/interrupt/interrupt_cpp.cpp ****     {
 109:src/kernel/interrupt/interrupt_cpp.cpp ****         KSemaphore* t = (KSemaphore*)a1;
 110:src/kernel/interrupt/interrupt_cpp.cpp ****         ret = KSemaphore::close(t);
 111:src/kernel/interrupt/interrupt_cpp.cpp ****     }
 112:src/kernel/interrupt/interrupt_cpp.cpp ****     else if(a0 == SW)
 331              		.loc 1 112 10
 332              	.LBB265:
 333              	.LBB255:
 334              	.LBB246:
 335              	.LBB237:
 336              	.LBB228:
GAS LISTING /tmp/ccce4vZ9.s 			page 14


 337              	.LBB222:
 338              	.LBB217:
 339              	.LBB204:
 340              	.LBB192:
 341 012c 93073002 		li	a5,35
 342 0130 6306F524 		beq	a0,a5,.L40
 343              	.LBE192:
 344              	.LBE204:
 345              	.LBE217:
 346              	.LBE222:
 347              	.LBE228:
 348              	.LBE237:
 349              	.LBE246:
 350              	.LBE255:
 351              	.LBE265:
 113:src/kernel/interrupt/interrupt_cpp.cpp ****     {
 114:src/kernel/interrupt/interrupt_cpp.cpp ****         KSemaphore* t = (KSemaphore*)a1;
 115:src/kernel/interrupt/interrupt_cpp.cpp ****         if(KSemaphore::exists(t))
 116:src/kernel/interrupt/interrupt_cpp.cpp ****             ret = t->wait();
 117:src/kernel/interrupt/interrupt_cpp.cpp ****         else
 118:src/kernel/interrupt/interrupt_cpp.cpp ****             ret = -1;
 119:src/kernel/interrupt/interrupt_cpp.cpp ****     }
 120:src/kernel/interrupt/interrupt_cpp.cpp ****     else if(a0 == SS)
 352              		.loc 1 120 10
 353              	.LBB266:
 354              	.LBB256:
 355              	.LBB247:
 356              	.LBB238:
 357              	.LBB229:
 358              	.LBB223:
 359              	.LBB218:
 360              	.LBB205:
 361              	.LBB201:
 362              	.LBB193:
 363 0134 93074002 		li	a5,36
 364 0138 6308F526 		beq	a0,a5,.L41
 121:src/kernel/interrupt/interrupt_cpp.cpp ****     {
 122:src/kernel/interrupt/interrupt_cpp.cpp ****         KSemaphore* t = (KSemaphore*)a1;
 123:src/kernel/interrupt/interrupt_cpp.cpp ****         if(KSemaphore::exists(t))
 124:src/kernel/interrupt/interrupt_cpp.cpp ****             ret = t->signal();
 125:src/kernel/interrupt/interrupt_cpp.cpp ****         else
 126:src/kernel/interrupt/interrupt_cpp.cpp ****             ret = -1;
 127:src/kernel/interrupt/interrupt_cpp.cpp ****     }
 128:src/kernel/interrupt/interrupt_cpp.cpp ****     else if(a0 == TS)
 365              		.loc 1 128 10
 366 013c 93071003 		li	a5,49
 367 0140 630AF528 		beq	a0,a5,.L42
 129:src/kernel/interrupt/interrupt_cpp.cpp ****     {
 130:src/kernel/interrupt/interrupt_cpp.cpp ****         TCB::sleep(a1);
 131:src/kernel/interrupt/interrupt_cpp.cpp ****     }
 132:src/kernel/interrupt/interrupt_cpp.cpp ****     else if(a0 == GC)
 368              		.loc 1 132 10
 369 0144 93071004 		li	a5,65
 370 0148 630EF528 		beq	a0,a5,.L43
 133:src/kernel/interrupt/interrupt_cpp.cpp ****     {
 134:src/kernel/interrupt/interrupt_cpp.cpp ****         ret = StdIO::ibuffer->get();
 135:src/kernel/interrupt/interrupt_cpp.cpp ****     }
GAS LISTING /tmp/ccce4vZ9.s 			page 15


 136:src/kernel/interrupt/interrupt_cpp.cpp ****     else if(a0 == PC)
 371              		.loc 1 136 10
 372 014c 93072004 		li	a5,66
 373 0150 631CF508 		bne	a0,a5,.L7
 137:src/kernel/interrupt/interrupt_cpp.cpp ****     {
 138:src/kernel/interrupt/interrupt_cpp.cpp ****         StdIO::obuffer->put((char)a1); 
 374              		.loc 1 138 9
 375              		.loc 1 138 28 is_stmt 0
 376 0154 97070000 		lla	a5,_ZN5StdIO7obufferE
 376      93870700 
 377 015c 83BA0700 		ld	s5,0(a5)
 378 0160 13FAF50F 		andi	s4,a1,0xff
 379              	.LVL12:
 380              	.LBB194:
 381              	.LBB195:
 382              		.file 4 "src/kernel/interrupt/../../../h/../h/../h/shared_buffer.hpp"
   1:src/kernel/interrupt/../../../h/../h/../h/shared_buffer.hpp **** #ifndef __shared_buffer__hpp
   2:src/kernel/interrupt/../../../h/../h/../h/shared_buffer.hpp **** #define __shared_buffer__hpp
   3:src/kernel/interrupt/../../../h/../h/../h/shared_buffer.hpp **** 
   4:src/kernel/interrupt/../../../h/../h/../h/shared_buffer.hpp **** #include"../h/ksemaphore.hpp"
   5:src/kernel/interrupt/../../../h/../h/../h/shared_buffer.hpp **** #include "object_cache.h"
   6:src/kernel/interrupt/../../../h/../h/../h/shared_buffer.hpp **** #include "slab_allocator.h"
   7:src/kernel/interrupt/../../../h/../h/../h/shared_buffer.hpp **** 
   8:src/kernel/interrupt/../../../h/../h/../h/shared_buffer.hpp **** template<typename T>
   9:src/kernel/interrupt/../../../h/../h/../h/shared_buffer.hpp **** class SharedBuffer{
  10:src/kernel/interrupt/../../../h/../h/../h/shared_buffer.hpp **** public:
  11:src/kernel/interrupt/../../../h/../h/../h/shared_buffer.hpp ****     static const int BUFFER_SIZE = 1024;
  12:src/kernel/interrupt/../../../h/../h/../h/shared_buffer.hpp **** private:
  13:src/kernel/interrupt/../../../h/../h/../h/shared_buffer.hpp ****     T buffer[BUFFER_SIZE];
  14:src/kernel/interrupt/../../../h/../h/../h/shared_buffer.hpp ****     KSemaphore mutex, itemAvailable, spaceAvailable; 
  15:src/kernel/interrupt/../../../h/../h/../h/shared_buffer.hpp ****     int head, tail;
  16:src/kernel/interrupt/../../../h/../h/../h/shared_buffer.hpp ****     static ObjectCache* cache;
  17:src/kernel/interrupt/../../../h/../h/../h/shared_buffer.hpp **** public: 
  18:src/kernel/interrupt/../../../h/../h/../h/shared_buffer.hpp ****     int tmpLen;
  19:src/kernel/interrupt/../../../h/../h/../h/shared_buffer.hpp ****     //#include"../h/kernel_operators.hpp"
  20:src/kernel/interrupt/../../../h/../h/../h/shared_buffer.hpp ****     
  21:src/kernel/interrupt/../../../h/../h/../h/shared_buffer.hpp ****     __SLAB_ALLOCATION__(SharedBuffer, nullptr, nullptr);
  22:src/kernel/interrupt/../../../h/../h/../h/shared_buffer.hpp ****     
  23:src/kernel/interrupt/../../../h/../h/../h/shared_buffer.hpp ****     SharedBuffer():mutex(1), itemAvailable(0), 
  24:src/kernel/interrupt/../../../h/../h/../h/shared_buffer.hpp ****     spaceAvailable(BUFFER_SIZE), head(0), tail(0), tmpLen(0){}
  25:src/kernel/interrupt/../../../h/../h/../h/shared_buffer.hpp **** 
  26:src/kernel/interrupt/../../../h/../h/../h/shared_buffer.hpp ****     void put(T c){
  27:src/kernel/interrupt/../../../h/../h/../h/shared_buffer.hpp ****         spaceAvailable.wait();
 383              		.loc 4 27 28
 384 0164 13850A45 		addi	a0,s5,1104
 385              	.LVL13:
 386              	.LEHB0:
 387 0168 97000000 		call	_ZN10KSemaphore4waitEv
 387      E7800000 
 388              	.LVL14:
  28:src/kernel/interrupt/../../../h/../h/../h/shared_buffer.hpp ****         mutex.wait();
 389              		.loc 4 28 19
 390 0170 138B0A40 		addi	s6,s5,1024
 391 0174 13050B00 		mv	a0,s6
 392 0178 97000000 		call	_ZN10KSemaphore4waitEv
 392      E7800000 
 393              	.LVL15:
GAS LISTING /tmp/ccce4vZ9.s 			page 16


  29:src/kernel/interrupt/../../../h/../h/../h/shared_buffer.hpp **** 
  30:src/kernel/interrupt/../../../h/../h/../h/shared_buffer.hpp ****         tmpLen++;
 394              		.loc 4 30 9
 395 0180 83A70A48 		lw	a5,1152(s5)
 396 0184 9B871700 		addiw	a5,a5,1
 397 0188 23A0FA48 		sw	a5,1152(s5)
  31:src/kernel/interrupt/../../../h/../h/../h/shared_buffer.hpp ****         buffer[tail]=c;
 398              		.loc 4 31 16
 399 018c 83A7CA47 		lw	a5,1148(s5)
 400              		.loc 4 31 9
 401 0190 3387FA00 		add	a4,s5,a5
 402 0194 23004701 		sb	s4,0(a4)
  32:src/kernel/interrupt/../../../h/../h/../h/shared_buffer.hpp ****         tail=(tail+1)%BUFFER_SIZE;
 403              		.loc 4 32 19
 404 0198 9B871700 		addiw	a5,a5,1
 405              		.loc 4 32 22
 406 019c 1BD7F741 		sraiw	a4,a5,31
 407 01a0 1B576701 		srliw	a4,a4,22
 408 01a4 BB87E700 		addw	a5,a5,a4
 409 01a8 93F7F73F 		andi	a5,a5,1023
 410 01ac BB87E740 		subw	a5,a5,a4
 411              		.loc 4 32 9
 412 01b0 23AEFA46 		sw	a5,1148(s5)
  33:src/kernel/interrupt/../../../h/../h/../h/shared_buffer.hpp ****     
  34:src/kernel/interrupt/../../../h/../h/../h/shared_buffer.hpp ****         itemAvailable.signal();
 413              		.loc 4 34 29
 414 01b4 13858A42 		addi	a0,s5,1064
 415 01b8 97000000 		call	_ZN10KSemaphore6signalEv
 415      E7800000 
 416              	.LVL16:
  35:src/kernel/interrupt/../../../h/../h/../h/shared_buffer.hpp ****         mutex.signal();
 417              		.loc 4 35 21
 418 01c0 13050B00 		mv	a0,s6
 419 01c4 97000000 		call	_ZN10KSemaphore6signalEv
 419      E7800000 
 420              	.LVL17:
 421 01cc 6F00C001 		j	.L7
 422              	.LVL18:
 423              	.L32:
 424              	.LBE195:
 425              	.LBE194:
 426              	.LBE193:
 427              	.LBE201:
 428              	.LBE205:
 429              	.LBE218:
 430              	.LBE223:
 431              	.LBE229:
 432              	.LBE238:
 433              	.LBE247:
 434              	.LBE256:
  64:src/kernel/interrupt/interrupt_cpp.cpp ****         //KCHECKPRINT(ret);
 435              		.loc 1 64 9 is_stmt 1
  64:src/kernel/interrupt/interrupt_cpp.cpp ****         //KCHECKPRINT(ret);
 436              		.loc 1 64 52 is_stmt 0
 437 01d0 97000000 		call	_ZN15MemoryAllocator11getInstanceEv
 437      E7800000 
 438              	.LVL19:
GAS LISTING /tmp/ccce4vZ9.s 			page 17


  64:src/kernel/interrupt/interrupt_cpp.cpp ****         //KCHECKPRINT(ret);
 439              		.loc 1 64 63
 440 01d8 93050A00 		mv	a1,s4
 441 01dc 97000000 		call	_ZN15MemoryAllocator9mem_allocEm
 441      E7800000 
 442              	.LVL20:
 443 01e4 93040500 		mv	s1,a0
 444              	.LVL21:
 445              	.L7:
 446              	.LBE266:
 139:src/kernel/interrupt/interrupt_cpp.cpp ****     }
 140:src/kernel/interrupt/interrupt_cpp.cpp ****     Riscv::w_sstatus(sstatus);
 447              		.loc 1 140 5 is_stmt 1
 448              	.LBB267:
 449              	.LBB268:
 215:src/kernel/interrupt/../../../h/../h/riscv.hpp **** }
 450              		.loc 3 215 5
 215:src/kernel/interrupt/../../../h/../h/riscv.hpp **** }
 451              		.loc 3 215 55 is_stmt 0
 452              	 #APP
 453              	# 215 "src/kernel/interrupt/../../../h/../h/riscv.hpp" 1
 454              		csrw sstatus, s3
 455              	# 0 "" 2
 456              	.LVL22:
 457              	 #NO_APP
 458              	.LBE268:
 459              	.LBE267:
 141:src/kernel/interrupt/interrupt_cpp.cpp ****     Riscv::w_sepc(sepc);
 460              		.loc 1 141 5 is_stmt 1
 461              	.LBB269:
 462              	.LBB270:
 141:src/kernel/interrupt/../../../h/../h/riscv.hpp **** }
 463              		.loc 3 141 5
 141:src/kernel/interrupt/../../../h/../h/riscv.hpp **** }
 464              		.loc 3 141 49 is_stmt 0
 465              	 #APP
 466              	# 141 "src/kernel/interrupt/../../../h/../h/riscv.hpp" 1
 467              		csrw sepc, s2
 468              	# 0 "" 2
 469              	.LVL23:
 470              	 #NO_APP
 471              	.LBE270:
 472              	.LBE269:
 142:src/kernel/interrupt/interrupt_cpp.cpp ****     return ret;
 473              		.loc 1 142 5 is_stmt 1
 143:src/kernel/interrupt/interrupt_cpp.cpp **** }
 474              		.loc 1 143 1 is_stmt 0
 475 01f0 13850400 		mv	a0,s1
 476 01f4 83308104 		ld	ra,72(sp)
 477              		.cfi_remember_state
 478              		.cfi_restore 1
 479 01f8 03340104 		ld	s0,64(sp)
 480              		.cfi_restore 8
 481              		.cfi_def_cfa 2, 80
 482 01fc 83348103 		ld	s1,56(sp)
 483              		.cfi_restore 9
 484              	.LVL24:
GAS LISTING /tmp/ccce4vZ9.s 			page 18


 485 0200 03390103 		ld	s2,48(sp)
 486              		.cfi_restore 18
 487              	.LVL25:
 488 0204 83398102 		ld	s3,40(sp)
 489              		.cfi_restore 19
 490              	.LVL26:
 491 0208 033A0102 		ld	s4,32(sp)
 492              		.cfi_restore 20
 493 020c 833A8101 		ld	s5,24(sp)
 494              		.cfi_restore 21
 495 0210 033B0101 		ld	s6,16(sp)
 496              		.cfi_restore 22
 497 0214 13010105 		addi	sp,sp,80
 498              		.cfi_def_cfa_offset 0
 499 0218 67800000 		jr	ra
 500              	.LVL27:
 501              	.L33:
 502              		.cfi_restore_state
 503              	.LBB271:
 504              	.LBB257:
  72:src/kernel/interrupt/interrupt_cpp.cpp ****     }
 505              		.loc 1 72 9 is_stmt 1
  72:src/kernel/interrupt/interrupt_cpp.cpp ****     }
 506              		.loc 1 72 52 is_stmt 0
 507 021c 97000000 		call	_ZN15MemoryAllocator11getInstanceEv
 507      E7800000 
 508              	.LVL28:
  72:src/kernel/interrupt/interrupt_cpp.cpp ****     }
 509              		.loc 1 72 62
 510 0224 93050A00 		mv	a1,s4
 511 0228 97000000 		call	_ZN15MemoryAllocator8mem_freeEPv
 511      E7800000 
 512              	.LVL29:
  72:src/kernel/interrupt/interrupt_cpp.cpp ****     }
 513              		.loc 1 72 13
 514 0230 93040500 		mv	s1,a0
 515              	.LVL30:
 516 0234 6FF05FFB 		j	.L7
 517              	.LVL31:
 518              	.L34:
 519              	.LBB248:
 520              	.LBB239:
  77:src/kernel/interrupt/interrupt_cpp.cpp ****         *t = (uint64)TCB::createThread((TCB::Body)a2, (void*)a3, (uint64*)a4);
 521              		.loc 1 77 9 is_stmt 1
  78:src/kernel/interrupt/interrupt_cpp.cpp ****         if(!(*t)) ret = -4;
 522              		.loc 1 78 9
  78:src/kernel/interrupt/interrupt_cpp.cpp ****         if(!(*t)) ret = -4;
 523              		.loc 1 78 39 is_stmt 0
 524 0238 13060700 		mv	a2,a4
 525              	.LVL32:
 526 023c 93850600 		mv	a1,a3
 527              	.LVL33:
 528 0240 13850A00 		mv	a0,s5
 529 0244 97000000 		call	_ZN3TCB12createThreadEPFvPvES0_Pm
 529      E7800000 
 530              	.LVL34:
  78:src/kernel/interrupt/interrupt_cpp.cpp ****         if(!(*t)) ret = -4;
GAS LISTING /tmp/ccce4vZ9.s 			page 19


 531              		.loc 1 78 12
 532 024c 2330AA00 		sd	a0,0(s4)
  79:src/kernel/interrupt/interrupt_cpp.cpp ****         else ret = 0;
 533              		.loc 1 79 9 is_stmt 1
 534 0250 63060500 		beq	a0,zero,.L44
  80:src/kernel/interrupt/interrupt_cpp.cpp ****     }
 535              		.loc 1 80 18 is_stmt 0
 536 0254 93040000 		li	s1,0
 537              	.LVL35:
 538 0258 6FF01FF9 		j	.L7
 539              	.LVL36:
 540              	.L44:
  79:src/kernel/interrupt/interrupt_cpp.cpp ****         else ret = 0;
 541              		.loc 1 79 23
 542 025c 9304C0FF 		li	s1,-4
 543              	.LVL37:
 544 0260 6FF09FF8 		j	.L7
 545              	.LVL38:
 546              	.L35:
 547              	.LBE239:
 548              	.LBB240:
  85:src/kernel/interrupt/interrupt_cpp.cpp ****         TCB::dispatch();
 549              		.loc 1 85 9 is_stmt 1
  85:src/kernel/interrupt/interrupt_cpp.cpp ****         TCB::dispatch();
 550              		.loc 1 85 29 is_stmt 0
 551 0264 97070000 		lla	a5,_ZN3TCB7runningE
 551      93870700 
 552 026c 83B70700 		ld	a5,0(a5)
 553              	.LVL39:
 554              	.LBB230:
 555              	.LBB231:
  44:src/kernel/interrupt/../../../h/../h/tcb.hpp ****     bool isFinished(){ return state == FINISHED; }
 556              		.loc 2 44 21 is_stmt 1
  44:src/kernel/interrupt/../../../h/../h/tcb.hpp ****     bool isFinished(){ return state == FINISHED; }
 557              		.loc 2 44 27 is_stmt 0
 558 0270 13072000 		li	a4,2
 559              	.LVL40:
 560 0274 23A8E702 		sw	a4,48(a5)
 561              	.LVL41:
 562              	.LBE231:
 563              	.LBE230:
  86:src/kernel/interrupt/interrupt_cpp.cpp ****     }
 564              		.loc 1 86 9 is_stmt 1
  86:src/kernel/interrupt/interrupt_cpp.cpp ****     }
 565              		.loc 1 86 22 is_stmt 0
 566 0278 97000000 		call	_ZN3TCB8dispatchEv
 566      E7800000 
 567              	.LVL42:
 568 0280 6FF09FF6 		j	.L7
 569              	.LVL43:
 570              	.L36:
 571              	.LBB232:
  91:src/kernel/interrupt/interrupt_cpp.cpp ****         TCB::yield();
 572              		.loc 1 91 9 is_stmt 1
  91:src/kernel/interrupt/interrupt_cpp.cpp ****         TCB::yield();
 573              		.loc 1 91 31 is_stmt 0
 574 0284 97070000 		sd	zero,_ZN3TCB16timeSliceCounterE,a5
GAS LISTING /tmp/ccce4vZ9.s 			page 20


 574      23B00700 
  92:src/kernel/interrupt/interrupt_cpp.cpp ****     }
 575              		.loc 1 92 9 is_stmt 1
  92:src/kernel/interrupt/interrupt_cpp.cpp ****     }
 576              		.loc 1 92 19 is_stmt 0
 577 028c 97000000 		call	_ZN3TCB5yieldEv
 577      E7800000 
 578              	.LVL44:
 579 0294 6FF05FF5 		j	.L7
 580              	.LVL45:
 581              	.L37:
 582              	.LBB224:
  98:src/kernel/interrupt/interrupt_cpp.cpp ****     }
 583              		.loc 1 98 9 is_stmt 1
  98:src/kernel/interrupt/interrupt_cpp.cpp ****     }
 584              		.loc 1 98 26 is_stmt 0
 585 0298 13850500 		mv	a0,a1
 586 029c 97000000 		call	_ZN3TCB12deleteThreadEPS_
 586      E7800000 
 587              	.LVL46:
 588 02a4 6FF05FF4 		j	.L7
 589              	.LVL47:
 590              	.L38:
 591              	.LBB219:
 592              	.LBB206:
 102:src/kernel/interrupt/interrupt_cpp.cpp ****         *t = (uint64)(new KSemaphore(a2));
 593              		.loc 1 102 9 is_stmt 1
 103:src/kernel/interrupt/interrupt_cpp.cpp ****         if(!(*t)) ret = -2;
 594              		.loc 1 103 9
 595              	.LBB207:
 596              	.LBB208:
 597              		.file 5 "src/kernel/interrupt/../../../h/../h/ksemaphore.hpp"
   1:src/kernel/interrupt/../../../h/../h/ksemaphore.hpp **** #ifndef __semaphore__
   2:src/kernel/interrupt/../../../h/../h/ksemaphore.hpp **** #define __semaphore__
   3:src/kernel/interrupt/../../../h/../h/ksemaphore.hpp **** 
   4:src/kernel/interrupt/../../../h/../h/ksemaphore.hpp **** #include"../h/ptr_queue.hpp"
   5:src/kernel/interrupt/../../../h/../h/ksemaphore.hpp **** #include "slab_allocator.h"
   6:src/kernel/interrupt/../../../h/../h/ksemaphore.hpp **** 
   7:src/kernel/interrupt/../../../h/../h/ksemaphore.hpp **** /* Class used to describe semaphore in kernel code */
   8:src/kernel/interrupt/../../../h/../h/ksemaphore.hpp **** 
   9:src/kernel/interrupt/../../../h/../h/ksemaphore.hpp **** class KSemaphore
  10:src/kernel/interrupt/../../../h/../h/ksemaphore.hpp **** {
  11:src/kernel/interrupt/../../../h/../h/ksemaphore.hpp ****     static ObjectCache* cache; 
  12:src/kernel/interrupt/../../../h/../h/ksemaphore.hpp **** public:
  13:src/kernel/interrupt/../../../h/../h/ksemaphore.hpp ****     //#include"../h/kernel_operators.hpp" /* allocation and deallocation */
  14:src/kernel/interrupt/../../../h/../h/ksemaphore.hpp ****     
  15:src/kernel/interrupt/../../../h/../h/ksemaphore.hpp ****     __SLAB_ALLOCATION__(KSemaphore, nullptr, nullptr)
 598              		.loc 5 15 5
 599 02a8 97070000 		lla	a5,_ZN10KSemaphore5cacheE
 599      93870700 
 600 02b0 83B70700 		ld	a5,0(a5)
 601 02b4 63880704 		beq	a5,zero,.L45
 602              	.LVL48:
 603              	.L14:
 604              		.loc 5 15 5
 605 02b8 97070000 		lla	a5,_ZN10KSemaphore5cacheE
 605      93870700 
GAS LISTING /tmp/ccce4vZ9.s 			page 21


 606 02c0 03B50700 		ld	a0,0(a5)
 607 02c4 97000000 		call	_ZN11ObjectCache9alloc_objEv
 607      E7800000 
 608              	.LVL49:
 609              	.LBE208:
 610              	.LBE207:
 103:src/kernel/interrupt/interrupt_cpp.cpp ****         if(!(*t)) ret = -2;
 611              		.loc 1 103 12 is_stmt 0
 612 02cc 63040502 		beq	a0,zero,.L19
 613              	.LVL50:
 614              	.LBB210:
 615              	.LBB211:
  16:src/kernel/interrupt/../../../h/../h/ksemaphore.hpp **** 
  17:src/kernel/interrupt/../../../h/../h/ksemaphore.hpp ****     KSemaphore(unsigned val):val(val)
 616              		.loc 5 17 37 discriminator 1
 617 02d0 23245501 		sw	s5,8(a0)
 618              	.LVL51:
 619              	.LBB212:
 620              	.LBB213:
 621              		.file 6 "src/kernel/interrupt/../../../h/../h/ptr_queue.hpp"
   1:src/kernel/interrupt/../../../h/../h/ptr_queue.hpp **** #ifndef _queue_h
   2:src/kernel/interrupt/../../../h/../h/ptr_queue.hpp **** #define _queue_h
   3:src/kernel/interrupt/../../../h/../h/ptr_queue.hpp **** 
   4:src/kernel/interrupt/../../../h/../h/ptr_queue.hpp **** //#include"../h/tcb.hpp"
   5:src/kernel/interrupt/../../../h/../h/ptr_queue.hpp **** //#include"../h/testing.hpp"
   6:src/kernel/interrupt/../../../h/../h/ptr_queue.hpp **** #include"../lib/hw.h"
   7:src/kernel/interrupt/../../../h/../h/ptr_queue.hpp **** #include"../h/memory_allocator.hpp"
   8:src/kernel/interrupt/../../../h/../h/ptr_queue.hpp **** #include "object_cache.h"
   9:src/kernel/interrupt/../../../h/../h/ptr_queue.hpp **** #include "slab_allocator.h"
  10:src/kernel/interrupt/../../../h/../h/ptr_queue.hpp **** 
  11:src/kernel/interrupt/../../../h/../h/ptr_queue.hpp **** class TCB;
  12:src/kernel/interrupt/../../../h/../h/ptr_queue.hpp **** 
  13:src/kernel/interrupt/../../../h/../h/ptr_queue.hpp **** class TcbQueue{
  14:src/kernel/interrupt/../../../h/../h/ptr_queue.hpp ****        
  15:src/kernel/interrupt/../../../h/../h/ptr_queue.hpp ****     TCB *head, *tail;
  16:src/kernel/interrupt/../../../h/../h/ptr_queue.hpp ****     int tmpNum;
  17:src/kernel/interrupt/../../../h/../h/ptr_queue.hpp ****     void brisi(){
  18:src/kernel/interrupt/../../../h/../h/ptr_queue.hpp ****         while(!isEmpty())
  19:src/kernel/interrupt/../../../h/../h/ptr_queue.hpp ****             remove();
  20:src/kernel/interrupt/../../../h/../h/ptr_queue.hpp ****     }
  21:src/kernel/interrupt/../../../h/../h/ptr_queue.hpp ****     static ObjectCache* cache;
  22:src/kernel/interrupt/../../../h/../h/ptr_queue.hpp **** public:
  23:src/kernel/interrupt/../../../h/../h/ptr_queue.hpp ****     //#include"../h/kernel_operators.hpp"
  24:src/kernel/interrupt/../../../h/../h/ptr_queue.hpp **** 
  25:src/kernel/interrupt/../../../h/../h/ptr_queue.hpp ****     __SLAB_ALLOCATION__(TcbQueue, nullptr, nullptr);
  26:src/kernel/interrupt/../../../h/../h/ptr_queue.hpp ****     TcbQueue():head(nullptr), tail(nullptr), tmpNum(0){}
 622              		.loc 6 26 54 discriminator 1
 623 02d4 23380500 		sd	zero,16(a0)
 624 02d8 233C0500 		sd	zero,24(a0)
 625 02dc 23200502 		sw	zero,32(a0)
 626              	.LVL52:
 627              	.LBE213:
 628              	.LBE212:
  18:src/kernel/interrupt/../../../h/../h/ksemaphore.hpp ****     {
  19:src/kernel/interrupt/../../../h/../h/ksemaphore.hpp ****         /* 
  20:src/kernel/interrupt/../../../h/../h/ksemaphore.hpp ****         *  Put semaphore on front 
  21:src/kernel/interrupt/../../../h/../h/ksemaphore.hpp ****         *  of the list of active semaphores
GAS LISTING /tmp/ccce4vZ9.s 			page 22


  22:src/kernel/interrupt/../../../h/../h/ksemaphore.hpp ****         */
  23:src/kernel/interrupt/../../../h/../h/ksemaphore.hpp ****         next = activeSemaphores; 
 629              		.loc 5 23 9 is_stmt 1 discriminator 1
 630              		.loc 5 23 14 is_stmt 0 discriminator 1
 631 02e0 97070000 		lla	a5,_ZN10KSemaphore16activeSemaphoresE
 631      93870700 
 632 02e8 03B70700 		ld	a4,0(a5)
 633 02ec 2330E500 		sd	a4,0(a0)
  24:src/kernel/interrupt/../../../h/../h/ksemaphore.hpp ****         activeSemaphores = this;
 634              		.loc 5 24 9 is_stmt 1 discriminator 1
 635              		.loc 5 24 26 is_stmt 0 discriminator 1
 636 02f0 23B0A700 		sd	a0,0(a5)
 637              	.LVL53:
 638              	.L19:
 639              	.LBE211:
 640              	.LBE210:
 103:src/kernel/interrupt/interrupt_cpp.cpp ****         if(!(*t)) ret = -2;
 641              		.loc 1 103 12 discriminator 4
 642 02f4 2330AA00 		sd	a0,0(s4)
 104:src/kernel/interrupt/interrupt_cpp.cpp ****         else ret = 0;
 643              		.loc 1 104 9 is_stmt 1 discriminator 4
 644 02f8 63040506 		beq	a0,zero,.L46
 105:src/kernel/interrupt/interrupt_cpp.cpp ****     }
 645              		.loc 1 105 18 is_stmt 0
 646 02fc 93040000 		li	s1,0
 647 0300 6FF09FEE 		j	.L7
 648              	.LVL54:
 649              	.L45:
 650              	.LBB214:
 651              	.LBB209:
  15:src/kernel/interrupt/../../../h/../h/ksemaphore.hpp **** 
 652              		.loc 5 15 5 is_stmt 1
 653 0304 13058005 		li	a0,88
 654 0308 97000000 		call	_ZN11ObjectCachenwEm
 654      E7800000 
 655              	.LVL55:
 656              	.LEHE0:
 657 0310 93040500 		mv	s1,a0
 658              	.LVL56:
 659 0314 63020502 		beq	a0,zero,.L15
 660 0318 93070000 		li	a5,0
 661 031c 13070000 		li	a4,0
 662 0320 93060000 		li	a3,0
 663 0324 13068002 		li	a2,40
 664 0328 97050000 		lla	a1,.LC0
 664      93850500 
 665              	.LEHB1:
 666 0330 97000000 		call	_ZN11ObjectCacheC1EPKcmPFvPvES4_NS_12SlabMetaTypeE
 666      E7800000 
 667              	.LVL57:
 668              	.LEHE1:
 669              	.L15:
 670 0338 97070000 		sd	s1,_ZN10KSemaphore5cacheE,a5
 670      23B09700 
 671 0340 6FF09FF7 		j	.L14
 672              	.L29:
 673 0344 13090500 		mv	s2,a0
GAS LISTING /tmp/ccce4vZ9.s 			page 23


 674              	.LVL58:
 675 0348 13850400 		mv	a0,s1
 676 034c 97000000 		call	_ZN11ObjectCachedlEPv
 676      E7800000 
 677              	.LVL59:
 678 0354 13050900 		mv	a0,s2
 679              	.LEHB2:
 680 0358 97000000 		call	_Unwind_Resume
 680      E7800000 
 681              	.LVL60:
 682              	.L46:
 683              	.LBE209:
 684              	.LBE214:
 104:src/kernel/interrupt/interrupt_cpp.cpp ****         else ret = 0;
 685              		.loc 1 104 23 is_stmt 0
 686 0360 9304E0FF 		li	s1,-2
 687 0364 6FF05FE8 		j	.L7
 688              	.LVL61:
 689              	.L39:
 690              	.LBE206:
 691              	.LBB215:
 692              	.LBB202:
 109:src/kernel/interrupt/interrupt_cpp.cpp ****         ret = KSemaphore::close(t);
 693              		.loc 1 109 9 is_stmt 1
 110:src/kernel/interrupt/interrupt_cpp.cpp ****     }
 694              		.loc 1 110 9
 110:src/kernel/interrupt/interrupt_cpp.cpp ****     }
 695              		.loc 1 110 32 is_stmt 0
 696 0368 13850500 		mv	a0,a1
 697 036c 97000000 		call	_ZN10KSemaphore5closeEPS_
 697      E7800000 
 698              	.LVL62:
 110:src/kernel/interrupt/interrupt_cpp.cpp ****     }
 699              		.loc 1 110 13
 700 0374 93040500 		mv	s1,a0
 701              	.LVL63:
 702              	.LBE202:
 703 0378 6FF01FE7 		j	.L7
 704              	.LVL64:
 705              	.L40:
 706              	.LBB203:
 707              	.LBB199:
 114:src/kernel/interrupt/interrupt_cpp.cpp ****         if(KSemaphore::exists(t))
 708              		.loc 1 114 9 is_stmt 1
 115:src/kernel/interrupt/interrupt_cpp.cpp ****             ret = t->wait();
 709              		.loc 1 115 9
 115:src/kernel/interrupt/interrupt_cpp.cpp ****             ret = t->wait();
 710              		.loc 1 115 30 is_stmt 0
 711 037c 13850500 		mv	a0,a1
 712 0380 97000000 		call	_ZN10KSemaphore6existsEPS_
 712      E7800000 
 713              	.LVL65:
 115:src/kernel/interrupt/interrupt_cpp.cpp ****             ret = t->wait();
 714              		.loc 1 115 9
 715 0388 63160500 		bne	a0,zero,.L47
 118:src/kernel/interrupt/interrupt_cpp.cpp ****     }
 716              		.loc 1 118 17
GAS LISTING /tmp/ccce4vZ9.s 			page 24


 717 038c 9304F0FF 		li	s1,-1
 718              	.LVL66:
 719 0390 6FF09FE5 		j	.L7
 720              	.LVL67:
 721              	.L47:
 116:src/kernel/interrupt/interrupt_cpp.cpp ****         else
 722              		.loc 1 116 13 is_stmt 1
 116:src/kernel/interrupt/interrupt_cpp.cpp ****         else
 723              		.loc 1 116 26 is_stmt 0
 724 0394 13050A00 		mv	a0,s4
 725 0398 97000000 		call	_ZN10KSemaphore4waitEv
 725      E7800000 
 726              	.LVL68:
 116:src/kernel/interrupt/interrupt_cpp.cpp ****         else
 727              		.loc 1 116 17
 728 03a0 93040500 		mv	s1,a0
 729              	.LVL69:
 730 03a4 6FF05FE4 		j	.L7
 731              	.LVL70:
 732              	.L41:
 733              	.LBE199:
 734              	.LBB200:
 735              	.LBB196:
 122:src/kernel/interrupt/interrupt_cpp.cpp ****         if(KSemaphore::exists(t))
 736              		.loc 1 122 9 is_stmt 1
 123:src/kernel/interrupt/interrupt_cpp.cpp ****             ret = t->signal();
 737              		.loc 1 123 9
 123:src/kernel/interrupt/interrupt_cpp.cpp ****             ret = t->signal();
 738              		.loc 1 123 30 is_stmt 0
 739 03a8 13850500 		mv	a0,a1
 740 03ac 97000000 		call	_ZN10KSemaphore6existsEPS_
 740      E7800000 
 741              	.LVL71:
 123:src/kernel/interrupt/interrupt_cpp.cpp ****             ret = t->signal();
 742              		.loc 1 123 9
 743 03b4 63160500 		bne	a0,zero,.L48
 126:src/kernel/interrupt/interrupt_cpp.cpp ****     }
 744              		.loc 1 126 17
 745 03b8 9304F0FF 		li	s1,-1
 746              	.LVL72:
 747 03bc 6FF0DFE2 		j	.L7
 748              	.LVL73:
 749              	.L48:
 124:src/kernel/interrupt/interrupt_cpp.cpp ****         else
 750              		.loc 1 124 13 is_stmt 1
 124:src/kernel/interrupt/interrupt_cpp.cpp ****         else
 751              		.loc 1 124 28 is_stmt 0
 752 03c0 13050A00 		mv	a0,s4
 753 03c4 97000000 		call	_ZN10KSemaphore6signalEv
 753      E7800000 
 754              	.LVL74:
 124:src/kernel/interrupt/interrupt_cpp.cpp ****         else
 755              		.loc 1 124 17
 756 03cc 93040500 		mv	s1,a0
 757              	.LVL75:
 758 03d0 6FF09FE1 		j	.L7
 759              	.LVL76:
GAS LISTING /tmp/ccce4vZ9.s 			page 25


 760              	.L42:
 761              	.LBE196:
 130:src/kernel/interrupt/interrupt_cpp.cpp ****     }
 762              		.loc 1 130 9 is_stmt 1
 130:src/kernel/interrupt/interrupt_cpp.cpp ****     }
 763              		.loc 1 130 19 is_stmt 0
 764 03d4 13850500 		mv	a0,a1
 765 03d8 97000000 		call	_ZN3TCB5sleepEm
 765      E7800000 
 766              	.LVL77:
 767 03e0 6FF09FE0 		j	.L7
 768              	.LVL78:
 769              	.L43:
 134:src/kernel/interrupt/interrupt_cpp.cpp ****     }
 770              		.loc 1 134 9 is_stmt 1
 134:src/kernel/interrupt/interrupt_cpp.cpp ****     }
 771              		.loc 1 134 34 is_stmt 0
 772 03e4 97070000 		lla	a5,_ZN5StdIO7ibufferE
 772      93870700 
 773 03ec 03BA0700 		ld	s4,0(a5)
 774              	.LVL79:
 775              	.LBB197:
 776              	.LBB198:
  36:src/kernel/interrupt/../../../h/../h/../h/shared_buffer.hpp ****     }
  37:src/kernel/interrupt/../../../h/../h/../h/shared_buffer.hpp **** 
  38:src/kernel/interrupt/../../../h/../h/../h/shared_buffer.hpp ****     T get(){
  39:src/kernel/interrupt/../../../h/../h/../h/shared_buffer.hpp ****         itemAvailable.wait();
 777              		.loc 4 39 27
 778 03f0 13058A42 		addi	a0,s4,1064
 779 03f4 97000000 		call	_ZN10KSemaphore4waitEv
 779      E7800000 
 780              	.LVL80:
  40:src/kernel/interrupt/../../../h/../h/../h/shared_buffer.hpp ****         mutex.wait();
 781              		.loc 4 40 19
 782 03fc 930A0A40 		addi	s5,s4,1024
 783              	.LVL81:
 784 0400 13850A00 		mv	a0,s5
 785 0404 97000000 		call	_ZN10KSemaphore4waitEv
 785      E7800000 
 786              	.LVL82:
  41:src/kernel/interrupt/../../../h/../h/../h/shared_buffer.hpp **** 
  42:src/kernel/interrupt/../../../h/../h/../h/shared_buffer.hpp ****         tmpLen--;
 787              		.loc 4 42 9
 788 040c 83270A48 		lw	a5,1152(s4)
 789 0410 9B87F7FF 		addiw	a5,a5,-1
 790 0414 2320FA48 		sw	a5,1152(s4)
  43:src/kernel/interrupt/../../../h/../h/../h/shared_buffer.hpp ****         T r = buffer[head];
 791              		.loc 4 43 22
 792 0418 83278A47 		lw	a5,1144(s4)
 793              		.loc 4 43 11
 794 041c 3307FA00 		add	a4,s4,a5
 795 0420 83440700 		lbu	s1,0(a4)
 796              	.LVL83:
  44:src/kernel/interrupt/../../../h/../h/../h/shared_buffer.hpp ****         head = (head+1)%BUFFER_SIZE;
 797              		.loc 4 44 21
 798 0424 9B871700 		addiw	a5,a5,1
 799              		.loc 4 44 24
GAS LISTING /tmp/ccce4vZ9.s 			page 26


 800 0428 1BD7F741 		sraiw	a4,a5,31
 801 042c 1B576701 		srliw	a4,a4,22
 802 0430 BB87E700 		addw	a5,a5,a4
 803 0434 93F7F73F 		andi	a5,a5,1023
 804 0438 BB87E740 		subw	a5,a5,a4
 805              		.loc 4 44 9
 806 043c 232CFA46 		sw	a5,1144(s4)
  45:src/kernel/interrupt/../../../h/../h/../h/shared_buffer.hpp **** 
  46:src/kernel/interrupt/../../../h/../h/../h/shared_buffer.hpp ****         spaceAvailable.signal();
 807              		.loc 4 46 30
 808 0440 13050A45 		addi	a0,s4,1104
 809 0444 97000000 		call	_ZN10KSemaphore6signalEv
 809      E7800000 
 810              	.LVL84:
  47:src/kernel/interrupt/../../../h/../h/../h/shared_buffer.hpp ****         mutex.signal();
 811              		.loc 4 47 21
 812 044c 13850A00 		mv	a0,s5
 813 0450 97000000 		call	_ZN10KSemaphore6signalEv
 813      E7800000 
 814              	.LVL85:
 815              	.LEHE2:
 816              	.LBE198:
 817              	.LBE197:
 818 0458 6FF01FD9 		j	.L7
 819              	.LBE200:
 820              	.LBE203:
 821              	.LBE215:
 822              	.LBE219:
 823              	.LBE224:
 824              	.LBE232:
 825              	.LBE240:
 826              	.LBE248:
 827              	.LBE257:
 828              	.LBE271:
 829              		.cfi_endproc
 830              	.LFE114:
 831              		.globl	__gxx_personality_v0
 832              		.section	.gcc_except_table,"aw",@progbits
 833              	.LLSDA114:
 834 0000 FF       		.byte	0xff
 835 0001 FF       		.byte	0xff
 836 0002 03       		.byte	0x3
 837 0003 27       		.byte	0x27
 838 0004 00000000 		.4byte	.LEHB0-.LFB114
 839 0008 00000000 		.4byte	.LEHE0-.LEHB0
 840 000c 00000000 		.4byte	0
 841 0010 00       		.byte	0
 842 0011 00000000 		.4byte	.LEHB1-.LFB114
 843 0015 00000000 		.4byte	.LEHE1-.LEHB1
 844 0019 00000000 		.4byte	.L29-.LFB114
 845 001d 00       		.byte	0
 846 001e 00000000 		.4byte	.LEHB2-.LFB114
 847 0022 00000000 		.4byte	.LEHE2-.LEHB2
 848 0026 00000000 		.4byte	0
 849 002a 00       		.byte	0
 850              		.text
 852              		.align	2
GAS LISTING /tmp/ccce4vZ9.s 			page 27


 853              		.globl	_Z8sysEcallmmmmm
 855              	_Z8sysEcallmmmmm:
 856              	.LFB115:
 144:src/kernel/interrupt/interrupt_cpp.cpp **** 
 145:src/kernel/interrupt/interrupt_cpp.cpp **** uint64 sysEcall(uint64 a0, uint64 a1, uint64 a2, uint64 a3, uint64 a4)
 146:src/kernel/interrupt/interrupt_cpp.cpp **** {    
 857              		.loc 1 146 1 is_stmt 1
 858              		.cfi_startproc
 859              		.cfi_personality 0x9b,DW.ref.__gxx_personality_v0
 860              		.cfi_lsda 0x1b,.LLSDA115
 861              	.LVL86:
 862 045c 130101FB 		addi	sp,sp,-80
 863              		.cfi_def_cfa_offset 80
 864 0460 23341104 		sd	ra,72(sp)
 865 0464 23308104 		sd	s0,64(sp)
 866 0468 233C9102 		sd	s1,56(sp)
 867 046c 23382103 		sd	s2,48(sp)
 868 0470 23343103 		sd	s3,40(sp)
 869 0474 23304103 		sd	s4,32(sp)
 870 0478 233C5101 		sd	s5,24(sp)
 871              		.cfi_offset 1, -8
 872              		.cfi_offset 8, -16
 873              		.cfi_offset 9, -24
 874              		.cfi_offset 18, -32
 875              		.cfi_offset 19, -40
 876              		.cfi_offset 20, -48
 877              		.cfi_offset 21, -56
 878 047c 13040105 		addi	s0,sp,80
 879              		.cfi_def_cfa 8, 0
 880 0480 93890500 		mv	s3,a1
 147:src/kernel/interrupt/interrupt_cpp.cpp ****     uint64 sepc = Riscv::r_sepc()+4, sstatus = Riscv::r_sstatus(), ret = a0;
 881              		.loc 1 147 5
 882              	.LBB317:
 883              	.LBB318:
 145:src/kernel/interrupt/../../../h/../h/riscv.hpp ****     asm volatile("csrr %0, sepc" : "=r" (sepc));
 884              		.loc 3 145 5
 146:src/kernel/interrupt/../../../h/../h/riscv.hpp ****     return sepc;
 885              		.loc 3 146 5
 146:src/kernel/interrupt/../../../h/../h/riscv.hpp ****     return sepc;
 886              		.loc 3 146 48 is_stmt 0
 887              	 #APP
 888              	# 146 "src/kernel/interrupt/../../../h/../h/riscv.hpp" 1
 889              		csrr a5, sepc
 890              	# 0 "" 2
 891              	 #NO_APP
 892 0488 233CF4FA 		sd	a5,-72(s0)
 147:src/kernel/interrupt/../../../h/../h/riscv.hpp **** } 
 893              		.loc 3 147 5 is_stmt 1
 147:src/kernel/interrupt/../../../h/../h/riscv.hpp **** } 
 894              		.loc 3 147 12 is_stmt 0
 895 048c 033984FB 		ld	s2,-72(s0)
 896              	.LBE318:
 897              	.LBE317:
 898              		.loc 1 147 35
 899 0490 13094900 		addi	s2,s2,4
 900              	.LVL87:
 901              	.LBB319:
GAS LISTING /tmp/ccce4vZ9.s 			page 28


 902              	.LBB320:
 219:src/kernel/interrupt/../../../h/../h/riscv.hpp ****     asm volatile("csrr %0, sstatus" : "=r" (sstatus));
 903              		.loc 3 219 5 is_stmt 1
 220:src/kernel/interrupt/../../../h/../h/riscv.hpp ****     return sstatus;
 904              		.loc 3 220 5
 220:src/kernel/interrupt/../../../h/../h/riscv.hpp ****     return sstatus;
 905              		.loc 3 220 54 is_stmt 0
 906              	 #APP
 907              	# 220 "src/kernel/interrupt/../../../h/../h/riscv.hpp" 1
 908              		csrr a5, sstatus
 909              	# 0 "" 2
 910              	 #NO_APP
 911 0498 2338F4FA 		sd	a5,-80(s0)
 912              		.loc 3 221 5 is_stmt 1
 913              		.loc 3 221 12 is_stmt 0
 914 049c 033A04FB 		ld	s4,-80(s0)
 915              	.LVL88:
 916              	.LBE320:
 917              	.LBE319:
 148:src/kernel/interrupt/interrupt_cpp.cpp ****     
 149:src/kernel/interrupt/interrupt_cpp.cpp ****     if(a0 == MA){
 918              		.loc 1 149 5 is_stmt 1
 919              	.LBB321:
 920 04a0 93071000 		li	a5,1
 921 04a4 6306F50E 		beq	a0,a5,.L75
 922 04a8 93040500 		mv	s1,a0
 923 04ac 930A0600 		mv	s5,a2
 924              	.LBE321:
 150:src/kernel/interrupt/interrupt_cpp.cpp ****         //mem_alloc
 151:src/kernel/interrupt/interrupt_cpp.cpp ****         ret = (uint64)MemoryAllocator::getInstance().mem_alloc(a1);    
 152:src/kernel/interrupt/interrupt_cpp.cpp ****     }
 153:src/kernel/interrupt/interrupt_cpp.cpp ****     else if(a0 == MF)
 925              		.loc 1 153 10
 926              	.LBB449:
 927              	.LBB322:
 928 04b0 93072000 		li	a5,2
 929 04b4 630CF510 		beq	a0,a5,.L76
 930              	.LBE322:
 931              	.LBE449:
 154:src/kernel/interrupt/interrupt_cpp.cpp ****     {
 155:src/kernel/interrupt/interrupt_cpp.cpp ****         //mem_free
 156:src/kernel/interrupt/interrupt_cpp.cpp ****         ret = (uint64)MemoryAllocator::getInstance().mem_free((void*)a1);
 157:src/kernel/interrupt/interrupt_cpp.cpp ****     
 158:src/kernel/interrupt/interrupt_cpp.cpp ****     }
 159:src/kernel/interrupt/interrupt_cpp.cpp ****     else if(a0 == TC)
 932              		.loc 1 159 10
 933              	.LBB450:
 934              	.LBB433:
 935              	.LBB323:
 936 04b8 93071001 		li	a5,17
 937 04bc 6304F512 		beq	a0,a5,.L77
 938              	.LBE323:
 939              	.LBE433:
 940              	.LBE450:
 160:src/kernel/interrupt/interrupt_cpp.cpp ****     {
 161:src/kernel/interrupt/interrupt_cpp.cpp ****         //thread_create
 162:src/kernel/interrupt/interrupt_cpp.cpp ****         uint64* t = (uint64*)a1;
GAS LISTING /tmp/ccce4vZ9.s 			page 29


 163:src/kernel/interrupt/interrupt_cpp.cpp ****         *t = (uint64)TCB::createThread((TCB::Body)a2, (void*)a3, (uint64*)a4); 
 164:src/kernel/interrupt/interrupt_cpp.cpp ****         if(!(*t)) ret = -4;
 165:src/kernel/interrupt/interrupt_cpp.cpp ****         else ret = 0;
 166:src/kernel/interrupt/interrupt_cpp.cpp ****     }
 167:src/kernel/interrupt/interrupt_cpp.cpp ****     else if(a0 == TE)
 941              		.loc 1 167 10
 942              	.LBB451:
 943              	.LBB434:
 944              	.LBB418:
 945              	.LBB324:
 946 04c0 93072001 		li	a5,18
 947 04c4 6306F514 		beq	a0,a5,.L78
 948              	.LBE324:
 949              	.LBE418:
 950              	.LBE434:
 951              	.LBE451:
 168:src/kernel/interrupt/interrupt_cpp.cpp ****     {
 169:src/kernel/interrupt/interrupt_cpp.cpp ****         //thread_exit
 170:src/kernel/interrupt/interrupt_cpp.cpp ****         TCB::running->finish();
 171:src/kernel/interrupt/interrupt_cpp.cpp ****         TCB::dispatch();
 172:src/kernel/interrupt/interrupt_cpp.cpp ****         Riscv::w_sstatus(sstatus);
 173:src/kernel/interrupt/interrupt_cpp.cpp ****     }
 174:src/kernel/interrupt/interrupt_cpp.cpp ****     else if(a0 == TD)
 952              		.loc 1 174 10
 953              	.LBB452:
 954              	.LBB435:
 955              	.LBB419:
 956              	.LBB403:
 957              	.LBB325:
 958 04c8 93073001 		li	a5,19
 959 04cc 6306F516 		beq	a0,a5,.L79
 960              	.LBE325:
 961              	.LBE403:
 962              	.LBE419:
 963              	.LBE435:
 964              	.LBE452:
 175:src/kernel/interrupt/interrupt_cpp.cpp ****     {
 176:src/kernel/interrupt/interrupt_cpp.cpp ****         //thread_dispatch
 177:src/kernel/interrupt/interrupt_cpp.cpp ****         TCB::timeSliceCounter = 0; 
 178:src/kernel/interrupt/interrupt_cpp.cpp ****         TCB::yield();
 179:src/kernel/interrupt/interrupt_cpp.cpp ****         Riscv::w_sstatus(sstatus);
 180:src/kernel/interrupt/interrupt_cpp.cpp ****     }
 181:src/kernel/interrupt/interrupt_cpp.cpp ****     else if(a0 == DTH)
 965              		.loc 1 181 10
 966              	.LBB453:
 967              	.LBB436:
 968              	.LBB420:
 969              	.LBB404:
 970              	.LBB387:
 971              	.LBB326:
 972 04d0 93079006 		li	a5,105
 973 04d4 6300F518 		beq	a0,a5,.L80
 974              	.LBE326:
 975              	.LBE387:
 976              	.LBE404:
 977              	.LBE420:
 978              	.LBE436:
GAS LISTING /tmp/ccce4vZ9.s 			page 30


 979              	.LBE453:
 182:src/kernel/interrupt/interrupt_cpp.cpp ****     {
 183:src/kernel/interrupt/interrupt_cpp.cpp ****         //delete thread handle
 184:src/kernel/interrupt/interrupt_cpp.cpp ****         TCB::deleteThread((TCB*)a1);
 185:src/kernel/interrupt/interrupt_cpp.cpp ****     }
 186:src/kernel/interrupt/interrupt_cpp.cpp ****     else if(a0 == SO)
 980              		.loc 1 186 10
 981              	.LBB454:
 982              	.LBB437:
 983              	.LBB421:
 984              	.LBB405:
 985              	.LBB388:
 986              	.LBB375:
 987              	.LBB327:
 988 04d8 93071002 		li	a5,33
 989 04dc 6306F518 		beq	a0,a5,.L81
 990              	.LBE327:
 991              	.LBE375:
 992              	.LBE388:
 993              	.LBE405:
 994              	.LBE421:
 995              	.LBE437:
 996              	.LBE454:
 187:src/kernel/interrupt/interrupt_cpp.cpp ****     {
 188:src/kernel/interrupt/interrupt_cpp.cpp ****         uint64* t = (uint64*)a1;
 189:src/kernel/interrupt/interrupt_cpp.cpp ****         *t = (uint64)(new KSemaphore(a2));
 190:src/kernel/interrupt/interrupt_cpp.cpp ****     }
 191:src/kernel/interrupt/interrupt_cpp.cpp ****     else if(a0 == SC)
 997              		.loc 1 191 10
 998              	.LBB455:
 999              	.LBB438:
 1000              	.LBB422:
 1001              	.LBB406:
 1002              	.LBB389:
 1003              	.LBB376:
 1004              	.LBB367:
 1005              	.LBB328:
 1006 04e0 93072002 		li	a5,34
 1007 04e4 630CF522 		beq	a0,a5,.L82
 1008              	.LBE328:
 1009              	.LBE367:
 1010              	.LBE376:
 1011              	.LBE389:
 1012              	.LBE406:
 1013              	.LBE422:
 1014              	.LBE438:
 1015              	.LBE455:
 192:src/kernel/interrupt/interrupt_cpp.cpp ****     {
 193:src/kernel/interrupt/interrupt_cpp.cpp ****         KSemaphore* t = (KSemaphore*)a1;
 194:src/kernel/interrupt/interrupt_cpp.cpp ****         delete t;
 195:src/kernel/interrupt/interrupt_cpp.cpp ****     }
 196:src/kernel/interrupt/interrupt_cpp.cpp ****     else if(a0 == SW)
 1016              		.loc 1 196 10
 1017              	.LBB456:
 1018              	.LBB439:
 1019              	.LBB423:
 1020              	.LBB407:
GAS LISTING /tmp/ccce4vZ9.s 			page 31


 1021              	.LBB390:
 1022              	.LBB377:
 1023              	.LBB368:
 1024              	.LBB351:
 1025              	.LBB329:
 1026 04e8 93073002 		li	a5,35
 1027 04ec 6300F526 		beq	a0,a5,.L83
 1028              	.LBE329:
 1029              	.LBE351:
 1030              	.LBE368:
 1031              	.LBE377:
 1032              	.LBE390:
 1033              	.LBE407:
 1034              	.LBE423:
 1035              	.LBE439:
 1036              	.LBE456:
 197:src/kernel/interrupt/interrupt_cpp.cpp ****     {
 198:src/kernel/interrupt/interrupt_cpp.cpp ****         KSemaphore* t = (KSemaphore*)a1;
 199:src/kernel/interrupt/interrupt_cpp.cpp ****         ret = t->wait();
 200:src/kernel/interrupt/interrupt_cpp.cpp ****         Riscv::w_sstatus(sstatus);
 201:src/kernel/interrupt/interrupt_cpp.cpp ****     }
 202:src/kernel/interrupt/interrupt_cpp.cpp ****     else if(a0 == SS)
 1037              		.loc 1 202 10
 1038              	.LBB457:
 1039              	.LBB440:
 1040              	.LBB424:
 1041              	.LBB408:
 1042              	.LBB391:
 1043              	.LBB378:
 1044              	.LBB369:
 1045              	.LBB352:
 1046              	.LBB344:
 1047              	.LBB330:
 1048 04f0 93074002 		li	a5,36
 1049 04f4 6306F526 		beq	a0,a5,.L84
 203:src/kernel/interrupt/interrupt_cpp.cpp ****     {
 204:src/kernel/interrupt/interrupt_cpp.cpp ****         KSemaphore* t = (KSemaphore*)a1;
 205:src/kernel/interrupt/interrupt_cpp.cpp ****         t->signal();
 206:src/kernel/interrupt/interrupt_cpp.cpp ****     }
 207:src/kernel/interrupt/interrupt_cpp.cpp ****     else if(a0 == TS)
 1050              		.loc 1 207 10
 1051 04f8 93071003 		li	a5,49
 1052 04fc 630CF526 		beq	a0,a5,.L85
 208:src/kernel/interrupt/interrupt_cpp.cpp ****     {      
 209:src/kernel/interrupt/interrupt_cpp.cpp ****         TCB::sleep(a1);
 210:src/kernel/interrupt/interrupt_cpp.cpp ****         Riscv::w_sstatus(sstatus);
 211:src/kernel/interrupt/interrupt_cpp.cpp ****     }
 212:src/kernel/interrupt/interrupt_cpp.cpp ****     else if(a0 == GC)
 1053              		.loc 1 212 10
 1054 0500 93071004 		li	a5,65
 1055 0504 6304F528 		beq	a0,a5,.L86
 213:src/kernel/interrupt/interrupt_cpp.cpp ****     {
 214:src/kernel/interrupt/interrupt_cpp.cpp ****         ret = StdIO::ibuffer->get();
 215:src/kernel/interrupt/interrupt_cpp.cpp ****     }
 216:src/kernel/interrupt/interrupt_cpp.cpp ****     else if(a0 == PC)
 1056              		.loc 1 216 10
 1057 0508 93072004 		li	a5,66
GAS LISTING /tmp/ccce4vZ9.s 			page 32


 1058 050c 631CF508 		bne	a0,a5,.L51
 217:src/kernel/interrupt/interrupt_cpp.cpp ****     {
 218:src/kernel/interrupt/interrupt_cpp.cpp ****         StdIO::obuffer->put((char)a1);
 1059              		.loc 1 218 9
 1060              		.loc 1 218 28 is_stmt 0
 1061 0510 97070000 		lla	a5,_ZN5StdIO7obufferE
 1061      93870700 
 1062 0518 03BA0700 		ld	s4,0(a5)
 1063              	.LVL89:
 1064 051c 93F9F50F 		andi	s3,a1,0xff
 1065              	.LVL90:
 1066              	.LBB331:
 1067              	.LBB332:
  27:src/kernel/interrupt/../../../h/../h/../h/shared_buffer.hpp ****         mutex.wait();
 1068              		.loc 4 27 28
 1069 0520 13050A45 		addi	a0,s4,1104
 1070              	.LVL91:
 1071              	.LEHB3:
 1072 0524 97000000 		call	_ZN10KSemaphore4waitEv
 1072      E7800000 
 1073              	.LVL92:
  28:src/kernel/interrupt/../../../h/../h/../h/shared_buffer.hpp **** 
 1074              		.loc 4 28 19
 1075 052c 930A0A40 		addi	s5,s4,1024
 1076              	.LVL93:
 1077 0530 13850A00 		mv	a0,s5
 1078 0534 97000000 		call	_ZN10KSemaphore4waitEv
 1078      E7800000 
 1079              	.LVL94:
  30:src/kernel/interrupt/../../../h/../h/../h/shared_buffer.hpp ****         buffer[tail]=c;
 1080              		.loc 4 30 9
 1081 053c 83270A48 		lw	a5,1152(s4)
 1082 0540 9B871700 		addiw	a5,a5,1
 1083 0544 2320FA48 		sw	a5,1152(s4)
  31:src/kernel/interrupt/../../../h/../h/../h/shared_buffer.hpp ****         tail=(tail+1)%BUFFER_SIZE;
 1084              		.loc 4 31 16
 1085 0548 8327CA47 		lw	a5,1148(s4)
  31:src/kernel/interrupt/../../../h/../h/../h/shared_buffer.hpp ****         tail=(tail+1)%BUFFER_SIZE;
 1086              		.loc 4 31 9
 1087 054c 3307FA00 		add	a4,s4,a5
 1088 0550 23003701 		sb	s3,0(a4)
  32:src/kernel/interrupt/../../../h/../h/../h/shared_buffer.hpp ****     
 1089              		.loc 4 32 19
 1090 0554 9B871700 		addiw	a5,a5,1
  32:src/kernel/interrupt/../../../h/../h/../h/shared_buffer.hpp ****     
 1091              		.loc 4 32 22
 1092 0558 1BD7F741 		sraiw	a4,a5,31
 1093 055c 1B576701 		srliw	a4,a4,22
 1094 0560 BB87E700 		addw	a5,a5,a4
 1095 0564 93F7F73F 		andi	a5,a5,1023
 1096 0568 BB87E740 		subw	a5,a5,a4
  32:src/kernel/interrupt/../../../h/../h/../h/shared_buffer.hpp ****     
 1097              		.loc 4 32 9
 1098 056c 232EFA46 		sw	a5,1148(s4)
  34:src/kernel/interrupt/../../../h/../h/../h/shared_buffer.hpp ****         mutex.signal();
 1099              		.loc 4 34 29
 1100 0570 13058A42 		addi	a0,s4,1064
GAS LISTING /tmp/ccce4vZ9.s 			page 33


 1101 0574 97000000 		call	_ZN10KSemaphore6signalEv
 1101      E7800000 
 1102              	.LVL95:
  35:src/kernel/interrupt/../../../h/../h/../h/shared_buffer.hpp ****     }
 1103              		.loc 4 35 21
 1104 057c 13850A00 		mv	a0,s5
 1105 0580 97000000 		call	_ZN10KSemaphore6signalEv
 1105      E7800000 
 1106              	.LVL96:
 1107              	.LBE332:
 1108              	.LBE331:
 1109              	.LBE330:
 1110              	.LBE344:
 1111              	.LBE352:
 1112              	.LBE369:
 1113              	.LBE378:
 1114              	.LBE391:
 1115              	.LBE408:
 1116              	.LBE424:
 1117              	.LBE440:
 1118              	.LBE457:
 147:src/kernel/interrupt/interrupt_cpp.cpp ****     
 1119              		.loc 1 147 68
 1120 0588 13850400 		mv	a0,s1
 1121 058c 6F008001 		j	.L51
 1122              	.LVL97:
 1123              	.L75:
 1124              	.LBB458:
 151:src/kernel/interrupt/interrupt_cpp.cpp ****     }
 1125              		.loc 1 151 9 is_stmt 1
 151:src/kernel/interrupt/interrupt_cpp.cpp ****     }
 1126              		.loc 1 151 52 is_stmt 0
 1127 0590 97000000 		call	_ZN15MemoryAllocator11getInstanceEv
 1127      E7800000 
 1128              	.LVL98:
 151:src/kernel/interrupt/interrupt_cpp.cpp ****     }
 1129              		.loc 1 151 63
 1130 0598 93850900 		mv	a1,s3
 1131 059c 97000000 		call	_ZN15MemoryAllocator9mem_allocEm
 1131      E7800000 
 1132              	.LVL99:
 1133              	.L51:
 1134              	.LBE458:
 219:src/kernel/interrupt/interrupt_cpp.cpp ****     }
 220:src/kernel/interrupt/interrupt_cpp.cpp ****     Riscv::w_sepc(sepc);
 1135              		.loc 1 220 5 is_stmt 1
 1136              	.LBB459:
 1137              	.LBB460:
 141:src/kernel/interrupt/../../../h/../h/riscv.hpp **** }
 1138              		.loc 3 141 5
 141:src/kernel/interrupt/../../../h/../h/riscv.hpp **** }
 1139              		.loc 3 141 49 is_stmt 0
 1140              	 #APP
 1141              	# 141 "src/kernel/interrupt/../../../h/../h/riscv.hpp" 1
 1142              		csrw sepc, s2
 1143              	# 0 "" 2
 1144              	.LVL100:
GAS LISTING /tmp/ccce4vZ9.s 			page 34


 1145              	 #NO_APP
 1146              	.LBE460:
 1147              	.LBE459:
 221:src/kernel/interrupt/interrupt_cpp.cpp ****     return ret;
 1148              		.loc 1 221 5 is_stmt 1
 222:src/kernel/interrupt/interrupt_cpp.cpp **** }
 1149              		.loc 1 222 1 is_stmt 0
 1150 05a8 83308104 		ld	ra,72(sp)
 1151              		.cfi_remember_state
 1152              		.cfi_restore 1
 1153 05ac 03340104 		ld	s0,64(sp)
 1154              		.cfi_restore 8
 1155              		.cfi_def_cfa 2, 80
 1156 05b0 83348103 		ld	s1,56(sp)
 1157              		.cfi_restore 9
 1158 05b4 03390103 		ld	s2,48(sp)
 1159              		.cfi_restore 18
 1160              	.LVL101:
 1161 05b8 83398102 		ld	s3,40(sp)
 1162              		.cfi_restore 19
 1163 05bc 033A0102 		ld	s4,32(sp)
 1164              		.cfi_restore 20
 1165 05c0 833A8101 		ld	s5,24(sp)
 1166              		.cfi_restore 21
 1167 05c4 13010105 		addi	sp,sp,80
 1168              		.cfi_def_cfa_offset 0
 1169 05c8 67800000 		jr	ra
 1170              	.LVL102:
 1171              	.L76:
 1172              		.cfi_restore_state
 1173              	.LBB461:
 1174              	.LBB441:
 156:src/kernel/interrupt/interrupt_cpp.cpp ****     
 1175              		.loc 1 156 9 is_stmt 1
 156:src/kernel/interrupt/interrupt_cpp.cpp ****     
 1176              		.loc 1 156 52 is_stmt 0
 1177 05cc 97000000 		call	_ZN15MemoryAllocator11getInstanceEv
 1177      E7800000 
 1178              	.LVL103:
 156:src/kernel/interrupt/interrupt_cpp.cpp ****     
 1179              		.loc 1 156 62
 1180 05d4 93850900 		mv	a1,s3
 1181 05d8 97000000 		call	_ZN15MemoryAllocator8mem_freeEPv
 1181      E7800000 
 1182              	.LVL104:
 1183 05e0 6FF05FFC 		j	.L51
 1184              	.LVL105:
 1185              	.L77:
 1186              	.LBB425:
 1187              	.LBB409:
 162:src/kernel/interrupt/interrupt_cpp.cpp ****         *t = (uint64)TCB::createThread((TCB::Body)a2, (void*)a3, (uint64*)a4); 
 1188              		.loc 1 162 9 is_stmt 1
 163:src/kernel/interrupt/interrupt_cpp.cpp ****         if(!(*t)) ret = -4;
 1189              		.loc 1 163 9
 163:src/kernel/interrupt/interrupt_cpp.cpp ****         if(!(*t)) ret = -4;
 1190              		.loc 1 163 39 is_stmt 0
 1191 05e4 13060700 		mv	a2,a4
GAS LISTING /tmp/ccce4vZ9.s 			page 35


 1192              	.LVL106:
 1193 05e8 93850600 		mv	a1,a3
 1194              	.LVL107:
 1195 05ec 13850A00 		mv	a0,s5
 1196 05f0 97000000 		call	_ZN3TCB12createThreadEPFvPvES0_Pm
 1196      E7800000 
 1197              	.LVL108:
 163:src/kernel/interrupt/interrupt_cpp.cpp ****         if(!(*t)) ret = -4;
 1198              		.loc 1 163 12
 1199 05f8 23B0A900 		sd	a0,0(s3)
 164:src/kernel/interrupt/interrupt_cpp.cpp ****         else ret = 0;
 1200              		.loc 1 164 9 is_stmt 1
 1201 05fc 63060500 		beq	a0,zero,.L87
 165:src/kernel/interrupt/interrupt_cpp.cpp ****     }
 1202              		.loc 1 165 18 is_stmt 0
 1203 0600 13050000 		li	a0,0
 1204 0604 6FF01FFA 		j	.L51
 1205              	.L87:
 164:src/kernel/interrupt/interrupt_cpp.cpp ****         else ret = 0;
 1206              		.loc 1 164 23
 1207 0608 1305C0FF 		li	a0,-4
 1208 060c 6FF09FF9 		j	.L51
 1209              	.LVL109:
 1210              	.L78:
 1211              	.LBE409:
 1212              	.LBB410:
 170:src/kernel/interrupt/interrupt_cpp.cpp ****         TCB::dispatch();
 1213              		.loc 1 170 9 is_stmt 1
 170:src/kernel/interrupt/interrupt_cpp.cpp ****         TCB::dispatch();
 1214              		.loc 1 170 29 is_stmt 0
 1215 0610 97070000 		lla	a5,_ZN3TCB7runningE
 1215      93870700 
 1216 0618 83B70700 		ld	a5,0(a5)
 1217              	.LVL110:
 1218              	.LBB392:
 1219              	.LBB393:
  44:src/kernel/interrupt/../../../h/../h/tcb.hpp ****     bool isFinished(){ return state == FINISHED; }
 1220              		.loc 2 44 21 is_stmt 1
  44:src/kernel/interrupt/../../../h/../h/tcb.hpp ****     bool isFinished(){ return state == FINISHED; }
 1221              		.loc 2 44 27 is_stmt 0
 1222 061c 13072000 		li	a4,2
 1223              	.LVL111:
 1224 0620 23A8E702 		sw	a4,48(a5)
 1225              	.LVL112:
 1226              	.LBE393:
 1227              	.LBE392:
 171:src/kernel/interrupt/interrupt_cpp.cpp ****         Riscv::w_sstatus(sstatus);
 1228              		.loc 1 171 9 is_stmt 1
 171:src/kernel/interrupt/interrupt_cpp.cpp ****         Riscv::w_sstatus(sstatus);
 1229              		.loc 1 171 22 is_stmt 0
 1230 0624 97000000 		call	_ZN3TCB8dispatchEv
 1230      E7800000 
 1231              	.LVL113:
 172:src/kernel/interrupt/interrupt_cpp.cpp ****     }
 1232              		.loc 1 172 9 is_stmt 1
 1233              	.LBB394:
 1234              	.LBB395:
GAS LISTING /tmp/ccce4vZ9.s 			page 36


 215:src/kernel/interrupt/../../../h/../h/riscv.hpp **** }
 1235              		.loc 3 215 5
 215:src/kernel/interrupt/../../../h/../h/riscv.hpp **** }
 1236              		.loc 3 215 55 is_stmt 0
 1237              	 #APP
 1238              	# 215 "src/kernel/interrupt/../../../h/../h/riscv.hpp" 1
 1239              		csrw sstatus, s4
 1240              	# 0 "" 2
 1241              	 #NO_APP
 1242              	.LBE395:
 1243              	.LBE394:
 1244              	.LBE410:
 1245              	.LBE425:
 1246              	.LBE441:
 1247              	.LBE461:
 147:src/kernel/interrupt/interrupt_cpp.cpp ****     
 1248              		.loc 1 147 68
 1249 0630 13850400 		mv	a0,s1
 1250 0634 6FF01FF7 		j	.L51
 1251              	.LVL114:
 1252              	.L79:
 1253              	.LBB462:
 1254              	.LBB442:
 1255              	.LBB426:
 1256              	.LBB411:
 1257              	.LBB396:
 177:src/kernel/interrupt/interrupt_cpp.cpp ****         TCB::yield();
 1258              		.loc 1 177 9 is_stmt 1
 177:src/kernel/interrupt/interrupt_cpp.cpp ****         TCB::yield();
 1259              		.loc 1 177 31 is_stmt 0
 1260 0638 97070000 		sd	zero,_ZN3TCB16timeSliceCounterE,a5
 1260      23B00700 
 178:src/kernel/interrupt/interrupt_cpp.cpp ****         Riscv::w_sstatus(sstatus);
 1261              		.loc 1 178 9 is_stmt 1
 178:src/kernel/interrupt/interrupt_cpp.cpp ****         Riscv::w_sstatus(sstatus);
 1262              		.loc 1 178 19 is_stmt 0
 1263 0640 97000000 		call	_ZN3TCB5yieldEv
 1263      E7800000 
 1264              	.LVL115:
 179:src/kernel/interrupt/interrupt_cpp.cpp ****     }
 1265              		.loc 1 179 9 is_stmt 1
 1266              	.LBB379:
 1267              	.LBB380:
 215:src/kernel/interrupt/../../../h/../h/riscv.hpp **** }
 1268              		.loc 3 215 5
 215:src/kernel/interrupt/../../../h/../h/riscv.hpp **** }
 1269              		.loc 3 215 55 is_stmt 0
 1270              	 #APP
 1271              	# 215 "src/kernel/interrupt/../../../h/../h/riscv.hpp" 1
 1272              		csrw sstatus, s4
 1273              	# 0 "" 2
 1274              	 #NO_APP
 1275              	.LBE380:
 1276              	.LBE379:
 1277              	.LBE396:
 1278              	.LBE411:
 1279              	.LBE426:
GAS LISTING /tmp/ccce4vZ9.s 			page 37


 1280              	.LBE442:
 1281              	.LBE462:
 147:src/kernel/interrupt/interrupt_cpp.cpp ****     
 1282              		.loc 1 147 68
 1283 064c 13850400 		mv	a0,s1
 1284 0650 6FF05FF5 		j	.L51
 1285              	.LVL116:
 1286              	.L80:
 1287              	.LBB463:
 1288              	.LBB443:
 1289              	.LBB427:
 1290              	.LBB412:
 1291              	.LBB397:
 1292              	.LBB381:
 184:src/kernel/interrupt/interrupt_cpp.cpp ****     }
 1293              		.loc 1 184 9 is_stmt 1
 184:src/kernel/interrupt/interrupt_cpp.cpp ****     }
 1294              		.loc 1 184 26 is_stmt 0
 1295 0654 13850500 		mv	a0,a1
 1296 0658 97000000 		call	_ZN3TCB12deleteThreadEPS_
 1296      E7800000 
 1297              	.LVL117:
 1298              	.LBE381:
 1299              	.LBE397:
 1300              	.LBE412:
 1301              	.LBE427:
 1302              	.LBE443:
 1303              	.LBE463:
 147:src/kernel/interrupt/interrupt_cpp.cpp ****     
 1304              		.loc 1 147 68
 1305 0660 13850400 		mv	a0,s1
 1306              	.LBB464:
 1307              	.LBB444:
 1308              	.LBB428:
 1309              	.LBB413:
 1310              	.LBB398:
 1311              	.LBB382:
 1312 0664 6FF01FF4 		j	.L51
 1313              	.LVL118:
 1314              	.L81:
 1315              	.LBB370:
 1316              	.LBB353:
 188:src/kernel/interrupt/interrupt_cpp.cpp ****         *t = (uint64)(new KSemaphore(a2));
 1317              		.loc 1 188 9 is_stmt 1
 189:src/kernel/interrupt/interrupt_cpp.cpp ****     }
 1318              		.loc 1 189 9
 1319              	.LBB354:
 1320              	.LBB355:
  15:src/kernel/interrupt/../../../h/../h/ksemaphore.hpp **** 
 1321              		.loc 5 15 5
 1322 0668 97070000 		lla	a5,_ZN10KSemaphore5cacheE
 1322      93870700 
 1323 0670 83B70700 		ld	a5,0(a5)
 1324 0674 63860704 		beq	a5,zero,.L88
 1325              	.LVL119:
 1326              	.L58:
  15:src/kernel/interrupt/../../../h/../h/ksemaphore.hpp **** 
GAS LISTING /tmp/ccce4vZ9.s 			page 38


 1327              		.loc 5 15 5
 1328 0678 97070000 		lla	a5,_ZN10KSemaphore5cacheE
 1328      93870700 
 1329 0680 03B50700 		ld	a0,0(a5)
 1330 0684 97000000 		call	_ZN11ObjectCache9alloc_objEv
 1330      E7800000 
 1331              	.LVL120:
 1332              	.LBE355:
 1333              	.LBE354:
 189:src/kernel/interrupt/interrupt_cpp.cpp ****     }
 1334              		.loc 1 189 12 is_stmt 0
 1335 068c 63040502 		beq	a0,zero,.L63
 1336              	.LVL121:
 1337              	.LBB357:
 1338              	.LBB358:
  17:src/kernel/interrupt/../../../h/../h/ksemaphore.hpp ****     {
 1339              		.loc 5 17 37 discriminator 1
 1340 0690 23245501 		sw	s5,8(a0)
 1341              	.LVL122:
 1342              	.LBB359:
 1343              	.LBB360:
 1344              		.loc 6 26 54 discriminator 1
 1345 0694 23380500 		sd	zero,16(a0)
 1346 0698 233C0500 		sd	zero,24(a0)
 1347 069c 23200502 		sw	zero,32(a0)
 1348              	.LVL123:
 1349              	.LBE360:
 1350              	.LBE359:
  23:src/kernel/interrupt/../../../h/../h/ksemaphore.hpp ****         activeSemaphores = this;
 1351              		.loc 5 23 9 is_stmt 1 discriminator 1
  23:src/kernel/interrupt/../../../h/../h/ksemaphore.hpp ****         activeSemaphores = this;
 1352              		.loc 5 23 14 is_stmt 0 discriminator 1
 1353 06a0 97070000 		lla	a5,_ZN10KSemaphore16activeSemaphoresE
 1353      93870700 
 1354 06a8 03B70700 		ld	a4,0(a5)
 1355 06ac 2330E500 		sd	a4,0(a0)
 1356              		.loc 5 24 9 is_stmt 1 discriminator 1
 1357              		.loc 5 24 26 is_stmt 0 discriminator 1
 1358 06b0 23B0A700 		sd	a0,0(a5)
 1359              	.LVL124:
 1360              	.L63:
 1361              	.LBE358:
 1362              	.LBE357:
 189:src/kernel/interrupt/interrupt_cpp.cpp ****     }
 1363              		.loc 1 189 12 discriminator 4
 1364 06b4 23B0A900 		sd	a0,0(s3)
 1365              	.LBE353:
 1366              	.LBE370:
 1367              	.LBE382:
 1368              	.LBE398:
 1369              	.LBE413:
 1370              	.LBE428:
 1371              	.LBE444:
 1372              	.LBE464:
 147:src/kernel/interrupt/interrupt_cpp.cpp ****     
 1373              		.loc 1 147 68 discriminator 4
 1374 06b8 13850400 		mv	a0,s1
GAS LISTING /tmp/ccce4vZ9.s 			page 39


 1375              	.LBB465:
 1376              	.LBB445:
 1377              	.LBB429:
 1378              	.LBB414:
 1379              	.LBB399:
 1380              	.LBB383:
 1381              	.LBB371:
 1382 06bc 6FF09FEE 		j	.L51
 1383              	.LVL125:
 1384              	.L88:
 1385              	.LBB362:
 1386              	.LBB361:
 1387              	.LBB356:
  15:src/kernel/interrupt/../../../h/../h/ksemaphore.hpp **** 
 1388              		.loc 5 15 5 is_stmt 1
 1389 06c0 13058005 		li	a0,88
 1390 06c4 97000000 		call	_ZN11ObjectCachenwEm
 1390      E7800000 
 1391              	.LVL126:
 1392              	.LEHE3:
 1393 06cc 130A0500 		mv	s4,a0
 1394              	.LVL127:
 1395 06d0 63020502 		beq	a0,zero,.L59
 1396 06d4 93070000 		li	a5,0
 1397 06d8 13070000 		li	a4,0
 1398 06dc 93060000 		li	a3,0
 1399 06e0 13068002 		li	a2,40
 1400 06e4 97050000 		lla	a1,.LC0
 1400      93850500 
 1401              	.LEHB4:
 1402 06ec 97000000 		call	_ZN11ObjectCacheC1EPKcmPFvPvES4_NS_12SlabMetaTypeE
 1402      E7800000 
 1403              	.LVL128:
 1404              	.LEHE4:
 1405              	.L59:
 1406 06f4 97070000 		sd	s4,_ZN10KSemaphore5cacheE,a5
 1406      23B04701 
 1407 06fc 6FF0DFF7 		j	.L58
 1408              	.L72:
 1409 0700 93040500 		mv	s1,a0
 1410              	.LVL129:
 1411 0704 13050A00 		mv	a0,s4
 1412 0708 97000000 		call	_ZN11ObjectCachedlEPv
 1412      E7800000 
 1413              	.LVL130:
 1414 0710 13850400 		mv	a0,s1
 1415              	.LEHB5:
 1416 0714 97000000 		call	_Unwind_Resume
 1416      E7800000 
 1417              	.LVL131:
 1418              	.L82:
 1419              	.LBE356:
 1420              	.LBE361:
 1421              	.LBE362:
 1422              	.LBB363:
 1423              	.LBB345:
 193:src/kernel/interrupt/interrupt_cpp.cpp ****         delete t;
GAS LISTING /tmp/ccce4vZ9.s 			page 40


 1424              		.loc 1 193 9
 194:src/kernel/interrupt/interrupt_cpp.cpp ****     }
 1425              		.loc 1 194 9
 194:src/kernel/interrupt/interrupt_cpp.cpp ****     }
 1426              		.loc 1 194 17 is_stmt 0
 1427 071c E38405E8 		beq	a1,zero,.L51
 194:src/kernel/interrupt/interrupt_cpp.cpp ****     }
 1428              		.loc 1 194 16 discriminator 1
 1429 0720 13850500 		mv	a0,a1
 1430 0724 97000000 		call	_ZN10KSemaphoreD1Ev
 1430      E7800000 
 1431              	.LVL132:
 1432              	.LBB346:
 1433              	.LBB347:
  15:src/kernel/interrupt/../../../h/../h/ksemaphore.hpp **** 
 1434              		.loc 5 15 5 is_stmt 1 discriminator 1
 1435 072c 93850900 		mv	a1,s3
 1436 0730 97070000 		lla	a5,_ZN10KSemaphore5cacheE
 1436      93870700 
 1437 0738 03B50700 		ld	a0,0(a5)
 1438 073c 97000000 		call	_ZN11ObjectCache8free_objEPv
 1438      E7800000 
 1439              	.LVL133:
 1440              	.LBE347:
 1441              	.LBE346:
 1442              	.LBE345:
 1443              	.LBE363:
 1444              	.LBE371:
 1445              	.LBE383:
 1446              	.LBE399:
 1447              	.LBE414:
 1448              	.LBE429:
 1449              	.LBE445:
 1450              	.LBE465:
 147:src/kernel/interrupt/interrupt_cpp.cpp ****     
 1451              		.loc 1 147 68 is_stmt 0 discriminator 1
 1452 0744 13850400 		mv	a0,s1
 1453 0748 6FF0DFE5 		j	.L51
 1454              	.LVL134:
 1455              	.L83:
 1456              	.LBB466:
 1457              	.LBB446:
 1458              	.LBB430:
 1459              	.LBB415:
 1460              	.LBB400:
 1461              	.LBB384:
 1462              	.LBB372:
 1463              	.LBB364:
 1464              	.LBB348:
 1465              	.LBB338:
 198:src/kernel/interrupt/interrupt_cpp.cpp ****         ret = t->wait();
 1466              		.loc 1 198 9 is_stmt 1
 199:src/kernel/interrupt/interrupt_cpp.cpp ****         Riscv::w_sstatus(sstatus);
 1467              		.loc 1 199 9
 199:src/kernel/interrupt/interrupt_cpp.cpp ****         Riscv::w_sstatus(sstatus);
 1468              		.loc 1 199 22 is_stmt 0
 1469 074c 13850500 		mv	a0,a1
GAS LISTING /tmp/ccce4vZ9.s 			page 41


 1470 0750 97000000 		call	_ZN10KSemaphore4waitEv
 1470      E7800000 
 1471              	.LVL135:
 200:src/kernel/interrupt/interrupt_cpp.cpp ****     }
 1472              		.loc 1 200 9 is_stmt 1
 1473              	.LBB339:
 1474              	.LBB340:
 215:src/kernel/interrupt/../../../h/../h/riscv.hpp **** }
 1475              		.loc 3 215 5
 215:src/kernel/interrupt/../../../h/../h/riscv.hpp **** }
 1476              		.loc 3 215 55 is_stmt 0
 1477              	 #APP
 1478              	# 215 "src/kernel/interrupt/../../../h/../h/riscv.hpp" 1
 1479              		csrw sstatus, s4
 1480              	# 0 "" 2
 1481              	 #NO_APP
 1482 075c 6FF09FE4 		j	.L51
 1483              	.LVL136:
 1484              	.L84:
 1485              	.LBE340:
 1486              	.LBE339:
 1487              	.LBE338:
 1488              	.LBB341:
 1489              	.LBB333:
 204:src/kernel/interrupt/interrupt_cpp.cpp ****         t->signal();
 1490              		.loc 1 204 9 is_stmt 1
 205:src/kernel/interrupt/interrupt_cpp.cpp ****     }
 1491              		.loc 1 205 9
 205:src/kernel/interrupt/interrupt_cpp.cpp ****     }
 1492              		.loc 1 205 18 is_stmt 0
 1493 0760 13850500 		mv	a0,a1
 1494 0764 97000000 		call	_ZN10KSemaphore6signalEv
 1494      E7800000 
 1495              	.LVL137:
 1496              	.LBE333:
 1497              	.LBE341:
 1498              	.LBE348:
 1499              	.LBE364:
 1500              	.LBE372:
 1501              	.LBE384:
 1502              	.LBE400:
 1503              	.LBE415:
 1504              	.LBE430:
 1505              	.LBE446:
 1506              	.LBE466:
 147:src/kernel/interrupt/interrupt_cpp.cpp ****     
 1507              		.loc 1 147 68
 1508 076c 13850400 		mv	a0,s1
 1509              	.LBB467:
 1510              	.LBB447:
 1511              	.LBB431:
 1512              	.LBB416:
 1513              	.LBB401:
 1514              	.LBB385:
 1515              	.LBB373:
 1516              	.LBB365:
 1517              	.LBB349:
GAS LISTING /tmp/ccce4vZ9.s 			page 42


 1518              	.LBB342:
 1519 0770 6FF05FE3 		j	.L51
 1520              	.LVL138:
 1521              	.L85:
 209:src/kernel/interrupt/interrupt_cpp.cpp ****         Riscv::w_sstatus(sstatus);
 1522              		.loc 1 209 9 is_stmt 1
 209:src/kernel/interrupt/interrupt_cpp.cpp ****         Riscv::w_sstatus(sstatus);
 1523              		.loc 1 209 19 is_stmt 0
 1524 0774 13850500 		mv	a0,a1
 1525 0778 97000000 		call	_ZN3TCB5sleepEm
 1525      E7800000 
 1526              	.LVL139:
 210:src/kernel/interrupt/interrupt_cpp.cpp ****     }
 1527              		.loc 1 210 9 is_stmt 1
 1528              	.LBB334:
 1529              	.LBB335:
 215:src/kernel/interrupt/../../../h/../h/riscv.hpp **** }
 1530              		.loc 3 215 5
 215:src/kernel/interrupt/../../../h/../h/riscv.hpp **** }
 1531              		.loc 3 215 55 is_stmt 0
 1532              	 #APP
 1533              	# 215 "src/kernel/interrupt/../../../h/../h/riscv.hpp" 1
 1534              		csrw sstatus, s4
 1535              	# 0 "" 2
 1536              	 #NO_APP
 1537              	.LBE335:
 1538              	.LBE334:
 1539              	.LBE342:
 1540              	.LBE349:
 1541              	.LBE365:
 1542              	.LBE373:
 1543              	.LBE385:
 1544              	.LBE401:
 1545              	.LBE416:
 1546              	.LBE431:
 1547              	.LBE447:
 1548              	.LBE467:
 147:src/kernel/interrupt/interrupt_cpp.cpp ****     
 1549              		.loc 1 147 68
 1550 0784 13850400 		mv	a0,s1
 1551 0788 6FF0DFE1 		j	.L51
 1552              	.LVL140:
 1553              	.L86:
 1554              	.LBB468:
 1555              	.LBB448:
 1556              	.LBB432:
 1557              	.LBB417:
 1558              	.LBB402:
 1559              	.LBB386:
 1560              	.LBB374:
 1561              	.LBB366:
 1562              	.LBB350:
 1563              	.LBB343:
 214:src/kernel/interrupt/interrupt_cpp.cpp ****     }
 1564              		.loc 1 214 9 is_stmt 1
 214:src/kernel/interrupt/interrupt_cpp.cpp ****     }
 1565              		.loc 1 214 34 is_stmt 0
GAS LISTING /tmp/ccce4vZ9.s 			page 43


 1566 078c 97070000 		lla	a5,_ZN5StdIO7ibufferE
 1566      93870700 
 1567 0794 83B90700 		ld	s3,0(a5)
 1568              	.LVL141:
 1569              	.LBB336:
 1570              	.LBB337:
  39:src/kernel/interrupt/../../../h/../h/../h/shared_buffer.hpp ****         mutex.wait();
 1571              		.loc 4 39 27
 1572 0798 13858942 		addi	a0,s3,1064
 1573 079c 97000000 		call	_ZN10KSemaphore4waitEv
 1573      E7800000 
 1574              	.LVL142:
  40:src/kernel/interrupt/../../../h/../h/../h/shared_buffer.hpp **** 
 1575              		.loc 4 40 19
 1576 07a4 138A0940 		addi	s4,s3,1024
 1577              	.LVL143:
 1578 07a8 13050A00 		mv	a0,s4
 1579 07ac 97000000 		call	_ZN10KSemaphore4waitEv
 1579      E7800000 
 1580              	.LVL144:
  42:src/kernel/interrupt/../../../h/../h/../h/shared_buffer.hpp ****         T r = buffer[head];
 1581              		.loc 4 42 9
 1582 07b4 83A70948 		lw	a5,1152(s3)
 1583 07b8 9B87F7FF 		addiw	a5,a5,-1
 1584 07bc 23A0F948 		sw	a5,1152(s3)
  43:src/kernel/interrupt/../../../h/../h/../h/shared_buffer.hpp ****         head = (head+1)%BUFFER_SIZE;
 1585              		.loc 4 43 22
 1586 07c0 83A78947 		lw	a5,1144(s3)
  43:src/kernel/interrupt/../../../h/../h/../h/shared_buffer.hpp ****         head = (head+1)%BUFFER_SIZE;
 1587              		.loc 4 43 11
 1588 07c4 3387F900 		add	a4,s3,a5
 1589 07c8 83440700 		lbu	s1,0(a4)
 1590              	.LVL145:
  44:src/kernel/interrupt/../../../h/../h/../h/shared_buffer.hpp **** 
 1591              		.loc 4 44 21
 1592 07cc 9B871700 		addiw	a5,a5,1
  44:src/kernel/interrupt/../../../h/../h/../h/shared_buffer.hpp **** 
 1593              		.loc 4 44 24
 1594 07d0 1BD7F741 		sraiw	a4,a5,31
 1595 07d4 1B576701 		srliw	a4,a4,22
 1596 07d8 BB87E700 		addw	a5,a5,a4
 1597 07dc 93F7F73F 		andi	a5,a5,1023
 1598 07e0 BB87E740 		subw	a5,a5,a4
  44:src/kernel/interrupt/../../../h/../h/../h/shared_buffer.hpp **** 
 1599              		.loc 4 44 9
 1600 07e4 23ACF946 		sw	a5,1144(s3)
  46:src/kernel/interrupt/../../../h/../h/../h/shared_buffer.hpp ****         mutex.signal();
 1601              		.loc 4 46 30
 1602 07e8 13850945 		addi	a0,s3,1104
 1603 07ec 97000000 		call	_ZN10KSemaphore6signalEv
 1603      E7800000 
 1604              	.LVL146:
 1605              		.loc 4 47 21
 1606 07f4 13050A00 		mv	a0,s4
 1607 07f8 97000000 		call	_ZN10KSemaphore6signalEv
 1607      E7800000 
 1608              	.LVL147:
GAS LISTING /tmp/ccce4vZ9.s 			page 44


 1609              	.LEHE5:
 1610              	.LBE337:
 1611              	.LBE336:
 214:src/kernel/interrupt/interrupt_cpp.cpp ****     }
 1612              		.loc 1 214 13
 1613 0800 13850400 		mv	a0,s1
 1614              	.LVL148:
 1615 0804 6FF01FDA 		j	.L51
 1616              	.LBE343:
 1617              	.LBE350:
 1618              	.LBE366:
 1619              	.LBE374:
 1620              	.LBE386:
 1621              	.LBE402:
 1622              	.LBE417:
 1623              	.LBE432:
 1624              	.LBE448:
 1625              	.LBE468:
 1626              		.cfi_endproc
 1627              	.LFE115:
 1628              		.section	.gcc_except_table
 1629              	.LLSDA115:
 1630 002b FF       		.byte	0xff
 1631 002c FF       		.byte	0xff
 1632 002d 03       		.byte	0x3
 1633 002e 27       		.byte	0x27
 1634 002f 00000000 		.4byte	.LEHB3-.LFB115
 1635 0033 00000000 		.4byte	.LEHE3-.LEHB3
 1636 0037 00000000 		.4byte	0
 1637 003b 00       		.byte	0
 1638 003c 00000000 		.4byte	.LEHB4-.LFB115
 1639 0040 00000000 		.4byte	.LEHE4-.LEHB4
 1640 0044 00000000 		.4byte	.L72-.LFB115
 1641 0048 00       		.byte	0
 1642 0049 00000000 		.4byte	.LEHB5-.LFB115
 1643 004d 00000000 		.4byte	.LEHE5-.LEHB5
 1644 0051 00000000 		.4byte	0
 1645 0055 00       		.byte	0
 1646              		.text
 1648              		.align	2
 1649              		.globl	interrupt
 1651              	interrupt:
 1652              	.LFB116:
 223:src/kernel/interrupt/interrupt_cpp.cpp **** 
 224:src/kernel/interrupt/interrupt_cpp.cpp **** extern "C" volatile  void interrupt(uint64 a0, uint64 a1, uint64 a2, uint64 a3, uint64 a4)
 225:src/kernel/interrupt/interrupt_cpp.cpp **** {
 1653              		.loc 1 225 1 is_stmt 1
 1654              		.cfi_startproc
 1655              	.LVL149:
 1656 0808 130101FA 		addi	sp,sp,-96
 1657              		.cfi_def_cfa_offset 96
 1658 080c 233C1104 		sd	ra,88(sp)
 1659 0810 23388104 		sd	s0,80(sp)
 1660 0814 23349104 		sd	s1,72(sp)
 1661 0818 23302105 		sd	s2,64(sp)
 1662 081c 233C3103 		sd	s3,56(sp)
 1663 0820 23384103 		sd	s4,48(sp)
GAS LISTING /tmp/ccce4vZ9.s 			page 45


 1664              		.cfi_offset 1, -8
 1665              		.cfi_offset 8, -16
 1666              		.cfi_offset 9, -24
 1667              		.cfi_offset 18, -32
 1668              		.cfi_offset 19, -40
 1669              		.cfi_offset 20, -48
 1670 0824 13040106 		addi	s0,sp,96
 1671              		.cfi_def_cfa 8, 0
 226:src/kernel/interrupt/interrupt_cpp.cpp ****     uint64 scause = Riscv::r_scause();
 1672              		.loc 1 226 5
 1673              	.LBB469:
 1674              	.LBB470:
 135:src/kernel/interrupt/../../../h/../h/riscv.hpp ****     asm volatile("csrr %0, scause" : "=r" (scause));
 1675              		.loc 3 135 5
 136:src/kernel/interrupt/../../../h/../h/riscv.hpp ****     return scause;
 1676              		.loc 3 136 5
 136:src/kernel/interrupt/../../../h/../h/riscv.hpp ****     return scause;
 1677              		.loc 3 136 52 is_stmt 0
 1678              	 #APP
 1679              	# 136 "src/kernel/interrupt/../../../h/../h/riscv.hpp" 1
 1680              		csrr a5, scause
 1681              	# 0 "" 2
 1682              	 #NO_APP
 1683 082c 2334F4FA 		sd	a5,-88(s0)
 137:src/kernel/interrupt/../../../h/../h/riscv.hpp **** } 
 1684              		.loc 3 137 5 is_stmt 1
 137:src/kernel/interrupt/../../../h/../h/riscv.hpp **** } 
 1685              		.loc 3 137 12 is_stmt 0
 1686 0830 833484FA 		ld	s1,-88(s0)
 1687              	.LVL150:
 1688              	.LBE470:
 1689              	.LBE469:
 227:src/kernel/interrupt/interrupt_cpp.cpp ****     //static bool panic = 0;
 228:src/kernel/interrupt/interrupt_cpp.cpp ****     //KCHECKPRINT(scause);
 229:src/kernel/interrupt/interrupt_cpp.cpp ****     if(scause == IS)
 1690              		.loc 1 229 5 is_stmt 1
 1691              	.LBB471:
 1692 0834 93079000 		li	a5,9
 1693 0838 6384F414 		beq	s1,a5,.L109
 1694              	.LBE471:
 230:src/kernel/interrupt/interrupt_cpp.cpp ****     {
 231:src/kernel/interrupt/interrupt_cpp.cpp ****         //ecall iz sistemskog rezima
 232:src/kernel/interrupt/interrupt_cpp.cpp ****         a0 = sysEcall(a0, a1, a2, a3, a4);
 233:src/kernel/interrupt/interrupt_cpp.cpp ****         asm volatile("sd %0, 10 * 8(s0)" :: "r" (a0));
 234:src/kernel/interrupt/interrupt_cpp.cpp ****     
 235:src/kernel/interrupt/interrupt_cpp.cpp ****     } 
 236:src/kernel/interrupt/interrupt_cpp.cpp ****     else if(scause == IU)
 1695              		.loc 1 236 10
 1696              	.LBB541:
 1697              	.LBB472:
 1698 083c 93078000 		li	a5,8
 1699 0840 6386F416 		beq	s1,a5,.L110
 1700              	.LBE472:
 1701              	.LBE541:
 237:src/kernel/interrupt/interrupt_cpp.cpp ****     {
 238:src/kernel/interrupt/interrupt_cpp.cpp ****         //ecall iz korisnickog rezima
 239:src/kernel/interrupt/interrupt_cpp.cpp ****         a0 = usrEcall(a0, a1, a2, a3, a4);
GAS LISTING /tmp/ccce4vZ9.s 			page 46


 240:src/kernel/interrupt/interrupt_cpp.cpp ****         asm volatile("sd %0, 10 * 8(s0)" :: "r" (a0));
 241:src/kernel/interrupt/interrupt_cpp.cpp ****         
 242:src/kernel/interrupt/interrupt_cpp.cpp ****     } 
 243:src/kernel/interrupt/interrupt_cpp.cpp ****     else if(scause == IH)
 1702              		.loc 1 243 10
 1703              	.LBB542:
 1704              	.LBB533:
 1705              	.LBB473:
 1706 0844 9307F0FF 		li	a5,-1
 1707 0848 9397F703 		slli	a5,a5,63
 1708 084c 93879700 		addi	a5,a5,9
 1709 0850 6386F416 		beq	s1,a5,.L111
 1710              	.LBE473:
 1711              	.LBE533:
 1712              	.LBE542:
 244:src/kernel/interrupt/interrupt_cpp.cpp ****     {
 245:src/kernel/interrupt/interrupt_cpp.cpp ****         //hardverski prekid
 246:src/kernel/interrupt/interrupt_cpp.cpp ****        StdIO::console_handler();
 247:src/kernel/interrupt/interrupt_cpp.cpp ****     
 248:src/kernel/interrupt/interrupt_cpp.cpp ****     } 
 249:src/kernel/interrupt/interrupt_cpp.cpp ****     else if(scause == IT)
 1713              		.loc 1 249 10
 1714              	.LBB543:
 1715              	.LBB534:
 1716              	.LBB526:
 1717              	.LBB474:
 1718 0854 9307F0FF 		li	a5,-1
 1719 0858 9397F703 		slli	a5,a5,63
 1720 085c 93871700 		addi	a5,a5,1
 1721 0860 6384F416 		beq	s1,a5,.L112
 1722              	.LBE474:
 1723              	.LBE526:
 1724              	.LBE534:
 1725              	.LBE543:
 250:src/kernel/interrupt/interrupt_cpp.cpp ****     {
 251:src/kernel/interrupt/interrupt_cpp.cpp ****         //prekid od timera
 252:src/kernel/interrupt/interrupt_cpp.cpp ****         timer_handler();      
 253:src/kernel/interrupt/interrupt_cpp.cpp ****     
 254:src/kernel/interrupt/interrupt_cpp.cpp ****     }
 255:src/kernel/interrupt/interrupt_cpp.cpp ****     else if(scause == PFI){
 1726              		.loc 1 255 10
 1727              	.LBB544:
 1728              	.LBB535:
 1729              	.LBB527:
 1730              	.LBB520:
 1731              	.LBB475:
 1732 0864 9307C000 		li	a5,12
 1733 0868 6386F416 		beq	s1,a5,.L113
 1734              	.LBE475:
 1735              	.LBE520:
 1736              	.LBE527:
 1737              	.LBE535:
 1738              	.LBE544:
 256:src/kernel/interrupt/interrupt_cpp.cpp ****         if(TCB::running->getState() == TCB::TCBState::PREPARING){
 257:src/kernel/interrupt/interrupt_cpp.cpp ****             TCB::running->setState(TCB::TCBState::READY);
 258:src/kernel/interrupt/interrupt_cpp.cpp ****             asm volatile("sd %0, 1 * 8(s0)" :: "r" (thread_exit));
 259:src/kernel/interrupt/interrupt_cpp.cpp ****             Riscv::mc_sstatus(Riscv::BitMaskSstatus::SSTATUS_SPP);
GAS LISTING /tmp/ccce4vZ9.s 			page 47


 260:src/kernel/interrupt/interrupt_cpp.cpp ****         }
 261:src/kernel/interrupt/interrupt_cpp.cpp ****         else{
 262:src/kernel/interrupt/interrupt_cpp.cpp ****             uint64 stval = Riscv::r_stval(), sepc = Riscv::r_sepc();
 263:src/kernel/interrupt/interrupt_cpp.cpp ****             kprintString("\n!!!PANIC DUE TO NOT HANDLED INSTRUCTION PAGE FAULT !!!\n");
 264:src/kernel/interrupt/interrupt_cpp.cpp ****             KCHECKPRINT(scause);
 265:src/kernel/interrupt/interrupt_cpp.cpp ****             KCHECKPRINT(sepc);
 266:src/kernel/interrupt/interrupt_cpp.cpp ****             KCHECKPRINT(stval);
 267:src/kernel/interrupt/interrupt_cpp.cpp ****             while(true);
 268:src/kernel/interrupt/interrupt_cpp.cpp ****         }
 269:src/kernel/interrupt/interrupt_cpp.cpp ****     }
 270:src/kernel/interrupt/interrupt_cpp.cpp ****     else if(scause == PFL || scause == PFW){
 1739              		.loc 1 270 10
 1740              	.LBB545:
 1741              	.LBB536:
 1742              	.LBB528:
 1743              	.LBB521:
 1744              	.LBB516:
 1745              	.LBB476:
 1746 086c 9307D000 		li	a5,13
 1747 0870 6382F426 		beq	s1,a5,.L98
 1748              		.loc 1 270 27 is_stmt 0 discriminator 1
 1749 0874 9307F000 		li	a5,15
 1750 0878 638EF424 		beq	s1,a5,.L98
 1751              	.LBE476:
 1752              	.LBE516:
 1753              	.LBE521:
 1754              	.LBE528:
 1755              	.LBE536:
 1756              	.LBE545:
 271:src/kernel/interrupt/interrupt_cpp.cpp ****         uint64 stval = Riscv::r_stval(), sepc = Riscv::r_sepc(),
 272:src/kernel/interrupt/interrupt_cpp.cpp ****             sstatus = Riscv::r_sstatus();
 273:src/kernel/interrupt/interrupt_cpp.cpp ****         if(sstatus & Riscv::BitMaskSstatus::SSTATUS_SPP){
 274:src/kernel/interrupt/interrupt_cpp.cpp ****             KCHECKPRINT(scause);
 275:src/kernel/interrupt/interrupt_cpp.cpp ****             KCHECKPRINT(sepc);
 276:src/kernel/interrupt/interrupt_cpp.cpp ****             KCHECKPRINT(stval);
 277:src/kernel/interrupt/interrupt_cpp.cpp ****             kprintString("\n!!!PANIC DUE TO SUPERVISOR PAGE FAULT!!!\n");
 278:src/kernel/interrupt/interrupt_cpp.cpp ****             while(true);
 279:src/kernel/interrupt/interrupt_cpp.cpp ****         }
 280:src/kernel/interrupt/interrupt_cpp.cpp ****         else{
 281:src/kernel/interrupt/interrupt_cpp.cpp ****             MemoryAllocator& allocator = MemoryAllocator::getInstance();
 282:src/kernel/interrupt/interrupt_cpp.cpp ****             FreeSegment* fs = allocator.getFreeSegmentMeta((void*)stval);
 283:src/kernel/interrupt/interrupt_cpp.cpp ****             
 284:src/kernel/interrupt/interrupt_cpp.cpp ****             if(fs){
 285:src/kernel/interrupt/interrupt_cpp.cpp ****                 Pager::getInstance().id_map(
 286:src/kernel/interrupt/interrupt_cpp.cpp ****                     fs->addr, 
 287:src/kernel/interrupt/interrupt_cpp.cpp ****                     (char*)fs->addr+fs->size, 
 288:src/kernel/interrupt/interrupt_cpp.cpp ****                     (PMTEntryBits)(PMTEntryBits::read | PMTEntryBits::write | PMTEntryBits::user)
 289:src/kernel/interrupt/interrupt_cpp.cpp ****                 );
 290:src/kernel/interrupt/interrupt_cpp.cpp ****             }
 291:src/kernel/interrupt/interrupt_cpp.cpp ****             else{
 292:src/kernel/interrupt/interrupt_cpp.cpp ****                 kprintString("\n!!!PANIC DUE TO NOT HANDLED USER DATA PAGE FAULT !!!\n");
 293:src/kernel/interrupt/interrupt_cpp.cpp ****                 KCHECKPRINT(scause);
 294:src/kernel/interrupt/interrupt_cpp.cpp ****                 KCHECKPRINT(sepc);
 295:src/kernel/interrupt/interrupt_cpp.cpp ****                 KCHECKPRINT(stval);
 296:src/kernel/interrupt/interrupt_cpp.cpp ****                 while(true);
 297:src/kernel/interrupt/interrupt_cpp.cpp ****                 
 298:src/kernel/interrupt/interrupt_cpp.cpp ****             }
GAS LISTING /tmp/ccce4vZ9.s 			page 48


 299:src/kernel/interrupt/interrupt_cpp.cpp ****         }
 300:src/kernel/interrupt/interrupt_cpp.cpp ****         
 301:src/kernel/interrupt/interrupt_cpp.cpp ****     }
 302:src/kernel/interrupt/interrupt_cpp.cpp ****     else if(scause == II || scause == IR || scause == IW)
 1757              		.loc 1 302 10 is_stmt 1
 1758              	.LBB546:
 1759              	.LBB537:
 1760              	.LBB529:
 1761              	.LBB522:
 1762              	.LBB517:
 1763              	.LBB501:
 1764              	.LBB477:
 1765 087c 93072000 		li	a5,2
 1766 0880 638AF400 		beq	s1,a5,.L104
 1767              		.loc 1 302 26 is_stmt 0 discriminator 1
 1768 0884 93075000 		li	a5,5
 1769 0888 6386F400 		beq	s1,a5,.L104
 1770              		.loc 1 302 42 discriminator 2
 1771 088c 93077000 		li	a5,7
 1772 0890 6396F442 		bne	s1,a5,.L105
 1773              	.L104:
 1774              	.LBE477:
 1775              	.LBE501:
 1776              	.LBE517:
 1777              	.LBE522:
 1778              	.LBE529:
 1779              	.LBE537:
 1780              	.LBE546:
 303:src/kernel/interrupt/interrupt_cpp.cpp ****     {
 304:src/kernel/interrupt/interrupt_cpp.cpp ****         //ilegalna instrukcija
 305:src/kernel/interrupt/interrupt_cpp.cpp ****         if(!TCB::running->isKernelThread())
 1781              		.loc 1 305 9 is_stmt 1
 1782              	.LBB547:
 1783              	.LBB538:
 1784              	.LBB530:
 1785              	.LBB523:
 1786              	.LBB518:
 1787              	.LBB502:
 1788              	.LBB487:
 1789              	.LBB478:
 1790              		.loc 1 305 41 is_stmt 0
 1791 0894 97070000 		lla	a5,_ZN3TCB7runningE
 1791      93870700 
 1792 089c 83B70700 		ld	a5,0(a5)
 1793              	.LVL151:
 1794              	.LBB479:
 1795              	.LBB480:
  47:src/kernel/interrupt/../../../h/../h/tcb.hpp ****     bool isSuspended(){return state == BLOCKED || state == SLEEPING;}
  48:src/kernel/interrupt/../../../h/../h/tcb.hpp ****     void setKernelMode() { userMode = false; }
  49:src/kernel/interrupt/../../../h/../h/tcb.hpp ****     void setKernelLocked() { locked = true; }
  50:src/kernel/interrupt/../../../h/../h/tcb.hpp ****     bool isKernelThread() { return !userMode; } 
 1796              		.loc 2 50 29 is_stmt 1
 1797              		.loc 2 50 37 is_stmt 0
 1798 08a0 83C75703 		lbu	a5,53(a5)
 1799              	.LVL152:
 1800              	.LBE480:
 1801              	.LBE479:
GAS LISTING /tmp/ccce4vZ9.s 			page 49


 1802              		.loc 1 305 9
 1803 08a4 638E073E 		beq	a5,zero,.L106
 1804              	.LBB481:
 306:src/kernel/interrupt/interrupt_cpp.cpp ****         {
 307:src/kernel/interrupt/interrupt_cpp.cpp ****             uint64 stval;
 1805              		.loc 1 307 13 is_stmt 1
 308:src/kernel/interrupt/interrupt_cpp.cpp ****             asm volatile("csrr %0, stval" : "=r" (stval));
 1806              		.loc 1 308 13
 1807              		.loc 1 308 58 is_stmt 0
 1808              	 #APP
 1809              	# 308 "src/kernel/interrupt/interrupt_cpp.cpp" 1
 309              	            kprintString("\nERROR: Thread stopped due to unauthorised access!!\n");
 1810              		csrr s2, stval
 1811              	# 0 "" 2
 1812              	.LVL153:
 1813              		.loc 1 309 13 is_stmt 1
 1814              		.loc 1 309 25 is_stmt 0
 1815              	 #NO_APP
 1816 08ac 17050000 		lla	a0,.LC8
 1816      13050500 
 1817              	.LVL154:
 1818 08b4 97000000 		call	_Z12kprintStringPKc
 1818      E7800000 
 1819              	.LVL155:
 310:src/kernel/interrupt/interrupt_cpp.cpp ****             kprintString("SCAUSE: "); kprintInt(scause, 16); kprintString("\n"); 
 1820              		.loc 1 310 13 is_stmt 1
 1821              		.loc 1 310 25 is_stmt 0
 1822 08bc 17050000 		lla	a0,.LC9
 1822      13050500 
 1823 08c4 97000000 		call	_Z12kprintStringPKc
 1823      E7800000 
 1824              	.LVL156:
 1825              		.loc 1 310 39 is_stmt 1
 1826              		.loc 1 310 48 is_stmt 0
 1827 08cc 13060000 		li	a2,0
 1828 08d0 93050001 		li	a1,16
 1829 08d4 13850400 		mv	a0,s1
 1830 08d8 97000000 		call	_Z9kprintIntmib
 1830      E7800000 
 1831              	.LVL157:
 1832              		.loc 1 310 62 is_stmt 1
 1833              		.loc 1 310 74 is_stmt 0
 1834 08e0 17050000 		lla	a0,.LC3
 1834      13050500 
 1835 08e8 97000000 		call	_Z12kprintStringPKc
 1835      E7800000 
 1836              	.LVL158:
 311:src/kernel/interrupt/interrupt_cpp.cpp ****             kprintString("SEPC: "); kprintInt(Riscv::r_sepc(),16); kprintString("\n");
 1837              		.loc 1 311 13 is_stmt 1
 1838              		.loc 1 311 25 is_stmt 0
 1839 08f0 17050000 		lla	a0,.LC10
 1839      13050500 
 1840 08f8 97000000 		call	_Z12kprintStringPKc
 1840      E7800000 
 1841              	.LVL159:
 1842              		.loc 1 311 37 is_stmt 1
 1843              	.LBB482:
GAS LISTING /tmp/ccce4vZ9.s 			page 50


 1844              	.LBB483:
 145:src/kernel/interrupt/../../../h/../h/riscv.hpp ****     asm volatile("csrr %0, sepc" : "=r" (sepc));
 1845              		.loc 3 145 5
 146:src/kernel/interrupt/../../../h/../h/riscv.hpp ****     return sepc;
 1846              		.loc 3 146 5
 146:src/kernel/interrupt/../../../h/../h/riscv.hpp ****     return sepc;
 1847              		.loc 3 146 48 is_stmt 0
 1848              	 #APP
 1849              	# 146 "src/kernel/interrupt/../../../h/../h/riscv.hpp" 1
 1850              		csrr a5, sepc
 1851              	# 0 "" 2
 1852              	 #NO_APP
 1853 0904 2334F4FC 		sd	a5,-56(s0)
 147:src/kernel/interrupt/../../../h/../h/riscv.hpp **** } 
 1854              		.loc 3 147 5 is_stmt 1
 147:src/kernel/interrupt/../../../h/../h/riscv.hpp **** } 
 1855              		.loc 3 147 12 is_stmt 0
 1856 0908 033584FC 		ld	a0,-56(s0)
 1857              	.LBE483:
 1858              	.LBE482:
 1859              		.loc 1 311 46
 1860 090c 13060000 		li	a2,0
 1861 0910 93050001 		li	a1,16
 1862 0914 97000000 		call	_Z9kprintIntmib
 1862      E7800000 
 1863              	.LVL160:
 1864              		.loc 1 311 68 is_stmt 1
 1865              		.loc 1 311 80 is_stmt 0
 1866 091c 17050000 		lla	a0,.LC3
 1866      13050500 
 1867 0924 97000000 		call	_Z12kprintStringPKc
 1867      E7800000 
 1868              	.LVL161:
 312:src/kernel/interrupt/interrupt_cpp.cpp ****             kprintString("STVAL: "); kprintInt(stval, 16); kprintString("\n\n");
 1869              		.loc 1 312 13 is_stmt 1
 1870              		.loc 1 312 25 is_stmt 0
 1871 092c 17050000 		lla	a0,.LC11
 1871      13050500 
 1872 0934 97000000 		call	_Z12kprintStringPKc
 1872      E7800000 
 1873              	.LVL162:
 1874              		.loc 1 312 38 is_stmt 1
 1875              		.loc 1 312 47 is_stmt 0
 1876 093c 13060000 		li	a2,0
 1877 0940 93050001 		li	a1,16
 1878 0944 13050900 		mv	a0,s2
 1879 0948 97000000 		call	_Z9kprintIntmib
 1879      E7800000 
 1880              	.LVL163:
 1881              		.loc 1 312 60 is_stmt 1
 1882              		.loc 1 312 72 is_stmt 0
 1883 0950 17050000 		lla	a0,.LC12
 1883      13050500 
 1884 0958 97000000 		call	_Z12kprintStringPKc
 1884      E7800000 
 1885              	.LVL164:
 313:src/kernel/interrupt/interrupt_cpp.cpp ****             TCB::running->finish();
GAS LISTING /tmp/ccce4vZ9.s 			page 51


 1886              		.loc 1 313 13 is_stmt 1
 1887              		.loc 1 313 33 is_stmt 0
 1888 0960 97070000 		lla	a5,_ZN3TCB7runningE
 1888      93870700 
 1889 0968 83B70700 		ld	a5,0(a5)
 1890              	.LVL165:
 1891              	.LBB484:
 1892              	.LBB485:
  44:src/kernel/interrupt/../../../h/../h/tcb.hpp ****     bool isFinished(){ return state == FINISHED; }
 1893              		.loc 2 44 21 is_stmt 1
  44:src/kernel/interrupt/../../../h/../h/tcb.hpp ****     bool isFinished(){ return state == FINISHED; }
 1894              		.loc 2 44 27 is_stmt 0
 1895 096c 13072000 		li	a4,2
 1896 0970 23A8E702 		sw	a4,48(a5)
 1897              	.LVL166:
 1898              	.LBE485:
 1899              	.LBE484:
 314:src/kernel/interrupt/interrupt_cpp.cpp ****             TCB::dispatch();
 1900              		.loc 1 314 13 is_stmt 1
 1901              		.loc 1 314 26 is_stmt 0
 1902 0974 97000000 		call	_ZN3TCB8dispatchEv
 1902      E7800000 
 1903              	.LVL167:
 1904              	.LBE481:
 1905 097c 6F000001 		j	.L89
 1906              	.LVL168:
 1907              	.L109:
 1908              	.LBE478:
 1909              	.LBE487:
 1910              	.LBE502:
 1911              	.LBE518:
 1912              	.LBE523:
 1913              	.LBE530:
 1914              	.LBE538:
 232:src/kernel/interrupt/interrupt_cpp.cpp ****         asm volatile("sd %0, 10 * 8(s0)" :: "r" (a0));
 1915              		.loc 1 232 9 is_stmt 1
 232:src/kernel/interrupt/interrupt_cpp.cpp ****         asm volatile("sd %0, 10 * 8(s0)" :: "r" (a0));
 1916              		.loc 1 232 22 is_stmt 0
 1917 0980 97000000 		call	_Z8sysEcallmmmmm
 1917      E7800000 
 1918              	.LVL169:
 233:src/kernel/interrupt/interrupt_cpp.cpp ****     
 1919              		.loc 1 233 9 is_stmt 1
 233:src/kernel/interrupt/interrupt_cpp.cpp ****     
 1920              		.loc 1 233 54 is_stmt 0
 1921              	 #APP
 1922              	# 233 "src/kernel/interrupt/interrupt_cpp.cpp" 1
 1923              		sd a0, 10 * 8(s0)
 1924              	# 0 "" 2
 1925              	.LVL170:
 1926              	 #NO_APP
 1927              	.L89:
 1928              	.LBE547:
 315:src/kernel/interrupt/interrupt_cpp.cpp ****         }
 316:src/kernel/interrupt/interrupt_cpp.cpp ****         else
 317:src/kernel/interrupt/interrupt_cpp.cpp ****         {
 318:src/kernel/interrupt/interrupt_cpp.cpp ****             kprintString("\nFATAL KERNEL ERROR: unauthorised access prompted!!\n");
GAS LISTING /tmp/ccce4vZ9.s 			page 52


 319:src/kernel/interrupt/interrupt_cpp.cpp ****             TCB::panicDispatch();
 320:src/kernel/interrupt/interrupt_cpp.cpp ****         }
 321:src/kernel/interrupt/interrupt_cpp.cpp ****     }
 322:src/kernel/interrupt/interrupt_cpp.cpp ****     else{
 323:src/kernel/interrupt/interrupt_cpp.cpp ****         KCHECKPRINT(scause);
 324:src/kernel/interrupt/interrupt_cpp.cpp ****         kprintString("GRESKA\n");
 325:src/kernel/interrupt/interrupt_cpp.cpp ****         while(1);
 326:src/kernel/interrupt/interrupt_cpp.cpp **** 
 327:src/kernel/interrupt/interrupt_cpp.cpp ****     }
 328:src/kernel/interrupt/interrupt_cpp.cpp ****                     
 329:src/kernel/interrupt/interrupt_cpp.cpp ****     
 330:src/kernel/interrupt/interrupt_cpp.cpp ****     //print(a4);
 331:src/kernel/interrupt/interrupt_cpp.cpp **** }...
 1929              		.loc 1 331 1
 1930 098c 83308105 		ld	ra,88(sp)
 1931              		.cfi_remember_state
 1932              		.cfi_restore 1
 1933 0990 03340105 		ld	s0,80(sp)
 1934              		.cfi_restore 8
 1935              		.cfi_def_cfa 2, 96
 1936 0994 83348104 		ld	s1,72(sp)
 1937              		.cfi_restore 9
 1938              	.LVL171:
 1939 0998 03390104 		ld	s2,64(sp)
 1940              		.cfi_restore 18
 1941 099c 83398103 		ld	s3,56(sp)
 1942              		.cfi_restore 19
 1943 09a0 033A0103 		ld	s4,48(sp)
 1944              		.cfi_restore 20
 1945 09a4 13010106 		addi	sp,sp,96
 1946              		.cfi_def_cfa_offset 0
 1947 09a8 67800000 		jr	ra
 1948              	.LVL172:
 1949              	.L110:
 1950              		.cfi_restore_state
 1951              	.LBB548:
 1952              	.LBB539:
 239:src/kernel/interrupt/interrupt_cpp.cpp ****         a0 = usrEcall(a0, a1, a2, a3, a4);
 1953              		.loc 1 239 9 is_stmt 1
 239:src/kernel/interrupt/interrupt_cpp.cpp ****         a0 = usrEcall(a0, a1, a2, a3, a4);
 1954              		.loc 1 239 22 is_stmt 0
 1955 09ac 97000000 		call	_Z8usrEcallmmmmm
 1955      E7800000 
 1956              	.LVL173:
 240:src/kernel/interrupt/interrupt_cpp.cpp ****         asm volatile("sd %0, 10 * 8(s0)" :: "r" (a0));
 1957              		.loc 1 240 9 is_stmt 1
 240:src/kernel/interrupt/interrupt_cpp.cpp ****         asm volatile("sd %0, 10 * 8(s0)" :: "r" (a0));
 1958              		.loc 1 240 54 is_stmt 0
 1959              	 #APP
 1960              	# 240 "src/kernel/interrupt/interrupt_cpp.cpp" 1
 1961              		sd a0, 10 * 8(s0)
 1962              	# 0 "" 2
 1963              	 #NO_APP
 1964 09b8 6FF05FFD 		j	.L89
 1965              	.LVL174:
 1966              	.L111:
 1967              	.LBB531:
GAS LISTING /tmp/ccce4vZ9.s 			page 53


 246:src/kernel/interrupt/interrupt_cpp.cpp ****        StdIO::console_handler();
 1968              		.loc 1 246 8 is_stmt 1
 246:src/kernel/interrupt/interrupt_cpp.cpp ****        StdIO::console_handler();
 1969              		.loc 1 246 30 is_stmt 0
 1970 09bc 97000000 		call	_ZN5StdIO15console_handlerEv
 1970      E7800000 
 1971              	.LVL175:
 1972 09c4 6FF09FFC 		j	.L89
 1973              	.LVL176:
 1974              	.L112:
 1975              	.LBB524:
 252:src/kernel/interrupt/interrupt_cpp.cpp ****         timer_handler();      
 1976              		.loc 1 252 9 is_stmt 1
 252:src/kernel/interrupt/interrupt_cpp.cpp ****         timer_handler();      
 1977              		.loc 1 252 22 is_stmt 0
 1978 09c8 97000000 		call	_Z13timer_handlerv
 1978      E7800000 
 1979              	.LVL177:
 1980 09d0 6FF0DFFB 		j	.L89
 1981              	.LVL178:
 1982              	.L113:
 1983              	.LBE524:
 1984              	.LBE531:
 1985              	.LBE539:
 1986              	.LBE548:
 256:src/kernel/interrupt/interrupt_cpp.cpp ****         if(TCB::running->getState() == TCB::TCBState::PREPARING){
 1987              		.loc 1 256 9 is_stmt 1
 1988              	.LBB549:
 1989              	.LBB540:
 1990              	.LBB532:
 1991              	.LBB525:
 1992              	.LBB519:
 1993              	.LBB503:
 256:src/kernel/interrupt/interrupt_cpp.cpp ****         if(TCB::running->getState() == TCB::TCBState::PREPARING){
 1994              		.loc 1 256 34 is_stmt 0
 1995 09d4 97070000 		lla	a5,_ZN3TCB7runningE
 1995      93870700 
 1996 09dc 83B70700 		ld	a5,0(a5)
 1997              	.LVL179:
 1998              	.LBB504:
 1999              	.LBB505:
  43:src/kernel/interrupt/../../../h/../h/tcb.hpp ****     void finish() { state = FINISHED; }
 2000              		.loc 2 43 32 is_stmt 1
  43:src/kernel/interrupt/../../../h/../h/tcb.hpp ****     void finish() { state = FINISHED; }
 2001              		.loc 2 43 39 is_stmt 0
 2002 09e0 83A60703 		lw	a3,48(a5)
 2003              	.LVL180:
 2004              	.LBE505:
 2005              	.LBE504:
 256:src/kernel/interrupt/interrupt_cpp.cpp ****         if(TCB::running->getState() == TCB::TCBState::PREPARING){
 2006              		.loc 1 256 9
 2007 09e4 13074000 		li	a4,4
 2008              	.LVL181:
 2009 09e8 6392E602 		bne	a3,a4,.L96
 257:src/kernel/interrupt/interrupt_cpp.cpp ****             TCB::running->setState(TCB::TCBState::READY);
 2010              		.loc 1 257 13 is_stmt 1
 2011              	.LVL182:
GAS LISTING /tmp/ccce4vZ9.s 			page 54


 2012              	.LBB506:
 2013              	.LBB507:
  42:src/kernel/interrupt/../../../h/../h/tcb.hpp ****     TCBState getState() const{ return state; }
 2014              		.loc 2 42 32
  42:src/kernel/interrupt/../../../h/../h/tcb.hpp ****     TCBState getState() const{ return state; }
 2015              		.loc 2 42 38 is_stmt 0
 2016 09ec 13071000 		li	a4,1
 2017 09f0 23A8E702 		sw	a4,48(a5)
 2018              	.LVL183:
 2019              	.LBE507:
 2020              	.LBE506:
 258:src/kernel/interrupt/interrupt_cpp.cpp ****             asm volatile("sd %0, 1 * 8(s0)" :: "r" (thread_exit));
 2021              		.loc 1 258 13 is_stmt 1
 258:src/kernel/interrupt/interrupt_cpp.cpp ****             asm volatile("sd %0, 1 * 8(s0)" :: "r" (thread_exit));
 2022              		.loc 1 258 66 is_stmt 0
 2023 09f4 97070000 		lla	a5,thread_exit
 2023      93870700 
 2024              	 #APP
 2025              	# 258 "src/kernel/interrupt/interrupt_cpp.cpp" 1
 259:src/kernel/interrupt/interrupt_cpp.cpp ****             Riscv::mc_sstatus(Riscv::BitMaskSstatus::SSTATUS_SPP);
 2026              		sd a5, 1 * 8(s0)
 2027              	# 0 "" 2
 2028              		.loc 1 259 13 is_stmt 1
 2029              	.LVL184:
 2030              	 #NO_APP
 2031              	.LBB508:
 2032              	.LBB509:
 211:src/kernel/interrupt/../../../h/../h/riscv.hpp **** }
 2033              		.loc 3 211 5
 211:src/kernel/interrupt/../../../h/../h/riscv.hpp **** }
 2034              		.loc 3 211 53 is_stmt 0
 2035 0a00 93070010 		li	a5,256
 2036              	 #APP
 2037              	# 211 "src/kernel/interrupt/../../../h/../h/riscv.hpp" 1
 2038              		csrc sstatus, a5
 2039              	# 0 "" 2
 2040              	 #NO_APP
 2041 0a08 6FF05FF8 		j	.L89
 2042              	.LVL185:
 2043              	.L96:
 2044              	.LBE509:
 2045              	.LBE508:
 2046              	.LBB510:
 262:src/kernel/interrupt/interrupt_cpp.cpp ****             uint64 stval = Riscv::r_stval(), sepc = Riscv::r_sepc();
 2047              		.loc 1 262 13 is_stmt 1
 2048              	.LBB511:
 2049              	.LBB512:
 165:src/kernel/interrupt/../../../h/../h/riscv.hpp ****     asm volatile("csrr %0, stval" : "=r" (stval));
 2050              		.loc 3 165 5
 166:src/kernel/interrupt/../../../h/../h/riscv.hpp ****     return stval;
 2051              		.loc 3 166 5
 166:src/kernel/interrupt/../../../h/../h/riscv.hpp ****     return stval;
 2052              		.loc 3 166 50 is_stmt 0
 2053              	 #APP
 2054              	# 166 "src/kernel/interrupt/../../../h/../h/riscv.hpp" 1
 2055              		csrr a5, stval
 2056              	# 0 "" 2
GAS LISTING /tmp/ccce4vZ9.s 			page 55


 2057              	 #NO_APP
 2058 0a10 2334F4FC 		sd	a5,-56(s0)
 167:src/kernel/interrupt/../../../h/../h/riscv.hpp **** } 
 2059              		.loc 3 167 5 is_stmt 1
 167:src/kernel/interrupt/../../../h/../h/riscv.hpp **** } 
 2060              		.loc 3 167 12 is_stmt 0
 2061 0a14 033984FC 		ld	s2,-56(s0)
 2062              	.LVL186:
 2063              	.LBE512:
 2064              	.LBE511:
 2065              	.LBB513:
 2066              	.LBB514:
 145:src/kernel/interrupt/../../../h/../h/riscv.hpp ****     asm volatile("csrr %0, sepc" : "=r" (sepc));
 2067              		.loc 3 145 5 is_stmt 1
 146:src/kernel/interrupt/../../../h/../h/riscv.hpp ****     return sepc;
 2068              		.loc 3 146 5
 146:src/kernel/interrupt/../../../h/../h/riscv.hpp ****     return sepc;
 2069              		.loc 3 146 48 is_stmt 0
 2070              	 #APP
 2071              	# 146 "src/kernel/interrupt/../../../h/../h/riscv.hpp" 1
 2072              		csrr a5, sepc
 2073              	# 0 "" 2
 2074              	 #NO_APP
 2075 0a1c 2330F4FC 		sd	a5,-64(s0)
 147:src/kernel/interrupt/../../../h/../h/riscv.hpp **** } 
 2076              		.loc 3 147 5 is_stmt 1
 147:src/kernel/interrupt/../../../h/../h/riscv.hpp **** } 
 2077              		.loc 3 147 12 is_stmt 0
 2078 0a20 833904FC 		ld	s3,-64(s0)
 2079              	.LVL187:
 2080              	.LBE514:
 2081              	.LBE513:
 263:src/kernel/interrupt/interrupt_cpp.cpp ****             kprintString("\n!!!PANIC DUE TO NOT HANDLED INSTRUCTION PAGE FAULT !!!\n");
 2082              		.loc 1 263 13 is_stmt 1
 263:src/kernel/interrupt/interrupt_cpp.cpp ****             kprintString("\n!!!PANIC DUE TO NOT HANDLED INSTRUCTION PAGE FAULT !!!\n");
 2083              		.loc 1 263 25 is_stmt 0
 2084 0a24 17050000 		lla	a0,.LC1
 2084      13050500 
 2085              	.LVL188:
 2086 0a2c 97000000 		call	_Z12kprintStringPKc
 2086      E7800000 
 2087              	.LVL189:
 264:src/kernel/interrupt/interrupt_cpp.cpp ****             KCHECKPRINT(scause);
 2088              		.loc 1 264 13 is_stmt 1
 2089 0a34 17050000 		lla	a0,.LC2
 2089      13050500 
 2090 0a3c 97000000 		call	_Z12kprintStringPKc
 2090      E7800000 
 2091              	.LVL190:
 264:src/kernel/interrupt/interrupt_cpp.cpp ****             KCHECKPRINT(scause);
 2092              		.loc 1 264 13
 2093 0a44 13060000 		li	a2,0
 2094 0a48 93050001 		li	a1,16
 2095 0a4c 13850400 		mv	a0,s1
 2096 0a50 97000000 		call	_Z9kprintIntmib
 2096      E7800000 
 2097              	.LVL191:
GAS LISTING /tmp/ccce4vZ9.s 			page 56


 264:src/kernel/interrupt/interrupt_cpp.cpp ****             KCHECKPRINT(scause);
 2098              		.loc 1 264 13
 2099 0a58 17050000 		lla	a0,.LC3
 2099      13050500 
 2100 0a60 97000000 		call	_Z12kprintStringPKc
 2100      E7800000 
 2101              	.LVL192:
 265:src/kernel/interrupt/interrupt_cpp.cpp ****             KCHECKPRINT(sepc);
 2102              		.loc 1 265 13
 2103 0a68 17050000 		lla	a0,.LC4
 2103      13050500 
 2104 0a70 97000000 		call	_Z12kprintStringPKc
 2104      E7800000 
 2105              	.LVL193:
 265:src/kernel/interrupt/interrupt_cpp.cpp ****             KCHECKPRINT(sepc);
 2106              		.loc 1 265 13
 2107 0a78 13060000 		li	a2,0
 2108 0a7c 93050001 		li	a1,16
 2109 0a80 13850900 		mv	a0,s3
 2110 0a84 97000000 		call	_Z9kprintIntmib
 2110      E7800000 
 2111              	.LVL194:
 265:src/kernel/interrupt/interrupt_cpp.cpp ****             KCHECKPRINT(sepc);
 2112              		.loc 1 265 13
 2113 0a8c 17050000 		lla	a0,.LC3
 2113      13050500 
 2114 0a94 97000000 		call	_Z12kprintStringPKc
 2114      E7800000 
 2115              	.LVL195:
 266:src/kernel/interrupt/interrupt_cpp.cpp ****             KCHECKPRINT(stval);
 2116              		.loc 1 266 13
 2117 0a9c 17050000 		lla	a0,.LC5
 2117      13050500 
 2118 0aa4 97000000 		call	_Z12kprintStringPKc
 2118      E7800000 
 2119              	.LVL196:
 266:src/kernel/interrupt/interrupt_cpp.cpp ****             KCHECKPRINT(stval);
 2120              		.loc 1 266 13
 2121 0aac 13060000 		li	a2,0
 2122 0ab0 93050001 		li	a1,16
 2123 0ab4 13050900 		mv	a0,s2
 2124 0ab8 97000000 		call	_Z9kprintIntmib
 2124      E7800000 
 2125              	.LVL197:
 266:src/kernel/interrupt/interrupt_cpp.cpp ****             KCHECKPRINT(stval);
 2126              		.loc 1 266 13
 2127 0ac0 17050000 		lla	a0,.LC3
 2127      13050500 
 2128 0ac8 97000000 		call	_Z12kprintStringPKc
 2128      E7800000 
 2129              	.LVL198:
 2130              	.L97:
 267:src/kernel/interrupt/interrupt_cpp.cpp ****             while(true);
 2131              		.loc 1 267 13 discriminator 1
 2132 0ad0 6F000000 		j	.L97
 2133              	.LVL199:
 2134              	.L98:
GAS LISTING /tmp/ccce4vZ9.s 			page 57


 2135              	.LBE510:
 2136              	.LBE503:
 2137              	.LBB515:
 2138              	.LBB488:
 271:src/kernel/interrupt/interrupt_cpp.cpp ****         uint64 stval = Riscv::r_stval(), sepc = Riscv::r_sepc(),
 2139              		.loc 1 271 9
 2140              	.LBB489:
 2141              	.LBB490:
 165:src/kernel/interrupt/../../../h/../h/riscv.hpp ****     asm volatile("csrr %0, stval" : "=r" (stval));
 2142              		.loc 3 165 5
 166:src/kernel/interrupt/../../../h/../h/riscv.hpp ****     return stval;
 2143              		.loc 3 166 5
 166:src/kernel/interrupt/../../../h/../h/riscv.hpp ****     return stval;
 2144              		.loc 3 166 50 is_stmt 0
 2145              	 #APP
 2146              	# 166 "src/kernel/interrupt/../../../h/../h/riscv.hpp" 1
 2147              		csrr a5, stval
 2148              	# 0 "" 2
 2149              	 #NO_APP
 2150 0ad8 2330F4FC 		sd	a5,-64(s0)
 167:src/kernel/interrupt/../../../h/../h/riscv.hpp **** } 
 2151              		.loc 3 167 5 is_stmt 1
 167:src/kernel/interrupt/../../../h/../h/riscv.hpp **** } 
 2152              		.loc 3 167 12 is_stmt 0
 2153 0adc 833904FC 		ld	s3,-64(s0)
 2154              	.LVL200:
 2155              	.LBE490:
 2156              	.LBE489:
 2157              	.LBB491:
 2158              	.LBB492:
 145:src/kernel/interrupt/../../../h/../h/riscv.hpp ****     asm volatile("csrr %0, sepc" : "=r" (sepc));
 2159              		.loc 3 145 5 is_stmt 1
 146:src/kernel/interrupt/../../../h/../h/riscv.hpp ****     return sepc;
 2160              		.loc 3 146 5
 146:src/kernel/interrupt/../../../h/../h/riscv.hpp ****     return sepc;
 2161              		.loc 3 146 48 is_stmt 0
 2162              	 #APP
 2163              	# 146 "src/kernel/interrupt/../../../h/../h/riscv.hpp" 1
 2164              		csrr a5, sepc
 2165              	# 0 "" 2
 2166              	 #NO_APP
 2167 0ae4 233CF4FA 		sd	a5,-72(s0)
 147:src/kernel/interrupt/../../../h/../h/riscv.hpp **** } 
 2168              		.loc 3 147 5 is_stmt 1
 147:src/kernel/interrupt/../../../h/../h/riscv.hpp **** } 
 2169              		.loc 3 147 12 is_stmt 0
 2170 0ae8 033A84FB 		ld	s4,-72(s0)
 2171              	.LVL201:
 2172              	.LBE492:
 2173              	.LBE491:
 2174              	.LBB493:
 2175              	.LBB494:
 219:src/kernel/interrupt/../../../h/../h/riscv.hpp ****     asm volatile("csrr %0, sstatus" : "=r" (sstatus));
 2176              		.loc 3 219 5 is_stmt 1
 220:src/kernel/interrupt/../../../h/../h/riscv.hpp ****     return sstatus;
 2177              		.loc 3 220 5
 220:src/kernel/interrupt/../../../h/../h/riscv.hpp ****     return sstatus;
GAS LISTING /tmp/ccce4vZ9.s 			page 58


 2178              		.loc 3 220 54 is_stmt 0
 2179              	 #APP
 2180              	# 220 "src/kernel/interrupt/../../../h/../h/riscv.hpp" 1
 2181              		csrr a5, sstatus
 2182              	# 0 "" 2
 2183              	 #NO_APP
 2184 0af0 2338F4FA 		sd	a5,-80(s0)
 2185              		.loc 3 221 5 is_stmt 1
 2186              		.loc 3 221 12 is_stmt 0
 2187 0af4 833704FB 		ld	a5,-80(s0)
 2188              	.LVL202:
 2189              	.LBE494:
 2190              	.LBE493:
 273:src/kernel/interrupt/interrupt_cpp.cpp ****         if(sstatus & Riscv::BitMaskSstatus::SSTATUS_SPP){
 2191              		.loc 1 273 9 is_stmt 1
 2192              	.LBB495:
 273:src/kernel/interrupt/interrupt_cpp.cpp ****         if(sstatus & Riscv::BitMaskSstatus::SSTATUS_SPP){
 2193              		.loc 1 273 20 is_stmt 0
 2194 0af8 93F70710 		andi	a5,a5,256
 2195              	.LVL203:
 273:src/kernel/interrupt/interrupt_cpp.cpp ****         if(sstatus & Riscv::BitMaskSstatus::SSTATUS_SPP){
 2196              		.loc 1 273 9
 2197 0afc 638A070A 		beq	a5,zero,.L100
 274:src/kernel/interrupt/interrupt_cpp.cpp ****             KCHECKPRINT(scause);
 2198              		.loc 1 274 13 is_stmt 1
 2199 0b00 17050000 		lla	a0,.LC2
 2199      13050500 
 2200              	.LVL204:
 2201 0b08 97000000 		call	_Z12kprintStringPKc
 2201      E7800000 
 2202              	.LVL205:
 274:src/kernel/interrupt/interrupt_cpp.cpp ****             KCHECKPRINT(scause);
 2203              		.loc 1 274 13
 2204 0b10 13060000 		li	a2,0
 2205 0b14 93050001 		li	a1,16
 2206 0b18 13850400 		mv	a0,s1
 2207 0b1c 97000000 		call	_Z9kprintIntmib
 2207      E7800000 
 2208              	.LVL206:
 274:src/kernel/interrupt/interrupt_cpp.cpp ****             KCHECKPRINT(scause);
 2209              		.loc 1 274 13
 2210 0b24 17050000 		lla	a0,.LC3
 2210      13050500 
 2211 0b2c 97000000 		call	_Z12kprintStringPKc
 2211      E7800000 
 2212              	.LVL207:
 275:src/kernel/interrupt/interrupt_cpp.cpp ****             KCHECKPRINT(sepc);
 2213              		.loc 1 275 13
 2214 0b34 17050000 		lla	a0,.LC4
 2214      13050500 
 2215 0b3c 97000000 		call	_Z12kprintStringPKc
 2215      E7800000 
 2216              	.LVL208:
 275:src/kernel/interrupt/interrupt_cpp.cpp ****             KCHECKPRINT(sepc);
 2217              		.loc 1 275 13
 2218 0b44 13060000 		li	a2,0
 2219 0b48 93050001 		li	a1,16
GAS LISTING /tmp/ccce4vZ9.s 			page 59


 2220 0b4c 13050A00 		mv	a0,s4
 2221 0b50 97000000 		call	_Z9kprintIntmib
 2221      E7800000 
 2222              	.LVL209:
 275:src/kernel/interrupt/interrupt_cpp.cpp ****             KCHECKPRINT(sepc);
 2223              		.loc 1 275 13
 2224 0b58 17050000 		lla	a0,.LC3
 2224      13050500 
 2225 0b60 97000000 		call	_Z12kprintStringPKc
 2225      E7800000 
 2226              	.LVL210:
 276:src/kernel/interrupt/interrupt_cpp.cpp ****             KCHECKPRINT(stval);
 2227              		.loc 1 276 13
 2228 0b68 17050000 		lla	a0,.LC5
 2228      13050500 
 2229 0b70 97000000 		call	_Z12kprintStringPKc
 2229      E7800000 
 2230              	.LVL211:
 276:src/kernel/interrupt/interrupt_cpp.cpp ****             KCHECKPRINT(stval);
 2231              		.loc 1 276 13
 2232 0b78 13060000 		li	a2,0
 2233 0b7c 93050001 		li	a1,16
 2234 0b80 13850900 		mv	a0,s3
 2235 0b84 97000000 		call	_Z9kprintIntmib
 2235      E7800000 
 2236              	.LVL212:
 276:src/kernel/interrupt/interrupt_cpp.cpp ****             KCHECKPRINT(stval);
 2237              		.loc 1 276 13
 2238 0b8c 17050000 		lla	a0,.LC3
 2238      13050500 
 2239 0b94 97000000 		call	_Z12kprintStringPKc
 2239      E7800000 
 2240              	.LVL213:
 277:src/kernel/interrupt/interrupt_cpp.cpp ****             kprintString("\n!!!PANIC DUE TO SUPERVISOR PAGE FAULT!!!\n");
 2241              		.loc 1 277 13
 277:src/kernel/interrupt/interrupt_cpp.cpp ****             kprintString("\n!!!PANIC DUE TO SUPERVISOR PAGE FAULT!!!\n");
 2242              		.loc 1 277 25 is_stmt 0
 2243 0b9c 17050000 		lla	a0,.LC6
 2243      13050500 
 2244 0ba4 97000000 		call	_Z12kprintStringPKc
 2244      E7800000 
 2245              	.LVL214:
 2246              	.L101:
 278:src/kernel/interrupt/interrupt_cpp.cpp ****             while(true);
 2247              		.loc 1 278 13 is_stmt 1 discriminator 2
 2248 0bac 6F000000 		j	.L101
 2249              	.LVL215:
 2250              	.L100:
 2251              	.LBB496:
 281:src/kernel/interrupt/interrupt_cpp.cpp ****             MemoryAllocator& allocator = MemoryAllocator::getInstance();
 2252              		.loc 1 281 13
 281:src/kernel/interrupt/interrupt_cpp.cpp ****             MemoryAllocator& allocator = MemoryAllocator::getInstance();
 2253              		.loc 1 281 71 is_stmt 0
 2254 0bb0 97000000 		call	_ZN15MemoryAllocator11getInstanceEv
 2254      E7800000 
 2255              	.LVL216:
 282:src/kernel/interrupt/interrupt_cpp.cpp ****             FreeSegment* fs = allocator.getFreeSegmentMeta((void*)stval);
GAS LISTING /tmp/ccce4vZ9.s 			page 60


 2256              		.loc 1 282 13 is_stmt 1
 282:src/kernel/interrupt/interrupt_cpp.cpp ****             FreeSegment* fs = allocator.getFreeSegmentMeta((void*)stval);
 2257              		.loc 1 282 59 is_stmt 0
 2258 0bb8 93850900 		mv	a1,s3
 2259 0bbc 97000000 		call	_ZN15MemoryAllocator18getFreeSegmentMetaEPv
 2259      E7800000 
 2260              	.LVL217:
 2261 0bc4 13090500 		mv	s2,a0
 2262              	.LVL218:
 284:src/kernel/interrupt/interrupt_cpp.cpp ****             if(fs){
 2263              		.loc 1 284 13 is_stmt 1
 2264 0bc8 63040502 		beq	a0,zero,.L102
 285:src/kernel/interrupt/interrupt_cpp.cpp ****                 Pager::getInstance().id_map(
 2265              		.loc 1 285 17
 285:src/kernel/interrupt/interrupt_cpp.cpp ****                 Pager::getInstance().id_map(
 2266              		.loc 1 285 36 is_stmt 0
 2267 0bcc 97000000 		call	_ZN5Pager11getInstanceEv
 2267      E7800000 
 2268              	.LVL219:
 285:src/kernel/interrupt/interrupt_cpp.cpp ****                 Pager::getInstance().id_map(
 2269              		.loc 1 285 44
 2270 0bd4 83350901 		ld	a1,16(s2)
 287:src/kernel/interrupt/interrupt_cpp.cpp ****                     (char*)fs->addr+fs->size, 
 2271              		.loc 1 287 41
 2272 0bd8 03368900 		ld	a2,8(s2)
 285:src/kernel/interrupt/interrupt_cpp.cpp ****                 Pager::getInstance().id_map(
 2273              		.loc 1 285 44
 2274 0bdc 93066001 		li	a3,22
 2275 0be0 3386C500 		add	a2,a1,a2
 2276 0be4 97000000 		call	_ZN5Pager6id_mapEPvS0_12PMTEntryBits
 2276      E7800000 
 2277              	.LVL220:
 2278              	.LBE496:
 2279              	.LBE495:
 2280              	.LBE488:
 299:src/kernel/interrupt/interrupt_cpp.cpp ****         }
 2281              		.loc 1 299 9
 2282 0bec 6FF01FDA 		j	.L89
 2283              	.LVL221:
 2284              	.L102:
 2285              	.LBB499:
 2286              	.LBB498:
 2287              	.LBB497:
 292:src/kernel/interrupt/interrupt_cpp.cpp ****                 kprintString("\n!!!PANIC DUE TO NOT HANDLED USER DATA PAGE FAULT !!!\n");
 2288              		.loc 1 292 17 is_stmt 1
 292:src/kernel/interrupt/interrupt_cpp.cpp ****                 kprintString("\n!!!PANIC DUE TO NOT HANDLED USER DATA PAGE FAULT !!!\n");
 2289              		.loc 1 292 29 is_stmt 0
 2290 0bf0 17050000 		lla	a0,.LC7
 2290      13050500 
 2291              	.LVL222:
 2292 0bf8 97000000 		call	_Z12kprintStringPKc
 2292      E7800000 
 2293              	.LVL223:
 293:src/kernel/interrupt/interrupt_cpp.cpp ****                 KCHECKPRINT(scause);
 2294              		.loc 1 293 17 is_stmt 1
 2295 0c00 17050000 		lla	a0,.LC2
 2295      13050500 
GAS LISTING /tmp/ccce4vZ9.s 			page 61


 2296 0c08 97000000 		call	_Z12kprintStringPKc
 2296      E7800000 
 2297              	.LVL224:
 293:src/kernel/interrupt/interrupt_cpp.cpp ****                 KCHECKPRINT(scause);
 2298              		.loc 1 293 17
 2299 0c10 13060000 		li	a2,0
 2300 0c14 93050001 		li	a1,16
 2301 0c18 13850400 		mv	a0,s1
 2302 0c1c 97000000 		call	_Z9kprintIntmib
 2302      E7800000 
 2303              	.LVL225:
 293:src/kernel/interrupt/interrupt_cpp.cpp ****                 KCHECKPRINT(scause);
 2304              		.loc 1 293 17
 2305 0c24 17050000 		lla	a0,.LC3
 2305      13050500 
 2306 0c2c 97000000 		call	_Z12kprintStringPKc
 2306      E7800000 
 2307              	.LVL226:
 294:src/kernel/interrupt/interrupt_cpp.cpp ****                 KCHECKPRINT(sepc);
 2308              		.loc 1 294 17
 2309 0c34 17050000 		lla	a0,.LC4
 2309      13050500 
 2310 0c3c 97000000 		call	_Z12kprintStringPKc
 2310      E7800000 
 2311              	.LVL227:
 294:src/kernel/interrupt/interrupt_cpp.cpp ****                 KCHECKPRINT(sepc);
 2312              		.loc 1 294 17
 2313 0c44 13060000 		li	a2,0
 2314 0c48 93050001 		li	a1,16
 2315 0c4c 13050A00 		mv	a0,s4
 2316 0c50 97000000 		call	_Z9kprintIntmib
 2316      E7800000 
 2317              	.LVL228:
 294:src/kernel/interrupt/interrupt_cpp.cpp ****                 KCHECKPRINT(sepc);
 2318              		.loc 1 294 17
 2319 0c58 17050000 		lla	a0,.LC3
 2319      13050500 
 2320 0c60 97000000 		call	_Z12kprintStringPKc
 2320      E7800000 
 2321              	.LVL229:
 295:src/kernel/interrupt/interrupt_cpp.cpp ****                 KCHECKPRINT(stval);
 2322              		.loc 1 295 17
 2323 0c68 17050000 		lla	a0,.LC5
 2323      13050500 
 2324 0c70 97000000 		call	_Z12kprintStringPKc
 2324      E7800000 
 2325              	.LVL230:
 295:src/kernel/interrupt/interrupt_cpp.cpp ****                 KCHECKPRINT(stval);
 2326              		.loc 1 295 17
 2327 0c78 13060000 		li	a2,0
 2328 0c7c 93050001 		li	a1,16
 2329 0c80 13850900 		mv	a0,s3
 2330 0c84 97000000 		call	_Z9kprintIntmib
 2330      E7800000 
 2331              	.LVL231:
 295:src/kernel/interrupt/interrupt_cpp.cpp ****                 KCHECKPRINT(stval);
 2332              		.loc 1 295 17
GAS LISTING /tmp/ccce4vZ9.s 			page 62


 2333 0c8c 17050000 		lla	a0,.LC3
 2333      13050500 
 2334 0c94 97000000 		call	_Z12kprintStringPKc
 2334      E7800000 
 2335              	.LVL232:
 2336              	.L103:
 296:src/kernel/interrupt/interrupt_cpp.cpp ****                 while(true);
 2337              		.loc 1 296 17 discriminator 3
 2338 0c9c 6F000000 		j	.L103
 2339              	.LVL233:
 2340              	.L106:
 2341              	.LBE497:
 2342              	.LBE498:
 2343              	.LBE499:
 2344              	.LBB500:
 2345              	.LBB486:
 318:src/kernel/interrupt/interrupt_cpp.cpp ****             kprintString("\nFATAL KERNEL ERROR: unauthorised access prompted!!\n");
 2346              		.loc 1 318 13
 318:src/kernel/interrupt/interrupt_cpp.cpp ****             kprintString("\nFATAL KERNEL ERROR: unauthorised access prompted!!\n");
 2347              		.loc 1 318 25 is_stmt 0
 2348 0ca0 17050000 		lla	a0,.LC13
 2348      13050500 
 2349              	.LVL234:
 2350 0ca8 97000000 		call	_Z12kprintStringPKc
 2350      E7800000 
 2351              	.LVL235:
 319:src/kernel/interrupt/interrupt_cpp.cpp ****             TCB::panicDispatch();
 2352              		.loc 1 319 13 is_stmt 1
 319:src/kernel/interrupt/interrupt_cpp.cpp ****             TCB::panicDispatch();
 2353              		.loc 1 319 31 is_stmt 0
 2354 0cb0 97000000 		call	_ZN3TCB13panicDispatchEv
 2354      E7800000 
 2355              	.LVL236:
 2356 0cb8 6FF05FCD 		j	.L89
 2357              	.LVL237:
 2358              	.L105:
 2359              	.LBE486:
 323:src/kernel/interrupt/interrupt_cpp.cpp ****         KCHECKPRINT(scause);
 2360              		.loc 1 323 9 is_stmt 1
 2361 0cbc 17050000 		lla	a0,.LC2
 2361      13050500 
 2362              	.LVL238:
 2363 0cc4 97000000 		call	_Z12kprintStringPKc
 2363      E7800000 
 2364              	.LVL239:
 323:src/kernel/interrupt/interrupt_cpp.cpp ****         KCHECKPRINT(scause);
 2365              		.loc 1 323 9
 2366 0ccc 13060000 		li	a2,0
 2367 0cd0 93050001 		li	a1,16
 2368 0cd4 13850400 		mv	a0,s1
 2369 0cd8 97000000 		call	_Z9kprintIntmib
 2369      E7800000 
 2370              	.LVL240:
 323:src/kernel/interrupt/interrupt_cpp.cpp ****         KCHECKPRINT(scause);
 2371              		.loc 1 323 9
 2372 0ce0 17050000 		lla	a0,.LC3
 2372      13050500 
GAS LISTING /tmp/ccce4vZ9.s 			page 63


 2373 0ce8 97000000 		call	_Z12kprintStringPKc
 2373      E7800000 
 2374              	.LVL241:
 324:src/kernel/interrupt/interrupt_cpp.cpp ****         kprintString("GRESKA\n");
 2375              		.loc 1 324 9
 324:src/kernel/interrupt/interrupt_cpp.cpp ****         kprintString("GRESKA\n");
 2376              		.loc 1 324 21 is_stmt 0
 2377 0cf0 17050000 		lla	a0,.LC14
 2377      13050500 
 2378 0cf8 97000000 		call	_Z12kprintStringPKc
 2378      E7800000 
 2379              	.LVL242:
 2380              	.L107:
 325:src/kernel/interrupt/interrupt_cpp.cpp ****         while(1);
 2381              		.loc 1 325 9 is_stmt 1 discriminator 4
 2382 0d00 6F000000 		j	.L107
 2383              	.LBE500:
 2384              	.LBE515:
 2385              	.LBE519:
 2386              	.LBE525:
 2387              	.LBE532:
 2388              	.LBE540:
 2389              	.LBE549:
 2390              		.cfi_endproc
 2391              	.LFE116:
 2393              		.section	.rodata.str1.8,"aMS",@progbits,1
 2394              		.align	3
 2395              	.LC0:
 2396 0000 4B53656D 		.string	"KSemaphore_cache"
 2396      6170686F 
 2396      72655F63 
 2396      61636865 
 2396      00
 2397 0011 00000000 		.zero	7
 2397      000000
 2398              	.LC1:
 2399 0018 0A212121 		.string	"\n!!!PANIC DUE TO NOT HANDLED INSTRUCTION PAGE FAULT !!!\n"
 2399      50414E49 
 2399      43204455 
 2399      4520544F 
 2399      204E4F54 
 2400 0051 00000000 		.zero	7
 2400      000000
 2401              	.LC2:
 2402 0058 73636175 		.string	"scause: "
 2402      73653A20 
 2402      00
 2403 0061 00000000 		.zero	7
 2403      000000
 2404              	.LC3:
 2405 0068 0A00     		.string	"\n"
 2406 006a 00000000 		.zero	6
 2406      0000
 2407              	.LC4:
 2408 0070 73657063 		.string	"sepc: "
 2408      3A2000
 2409 0077 00       		.zero	1
GAS LISTING /tmp/ccce4vZ9.s 			page 64


 2410              	.LC5:
 2411 0078 73747661 		.string	"stval: "
 2411      6C3A2000 
 2412              	.LC6:
 2413 0080 0A212121 		.string	"\n!!!PANIC DUE TO SUPERVISOR PAGE FAULT!!!\n"
 2413      50414E49 
 2413      43204455 
 2413      4520544F 
 2413      20535550 
 2414 00ab 00000000 		.zero	5
 2414      00
 2415              	.LC7:
 2416 00b0 0A212121 		.string	"\n!!!PANIC DUE TO NOT HANDLED USER DATA PAGE FAULT !!!\n"
 2416      50414E49 
 2416      43204455 
 2416      4520544F 
 2416      204E4F54 
 2417 00e7 00       		.zero	1
 2418              	.LC8:
 2419 00e8 0A455252 		.string	"\nERROR: Thread stopped due to unauthorised access!!\n"
 2419      4F523A20 
 2419      54687265 
 2419      61642073 
 2419      746F7070 
 2420 011d 000000   		.zero	3
 2421              	.LC9:
 2422 0120 53434155 		.string	"SCAUSE: "
 2422      53453A20 
 2422      00
 2423 0129 00000000 		.zero	7
 2423      000000
 2424              	.LC10:
 2425 0130 53455043 		.string	"SEPC: "
 2425      3A2000
 2426 0137 00       		.zero	1
 2427              	.LC11:
 2428 0138 53545641 		.string	"STVAL: "
 2428      4C3A2000 
 2429              	.LC12:
 2430 0140 0A0A00   		.string	"\n\n"
 2431 0143 00000000 		.zero	5
 2431      00
 2432              	.LC13:
 2433 0148 0A464154 		.string	"\nFATAL KERNEL ERROR: unauthorised access prompted!!\n"
 2433      414C204B 
 2433      45524E45 
 2433      4C204552 
 2433      524F523A 
 2434 017d 000000   		.zero	3
 2435              	.LC14:
 2436 0180 47524553 		.string	"GRESKA\n"
 2436      4B410A00 
 2437              		.text
 2438              	.Letext0:
 2439              		.file 7 "src/kernel/interrupt/../../../h/../h/../lib/hw.h"
 2440              		.file 8 "src/kernel/interrupt/../../../h/../h/../h/../h/list.h"
 2441              		.file 9 "src/kernel/interrupt/../../../h/../h/../h/object_cache.h"
GAS LISTING /tmp/ccce4vZ9.s 			page 65


 2442              		.file 10 "src/kernel/interrupt/../../../h/../h/slab_allocator.h"
 2443              		.file 11 "src/kernel/interrupt/../../../h/../h/../h/memory_allocator.hpp"
 2444              		.file 12 "src/kernel/interrupt/../../../h/../h/stdio.hpp"
 2445              		.file 13 "src/kernel/interrupt/../../../h/../h/scheduler.hpp"
 2446              		.file 14 "src/kernel/interrupt/../../../h/../h/pmt.h"
 2447              		.file 15 "src/kernel/interrupt/../../../h/../h/pager.h"
 2448              		.file 16 "src/kernel/interrupt/../../../h/../h/slab.h"
 2449              		.file 17 "src/kernel/interrupt/../../../h/kernel_lib.h"
 2450              		.file 18 "src/kernel/interrupt/../../../h/../h/kernel_funs.h"
 13913              		.align	3
 13916              	DW.ref.__gxx_personality_v0:
 13917 0000 00000000 		.dword	__gxx_personality_v0
 13917      00000000 
 13918              		.ident	"GCC: () 8.3.0"
GAS LISTING /tmp/ccce4vZ9.s 			page 66


DEFINED SYMBOLS
                            *ABS*:0000000000000000 interrupt_cpp.cpp
     /tmp/ccce4vZ9.s:12     .text:0000000000000000 _Z13timer_handlerv
     /tmp/ccce4vZ9.s:16     .text:0000000000000000 .L0 
     /tmp/ccce4vZ9.s:17     .text:0000000000000000 .L0 
     /tmp/ccce4vZ9.s:18     .text:0000000000000004 .L0 
     /tmp/ccce4vZ9.s:23     .text:0000000000000014 .L0 
     /tmp/ccce4vZ9.s:24     .text:0000000000000014 .L0 
     /tmp/ccce4vZ9.s:25     .text:0000000000000014 .L0 
     /tmp/ccce4vZ9.s:26     .text:0000000000000014 .L0 
     /tmp/ccce4vZ9.s:28     .text:0000000000000018 .L0 
     /tmp/ccce4vZ9.s:30     .text:0000000000000018 .L0 
     /tmp/ccce4vZ9.s:31     .text:0000000000000018 .L0 
     /tmp/ccce4vZ9.s:34     .text:0000000000000020 .L0 
     /tmp/ccce4vZ9.s:35     .text:0000000000000020 .L0 
     /tmp/ccce4vZ9.s:41     .text:0000000000000034 .L0 
     /tmp/ccce4vZ9.s:42     .text:0000000000000034 .L0 
     /tmp/ccce4vZ9.s:49     .text:0000000000000040 .L0 
     /tmp/ccce4vZ9.s:50     .text:0000000000000040 .L0 
     /tmp/ccce4vZ9.s:55     .text:0000000000000044 .L0 
     /tmp/ccce4vZ9.s:63     .text:0000000000000048 .L0 
     /tmp/ccce4vZ9.s:64     .text:0000000000000048 .L0 
     /tmp/ccce4vZ9.s:65     .text:0000000000000048 .L0 
     /tmp/ccce4vZ9.s:75     .text:0000000000000050 .L0 
     /tmp/ccce4vZ9.s:76     .text:0000000000000054 .L0 
     /tmp/ccce4vZ9.s:77     .text:0000000000000054 .L0 
     /tmp/ccce4vZ9.s:79     .text:0000000000000058 .L0 
     /tmp/ccce4vZ9.s:80     .text:0000000000000058 .L0 
     /tmp/ccce4vZ9.s:82     .text:000000000000005c .L0 
     /tmp/ccce4vZ9.s:84     .text:0000000000000060 .L0 
     /tmp/ccce4vZ9.s:86     .text:0000000000000064 .L0 
     /tmp/ccce4vZ9.s:89     .text:0000000000000068 .L0 
     /tmp/ccce4vZ9.s:95     .text:0000000000000068 .L0 
     /tmp/ccce4vZ9.s:96     .text:0000000000000068 .L0 
     /tmp/ccce4vZ9.s:97     .text:0000000000000068 .L0 
src/kernel/interrupt/../../../h/../h/riscv.hpp:220    .text:0000000000000068 .L0 
     /tmp/ccce4vZ9.s:105    .text:0000000000000070 .L0 
     /tmp/ccce4vZ9.s:106    .text:0000000000000070 .L0 
     /tmp/ccce4vZ9.s:113    .text:0000000000000074 .L0 
     /tmp/ccce4vZ9.s:114    .text:0000000000000074 .L0 
src/kernel/interrupt/../../../h/../h/riscv.hpp:146    .text:0000000000000074 .L0 
     /tmp/ccce4vZ9.s:122    .text:000000000000007c .L0 
     /tmp/ccce4vZ9.s:123    .text:000000000000007c .L0 
     /tmp/ccce4vZ9.s:128    .text:0000000000000080 .L0 
     /tmp/ccce4vZ9.s:129    .text:0000000000000080 .L0 
     /tmp/ccce4vZ9.s:131    .text:0000000000000088 .L0 
     /tmp/ccce4vZ9.s:132    .text:0000000000000088 .L0 
     /tmp/ccce4vZ9.s:137    .text:0000000000000090 .L0 
     /tmp/ccce4vZ9.s:138    .text:0000000000000090 .L0 
src/kernel/interrupt/../../../h/../h/riscv.hpp:215    .text:0000000000000090 .L0 
     /tmp/ccce4vZ9.s:150    .text:0000000000000094 .L0 
     /tmp/ccce4vZ9.s:151    .text:0000000000000094 .L0 
src/kernel/interrupt/../../../h/../h/riscv.hpp:141    .text:0000000000000094 .L0 
     /tmp/ccce4vZ9.s:162    .text:000000000000009c .L0 
     /tmp/ccce4vZ9.s:168    .text:000000000000009c _Z8usrEcallmmmmm
     /tmp/ccce4vZ9.s:171    .text:000000000000009c .L0 
     /tmp/ccce4vZ9.s:13916  .sdata.DW.ref.__gxx_personality_v0:0000000000000000 DW.ref.__gxx_personality_v0
GAS LISTING /tmp/ccce4vZ9.s 			page 67


     /tmp/ccce4vZ9.s:175    .text:000000000000009c .L0 
     /tmp/ccce4vZ9.s:176    .text:00000000000000a0 .L0 
     /tmp/ccce4vZ9.s:185    .text:00000000000000c0 .L0 
     /tmp/ccce4vZ9.s:186    .text:00000000000000c0 .L0 
     /tmp/ccce4vZ9.s:187    .text:00000000000000c0 .L0 
     /tmp/ccce4vZ9.s:188    .text:00000000000000c0 .L0 
     /tmp/ccce4vZ9.s:189    .text:00000000000000c0 .L0 
     /tmp/ccce4vZ9.s:190    .text:00000000000000c0 .L0 
     /tmp/ccce4vZ9.s:191    .text:00000000000000c0 .L0 
     /tmp/ccce4vZ9.s:192    .text:00000000000000c0 .L0 
     /tmp/ccce4vZ9.s:194    .text:00000000000000c4 .L0 
     /tmp/ccce4vZ9.s:199    .text:00000000000000c8 .L0 
     /tmp/ccce4vZ9.s:200    .text:00000000000000c8 .L0 
     /tmp/ccce4vZ9.s:201    .text:00000000000000c8 .L0 
src/kernel/interrupt/../../../h/../h/riscv.hpp:146    .text:00000000000000c8 .L0 
     /tmp/ccce4vZ9.s:209    .text:00000000000000d0 .L0 
     /tmp/ccce4vZ9.s:210    .text:00000000000000d0 .L0 
     /tmp/ccce4vZ9.s:214    .text:00000000000000d4 .L0 
     /tmp/ccce4vZ9.s:219    .text:00000000000000d8 .L0 
     /tmp/ccce4vZ9.s:220    .text:00000000000000d8 .L0 
src/kernel/interrupt/../../../h/../h/riscv.hpp:220    .text:00000000000000d8 .L0 
     /tmp/ccce4vZ9.s:228    .text:00000000000000e0 .L0 
     /tmp/ccce4vZ9.s:229    .text:00000000000000e0 .L0 
     /tmp/ccce4vZ9.s:235    .text:00000000000000e4 .L0 
     /tmp/ccce4vZ9.s:243    .text:00000000000000f4 .L0 
     /tmp/ccce4vZ9.s:251    .text:00000000000000fc .L0 
     /tmp/ccce4vZ9.s:261    .text:0000000000000104 .L0 
     /tmp/ccce4vZ9.s:273    .text:000000000000010c .L0 
     /tmp/ccce4vZ9.s:287    .text:0000000000000114 .L0 
     /tmp/ccce4vZ9.s:303    .text:000000000000011c .L0 
     /tmp/ccce4vZ9.s:321    .text:0000000000000124 .L0 
     /tmp/ccce4vZ9.s:341    .text:000000000000012c .L0 
     /tmp/ccce4vZ9.s:363    .text:0000000000000134 .L0 
     /tmp/ccce4vZ9.s:366    .text:000000000000013c .L0 
     /tmp/ccce4vZ9.s:369    .text:0000000000000144 .L0 
     /tmp/ccce4vZ9.s:372    .text:000000000000014c .L0 
     /tmp/ccce4vZ9.s:375    .text:0000000000000154 .L0 
     /tmp/ccce4vZ9.s:376    .text:0000000000000154 .L0 
     /tmp/ccce4vZ9.s:384    .text:0000000000000164 .L0 
     /tmp/ccce4vZ9.s:390    .text:0000000000000170 .L0 
     /tmp/ccce4vZ9.s:395    .text:0000000000000180 .L0 
     /tmp/ccce4vZ9.s:399    .text:000000000000018c .L0 
     /tmp/ccce4vZ9.s:401    .text:0000000000000190 .L0 
     /tmp/ccce4vZ9.s:404    .text:0000000000000198 .L0 
     /tmp/ccce4vZ9.s:406    .text:000000000000019c .L0 
     /tmp/ccce4vZ9.s:412    .text:00000000000001b0 .L0 
     /tmp/ccce4vZ9.s:414    .text:00000000000001b4 .L0 
     /tmp/ccce4vZ9.s:418    .text:00000000000001c0 .L0 
     /tmp/ccce4vZ9.s:436    .text:00000000000001d0 .L0 
     /tmp/ccce4vZ9.s:437    .text:00000000000001d0 .L0 
     /tmp/ccce4vZ9.s:440    .text:00000000000001d8 .L0 
     /tmp/ccce4vZ9.s:450    .text:00000000000001e8 .L0 
     /tmp/ccce4vZ9.s:451    .text:00000000000001e8 .L0 
src/kernel/interrupt/../../../h/../h/riscv.hpp:215    .text:00000000000001e8 .L0 
     /tmp/ccce4vZ9.s:463    .text:00000000000001ec .L0 
     /tmp/ccce4vZ9.s:464    .text:00000000000001ec .L0 
src/kernel/interrupt/../../../h/../h/riscv.hpp:141    .text:00000000000001ec .L0 
GAS LISTING /tmp/ccce4vZ9.s 			page 68


     /tmp/ccce4vZ9.s:474    .text:00000000000001f0 .L0 
     /tmp/ccce4vZ9.s:475    .text:00000000000001f0 .L0 
     /tmp/ccce4vZ9.s:477    .text:00000000000001f8 .L0 
     /tmp/ccce4vZ9.s:478    .text:00000000000001f8 .L0 
     /tmp/ccce4vZ9.s:480    .text:00000000000001fc .L0 
     /tmp/ccce4vZ9.s:481    .text:00000000000001fc .L0 
     /tmp/ccce4vZ9.s:483    .text:0000000000000200 .L0 
     /tmp/ccce4vZ9.s:486    .text:0000000000000204 .L0 
     /tmp/ccce4vZ9.s:489    .text:0000000000000208 .L0 
     /tmp/ccce4vZ9.s:492    .text:000000000000020c .L0 
     /tmp/ccce4vZ9.s:494    .text:0000000000000210 .L0 
     /tmp/ccce4vZ9.s:496    .text:0000000000000214 .L0 
     /tmp/ccce4vZ9.s:498    .text:0000000000000218 .L0 
     /tmp/ccce4vZ9.s:502    .text:000000000000021c .L0 
     /tmp/ccce4vZ9.s:506    .text:000000000000021c .L0 
     /tmp/ccce4vZ9.s:507    .text:000000000000021c .L0 
     /tmp/ccce4vZ9.s:510    .text:0000000000000224 .L0 
     /tmp/ccce4vZ9.s:514    .text:0000000000000230 .L0 
     /tmp/ccce4vZ9.s:522    .text:0000000000000238 .L0 
     /tmp/ccce4vZ9.s:523    .text:0000000000000238 .L0 
     /tmp/ccce4vZ9.s:524    .text:0000000000000238 .L0 
     /tmp/ccce4vZ9.s:532    .text:000000000000024c .L0 
     /tmp/ccce4vZ9.s:534    .text:0000000000000250 .L0 
     /tmp/ccce4vZ9.s:536    .text:0000000000000254 .L0 
     /tmp/ccce4vZ9.s:542    .text:000000000000025c .L0 
     /tmp/ccce4vZ9.s:550    .text:0000000000000264 .L0 
     /tmp/ccce4vZ9.s:551    .text:0000000000000264 .L0 
     /tmp/ccce4vZ9.s:557    .text:0000000000000270 .L0 
     /tmp/ccce4vZ9.s:558    .text:0000000000000270 .L0 
     /tmp/ccce4vZ9.s:565    .text:0000000000000278 .L0 
     /tmp/ccce4vZ9.s:566    .text:0000000000000278 .L0 
     /tmp/ccce4vZ9.s:573    .text:0000000000000284 .L0 
     /tmp/ccce4vZ9.s:574    .text:0000000000000284 .L0 
     /tmp/ccce4vZ9.s:576    .text:000000000000028c .L0 
     /tmp/ccce4vZ9.s:577    .text:000000000000028c .L0 
     /tmp/ccce4vZ9.s:584    .text:0000000000000298 .L0 
     /tmp/ccce4vZ9.s:585    .text:0000000000000298 .L0 
     /tmp/ccce4vZ9.s:594    .text:00000000000002a8 .L0 
     /tmp/ccce4vZ9.s:598    .text:00000000000002a8 .L0 
     /tmp/ccce4vZ9.s:599    .text:00000000000002a8 .L0 
     /tmp/ccce4vZ9.s:605    .text:00000000000002b8 .L0 
     /tmp/ccce4vZ9.s:612    .text:00000000000002cc .L0 
     /tmp/ccce4vZ9.s:617    .text:00000000000002d0 .L0 
     /tmp/ccce4vZ9.s:623    .text:00000000000002d4 .L0 
     /tmp/ccce4vZ9.s:630    .text:00000000000002e0 .L0 
     /tmp/ccce4vZ9.s:631    .text:00000000000002e0 .L0 
     /tmp/ccce4vZ9.s:635    .text:00000000000002f0 .L0 
     /tmp/ccce4vZ9.s:636    .text:00000000000002f0 .L0 
     /tmp/ccce4vZ9.s:642    .text:00000000000002f4 .L0 
     /tmp/ccce4vZ9.s:644    .text:00000000000002f8 .L0 
     /tmp/ccce4vZ9.s:646    .text:00000000000002fc .L0 
     /tmp/ccce4vZ9.s:653    .text:0000000000000304 .L0 
     /tmp/ccce4vZ9.s:686    .text:0000000000000360 .L0 
     /tmp/ccce4vZ9.s:694    .text:0000000000000368 .L0 
     /tmp/ccce4vZ9.s:695    .text:0000000000000368 .L0 
     /tmp/ccce4vZ9.s:696    .text:0000000000000368 .L0 
     /tmp/ccce4vZ9.s:700    .text:0000000000000374 .L0 
GAS LISTING /tmp/ccce4vZ9.s 			page 69


     /tmp/ccce4vZ9.s:709    .text:000000000000037c .L0 
     /tmp/ccce4vZ9.s:710    .text:000000000000037c .L0 
     /tmp/ccce4vZ9.s:711    .text:000000000000037c .L0 
     /tmp/ccce4vZ9.s:715    .text:0000000000000388 .L0 
     /tmp/ccce4vZ9.s:717    .text:000000000000038c .L0 
     /tmp/ccce4vZ9.s:723    .text:0000000000000394 .L0 
     /tmp/ccce4vZ9.s:724    .text:0000000000000394 .L0 
     /tmp/ccce4vZ9.s:728    .text:00000000000003a0 .L0 
     /tmp/ccce4vZ9.s:737    .text:00000000000003a8 .L0 
     /tmp/ccce4vZ9.s:738    .text:00000000000003a8 .L0 
     /tmp/ccce4vZ9.s:739    .text:00000000000003a8 .L0 
     /tmp/ccce4vZ9.s:743    .text:00000000000003b4 .L0 
     /tmp/ccce4vZ9.s:745    .text:00000000000003b8 .L0 
     /tmp/ccce4vZ9.s:751    .text:00000000000003c0 .L0 
     /tmp/ccce4vZ9.s:752    .text:00000000000003c0 .L0 
     /tmp/ccce4vZ9.s:756    .text:00000000000003cc .L0 
     /tmp/ccce4vZ9.s:763    .text:00000000000003d4 .L0 
     /tmp/ccce4vZ9.s:764    .text:00000000000003d4 .L0 
     /tmp/ccce4vZ9.s:771    .text:00000000000003e4 .L0 
     /tmp/ccce4vZ9.s:772    .text:00000000000003e4 .L0 
     /tmp/ccce4vZ9.s:778    .text:00000000000003f0 .L0 
     /tmp/ccce4vZ9.s:782    .text:00000000000003fc .L0 
     /tmp/ccce4vZ9.s:788    .text:000000000000040c .L0 
     /tmp/ccce4vZ9.s:792    .text:0000000000000418 .L0 
     /tmp/ccce4vZ9.s:794    .text:000000000000041c .L0 
     /tmp/ccce4vZ9.s:798    .text:0000000000000424 .L0 
     /tmp/ccce4vZ9.s:800    .text:0000000000000428 .L0 
     /tmp/ccce4vZ9.s:806    .text:000000000000043c .L0 
     /tmp/ccce4vZ9.s:808    .text:0000000000000440 .L0 
     /tmp/ccce4vZ9.s:812    .text:000000000000044c .L0 
     /tmp/ccce4vZ9.s:829    .text:000000000000045c .L0 
     /tmp/ccce4vZ9.s:855    .text:000000000000045c _Z8sysEcallmmmmm
     /tmp/ccce4vZ9.s:858    .text:000000000000045c .L0 
     /tmp/ccce4vZ9.s:862    .text:000000000000045c .L0 
     /tmp/ccce4vZ9.s:863    .text:0000000000000460 .L0 
     /tmp/ccce4vZ9.s:871    .text:000000000000047c .L0 
     /tmp/ccce4vZ9.s:872    .text:000000000000047c .L0 
     /tmp/ccce4vZ9.s:873    .text:000000000000047c .L0 
     /tmp/ccce4vZ9.s:874    .text:000000000000047c .L0 
     /tmp/ccce4vZ9.s:875    .text:000000000000047c .L0 
     /tmp/ccce4vZ9.s:876    .text:000000000000047c .L0 
     /tmp/ccce4vZ9.s:877    .text:000000000000047c .L0 
     /tmp/ccce4vZ9.s:879    .text:0000000000000480 .L0 
     /tmp/ccce4vZ9.s:884    .text:0000000000000484 .L0 
     /tmp/ccce4vZ9.s:885    .text:0000000000000484 .L0 
     /tmp/ccce4vZ9.s:886    .text:0000000000000484 .L0 
src/kernel/interrupt/../../../h/../h/riscv.hpp:146    .text:0000000000000484 .L0 
     /tmp/ccce4vZ9.s:894    .text:000000000000048c .L0 
     /tmp/ccce4vZ9.s:895    .text:000000000000048c .L0 
     /tmp/ccce4vZ9.s:899    .text:0000000000000490 .L0 
     /tmp/ccce4vZ9.s:904    .text:0000000000000494 .L0 
     /tmp/ccce4vZ9.s:905    .text:0000000000000494 .L0 
src/kernel/interrupt/../../../h/../h/riscv.hpp:220    .text:0000000000000494 .L0 
     /tmp/ccce4vZ9.s:913    .text:000000000000049c .L0 
     /tmp/ccce4vZ9.s:914    .text:000000000000049c .L0 
     /tmp/ccce4vZ9.s:920    .text:00000000000004a0 .L0 
     /tmp/ccce4vZ9.s:928    .text:00000000000004b0 .L0 
GAS LISTING /tmp/ccce4vZ9.s 			page 70


     /tmp/ccce4vZ9.s:936    .text:00000000000004b8 .L0 
     /tmp/ccce4vZ9.s:946    .text:00000000000004c0 .L0 
     /tmp/ccce4vZ9.s:958    .text:00000000000004c8 .L0 
     /tmp/ccce4vZ9.s:972    .text:00000000000004d0 .L0 
     /tmp/ccce4vZ9.s:988    .text:00000000000004d8 .L0 
     /tmp/ccce4vZ9.s:1006   .text:00000000000004e0 .L0 
     /tmp/ccce4vZ9.s:1026   .text:00000000000004e8 .L0 
     /tmp/ccce4vZ9.s:1048   .text:00000000000004f0 .L0 
     /tmp/ccce4vZ9.s:1051   .text:00000000000004f8 .L0 
     /tmp/ccce4vZ9.s:1054   .text:0000000000000500 .L0 
     /tmp/ccce4vZ9.s:1057   .text:0000000000000508 .L0 
     /tmp/ccce4vZ9.s:1060   .text:0000000000000510 .L0 
     /tmp/ccce4vZ9.s:1061   .text:0000000000000510 .L0 
     /tmp/ccce4vZ9.s:1069   .text:0000000000000520 .L0 
     /tmp/ccce4vZ9.s:1075   .text:000000000000052c .L0 
     /tmp/ccce4vZ9.s:1081   .text:000000000000053c .L0 
     /tmp/ccce4vZ9.s:1085   .text:0000000000000548 .L0 
     /tmp/ccce4vZ9.s:1087   .text:000000000000054c .L0 
     /tmp/ccce4vZ9.s:1090   .text:0000000000000554 .L0 
     /tmp/ccce4vZ9.s:1092   .text:0000000000000558 .L0 
     /tmp/ccce4vZ9.s:1098   .text:000000000000056c .L0 
     /tmp/ccce4vZ9.s:1100   .text:0000000000000570 .L0 
     /tmp/ccce4vZ9.s:1104   .text:000000000000057c .L0 
     /tmp/ccce4vZ9.s:1120   .text:0000000000000588 .L0 
     /tmp/ccce4vZ9.s:1126   .text:0000000000000590 .L0 
     /tmp/ccce4vZ9.s:1127   .text:0000000000000590 .L0 
     /tmp/ccce4vZ9.s:1130   .text:0000000000000598 .L0 
     /tmp/ccce4vZ9.s:1138   .text:00000000000005a4 .L0 
     /tmp/ccce4vZ9.s:1139   .text:00000000000005a4 .L0 
src/kernel/interrupt/../../../h/../h/riscv.hpp:141    .text:00000000000005a4 .L0 
     /tmp/ccce4vZ9.s:1149   .text:00000000000005a8 .L0 
     /tmp/ccce4vZ9.s:1150   .text:00000000000005a8 .L0 
     /tmp/ccce4vZ9.s:1151   .text:00000000000005ac .L0 
     /tmp/ccce4vZ9.s:1152   .text:00000000000005ac .L0 
     /tmp/ccce4vZ9.s:1154   .text:00000000000005b0 .L0 
     /tmp/ccce4vZ9.s:1155   .text:00000000000005b0 .L0 
     /tmp/ccce4vZ9.s:1157   .text:00000000000005b4 .L0 
     /tmp/ccce4vZ9.s:1159   .text:00000000000005b8 .L0 
     /tmp/ccce4vZ9.s:1162   .text:00000000000005bc .L0 
     /tmp/ccce4vZ9.s:1164   .text:00000000000005c0 .L0 
     /tmp/ccce4vZ9.s:1166   .text:00000000000005c4 .L0 
     /tmp/ccce4vZ9.s:1168   .text:00000000000005c8 .L0 
     /tmp/ccce4vZ9.s:1172   .text:00000000000005cc .L0 
     /tmp/ccce4vZ9.s:1176   .text:00000000000005cc .L0 
     /tmp/ccce4vZ9.s:1177   .text:00000000000005cc .L0 
     /tmp/ccce4vZ9.s:1180   .text:00000000000005d4 .L0 
     /tmp/ccce4vZ9.s:1189   .text:00000000000005e4 .L0 
     /tmp/ccce4vZ9.s:1190   .text:00000000000005e4 .L0 
     /tmp/ccce4vZ9.s:1191   .text:00000000000005e4 .L0 
     /tmp/ccce4vZ9.s:1199   .text:00000000000005f8 .L0 
     /tmp/ccce4vZ9.s:1201   .text:00000000000005fc .L0 
     /tmp/ccce4vZ9.s:1203   .text:0000000000000600 .L0 
     /tmp/ccce4vZ9.s:1207   .text:0000000000000608 .L0 
     /tmp/ccce4vZ9.s:1214   .text:0000000000000610 .L0 
     /tmp/ccce4vZ9.s:1215   .text:0000000000000610 .L0 
     /tmp/ccce4vZ9.s:1221   .text:000000000000061c .L0 
     /tmp/ccce4vZ9.s:1222   .text:000000000000061c .L0 
GAS LISTING /tmp/ccce4vZ9.s 			page 71


     /tmp/ccce4vZ9.s:1229   .text:0000000000000624 .L0 
     /tmp/ccce4vZ9.s:1230   .text:0000000000000624 .L0 
     /tmp/ccce4vZ9.s:1235   .text:000000000000062c .L0 
     /tmp/ccce4vZ9.s:1236   .text:000000000000062c .L0 
src/kernel/interrupt/../../../h/../h/riscv.hpp:215    .text:000000000000062c .L0 
     /tmp/ccce4vZ9.s:1249   .text:0000000000000630 .L0 
     /tmp/ccce4vZ9.s:1259   .text:0000000000000638 .L0 
     /tmp/ccce4vZ9.s:1260   .text:0000000000000638 .L0 
     /tmp/ccce4vZ9.s:1262   .text:0000000000000640 .L0 
     /tmp/ccce4vZ9.s:1263   .text:0000000000000640 .L0 
     /tmp/ccce4vZ9.s:1268   .text:0000000000000648 .L0 
     /tmp/ccce4vZ9.s:1269   .text:0000000000000648 .L0 
src/kernel/interrupt/../../../h/../h/riscv.hpp:215    .text:0000000000000648 .L0 
     /tmp/ccce4vZ9.s:1283   .text:000000000000064c .L0 
     /tmp/ccce4vZ9.s:1294   .text:0000000000000654 .L0 
     /tmp/ccce4vZ9.s:1295   .text:0000000000000654 .L0 
     /tmp/ccce4vZ9.s:1305   .text:0000000000000660 .L0 
     /tmp/ccce4vZ9.s:1318   .text:0000000000000668 .L0 
     /tmp/ccce4vZ9.s:1321   .text:0000000000000668 .L0 
     /tmp/ccce4vZ9.s:1322   .text:0000000000000668 .L0 
     /tmp/ccce4vZ9.s:1328   .text:0000000000000678 .L0 
     /tmp/ccce4vZ9.s:1335   .text:000000000000068c .L0 
     /tmp/ccce4vZ9.s:1340   .text:0000000000000690 .L0 
     /tmp/ccce4vZ9.s:1345   .text:0000000000000694 .L0 
     /tmp/ccce4vZ9.s:1352   .text:00000000000006a0 .L0 
     /tmp/ccce4vZ9.s:1353   .text:00000000000006a0 .L0 
     /tmp/ccce4vZ9.s:1357   .text:00000000000006b0 .L0 
     /tmp/ccce4vZ9.s:1358   .text:00000000000006b0 .L0 
     /tmp/ccce4vZ9.s:1364   .text:00000000000006b4 .L0 
     /tmp/ccce4vZ9.s:1374   .text:00000000000006b8 .L0 
     /tmp/ccce4vZ9.s:1389   .text:00000000000006c0 .L0 
     /tmp/ccce4vZ9.s:1425   .text:000000000000071c .L0 
     /tmp/ccce4vZ9.s:1426   .text:000000000000071c .L0 
     /tmp/ccce4vZ9.s:1427   .text:000000000000071c .L0 
     /tmp/ccce4vZ9.s:1429   .text:0000000000000720 .L0 
     /tmp/ccce4vZ9.s:1435   .text:000000000000072c .L0 
     /tmp/ccce4vZ9.s:1452   .text:0000000000000744 .L0 
     /tmp/ccce4vZ9.s:1467   .text:000000000000074c .L0 
     /tmp/ccce4vZ9.s:1468   .text:000000000000074c .L0 
     /tmp/ccce4vZ9.s:1469   .text:000000000000074c .L0 
     /tmp/ccce4vZ9.s:1475   .text:0000000000000758 .L0 
     /tmp/ccce4vZ9.s:1476   .text:0000000000000758 .L0 
src/kernel/interrupt/../../../h/../h/riscv.hpp:215    .text:0000000000000758 .L0 
     /tmp/ccce4vZ9.s:1491   .text:0000000000000760 .L0 
     /tmp/ccce4vZ9.s:1492   .text:0000000000000760 .L0 
     /tmp/ccce4vZ9.s:1493   .text:0000000000000760 .L0 
     /tmp/ccce4vZ9.s:1508   .text:000000000000076c .L0 
     /tmp/ccce4vZ9.s:1523   .text:0000000000000774 .L0 
     /tmp/ccce4vZ9.s:1524   .text:0000000000000774 .L0 
     /tmp/ccce4vZ9.s:1530   .text:0000000000000780 .L0 
     /tmp/ccce4vZ9.s:1531   .text:0000000000000780 .L0 
src/kernel/interrupt/../../../h/../h/riscv.hpp:215    .text:0000000000000780 .L0 
     /tmp/ccce4vZ9.s:1550   .text:0000000000000784 .L0 
     /tmp/ccce4vZ9.s:1565   .text:000000000000078c .L0 
     /tmp/ccce4vZ9.s:1566   .text:000000000000078c .L0 
     /tmp/ccce4vZ9.s:1572   .text:0000000000000798 .L0 
     /tmp/ccce4vZ9.s:1576   .text:00000000000007a4 .L0 
GAS LISTING /tmp/ccce4vZ9.s 			page 72


     /tmp/ccce4vZ9.s:1582   .text:00000000000007b4 .L0 
     /tmp/ccce4vZ9.s:1586   .text:00000000000007c0 .L0 
     /tmp/ccce4vZ9.s:1588   .text:00000000000007c4 .L0 
     /tmp/ccce4vZ9.s:1592   .text:00000000000007cc .L0 
     /tmp/ccce4vZ9.s:1594   .text:00000000000007d0 .L0 
     /tmp/ccce4vZ9.s:1600   .text:00000000000007e4 .L0 
     /tmp/ccce4vZ9.s:1602   .text:00000000000007e8 .L0 
     /tmp/ccce4vZ9.s:1606   .text:00000000000007f4 .L0 
     /tmp/ccce4vZ9.s:1613   .text:0000000000000800 .L0 
     /tmp/ccce4vZ9.s:1626   .text:0000000000000808 .L0 
     /tmp/ccce4vZ9.s:1651   .text:0000000000000808 interrupt
     /tmp/ccce4vZ9.s:1654   .text:0000000000000808 .L0 
     /tmp/ccce4vZ9.s:1656   .text:0000000000000808 .L0 
     /tmp/ccce4vZ9.s:1657   .text:000000000000080c .L0 
     /tmp/ccce4vZ9.s:1664   .text:0000000000000824 .L0 
     /tmp/ccce4vZ9.s:1665   .text:0000000000000824 .L0 
     /tmp/ccce4vZ9.s:1666   .text:0000000000000824 .L0 
     /tmp/ccce4vZ9.s:1667   .text:0000000000000824 .L0 
     /tmp/ccce4vZ9.s:1668   .text:0000000000000824 .L0 
     /tmp/ccce4vZ9.s:1669   .text:0000000000000824 .L0 
     /tmp/ccce4vZ9.s:1671   .text:0000000000000828 .L0 
     /tmp/ccce4vZ9.s:1675   .text:0000000000000828 .L0 
     /tmp/ccce4vZ9.s:1676   .text:0000000000000828 .L0 
     /tmp/ccce4vZ9.s:1677   .text:0000000000000828 .L0 
src/kernel/interrupt/../../../h/../h/riscv.hpp:136    .text:0000000000000828 .L0 
     /tmp/ccce4vZ9.s:1685   .text:0000000000000830 .L0 
     /tmp/ccce4vZ9.s:1686   .text:0000000000000830 .L0 
     /tmp/ccce4vZ9.s:1692   .text:0000000000000834 .L0 
     /tmp/ccce4vZ9.s:1698   .text:000000000000083c .L0 
     /tmp/ccce4vZ9.s:1706   .text:0000000000000844 .L0 
     /tmp/ccce4vZ9.s:1718   .text:0000000000000854 .L0 
     /tmp/ccce4vZ9.s:1732   .text:0000000000000864 .L0 
     /tmp/ccce4vZ9.s:1746   .text:000000000000086c .L0 
     /tmp/ccce4vZ9.s:1749   .text:0000000000000874 .L0 
     /tmp/ccce4vZ9.s:1765   .text:000000000000087c .L0 
     /tmp/ccce4vZ9.s:1768   .text:0000000000000884 .L0 
     /tmp/ccce4vZ9.s:1771   .text:000000000000088c .L0 
     /tmp/ccce4vZ9.s:1790   .text:0000000000000894 .L0 
     /tmp/ccce4vZ9.s:1791   .text:0000000000000894 .L0 
     /tmp/ccce4vZ9.s:1797   .text:00000000000008a0 .L0 
     /tmp/ccce4vZ9.s:1798   .text:00000000000008a0 .L0 
     /tmp/ccce4vZ9.s:1803   .text:00000000000008a4 .L0 
     /tmp/ccce4vZ9.s:1806   .text:00000000000008a8 .L0 
     /tmp/ccce4vZ9.s:1807   .text:00000000000008a8 .L0 
src/kernel/interrupt/interrupt_cpp.cpp:308    .text:00000000000008a8 .L0 
     /tmp/ccce4vZ9.s:1814   .text:00000000000008ac .L0 
     /tmp/ccce4vZ9.s:1816   .text:00000000000008ac .L0 
     /tmp/ccce4vZ9.s:1821   .text:00000000000008bc .L0 
     /tmp/ccce4vZ9.s:1822   .text:00000000000008bc .L0 
     /tmp/ccce4vZ9.s:1826   .text:00000000000008cc .L0 
     /tmp/ccce4vZ9.s:1827   .text:00000000000008cc .L0 
     /tmp/ccce4vZ9.s:1833   .text:00000000000008e0 .L0 
     /tmp/ccce4vZ9.s:1834   .text:00000000000008e0 .L0 
     /tmp/ccce4vZ9.s:1838   .text:00000000000008f0 .L0 
     /tmp/ccce4vZ9.s:1839   .text:00000000000008f0 .L0 
     /tmp/ccce4vZ9.s:1845   .text:0000000000000900 .L0 
     /tmp/ccce4vZ9.s:1846   .text:0000000000000900 .L0 
GAS LISTING /tmp/ccce4vZ9.s 			page 73


     /tmp/ccce4vZ9.s:1847   .text:0000000000000900 .L0 
src/kernel/interrupt/../../../h/../h/riscv.hpp:146    .text:0000000000000900 .L0 
     /tmp/ccce4vZ9.s:1855   .text:0000000000000908 .L0 
     /tmp/ccce4vZ9.s:1856   .text:0000000000000908 .L0 
     /tmp/ccce4vZ9.s:1860   .text:000000000000090c .L0 
     /tmp/ccce4vZ9.s:1865   .text:000000000000091c .L0 
     /tmp/ccce4vZ9.s:1866   .text:000000000000091c .L0 
     /tmp/ccce4vZ9.s:1870   .text:000000000000092c .L0 
     /tmp/ccce4vZ9.s:1871   .text:000000000000092c .L0 
     /tmp/ccce4vZ9.s:1875   .text:000000000000093c .L0 
     /tmp/ccce4vZ9.s:1876   .text:000000000000093c .L0 
     /tmp/ccce4vZ9.s:1882   .text:0000000000000950 .L0 
     /tmp/ccce4vZ9.s:1883   .text:0000000000000950 .L0 
     /tmp/ccce4vZ9.s:1887   .text:0000000000000960 .L0 
     /tmp/ccce4vZ9.s:1888   .text:0000000000000960 .L0 
     /tmp/ccce4vZ9.s:1894   .text:000000000000096c .L0 
     /tmp/ccce4vZ9.s:1895   .text:000000000000096c .L0 
     /tmp/ccce4vZ9.s:1901   .text:0000000000000974 .L0 
     /tmp/ccce4vZ9.s:1902   .text:0000000000000974 .L0 
     /tmp/ccce4vZ9.s:1916   .text:0000000000000980 .L0 
     /tmp/ccce4vZ9.s:1917   .text:0000000000000980 .L0 
     /tmp/ccce4vZ9.s:1920   .text:0000000000000988 .L0 
src/kernel/interrupt/interrupt_cpp.cpp:233    .text:0000000000000988 .L0 
     /tmp/ccce4vZ9.s:1930   .text:000000000000098c .L0 
     /tmp/ccce4vZ9.s:1931   .text:0000000000000990 .L0 
     /tmp/ccce4vZ9.s:1932   .text:0000000000000990 .L0 
     /tmp/ccce4vZ9.s:1934   .text:0000000000000994 .L0 
     /tmp/ccce4vZ9.s:1935   .text:0000000000000994 .L0 
     /tmp/ccce4vZ9.s:1937   .text:0000000000000998 .L0 
     /tmp/ccce4vZ9.s:1940   .text:000000000000099c .L0 
     /tmp/ccce4vZ9.s:1942   .text:00000000000009a0 .L0 
     /tmp/ccce4vZ9.s:1944   .text:00000000000009a4 .L0 
     /tmp/ccce4vZ9.s:1946   .text:00000000000009a8 .L0 
     /tmp/ccce4vZ9.s:1950   .text:00000000000009ac .L0 
     /tmp/ccce4vZ9.s:1954   .text:00000000000009ac .L0 
     /tmp/ccce4vZ9.s:1955   .text:00000000000009ac .L0 
     /tmp/ccce4vZ9.s:1958   .text:00000000000009b4 .L0 
src/kernel/interrupt/interrupt_cpp.cpp:240    .text:00000000000009b4 .L0 
     /tmp/ccce4vZ9.s:1969   .text:00000000000009bc .L0 
     /tmp/ccce4vZ9.s:1970   .text:00000000000009bc .L0 
     /tmp/ccce4vZ9.s:1977   .text:00000000000009c8 .L0 
     /tmp/ccce4vZ9.s:1978   .text:00000000000009c8 .L0 
     /tmp/ccce4vZ9.s:1994   .text:00000000000009d4 .L0 
     /tmp/ccce4vZ9.s:1995   .text:00000000000009d4 .L0 
     /tmp/ccce4vZ9.s:2001   .text:00000000000009e0 .L0 
     /tmp/ccce4vZ9.s:2002   .text:00000000000009e0 .L0 
     /tmp/ccce4vZ9.s:2007   .text:00000000000009e4 .L0 
     /tmp/ccce4vZ9.s:2014   .text:00000000000009ec .L0 
     /tmp/ccce4vZ9.s:2015   .text:00000000000009ec .L0 
     /tmp/ccce4vZ9.s:2016   .text:00000000000009ec .L0 
     /tmp/ccce4vZ9.s:2022   .text:00000000000009f4 .L0 
     /tmp/ccce4vZ9.s:2023   .text:00000000000009f4 .L0 
     /tmp/ccce4vZ9.s:2033   .text:0000000000000a00 .L0 
     /tmp/ccce4vZ9.s:2034   .text:0000000000000a00 .L0 
     /tmp/ccce4vZ9.s:2035   .text:0000000000000a00 .L0 
     /tmp/ccce4vZ9.s:2050   .text:0000000000000a0c .L0 
     /tmp/ccce4vZ9.s:2051   .text:0000000000000a0c .L0 
GAS LISTING /tmp/ccce4vZ9.s 			page 74


     /tmp/ccce4vZ9.s:2052   .text:0000000000000a0c .L0 
src/kernel/interrupt/../../../h/../h/riscv.hpp:166    .text:0000000000000a0c .L0 
     /tmp/ccce4vZ9.s:2060   .text:0000000000000a14 .L0 
     /tmp/ccce4vZ9.s:2061   .text:0000000000000a14 .L0 
     /tmp/ccce4vZ9.s:2068   .text:0000000000000a18 .L0 
     /tmp/ccce4vZ9.s:2069   .text:0000000000000a18 .L0 
src/kernel/interrupt/../../../h/../h/riscv.hpp:146    .text:0000000000000a18 .L0 
     /tmp/ccce4vZ9.s:2077   .text:0000000000000a20 .L0 
     /tmp/ccce4vZ9.s:2078   .text:0000000000000a20 .L0 
     /tmp/ccce4vZ9.s:2083   .text:0000000000000a24 .L0 
     /tmp/ccce4vZ9.s:2084   .text:0000000000000a24 .L0 
     /tmp/ccce4vZ9.s:2089   .text:0000000000000a34 .L0 
     /tmp/ccce4vZ9.s:2093   .text:0000000000000a44 .L0 
     /tmp/ccce4vZ9.s:2099   .text:0000000000000a58 .L0 
     /tmp/ccce4vZ9.s:2103   .text:0000000000000a68 .L0 
     /tmp/ccce4vZ9.s:2107   .text:0000000000000a78 .L0 
     /tmp/ccce4vZ9.s:2113   .text:0000000000000a8c .L0 
     /tmp/ccce4vZ9.s:2117   .text:0000000000000a9c .L0 
     /tmp/ccce4vZ9.s:2121   .text:0000000000000aac .L0 
     /tmp/ccce4vZ9.s:2127   .text:0000000000000ac0 .L0 
     /tmp/ccce4vZ9.s:2132   .text:0000000000000ad0 .L0 
     /tmp/ccce4vZ9.s:2142   .text:0000000000000ad4 .L0 
     /tmp/ccce4vZ9.s:2143   .text:0000000000000ad4 .L0 
     /tmp/ccce4vZ9.s:2144   .text:0000000000000ad4 .L0 
src/kernel/interrupt/../../../h/../h/riscv.hpp:166    .text:0000000000000ad4 .L0 
     /tmp/ccce4vZ9.s:2152   .text:0000000000000adc .L0 
     /tmp/ccce4vZ9.s:2153   .text:0000000000000adc .L0 
     /tmp/ccce4vZ9.s:2160   .text:0000000000000ae0 .L0 
     /tmp/ccce4vZ9.s:2161   .text:0000000000000ae0 .L0 
src/kernel/interrupt/../../../h/../h/riscv.hpp:146    .text:0000000000000ae0 .L0 
     /tmp/ccce4vZ9.s:2169   .text:0000000000000ae8 .L0 
     /tmp/ccce4vZ9.s:2170   .text:0000000000000ae8 .L0 
     /tmp/ccce4vZ9.s:2177   .text:0000000000000aec .L0 
     /tmp/ccce4vZ9.s:2178   .text:0000000000000aec .L0 
src/kernel/interrupt/../../../h/../h/riscv.hpp:220    .text:0000000000000aec .L0 
     /tmp/ccce4vZ9.s:2186   .text:0000000000000af4 .L0 
     /tmp/ccce4vZ9.s:2187   .text:0000000000000af4 .L0 
     /tmp/ccce4vZ9.s:2193   .text:0000000000000af8 .L0 
     /tmp/ccce4vZ9.s:2194   .text:0000000000000af8 .L0 
     /tmp/ccce4vZ9.s:2197   .text:0000000000000afc .L0 
     /tmp/ccce4vZ9.s:2199   .text:0000000000000b00 .L0 
     /tmp/ccce4vZ9.s:2204   .text:0000000000000b10 .L0 
     /tmp/ccce4vZ9.s:2210   .text:0000000000000b24 .L0 
     /tmp/ccce4vZ9.s:2214   .text:0000000000000b34 .L0 
     /tmp/ccce4vZ9.s:2218   .text:0000000000000b44 .L0 
     /tmp/ccce4vZ9.s:2224   .text:0000000000000b58 .L0 
     /tmp/ccce4vZ9.s:2228   .text:0000000000000b68 .L0 
     /tmp/ccce4vZ9.s:2232   .text:0000000000000b78 .L0 
     /tmp/ccce4vZ9.s:2238   .text:0000000000000b8c .L0 
     /tmp/ccce4vZ9.s:2242   .text:0000000000000b9c .L0 
     /tmp/ccce4vZ9.s:2243   .text:0000000000000b9c .L0 
     /tmp/ccce4vZ9.s:2248   .text:0000000000000bac .L0 
     /tmp/ccce4vZ9.s:2253   .text:0000000000000bb0 .L0 
     /tmp/ccce4vZ9.s:2254   .text:0000000000000bb0 .L0 
     /tmp/ccce4vZ9.s:2257   .text:0000000000000bb8 .L0 
     /tmp/ccce4vZ9.s:2258   .text:0000000000000bb8 .L0 
     /tmp/ccce4vZ9.s:2264   .text:0000000000000bc8 .L0 
GAS LISTING /tmp/ccce4vZ9.s 			page 75


     /tmp/ccce4vZ9.s:2266   .text:0000000000000bcc .L0 
     /tmp/ccce4vZ9.s:2267   .text:0000000000000bcc .L0 
     /tmp/ccce4vZ9.s:2270   .text:0000000000000bd4 .L0 
     /tmp/ccce4vZ9.s:2272   .text:0000000000000bd8 .L0 
     /tmp/ccce4vZ9.s:2274   .text:0000000000000bdc .L0 
     /tmp/ccce4vZ9.s:2282   .text:0000000000000bec .L0 
     /tmp/ccce4vZ9.s:2289   .text:0000000000000bf0 .L0 
     /tmp/ccce4vZ9.s:2290   .text:0000000000000bf0 .L0 
     /tmp/ccce4vZ9.s:2295   .text:0000000000000c00 .L0 
     /tmp/ccce4vZ9.s:2299   .text:0000000000000c10 .L0 
     /tmp/ccce4vZ9.s:2305   .text:0000000000000c24 .L0 
     /tmp/ccce4vZ9.s:2309   .text:0000000000000c34 .L0 
     /tmp/ccce4vZ9.s:2313   .text:0000000000000c44 .L0 
     /tmp/ccce4vZ9.s:2319   .text:0000000000000c58 .L0 
     /tmp/ccce4vZ9.s:2323   .text:0000000000000c68 .L0 
     /tmp/ccce4vZ9.s:2327   .text:0000000000000c78 .L0 
     /tmp/ccce4vZ9.s:2333   .text:0000000000000c8c .L0 
     /tmp/ccce4vZ9.s:2338   .text:0000000000000c9c .L0 
     /tmp/ccce4vZ9.s:2347   .text:0000000000000ca0 .L0 
     /tmp/ccce4vZ9.s:2348   .text:0000000000000ca0 .L0 
     /tmp/ccce4vZ9.s:2353   .text:0000000000000cb0 .L0 
     /tmp/ccce4vZ9.s:2354   .text:0000000000000cb0 .L0 
     /tmp/ccce4vZ9.s:2361   .text:0000000000000cbc .L0 
     /tmp/ccce4vZ9.s:2366   .text:0000000000000ccc .L0 
     /tmp/ccce4vZ9.s:2372   .text:0000000000000ce0 .L0 
     /tmp/ccce4vZ9.s:2376   .text:0000000000000cf0 .L0 
     /tmp/ccce4vZ9.s:2377   .text:0000000000000cf0 .L0 
     /tmp/ccce4vZ9.s:2382   .text:0000000000000d00 .L0 
     /tmp/ccce4vZ9.s:2390   .text:0000000000000d04 .L0 
     /tmp/ccce4vZ9.s:2451   .text:0000000000000d04 .L0 
     /tmp/ccce4vZ9.s:35     .text:0000000000000020 .L0 
     /tmp/ccce4vZ9.s:42     .text:0000000000000034 .L0 
     /tmp/ccce4vZ9.s:129    .text:0000000000000080 .L0 
     /tmp/ccce4vZ9.s:376    .text:0000000000000154 .L0 
     /tmp/ccce4vZ9.s:551    .text:0000000000000264 .L0 
     /tmp/ccce4vZ9.s:574    .text:0000000000000284 .L0 
     /tmp/ccce4vZ9.s:599    .text:00000000000002a8 .L0 
     /tmp/ccce4vZ9.s:605    .text:00000000000002b8 .L0 
     /tmp/ccce4vZ9.s:631    .text:00000000000002e0 .L0 
     /tmp/ccce4vZ9.s:2395   .rodata.str1.8:0000000000000000 .LC0
     /tmp/ccce4vZ9.s:664    .text:0000000000000328 .L0 
     /tmp/ccce4vZ9.s:670    .text:0000000000000338 .L0 
     /tmp/ccce4vZ9.s:772    .text:00000000000003e4 .L0 
     /tmp/ccce4vZ9.s:1061   .text:0000000000000510 .L0 
     /tmp/ccce4vZ9.s:1215   .text:0000000000000610 .L0 
     /tmp/ccce4vZ9.s:1260   .text:0000000000000638 .L0 
     /tmp/ccce4vZ9.s:1322   .text:0000000000000668 .L0 
     /tmp/ccce4vZ9.s:1328   .text:0000000000000678 .L0 
     /tmp/ccce4vZ9.s:1353   .text:00000000000006a0 .L0 
     /tmp/ccce4vZ9.s:1400   .text:00000000000006e4 .L0 
     /tmp/ccce4vZ9.s:1406   .text:00000000000006f4 .L0 
     /tmp/ccce4vZ9.s:1436   .text:0000000000000730 .L0 
     /tmp/ccce4vZ9.s:1566   .text:000000000000078c .L0 
     /tmp/ccce4vZ9.s:1791   .text:0000000000000894 .L0 
     /tmp/ccce4vZ9.s:2418   .rodata.str1.8:00000000000000e8 .LC8
     /tmp/ccce4vZ9.s:1816   .text:00000000000008ac .L0 
     /tmp/ccce4vZ9.s:2421   .rodata.str1.8:0000000000000120 .LC9
GAS LISTING /tmp/ccce4vZ9.s 			page 76


     /tmp/ccce4vZ9.s:1822   .text:00000000000008bc .L0 
     /tmp/ccce4vZ9.s:2404   .rodata.str1.8:0000000000000068 .LC3
     /tmp/ccce4vZ9.s:1834   .text:00000000000008e0 .L0 
     /tmp/ccce4vZ9.s:2424   .rodata.str1.8:0000000000000130 .LC10
     /tmp/ccce4vZ9.s:1839   .text:00000000000008f0 .L0 
     /tmp/ccce4vZ9.s:1866   .text:000000000000091c .L0 
     /tmp/ccce4vZ9.s:2427   .rodata.str1.8:0000000000000138 .LC11
     /tmp/ccce4vZ9.s:1871   .text:000000000000092c .L0 
     /tmp/ccce4vZ9.s:2429   .rodata.str1.8:0000000000000140 .LC12
     /tmp/ccce4vZ9.s:1883   .text:0000000000000950 .L0 
     /tmp/ccce4vZ9.s:1888   .text:0000000000000960 .L0 
     /tmp/ccce4vZ9.s:1995   .text:00000000000009d4 .L0 
     /tmp/ccce4vZ9.s:2023   .text:00000000000009f4 .L0 
     /tmp/ccce4vZ9.s:2398   .rodata.str1.8:0000000000000018 .LC1
     /tmp/ccce4vZ9.s:2084   .text:0000000000000a24 .L0 
     /tmp/ccce4vZ9.s:2401   .rodata.str1.8:0000000000000058 .LC2
     /tmp/ccce4vZ9.s:2089   .text:0000000000000a34 .L0 
     /tmp/ccce4vZ9.s:2099   .text:0000000000000a58 .L0 
     /tmp/ccce4vZ9.s:2407   .rodata.str1.8:0000000000000070 .LC4
     /tmp/ccce4vZ9.s:2103   .text:0000000000000a68 .L0 
     /tmp/ccce4vZ9.s:2113   .text:0000000000000a8c .L0 
     /tmp/ccce4vZ9.s:2410   .rodata.str1.8:0000000000000078 .LC5
     /tmp/ccce4vZ9.s:2117   .text:0000000000000a9c .L0 
     /tmp/ccce4vZ9.s:2127   .text:0000000000000ac0 .L0 
     /tmp/ccce4vZ9.s:2199   .text:0000000000000b00 .L0 
     /tmp/ccce4vZ9.s:2210   .text:0000000000000b24 .L0 
     /tmp/ccce4vZ9.s:2214   .text:0000000000000b34 .L0 
     /tmp/ccce4vZ9.s:2224   .text:0000000000000b58 .L0 
     /tmp/ccce4vZ9.s:2228   .text:0000000000000b68 .L0 
     /tmp/ccce4vZ9.s:2238   .text:0000000000000b8c .L0 
     /tmp/ccce4vZ9.s:2412   .rodata.str1.8:0000000000000080 .LC6
     /tmp/ccce4vZ9.s:2243   .text:0000000000000b9c .L0 
     /tmp/ccce4vZ9.s:2415   .rodata.str1.8:00000000000000b0 .LC7
     /tmp/ccce4vZ9.s:2290   .text:0000000000000bf0 .L0 
     /tmp/ccce4vZ9.s:2295   .text:0000000000000c00 .L0 
     /tmp/ccce4vZ9.s:2305   .text:0000000000000c24 .L0 
     /tmp/ccce4vZ9.s:2309   .text:0000000000000c34 .L0 
     /tmp/ccce4vZ9.s:2319   .text:0000000000000c58 .L0 
     /tmp/ccce4vZ9.s:2323   .text:0000000000000c68 .L0 
     /tmp/ccce4vZ9.s:2333   .text:0000000000000c8c .L0 
     /tmp/ccce4vZ9.s:2432   .rodata.str1.8:0000000000000148 .LC13
     /tmp/ccce4vZ9.s:2348   .text:0000000000000ca0 .L0 
     /tmp/ccce4vZ9.s:2361   .text:0000000000000cbc .L0 
     /tmp/ccce4vZ9.s:2372   .text:0000000000000ce0 .L0 
     /tmp/ccce4vZ9.s:2435   .rodata.str1.8:0000000000000180 .LC14
     /tmp/ccce4vZ9.s:2377   .text:0000000000000cf0 .L0 
     /tmp/ccce4vZ9.s:88     .text:0000000000000068 .L4
     /tmp/ccce4vZ9.s:56     .text:0000000000000048 .L2
     /tmp/ccce4vZ9.s:423    .text:00000000000001d0 .L32
     /tmp/ccce4vZ9.s:501    .text:000000000000021c .L33
     /tmp/ccce4vZ9.s:518    .text:0000000000000238 .L34
     /tmp/ccce4vZ9.s:546    .text:0000000000000264 .L35
     /tmp/ccce4vZ9.s:570    .text:0000000000000284 .L36
     /tmp/ccce4vZ9.s:581    .text:0000000000000298 .L37
     /tmp/ccce4vZ9.s:590    .text:00000000000002a8 .L38
     /tmp/ccce4vZ9.s:689    .text:0000000000000368 .L39
     /tmp/ccce4vZ9.s:705    .text:000000000000037c .L40
GAS LISTING /tmp/ccce4vZ9.s 			page 77


     /tmp/ccce4vZ9.s:732    .text:00000000000003a8 .L41
     /tmp/ccce4vZ9.s:760    .text:00000000000003d4 .L42
     /tmp/ccce4vZ9.s:769    .text:00000000000003e4 .L43
     /tmp/ccce4vZ9.s:445    .text:00000000000001e8 .L7
     /tmp/ccce4vZ9.s:540    .text:000000000000025c .L44
     /tmp/ccce4vZ9.s:649    .text:0000000000000304 .L45
     /tmp/ccce4vZ9.s:638    .text:00000000000002f4 .L19
     /tmp/ccce4vZ9.s:682    .text:0000000000000360 .L46
     /tmp/ccce4vZ9.s:669    .text:0000000000000338 .L15
     /tmp/ccce4vZ9.s:603    .text:00000000000002b8 .L14
     /tmp/ccce4vZ9.s:721    .text:0000000000000394 .L47
     /tmp/ccce4vZ9.s:749    .text:00000000000003c0 .L48
     /tmp/ccce4vZ9.s:1123   .text:0000000000000590 .L75
     /tmp/ccce4vZ9.s:1171   .text:00000000000005cc .L76
     /tmp/ccce4vZ9.s:1185   .text:00000000000005e4 .L77
     /tmp/ccce4vZ9.s:1210   .text:0000000000000610 .L78
     /tmp/ccce4vZ9.s:1252   .text:0000000000000638 .L79
     /tmp/ccce4vZ9.s:1286   .text:0000000000000654 .L80
     /tmp/ccce4vZ9.s:1314   .text:0000000000000668 .L81
     /tmp/ccce4vZ9.s:1418   .text:000000000000071c .L82
     /tmp/ccce4vZ9.s:1455   .text:000000000000074c .L83
     /tmp/ccce4vZ9.s:1484   .text:0000000000000760 .L84
     /tmp/ccce4vZ9.s:1521   .text:0000000000000774 .L85
     /tmp/ccce4vZ9.s:1553   .text:000000000000078c .L86
     /tmp/ccce4vZ9.s:1133   .text:00000000000005a4 .L51
     /tmp/ccce4vZ9.s:1205   .text:0000000000000608 .L87
     /tmp/ccce4vZ9.s:1384   .text:00000000000006c0 .L88
     /tmp/ccce4vZ9.s:1360   .text:00000000000006b4 .L63
     /tmp/ccce4vZ9.s:1405   .text:00000000000006f4 .L59
     /tmp/ccce4vZ9.s:1326   .text:0000000000000678 .L58
     /tmp/ccce4vZ9.s:1907   .text:0000000000000980 .L109
     /tmp/ccce4vZ9.s:1949   .text:00000000000009ac .L110
     /tmp/ccce4vZ9.s:1966   .text:00000000000009bc .L111
     /tmp/ccce4vZ9.s:1974   .text:00000000000009c8 .L112
     /tmp/ccce4vZ9.s:1982   .text:00000000000009d4 .L113
     /tmp/ccce4vZ9.s:2134   .text:0000000000000ad4 .L98
     /tmp/ccce4vZ9.s:1773   .text:0000000000000894 .L104
     /tmp/ccce4vZ9.s:2358   .text:0000000000000cbc .L105
     /tmp/ccce4vZ9.s:2340   .text:0000000000000ca0 .L106
     /tmp/ccce4vZ9.s:1927   .text:000000000000098c .L89
     /tmp/ccce4vZ9.s:2043   .text:0000000000000a0c .L96
     /tmp/ccce4vZ9.s:2130   .text:0000000000000ad0 .L97
     /tmp/ccce4vZ9.s:2250   .text:0000000000000bb0 .L100
     /tmp/ccce4vZ9.s:2246   .text:0000000000000bac .L101
     /tmp/ccce4vZ9.s:2284   .text:0000000000000bf0 .L102
     /tmp/ccce4vZ9.s:2336   .text:0000000000000c9c .L103
     /tmp/ccce4vZ9.s:2380   .text:0000000000000d00 .L107
     /tmp/ccce4vZ9.s:386    .text:0000000000000168 .LEHB0
     /tmp/ccce4vZ9.s:169    .text:000000000000009c .LFB114
     /tmp/ccce4vZ9.s:656    .text:0000000000000310 .LEHE0
     /tmp/ccce4vZ9.s:665    .text:0000000000000330 .LEHB1
     /tmp/ccce4vZ9.s:668    .text:0000000000000338 .LEHE1
     /tmp/ccce4vZ9.s:672    .text:0000000000000344 .L29
     /tmp/ccce4vZ9.s:679    .text:0000000000000358 .LEHB2
     /tmp/ccce4vZ9.s:815    .text:0000000000000458 .LEHE2
     /tmp/ccce4vZ9.s:1071   .text:0000000000000524 .LEHB3
     /tmp/ccce4vZ9.s:856    .text:000000000000045c .LFB115
GAS LISTING /tmp/ccce4vZ9.s 			page 78


     /tmp/ccce4vZ9.s:1392   .text:00000000000006cc .LEHE3
     /tmp/ccce4vZ9.s:1401   .text:00000000000006ec .LEHB4
     /tmp/ccce4vZ9.s:1404   .text:00000000000006f4 .LEHE4
     /tmp/ccce4vZ9.s:1408   .text:0000000000000700 .L72
     /tmp/ccce4vZ9.s:1415   .text:0000000000000714 .LEHB5
     /tmp/ccce4vZ9.s:1609   .text:0000000000000800 .LEHE5
     /tmp/ccce4vZ9.s:8440   .debug_abbrev:0000000000000000 .Ldebug_abbrev0
     /tmp/ccce4vZ9.s:13366  .debug_str:0000000000000dad .LASF483
     /tmp/ccce4vZ9.s:13746  .debug_str:00000000000019fb .LASF484
     /tmp/ccce4vZ9.s:13666  .debug_str:000000000000178a .LASF485
     /tmp/ccce4vZ9.s:8      .text:0000000000000000 .Ltext0
     /tmp/ccce4vZ9.s:2438   .text:0000000000000d04 .Letext0
     /tmp/ccce4vZ9.s:12924  .debug_line:0000000000000000 .Ldebug_line0
     /tmp/ccce4vZ9.s:12988  .debug_str:0000000000000178 .LASF0
     /tmp/ccce4vZ9.s:13828  .debug_str:0000000000001c53 .LASF1
     /tmp/ccce4vZ9.s:13818  .debug_str:0000000000001bfa .LASF3
     /tmp/ccce4vZ9.s:13734  .debug_str:0000000000001989 .LASF2
     /tmp/ccce4vZ9.s:13680  .debug_str:00000000000017e6 .LASF4
     /tmp/ccce4vZ9.s:13692  .debug_str:0000000000001833 .LASF5
     /tmp/ccce4vZ9.s:13202  .debug_str:000000000000087a .LASF6
     /tmp/ccce4vZ9.s:13360  .debug_str:0000000000000d81 .LASF7
     /tmp/ccce4vZ9.s:13316  .debug_str:0000000000000bef .LASF8
     /tmp/ccce4vZ9.s:13596  .debug_str:000000000000158c .LASF9
     /tmp/ccce4vZ9.s:13042  .debug_str:0000000000000311 .LASF10
     /tmp/ccce4vZ9.s:13802  .debug_str:0000000000001b91 .LASF11
     /tmp/ccce4vZ9.s:13212  .debug_str:00000000000008a7 .LASF12
     /tmp/ccce4vZ9.s:13096  .debug_str:00000000000004ec .LASF13
     /tmp/ccce4vZ9.s:13364  .debug_str:0000000000000d9d .LASF14
     /tmp/ccce4vZ9.s:13224  .debug_str:00000000000008eb .LASF15
     /tmp/ccce4vZ9.s:13662  .debug_str:0000000000001779 .LASF16
     /tmp/ccce4vZ9.s:13232  .debug_str:000000000000092e .LASF17
     /tmp/ccce4vZ9.s:13168  .debug_str:0000000000000772 .LASF18
     /tmp/ccce4vZ9.s:13884  .debug_str:0000000000001e43 .LASF73
     /tmp/ccce4vZ9.s:12990  .debug_str:0000000000000185 .LASF19
     /tmp/ccce4vZ9.s:13052  .debug_str:0000000000000359 .LASF20
     /tmp/ccce4vZ9.s:13274  .debug_str:0000000000000a77 .LASF75
     /tmp/ccce4vZ9.s:13624  .debug_str:0000000000001661 .LASF26
     /tmp/ccce4vZ9.s:13266  .debug_str:0000000000000a4c .LASF169
     /tmp/ccce4vZ9.s:13000  .debug_str:00000000000001c9 .LASF21
     /tmp/ccce4vZ9.s:13750  .debug_str:0000000000001a29 .LASF22
     /tmp/ccce4vZ9.s:13860  .debug_str:0000000000001d66 .LASF23
     /tmp/ccce4vZ9.s:12960  .debug_str:00000000000000eb .LASF24
     /tmp/ccce4vZ9.s:13404  .debug_str:0000000000000f6c .LASF25
     /tmp/ccce4vZ9.s:13154  .debug_str:00000000000006e3 .LASF33
     /tmp/ccce4vZ9.s:13058  .debug_str:0000000000000392 .LASF28
     /tmp/ccce4vZ9.s:13186  .debug_str:0000000000000821 .LASF27
     /tmp/ccce4vZ9.s:13744  .debug_str:00000000000019e6 .LASF29
     /tmp/ccce4vZ9.s:13538  .debug_str:000000000000140d .LASF30
     /tmp/ccce4vZ9.s:13556  .debug_str:0000000000001486 .LASF31
     /tmp/ccce4vZ9.s:13532  .debug_str:00000000000013e3 .LASF43
     /tmp/ccce4vZ9.s:13240  .debug_str:000000000000099b .LASF45
     /tmp/ccce4vZ9.s:13256  .debug_str:0000000000000a0f .LASF32
     /tmp/ccce4vZ9.s:13292  .debug_str:0000000000000b3c .LASF34
     /tmp/ccce4vZ9.s:13324  .debug_str:0000000000000c30 .LASF35
     /tmp/ccce4vZ9.s:13506  .debug_str:00000000000012e1 .LASF36
     /tmp/ccce4vZ9.s:13534  .debug_str:00000000000013f3 .LASF37
     /tmp/ccce4vZ9.s:13428  .debug_str:0000000000001022 .LASF38
GAS LISTING /tmp/ccce4vZ9.s 			page 79


     /tmp/ccce4vZ9.s:13740  .debug_str:00000000000019c3 .LASF39
     /tmp/ccce4vZ9.s:13520  .debug_str:000000000000136f .LASF40
     /tmp/ccce4vZ9.s:13474  .debug_str:00000000000011d0 .LASF41
     /tmp/ccce4vZ9.s:13426  .debug_str:0000000000001003 .LASF42
     /tmp/ccce4vZ9.s:13796  .debug_str:0000000000001b76 .LASF44
     /tmp/ccce4vZ9.s:13512  .debug_str:0000000000001320 .LASF46
     /tmp/ccce4vZ9.s:12952  .debug_str:00000000000000bb .LASF47
     /tmp/ccce4vZ9.s:13514  .debug_str:0000000000001342 .LASF48
     /tmp/ccce4vZ9.s:13670  .debug_str:00000000000017b6 .LASF49
     /tmp/ccce4vZ9.s:13044  .debug_str:0000000000000321 .LASF50
     /tmp/ccce4vZ9.s:13724  .debug_str:0000000000001950 .LASF51
     /tmp/ccce4vZ9.s:13730  .debug_str:0000000000001971 .LASF52
     /tmp/ccce4vZ9.s:13478  .debug_str:00000000000011ed .LASF53
     /tmp/ccce4vZ9.s:13460  .debug_str:000000000000115d .LASF54
     /tmp/ccce4vZ9.s:13706  .debug_str:00000000000018a5 .LASF55
     /tmp/ccce4vZ9.s:13630  .debug_str:000000000000167f .LASF56
     /tmp/ccce4vZ9.s:13002  .debug_str:00000000000001ce .LASF57
     /tmp/ccce4vZ9.s:13586  .debug_str:0000000000001564 .LASF58
     /tmp/ccce4vZ9.s:13768  .debug_str:0000000000001aac .LASF59
     /tmp/ccce4vZ9.s:13504  .debug_str:00000000000012bb .LASF60
     /tmp/ccce4vZ9.s:13484  .debug_str:0000000000001207 .LASF61
     /tmp/ccce4vZ9.s:13656  .debug_str:0000000000001739 .LASF62
     /tmp/ccce4vZ9.s:13244  .debug_str:00000000000009c1 .LASF63
     /tmp/ccce4vZ9.s:13054  .debug_str:000000000000035e .LASF64
     /tmp/ccce4vZ9.s:13704  .debug_str:0000000000001897 .LASF65
     /tmp/ccce4vZ9.s:13238  .debug_str:0000000000000978 .LASF66
     /tmp/ccce4vZ9.s:13814  .debug_str:0000000000001bda .LASF67
     /tmp/ccce4vZ9.s:13160  .debug_str:0000000000000712 .LASF68
     /tmp/ccce4vZ9.s:13776  .debug_str:0000000000001acc .LASF69
     /tmp/ccce4vZ9.s:13234  .debug_str:0000000000000944 .LASF70
     /tmp/ccce4vZ9.s:13368  .debug_str:0000000000000e7d .LASF71
     /tmp/ccce4vZ9.s:13522  .debug_str:000000000000138c .LASF72
     /tmp/ccce4vZ9.s:13752  .debug_str:0000000000001a32 .LASF74
     /tmp/ccce4vZ9.s:13846  .debug_str:0000000000001ce0 .LASF76
     /tmp/ccce4vZ9.s:13304  .debug_str:0000000000000b8e .LASF77
     /tmp/ccce4vZ9.s:13664  .debug_str:0000000000001785 .LASF78
     /tmp/ccce4vZ9.s:13908  .debug_str:0000000000001f17 .LASF220
     /tmp/ccce4vZ9.s:13588  .debug_str:0000000000001569 .LASF79
     /tmp/ccce4vZ9.s:13026  .debug_str:0000000000000289 .LASF80
     /tmp/ccce4vZ9.s:13436  .debug_str:0000000000001077 .LASF81
     /tmp/ccce4vZ9.s:13682  .debug_str:00000000000017ed .LASF82
     /tmp/ccce4vZ9.s:13112  .debug_str:0000000000000578 .LASF83
     /tmp/ccce4vZ9.s:13444  .debug_str:00000000000010a8 .LASF84
     /tmp/ccce4vZ9.s:13898  .debug_str:0000000000001ec4 .LASF85
     /tmp/ccce4vZ9.s:13858  .debug_str:0000000000001d53 .LASF86
     /tmp/ccce4vZ9.s:13574  .debug_str:0000000000001516 .LASF87
     /tmp/ccce4vZ9.s:13348  .debug_str:0000000000000d16 .LASF88
     /tmp/ccce4vZ9.s:13206  .debug_str:000000000000088a .LASF89
     /tmp/ccce4vZ9.s:13536  .debug_str:00000000000013fa .LASF90
     /tmp/ccce4vZ9.s:13136  .debug_str:0000000000000630 .LASF91
     /tmp/ccce4vZ9.s:13458  .debug_str:0000000000001153 .LASF121
     /tmp/ccce4vZ9.s:13094  .debug_str:00000000000004dc .LASF123
     /tmp/ccce4vZ9.s:12934  .debug_str:0000000000000037 .LASF92
     /tmp/ccce4vZ9.s:13888  .debug_str:0000000000001e58 .LASF93
     /tmp/ccce4vZ9.s:13590  .debug_str:0000000000001570 .LASF94
     /tmp/ccce4vZ9.s:13548  .debug_str:0000000000001453 .LASF95
     /tmp/ccce4vZ9.s:12942  .debug_str:000000000000005f .LASF96
GAS LISTING /tmp/ccce4vZ9.s 			page 80


     /tmp/ccce4vZ9.s:13892  .debug_str:0000000000001e96 .LASF97
     /tmp/ccce4vZ9.s:13254  .debug_str:0000000000000a0a .LASF98
     /tmp/ccce4vZ9.s:13106  .debug_str:000000000000053e .LASF99
     /tmp/ccce4vZ9.s:13046  .debug_str:0000000000000327 .LASF100
     /tmp/ccce4vZ9.s:13148  .debug_str:00000000000006ac .LASF101
     /tmp/ccce4vZ9.s:13272  .debug_str:0000000000000a6e .LASF102
     /tmp/ccce4vZ9.s:13354  .debug_str:0000000000000d47 .LASF103
     /tmp/ccce4vZ9.s:13652  .debug_str:0000000000001720 .LASF104
     /tmp/ccce4vZ9.s:13100  .debug_str:000000000000051d .LASF105
     /tmp/ccce4vZ9.s:13462  .debug_str:0000000000001167 .LASF106
     /tmp/ccce4vZ9.s:13770  .debug_str:0000000000001ab6 .LASF107
     /tmp/ccce4vZ9.s:13878  .debug_str:0000000000001e10 .LASF108
     /tmp/ccce4vZ9.s:13688  .debug_str:0000000000001828 .LASF109
     /tmp/ccce4vZ9.s:13508  .debug_str:00000000000012fe .LASF110
     /tmp/ccce4vZ9.s:13414  .debug_str:0000000000000fbd .LASF111
     /tmp/ccce4vZ9.s:12926  .debug_str:0000000000000000 .LASF112
     /tmp/ccce4vZ9.s:12944  .debug_str:0000000000000064 .LASF144
     /tmp/ccce4vZ9.s:13062  .debug_str:00000000000003de .LASF113
     /tmp/ccce4vZ9.s:13530  .debug_str:00000000000013d1 .LASF114
     /tmp/ccce4vZ9.s:13890  .debug_str:0000000000001e6b .LASF115
     /tmp/ccce4vZ9.s:13762  .debug_str:0000000000001a81 .LASF116
     /tmp/ccce4vZ9.s:13278  .debug_str:0000000000000a97 .LASF117
     /tmp/ccce4vZ9.s:13378  .debug_str:0000000000000ebb .LASF118
     /tmp/ccce4vZ9.s:13456  .debug_str:0000000000001120 .LASF119
     /tmp/ccce4vZ9.s:13880  .debug_str:0000000000001e20 .LASF120
     /tmp/ccce4vZ9.s:13482  .debug_str:00000000000011fc .LASF122
     /tmp/ccce4vZ9.s:13686  .debug_str:000000000000180c .LASF124
     /tmp/ccce4vZ9.s:13318  .debug_str:0000000000000c02 .LASF125
     /tmp/ccce4vZ9.s:13080  .debug_str:0000000000000466 .LASF126
     /tmp/ccce4vZ9.s:13014  .debug_str:000000000000020f .LASF127
     /tmp/ccce4vZ9.s:13218  .debug_str:00000000000008c8 .LASF128
     /tmp/ccce4vZ9.s:13342  .debug_str:0000000000000cd8 .LASF129
     /tmp/ccce4vZ9.s:13036  .debug_str:00000000000002dc .LASF210
     /tmp/ccce4vZ9.s:13868  .debug_str:0000000000001dab .LASF212
     /tmp/ccce4vZ9.s:12938  .debug_str:000000000000004f .LASF130
     /tmp/ccce4vZ9.s:13546  .debug_str:0000000000001432 .LASF131
     /tmp/ccce4vZ9.s:12948  .debug_str:0000000000000087 .LASF132
     /tmp/ccce4vZ9.s:13048  .debug_str:0000000000000332 .LASF133
     /tmp/ccce4vZ9.s:13650  .debug_str:0000000000001715 .LASF134
     /tmp/ccce4vZ9.s:13568  .debug_str:00000000000014e5 .LASF135
     /tmp/ccce4vZ9.s:13434  .debug_str:0000000000001068 .LASF136
     /tmp/ccce4vZ9.s:13708  .debug_str:00000000000018af .LASF137
     /tmp/ccce4vZ9.s:13580  .debug_str:0000000000001547 .LASF138
     /tmp/ccce4vZ9.s:13006  .debug_str:00000000000001dd .LASF139
     /tmp/ccce4vZ9.s:13756  .debug_str:0000000000001a58 .LASF140
     /tmp/ccce4vZ9.s:13024  .debug_str:0000000000000282 .LASF141
     /tmp/ccce4vZ9.s:13766  .debug_str:0000000000001aa6 .LASF142
     /tmp/ccce4vZ9.s:13070  .debug_str:0000000000000427 .LASF143
     /tmp/ccce4vZ9.s:13516  .debug_str:000000000000135f .LASF145
     /tmp/ccce4vZ9.s:12992  .debug_str:000000000000018a .LASF146
     /tmp/ccce4vZ9.s:12936  .debug_str:000000000000003f .LASF147
     /tmp/ccce4vZ9.s:13246  .debug_str:00000000000009d0 .LASF148
     /tmp/ccce4vZ9.s:13352  .debug_str:0000000000000d35 .LASF149
     /tmp/ccce4vZ9.s:13158  .debug_str:00000000000006ff .LASF150
     /tmp/ccce4vZ9.s:13020  .debug_str:000000000000025a .LASF151
     /tmp/ccce4vZ9.s:13618  .debug_str:000000000000162b .LASF152
     /tmp/ccce4vZ9.s:13608  .debug_str:00000000000015d9 .LASF153
GAS LISTING /tmp/ccce4vZ9.s 			page 81


     /tmp/ccce4vZ9.s:13128  .debug_str:00000000000005f8 .LASF154
     /tmp/ccce4vZ9.s:13132  .debug_str:000000000000061d .LASF155
     /tmp/ccce4vZ9.s:13356  .debug_str:0000000000000d5c .LASF156
     /tmp/ccce4vZ9.s:12954  .debug_str:00000000000000c4 .LASF157
     /tmp/ccce4vZ9.s:13564  .debug_str:00000000000014c2 .LASF158
     /tmp/ccce4vZ9.s:13604  .debug_str:00000000000015bf .LASF372
     /tmp/ccce4vZ9.s:13626  .debug_str:000000000000166d .LASF159
     /tmp/ccce4vZ9.s:13642  .debug_str:00000000000016be .LASF160
     /tmp/ccce4vZ9.s:13104  .debug_str:0000000000000533 .LASF161
     /tmp/ccce4vZ9.s:13754  .debug_str:0000000000001a3d .LASF162
     /tmp/ccce4vZ9.s:13216  .debug_str:00000000000008bb .LASF163
     /tmp/ccce4vZ9.s:12950  .debug_str:0000000000000090 .LASF164
     /tmp/ccce4vZ9.s:13806  .debug_str:0000000000001bac .LASF165
     /tmp/ccce4vZ9.s:13182  .debug_str:00000000000007f8 .LASF166
     /tmp/ccce4vZ9.s:13606  .debug_str:00000000000015d2 .LASF167
     /tmp/ccce4vZ9.s:13760  .debug_str:0000000000001a6b .LASF168
     /tmp/ccce4vZ9.s:13416  .debug_str:0000000000000fc7 .LASF170
     /tmp/ccce4vZ9.s:13672  .debug_str:00000000000017bb .LASF171
     /tmp/ccce4vZ9.s:13420  .debug_str:0000000000000fd5 .LASF172
     /tmp/ccce4vZ9.s:13302  .debug_str:0000000000000b85 .LASF173
     /tmp/ccce4vZ9.s:13902  .debug_str:0000000000001ee6 .LASF174
     /tmp/ccce4vZ9.s:13350  .debug_str:0000000000000d2b .LASF175
     /tmp/ccce4vZ9.s:13592  .debug_str:0000000000001578 .LASF486
     /tmp/ccce4vZ9.s:13276  .debug_str:0000000000000a8b .LASF176
     /tmp/ccce4vZ9.s:13576  .debug_str:0000000000001520 .LASF177
     /tmp/ccce4vZ9.s:13008  .debug_str:00000000000001e2 .LASF178
     /tmp/ccce4vZ9.s:13660  .debug_str:000000000000176c .LASF179
     /tmp/ccce4vZ9.s:13848  .debug_str:0000000000001d06 .LASF180
     /tmp/ccce4vZ9.s:13496  .debug_str:0000000000001272 .LASF181
     /tmp/ccce4vZ9.s:13840  .debug_str:0000000000001cad .LASF182
     /tmp/ccce4vZ9.s:13310  .debug_str:0000000000000ba5 .LASF183
     /tmp/ccce4vZ9.s:13554  .debug_str:000000000000147d .LASF184
     /tmp/ccce4vZ9.s:13844  .debug_str:0000000000001ccc .LASF185
     /tmp/ccce4vZ9.s:13300  .debug_str:0000000000000b7e .LASF186
     /tmp/ccce4vZ9.s:12930  .debug_str:0000000000000012 .LASF187
     /tmp/ccce4vZ9.s:13298  .debug_str:0000000000000b73 .LASF188
     /tmp/ccce4vZ9.s:12974  .debug_str:0000000000000137 .LASF189
     /tmp/ccce4vZ9.s:13064  .debug_str:00000000000003f7 .LASF190
     /tmp/ccce4vZ9.s:13384  .debug_str:0000000000000ed8 .LASF191
     /tmp/ccce4vZ9.s:13374  .debug_str:0000000000000ea7 .LASF192
     /tmp/ccce4vZ9.s:13712  .debug_str:00000000000018e3 .LASF193
     /tmp/ccce4vZ9.s:13500  .debug_str:000000000000128f .LASF194
     /tmp/ccce4vZ9.s:13822  .debug_str:0000000000001c1a .LASF195
     /tmp/ccce4vZ9.s:13562  .debug_str:00000000000014b2 .LASF196
     /tmp/ccce4vZ9.s:13180  .debug_str:00000000000007dd .LASF197
     /tmp/ccce4vZ9.s:13392  .debug_str:0000000000000f12 .LASF198
     /tmp/ccce4vZ9.s:13082  .debug_str:0000000000000479 .LASF199
     /tmp/ccce4vZ9.s:13178  .debug_str:00000000000007d0 .LASF200
     /tmp/ccce4vZ9.s:13466  .debug_str:0000000000001182 .LASF201
     /tmp/ccce4vZ9.s:13248  .debug_str:00000000000009e1 .LASF487
     /tmp/ccce4vZ9.s:13398  .debug_str:0000000000000f47 .LASF202
     /tmp/ccce4vZ9.s:13162  .debug_str:000000000000073d .LASF204
     /tmp/ccce4vZ9.s:13380  .debug_str:0000000000000ec9 .LASF203
     /tmp/ccce4vZ9.s:12996  .debug_str:00000000000001a5 .LASF205
     /tmp/ccce4vZ9.s:13636  .debug_str:0000000000001694 .LASF206
     /tmp/ccce4vZ9.s:13290  .debug_str:0000000000000b22 .LASF207
     /tmp/ccce4vZ9.s:13774  .debug_str:0000000000001ac6 .LASF208
GAS LISTING /tmp/ccce4vZ9.s 			page 82


     /tmp/ccce4vZ9.s:13386  .debug_str:0000000000000ef1 .LASF209
     /tmp/ccce4vZ9.s:13338  .debug_str:0000000000000cab .LASF211
     /tmp/ccce4vZ9.s:13314  .debug_str:0000000000000bcd .LASF213
     /tmp/ccce4vZ9.s:13004  .debug_str:00000000000001d3 .LASF214
     /tmp/ccce4vZ9.s:13824  .debug_str:0000000000001c33 .LASF215
     /tmp/ccce4vZ9.s:13208  .debug_str:0000000000000892 .LASF216
     /tmp/ccce4vZ9.s:13696  .debug_str:000000000000184b .LASF217
     /tmp/ccce4vZ9.s:13268  .debug_str:0000000000000a59 .LASF218
     /tmp/ccce4vZ9.s:12946  .debug_str:000000000000006e .LASF219
     /tmp/ccce4vZ9.s:13370  .debug_str:0000000000000e8b .LASF221
     /tmp/ccce4vZ9.s:13632  .debug_str:0000000000001684 .LASF222
     /tmp/ccce4vZ9.s:13358  .debug_str:0000000000000d76 .LASF223
     /tmp/ccce4vZ9.s:13804  .debug_str:0000000000001b9f .LASF224
     /tmp/ccce4vZ9.s:13710  .debug_str:00000000000018d6 .LASF225
     /tmp/ccce4vZ9.s:13862  .debug_str:0000000000001d70 .LASF226
     /tmp/ccce4vZ9.s:13718  .debug_str:0000000000001915 .LASF227
     /tmp/ccce4vZ9.s:13798  .debug_str:0000000000001b83 .LASF228
     /tmp/ccce4vZ9.s:13676  .debug_str:00000000000017d6 .LASF229
     /tmp/ccce4vZ9.s:12962  .debug_str:00000000000000f3 .LASF230
     /tmp/ccce4vZ9.s:13778  .debug_str:0000000000001ade .LASF231
     /tmp/ccce4vZ9.s:13528  .debug_str:00000000000013c5 .LASF232
     /tmp/ccce4vZ9.s:13280  .debug_str:0000000000000acc .LASF233
     /tmp/ccce4vZ9.s:12984  .debug_str:000000000000016c .LASF234
     /tmp/ccce4vZ9.s:13602  .debug_str:00000000000015b7 .LASF235
     /tmp/ccce4vZ9.s:13110  .debug_str:0000000000000561 .LASF376
     /tmp/ccce4vZ9.s:13886  .debug_str:0000000000001e4a .LASF238
     /tmp/ccce4vZ9.s:13742  .debug_str:00000000000019cd .LASF240
     /tmp/ccce4vZ9.s:13788  .debug_str:0000000000001b35 .LASF236
     /tmp/ccce4vZ9.s:13140  .debug_str:0000000000000649 .LASF237
     /tmp/ccce4vZ9.s:12994  .debug_str:000000000000019b .LASF239
     /tmp/ccce4vZ9.s:13648  .debug_str:0000000000001701 .LASF241
     /tmp/ccce4vZ9.s:13074  .debug_str:0000000000000449 .LASF242
     /tmp/ccce4vZ9.s:13252  .debug_str:00000000000009ff .LASF243
     /tmp/ccce4vZ9.s:13390  .debug_str:0000000000000f09 .LASF244
     /tmp/ccce4vZ9.s:13616  .debug_str:0000000000001622 .LASF245
     /tmp/ccce4vZ9.s:13668  .debug_str:00000000000017ad .LASF246
     /tmp/ccce4vZ9.s:13328  .debug_str:0000000000000c54 .LASF247
     /tmp/ccce4vZ9.s:13794  .debug_str:0000000000001b6a .LASF248
     /tmp/ccce4vZ9.s:12976  .debug_str:000000000000014d .LASF249
     /tmp/ccce4vZ9.s:13260  .debug_str:0000000000000a20 .LASF250
     /tmp/ccce4vZ9.s:13138  .debug_str:000000000000063d .LASF251
     /tmp/ccce4vZ9.s:13086  .debug_str:00000000000004a4 .LASF252
     /tmp/ccce4vZ9.s:13038  .debug_str:00000000000002e8 .LASF253
     /tmp/ccce4vZ9.s:13870  .debug_str:0000000000001dcf .LASF254
     /tmp/ccce4vZ9.s:13792  .debug_str:0000000000001b55 .LASF255
     /tmp/ccce4vZ9.s:13196  .debug_str:0000000000000864 .LASF256
     /tmp/ccce4vZ9.s:13030  .debug_str:00000000000002a4 .LASF257
     /tmp/ccce4vZ9.s:13122  .debug_str:00000000000005d5 .LASF258
     /tmp/ccce4vZ9.s:13152  .debug_str:00000000000006d0 .LASF259
     /tmp/ccce4vZ9.s:12980  .debug_str:000000000000015f .LASF260
     /tmp/ccce4vZ9.s:13714  .debug_str:00000000000018fa .LASF261
     /tmp/ccce4vZ9.s:13452  .debug_str:0000000000001109 .LASF262
     /tmp/ccce4vZ9.s:13068  .debug_str:0000000000000413 .LASF263
     /tmp/ccce4vZ9.s:13834  .debug_str:0000000000001c7f .LASF264
     /tmp/ccce4vZ9.s:13658  .debug_str:0000000000001758 .LASF265
     /tmp/ccce4vZ9.s:13388  .debug_str:0000000000000f01 .LASF266
     /tmp/ccce4vZ9.s:13334  .debug_str:0000000000000c7d .LASF267
GAS LISTING /tmp/ccce4vZ9.s 			page 83


     /tmp/ccce4vZ9.s:13236  .debug_str:0000000000000970 .LASF268
     /tmp/ccce4vZ9.s:12932  .debug_str:0000000000000023 .LASF269
     /tmp/ccce4vZ9.s:12928  .debug_str:000000000000000b .LASF270
     /tmp/ccce4vZ9.s:13904  .debug_str:0000000000001eef .LASF271
     /tmp/ccce4vZ9.s:13830  .debug_str:0000000000001c66 .LASF272
     /tmp/ccce4vZ9.s:13108  .debug_str:000000000000054e .LASF273
     /tmp/ccce4vZ9.s:13748  .debug_str:0000000000001a22 .LASF274
     /tmp/ccce4vZ9.s:13490  .debug_str:0000000000001242 .LASF275
     /tmp/ccce4vZ9.s:13320  .debug_str:0000000000000c1e .LASF276
     /tmp/ccce4vZ9.s:13728  .debug_str:000000000000195e .LASF277
     /tmp/ccce4vZ9.s:13694  .debug_str:0000000000001845 .LASF278
     /tmp/ccce4vZ9.s:13560  .debug_str:00000000000014a0 .LASF279
     /tmp/ccce4vZ9.s:13440  .debug_str:000000000000108e .LASF280
     /tmp/ccce4vZ9.s:13856  .debug_str:0000000000001d41 .LASF281
     /tmp/ccce4vZ9.s:13736  .debug_str:0000000000001997 .LASF282
     /tmp/ccce4vZ9.s:13674  .debug_str:00000000000017c3 .LASF283
     /tmp/ccce4vZ9.s:13306  .debug_str:0000000000000b93 .LASF284
     /tmp/ccce4vZ9.s:13118  .debug_str:0000000000000599 .LASF285
     /tmp/ccce4vZ9.s:13690  .debug_str:000000000000182d .LASF286
     /tmp/ccce4vZ9.s:13166  .debug_str:0000000000000760 .LASF287
     /tmp/ccce4vZ9.s:13430  .debug_str:000000000000103c .LASF288
     /tmp/ccce4vZ9.s:13476  .debug_str:00000000000011db .LASF289
     /tmp/ccce4vZ9.s:13620  .debug_str:000000000000163c .LASF290
     /tmp/ccce4vZ9.s:13874  .debug_str:0000000000001dde .LASF291
     /tmp/ccce4vZ9.s:13032  .debug_str:00000000000002b7 .LASF292
     /tmp/ccce4vZ9.s:13612  .debug_str:00000000000015fe .LASF293
     /tmp/ccce4vZ9.s:13678  .debug_str:00000000000017dc .LASF294
     /tmp/ccce4vZ9.s:13340  .debug_str:0000000000000cc2 .LASF295
     /tmp/ccce4vZ9.s:13220  .debug_str:00000000000008d3 .LASF296
     /tmp/ccce4vZ9.s:13172  .debug_str:0000000000000792 .LASF297
     /tmp/ccce4vZ9.s:13470  .debug_str:00000000000011b6 .LASF298
     /tmp/ccce4vZ9.s:13284  .debug_str:0000000000000ae5 .LASF299
     /tmp/ccce4vZ9.s:12978  .debug_str:000000000000015a .LASF300
     /tmp/ccce4vZ9.s:13698  .debug_str:0000000000001867 .LASF301
     /tmp/ccce4vZ9.s:13808  .debug_str:0000000000001bb8 .LASF302
     /tmp/ccce4vZ9.s:12998  .debug_str:00000000000001b8 .LASF303
     /tmp/ccce4vZ9.s:13210  .debug_str:00000000000008a2 .LASF304
     /tmp/ccce4vZ9.s:13084  .debug_str:0000000000000493 .LASF305
     /tmp/ccce4vZ9.s:12982  .debug_str:0000000000000167 .LASF306
     /tmp/ccce4vZ9.s:13498  .debug_str:000000000000127e .LASF307
     /tmp/ccce4vZ9.s:13214  .debug_str:00000000000008b6 .LASF308
     /tmp/ccce4vZ9.s:13330  .debug_str:0000000000000c63 .LASF309
     /tmp/ccce4vZ9.s:12986  .debug_str:0000000000000173 .LASF310
     /tmp/ccce4vZ9.s:13124  .debug_str:00000000000005dc .LASF311
     /tmp/ccce4vZ9.s:13346  .debug_str:0000000000000d09 .LASF312
     /tmp/ccce4vZ9.s:13684  .debug_str:00000000000017f2 .LASF313
     /tmp/ccce4vZ9.s:13076  .debug_str:000000000000044f .LASF314
     /tmp/ccce4vZ9.s:13424  .debug_str:0000000000000fe8 .LASF315
     /tmp/ccce4vZ9.s:13600  .debug_str:00000000000015ac .LASF316
     /tmp/ccce4vZ9.s:13782  .debug_str:0000000000001afd .LASF317
     /tmp/ccce4vZ9.s:13090  .debug_str:00000000000004c1 .LASF318
     /tmp/ccce4vZ9.s:13288  .debug_str:0000000000000b0a .LASF319
     /tmp/ccce4vZ9.s:13584  .debug_str:0000000000001556 .LASF320
     /tmp/ccce4vZ9.s:12972  .debug_str:000000000000011c .LASF321
     /tmp/ccce4vZ9.s:13540  .debug_str:000000000000141a .LASF322
     /tmp/ccce4vZ9.s:13836  .debug_str:0000000000001c87 .LASF323
     /tmp/ccce4vZ9.s:13088  .debug_str:00000000000004ad .LASF324
GAS LISTING /tmp/ccce4vZ9.s 			page 84


     /tmp/ccce4vZ9.s:13362  .debug_str:0000000000000d88 .LASF325
     /tmp/ccce4vZ9.s:13486  .debug_str:0000000000001212 .LASF326
     /tmp/ccce4vZ9.s:13442  .debug_str:0000000000001094 .LASF327
     /tmp/ccce4vZ9.s:13418  .debug_str:0000000000000fd0 .LASF328
     /tmp/ccce4vZ9.s:13410  .debug_str:0000000000000f99 .LASF329
     /tmp/ccce4vZ9.s:12968  .debug_str:000000000000010e .LASF330
     /tmp/ccce4vZ9.s:13142  .debug_str:0000000000000671 .LASF331
     /tmp/ccce4vZ9.s:13634  .debug_str:000000000000168c .LASF332
     /tmp/ccce4vZ9.s:13820  .debug_str:0000000000001c00 .LASF333
     /tmp/ccce4vZ9.s:12940  .debug_str:0000000000000059 .LASF334
     /tmp/ccce4vZ9.s:13622  .debug_str:0000000000001647 .LASF335
     /tmp/ccce4vZ9.s:13578  .debug_str:000000000000152c .LASF336
     /tmp/ccce4vZ9.s:13262  .debug_str:0000000000000a2c .LASF337
     /tmp/ccce4vZ9.s:13040  .debug_str:00000000000002fd .LASF338
     /tmp/ccce4vZ9.s:13812  .debug_str:0000000000001bc9 .LASF339
     /tmp/ccce4vZ9.s:13016  .debug_str:000000000000023b .LASF340
     /tmp/ccce4vZ9.s:13382  .debug_str:0000000000000ed2 .LASF341
     /tmp/ccce4vZ9.s:13332  .debug_str:0000000000000c74 .LASF342
     /tmp/ccce4vZ9.s:13176  .debug_str:00000000000007ca .LASF343
     /tmp/ccce4vZ9.s:13050  .debug_str:0000000000000353 .LASF344
     /tmp/ccce4vZ9.s:13204  .debug_str:0000000000000881 .LASF345
     /tmp/ccce4vZ9.s:13464  .debug_str:000000000000116c .LASF346
     /tmp/ccce4vZ9.s:13524  .debug_str:00000000000013ae .LASF347
     /tmp/ccce4vZ9.s:13720  .debug_str:000000000000191a .LASF348
     /tmp/ccce4vZ9.s:13826  .debug_str:0000000000001c47 .LASF349
     /tmp/ccce4vZ9.s:13896  .debug_str:0000000000001eab .LASF350
     /tmp/ccce4vZ9.s:13230  .debug_str:000000000000091e .LASF351
     /tmp/ccce4vZ9.s:13866  .debug_str:0000000000001d8e .LASF352
     /tmp/ccce4vZ9.s:13134  .debug_str:0000000000000624 .LASF353
     /tmp/ccce4vZ9.s:13400  .debug_str:0000000000000f4d .LASF354
     /tmp/ccce4vZ9.s:13422  .debug_str:0000000000000fdb .LASF355
     /tmp/ccce4vZ9.s:13900  .debug_str:0000000000001ecc .LASF356
     /tmp/ccce4vZ9.s:13372  .debug_str:0000000000000e9c .LASF357
     /tmp/ccce4vZ9.s:13570  .debug_str:0000000000001508 .LASF358
     /tmp/ccce4vZ9.s:12956  .debug_str:00000000000000cb .LASF359
     /tmp/ccce4vZ9.s:13164  .debug_str:000000000000074d .LASF360
     /tmp/ccce4vZ9.s:13810  .debug_str:0000000000001bbd .LASF418
     /tmp/ccce4vZ9.s:12970  .debug_str:0000000000000115 .LASF361
     /tmp/ccce4vZ9.s:13114  .debug_str:0000000000000583 .LASF362
     /tmp/ccce4vZ9.s:13028  .debug_str:0000000000000296 .LASF363
     /tmp/ccce4vZ9.s:13816  .debug_str:0000000000001beb .LASF364
     /tmp/ccce4vZ9.s:13156  .debug_str:00000000000006f8 .LASF365
     /tmp/ccce4vZ9.s:13250  .debug_str:00000000000009e6 .LASF366
     /tmp/ccce4vZ9.s:13702  .debug_str:000000000000187e .LASF367
     /tmp/ccce4vZ9.s:13336  .debug_str:0000000000000c91 .LASF368
     /tmp/ccce4vZ9.s:13228  .debug_str:0000000000000904 .LASF369
     /tmp/ccce4vZ9.s:13598  .debug_str:000000000000159f .LASF370
     /tmp/ccce4vZ9.s:13060  .debug_str:00000000000003c5 .LASF371
     /tmp/ccce4vZ9.s:13722  .debug_str:0000000000001935 .LASF488
     /tmp/ccce4vZ9.s:13488  .debug_str:0000000000001227 .LASF373
     /tmp/ccce4vZ9.s:13102  .debug_str:0000000000000529 .LASF374
     /tmp/ccce4vZ9.s:13034  .debug_str:00000000000002c2 .LASF375
     /tmp/ccce4vZ9.s:13286  .debug_str:0000000000000af6 .LASF489
     /tmp/ccce4vZ9.s:13510  .debug_str:0000000000001308 .LASF377
     /tmp/ccce4vZ9.s:13764  .debug_str:0000000000001a9d .LASF378
     /tmp/ccce4vZ9.s:13396  .debug_str:0000000000000f2e .LASF379
     /tmp/ccce4vZ9.s:13614  .debug_str:0000000000001616 .LASF380
GAS LISTING /tmp/ccce4vZ9.s 			page 85


     /tmp/ccce4vZ9.s:13174  .debug_str:00000000000007a8 .LASF381
     /tmp/ccce4vZ9.s:13644  .debug_str:00000000000016d5 .LASF382
     /tmp/ccce4vZ9.s:13850  .debug_str:0000000000001d0b .LASF383
     /tmp/ccce4vZ9.s:13518  .debug_str:0000000000001365 .LASF384
     /tmp/ccce4vZ9.s:13610  .debug_str:00000000000015e0 .LASF385
     /tmp/ccce4vZ9.s:12966  .debug_str:0000000000000102 .LASF386
     /tmp/ccce4vZ9.s:13408  .debug_str:0000000000000f7c .LASF387
     /tmp/ccce4vZ9.s:13222  .debug_str:00000000000008dd .LASF388
     /tmp/ccce4vZ9.s:13646  .debug_str:00000000000016e2 .LASF389
     /tmp/ccce4vZ9.s:13150  .debug_str:00000000000006c3 .LASF390
     /tmp/ccce4vZ9.s:13502  .debug_str:000000000000129d .LASF391
     /tmp/ccce4vZ9.s:13326  .debug_str:0000000000000c39 .LASF392
     /tmp/ccce4vZ9.s:13700  .debug_str:0000000000001878 .LASF393
     /tmp/ccce4vZ9.s:13184  .debug_str:0000000000000818 .LASF394
     /tmp/ccce4vZ9.s:13446  .debug_str:00000000000010c5 .LASF461
     /tmp/ccce4vZ9.s:13572  .debug_str:0000000000001510 .LASF395
     /tmp/ccce4vZ9.s:13406  .debug_str:0000000000000f76 .LASF396
     /tmp/ccce4vZ9.s:13894  .debug_str:0000000000001ea6 .LASF397
     /tmp/ccce4vZ9.s:13402  .debug_str:0000000000000f66 .LASF398
     /tmp/ccce4vZ9.s:13376  .debug_str:0000000000000eb3 .LASF399
     /tmp/ccce4vZ9.s:13194  .debug_str:000000000000085f .LASF400
     /tmp/ccce4vZ9.s:13542  .debug_str:0000000000001425 .LASF401
     /tmp/ccce4vZ9.s:13226  .debug_str:00000000000008fb .LASF402
     /tmp/ccce4vZ9.s:13544  .debug_str:000000000000142c .LASF403
     /tmp/ccce4vZ9.s:13200  .debug_str:0000000000000871 .LASF404
     /tmp/ccce4vZ9.s:13144  .debug_str:000000000000068a .LASF405
     /tmp/ccce4vZ9.s:13296  .debug_str:0000000000000b69 .LASF406
     /tmp/ccce4vZ9.s:13432  .debug_str:0000000000001042 .LASF407
     /tmp/ccce4vZ9.s:13526  .debug_str:00000000000013bb .LASF408
     /tmp/ccce4vZ9.s:13450  .debug_str:00000000000010e3 .LASF409
     /tmp/ccce4vZ9.s:13594  .debug_str:0000000000001580 .LASF410
     /tmp/ccce4vZ9.s:13120  .debug_str:00000000000005ac .LASF411
     /tmp/ccce4vZ9.s:13716  .debug_str:000000000000190e .LASF412
     /tmp/ccce4vZ9.s:13022  .debug_str:000000000000026c .LASF413
     /tmp/ccce4vZ9.s:13882  .debug_str:0000000000001e3c .LASF414
     /tmp/ccce4vZ9.s:13018  .debug_str:0000000000000243 .LASF415
     /tmp/ccce4vZ9.s:13582  .debug_str:0000000000001550 .LASF416
     /tmp/ccce4vZ9.s:13906  .debug_str:0000000000001f02 .LASF417
     /tmp/ccce4vZ9.s:13494  .debug_str:0000000000001263 .LASF419
     /tmp/ccce4vZ9.s:13628  .debug_str:0000000000001675 .LASF420
     /tmp/ccce4vZ9.s:13322  .debug_str:0000000000000c25 .LASF421
     /tmp/ccce4vZ9.s:13072  .debug_str:000000000000043c .LASF422
     /tmp/ccce4vZ9.s:13170  .debug_str:0000000000000788 .LASF423
     /tmp/ccce4vZ9.s:13842  .debug_str:0000000000001cb6 .LASF424
     /tmp/ccce4vZ9.s:13264  .debug_str:0000000000000a38 .LASF425
     /tmp/ccce4vZ9.s:13242  .debug_str:00000000000009b1 .LASF426
     /tmp/ccce4vZ9.s:13116  .debug_str:0000000000000589 .LASF427
     /tmp/ccce4vZ9.s:13412  .debug_str:0000000000000fb0 .LASF428
     /tmp/ccce4vZ9.s:13010  .debug_str:00000000000001ef .LASF429
     /tmp/ccce4vZ9.s:13726  .debug_str:0000000000001958 .LASF430
     /tmp/ccce4vZ9.s:13198  .debug_str:000000000000086b .LASF431
     /tmp/ccce4vZ9.s:13854  .debug_str:0000000000001d33 .LASF432
     /tmp/ccce4vZ9.s:13188  .debug_str:000000000000082e .LASF433
     /tmp/ccce4vZ9.s:13492  .debug_str:0000000000001255 .LASF434
     /tmp/ccce4vZ9.s:13454  .debug_str:0000000000001111 .LASF435
     /tmp/ccce4vZ9.s:13640  .debug_str:00000000000016af .LASF436
     /tmp/ccce4vZ9.s:13780  .debug_str:0000000000001ae4 .LASF437
GAS LISTING /tmp/ccce4vZ9.s 			page 86


     /tmp/ccce4vZ9.s:13098  .debug_str:00000000000004fb .LASF438
     /tmp/ccce4vZ9.s:13126  .debug_str:00000000000005ed .LASF439
     /tmp/ccce4vZ9.s:13190  .debug_str:000000000000083c .LASF440
     /tmp/ccce4vZ9.s:13270  .debug_str:0000000000000a67 .LASF441
     /tmp/ccce4vZ9.s:13738  .debug_str:000000000000199e .LASF442
     /tmp/ccce4vZ9.s:13800  .debug_str:0000000000001b88 .LASF443
     /tmp/ccce4vZ9.s:13472  .debug_str:00000000000011bb .LASF444
     /tmp/ccce4vZ9.s:13566  .debug_str:00000000000014d8 .LASF445
     /tmp/ccce4vZ9.s:13876  .debug_str:0000000000001df6 .LASF446
     /tmp/ccce4vZ9.s:13790  .debug_str:0000000000001b43 .LASF447
     /tmp/ccce4vZ9.s:13772  .debug_str:0000000000001abb .LASF448
     /tmp/ccce4vZ9.s:13838  .debug_str:0000000000001c9b .LASF449
     /tmp/ccce4vZ9.s:13192  .debug_str:0000000000000854 .LASF450
     /tmp/ccce4vZ9.s:13468  .debug_str:00000000000011a4 .LASF451
     /tmp/ccce4vZ9.s:13784  .debug_str:0000000000001b15 .LASF452
     /tmp/ccce4vZ9.s:13282  .debug_str:0000000000000ad5 .LASF453
     /tmp/ccce4vZ9.s:13638  .debug_str:00000000000016a1 .LASF454
     /tmp/ccce4vZ9.s:13550  .debug_str:0000000000001467 .LASF455
     /tmp/ccce4vZ9.s:13146  .debug_str:000000000000069f .LASF456
     /tmp/ccce4vZ9.s:13294  .debug_str:0000000000000b59 .LASF457
     /tmp/ccce4vZ9.s:13758  .debug_str:0000000000001a5d .LASF458
     /tmp/ccce4vZ9.s:13832  .debug_str:0000000000001c6d .LASF459
     /tmp/ccce4vZ9.s:13092  .debug_str:00000000000004cc .LASF460
     /tmp/ccce4vZ9.s:13308  .debug_str:0000000000000b9a .LASF462
     /tmp/ccce4vZ9.s:13258  .debug_str:0000000000000a19 .LASF463
     /tmp/ccce4vZ9.s:13558  .debug_str:000000000000149b .LASF464
     /tmp/ccce4vZ9.s:13130  .debug_str:0000000000000613 .LASF465
     /tmp/ccce4vZ9.s:1652   .text:0000000000000808 .LFB116
     /tmp/ccce4vZ9.s:2391   .text:0000000000000d04 .LFE116
     /tmp/ccce4vZ9.s:10273  .debug_loc:0000000000000000 .LLST55
     /tmp/ccce4vZ9.s:10390  .debug_loc:00000000000001bd .LLST56
     /tmp/ccce4vZ9.s:10503  .debug_loc:0000000000000367 .LLST57
     /tmp/ccce4vZ9.s:10616  .debug_loc:0000000000000511 .LLST58
     /tmp/ccce4vZ9.s:10729  .debug_loc:00000000000006bb .LLST59
     /tmp/ccce4vZ9.s:13552  .debug_str:0000000000001476 .LASF466
     /tmp/ccce4vZ9.s:10842  .debug_loc:0000000000000865 .LLST60
     /tmp/ccce4vZ9.s:2046   .text:0000000000000a0c .LBB510
     /tmp/ccce4vZ9.s:2135   .text:0000000000000ad4 .LBE510
     /tmp/ccce4vZ9.s:13872  .debug_str:0000000000001dd8 .LASF467
     /tmp/ccce4vZ9.s:10853  .debug_loc:000000000000089b .LLST73
     /tmp/ccce4vZ9.s:12964  .debug_str:00000000000000fd .LASF468
     /tmp/ccce4vZ9.s:10860  .debug_loc:00000000000008be .LLST74
     /tmp/ccce4vZ9.s:2048   .text:0000000000000a0c .LBB511
     /tmp/ccce4vZ9.s:2064   .text:0000000000000a18 .LBE511
     /tmp/ccce4vZ9.s:2049   .text:0000000000000a0c .LBB512
     /tmp/ccce4vZ9.s:2063   .text:0000000000000a18 .LBE512
     /tmp/ccce4vZ9.s:2065   .text:0000000000000a18 .LBB513
     /tmp/ccce4vZ9.s:2081   .text:0000000000000a24 .LBE513
     /tmp/ccce4vZ9.s:2066   .text:0000000000000a18 .LBB514
     /tmp/ccce4vZ9.s:2080   .text:0000000000000a24 .LBE514
     /tmp/ccce4vZ9.s:2087   .text:0000000000000a34 .LVL189
     /tmp/ccce4vZ9.s:2091   .text:0000000000000a44 .LVL190
     /tmp/ccce4vZ9.s:2097   .text:0000000000000a58 .LVL191
     /tmp/ccce4vZ9.s:2101   .text:0000000000000a68 .LVL192
     /tmp/ccce4vZ9.s:2105   .text:0000000000000a78 .LVL193
     /tmp/ccce4vZ9.s:2111   .text:0000000000000a8c .LVL194
     /tmp/ccce4vZ9.s:2115   .text:0000000000000a9c .LVL195
GAS LISTING /tmp/ccce4vZ9.s 			page 87


     /tmp/ccce4vZ9.s:2119   .text:0000000000000aac .LVL196
     /tmp/ccce4vZ9.s:2125   .text:0000000000000ac0 .LVL197
     /tmp/ccce4vZ9.s:2129   .text:0000000000000ad0 .LVL198
     /tmp/ccce4vZ9.s:12892  .debug_ranges:0000000000000000 .Ldebug_ranges0
     /tmp/ccce4vZ9.s:10867  .debug_loc:00000000000008e1 .LLST64
     /tmp/ccce4vZ9.s:10874  .debug_loc:0000000000000904 .LLST65
     /tmp/ccce4vZ9.s:13012  .debug_str:0000000000000207 .LASF469
     /tmp/ccce4vZ9.s:10881  .debug_loc:0000000000000927 .LLST66
     /tmp/ccce4vZ9.s:10888  .debug_loc:000000000000094a .LLST67
     /tmp/ccce4vZ9.s:10895  .debug_loc:000000000000096d .LLST68
     /tmp/ccce4vZ9.s:2255   .text:0000000000000bb8 .LVL216
     /tmp/ccce4vZ9.s:2260   .text:0000000000000bc4 .LVL217
     /tmp/ccce4vZ9.s:2268   .text:0000000000000bd4 .LVL219
     /tmp/ccce4vZ9.s:2277   .text:0000000000000bec .LVL220
     /tmp/ccce4vZ9.s:2293   .text:0000000000000c00 .LVL223
     /tmp/ccce4vZ9.s:2297   .text:0000000000000c10 .LVL224
     /tmp/ccce4vZ9.s:2303   .text:0000000000000c24 .LVL225
     /tmp/ccce4vZ9.s:2307   .text:0000000000000c34 .LVL226
     /tmp/ccce4vZ9.s:2311   .text:0000000000000c44 .LVL227
     /tmp/ccce4vZ9.s:2317   .text:0000000000000c58 .LVL228
     /tmp/ccce4vZ9.s:2321   .text:0000000000000c68 .LVL229
     /tmp/ccce4vZ9.s:2325   .text:0000000000000c78 .LVL230
     /tmp/ccce4vZ9.s:2331   .text:0000000000000c8c .LVL231
     /tmp/ccce4vZ9.s:2335   .text:0000000000000c9c .LVL232
     /tmp/ccce4vZ9.s:2140   .text:0000000000000ad4 .LBB489
     /tmp/ccce4vZ9.s:2156   .text:0000000000000ae0 .LBE489
     /tmp/ccce4vZ9.s:2141   .text:0000000000000ad4 .LBB490
     /tmp/ccce4vZ9.s:2155   .text:0000000000000ae0 .LBE490
     /tmp/ccce4vZ9.s:2157   .text:0000000000000ae0 .LBB491
     /tmp/ccce4vZ9.s:2173   .text:0000000000000aec .LBE491
     /tmp/ccce4vZ9.s:2158   .text:0000000000000ae0 .LBB492
     /tmp/ccce4vZ9.s:2172   .text:0000000000000aec .LBE492
     /tmp/ccce4vZ9.s:2174   .text:0000000000000aec .LBB493
     /tmp/ccce4vZ9.s:2190   .text:0000000000000af8 .LBE493
     /tmp/ccce4vZ9.s:2175   .text:0000000000000aec .LBB494
     /tmp/ccce4vZ9.s:2189   .text:0000000000000af8 .LBE494
     /tmp/ccce4vZ9.s:2202   .text:0000000000000b10 .LVL205
     /tmp/ccce4vZ9.s:2208   .text:0000000000000b24 .LVL206
     /tmp/ccce4vZ9.s:2212   .text:0000000000000b34 .LVL207
     /tmp/ccce4vZ9.s:2216   .text:0000000000000b44 .LVL208
     /tmp/ccce4vZ9.s:2222   .text:0000000000000b58 .LVL209
     /tmp/ccce4vZ9.s:2226   .text:0000000000000b68 .LVL210
     /tmp/ccce4vZ9.s:2230   .text:0000000000000b78 .LVL211
     /tmp/ccce4vZ9.s:2236   .text:0000000000000b8c .LVL212
     /tmp/ccce4vZ9.s:2240   .text:0000000000000b9c .LVL213
     /tmp/ccce4vZ9.s:2245   .text:0000000000000bac .LVL214
     /tmp/ccce4vZ9.s:1804   .text:00000000000008a8 .LBB481
     /tmp/ccce4vZ9.s:1904   .text:000000000000097c .LBE481
     /tmp/ccce4vZ9.s:10914  .debug_loc:00000000000009c9 .LLST62
     /tmp/ccce4vZ9.s:1843   .text:0000000000000900 .LBB482
     /tmp/ccce4vZ9.s:1858   .text:000000000000090c .LBE482
     /tmp/ccce4vZ9.s:1844   .text:0000000000000900 .LBB483
     /tmp/ccce4vZ9.s:1857   .text:000000000000090c .LBE483
     /tmp/ccce4vZ9.s:1891   .text:000000000000096c .LBB484
     /tmp/ccce4vZ9.s:1899   .text:0000000000000974 .LBE484
     /tmp/ccce4vZ9.s:10921  .debug_loc:00000000000009ec .LLST63
     /tmp/ccce4vZ9.s:1819   .text:00000000000008bc .LVL155
GAS LISTING /tmp/ccce4vZ9.s 			page 88


     /tmp/ccce4vZ9.s:1824   .text:00000000000008cc .LVL156
     /tmp/ccce4vZ9.s:1831   .text:00000000000008e0 .LVL157
     /tmp/ccce4vZ9.s:1836   .text:00000000000008f0 .LVL158
     /tmp/ccce4vZ9.s:1841   .text:0000000000000900 .LVL159
     /tmp/ccce4vZ9.s:1863   .text:000000000000091c .LVL160
     /tmp/ccce4vZ9.s:1868   .text:000000000000092c .LVL161
     /tmp/ccce4vZ9.s:1873   .text:000000000000093c .LVL162
     /tmp/ccce4vZ9.s:1880   .text:0000000000000950 .LVL163
     /tmp/ccce4vZ9.s:1885   .text:0000000000000960 .LVL164
     /tmp/ccce4vZ9.s:1903   .text:000000000000097c .LVL167
     /tmp/ccce4vZ9.s:1673   .text:0000000000000828 .LBB469
     /tmp/ccce4vZ9.s:1689   .text:0000000000000834 .LBE469
     /tmp/ccce4vZ9.s:1674   .text:0000000000000828 .LBB470
     /tmp/ccce4vZ9.s:1688   .text:0000000000000834 .LBE470
     /tmp/ccce4vZ9.s:1794   .text:00000000000008a0 .LBB479
     /tmp/ccce4vZ9.s:1801   .text:00000000000008a4 .LBE479
     /tmp/ccce4vZ9.s:10928  .debug_loc:0000000000000a0f .LLST61
     /tmp/ccce4vZ9.s:1998   .text:00000000000009e0 .LBB504
     /tmp/ccce4vZ9.s:2005   .text:00000000000009e4 .LBE504
     /tmp/ccce4vZ9.s:10935  .debug_loc:0000000000000a32 .LLST69
     /tmp/ccce4vZ9.s:2012   .text:00000000000009ec .LBB506
     /tmp/ccce4vZ9.s:2020   .text:00000000000009f4 .LBE506
     /tmp/ccce4vZ9.s:10942  .debug_loc:0000000000000a55 .LLST70
     /tmp/ccce4vZ9.s:10950  .debug_loc:0000000000000a79 .LLST71
     /tmp/ccce4vZ9.s:2031   .text:0000000000000a00 .LBB508
     /tmp/ccce4vZ9.s:2045   .text:0000000000000a0c .LBE508
     /tmp/ccce4vZ9.s:10957  .debug_loc:0000000000000a9c .LLST72
     /tmp/ccce4vZ9.s:1918   .text:0000000000000988 .LVL169
     /tmp/ccce4vZ9.s:1956   .text:00000000000009b4 .LVL173
     /tmp/ccce4vZ9.s:1971   .text:00000000000009c4 .LVL175
     /tmp/ccce4vZ9.s:1979   .text:00000000000009d0 .LVL177
     /tmp/ccce4vZ9.s:2351   .text:0000000000000cb0 .LVL235
     /tmp/ccce4vZ9.s:2355   .text:0000000000000cb8 .LVL236
     /tmp/ccce4vZ9.s:2364   .text:0000000000000ccc .LVL239
     /tmp/ccce4vZ9.s:2370   .text:0000000000000ce0 .LVL240
     /tmp/ccce4vZ9.s:2374   .text:0000000000000cf0 .LVL241
     /tmp/ccce4vZ9.s:2379   .text:0000000000000d00 .LVL242
     /tmp/ccce4vZ9.s:13078  .debug_str:000000000000045d .LASF470
     /tmp/ccce4vZ9.s:13438  .debug_str:000000000000107d .LASF471
     /tmp/ccce4vZ9.s:1627   .text:0000000000000808 .LFE115
     /tmp/ccce4vZ9.s:10966  .debug_loc:0000000000000ac2 .LLST27
     /tmp/ccce4vZ9.s:11010  .debug_loc:0000000000000b73 .LLST28
     /tmp/ccce4vZ9.s:11138  .debug_loc:0000000000000db3 .LLST29
     /tmp/ccce4vZ9.s:11263  .debug_loc:0000000000000ff0 .LLST30
     /tmp/ccce4vZ9.s:11420  .debug_loc:000000000000123e .LLST31
     /tmp/ccce4vZ9.s:11577  .debug_loc:000000000000148c .LLST32
     /tmp/ccce4vZ9.s:11588  .debug_loc:00000000000014c2 .LLST33
     /tmp/ccce4vZ9.s:11611  .debug_loc:0000000000001531 .LLST34
     /tmp/ccce4vZ9.s:1187   .text:00000000000005e4 .LBB409
     /tmp/ccce4vZ9.s:1211   .text:0000000000000610 .LBE409
     /tmp/ccce4vZ9.s:11679  .debug_loc:0000000000001654 .LLST53
     /tmp/ccce4vZ9.s:1197   .text:00000000000005f8 .LVL108
     /tmp/ccce4vZ9.s:11690  .debug_loc:000000000000168a .LLST45
     /tmp/ccce4vZ9.s:1319   .text:0000000000000668 .LBB354
     /tmp/ccce4vZ9.s:11709  .debug_loc:00000000000016e6 .LLST46
     /tmp/ccce4vZ9.s:1331   .text:000000000000068c .LVL120
     /tmp/ccce4vZ9.s:1391   .text:00000000000006cc .LVL126
GAS LISTING /tmp/ccce4vZ9.s 			page 89


     /tmp/ccce4vZ9.s:1403   .text:00000000000006f4 .LVL128
     /tmp/ccce4vZ9.s:1413   .text:0000000000000710 .LVL130
     /tmp/ccce4vZ9.s:1337   .text:0000000000000690 .LBB357
     /tmp/ccce4vZ9.s:1362   .text:00000000000006b4 .LBE357
     /tmp/ccce4vZ9.s:11724  .debug_loc:0000000000001720 .LLST47
     /tmp/ccce4vZ9.s:11731  .debug_loc:0000000000001743 .LLST48
     /tmp/ccce4vZ9.s:1342   .text:0000000000000694 .LBB359
     /tmp/ccce4vZ9.s:1350   .text:00000000000006a0 .LBE359
     /tmp/ccce4vZ9.s:11738  .debug_loc:0000000000001766 .LLST49
     /tmp/ccce4vZ9.s:1423   .text:000000000000071c .LBB345
     /tmp/ccce4vZ9.s:1442   .text:0000000000000744 .LBE345
     /tmp/ccce4vZ9.s:11747  .debug_loc:000000000000178b .LLST43
     /tmp/ccce4vZ9.s:1432   .text:000000000000072c .LBB346
     /tmp/ccce4vZ9.s:1441   .text:0000000000000744 .LBE346
     /tmp/ccce4vZ9.s:11758  .debug_loc:00000000000017c1 .LLST44
     /tmp/ccce4vZ9.s:1439   .text:0000000000000744 .LVL133
     /tmp/ccce4vZ9.s:1431   .text:000000000000072c .LVL132
     /tmp/ccce4vZ9.s:1465   .text:000000000000074c .LBB338
     /tmp/ccce4vZ9.s:1487   .text:0000000000000760 .LBE338
     /tmp/ccce4vZ9.s:11765  .debug_loc:00000000000017e4 .LLST41
     /tmp/ccce4vZ9.s:1473   .text:0000000000000758 .LBB339
     /tmp/ccce4vZ9.s:1486   .text:0000000000000760 .LBE339
     /tmp/ccce4vZ9.s:11776  .debug_loc:000000000000181a .LLST42
     /tmp/ccce4vZ9.s:1471   .text:0000000000000758 .LVL135
     /tmp/ccce4vZ9.s:1489   .text:0000000000000760 .LBB333
     /tmp/ccce4vZ9.s:1496   .text:000000000000076c .LBE333
     /tmp/ccce4vZ9.s:11783  .debug_loc:000000000000183d .LLST37
     /tmp/ccce4vZ9.s:1495   .text:000000000000076c .LVL137
     /tmp/ccce4vZ9.s:882    .text:0000000000000484 .LBB317
     /tmp/ccce4vZ9.s:897    .text:0000000000000490 .LBE317
     /tmp/ccce4vZ9.s:883    .text:0000000000000484 .LBB318
     /tmp/ccce4vZ9.s:896    .text:0000000000000490 .LBE318
     /tmp/ccce4vZ9.s:901    .text:0000000000000494 .LBB319
     /tmp/ccce4vZ9.s:917    .text:00000000000004a0 .LBE319
     /tmp/ccce4vZ9.s:902    .text:0000000000000494 .LBB320
     /tmp/ccce4vZ9.s:916    .text:00000000000004a0 .LBE320
     /tmp/ccce4vZ9.s:1066   .text:0000000000000520 .LBB331
     /tmp/ccce4vZ9.s:1108   .text:0000000000000588 .LBE331
     /tmp/ccce4vZ9.s:11794  .debug_loc:0000000000001873 .LLST35
     /tmp/ccce4vZ9.s:11801  .debug_loc:0000000000001896 .LLST36
     /tmp/ccce4vZ9.s:1073   .text:000000000000052c .LVL92
     /tmp/ccce4vZ9.s:1079   .text:000000000000053c .LVL94
     /tmp/ccce4vZ9.s:1102   .text:000000000000057c .LVL95
     /tmp/ccce4vZ9.s:1106   .text:0000000000000588 .LVL96
     /tmp/ccce4vZ9.s:1528   .text:0000000000000780 .LBB334
     /tmp/ccce4vZ9.s:1538   .text:0000000000000784 .LBE334
     /tmp/ccce4vZ9.s:11808  .debug_loc:00000000000018b9 .LLST38
     /tmp/ccce4vZ9.s:1569   .text:0000000000000798 .LBB336
     /tmp/ccce4vZ9.s:1611   .text:0000000000000800 .LBE336
     /tmp/ccce4vZ9.s:11815  .debug_loc:00000000000018dc .LLST39
     /tmp/ccce4vZ9.s:1570   .text:0000000000000798 .LBB337
     /tmp/ccce4vZ9.s:1610   .text:0000000000000800 .LBE337
     /tmp/ccce4vZ9.s:11822  .debug_loc:00000000000018ff .LLST40
     /tmp/ccce4vZ9.s:1574   .text:00000000000007a4 .LVL142
     /tmp/ccce4vZ9.s:1580   .text:00000000000007b4 .LVL144
     /tmp/ccce4vZ9.s:1604   .text:00000000000007f4 .LVL146
     /tmp/ccce4vZ9.s:1608   .text:0000000000000800 .LVL147
GAS LISTING /tmp/ccce4vZ9.s 			page 90


     /tmp/ccce4vZ9.s:1266   .text:0000000000000648 .LBB379
     /tmp/ccce4vZ9.s:1276   .text:000000000000064c .LBE379
     /tmp/ccce4vZ9.s:11829  .debug_loc:0000000000001922 .LLST50
     /tmp/ccce4vZ9.s:1218   .text:000000000000061c .LBB392
     /tmp/ccce4vZ9.s:1227   .text:0000000000000624 .LBE392
     /tmp/ccce4vZ9.s:11836  .debug_loc:0000000000001945 .LLST51
     /tmp/ccce4vZ9.s:1233   .text:000000000000062c .LBB394
     /tmp/ccce4vZ9.s:1243   .text:0000000000000630 .LBE394
     /tmp/ccce4vZ9.s:11843  .debug_loc:0000000000001968 .LLST52
     /tmp/ccce4vZ9.s:1136   .text:00000000000005a4 .LBB459
     /tmp/ccce4vZ9.s:1147   .text:00000000000005a8 .LBE459
     /tmp/ccce4vZ9.s:11850  .debug_loc:000000000000198b .LLST54
     /tmp/ccce4vZ9.s:1128   .text:0000000000000598 .LVL98
     /tmp/ccce4vZ9.s:1132   .text:00000000000005a4 .LVL99
     /tmp/ccce4vZ9.s:1178   .text:00000000000005d4 .LVL103
     /tmp/ccce4vZ9.s:1182   .text:00000000000005e0 .LVL104
     /tmp/ccce4vZ9.s:1231   .text:000000000000062c .LVL113
     /tmp/ccce4vZ9.s:1264   .text:0000000000000648 .LVL115
     /tmp/ccce4vZ9.s:1297   .text:0000000000000660 .LVL117
     /tmp/ccce4vZ9.s:1417   .text:000000000000071c .LVL131
     /tmp/ccce4vZ9.s:1526   .text:0000000000000780 .LVL139
     /tmp/ccce4vZ9.s:13312  .debug_str:0000000000000bc4 .LASF472
     /tmp/ccce4vZ9.s:13448  .debug_str:00000000000010d2 .LASF473
     /tmp/ccce4vZ9.s:830    .text:000000000000045c .LFE114
     /tmp/ccce4vZ9.s:11857  .debug_loc:00000000000019ae .LLST3
     /tmp/ccce4vZ9.s:12000  .debug_loc:0000000000001bd0 .LLST4
     /tmp/ccce4vZ9.s:12128  .debug_loc:0000000000001e10 .LLST5
     /tmp/ccce4vZ9.s:12256  .debug_loc:0000000000002050 .LLST6
     /tmp/ccce4vZ9.s:12413  .debug_loc:000000000000229e .LLST7
     /tmp/ccce4vZ9.s:12570  .debug_loc:00000000000024ec .LLST8
     /tmp/ccce4vZ9.s:12585  .debug_loc:0000000000002535 .LLST9
     /tmp/ccce4vZ9.s:12596  .debug_loc:000000000000256b .LLST10
     /tmp/ccce4vZ9.s:520    .text:0000000000000238 .LBB239
     /tmp/ccce4vZ9.s:547    .text:0000000000000264 .LBE239
     /tmp/ccce4vZ9.s:12707  .debug_loc:0000000000002722 .LLST24
     /tmp/ccce4vZ9.s:530    .text:000000000000024c .LVL34
     /tmp/ccce4vZ9.s:592    .text:00000000000002a8 .LBB206
     /tmp/ccce4vZ9.s:690    .text:0000000000000368 .LBE206
     /tmp/ccce4vZ9.s:12718  .debug_loc:0000000000002758 .LLST18
     /tmp/ccce4vZ9.s:595    .text:00000000000002a8 .LBB207
     /tmp/ccce4vZ9.s:12737  .debug_loc:00000000000027b4 .LLST19
     /tmp/ccce4vZ9.s:608    .text:00000000000002cc .LVL49
     /tmp/ccce4vZ9.s:655    .text:0000000000000310 .LVL55
     /tmp/ccce4vZ9.s:667    .text:0000000000000338 .LVL57
     /tmp/ccce4vZ9.s:677    .text:0000000000000354 .LVL59
     /tmp/ccce4vZ9.s:614    .text:00000000000002d0 .LBB210
     /tmp/ccce4vZ9.s:640    .text:00000000000002f4 .LBE210
     /tmp/ccce4vZ9.s:12752  .debug_loc:00000000000027ee .LLST20
     /tmp/ccce4vZ9.s:12759  .debug_loc:0000000000002811 .LLST21
     /tmp/ccce4vZ9.s:619    .text:00000000000002d4 .LBB212
     /tmp/ccce4vZ9.s:628    .text:00000000000002e0 .LBE212
     /tmp/ccce4vZ9.s:12766  .debug_loc:0000000000002834 .LLST22
     /tmp/ccce4vZ9.s:692    .text:0000000000000368 .LBB202
     /tmp/ccce4vZ9.s:702    .text:0000000000000378 .LBE202
     /tmp/ccce4vZ9.s:12775  .debug_loc:0000000000002859 .LLST17
     /tmp/ccce4vZ9.s:698    .text:0000000000000374 .LVL62
     /tmp/ccce4vZ9.s:707    .text:000000000000037c .LBB199
GAS LISTING /tmp/ccce4vZ9.s 			page 91


     /tmp/ccce4vZ9.s:733    .text:00000000000003a8 .LBE199
     /tmp/ccce4vZ9.s:12786  .debug_loc:000000000000288f .LLST16
     /tmp/ccce4vZ9.s:713    .text:0000000000000388 .LVL65
     /tmp/ccce4vZ9.s:726    .text:00000000000003a0 .LVL68
     /tmp/ccce4vZ9.s:735    .text:00000000000003a8 .LBB196
     /tmp/ccce4vZ9.s:761    .text:00000000000003d4 .LBE196
     /tmp/ccce4vZ9.s:12797  .debug_loc:00000000000028c5 .LLST13
     /tmp/ccce4vZ9.s:741    .text:00000000000003b4 .LVL71
     /tmp/ccce4vZ9.s:754    .text:00000000000003cc .LVL74
     /tmp/ccce4vZ9.s:197    .text:00000000000000c8 .LBB180
     /tmp/ccce4vZ9.s:212    .text:00000000000000d4 .LBE180
     /tmp/ccce4vZ9.s:198    .text:00000000000000c8 .LBB181
     /tmp/ccce4vZ9.s:211    .text:00000000000000d4 .LBE181
     /tmp/ccce4vZ9.s:216    .text:00000000000000d8 .LBB182
     /tmp/ccce4vZ9.s:232    .text:00000000000000e4 .LBE182
     /tmp/ccce4vZ9.s:217    .text:00000000000000d8 .LBB183
     /tmp/ccce4vZ9.s:231    .text:00000000000000e4 .LBE183
     /tmp/ccce4vZ9.s:380    .text:0000000000000164 .LBB194
     /tmp/ccce4vZ9.s:425    .text:00000000000001d0 .LBE194
     /tmp/ccce4vZ9.s:12808  .debug_loc:00000000000028fb .LLST11
     /tmp/ccce4vZ9.s:12815  .debug_loc:000000000000291e .LLST12
     /tmp/ccce4vZ9.s:388    .text:0000000000000170 .LVL14
     /tmp/ccce4vZ9.s:393    .text:0000000000000180 .LVL15
     /tmp/ccce4vZ9.s:416    .text:00000000000001c0 .LVL16
     /tmp/ccce4vZ9.s:420    .text:00000000000001cc .LVL17
     /tmp/ccce4vZ9.s:775    .text:00000000000003f0 .LBB197
     /tmp/ccce4vZ9.s:817    .text:0000000000000458 .LBE197
     /tmp/ccce4vZ9.s:12822  .debug_loc:0000000000002941 .LLST14
     /tmp/ccce4vZ9.s:776    .text:00000000000003f0 .LBB198
     /tmp/ccce4vZ9.s:816    .text:0000000000000458 .LBE198
     /tmp/ccce4vZ9.s:12829  .debug_loc:0000000000002964 .LLST15
     /tmp/ccce4vZ9.s:780    .text:00000000000003fc .LVL80
     /tmp/ccce4vZ9.s:786    .text:000000000000040c .LVL82
     /tmp/ccce4vZ9.s:810    .text:000000000000044c .LVL84
     /tmp/ccce4vZ9.s:814    .text:0000000000000458 .LVL85
     /tmp/ccce4vZ9.s:554    .text:0000000000000270 .LBB230
     /tmp/ccce4vZ9.s:563    .text:0000000000000278 .LBE230
     /tmp/ccce4vZ9.s:12836  .debug_loc:0000000000002987 .LLST23
     /tmp/ccce4vZ9.s:448    .text:00000000000001e8 .LBB267
     /tmp/ccce4vZ9.s:459    .text:00000000000001ec .LBE267
     /tmp/ccce4vZ9.s:12843  .debug_loc:00000000000029aa .LLST25
     /tmp/ccce4vZ9.s:461    .text:00000000000001ec .LBB269
     /tmp/ccce4vZ9.s:472    .text:00000000000001f0 .LBE269
     /tmp/ccce4vZ9.s:12850  .debug_loc:00000000000029cd .LLST26
     /tmp/ccce4vZ9.s:438    .text:00000000000001d8 .LVL19
     /tmp/ccce4vZ9.s:442    .text:00000000000001e4 .LVL20
     /tmp/ccce4vZ9.s:508    .text:0000000000000224 .LVL28
     /tmp/ccce4vZ9.s:512    .text:0000000000000230 .LVL29
     /tmp/ccce4vZ9.s:567    .text:0000000000000280 .LVL42
     /tmp/ccce4vZ9.s:578    .text:0000000000000294 .LVL44
     /tmp/ccce4vZ9.s:587    .text:00000000000002a4 .LVL46
     /tmp/ccce4vZ9.s:681    .text:0000000000000360 .LVL60
     /tmp/ccce4vZ9.s:766    .text:00000000000003e0 .LVL77
     /tmp/ccce4vZ9.s:13344  .debug_str:0000000000000cfb .LASF474
     /tmp/ccce4vZ9.s:13732  .debug_str:0000000000001976 .LASF475
     /tmp/ccce4vZ9.s:13     .text:0000000000000000 .LFB113
     /tmp/ccce4vZ9.s:163    .text:000000000000009c .LFE113
GAS LISTING /tmp/ccce4vZ9.s 			page 92


     /tmp/ccce4vZ9.s:91     .text:0000000000000068 .LBB131
     /tmp/ccce4vZ9.s:160    .text:000000000000009c .LBE131
     /tmp/ccce4vZ9.s:93     .text:0000000000000068 .LBB132
     /tmp/ccce4vZ9.s:109    .text:0000000000000074 .LBE132
     /tmp/ccce4vZ9.s:94     .text:0000000000000068 .LBB133
     /tmp/ccce4vZ9.s:108    .text:0000000000000074 .LBE133
     /tmp/ccce4vZ9.s:110    .text:0000000000000074 .LBB134
     /tmp/ccce4vZ9.s:126    .text:0000000000000080 .LBE134
     /tmp/ccce4vZ9.s:111    .text:0000000000000074 .LBB135
     /tmp/ccce4vZ9.s:125    .text:0000000000000080 .LBE135
     /tmp/ccce4vZ9.s:135    .text:0000000000000090 .LBB136
     /tmp/ccce4vZ9.s:146    .text:0000000000000094 .LBE136
     /tmp/ccce4vZ9.s:12857  .debug_loc:00000000000029f0 .LLST1
     /tmp/ccce4vZ9.s:148    .text:0000000000000094 .LBB138
     /tmp/ccce4vZ9.s:159    .text:000000000000009c .LBE138
     /tmp/ccce4vZ9.s:133    .text:0000000000000090 .LVL7
     /tmp/ccce4vZ9.s:45     .text:0000000000000040 .LBB129
     /tmp/ccce4vZ9.s:53     .text:0000000000000044 .LBE129
     /tmp/ccce4vZ9.s:12864  .debug_loc:0000000000002a13 .LLST0
     /tmp/ccce4vZ9.s:60     .text:0000000000000048 .LBB140
     /tmp/ccce4vZ9.s:73     .text:0000000000000050 .LBE140
     /tmp/ccce4vZ9.s:12871  .debug_loc:0000000000002a36 .LLST2
     /tmp/ccce4vZ9.s:32     .text:0000000000000020 .LVL0
     /tmp/ccce4vZ9.s:13654  .debug_str:0000000000001725 .LASF477
     /tmp/ccce4vZ9.s:13480  .debug_str:00000000000011f7 .LASF476
     /tmp/ccce4vZ9.s:13056  .debug_str:0000000000000381 .LASF478
     /tmp/ccce4vZ9.s:13864  .debug_str:0000000000001d7a .LASF479
     /tmp/ccce4vZ9.s:13394  .debug_str:0000000000000f21 .LASF481
     /tmp/ccce4vZ9.s:13786  .debug_str:0000000000001b25 .LASF480
     /tmp/ccce4vZ9.s:13852  .debug_str:0000000000001d29 .LASF482
     /tmp/ccce4vZ9.s:13066  .debug_str:0000000000000404 .LASF490
     /tmp/ccce4vZ9.s:12958  .debug_str:00000000000000d3 .LASF491
     /tmp/ccce4vZ9.s:1655   .text:0000000000000808 .LVL149
     /tmp/ccce4vZ9.s:1817   .text:00000000000008b4 .LVL154
     /tmp/ccce4vZ9.s:1906   .text:0000000000000980 .LVL168
     /tmp/ccce4vZ9.s:1925   .text:000000000000098c .LVL170
     /tmp/ccce4vZ9.s:1948   .text:00000000000009ac .LVL172
     /tmp/ccce4vZ9.s:1973   .text:00000000000009c8 .LVL176
     /tmp/ccce4vZ9.s:1981   .text:00000000000009d4 .LVL178
     /tmp/ccce4vZ9.s:2085   .text:0000000000000a2c .LVL188
     /tmp/ccce4vZ9.s:2133   .text:0000000000000ad4 .LVL199
     /tmp/ccce4vZ9.s:2200   .text:0000000000000b08 .LVL204
     /tmp/ccce4vZ9.s:2249   .text:0000000000000bb0 .LVL215
     /tmp/ccce4vZ9.s:2339   .text:0000000000000ca0 .LVL233
     /tmp/ccce4vZ9.s:2349   .text:0000000000000ca8 .LVL234
     /tmp/ccce4vZ9.s:2357   .text:0000000000000cbc .LVL237
     /tmp/ccce4vZ9.s:2362   .text:0000000000000cc4 .LVL238
     /tmp/ccce4vZ9.s:1965   .text:00000000000009bc .LVL174
     /tmp/ccce4vZ9.s:2003   .text:00000000000009e4 .LVL180
     /tmp/ccce4vZ9.s:2008   .text:00000000000009e8 .LVL181
     /tmp/ccce4vZ9.s:1687   .text:0000000000000834 .LVL150
     /tmp/ccce4vZ9.s:1938   .text:0000000000000998 .LVL171
     /tmp/ccce4vZ9.s:2062   .text:0000000000000a18 .LVL186
     /tmp/ccce4vZ9.s:2079   .text:0000000000000a24 .LVL187
     /tmp/ccce4vZ9.s:2154   .text:0000000000000ae0 .LVL200
     /tmp/ccce4vZ9.s:2171   .text:0000000000000aec .LVL201
     /tmp/ccce4vZ9.s:2188   .text:0000000000000af8 .LVL202
GAS LISTING /tmp/ccce4vZ9.s 			page 93


     /tmp/ccce4vZ9.s:2195   .text:0000000000000afc .LVL203
     /tmp/ccce4vZ9.s:2262   .text:0000000000000bc8 .LVL218
     /tmp/ccce4vZ9.s:2283   .text:0000000000000bf0 .LVL221
     /tmp/ccce4vZ9.s:2291   .text:0000000000000bf8 .LVL222
     /tmp/ccce4vZ9.s:1812   .text:00000000000008ac .LVL153
     /tmp/ccce4vZ9.s:1890   .text:000000000000096c .LVL165
     /tmp/ccce4vZ9.s:1897   .text:0000000000000974 .LVL166
     /tmp/ccce4vZ9.s:1793   .text:00000000000008a0 .LVL151
     /tmp/ccce4vZ9.s:1799   .text:00000000000008a4 .LVL152
     /tmp/ccce4vZ9.s:1997   .text:00000000000009e0 .LVL179
     /tmp/ccce4vZ9.s:2011   .text:00000000000009ec .LVL182
     /tmp/ccce4vZ9.s:2018   .text:00000000000009f4 .LVL183
     /tmp/ccce4vZ9.s:2029   .text:0000000000000a00 .LVL184
     /tmp/ccce4vZ9.s:2042   .text:0000000000000a0c .LVL185
     /tmp/ccce4vZ9.s:861    .text:000000000000045c .LVL86
     /tmp/ccce4vZ9.s:1070   .text:0000000000000524 .LVL91
     /tmp/ccce4vZ9.s:1122   .text:0000000000000590 .LVL97
     /tmp/ccce4vZ9.s:1170   .text:00000000000005cc .LVL102
     /tmp/ccce4vZ9.s:1410   .text:0000000000000704 .LVL129
     /tmp/ccce4vZ9.s:1590   .text:00000000000007cc .LVL145
     /tmp/ccce4vZ9.s:1184   .text:00000000000005e4 .LVL105
     /tmp/ccce4vZ9.s:1194   .text:00000000000005ec .LVL107
     /tmp/ccce4vZ9.s:1209   .text:0000000000000610 .LVL109
     /tmp/ccce4vZ9.s:1251   .text:0000000000000638 .LVL114
     /tmp/ccce4vZ9.s:1285   .text:0000000000000654 .LVL116
     /tmp/ccce4vZ9.s:1313   .text:0000000000000668 .LVL118
     /tmp/ccce4vZ9.s:1325   .text:0000000000000678 .LVL119
     /tmp/ccce4vZ9.s:1383   .text:00000000000006c0 .LVL125
     /tmp/ccce4vZ9.s:1454   .text:000000000000074c .LVL134
     /tmp/ccce4vZ9.s:1483   .text:0000000000000760 .LVL136
     /tmp/ccce4vZ9.s:1520   .text:0000000000000774 .LVL138
     /tmp/ccce4vZ9.s:1552   .text:000000000000078c .LVL140
     /tmp/ccce4vZ9.s:1076   .text:0000000000000530 .LVL93
     /tmp/ccce4vZ9.s:1192   .text:00000000000005e8 .LVL106
     /tmp/ccce4vZ9.s:1223   .text:0000000000000620 .LVL111
     /tmp/ccce4vZ9.s:900    .text:0000000000000494 .LVL87
     /tmp/ccce4vZ9.s:1160   .text:00000000000005b8 .LVL101
     /tmp/ccce4vZ9.s:915    .text:00000000000004a0 .LVL88
     /tmp/ccce4vZ9.s:1063   .text:000000000000051c .LVL89
     /tmp/ccce4vZ9.s:1394   .text:00000000000006d0 .LVL127
     /tmp/ccce4vZ9.s:1577   .text:00000000000007a8 .LVL143
     /tmp/ccce4vZ9.s:1614   .text:0000000000000804 .LVL148
     /tmp/ccce4vZ9.s:1336   .text:0000000000000690 .LVL121
     /tmp/ccce4vZ9.s:1359   .text:00000000000006b4 .LVL124
     /tmp/ccce4vZ9.s:1341   .text:0000000000000694 .LVL122
     /tmp/ccce4vZ9.s:1348   .text:00000000000006a0 .LVL123
     /tmp/ccce4vZ9.s:1065   .text:0000000000000520 .LVL90
     /tmp/ccce4vZ9.s:1568   .text:0000000000000798 .LVL141
     /tmp/ccce4vZ9.s:1217   .text:000000000000061c .LVL110
     /tmp/ccce4vZ9.s:1225   .text:0000000000000624 .LVL112
     /tmp/ccce4vZ9.s:1144   .text:00000000000005a8 .LVL100
     /tmp/ccce4vZ9.s:174    .text:000000000000009c .LVL9
     /tmp/ccce4vZ9.s:385    .text:0000000000000168 .LVL13
     /tmp/ccce4vZ9.s:422    .text:00000000000001d0 .LVL18
     /tmp/ccce4vZ9.s:500    .text:000000000000021c .LVL27
     /tmp/ccce4vZ9.s:515    .text:0000000000000234 .LVL30
     /tmp/ccce4vZ9.s:517    .text:0000000000000238 .LVL31
GAS LISTING /tmp/ccce4vZ9.s 			page 94


     /tmp/ccce4vZ9.s:537    .text:0000000000000258 .LVL35
     /tmp/ccce4vZ9.s:539    .text:000000000000025c .LVL36
     /tmp/ccce4vZ9.s:543    .text:0000000000000260 .LVL37
     /tmp/ccce4vZ9.s:545    .text:0000000000000264 .LVL38
     /tmp/ccce4vZ9.s:602    .text:00000000000002b8 .LVL48
     /tmp/ccce4vZ9.s:648    .text:0000000000000304 .LVL54
     /tmp/ccce4vZ9.s:658    .text:0000000000000314 .LVL56
     /tmp/ccce4vZ9.s:688    .text:0000000000000368 .LVL61
     /tmp/ccce4vZ9.s:701    .text:0000000000000378 .LVL63
     /tmp/ccce4vZ9.s:704    .text:000000000000037c .LVL64
     /tmp/ccce4vZ9.s:718    .text:0000000000000390 .LVL66
     /tmp/ccce4vZ9.s:720    .text:0000000000000394 .LVL67
     /tmp/ccce4vZ9.s:729    .text:00000000000003a4 .LVL69
     /tmp/ccce4vZ9.s:731    .text:00000000000003a8 .LVL70
     /tmp/ccce4vZ9.s:746    .text:00000000000003bc .LVL72
     /tmp/ccce4vZ9.s:748    .text:00000000000003c0 .LVL73
     /tmp/ccce4vZ9.s:757    .text:00000000000003d0 .LVL75
     /tmp/ccce4vZ9.s:759    .text:00000000000003d4 .LVL76
     /tmp/ccce4vZ9.s:796    .text:0000000000000424 .LVL83
     /tmp/ccce4vZ9.s:444    .text:00000000000001e8 .LVL21
     /tmp/ccce4vZ9.s:527    .text:0000000000000240 .LVL33
     /tmp/ccce4vZ9.s:569    .text:0000000000000284 .LVL43
     /tmp/ccce4vZ9.s:580    .text:0000000000000298 .LVL45
     /tmp/ccce4vZ9.s:589    .text:00000000000002a8 .LVL47
     /tmp/ccce4vZ9.s:768    .text:00000000000003e4 .LVL78
     /tmp/ccce4vZ9.s:525    .text:000000000000023c .LVL32
     /tmp/ccce4vZ9.s:783    .text:0000000000000400 .LVL81
     /tmp/ccce4vZ9.s:559    .text:0000000000000274 .LVL40
     /tmp/ccce4vZ9.s:215    .text:00000000000000d8 .LVL10
     /tmp/ccce4vZ9.s:487    .text:0000000000000204 .LVL25
     /tmp/ccce4vZ9.s:674    .text:0000000000000348 .LVL58
     /tmp/ccce4vZ9.s:230    .text:00000000000000e4 .LVL11
     /tmp/ccce4vZ9.s:490    .text:0000000000000208 .LVL26
     /tmp/ccce4vZ9.s:484    .text:0000000000000200 .LVL24
     /tmp/ccce4vZ9.s:613    .text:00000000000002d0 .LVL50
     /tmp/ccce4vZ9.s:637    .text:00000000000002f4 .LVL53
     /tmp/ccce4vZ9.s:618    .text:00000000000002d4 .LVL51
     /tmp/ccce4vZ9.s:626    .text:00000000000002e0 .LVL52
     /tmp/ccce4vZ9.s:379    .text:0000000000000164 .LVL12
     /tmp/ccce4vZ9.s:774    .text:00000000000003f0 .LVL79
     /tmp/ccce4vZ9.s:553    .text:0000000000000270 .LVL39
     /tmp/ccce4vZ9.s:561    .text:0000000000000278 .LVL41
     /tmp/ccce4vZ9.s:456    .text:00000000000001ec .LVL22
     /tmp/ccce4vZ9.s:469    .text:00000000000001f0 .LVL23
     /tmp/ccce4vZ9.s:143    .text:0000000000000094 .LVL8
     /tmp/ccce4vZ9.s:44     .text:0000000000000040 .LVL1
     /tmp/ccce4vZ9.s:51     .text:0000000000000044 .LVL2
     /tmp/ccce4vZ9.s:59     .text:0000000000000048 .LVL3
     /tmp/ccce4vZ9.s:70     .text:0000000000000050 .LVL4
     /tmp/ccce4vZ9.s:2452   .debug_info:0000000000000000 .Ldebug_info0
     /tmp/ccce4vZ9.s:610    .text:00000000000002cc .LBE207
     /tmp/ccce4vZ9.s:650    .text:0000000000000304 .LBB214
     /tmp/ccce4vZ9.s:684    .text:0000000000000360 .LBE214
     /tmp/ccce4vZ9.s:1316   .text:0000000000000668 .LBB353
     /tmp/ccce4vZ9.s:1365   .text:00000000000006b8 .LBE353
     /tmp/ccce4vZ9.s:1385   .text:00000000000006c0 .LBB362
     /tmp/ccce4vZ9.s:1421   .text:000000000000071c .LBE362
GAS LISTING /tmp/ccce4vZ9.s 			page 95


     /tmp/ccce4vZ9.s:1333   .text:000000000000068c .LBE354
     /tmp/ccce4vZ9.s:1386   .text:00000000000006c0 .LBB361
     /tmp/ccce4vZ9.s:1420   .text:000000000000071c .LBE361
     /tmp/ccce4vZ9.s:2138   .text:0000000000000ad4 .LBB488
     /tmp/ccce4vZ9.s:2280   .text:0000000000000bec .LBE488
     /tmp/ccce4vZ9.s:2285   .text:0000000000000bf0 .LBB499
     /tmp/ccce4vZ9.s:2343   .text:0000000000000ca0 .LBE499
     /tmp/ccce4vZ9.s:2251   .text:0000000000000bb0 .LBB496
     /tmp/ccce4vZ9.s:2278   .text:0000000000000bec .LBE496
     /tmp/ccce4vZ9.s:2287   .text:0000000000000bf0 .LBB497
     /tmp/ccce4vZ9.s:2341   .text:0000000000000ca0 .LBE497
     /tmp/ccce4vZ9.s:833    .gcc_except_table:0000000000000000 .LLSDA114
     /tmp/ccce4vZ9.s:1629   .gcc_except_table:000000000000002b .LLSDA115

UNDEFINED SYMBOLS
_ZN9Scheduler12update_sleepEv
_ZN3TCB16timeSliceCounterE
_ZN3TCB7runningE
_ZN3TCB5yieldEv
_ZN5StdIO7obufferE
_ZN10KSemaphore4waitEv
_ZN10KSemaphore6signalEv
_ZN15MemoryAllocator11getInstanceEv
_ZN15MemoryAllocator9mem_allocEm
_ZN15MemoryAllocator8mem_freeEPv
_ZN3TCB12createThreadEPFvPvES0_Pm
_ZN3TCB8dispatchEv
_ZN3TCB12deleteThreadEPS_
_ZN10KSemaphore5cacheE
_ZN11ObjectCache9alloc_objEv
_ZN10KSemaphore16activeSemaphoresE
_ZN11ObjectCachenwEm
_ZN11ObjectCacheC1EPKcmPFvPvES4_NS_12SlabMetaTypeE
_ZN11ObjectCachedlEPv
_Unwind_Resume
_ZN10KSemaphore5closeEPS_
_ZN10KSemaphore6existsEPS_
_ZN3TCB5sleepEm
_ZN5StdIO7ibufferE
__gxx_personality_v0
_ZN10KSemaphoreD1Ev
_ZN11ObjectCache8free_objEPv
_Z12kprintStringPKc
_Z9kprintIntmib
_ZN5StdIO15console_handlerEv
thread_exit
_ZN15MemoryAllocator18getFreeSegmentMetaEPv
_ZN5Pager11getInstanceEv
_ZN5Pager6id_mapEPvS0_12PMTEntryBits
_ZN3TCB13panicDispatchEv
