GAS LISTING /tmp/ccCJAVJr.s 			page 1


   1              		.file	"os2Main.cpp"
   2              		.option nopic
   3              		.option norelax
   4              		.attribute arch, "rv64i2p0_m2p0_a2p0"
   5              		.attribute unaligned_access, 0
   6              		.attribute stack_align, 16
   7              		.text
   8              	.Ltext0:
   9              		.align	2
  10              		.globl	_Z6memsetPKvii
  12              	_Z6memsetPKvii:
  13              	.LFB113:
  14              		.file 1 "src/kernel/testing/drugi/os2Main.cpp"
   1:src/kernel/testing/drugi/os2Main.cpp **** #include "../../../../h/kernel_lib.h"
   2:src/kernel/testing/drugi/os2Main.cpp **** 
   3:src/kernel/testing/drugi/os2Main.cpp **** #define RUN_NUM (5)
   4:src/kernel/testing/drugi/os2Main.cpp **** #define ITERATIONS (1000)
   5:src/kernel/testing/drugi/os2Main.cpp **** #define NULL nullptr
   6:src/kernel/testing/drugi/os2Main.cpp **** 
   7:src/kernel/testing/drugi/os2Main.cpp **** #define shared_size (7)
   8:src/kernel/testing/drugi/os2Main.cpp **** #define MASK (0xA5)
   9:src/kernel/testing/drugi/os2Main.cpp **** 
  10:src/kernel/testing/drugi/os2Main.cpp **** struct data_s {
  11:src/kernel/testing/drugi/os2Main.cpp ****     int id;
  12:src/kernel/testing/drugi/os2Main.cpp ****     kmem_cache_t  *shared;
  13:src/kernel/testing/drugi/os2Main.cpp ****     int iterations;
  14:src/kernel/testing/drugi/os2Main.cpp **** };
  15:src/kernel/testing/drugi/os2Main.cpp **** 
  16:src/kernel/testing/drugi/os2Main.cpp **** const char * const CACHE_NAMES[] = {"tc_0",
  17:src/kernel/testing/drugi/os2Main.cpp ****                                     "tc_1",
  18:src/kernel/testing/drugi/os2Main.cpp ****                                     "tc_2",
  19:src/kernel/testing/drugi/os2Main.cpp ****                                     "tc_3",
  20:src/kernel/testing/drugi/os2Main.cpp ****                                     "tc_4"};
  21:src/kernel/testing/drugi/os2Main.cpp **** 
  22:src/kernel/testing/drugi/os2Main.cpp **** void memset(const void *data, int size, int value) {
  15              		.loc 1 22 52
  16              		.cfi_startproc
  17              	.LVL0:
  18 0000 130101FF 		addi	sp,sp,-16
  19              		.cfi_def_cfa_offset 16
  20 0004 23348100 		sd	s0,8(sp)
  21              		.cfi_offset 8, -8
  22 0008 13040101 		addi	s0,sp,16
  23              		.cfi_def_cfa 8, 0
  23:src/kernel/testing/drugi/os2Main.cpp ****     for (int j = 0; j < size; j++) {
  24              		.loc 1 23 5
  25              	.LVL1:
  26              	.LBB2:
  27              		.loc 1 23 14 is_stmt 0
  28 000c 93070000 		li	a5,0
  29              	.LVL2:
  30              	.L3:
  31              		.loc 1 23 23 discriminator 3
  32 0010 63DAB700 		bge	a5,a1,.L1
  24:src/kernel/testing/drugi/os2Main.cpp ****         *((char *)data + j) = value;
  33              		.loc 1 24 9 is_stmt 1 discriminator 2
  34              		.loc 1 24 24 is_stmt 0 discriminator 2
GAS LISTING /tmp/ccCJAVJr.s 			page 2


  35 0014 3307F500 		add	a4,a0,a5
  36              		.loc 1 24 29 discriminator 2
  37 0018 2300C700 		sb	a2,0(a4)
  23:src/kernel/testing/drugi/os2Main.cpp ****     for (int j = 0; j < size; j++) {
  38              		.loc 1 23 5 discriminator 2
  39 001c 9B871700 		addiw	a5,a5,1
  40              	.LVL3:
  41 0020 6FF01FFF 		j	.L3
  42              	.LVL4:
  43              	.L1:
  44              	.LBE2:
  25:src/kernel/testing/drugi/os2Main.cpp ****     }
  26:src/kernel/testing/drugi/os2Main.cpp **** }
  45              		.loc 1 26 1
  46 0024 03348100 		ld	s0,8(sp)
  47              		.cfi_restore 8
  48              		.cfi_def_cfa 2, 16
  49 0028 13010101 		addi	sp,sp,16
  50              		.cfi_def_cfa_offset 0
  51 002c 67800000 		jr	ra
  52              		.cfi_endproc
  53              	.LFE113:
  55              		.align	2
  56              		.globl	_Z9constructPv
  58              	_Z9constructPv:
  59              	.LFB114:
  27:src/kernel/testing/drugi/os2Main.cpp **** 
  28:src/kernel/testing/drugi/os2Main.cpp **** void construct(void *data) {
  60              		.loc 1 28 28 is_stmt 1
  61              		.cfi_startproc
  62              	.LVL5:
  63 0030 130101FE 		addi	sp,sp,-32
  64              		.cfi_def_cfa_offset 32
  65 0034 233C1100 		sd	ra,24(sp)
  66 0038 23388100 		sd	s0,16(sp)
  67 003c 23349100 		sd	s1,8(sp)
  68              		.cfi_offset 1, -8
  69              		.cfi_offset 8, -16
  70              		.cfi_offset 9, -24
  71 0040 13040102 		addi	s0,sp,32
  72              		.cfi_def_cfa 8, 0
  73 0044 93040500 		mv	s1,a0
  29:src/kernel/testing/drugi/os2Main.cpp **** 	static int i = 1;
  74              		.loc 1 29 2
  30:src/kernel/testing/drugi/os2Main.cpp **** 	kprintInt(i++); kprintString(" Shared object constructed\n");
  75              		.loc 1 30 2
  76              		.loc 1 30 13 is_stmt 0
  77 0048 97070000 		lla	a5,_ZZ9constructPvE1i
  77      93870700 
  78 0050 03A50700 		lw	a0,0(a5)
  79              	.LVL6:
  80 0054 1B071500 		addiw	a4,a0,1
  81 0058 23A0E700 		sw	a4,0(a5)
  82              		.loc 1 30 11
  83 005c 13060000 		li	a2,0
  84 0060 9305A000 		li	a1,10
  85 0064 97000000 		call	_Z9kprintIntmib
GAS LISTING /tmp/ccCJAVJr.s 			page 3


  85      E7800000 
  86              	.LVL7:
  87              		.loc 1 30 18 is_stmt 1
  88              		.loc 1 30 30 is_stmt 0
  89 006c 17050000 		lla	a0,.LC0
  89      13050500 
  90 0074 97000000 		call	_Z12kprintStringPKc
  90      E7800000 
  91              	.LVL8:
  31:src/kernel/testing/drugi/os2Main.cpp **** 	// kprintf("%d Shared object constructed.\n", i++);
  32:src/kernel/testing/drugi/os2Main.cpp ****     memset(data, shared_size, MASK);
  92              		.loc 1 32 5 is_stmt 1
  93              		.loc 1 32 11 is_stmt 0
  94 007c 1306500A 		li	a2,165
  95 0080 93057000 		li	a1,7
  96 0084 13850400 		mv	a0,s1
  97 0088 97000000 		call	_Z6memsetPKvii
  97      E7800000 
  98              	.LVL9:
  33:src/kernel/testing/drugi/os2Main.cpp **** }
  99              		.loc 1 33 1
 100 0090 83308101 		ld	ra,24(sp)
 101              		.cfi_restore 1
 102 0094 03340101 		ld	s0,16(sp)
 103              		.cfi_restore 8
 104              		.cfi_def_cfa 2, 32
 105 0098 83348100 		ld	s1,8(sp)
 106              		.cfi_restore 9
 107              	.LVL10:
 108 009c 13010102 		addi	sp,sp,32
 109              		.cfi_def_cfa_offset 0
 110 00a0 67800000 		jr	ra
 111              		.cfi_endproc
 112              	.LFE114:
 114              		.align	2
 115              		.globl	_Z5checkPvm
 117              	_Z5checkPvm:
 118              	.LFB115:
  34:src/kernel/testing/drugi/os2Main.cpp **** 
  35:src/kernel/testing/drugi/os2Main.cpp **** int check(void *data, size_t size) {
 119              		.loc 1 35 36 is_stmt 1
 120              		.cfi_startproc
 121              	.LVL11:
 122 00a4 130101FF 		addi	sp,sp,-16
 123              		.cfi_def_cfa_offset 16
 124 00a8 23348100 		sd	s0,8(sp)
 125              		.cfi_offset 8, -8
 126 00ac 13040101 		addi	s0,sp,16
 127              		.cfi_def_cfa 8, 0
 128 00b0 13060500 		mv	a2,a0
  36:src/kernel/testing/drugi/os2Main.cpp **** 	int ret = 1;
 129              		.loc 1 36 2
 130              	.LVL12:
  37:src/kernel/testing/drugi/os2Main.cpp **** 	for (size_t i = 0; i < size; i++) {
 131              		.loc 1 37 2
 132              	.LBB3:
 133              		.loc 1 37 14 is_stmt 0
GAS LISTING /tmp/ccCJAVJr.s 			page 4


 134 00b4 93070000 		li	a5,0
 135              	.LBE3:
  36:src/kernel/testing/drugi/os2Main.cpp **** 	int ret = 1;
 136              		.loc 1 36 6
 137 00b8 13051000 		li	a0,1
 138              	.LVL13:
 139 00bc 6F008000 		j	.L10
 140              	.LVL14:
 141              	.L9:
 142              	.LBB4:
 143              		.loc 1 37 2 discriminator 2
 144 00c0 93871700 		addi	a5,a5,1
 145              	.LVL15:
 146              	.L10:
 147              		.loc 1 37 23 discriminator 1
 148 00c4 63FEB700 		bgeu	a5,a1,.L8
  38:src/kernel/testing/drugi/os2Main.cpp **** 		if (((unsigned char *)data)[i] != MASK) {
 149              		.loc 1 38 3 is_stmt 1
 150              		.loc 1 38 32 is_stmt 0
 151 00c8 3307F600 		add	a4,a2,a5
 152 00cc 83460700 		lbu	a3,0(a4)
 153              		.loc 1 38 3
 154 00d0 1307500A 		li	a4,165
 155 00d4 E386E6FE 		beq	a3,a4,.L9
  39:src/kernel/testing/drugi/os2Main.cpp **** 			ret = 0;
 156              		.loc 1 39 8
 157 00d8 13050000 		li	a0,0
 158              	.LVL16:
 159 00dc 6FF05FFE 		j	.L9
 160              	.LVL17:
 161              	.L8:
 162              	.LBE4:
  40:src/kernel/testing/drugi/os2Main.cpp **** 		}
  41:src/kernel/testing/drugi/os2Main.cpp **** 	}
  42:src/kernel/testing/drugi/os2Main.cpp **** 
  43:src/kernel/testing/drugi/os2Main.cpp **** 	return ret;
 163              		.loc 1 43 2 is_stmt 1
  44:src/kernel/testing/drugi/os2Main.cpp **** }
 164              		.loc 1 44 1 is_stmt 0
 165 00e0 03348100 		ld	s0,8(sp)
 166              		.cfi_restore 8
 167              		.cfi_def_cfa 2, 16
 168 00e4 13010101 		addi	sp,sp,16
 169              		.cfi_def_cfa_offset 0
 170 00e8 67800000 		jr	ra
 171              		.cfi_endproc
 172              	.LFE115:
 174              		.align	2
 175              		.globl	_Z4workPv
 177              	_Z4workPv:
 178              	.LFB116:
  45:src/kernel/testing/drugi/os2Main.cpp **** 
  46:src/kernel/testing/drugi/os2Main.cpp **** struct objects_s {
  47:src/kernel/testing/drugi/os2Main.cpp **** 	kmem_cache_t *cache;
  48:src/kernel/testing/drugi/os2Main.cpp **** 	void *data;
  49:src/kernel/testing/drugi/os2Main.cpp **** };
  50:src/kernel/testing/drugi/os2Main.cpp **** 
GAS LISTING /tmp/ccCJAVJr.s 			page 5


  51:src/kernel/testing/drugi/os2Main.cpp **** void work(void* pdata) {
 179              		.loc 1 51 24 is_stmt 1
 180              		.cfi_startproc
 181              	.LVL18:
 182 00ec 130101F9 		addi	sp,sp,-112
 183              		.cfi_def_cfa_offset 112
 184 00f0 23341106 		sd	ra,104(sp)
 185 00f4 23308106 		sd	s0,96(sp)
 186 00f8 233C9104 		sd	s1,88(sp)
 187 00fc 23382105 		sd	s2,80(sp)
 188 0100 23343105 		sd	s3,72(sp)
 189 0104 23304105 		sd	s4,64(sp)
 190 0108 233C5103 		sd	s5,56(sp)
 191 010c 23386103 		sd	s6,48(sp)
 192 0110 23347103 		sd	s7,40(sp)
 193              		.cfi_offset 1, -8
 194              		.cfi_offset 8, -16
 195              		.cfi_offset 9, -24
 196              		.cfi_offset 18, -32
 197              		.cfi_offset 19, -40
 198              		.cfi_offset 20, -48
 199              		.cfi_offset 21, -56
 200              		.cfi_offset 22, -64
 201              		.cfi_offset 23, -72
 202 0114 13040107 		addi	s0,sp,112
 203              		.cfi_def_cfa 8, 0
  52:src/kernel/testing/drugi/os2Main.cpp **** 	struct data_s data = *(struct data_s*) pdata;
 204              		.loc 1 52 2
 205              		.loc 1 52 16 is_stmt 0
 206 0118 83370500 		ld	a5,0(a0)
 207 011c 233CF4F8 		sd	a5,-104(s0)
 208 0120 03378500 		ld	a4,8(a0)
 209 0124 2330E4FA 		sd	a4,-96(s0)
 210 0128 03370501 		ld	a4,16(a0)
 211 012c 2334E4FA 		sd	a4,-88(s0)
  53:src/kernel/testing/drugi/os2Main.cpp **** 	int size = 0;
 212              		.loc 1 53 2 is_stmt 1
 213              	.LVL19:
  54:src/kernel/testing/drugi/os2Main.cpp ****     int object_size = data.id + 1;
 214              		.loc 1 54 5
 215              		.loc 1 54 28 is_stmt 0
 216 0130 9B870700 		sext.w	a5,a5
 217              		.loc 1 54 9
 218 0134 9B891700 		addiw	s3,a5,1
 219              	.LVL20:
  55:src/kernel/testing/drugi/os2Main.cpp **** 	kmem_cache_t *cache = kmem_cache_create(CACHE_NAMES[data.id], object_size, 0, 0);
 220              		.loc 1 55 2 is_stmt 1
 221              		.loc 1 55 61 is_stmt 0
 222 0138 93973700 		slli	a5,a5,3
 223              	.LVL21:
 224 013c 17070000 		lla	a4,.LANCHOR0
 224      13070700 
 225 0144 B307F700 		add	a5,a4,a5
 226              		.loc 1 55 41
 227 0148 138B0900 		mv	s6,s3
 228 014c 93060000 		li	a3,0
 229 0150 13060000 		li	a2,0
GAS LISTING /tmp/ccCJAVJr.s 			page 6


 230 0154 93850900 		mv	a1,s3
 231 0158 03B50700 		ld	a0,0(a5)
 232              	.LVL22:
 233 015c 97000000 		call	_Z17kmem_cache_createPKcmPFvPvES3_
 233      E7800000 
 234              	.LVL23:
 235 0164 130A0500 		mv	s4,a0
 236              	.LVL24:
  56:src/kernel/testing/drugi/os2Main.cpp **** 
  57:src/kernel/testing/drugi/os2Main.cpp **** 	struct objects_s *objs = (struct objects_s*)(kmalloc(sizeof(struct objects_s) * data.iterations));
 237              		.loc 1 57 2 is_stmt 1
 238              		.loc 1 57 87 is_stmt 0
 239 0168 032584FA 		lw	a0,-88(s0)
 240              	.LVL25:
 241              		.loc 1 57 54
 242 016c 13154500 		slli	a0,a0,4
 243 0170 97000000 		call	_Z7kmallocm
 243      E7800000 
 244              	.LVL26:
 245 0178 930A0500 		mv	s5,a0
  53:src/kernel/testing/drugi/os2Main.cpp ****     int object_size = data.id + 1;
 246              		.loc 1 53 6
 247 017c 13090000 		li	s2,0
 248 0180 6F004003 		j	.L17
 249              	.LVL27:
 250              	.L15:
 251              	.LBB5:
  58:src/kernel/testing/drugi/os2Main.cpp **** 
  59:src/kernel/testing/drugi/os2Main.cpp **** 	for (int i = 0; i < data.iterations; i++) {
  60:src/kernel/testing/drugi/os2Main.cpp **** 		if (i % 100 == 0) {
  61:src/kernel/testing/drugi/os2Main.cpp **** 			objs[size].data = kmem_cache_alloc(data.shared);
  62:src/kernel/testing/drugi/os2Main.cpp **** 			objs[size].cache = data.shared;
  63:src/kernel/testing/drugi/os2Main.cpp **** 			if (!check(objs[size].data, shared_size)) {
  64:src/kernel/testing/drugi/os2Main.cpp **** 				kprintString("Value not correct!\n");
  65:src/kernel/testing/drugi/os2Main.cpp ****                 //kprintf("Value not correct!");
  66:src/kernel/testing/drugi/os2Main.cpp ****             }
  67:src/kernel/testing/drugi/os2Main.cpp **** 		}
  68:src/kernel/testing/drugi/os2Main.cpp **** 		else {
  69:src/kernel/testing/drugi/os2Main.cpp **** 			objs[size].data = kmem_cache_alloc(cache);
 252              		.loc 1 69 4 is_stmt 1
 253              		.loc 1 69 13 is_stmt 0
 254 0184 93144900 		slli	s1,s2,4
 255 0188 B3849A00 		add	s1,s5,s1
 256              		.loc 1 69 38
 257 018c 13050A00 		mv	a0,s4
 258 0190 97000000 		call	_Z16kmem_cache_allocP11ObjectCache
 258      E7800000 
 259              	.LVL28:
 260              		.loc 1 69 20
 261 0198 23B4A400 		sd	a0,8(s1)
  70:src/kernel/testing/drugi/os2Main.cpp **** 			objs[size].cache = cache;
 262              		.loc 1 70 4 is_stmt 1
 263              		.loc 1 70 21 is_stmt 0
 264 019c 23B04401 		sd	s4,0(s1)
  71:src/kernel/testing/drugi/os2Main.cpp **** 			memset(objs[size].data, object_size, MASK);
 265              		.loc 1 71 4 is_stmt 1
 266              		.loc 1 71 10 is_stmt 0
GAS LISTING /tmp/ccCJAVJr.s 			page 7


 267 01a0 1306500A 		li	a2,165
 268 01a4 93850900 		mv	a1,s3
 269 01a8 97000000 		call	_Z6memsetPKvii
 269      E7800000 
 270              	.LVL29:
 271              	.L16:
  72:src/kernel/testing/drugi/os2Main.cpp **** 		}
  73:src/kernel/testing/drugi/os2Main.cpp **** 		size++;
 272              		.loc 1 73 3 is_stmt 1 discriminator 2
 273              		.loc 1 73 7 is_stmt 0 discriminator 2
 274 01b0 1B091900 		addiw	s2,s2,1
 275              	.LVL30:
 276              	.L17:
  59:src/kernel/testing/drugi/os2Main.cpp **** 		if (i % 100 == 0) {
 277              		.loc 1 59 27 discriminator 1
 278 01b4 832784FA 		lw	a5,-88(s0)
  59:src/kernel/testing/drugi/os2Main.cpp **** 		if (i % 100 == 0) {
 279              		.loc 1 59 20 discriminator 1
 280 01b8 635AF904 		ble	a5,s2,.L14
  60:src/kernel/testing/drugi/os2Main.cpp **** 			objs[size].data = kmem_cache_alloc(data.shared);
 281              		.loc 1 60 3 is_stmt 1
  60:src/kernel/testing/drugi/os2Main.cpp **** 			objs[size].data = kmem_cache_alloc(data.shared);
 282              		.loc 1 60 9 is_stmt 0
 283 01bc 93074006 		li	a5,100
 284 01c0 BB67F902 		remw	a5,s2,a5
  60:src/kernel/testing/drugi/os2Main.cpp **** 			objs[size].data = kmem_cache_alloc(data.shared);
 285              		.loc 1 60 3
 286 01c4 E39007FC 		bne	a5,zero,.L15
  61:src/kernel/testing/drugi/os2Main.cpp **** 			objs[size].cache = data.shared;
 287              		.loc 1 61 4 is_stmt 1
  61:src/kernel/testing/drugi/os2Main.cpp **** 			objs[size].cache = data.shared;
 288              		.loc 1 61 38 is_stmt 0
 289 01c8 833B04FA 		ld	s7,-96(s0)
  61:src/kernel/testing/drugi/os2Main.cpp **** 			objs[size].cache = data.shared;
 290              		.loc 1 61 13
 291 01cc 93144900 		slli	s1,s2,4
 292 01d0 B3849A00 		add	s1,s5,s1
  61:src/kernel/testing/drugi/os2Main.cpp **** 			objs[size].cache = data.shared;
 293              		.loc 1 61 38
 294 01d4 13850B00 		mv	a0,s7
 295 01d8 97000000 		call	_Z16kmem_cache_allocP11ObjectCache
 295      E7800000 
 296              	.LVL31:
  61:src/kernel/testing/drugi/os2Main.cpp **** 			objs[size].cache = data.shared;
 297              		.loc 1 61 20
 298 01e0 23B4A400 		sd	a0,8(s1)
  62:src/kernel/testing/drugi/os2Main.cpp **** 			if (!check(objs[size].data, shared_size)) {
 299              		.loc 1 62 4 is_stmt 1
  62:src/kernel/testing/drugi/os2Main.cpp **** 			if (!check(objs[size].data, shared_size)) {
 300              		.loc 1 62 21 is_stmt 0
 301 01e4 23B07401 		sd	s7,0(s1)
  63:src/kernel/testing/drugi/os2Main.cpp **** 				kprintString("Value not correct!\n");
 302              		.loc 1 63 4 is_stmt 1
  63:src/kernel/testing/drugi/os2Main.cpp **** 				kprintString("Value not correct!\n");
 303              		.loc 1 63 14 is_stmt 0
 304 01e8 93057000 		li	a1,7
 305 01ec 97000000 		call	_Z5checkPvm
GAS LISTING /tmp/ccCJAVJr.s 			page 8


 305      E7800000 
 306              	.LVL32:
  63:src/kernel/testing/drugi/os2Main.cpp **** 				kprintString("Value not correct!\n");
 307              		.loc 1 63 4
 308 01f4 E31E05FA 		bne	a0,zero,.L16
  64:src/kernel/testing/drugi/os2Main.cpp ****                 //kprintf("Value not correct!");
 309              		.loc 1 64 5 is_stmt 1
  64:src/kernel/testing/drugi/os2Main.cpp ****                 //kprintf("Value not correct!");
 310              		.loc 1 64 17 is_stmt 0
 311 01f8 17050000 		lla	a0,.LC1
 311      13050500 
 312 0200 97000000 		call	_Z12kprintStringPKc
 312      E7800000 
 313              	.LVL33:
 314 0208 6FF09FFA 		j	.L16
 315              	.L14:
 316              	.LBE5:
  74:src/kernel/testing/drugi/os2Main.cpp **** 	}
  75:src/kernel/testing/drugi/os2Main.cpp **** 
  76:src/kernel/testing/drugi/os2Main.cpp **** 	kmem_cache_info(cache);
 317              		.loc 1 76 2 is_stmt 1
 318              		.loc 1 76 17 is_stmt 0
 319 020c 13050A00 		mv	a0,s4
 320 0210 97000000 		call	_Z15kmem_cache_infoP11ObjectCache
 320      E7800000 
 321              	.LVL34:
  77:src/kernel/testing/drugi/os2Main.cpp **** 	kmem_cache_info(data.shared);
 322              		.loc 1 77 2 is_stmt 1
 323              		.loc 1 77 17 is_stmt 0
 324 0218 033504FA 		ld	a0,-96(s0)
 325 021c 97000000 		call	_Z15kmem_cache_infoP11ObjectCache
 325      E7800000 
 326              	.LVL35:
 327              	.LBB6:
  78:src/kernel/testing/drugi/os2Main.cpp **** 
  79:src/kernel/testing/drugi/os2Main.cpp **** 	for (int i = 0; i < size; i++) {
 328              		.loc 1 79 11
 329 0224 93090000 		li	s3,0
 330 0228 6F000003 		j	.L21
 331              	.LVL36:
 332              	.L22:
  80:src/kernel/testing/drugi/os2Main.cpp **** 		if (!check(objs[i].data, (cache == objs[i].cache) ? object_size : shared_size)) {
 333              		.loc 1 80 13
 334 022c 93050B00 		mv	a1,s6
 335 0230 6F004004 		j	.L19
 336              	.L24:
  81:src/kernel/testing/drugi/os2Main.cpp ****             kprintString("Value not correct!\n");
 337              		.loc 1 81 13 is_stmt 1
 338              		.loc 1 81 25 is_stmt 0
 339 0234 17050000 		lla	a0,.LC1
 339      13050500 
 340 023c 97000000 		call	_Z12kprintStringPKc
 340      E7800000 
 341              	.LVL37:
 342              	.L20:
  82:src/kernel/testing/drugi/os2Main.cpp **** 			// kprintf("Value not correct!");
  83:src/kernel/testing/drugi/os2Main.cpp ****         }
GAS LISTING /tmp/ccCJAVJr.s 			page 9


  84:src/kernel/testing/drugi/os2Main.cpp **** 		kmem_cache_free(objs[i].cache, objs[i].data);
 343              		.loc 1 84 3 is_stmt 1
 344              		.loc 1 84 18 is_stmt 0
 345 0244 83B58400 		ld	a1,8(s1)
 346 0248 03B50400 		ld	a0,0(s1)
 347 024c 97000000 		call	_Z15kmem_cache_freeP11ObjectCachePv
 347      E7800000 
 348              	.LVL38:
  79:src/kernel/testing/drugi/os2Main.cpp **** 		if (!check(objs[i].data, (cache == objs[i].cache) ? object_size : shared_size)) {
 349              		.loc 1 79 2
 350 0254 9B891900 		addiw	s3,s3,1
 351              	.LVL39:
 352              	.L21:
  79:src/kernel/testing/drugi/os2Main.cpp **** 		if (!check(objs[i].data, (cache == objs[i].cache) ? object_size : shared_size)) {
 353              		.loc 1 79 20 discriminator 1
 354 0258 63D62903 		ble	s2,s3,.L18
  80:src/kernel/testing/drugi/os2Main.cpp ****             kprintString("Value not correct!\n");
 355              		.loc 1 80 3 is_stmt 1
  80:src/kernel/testing/drugi/os2Main.cpp ****             kprintString("Value not correct!\n");
 356              		.loc 1 80 20 is_stmt 0
 357 025c 93944900 		slli	s1,s3,4
 358 0260 B3849A00 		add	s1,s5,s1
  80:src/kernel/testing/drugi/os2Main.cpp ****             kprintString("Value not correct!\n");
 359              		.loc 1 80 13
 360 0264 03B58400 		ld	a0,8(s1)
  80:src/kernel/testing/drugi/os2Main.cpp ****             kprintString("Value not correct!\n");
 361              		.loc 1 80 46
 362 0268 83B70400 		ld	a5,0(s1)
  80:src/kernel/testing/drugi/os2Main.cpp ****             kprintString("Value not correct!\n");
 363              		.loc 1 80 13
 364 026c E38047FD 		beq	a5,s4,.L22
 365 0270 93057000 		li	a1,7
 366              	.L19:
  80:src/kernel/testing/drugi/os2Main.cpp ****             kprintString("Value not correct!\n");
 367              		.loc 1 80 13 discriminator 4
 368 0274 97000000 		call	_Z5checkPvm
 368      E7800000 
 369              	.LVL40:
  80:src/kernel/testing/drugi/os2Main.cpp ****             kprintString("Value not correct!\n");
 370              		.loc 1 80 3 discriminator 4
 371 027c E31405FC 		bne	a0,zero,.L20
 372 0280 6FF05FFB 		j	.L24
 373              	.L18:
 374              	.LBE6:
  85:src/kernel/testing/drugi/os2Main.cpp **** 	}
  86:src/kernel/testing/drugi/os2Main.cpp **** 
  87:src/kernel/testing/drugi/os2Main.cpp **** 	kfree(objs);
 375              		.loc 1 87 2 is_stmt 1
 376              		.loc 1 87 7 is_stmt 0
 377 0284 13850A00 		mv	a0,s5
 378 0288 97000000 		call	_Z5kfreePv
 378      E7800000 
 379              	.LVL41:
  88:src/kernel/testing/drugi/os2Main.cpp **** 	kmem_cache_destroy(cache);
 380              		.loc 1 88 2 is_stmt 1
 381              		.loc 1 88 20 is_stmt 0
 382 0290 13050A00 		mv	a0,s4
GAS LISTING /tmp/ccCJAVJr.s 			page 10


 383 0294 97000000 		call	_Z18kmem_cache_destroyP11ObjectCache
 383      E7800000 
 384              	.LVL42:
  89:src/kernel/testing/drugi/os2Main.cpp **** }
 385              		.loc 1 89 1
 386 029c 83308106 		ld	ra,104(sp)
 387              		.cfi_restore 1
 388 02a0 03340106 		ld	s0,96(sp)
 389              		.cfi_restore 8
 390              		.cfi_def_cfa 2, 112
 391              	.LVL43:
 392 02a4 83348105 		ld	s1,88(sp)
 393              		.cfi_restore 9
 394 02a8 03390105 		ld	s2,80(sp)
 395              		.cfi_restore 18
 396              	.LVL44:
 397 02ac 83398104 		ld	s3,72(sp)
 398              		.cfi_restore 19
 399              	.LVL45:
 400 02b0 033A0104 		ld	s4,64(sp)
 401              		.cfi_restore 20
 402              	.LVL46:
 403 02b4 833A8103 		ld	s5,56(sp)
 404              		.cfi_restore 21
 405 02b8 033B0103 		ld	s6,48(sp)
 406              		.cfi_restore 22
 407 02bc 833B8102 		ld	s7,40(sp)
 408              		.cfi_restore 23
 409 02c0 13010107 		addi	sp,sp,112
 410              		.cfi_def_cfa_offset 0
 411              	.LVL47:
 412 02c4 67800000 		jr	ra
 413              		.cfi_endproc
 414              	.LFE116:
 416              		.align	2
 417              		.globl	_Z4runsPFvPvEP6data_si
 419              	_Z4runsPFvPvEP6data_si:
 420              	.LFB117:
  90:src/kernel/testing/drugi/os2Main.cpp **** 
  91:src/kernel/testing/drugi/os2Main.cpp **** 
  92:src/kernel/testing/drugi/os2Main.cpp **** 
  93:src/kernel/testing/drugi/os2Main.cpp **** void runs(void(*work)(void*), struct data_s* data, int num) {
 421              		.loc 1 93 61 is_stmt 1
 422              		.cfi_startproc
 423              	.LVL48:
 424 02c8 130101FB 		addi	sp,sp,-80
 425              		.cfi_def_cfa_offset 80
 426 02cc 23341104 		sd	ra,72(sp)
 427 02d0 23308104 		sd	s0,64(sp)
 428 02d4 233C9102 		sd	s1,56(sp)
 429 02d8 23382103 		sd	s2,48(sp)
 430 02dc 23343103 		sd	s3,40(sp)
 431 02e0 23304103 		sd	s4,32(sp)
 432              		.cfi_offset 1, -8
 433              		.cfi_offset 8, -16
 434              		.cfi_offset 9, -24
 435              		.cfi_offset 18, -32
GAS LISTING /tmp/ccCJAVJr.s 			page 11


 436              		.cfi_offset 19, -40
 437              		.cfi_offset 20, -48
 438 02e4 13040105 		addi	s0,sp,80
 439              		.cfi_def_cfa 8, 0
 440 02e8 130A0500 		mv	s4,a0
 441 02ec 13890500 		mv	s2,a1
 442 02f0 93090600 		mv	s3,a2
  94:src/kernel/testing/drugi/os2Main.cpp ****     for (int i = 0; i < num; i++) {
 443              		.loc 1 94 5
 444              	.LVL49:
 445              	.LBB7:
 446              		.loc 1 94 14 is_stmt 0
 447 02f4 93040000 		li	s1,0
 448              	.LVL50:
 449              	.L27:
 450              		.loc 1 94 23 discriminator 1
 451 02f8 63D83403 		bge	s1,s3,.L25
 452              	.LBB8:
  95:src/kernel/testing/drugi/os2Main.cpp ****         struct data_s private_data;
 453              		.loc 1 95 9 is_stmt 1
  96:src/kernel/testing/drugi/os2Main.cpp ****         private_data = *(struct data_s*) data;
 454              		.loc 1 96 9
 455              		.loc 1 96 22 is_stmt 0
 456 02fc 83370900 		ld	a5,0(s2)
 457 0300 233CF4FA 		sd	a5,-72(s0)
 458 0304 83378900 		ld	a5,8(s2)
 459 0308 2330F4FC 		sd	a5,-64(s0)
 460 030c 83370901 		ld	a5,16(s2)
 461 0310 2334F4FC 		sd	a5,-56(s0)
  97:src/kernel/testing/drugi/os2Main.cpp ****         private_data.id = i;
 462              		.loc 1 97 9 is_stmt 1
 463              		.loc 1 97 25 is_stmt 0
 464 0314 232C94FA 		sw	s1,-72(s0)
  98:src/kernel/testing/drugi/os2Main.cpp ****         work(&private_data);
 465              		.loc 1 98 9 is_stmt 1
 466              		.loc 1 98 13 is_stmt 0
 467 0318 130584FB 		addi	a0,s0,-72
 468 031c E7000A00 		jalr	s4
 469              	.LVL51:
 470              	.LBE8:
  94:src/kernel/testing/drugi/os2Main.cpp ****         struct data_s private_data;
 471              		.loc 1 94 5
 472 0320 9B841400 		addiw	s1,s1,1
 473              	.LVL52:
 474 0324 6FF05FFD 		j	.L27
 475              	.LVL53:
 476              	.L25:
 477              	.LBE7:
  99:src/kernel/testing/drugi/os2Main.cpp ****     }
 100:src/kernel/testing/drugi/os2Main.cpp **** }
 478              		.loc 1 100 1
 479 0328 83308104 		ld	ra,72(sp)
 480              		.cfi_restore 1
 481 032c 03340104 		ld	s0,64(sp)
 482              		.cfi_restore 8
 483              		.cfi_def_cfa 2, 80
 484 0330 83348103 		ld	s1,56(sp)
GAS LISTING /tmp/ccCJAVJr.s 			page 12


 485              		.cfi_restore 9
 486              	.LVL54:
 487 0334 03390103 		ld	s2,48(sp)
 488              		.cfi_restore 18
 489              	.LVL55:
 490 0338 83398102 		ld	s3,40(sp)
 491              		.cfi_restore 19
 492 033c 033A0102 		ld	s4,32(sp)
 493              		.cfi_restore 20
 494              	.LVL56:
 495 0340 13010105 		addi	sp,sp,80
 496              		.cfi_def_cfa_offset 0
 497 0344 67800000 		jr	ra
 498              		.cfi_endproc
 499              	.LFE117:
 501              		.align	2
 502              		.globl	kTestMain
 504              	kTestMain:
 505              	.LFB118:
 101:src/kernel/testing/drugi/os2Main.cpp **** 
 102:src/kernel/testing/drugi/os2Main.cpp **** extern "C" void kTestMain() {
 506              		.loc 1 102 29 is_stmt 1
 507              		.cfi_startproc
 508 0348 130101FC 		addi	sp,sp,-64
 509              		.cfi_def_cfa_offset 64
 510 034c 233C1102 		sd	ra,56(sp)
 511 0350 23388102 		sd	s0,48(sp)
 512 0354 23349102 		sd	s1,40(sp)
 513              		.cfi_offset 1, -8
 514              		.cfi_offset 8, -16
 515              		.cfi_offset 9, -24
 516 0358 13040104 		addi	s0,sp,64
 517              		.cfi_def_cfa 8, 0
 103:src/kernel/testing/drugi/os2Main.cpp **** 	kmem_cache_t *shared = kmem_cache_create("shared object", shared_size, construct, NULL);
 518              		.loc 1 103 2
 519              		.loc 1 103 42 is_stmt 0
 520 035c 93060000 		li	a3,0
 521 0360 17060000 		lla	a2,_Z9constructPv
 521      13060600 
 522 0368 93057000 		li	a1,7
 523 036c 17050000 		lla	a0,.LC2
 523      13050500 
 524 0374 97000000 		call	_Z17kmem_cache_createPKcmPFvPvES3_
 524      E7800000 
 525              	.LVL57:
 526 037c 93040500 		mv	s1,a0
 527              	.LVL58:
 104:src/kernel/testing/drugi/os2Main.cpp **** 
 105:src/kernel/testing/drugi/os2Main.cpp **** 	struct data_s data;
 528              		.loc 1 105 2 is_stmt 1
 106:src/kernel/testing/drugi/os2Main.cpp **** 	data.shared = shared;
 529              		.loc 1 106 2
 530              		.loc 1 106 14 is_stmt 0
 531 0380 2338A4FC 		sd	a0,-48(s0)
 107:src/kernel/testing/drugi/os2Main.cpp **** 	data.iterations = ITERATIONS;
 532              		.loc 1 107 2 is_stmt 1
 533              		.loc 1 107 18 is_stmt 0
GAS LISTING /tmp/ccCJAVJr.s 			page 13


 534 0384 9307803E 		li	a5,1000
 535 0388 232CF4FC 		sw	a5,-40(s0)
 108:src/kernel/testing/drugi/os2Main.cpp **** 	runs(work, &data, RUN_NUM);
 536              		.loc 1 108 2 is_stmt 1
 537              		.loc 1 108 6 is_stmt 0
 538 038c 13065000 		li	a2,5
 539 0390 930584FC 		addi	a1,s0,-56
 540 0394 17050000 		lla	a0,_Z4workPv
 540      13050500 
 541 039c 97000000 		call	_Z4runsPFvPvEP6data_si
 541      E7800000 
 542              	.LVL59:
 109:src/kernel/testing/drugi/os2Main.cpp **** 
 110:src/kernel/testing/drugi/os2Main.cpp **** 	kmem_cache_destroy(shared);
 543              		.loc 1 110 2 is_stmt 1
 544              		.loc 1 110 20 is_stmt 0
 545 03a4 13850400 		mv	a0,s1
 546 03a8 97000000 		call	_Z18kmem_cache_destroyP11ObjectCache
 546      E7800000 
 547              	.LVL60:
 111:src/kernel/testing/drugi/os2Main.cpp **** }
 548              		.loc 1 111 1
 549 03b0 83308103 		ld	ra,56(sp)
 550              		.cfi_restore 1
 551 03b4 03340103 		ld	s0,48(sp)
 552              		.cfi_restore 8
 553              		.cfi_def_cfa 2, 64
 554 03b8 83348102 		ld	s1,40(sp)
 555              		.cfi_restore 9
 556              	.LVL61:
 557 03bc 13010104 		addi	sp,sp,64
 558              		.cfi_def_cfa_offset 0
 559 03c0 67800000 		jr	ra
 560              		.cfi_endproc
 561              	.LFE118:
 563              		.section	.rodata
 564              		.align	3
 565              		.set	.LANCHOR0,. + 0
 568              	_ZL11CACHE_NAMES:
 569 0000 00000000 		.dword	.LC3
 569      00000000 
 570 0008 00000000 		.dword	.LC4
 570      00000000 
 571 0010 00000000 		.dword	.LC5
 571      00000000 
 572 0018 00000000 		.dword	.LC6
 572      00000000 
 573 0020 00000000 		.dword	.LC7
 573      00000000 
 574              		.section	.rodata.str1.8,"aMS",@progbits,1
 575              		.align	3
 576              	.LC0:
 577 0000 20536861 		.string	" Shared object constructed\n"
 577      72656420 
 577      6F626A65 
 577      63742063 
 577      6F6E7374 
GAS LISTING /tmp/ccCJAVJr.s 			page 14


 578 001c 00000000 		.zero	4
 579              	.LC1:
 580 0020 56616C75 		.string	"Value not correct!\n"
 580      65206E6F 
 580      7420636F 
 580      72726563 
 580      74210A00 
 581 0034 00000000 		.zero	4
 582              	.LC2:
 583 0038 73686172 		.string	"shared object"
 583      6564206F 
 583      626A6563 
 583      7400
 584 0046 0000     		.zero	2
 585              	.LC3:
 586 0048 74635F30 		.string	"tc_0"
 586      00
 587 004d 000000   		.zero	3
 588              	.LC4:
 589 0050 74635F31 		.string	"tc_1"
 589      00
 590 0055 000000   		.zero	3
 591              	.LC5:
 592 0058 74635F32 		.string	"tc_2"
 592      00
 593 005d 000000   		.zero	3
 594              	.LC6:
 595 0060 74635F33 		.string	"tc_3"
 595      00
 596 0065 000000   		.zero	3
 597              	.LC7:
 598 0068 74635F34 		.string	"tc_4"
 598      00
 599              		.section	.sdata,"aw"
 600              		.align	2
 603              	_ZZ9constructPvE1i:
 604 0000 01000000 		.word	1
 605              		.text
 606              	.Letext0:
 607              		.file 2 "src/kernel/testing/drugi/../../../../h/../h/../lib/hw.h"
 608              		.file 3 "src/kernel/testing/drugi/../../../../h/../h/../h/../h/list.h"
 609              		.file 4 "src/kernel/testing/drugi/../../../../h/../h/../h/object_cache.h"
 610              		.file 5 "src/kernel/testing/drugi/../../../../h/../h/slab_allocator.h"
 611              		.file 6 "src/kernel/testing/drugi/../../../../h/../h/slab.h"
 612              		.file 7 "src/kernel/testing/drugi/../../../../h/kernel_lib.h"
 613              		.file 8 "src/kernel/testing/drugi/../../../../h/../h/kernel_funs.h"
GAS LISTING /tmp/ccCJAVJr.s 			page 15

