GAS LISTING /tmp/cccZ5YIL.s 			page 1


   1              		.file	"pager.cpp"
   2              		.option nopic
   3              		.option norelax
   4              		.attribute arch, "rv64i2p0_m2p0_a2p0"
   5              		.attribute unaligned_access, 0
   6              		.attribute stack_align, 16
   7              		.text
   8              	.Ltext0:
   9              		.align	2
  10              		.globl	_ZN5PagerC2Ev
  12              	_ZN5PagerC2Ev:
  13              	.LFB114:
  14              		.file 1 "src/kernel/virtualization/pager.cpp"
   1:src/kernel/virtualization/pager.cpp **** #include"../../../h/kernel_lib.h"
   2:src/kernel/virtualization/pager.cpp **** 
   3:src/kernel/virtualization/pager.cpp **** Pager* Pager::p = nullptr;
   4:src/kernel/virtualization/pager.cpp **** 
   5:src/kernel/virtualization/pager.cpp **** Pager::Pager():pmt(nullptr){}
  15              		.loc 1 5 1
  16              		.cfi_startproc
  17              	.LVL0:
  18 0000 130101FF 		addi	sp,sp,-16
  19              		.cfi_def_cfa_offset 16
  20 0004 23348100 		sd	s0,8(sp)
  21              		.cfi_offset 8, -8
  22 0008 13040101 		addi	s0,sp,16
  23              		.cfi_def_cfa 8, 0
  24              	.LBB6:
  25              		.loc 1 5 27 is_stmt 0
  26 000c 23300500 		sd	zero,0(a0)
  27              	.LBE6:
  28              		.loc 1 5 29
  29 0010 03348100 		ld	s0,8(sp)
  30              		.cfi_restore 8
  31              		.cfi_def_cfa 2, 16
  32 0014 13010101 		addi	sp,sp,16
  33              		.cfi_def_cfa_offset 0
  34 0018 67800000 		jr	ra
  35              		.cfi_endproc
  36              	.LFE114:
  38              		.globl	_ZN5PagerC1Ev
  39              		.set	_ZN5PagerC1Ev,_ZN5PagerC2Ev
  40              		.align	2
  41              		.globl	_ZN5Pager11getInstanceEv
  43              	_ZN5Pager11getInstanceEv:
  44              	.LFB116:
   6:src/kernel/virtualization/pager.cpp **** 
   7:src/kernel/virtualization/pager.cpp **** Pager& Pager::getInstance(){
  45              		.loc 1 7 28 is_stmt 1
  46              		.cfi_startproc
   8:src/kernel/virtualization/pager.cpp ****     if(!p) p = new Pager();
  47              		.loc 1 8 5
  48              		.loc 1 8 8 is_stmt 0
  49 001c 97070000 		lla	a5,_ZN5Pager1pE
  49      93870700 
  50 0024 83B70700 		ld	a5,0(a5)
  51              		.loc 1 8 5
GAS LISTING /tmp/cccZ5YIL.s 			page 2


  52 0028 638A0700 		beq	a5,zero,.L9
   9:src/kernel/virtualization/pager.cpp ****     
  10:src/kernel/virtualization/pager.cpp ****     return *p;
  53              		.loc 1 10 5 is_stmt 1
  11:src/kernel/virtualization/pager.cpp **** }
  54              		.loc 1 11 1 is_stmt 0
  55 002c 97070000 		lla	a5,_ZN5Pager1pE
  55      93870700 
  56 0034 03B50700 		ld	a0,0(a5)
  57 0038 67800000 		ret
  58              	.L9:
   7:src/kernel/virtualization/pager.cpp ****     if(!p) p = new Pager();
  59              		.loc 1 7 28
  60 003c 130101FE 		addi	sp,sp,-32
  61              		.cfi_def_cfa_offset 32
  62 0040 233C1100 		sd	ra,24(sp)
  63 0044 23388100 		sd	s0,16(sp)
  64 0048 23349100 		sd	s1,8(sp)
  65              		.cfi_offset 1, -8
  66              		.cfi_offset 8, -16
  67              		.cfi_offset 9, -24
  68 004c 13040102 		addi	s0,sp,32
  69              		.cfi_def_cfa 8, 0
   8:src/kernel/virtualization/pager.cpp ****     
  70              		.loc 1 8 12 is_stmt 1
  71              	.LVL1:
  72              	.LBB7:
  73              	.LBB8:
  74              		.file 2 "src/kernel/virtualization/../../../h/../h/pager.h"
   1:src/kernel/virtualization/../../../h/../h/pager.h **** #ifndef PAGER_H
   2:src/kernel/virtualization/../../../h/../h/pager.h **** #define PAGER_H
   3:src/kernel/virtualization/../../../h/../h/pager.h **** #include"../h/pmt.h"
   4:src/kernel/virtualization/../../../h/../h/pager.h **** #include "noalloc_allocator.hpp"
   5:src/kernel/virtualization/../../../h/../h/pager.h **** 
   6:src/kernel/virtualization/../../../h/../h/pager.h **** class Pager{
   7:src/kernel/virtualization/../../../h/../h/pager.h ****     
   8:src/kernel/virtualization/../../../h/../h/pager.h ****     static Pager* p;
   9:src/kernel/virtualization/../../../h/../h/pager.h ****     PMT* pmt;
  10:src/kernel/virtualization/../../../h/../h/pager.h ****     Pager();
  11:src/kernel/virtualization/../../../h/../h/pager.h **** 
  12:src/kernel/virtualization/../../../h/../h/pager.h ****     __NOALLOC_OPERATORS__
  75              		.loc 2 12 5
  76 0050 13058000 		li	a0,8
  77 0054 97000000 		call	_ZN7NoAlloc9mem_allocEm
  77      E7800000 
  78              	.LVL2:
  79 005c 93040500 		mv	s1,a0
  80              	.LVL3:
  81              	.LBE8:
  82              	.LBE7:
  83 0060 97000000 		call	_ZN5PagerC1Ev
  83      E7800000 
  84              	.LVL4:
   8:src/kernel/virtualization/pager.cpp ****     
  85              		.loc 1 8 14 is_stmt 0
  86 0068 97070000 		sd	s1,_ZN5Pager1pE,a5
  86      23B09700 
GAS LISTING /tmp/cccZ5YIL.s 			page 3


  10:src/kernel/virtualization/pager.cpp **** }
  87              		.loc 1 10 5 is_stmt 1
  88              		.loc 1 11 1 is_stmt 0
  89 0070 97070000 		lla	a5,_ZN5Pager1pE
  89      93870700 
  90 0078 03B50700 		ld	a0,0(a5)
  91 007c 83308101 		ld	ra,24(sp)
  92              		.cfi_restore 1
  93 0080 03340101 		ld	s0,16(sp)
  94              		.cfi_restore 8
  95              		.cfi_def_cfa 2, 32
  96 0084 83348100 		ld	s1,8(sp)
  97              		.cfi_restore 9
  98 0088 13010102 		addi	sp,sp,32
  99              		.cfi_def_cfa_offset 0
 100 008c 67800000 		jr	ra
 101              		.cfi_endproc
 102              	.LFE116:
 104              		.align	2
 105              		.globl	_ZN5Pager3mapEPvS0_12PMTEntryBits
 107              	_ZN5Pager3mapEPvS0_12PMTEntryBits:
 108              	.LFB117:
  12:src/kernel/virtualization/pager.cpp **** 
  13:src/kernel/virtualization/pager.cpp **** int Pager::map(void *va, void *pa, PMTEntryBits flag){
 109              		.loc 1 13 54 is_stmt 1
 110              		.cfi_startproc
 111              	.LVL5:
 112 0090 130101FC 		addi	sp,sp,-64
 113              		.cfi_def_cfa_offset 64
 114 0094 233C1102 		sd	ra,56(sp)
 115 0098 23388102 		sd	s0,48(sp)
 116 009c 23349102 		sd	s1,40(sp)
 117 00a0 23302103 		sd	s2,32(sp)
 118 00a4 233C3101 		sd	s3,24(sp)
 119 00a8 23384101 		sd	s4,16(sp)
 120 00ac 23345101 		sd	s5,8(sp)
 121              		.cfi_offset 1, -8
 122              		.cfi_offset 8, -16
 123              		.cfi_offset 9, -24
 124              		.cfi_offset 18, -32
 125              		.cfi_offset 19, -40
 126              		.cfi_offset 20, -48
 127              		.cfi_offset 21, -56
 128 00b0 13040104 		addi	s0,sp,64
 129              		.cfi_def_cfa 8, 0
 130 00b4 93040500 		mv	s1,a0
 131 00b8 93890500 		mv	s3,a1
 132 00bc 130A0600 		mv	s4,a2
 133 00c0 938A0600 		mv	s5,a3
  14:src/kernel/virtualization/pager.cpp ****    
  15:src/kernel/virtualization/pager.cpp ****     if(!pmt)
 134              		.loc 1 15 5
 135              		.loc 1 15 9 is_stmt 0
 136 00c4 83370500 		ld	a5,0(a0)
 137              		.loc 1 15 5
 138 00c8 63820702 		beq	a5,zero,.L16
 139              	.LVL6:
GAS LISTING /tmp/cccZ5YIL.s 			page 4


 140              	.L11:
  16:src/kernel/virtualization/pager.cpp ****         pmt = PMT::allocate_pmt();
  17:src/kernel/virtualization/pager.cpp ****     
  18:src/kernel/virtualization/pager.cpp ****     PMT* curr = pmt;
 141              		.loc 1 18 5 is_stmt 1
  19:src/kernel/virtualization/pager.cpp ****     PMTEntry* pmte = curr->get_entry(2, va);
 142              		.loc 1 19 5
 143              		.loc 1 19 37 is_stmt 0
 144 00cc 13860900 		mv	a2,s3
 145 00d0 93052000 		li	a1,2
 146 00d4 03B50400 		ld	a0,0(s1)
 147 00d8 97000000 		call	_ZN3PMT9get_entryEhPv
 147      E7800000 
 148              	.LVL7:
 149 00e0 93040500 		mv	s1,a0
 150              	.LVL8:
  20:src/kernel/virtualization/pager.cpp ****     
  21:src/kernel/virtualization/pager.cpp ****     for(int i = 2; i > 0; i--){
 151              		.loc 1 21 5 is_stmt 1
 152              	.LBB9:
 153              		.loc 1 21 13 is_stmt 0
 154 00e4 13092000 		li	s2,2
 155 00e8 6F004006 		j	.L14
 156              	.LVL9:
 157              	.L16:
 158              	.LBE9:
  16:src/kernel/virtualization/pager.cpp ****     
 159              		.loc 1 16 9 is_stmt 1
  16:src/kernel/virtualization/pager.cpp ****     
 160              		.loc 1 16 32 is_stmt 0
 161 00ec 97000000 		call	_ZN3PMT12allocate_pmtEv
 161      E7800000 
 162              	.LVL10:
  16:src/kernel/virtualization/pager.cpp ****     
 163              		.loc 1 16 13
 164 00f4 23B0A400 		sd	a0,0(s1)
 165 00f8 6FF05FFD 		j	.L11
 166              	.LVL11:
 167              	.L17:
 168              	.LBB10:
  22:src/kernel/virtualization/pager.cpp ****        
  23:src/kernel/virtualization/pager.cpp ****         if(!(pmte->chk_flags(PMTEntryBits::valid))){
  24:src/kernel/virtualization/pager.cpp ****             pmte->set_flags(PMTEntryBits::valid);
 169              		.loc 1 24 13 is_stmt 1
 170              		.loc 1 24 28 is_stmt 0
 171 00fc 93051000 		li	a1,1
 172 0100 13850400 		mv	a0,s1
 173 0104 97000000 		call	_ZN8PMTEntry9set_flagsE12PMTEntryBits
 173      E7800000 
 174              	.LVL12:
  25:src/kernel/virtualization/pager.cpp ****             pmte->set_pa(PMT::allocate_pmt());
 175              		.loc 1 25 13 is_stmt 1
 176              		.loc 1 25 43 is_stmt 0
 177 010c 97000000 		call	_ZN3PMT12allocate_pmtEv
 177      E7800000 
 178              	.LVL13:
 179              		.loc 1 25 25
GAS LISTING /tmp/cccZ5YIL.s 			page 5


 180 0114 93050500 		mv	a1,a0
 181 0118 13850400 		mv	a0,s1
 182 011c 97000000 		call	_ZN8PMTEntry6set_paEPv
 182      E7800000 
 183              	.LVL14:
 184              	.L13:
  26:src/kernel/virtualization/pager.cpp ****         }
  27:src/kernel/virtualization/pager.cpp ****        
  28:src/kernel/virtualization/pager.cpp ****         curr = (PMT*)pmte->get_pa();
 185              		.loc 1 28 9 is_stmt 1 discriminator 2
 186              		.loc 1 28 34 is_stmt 0 discriminator 2
 187 0124 13850400 		mv	a0,s1
 188 0128 97000000 		call	_ZN8PMTEntry6get_paEv
 188      E7800000 
 189              	.LVL15:
  29:src/kernel/virtualization/pager.cpp ****         
  30:src/kernel/virtualization/pager.cpp ****         pmte = curr->get_entry(i-1, va);
 190              		.loc 1 30 9 is_stmt 1 discriminator 2
 191              		.loc 1 30 31 is_stmt 0 discriminator 2
 192 0130 9B05F9FF 		addiw	a1,s2,-1
 193 0134 13860900 		mv	a2,s3
 194 0138 93F5F50F 		andi	a1,a1,0xff
 195 013c 97000000 		call	_ZN3PMT9get_entryEhPv
 195      E7800000 
 196              	.LVL16:
 197 0144 93040500 		mv	s1,a0
 198              	.LVL17:
  21:src/kernel/virtualization/pager.cpp ****        
 199              		.loc 1 21 5 discriminator 2
 200 0148 1B09F9FF 		addiw	s2,s2,-1
 201              	.LVL18:
 202              	.L14:
  21:src/kernel/virtualization/pager.cpp ****        
 203              		.loc 1 21 22 discriminator 1
 204 014c 635E2001 		ble	s2,zero,.L12
  23:src/kernel/virtualization/pager.cpp ****             pmte->set_flags(PMTEntryBits::valid);
 205              		.loc 1 23 9 is_stmt 1
  23:src/kernel/virtualization/pager.cpp ****             pmte->set_flags(PMTEntryBits::valid);
 206              		.loc 1 23 29 is_stmt 0
 207 0150 93051000 		li	a1,1
 208 0154 13850400 		mv	a0,s1
 209 0158 97000000 		call	_ZN8PMTEntry9chk_flagsE12PMTEntryBits
 209      E7800000 
 210              	.LVL19:
  23:src/kernel/virtualization/pager.cpp ****             pmte->set_flags(PMTEntryBits::valid);
 211              		.loc 1 23 9
 212 0160 E31205FC 		bne	a0,zero,.L13
 213 0164 6FF09FF9 		j	.L17
 214              	.L12:
 215              	.LBE10:
  31:src/kernel/virtualization/pager.cpp ****     }
  32:src/kernel/virtualization/pager.cpp ****     
  33:src/kernel/virtualization/pager.cpp ****     pmte->set_flags((PMTEntryBits)(PMTEntryBits::valid | flag));
 216              		.loc 1 33 5 is_stmt 1
 217              		.loc 1 33 20 is_stmt 0
 218 0168 93E51A00 		ori	a1,s5,1
 219 016c 13850400 		mv	a0,s1
GAS LISTING /tmp/cccZ5YIL.s 			page 6


 220 0170 97000000 		call	_ZN8PMTEntry9set_flagsE12PMTEntryBits
 220      E7800000 
 221              	.LVL20:
  34:src/kernel/virtualization/pager.cpp ****     pmte->set_pa(pa);
 222              		.loc 1 34 5 is_stmt 1
 223              		.loc 1 34 17 is_stmt 0
 224 0178 93050A00 		mv	a1,s4
 225 017c 13850400 		mv	a0,s1
 226 0180 97000000 		call	_ZN8PMTEntry6set_paEPv
 226      E7800000 
 227              	.LVL21:
  35:src/kernel/virtualization/pager.cpp ****     
  36:src/kernel/virtualization/pager.cpp **** 
  37:src/kernel/virtualization/pager.cpp ****     return 0;
 228              		.loc 1 37 5 is_stmt 1
  38:src/kernel/virtualization/pager.cpp **** }
 229              		.loc 1 38 1 is_stmt 0
 230 0188 13050000 		li	a0,0
 231 018c 83308103 		ld	ra,56(sp)
 232              		.cfi_restore 1
 233 0190 03340103 		ld	s0,48(sp)
 234              		.cfi_restore 8
 235              		.cfi_def_cfa 2, 64
 236 0194 83348102 		ld	s1,40(sp)
 237              		.cfi_restore 9
 238              	.LVL22:
 239 0198 03390102 		ld	s2,32(sp)
 240              		.cfi_restore 18
 241              	.LVL23:
 242 019c 83398101 		ld	s3,24(sp)
 243              		.cfi_restore 19
 244              	.LVL24:
 245 01a0 033A0101 		ld	s4,16(sp)
 246              		.cfi_restore 20
 247              	.LVL25:
 248 01a4 833A8100 		ld	s5,8(sp)
 249              		.cfi_restore 21
 250              	.LVL26:
 251 01a8 13010104 		addi	sp,sp,64
 252              		.cfi_def_cfa_offset 0
 253 01ac 67800000 		jr	ra
 254              		.cfi_endproc
 255              	.LFE117:
 257              		.align	2
 258              		.globl	_ZN5Pager6id_mapEPvS0_12PMTEntryBits
 260              	_ZN5Pager6id_mapEPvS0_12PMTEntryBits:
 261              	.LFB118:
  39:src/kernel/virtualization/pager.cpp **** 
  40:src/kernel/virtualization/pager.cpp **** int Pager::id_map(void* start, void* end, PMTEntryBits flag){
 262              		.loc 1 40 61 is_stmt 1
 263              		.cfi_startproc
 264              	.LVL27:
 265 01b0 130101FD 		addi	sp,sp,-48
 266              		.cfi_def_cfa_offset 48
 267 01b4 23341102 		sd	ra,40(sp)
 268 01b8 23308102 		sd	s0,32(sp)
 269 01bc 233C9100 		sd	s1,24(sp)
GAS LISTING /tmp/cccZ5YIL.s 			page 7


 270 01c0 23382101 		sd	s2,16(sp)
 271 01c4 23343101 		sd	s3,8(sp)
 272 01c8 23304101 		sd	s4,0(sp)
 273              		.cfi_offset 1, -8
 274              		.cfi_offset 8, -16
 275              		.cfi_offset 9, -24
 276              		.cfi_offset 18, -32
 277              		.cfi_offset 19, -40
 278              		.cfi_offset 20, -48
 279 01cc 13040103 		addi	s0,sp,48
 280              		.cfi_def_cfa 8, 0
 281 01d0 130A0500 		mv	s4,a0
 282 01d4 93890600 		mv	s3,a3
  41:src/kernel/virtualization/pager.cpp ****     uint64 ustart = (uint64) start, uend = (uint64) end;
 283              		.loc 1 41 5
 284              	.LVL28:
 285              		.loc 1 41 37 is_stmt 0
 286 01d8 13090600 		mv	s2,a2
 287              	.LVL29:
  42:src/kernel/virtualization/pager.cpp ****     ustart = ustart & ~(0xfff);
 288              		.loc 1 42 5 is_stmt 1
 289              		.loc 1 42 12 is_stmt 0
 290 01dc B7F4FFFF 		li	s1,-4096
 291 01e0 B3F49500 		and	s1,a1,s1
 292              	.LVL30:
  43:src/kernel/virtualization/pager.cpp ****     uint64 tmp = ustart;
 293              		.loc 1 43 5 is_stmt 1
 294              	.L20:
  44:src/kernel/virtualization/pager.cpp **** 
  45:src/kernel/virtualization/pager.cpp ****     while(tmp < uend){
 295              		.loc 1 45 5
 296              		.loc 1 45 15 is_stmt 0
 297 01e4 63F42403 		bgeu	s1,s2,.L19
  46:src/kernel/virtualization/pager.cpp ****         map((void*)tmp, (void*)tmp, flag);
 298              		.loc 1 46 9 is_stmt 1
 299              		.loc 1 46 12 is_stmt 0
 300 01e8 93860900 		mv	a3,s3
 301 01ec 13860400 		mv	a2,s1
 302 01f0 93850400 		mv	a1,s1
 303 01f4 13050A00 		mv	a0,s4
 304 01f8 97000000 		call	_ZN5Pager3mapEPvS0_12PMTEntryBits
 304      E7800000 
 305              	.LVL31:
  47:src/kernel/virtualization/pager.cpp ****         tmp += PMT::PAGE_SIZE;    
 306              		.loc 1 47 9 is_stmt 1
 307              		.loc 1 47 13 is_stmt 0
 308 0200 B7170000 		li	a5,4096
 309 0204 B384F400 		add	s1,s1,a5
 310              	.LVL32:
  45:src/kernel/virtualization/pager.cpp ****         map((void*)tmp, (void*)tmp, flag);
 311              		.loc 1 45 5
 312 0208 6FF0DFFD 		j	.L20
 313              	.L19:
  48:src/kernel/virtualization/pager.cpp ****     }
  49:src/kernel/virtualization/pager.cpp **** 
  50:src/kernel/virtualization/pager.cpp ****     return 0;
 314              		.loc 1 50 5 is_stmt 1
GAS LISTING /tmp/cccZ5YIL.s 			page 8


  51:src/kernel/virtualization/pager.cpp **** }
 315              		.loc 1 51 1 is_stmt 0
 316 020c 13050000 		li	a0,0
 317 0210 83308102 		ld	ra,40(sp)
 318              		.cfi_restore 1
 319 0214 03340102 		ld	s0,32(sp)
 320              		.cfi_restore 8
 321              		.cfi_def_cfa 2, 48
 322 0218 83348101 		ld	s1,24(sp)
 323              		.cfi_restore 9
 324              	.LVL33:
 325 021c 03390101 		ld	s2,16(sp)
 326              		.cfi_restore 18
 327              	.LVL34:
 328 0220 83398100 		ld	s3,8(sp)
 329              		.cfi_restore 19
 330              	.LVL35:
 331 0224 033A0100 		ld	s4,0(sp)
 332              		.cfi_restore 20
 333              	.LVL36:
 334 0228 13010103 		addi	sp,sp,48
 335              		.cfi_def_cfa_offset 0
 336 022c 67800000 		jr	ra
 337              		.cfi_endproc
 338              	.LFE118:
 340              		.align	2
 341              		.globl	_ZN5Pager10map_kernelEv
 343              	_ZN5Pager10map_kernelEv:
 344              	.LFB119:
  52:src/kernel/virtualization/pager.cpp **** 
  53:src/kernel/virtualization/pager.cpp **** int Pager::map_kernel(){
 345              		.loc 1 53 24 is_stmt 1
 346              		.cfi_startproc
 347              	.LVL37:
 348 0230 130101FE 		addi	sp,sp,-32
 349              		.cfi_def_cfa_offset 32
 350 0234 233C1100 		sd	ra,24(sp)
 351 0238 23388100 		sd	s0,16(sp)
 352 023c 23349100 		sd	s1,8(sp)
 353              		.cfi_offset 1, -8
 354              		.cfi_offset 8, -16
 355              		.cfi_offset 9, -24
 356 0240 13040102 		addi	s0,sp,32
 357              		.cfi_def_cfa 8, 0
 358 0244 93040500 		mv	s1,a0
  54:src/kernel/virtualization/pager.cpp ****     //uint64 laa = (uint64)NoAlloc::getEndAddress();
  55:src/kernel/virtualization/pager.cpp ****     uint64 laa = (uint64)HEAP_END_ADDR;
 359              		.loc 1 55 5
 360              	.LVL38:
  56:src/kernel/virtualization/pager.cpp ****     uint64 fa = KERNEL_TEXT_START;
 361              		.loc 1 56 5
  57:src/kernel/virtualization/pager.cpp ****     
  58:src/kernel/virtualization/pager.cpp ****     //map_ram
  59:src/kernel/virtualization/pager.cpp ****     id_map((void*)fa, (void*)laa, (PMTEntryBits)
 362              		.loc 1 59 5
 363              		.loc 1 59 11 is_stmt 0
 364 0248 9306E000 		li	a3,14
GAS LISTING /tmp/cccZ5YIL.s 			page 9


 365 024c 97070000 		lla	a5,HEAP_END_ADDR
 365      93870700 
 366              	.LVL39:
 367 0254 03B60700 		ld	a2,0(a5)
 368 0258 97070000 		lla	a5,KERNEL_TEXT_START
 368      93870700 
 369              	.LVL40:
 370 0260 83B50700 		ld	a1,0(a5)
 371 0264 97000000 		call	_ZN5Pager6id_mapEPvS0_12PMTEntryBits
 371      E7800000 
 372              	.LVL41:
  60:src/kernel/virtualization/pager.cpp ****             (PMTEntryBits::write | PMTEntryBits::read | PMTEntryBits::execute ));
  61:src/kernel/virtualization/pager.cpp **** 
  62:src/kernel/virtualization/pager.cpp ****     // UART
  63:src/kernel/virtualization/pager.cpp **** 	id_map((void*)0x10000000,
 373              		.loc 1 63 2 is_stmt 1
 374              		.loc 1 63 8 is_stmt 0
 375 026c 93066000 		li	a3,6
 376 0270 37060010 		li	a2,268435456
 377 0274 13060610 		addi	a2,a2,256
 378 0278 B7050010 		li	a1,268435456
 379 027c 13850400 		mv	a0,s1
 380 0280 97000000 		call	_ZN5Pager6id_mapEPvS0_12PMTEntryBits
 380      E7800000 
 381              	.LVL42:
  64:src/kernel/virtualization/pager.cpp **** 	        (void*)0x10000100,
  65:src/kernel/virtualization/pager.cpp **** 	        (PMTEntryBits)
  66:src/kernel/virtualization/pager.cpp ****             (PMTEntryBits::write | PMTEntryBits::read )
  67:src/kernel/virtualization/pager.cpp **** 	);
  68:src/kernel/virtualization/pager.cpp **** 
  69:src/kernel/virtualization/pager.cpp **** 	// CLINT
  70:src/kernel/virtualization/pager.cpp **** 	// id_map(
  71:src/kernel/virtualization/pager.cpp **** 	//             (void*)0x02000000,
  72:src/kernel/virtualization/pager.cpp **** 	//             (void*)0x0200ffff,
  73:src/kernel/virtualization/pager.cpp **** 	//             (PMTEntryBits)
  74:src/kernel/virtualization/pager.cpp ****     //             (PMTEntryBits::write | PMTEntryBits::read)
  75:src/kernel/virtualization/pager.cpp **** 	// );
  76:src/kernel/virtualization/pager.cpp **** 	// PLIC
  77:src/kernel/virtualization/pager.cpp **** 	id_map(
 382              		.loc 1 77 2 is_stmt 1
 383              		.loc 1 77 8 is_stmt 0
 384 0288 93066000 		li	a3,6
 385 028c 3726000C 		li	a2,201334784
 386 0290 13061600 		addi	a2,a2,1
 387 0294 B705000C 		li	a1,201326592
 388 0298 13850400 		mv	a0,s1
 389 029c 97000000 		call	_ZN5Pager6id_mapEPvS0_12PMTEntryBits
 389      E7800000 
 390              	.LVL43:
  78:src/kernel/virtualization/pager.cpp **** 	            (void*)0x0c000000,
  79:src/kernel/virtualization/pager.cpp **** 	            (void*)0x0c002001,
  80:src/kernel/virtualization/pager.cpp **** 	            (PMTEntryBits)
  81:src/kernel/virtualization/pager.cpp ****                 (PMTEntryBits::write | PMTEntryBits::read )
  82:src/kernel/virtualization/pager.cpp **** 	);
  83:src/kernel/virtualization/pager.cpp **** 	id_map(
 391              		.loc 1 83 2 is_stmt 1
 392              		.loc 1 83 8 is_stmt 0
GAS LISTING /tmp/cccZ5YIL.s 			page 10


 393 02a4 93066000 		li	a3,6
 394 02a8 3786200C 		li	a2,203456512
 395 02ac 13061600 		addi	a2,a2,1
 396 02b0 B705200C 		li	a1,203423744
 397 02b4 13850400 		mv	a0,s1
 398 02b8 97000000 		call	_ZN5Pager6id_mapEPvS0_12PMTEntryBits
 398      E7800000 
 399              	.LVL44:
  84:src/kernel/virtualization/pager.cpp **** 	            (void*)0x0c200000,
  85:src/kernel/virtualization/pager.cpp **** 	            (void*)0x0c208001,
  86:src/kernel/virtualization/pager.cpp **** 	            (PMTEntryBits)
  87:src/kernel/virtualization/pager.cpp ****                 (PMTEntryBits::write | PMTEntryBits::read )
  88:src/kernel/virtualization/pager.cpp **** 	);
  89:src/kernel/virtualization/pager.cpp **** 
  90:src/kernel/virtualization/pager.cpp **** 
  91:src/kernel/virtualization/pager.cpp ****     return 0;        
 400              		.loc 1 91 5 is_stmt 1
  92:src/kernel/virtualization/pager.cpp **** }
 401              		.loc 1 92 1 is_stmt 0
 402 02c0 13050000 		li	a0,0
 403 02c4 83308101 		ld	ra,24(sp)
 404              		.cfi_restore 1
 405 02c8 03340101 		ld	s0,16(sp)
 406              		.cfi_restore 8
 407              		.cfi_def_cfa 2, 32
 408 02cc 83348100 		ld	s1,8(sp)
 409              		.cfi_restore 9
 410              	.LVL45:
 411 02d0 13010102 		addi	sp,sp,32
 412              		.cfi_def_cfa_offset 0
 413 02d4 67800000 		jr	ra
 414              		.cfi_endproc
 415              	.LFE119:
 417              		.align	2
 418              		.globl	_ZN5Pager8map_userEv
 420              	_ZN5Pager8map_userEv:
 421              	.LFB120:
  93:src/kernel/virtualization/pager.cpp **** 
  94:src/kernel/virtualization/pager.cpp **** int Pager::map_user(){
 422              		.loc 1 94 22 is_stmt 1
 423              		.cfi_startproc
 424              	.LVL46:
 425 02d8 130101FE 		addi	sp,sp,-32
 426              		.cfi_def_cfa_offset 32
 427 02dc 233C1100 		sd	ra,24(sp)
 428 02e0 23388100 		sd	s0,16(sp)
 429 02e4 23349100 		sd	s1,8(sp)
 430              		.cfi_offset 1, -8
 431              		.cfi_offset 8, -16
 432              		.cfi_offset 9, -24
 433 02e8 13040102 		addi	s0,sp,32
 434              		.cfi_def_cfa 8, 0
 435 02ec 93040500 		mv	s1,a0
  95:src/kernel/virtualization/pager.cpp ****     id_map(
 436              		.loc 1 95 5
 437              		.loc 1 95 11 is_stmt 0
 438 02f0 9306A001 		li	a3,26
GAS LISTING /tmp/cccZ5YIL.s 			page 11


 439 02f4 97070000 		lla	a5,USER_TEXT_END
 439      93870700 
 440 02fc 03B60700 		ld	a2,0(a5)
 441 0300 97070000 		lla	a5,USER_TEXT_START
 441      93870700 
 442 0308 83B50700 		ld	a1,0(a5)
 443 030c 97000000 		call	_ZN5Pager6id_mapEPvS0_12PMTEntryBits
 443      E7800000 
 444              	.LVL47:
  96:src/kernel/virtualization/pager.cpp ****                 (void*)USER_TEXT_START,
  97:src/kernel/virtualization/pager.cpp ****                 (void*)USER_TEXT_END,
  98:src/kernel/virtualization/pager.cpp ****                 (PMTEntryBits) (PMTEntryBits::read | PMTEntryBits::execute | PMTEntryBits::user)
  99:src/kernel/virtualization/pager.cpp ****     );
 100:src/kernel/virtualization/pager.cpp **** 
 101:src/kernel/virtualization/pager.cpp ****     id_map(
 445              		.loc 1 101 5 is_stmt 1
 446              		.loc 1 101 11 is_stmt 0
 447 0314 93066001 		li	a3,22
 448 0318 97070000 		lla	a5,USER_BSS_END
 448      93870700 
 449 0320 03B60700 		ld	a2,0(a5)
 450 0324 97070000 		lla	a5,USER_BSS_START
 450      93870700 
 451 032c 83B50700 		ld	a1,0(a5)
 452 0330 13850400 		mv	a0,s1
 453 0334 97000000 		call	_ZN5Pager6id_mapEPvS0_12PMTEntryBits
 453      E7800000 
 454              	.LVL48:
 102:src/kernel/virtualization/pager.cpp ****                 (void*)USER_BSS_START,
 103:src/kernel/virtualization/pager.cpp ****                 (void*)USER_BSS_END,
 104:src/kernel/virtualization/pager.cpp ****                 (PMTEntryBits) (PMTEntryBits::read | PMTEntryBits::write | PMTEntryBits::user)
 105:src/kernel/virtualization/pager.cpp ****     );
 106:src/kernel/virtualization/pager.cpp **** 
 107:src/kernel/virtualization/pager.cpp ****     id_map(
 455              		.loc 1 107 5 is_stmt 1
 456              		.loc 1 107 11 is_stmt 0
 457 033c 93066001 		li	a3,22
 458 0340 97070000 		lla	a5,USER_DATA_END
 458      93870700 
 459 0348 03B60700 		ld	a2,0(a5)
 460 034c 97070000 		lla	a5,USER_DATA_START
 460      93870700 
 461 0354 83B50700 		ld	a1,0(a5)
 462 0358 13850400 		mv	a0,s1
 463 035c 97000000 		call	_ZN5Pager6id_mapEPvS0_12PMTEntryBits
 463      E7800000 
 464              	.LVL49:
 108:src/kernel/virtualization/pager.cpp ****                 (void*)USER_DATA_START,
 109:src/kernel/virtualization/pager.cpp ****                 (void*)USER_DATA_END,
 110:src/kernel/virtualization/pager.cpp ****                 (PMTEntryBits) (PMTEntryBits::read | PMTEntryBits::write | PMTEntryBits::user)
 111:src/kernel/virtualization/pager.cpp ****     );
 112:src/kernel/virtualization/pager.cpp **** 
 113:src/kernel/virtualization/pager.cpp ****     id_map(
 465              		.loc 1 113 5 is_stmt 1
 466              		.loc 1 113 11 is_stmt 0
 467 0364 93062001 		li	a3,18
 468 0368 97070000 		lla	a5,USER_RODATA_END
GAS LISTING /tmp/cccZ5YIL.s 			page 12


 468      93870700 
 469 0370 03B60700 		ld	a2,0(a5)
 470 0374 97070000 		lla	a5,USER_RODATA_START
 470      93870700 
 471 037c 83B50700 		ld	a1,0(a5)
 472 0380 13850400 		mv	a0,s1
 473 0384 97000000 		call	_ZN5Pager6id_mapEPvS0_12PMTEntryBits
 473      E7800000 
 474              	.LVL50:
 114:src/kernel/virtualization/pager.cpp ****                 (void*)USER_RODATA_START,
 115:src/kernel/virtualization/pager.cpp ****                 (void*)USER_RODATA_END,
 116:src/kernel/virtualization/pager.cpp ****                 (PMTEntryBits) (PMTEntryBits::read | PMTEntryBits::user)
 117:src/kernel/virtualization/pager.cpp ****     );
 118:src/kernel/virtualization/pager.cpp ****     return 0;
 475              		.loc 1 118 5 is_stmt 1
 119:src/kernel/virtualization/pager.cpp **** }
 476              		.loc 1 119 1 is_stmt 0
 477 038c 13050000 		li	a0,0
 478 0390 83308101 		ld	ra,24(sp)
 479              		.cfi_restore 1
 480 0394 03340101 		ld	s0,16(sp)
 481              		.cfi_restore 8
 482              		.cfi_def_cfa 2, 32
 483 0398 83348100 		ld	s1,8(sp)
 484              		.cfi_restore 9
 485              	.LVL51:
 486 039c 13010102 		addi	sp,sp,32
 487              		.cfi_def_cfa_offset 0
 488 03a0 67800000 		jr	ra
 489              		.cfi_endproc
 490              	.LFE120:
 492              		.align	2
 493              		.globl	_ZN5Pager12start_pagingEv
 495              	_ZN5Pager12start_pagingEv:
 496              	.LFB121:
 120:src/kernel/virtualization/pager.cpp **** 
 121:src/kernel/virtualization/pager.cpp **** int Pager::start_paging(){
 497              		.loc 1 121 26 is_stmt 1
 498              		.cfi_startproc
 499              	.LVL52:
 500 03a4 130101FF 		addi	sp,sp,-16
 501              		.cfi_def_cfa_offset 16
 502 03a8 23348100 		sd	s0,8(sp)
 503              		.cfi_offset 8, -8
 504 03ac 13040101 		addi	s0,sp,16
 505              		.cfi_def_cfa 8, 0
 122:src/kernel/virtualization/pager.cpp ****     if(!pmt)
 506              		.loc 1 122 5
 507              		.loc 1 122 9 is_stmt 0
 508 03b0 83370500 		ld	a5,0(a0)
 509              		.loc 1 122 5
 510 03b4 63880702 		beq	a5,zero,.L28
 123:src/kernel/virtualization/pager.cpp ****         return 1;
 124:src/kernel/virtualization/pager.cpp ****     //Riscv::ms_sstatus(Riscv::BitMaskSstatus::SSTATUS_SUM);
 125:src/kernel/virtualization/pager.cpp ****     uint64 satp = (8ULL << 60) | ( (uint64)pmt >> 12);
 511              		.loc 1 125 5 is_stmt 1
 512              		.loc 1 125 48 is_stmt 0
GAS LISTING /tmp/cccZ5YIL.s 			page 13


 513 03b8 93D7C700 		srli	a5,a5,12
 514              		.loc 1 125 12
 515 03bc 1307F0FF 		li	a4,-1
 516 03c0 1317F703 		slli	a4,a4,63
 517 03c4 B3E7E700 		or	a5,a5,a4
 518              	.LVL53:
 126:src/kernel/virtualization/pager.cpp ****     NoAlloc::turn_off();
 519              		.loc 1 126 5 is_stmt 1
 520              	.LBB11:
 521              	.LBB12:
 522              		.file 3 "src/kernel/virtualization/../../../h/../h/noalloc_allocator.hpp"
   1:src/kernel/virtualization/../../../h/../h/noalloc_allocator.hpp **** #ifndef NOALLOC_ALLOCATOR_H
   2:src/kernel/virtualization/../../../h/../h/noalloc_allocator.hpp **** #define NOALLOC_ALLOCATOR_H
   3:src/kernel/virtualization/../../../h/../h/noalloc_allocator.hpp **** 
   4:src/kernel/virtualization/../../../h/../h/noalloc_allocator.hpp **** #include"../lib/hw.h"
   5:src/kernel/virtualization/../../../h/../h/noalloc_allocator.hpp **** 
   6:src/kernel/virtualization/../../../h/../h/noalloc_allocator.hpp **** /* CHECK THIS !!!!!
   7:src/kernel/virtualization/../../../h/../h/noalloc_allocator.hpp **** *
   8:src/kernel/virtualization/../../../h/../h/noalloc_allocator.hpp **** * No existing allocator operator functions;
   9:src/kernel/virtualization/../../../h/../h/noalloc_allocator.hpp **** * Used for allocating allocator objects;
  10:src/kernel/virtualization/../../../h/../h/noalloc_allocator.hpp **** * Allocators are not deallocated so operator delete is not needed;
  11:src/kernel/virtualization/../../../h/../h/noalloc_allocator.hpp **** *
  12:src/kernel/virtualization/../../../h/../h/noalloc_allocator.hpp **** */
  13:src/kernel/virtualization/../../../h/../h/noalloc_allocator.hpp **** #define __NOALLOC_OPERATORS__ \
  14:src/kernel/virtualization/../../../h/../h/noalloc_allocator.hpp **** void* operator new(size_t sz){ return NoAlloc::mem_alloc(sz); } \
  15:src/kernel/virtualization/../../../h/../h/noalloc_allocator.hpp **** void* operator new[](size_t sz){ return NoAlloc::mem_alloc(sz); } \
  16:src/kernel/virtualization/../../../h/../h/noalloc_allocator.hpp **** void operator delete(void* ptr){  } \
  17:src/kernel/virtualization/../../../h/../h/noalloc_allocator.hpp **** void operator delete[](void* ptr){  }
  18:src/kernel/virtualization/../../../h/../h/noalloc_allocator.hpp **** 
  19:src/kernel/virtualization/../../../h/../h/noalloc_allocator.hpp **** 
  20:src/kernel/virtualization/../../../h/../h/noalloc_allocator.hpp **** /* 
  21:src/kernel/virtualization/../../../h/../h/noalloc_allocator.hpp **** * Continual allocation used when there is no allocator;
  22:src/kernel/virtualization/../../../h/../h/noalloc_allocator.hpp **** * -----USED FOR ALLOCATING ALLOCATOR OBJECTS-----
  23:src/kernel/virtualization/../../../h/../h/noalloc_allocator.hpp **** */
  24:src/kernel/virtualization/../../../h/../h/noalloc_allocator.hpp **** class NoAlloc{ /* singleton */ 
  25:src/kernel/virtualization/../../../h/../h/noalloc_allocator.hpp ****     static bool working;
  26:src/kernel/virtualization/../../../h/../h/noalloc_allocator.hpp ****     static void* NOALLOC_END_ADDR; 
  27:src/kernel/virtualization/../../../h/../h/noalloc_allocator.hpp **** public:
  28:src/kernel/virtualization/../../../h/../h/noalloc_allocator.hpp ****     static void init(); /* set NOALLOC END ADDR = HEAP START ADDR */
  29:src/kernel/virtualization/../../../h/../h/noalloc_allocator.hpp ****     static void* getEndAddress(){ return NOALLOC_END_ADDR; } /* get end address of allocated object
  30:src/kernel/virtualization/../../../h/../h/noalloc_allocator.hpp ****     static void* mem_alloc(size_t); /* allocate */
  31:src/kernel/virtualization/../../../h/../h/noalloc_allocator.hpp ****     static void turn_off() { working = false; }
 523              		.loc 3 31 30
 524              		.loc 3 31 38 is_stmt 0
 525 03c8 17070000 		sb	zero,_ZN7NoAlloc7workingE,a4
 525      23000700 
 526              	.LBE12:
 527              	.LBE11:
 127:src/kernel/virtualization/pager.cpp ****     asm volatile("csrw satp, %0" : : "r" (satp));
 528              		.loc 1 127 5 is_stmt 1
 529              		.loc 1 127 49 is_stmt 0
 530              	 #APP
 531              	# 127 "src/kernel/virtualization/pager.cpp" 1
 128              	    return 0;
 532              		csrw satp, a5
 533              	# 0 "" 2
 534              		.loc 1 128 5 is_stmt 1
GAS LISTING /tmp/cccZ5YIL.s 			page 14


 535              		.loc 1 128 12 is_stmt 0
 536              	 #NO_APP
 537 03d4 13050000 		li	a0,0
 538              	.LVL54:
 539              	.L27:
 129:src/kernel/virtualization/pager.cpp **** }
 540              		.loc 1 129 1
 541 03d8 03348100 		ld	s0,8(sp)
 542              		.cfi_remember_state
 543              		.cfi_restore 8
 544              		.cfi_def_cfa 2, 16
 545 03dc 13010101 		addi	sp,sp,16
 546              		.cfi_def_cfa_offset 0
 547 03e0 67800000 		jr	ra
 548              	.LVL55:
 549              	.L28:
 550              		.cfi_restore_state
 123:src/kernel/virtualization/pager.cpp ****     //Riscv::ms_sstatus(Riscv::BitMaskSstatus::SSTATUS_SUM);
 551              		.loc 1 123 16
 552 03e4 13051000 		li	a0,1
 553              	.LVL56:
 554 03e8 6FF01FFF 		j	.L27
 555              		.cfi_endproc
 556              	.LFE121:
 558              		.align	2
 559              		.globl	_ZN5Pager5printEv
 561              	_ZN5Pager5printEv:
 562              	.LFB122:
 130:src/kernel/virtualization/pager.cpp **** 
 131:src/kernel/virtualization/pager.cpp **** void Pager::print(){
 563              		.loc 1 131 20 is_stmt 1
 564              		.cfi_startproc
 565              	.LVL57:
 566 03ec 130101FC 		addi	sp,sp,-64
 567              		.cfi_def_cfa_offset 64
 568 03f0 233C1102 		sd	ra,56(sp)
 569 03f4 23388102 		sd	s0,48(sp)
 570 03f8 23349102 		sd	s1,40(sp)
 571 03fc 23302103 		sd	s2,32(sp)
 572 0400 233C3101 		sd	s3,24(sp)
 573 0404 23384101 		sd	s4,16(sp)
 574 0408 23345101 		sd	s5,8(sp)
 575 040c 23306101 		sd	s6,0(sp)
 576              		.cfi_offset 1, -8
 577              		.cfi_offset 8, -16
 578              		.cfi_offset 9, -24
 579              		.cfi_offset 18, -32
 580              		.cfi_offset 19, -40
 581              		.cfi_offset 20, -48
 582              		.cfi_offset 21, -56
 583              		.cfi_offset 22, -64
 584 0410 13040104 		addi	s0,sp,64
 585              		.cfi_def_cfa 8, 0
 132:src/kernel/virtualization/pager.cpp ****     int t = 0;
 586              		.loc 1 132 5
 587              	.LVL58:
 133:src/kernel/virtualization/pager.cpp ****     if(pmt){
GAS LISTING /tmp/cccZ5YIL.s 			page 15


 588              		.loc 1 133 5
 589              	.LBB13:
 590              		.loc 1 133 8 is_stmt 0
 591 0414 83370500 		ld	a5,0(a0)
 592              		.loc 1 133 5
 593 0418 63820716 		beq	a5,zero,.L36
 594 041c 130B0500 		mv	s6,a0
 595              	.LBB14:
 134:src/kernel/virtualization/pager.cpp ****         t++;
 596              		.loc 1 134 9 is_stmt 1
 597              	.LVL59:
 135:src/kernel/virtualization/pager.cpp ****         kprintString("--------LEVEL 0--------\n");
 598              		.loc 1 135 9
 599              		.loc 1 135 21 is_stmt 0
 600 0420 17050000 		lla	a0,.LC0
 600      13050500 
 601              	.LVL60:
 602 0428 97000000 		call	_Z12kprintStringPKc
 602      E7800000 
 603              	.LVL61:
 136:src/kernel/virtualization/pager.cpp ****         pmt->print();
 604              		.loc 1 136 9 is_stmt 1
 605              		.loc 1 136 19 is_stmt 0
 606 0430 03350B00 		ld	a0,0(s6)
 607 0434 97000000 		call	_ZN3PMT5printEv
 607      E7800000 
 608              	.LVL62:
 137:src/kernel/virtualization/pager.cpp ****         for(size_t i = 0; i < PMT::PMT_LEVEL_SIZE; i++){
 609              		.loc 1 137 9 is_stmt 1
 610              	.LBB15:
 611              		.loc 1 137 20 is_stmt 0
 612 043c 930A0000 		li	s5,0
 613              	.LBE15:
 134:src/kernel/virtualization/pager.cpp ****         kprintString("--------LEVEL 0--------\n");
 614              		.loc 1 134 10
 615 0440 130A1000 		li	s4,1
 616 0444 6F00000A 		j	.L35
 617              	.LVL63:
 618              	.L38:
 619              	.LBB29:
 620              	.LBB16:
 621              	.LBB17:
 622              	.LBB18:
 623              	.LBB19:
 624              	.LBB20:
 625              	.LBB21:
 626              	.LBB22:
 138:src/kernel/virtualization/pager.cpp ****             PMTEntry* en = pmt->get_entry(i);
 139:src/kernel/virtualization/pager.cpp ****             
 140:src/kernel/virtualization/pager.cpp ****             if(en->chk_flags(PMTEntryBits::valid)){
 141:src/kernel/virtualization/pager.cpp ****                 t++;
 142:src/kernel/virtualization/pager.cpp ****                 PMT* pmt1 = (PMT*)en->get_pa();
 143:src/kernel/virtualization/pager.cpp ****                 kprintString("--------LEVEL 1--------\n");
 144:src/kernel/virtualization/pager.cpp ****                 KCHECKPRINT(pmt1);
 145:src/kernel/virtualization/pager.cpp ****                 pmt1->print();
 146:src/kernel/virtualization/pager.cpp ****                 for(size_t  i = 0; i < PMT::PMT_LEVEL_SIZE; i++){
 147:src/kernel/virtualization/pager.cpp ****                     PMTEntry* en1 = pmt1->get_entry(i);
GAS LISTING /tmp/cccZ5YIL.s 			page 16


 148:src/kernel/virtualization/pager.cpp **** 
 149:src/kernel/virtualization/pager.cpp ****                     if(en1->chk_flags(PMTEntryBits::valid)){
 150:src/kernel/virtualization/pager.cpp ****                         t++;
 627              		.loc 1 150 25 is_stmt 1
 628              		.loc 1 150 26 is_stmt 0
 629 0448 1B0A1A00 		addiw	s4,s4,1
 630              	.LVL64:
 151:src/kernel/virtualization/pager.cpp ****                         PMT* pmt2 = (PMT*)en1->get_pa();
 631              		.loc 1 151 25 is_stmt 1
 632              		.loc 1 151 54 is_stmt 0
 633 044c 13050900 		mv	a0,s2
 634 0450 97000000 		call	_ZN8PMTEntry6get_paEv
 634      E7800000 
 635              	.LVL65:
 636 0458 13090500 		mv	s2,a0
 637              	.LVL66:
 152:src/kernel/virtualization/pager.cpp ****                         kprintString("--------LEVEL 2--------\n");
 638              		.loc 1 152 25 is_stmt 1
 639              		.loc 1 152 37 is_stmt 0
 640 045c 17050000 		lla	a0,.LC4
 640      13050500 
 641              	.LVL67:
 642 0464 97000000 		call	_Z12kprintStringPKc
 642      E7800000 
 643              	.LVL68:
 153:src/kernel/virtualization/pager.cpp ****                         KCHECKPRINT(pmt2);
 644              		.loc 1 153 25 is_stmt 1
 645 046c 17050000 		lla	a0,.LC5
 645      13050500 
 646 0474 97000000 		call	_Z12kprintStringPKc
 646      E7800000 
 647              	.LVL69:
 648              		.loc 1 153 25
 649 047c 13060000 		li	a2,0
 650 0480 93050001 		li	a1,16
 651 0484 13050900 		mv	a0,s2
 652 0488 97000000 		call	_Z9kprintIntmib
 652      E7800000 
 653              	.LVL70:
 654              		.loc 1 153 25
 655 0490 17050000 		lla	a0,.LC3
 655      13050500 
 656 0498 97000000 		call	_Z12kprintStringPKc
 656      E7800000 
 657              	.LVL71:
 154:src/kernel/virtualization/pager.cpp ****                         pmt2->print();
 658              		.loc 1 154 25
 659              		.loc 1 154 36 is_stmt 0
 660 04a0 13050900 		mv	a0,s2
 661 04a4 97000000 		call	_ZN3PMT5printEv
 661      E7800000 
 662              	.LVL72:
 663              	.L33:
 664              	.LBE22:
 665              	.LBE21:
 666              	.LBE20:
 146:src/kernel/virtualization/pager.cpp ****                     PMTEntry* en1 = pmt1->get_entry(i);
GAS LISTING /tmp/cccZ5YIL.s 			page 17


 667              		.loc 1 146 17 discriminator 2
 668 04ac 93841400 		addi	s1,s1,1
 669              	.LVL73:
 670              	.L34:
 146:src/kernel/virtualization/pager.cpp ****                     PMTEntry* en1 = pmt1->get_entry(i);
 671              		.loc 1 146 38 discriminator 1
 672 04b0 9307F01F 		li	a5,511
 673 04b4 63E69702 		bgtu	s1,a5,.L32
 674              	.LBB24:
 147:src/kernel/virtualization/pager.cpp **** 
 675              		.loc 1 147 21 is_stmt 1
 147:src/kernel/virtualization/pager.cpp **** 
 676              		.loc 1 147 52 is_stmt 0
 677 04b8 93850400 		mv	a1,s1
 678 04bc 13850900 		mv	a0,s3
 679 04c0 97000000 		call	_ZN3PMT9get_entryEm
 679      E7800000 
 680              	.LVL74:
 681 04c8 13090500 		mv	s2,a0
 682              	.LVL75:
 149:src/kernel/virtualization/pager.cpp ****                         t++;
 683              		.loc 1 149 21 is_stmt 1
 684              	.LBB23:
 149:src/kernel/virtualization/pager.cpp ****                         t++;
 685              		.loc 1 149 38 is_stmt 0
 686 04cc 93051000 		li	a1,1
 687 04d0 97000000 		call	_ZN8PMTEntry9chk_flagsE12PMTEntryBits
 687      E7800000 
 688              	.LVL76:
 149:src/kernel/virtualization/pager.cpp ****                         t++;
 689              		.loc 1 149 21
 690 04d8 E30A05FC 		beq	a0,zero,.L33
 691 04dc 6FF0DFF6 		j	.L38
 692              	.LVL77:
 693              	.L32:
 694              	.LBE23:
 695              	.LBE24:
 696              	.LBE19:
 697              	.LBE18:
 698              	.LBE17:
 699              	.LBE16:
 137:src/kernel/virtualization/pager.cpp ****             PMTEntry* en = pmt->get_entry(i);
 700              		.loc 1 137 9 discriminator 2
 701 04e0 938A1A00 		addi	s5,s5,1
 702              	.LVL78:
 703              	.L35:
 137:src/kernel/virtualization/pager.cpp ****             PMTEntry* en = pmt->get_entry(i);
 704              		.loc 1 137 29 discriminator 1
 705 04e4 9307F01F 		li	a5,511
 706 04e8 63EC5709 		bgtu	s5,a5,.L31
 707              	.LBB28:
 138:src/kernel/virtualization/pager.cpp ****             
 708              		.loc 1 138 13 is_stmt 1
 138:src/kernel/virtualization/pager.cpp ****             
 709              		.loc 1 138 42 is_stmt 0
 710 04ec 93850A00 		mv	a1,s5
 711 04f0 03350B00 		ld	a0,0(s6)
GAS LISTING /tmp/cccZ5YIL.s 			page 18


 712 04f4 97000000 		call	_ZN3PMT9get_entryEm
 712      E7800000 
 713              	.LVL79:
 714 04fc 93040500 		mv	s1,a0
 715              	.LVL80:
 140:src/kernel/virtualization/pager.cpp ****                 t++;
 716              		.loc 1 140 13 is_stmt 1
 717              	.LBB27:
 140:src/kernel/virtualization/pager.cpp ****                 t++;
 718              		.loc 1 140 29 is_stmt 0
 719 0500 93051000 		li	a1,1
 720 0504 97000000 		call	_ZN8PMTEntry9chk_flagsE12PMTEntryBits
 720      E7800000 
 721              	.LVL81:
 140:src/kernel/virtualization/pager.cpp ****                 t++;
 722              		.loc 1 140 13
 723 050c E30A05FC 		beq	a0,zero,.L32
 724              	.LBB26:
 141:src/kernel/virtualization/pager.cpp ****                 PMT* pmt1 = (PMT*)en->get_pa();
 725              		.loc 1 141 17 is_stmt 1
 141:src/kernel/virtualization/pager.cpp ****                 PMT* pmt1 = (PMT*)en->get_pa();
 726              		.loc 1 141 18 is_stmt 0
 727 0510 1B0A1A00 		addiw	s4,s4,1
 728              	.LVL82:
 142:src/kernel/virtualization/pager.cpp ****                 kprintString("--------LEVEL 1--------\n");
 729              		.loc 1 142 17 is_stmt 1
 142:src/kernel/virtualization/pager.cpp ****                 kprintString("--------LEVEL 1--------\n");
 730              		.loc 1 142 45 is_stmt 0
 731 0514 13850400 		mv	a0,s1
 732 0518 97000000 		call	_ZN8PMTEntry6get_paEv
 732      E7800000 
 733              	.LVL83:
 734 0520 93090500 		mv	s3,a0
 735              	.LVL84:
 143:src/kernel/virtualization/pager.cpp ****                 KCHECKPRINT(pmt1);
 736              		.loc 1 143 17 is_stmt 1
 143:src/kernel/virtualization/pager.cpp ****                 KCHECKPRINT(pmt1);
 737              		.loc 1 143 29 is_stmt 0
 738 0524 17050000 		lla	a0,.LC1
 738      13050500 
 739              	.LVL85:
 740 052c 97000000 		call	_Z12kprintStringPKc
 740      E7800000 
 741              	.LVL86:
 144:src/kernel/virtualization/pager.cpp ****                 pmt1->print();
 742              		.loc 1 144 17 is_stmt 1
 743 0534 17050000 		lla	a0,.LC2
 743      13050500 
 744 053c 97000000 		call	_Z12kprintStringPKc
 744      E7800000 
 745              	.LVL87:
 144:src/kernel/virtualization/pager.cpp ****                 pmt1->print();
 746              		.loc 1 144 17
 747 0544 13060000 		li	a2,0
 748 0548 93050001 		li	a1,16
 749 054c 13850900 		mv	a0,s3
 750 0550 97000000 		call	_Z9kprintIntmib
GAS LISTING /tmp/cccZ5YIL.s 			page 19


 750      E7800000 
 751              	.LVL88:
 144:src/kernel/virtualization/pager.cpp ****                 pmt1->print();
 752              		.loc 1 144 17
 753 0558 17050000 		lla	a0,.LC3
 753      13050500 
 754 0560 97000000 		call	_Z12kprintStringPKc
 754      E7800000 
 755              	.LVL89:
 145:src/kernel/virtualization/pager.cpp ****                 for(size_t  i = 0; i < PMT::PMT_LEVEL_SIZE; i++){
 756              		.loc 1 145 17
 145:src/kernel/virtualization/pager.cpp ****                 for(size_t  i = 0; i < PMT::PMT_LEVEL_SIZE; i++){
 757              		.loc 1 145 28 is_stmt 0
 758 0568 13850900 		mv	a0,s3
 759 056c 97000000 		call	_ZN3PMT5printEv
 759      E7800000 
 760              	.LVL90:
 146:src/kernel/virtualization/pager.cpp ****                     PMTEntry* en1 = pmt1->get_entry(i);
 761              		.loc 1 146 17 is_stmt 1
 762              	.LBB25:
 146:src/kernel/virtualization/pager.cpp ****                     PMTEntry* en1 = pmt1->get_entry(i);
 763              		.loc 1 146 29 is_stmt 0
 764 0574 93040000 		li	s1,0
 765              	.LVL91:
 766 0578 6FF09FF3 		j	.L34
 767              	.LVL92:
 768              	.L36:
 769              	.LBE25:
 770              	.LBE26:
 771              	.LBE27:
 772              	.LBE28:
 773              	.LBE29:
 774              	.LBE14:
 775              	.LBE13:
 132:src/kernel/virtualization/pager.cpp ****     if(pmt){
 776              		.loc 1 132 9
 777 057c 130A0000 		li	s4,0
 778              	.LVL93:
 779              	.L31:
 155:src/kernel/virtualization/pager.cpp ****                     }
 156:src/kernel/virtualization/pager.cpp ****             
 157:src/kernel/virtualization/pager.cpp ****                 }
 158:src/kernel/virtualization/pager.cpp ****             }
 159:src/kernel/virtualization/pager.cpp ****             
 160:src/kernel/virtualization/pager.cpp ****         }
 161:src/kernel/virtualization/pager.cpp ****     }
 162:src/kernel/virtualization/pager.cpp ****     kprintString("page_table_num: "); kprintInt(t); kprintString("\n");
 780              		.loc 1 162 5 is_stmt 1
 781              		.loc 1 162 17 is_stmt 0
 782 0580 17050000 		lla	a0,.LC6
 782      13050500 
 783 0588 97000000 		call	_Z12kprintStringPKc
 783      E7800000 
 784              	.LVL94:
 785              		.loc 1 162 39 is_stmt 1
 786              		.loc 1 162 48 is_stmt 0
 787 0590 13060000 		li	a2,0
GAS LISTING /tmp/cccZ5YIL.s 			page 20


 788 0594 9305A000 		li	a1,10
 789 0598 13050A00 		mv	a0,s4
 790 059c 97000000 		call	_Z9kprintIntmib
 790      E7800000 
 791              	.LVL95:
 792              		.loc 1 162 53 is_stmt 1
 793              		.loc 1 162 65 is_stmt 0
 794 05a4 17050000 		lla	a0,.LC3
 794      13050500 
 795 05ac 97000000 		call	_Z12kprintStringPKc
 795      E7800000 
 796              	.LVL96:
 163:src/kernel/virtualization/pager.cpp ****     kprintString("page_table_size: "); kprintInt(sizeof(PMT)); kprintString("\n");
 797              		.loc 1 163 5 is_stmt 1
 798              		.loc 1 163 17 is_stmt 0
 799 05b4 17050000 		lla	a0,.LC7
 799      13050500 
 800 05bc 97000000 		call	_Z12kprintStringPKc
 800      E7800000 
 801              	.LVL97:
 802              		.loc 1 163 40 is_stmt 1
 803              		.loc 1 163 49 is_stmt 0
 804 05c4 13060000 		li	a2,0
 805 05c8 9305A000 		li	a1,10
 806 05cc 37150000 		li	a0,4096
 807 05d0 97000000 		call	_Z9kprintIntmib
 807      E7800000 
 808              	.LVL98:
 809              		.loc 1 163 64 is_stmt 1
 810              		.loc 1 163 76 is_stmt 0
 811 05d8 17050000 		lla	a0,.LC3
 811      13050500 
 812 05e0 97000000 		call	_Z12kprintStringPKc
 812      E7800000 
 813              	.LVL99:
 164:src/kernel/virtualization/pager.cpp ****     kprintString("page_table_buddy_level: "); kprintInt(BUDDY_LEVEL(sizeof(PMT))); kprintString("\n
 814              		.loc 1 164 5 is_stmt 1
 815              		.loc 1 164 17 is_stmt 0
 816 05e8 17050000 		lla	a0,.LC8
 816      13050500 
 817 05f0 97000000 		call	_Z12kprintStringPKc
 817      E7800000 
 818              	.LVL100:
 819              		.loc 1 164 47 is_stmt 1
 820              		.loc 1 164 57 is_stmt 0
 821 05f8 37150000 		li	a0,4096
 822 05fc 97000000 		call	_Z4log2m
 822      E7800000 
 823              	.LVL101:
 824 0604 B7170000 		li	a5,4096
 825 0608 9387F7FF 		addi	a5,a5,-1
 826 060c 33D5A700 		srl	a0,a5,a0
 827 0610 13051500 		addi	a0,a0,1
 828 0614 97000000 		call	_Z4log2m
 828      E7800000 
 829              	.LVL102:
 830              		.loc 1 164 56
GAS LISTING /tmp/cccZ5YIL.s 			page 21


 831 061c 13060000 		li	a2,0
 832 0620 9305A000 		li	a1,10
 833 0624 97000000 		call	_Z9kprintIntmib
 833      E7800000 
 834              	.LVL103:
 835              		.loc 1 164 84 is_stmt 1
 836              		.loc 1 164 96 is_stmt 0
 837 062c 17050000 		lla	a0,.LC3
 837      13050500 
 838 0634 97000000 		call	_Z12kprintStringPKc
 838      E7800000 
 839              	.LVL104:
 165:src/kernel/virtualization/pager.cpp **** }
 840              		.loc 1 165 1
 841 063c 83308103 		ld	ra,56(sp)
 842              		.cfi_restore 1
 843 0640 03340103 		ld	s0,48(sp)
 844              		.cfi_restore 8
 845              		.cfi_def_cfa 2, 64
 846 0644 83348102 		ld	s1,40(sp)
 847              		.cfi_restore 9
 848 0648 03390102 		ld	s2,32(sp)
 849              		.cfi_restore 18
 850 064c 83398101 		ld	s3,24(sp)
 851              		.cfi_restore 19
 852 0650 033A0101 		ld	s4,16(sp)
 853              		.cfi_restore 20
 854              	.LVL105:
 855 0654 833A8100 		ld	s5,8(sp)
 856              		.cfi_restore 21
 857 0658 033B0100 		ld	s6,0(sp)
 858              		.cfi_restore 22
 859 065c 13010104 		addi	sp,sp,64
 860              		.cfi_def_cfa_offset 0
 861 0660 67800000 		jr	ra
 862              		.cfi_endproc
 863              	.LFE122:
 865              		.globl	_ZN5Pager1pE
 866              		.section	.rodata.str1.8,"aMS",@progbits,1
 867              		.align	3
 868              	.LC0:
 869 0000 2D2D2D2D 		.string	"--------LEVEL 0--------\n"
 869      2D2D2D2D 
 869      4C455645 
 869      4C20302D 
 869      2D2D2D2D 
 870 0019 00000000 		.zero	7
 870      000000
 871              	.LC1:
 872 0020 2D2D2D2D 		.string	"--------LEVEL 1--------\n"
 872      2D2D2D2D 
 872      4C455645 
 872      4C20312D 
 872      2D2D2D2D 
 873 0039 00000000 		.zero	7
 873      000000
 874              	.LC2:
GAS LISTING /tmp/cccZ5YIL.s 			page 22


 875 0040 706D7431 		.string	"pmt1: "
 875      3A2000
 876 0047 00       		.zero	1
 877              	.LC3:
 878 0048 0A00     		.string	"\n"
 879 004a 00000000 		.zero	6
 879      0000
 880              	.LC4:
 881 0050 2D2D2D2D 		.string	"--------LEVEL 2--------\n"
 881      2D2D2D2D 
 881      4C455645 
 881      4C20322D 
 881      2D2D2D2D 
 882 0069 00000000 		.zero	7
 882      000000
 883              	.LC5:
 884 0070 706D7432 		.string	"pmt2: "
 884      3A2000
 885 0077 00       		.zero	1
 886              	.LC6:
 887 0078 70616765 		.string	"page_table_num: "
 887      5F746162 
 887      6C655F6E 
 887      756D3A20 
 887      00
 888 0089 00000000 		.zero	7
 888      000000
 889              	.LC7:
 890 0090 70616765 		.string	"page_table_size: "
 890      5F746162 
 890      6C655F73 
 890      697A653A 
 890      2000
 891 00a2 00000000 		.zero	6
 891      0000
 892              	.LC8:
 893 00a8 70616765 		.string	"page_table_buddy_level: "
 893      5F746162 
 893      6C655F62 
 893      75646479 
 893      5F6C6576 
 894              		.section	.sbss,"aw",@nobits
 895              		.align	3
 898              	_ZN5Pager1pE:
 899 0000 00000000 		.zero	8
 899      00000000 
 900              		.text
 901              	.Letext0:
 902              		.file 4 "src/kernel/virtualization/../../../h/../h/../lib/hw.h"
 903              		.file 5 "src/kernel/virtualization/../../../h/../h/pmt.h"
 904              		.file 6 "src/kernel/virtualization/../../../h/kernel_lib.h"
 905              		.file 7 "src/kernel/virtualization/../../../h/../h/kernel_funs.h"
GAS LISTING /tmp/cccZ5YIL.s 			page 23


DEFINED SYMBOLS
                            *ABS*:0000000000000000 pager.cpp
     /tmp/cccZ5YIL.s:12     .text:0000000000000000 _ZN5PagerC2Ev
     /tmp/cccZ5YIL.s:16     .text:0000000000000000 .L0 
     /tmp/cccZ5YIL.s:18     .text:0000000000000000 .L0 
     /tmp/cccZ5YIL.s:19     .text:0000000000000004 .L0 
     /tmp/cccZ5YIL.s:21     .text:0000000000000008 .L0 
     /tmp/cccZ5YIL.s:23     .text:000000000000000c .L0 
     /tmp/cccZ5YIL.s:26     .text:000000000000000c .L0 
     /tmp/cccZ5YIL.s:29     .text:0000000000000010 .L0 
     /tmp/cccZ5YIL.s:30     .text:0000000000000014 .L0 
     /tmp/cccZ5YIL.s:31     .text:0000000000000014 .L0 
     /tmp/cccZ5YIL.s:33     .text:0000000000000018 .L0 
     /tmp/cccZ5YIL.s:35     .text:000000000000001c .L0 
     /tmp/cccZ5YIL.s:12     .text:0000000000000000 _ZN5PagerC1Ev
     /tmp/cccZ5YIL.s:43     .text:000000000000001c _ZN5Pager11getInstanceEv
     /tmp/cccZ5YIL.s:46     .text:000000000000001c .L0 
     /tmp/cccZ5YIL.s:47     .text:000000000000001c .L0 
     /tmp/cccZ5YIL.s:48     .text:000000000000001c .L0 
     /tmp/cccZ5YIL.s:898    .sbss:0000000000000000 _ZN5Pager1pE
     /tmp/cccZ5YIL.s:49     .text:000000000000001c .L0 
     /tmp/cccZ5YIL.s:52     .text:0000000000000028 .L0 
     /tmp/cccZ5YIL.s:54     .text:000000000000002c .L0 
     /tmp/cccZ5YIL.s:55     .text:000000000000002c .L0 
     /tmp/cccZ5YIL.s:60     .text:000000000000003c .L0 
     /tmp/cccZ5YIL.s:61     .text:0000000000000040 .L0 
     /tmp/cccZ5YIL.s:65     .text:000000000000004c .L0 
     /tmp/cccZ5YIL.s:66     .text:000000000000004c .L0 
     /tmp/cccZ5YIL.s:67     .text:000000000000004c .L0 
     /tmp/cccZ5YIL.s:69     .text:0000000000000050 .L0 
     /tmp/cccZ5YIL.s:75     .text:0000000000000050 .L0 
     /tmp/cccZ5YIL.s:76     .text:0000000000000050 .L0 
     /tmp/cccZ5YIL.s:86     .text:0000000000000068 .L0 
     /tmp/cccZ5YIL.s:88     .text:0000000000000070 .L0 
     /tmp/cccZ5YIL.s:89     .text:0000000000000070 .L0 
     /tmp/cccZ5YIL.s:92     .text:0000000000000080 .L0 
     /tmp/cccZ5YIL.s:94     .text:0000000000000084 .L0 
     /tmp/cccZ5YIL.s:95     .text:0000000000000084 .L0 
     /tmp/cccZ5YIL.s:97     .text:0000000000000088 .L0 
     /tmp/cccZ5YIL.s:99     .text:000000000000008c .L0 
     /tmp/cccZ5YIL.s:101    .text:0000000000000090 .L0 
     /tmp/cccZ5YIL.s:107    .text:0000000000000090 _ZN5Pager3mapEPvS0_12PMTEntryBits
     /tmp/cccZ5YIL.s:110    .text:0000000000000090 .L0 
     /tmp/cccZ5YIL.s:112    .text:0000000000000090 .L0 
     /tmp/cccZ5YIL.s:113    .text:0000000000000094 .L0 
     /tmp/cccZ5YIL.s:121    .text:00000000000000b0 .L0 
     /tmp/cccZ5YIL.s:122    .text:00000000000000b0 .L0 
     /tmp/cccZ5YIL.s:123    .text:00000000000000b0 .L0 
     /tmp/cccZ5YIL.s:124    .text:00000000000000b0 .L0 
     /tmp/cccZ5YIL.s:125    .text:00000000000000b0 .L0 
     /tmp/cccZ5YIL.s:126    .text:00000000000000b0 .L0 
     /tmp/cccZ5YIL.s:127    .text:00000000000000b0 .L0 
     /tmp/cccZ5YIL.s:129    .text:00000000000000b4 .L0 
     /tmp/cccZ5YIL.s:135    .text:00000000000000c4 .L0 
     /tmp/cccZ5YIL.s:136    .text:00000000000000c4 .L0 
     /tmp/cccZ5YIL.s:138    .text:00000000000000c8 .L0 
     /tmp/cccZ5YIL.s:142    .text:00000000000000cc .L0 
GAS LISTING /tmp/cccZ5YIL.s 			page 24


     /tmp/cccZ5YIL.s:143    .text:00000000000000cc .L0 
     /tmp/cccZ5YIL.s:144    .text:00000000000000cc .L0 
     /tmp/cccZ5YIL.s:153    .text:00000000000000e4 .L0 
     /tmp/cccZ5YIL.s:154    .text:00000000000000e4 .L0 
     /tmp/cccZ5YIL.s:160    .text:00000000000000ec .L0 
     /tmp/cccZ5YIL.s:161    .text:00000000000000ec .L0 
     /tmp/cccZ5YIL.s:164    .text:00000000000000f4 .L0 
     /tmp/cccZ5YIL.s:170    .text:00000000000000fc .L0 
     /tmp/cccZ5YIL.s:171    .text:00000000000000fc .L0 
     /tmp/cccZ5YIL.s:176    .text:000000000000010c .L0 
     /tmp/cccZ5YIL.s:177    .text:000000000000010c .L0 
     /tmp/cccZ5YIL.s:180    .text:0000000000000114 .L0 
     /tmp/cccZ5YIL.s:186    .text:0000000000000124 .L0 
     /tmp/cccZ5YIL.s:187    .text:0000000000000124 .L0 
     /tmp/cccZ5YIL.s:191    .text:0000000000000130 .L0 
     /tmp/cccZ5YIL.s:192    .text:0000000000000130 .L0 
     /tmp/cccZ5YIL.s:200    .text:0000000000000148 .L0 
     /tmp/cccZ5YIL.s:204    .text:000000000000014c .L0 
     /tmp/cccZ5YIL.s:206    .text:0000000000000150 .L0 
     /tmp/cccZ5YIL.s:207    .text:0000000000000150 .L0 
     /tmp/cccZ5YIL.s:212    .text:0000000000000160 .L0 
     /tmp/cccZ5YIL.s:217    .text:0000000000000168 .L0 
     /tmp/cccZ5YIL.s:218    .text:0000000000000168 .L0 
     /tmp/cccZ5YIL.s:223    .text:0000000000000178 .L0 
     /tmp/cccZ5YIL.s:224    .text:0000000000000178 .L0 
     /tmp/cccZ5YIL.s:229    .text:0000000000000188 .L0 
     /tmp/cccZ5YIL.s:230    .text:0000000000000188 .L0 
     /tmp/cccZ5YIL.s:232    .text:0000000000000190 .L0 
     /tmp/cccZ5YIL.s:234    .text:0000000000000194 .L0 
     /tmp/cccZ5YIL.s:235    .text:0000000000000194 .L0 
     /tmp/cccZ5YIL.s:237    .text:0000000000000198 .L0 
     /tmp/cccZ5YIL.s:240    .text:000000000000019c .L0 
     /tmp/cccZ5YIL.s:243    .text:00000000000001a0 .L0 
     /tmp/cccZ5YIL.s:246    .text:00000000000001a4 .L0 
     /tmp/cccZ5YIL.s:249    .text:00000000000001a8 .L0 
     /tmp/cccZ5YIL.s:252    .text:00000000000001ac .L0 
     /tmp/cccZ5YIL.s:254    .text:00000000000001b0 .L0 
     /tmp/cccZ5YIL.s:260    .text:00000000000001b0 _ZN5Pager6id_mapEPvS0_12PMTEntryBits
     /tmp/cccZ5YIL.s:263    .text:00000000000001b0 .L0 
     /tmp/cccZ5YIL.s:265    .text:00000000000001b0 .L0 
     /tmp/cccZ5YIL.s:266    .text:00000000000001b4 .L0 
     /tmp/cccZ5YIL.s:273    .text:00000000000001cc .L0 
     /tmp/cccZ5YIL.s:274    .text:00000000000001cc .L0 
     /tmp/cccZ5YIL.s:275    .text:00000000000001cc .L0 
     /tmp/cccZ5YIL.s:276    .text:00000000000001cc .L0 
     /tmp/cccZ5YIL.s:277    .text:00000000000001cc .L0 
     /tmp/cccZ5YIL.s:278    .text:00000000000001cc .L0 
     /tmp/cccZ5YIL.s:280    .text:00000000000001d0 .L0 
     /tmp/cccZ5YIL.s:285    .text:00000000000001d8 .L0 
     /tmp/cccZ5YIL.s:286    .text:00000000000001d8 .L0 
     /tmp/cccZ5YIL.s:289    .text:00000000000001dc .L0 
     /tmp/cccZ5YIL.s:290    .text:00000000000001dc .L0 
     /tmp/cccZ5YIL.s:295    .text:00000000000001e4 .L0 
     /tmp/cccZ5YIL.s:296    .text:00000000000001e4 .L0 
     /tmp/cccZ5YIL.s:297    .text:00000000000001e4 .L0 
     /tmp/cccZ5YIL.s:299    .text:00000000000001e8 .L0 
     /tmp/cccZ5YIL.s:300    .text:00000000000001e8 .L0 
GAS LISTING /tmp/cccZ5YIL.s 			page 25


     /tmp/cccZ5YIL.s:307    .text:0000000000000200 .L0 
     /tmp/cccZ5YIL.s:308    .text:0000000000000200 .L0 
     /tmp/cccZ5YIL.s:312    .text:0000000000000208 .L0 
     /tmp/cccZ5YIL.s:315    .text:000000000000020c .L0 
     /tmp/cccZ5YIL.s:316    .text:000000000000020c .L0 
     /tmp/cccZ5YIL.s:318    .text:0000000000000214 .L0 
     /tmp/cccZ5YIL.s:320    .text:0000000000000218 .L0 
     /tmp/cccZ5YIL.s:321    .text:0000000000000218 .L0 
     /tmp/cccZ5YIL.s:323    .text:000000000000021c .L0 
     /tmp/cccZ5YIL.s:326    .text:0000000000000220 .L0 
     /tmp/cccZ5YIL.s:329    .text:0000000000000224 .L0 
     /tmp/cccZ5YIL.s:332    .text:0000000000000228 .L0 
     /tmp/cccZ5YIL.s:335    .text:000000000000022c .L0 
     /tmp/cccZ5YIL.s:337    .text:0000000000000230 .L0 
     /tmp/cccZ5YIL.s:343    .text:0000000000000230 _ZN5Pager10map_kernelEv
     /tmp/cccZ5YIL.s:346    .text:0000000000000230 .L0 
     /tmp/cccZ5YIL.s:348    .text:0000000000000230 .L0 
     /tmp/cccZ5YIL.s:349    .text:0000000000000234 .L0 
     /tmp/cccZ5YIL.s:353    .text:0000000000000240 .L0 
     /tmp/cccZ5YIL.s:354    .text:0000000000000240 .L0 
     /tmp/cccZ5YIL.s:355    .text:0000000000000240 .L0 
     /tmp/cccZ5YIL.s:357    .text:0000000000000244 .L0 
     /tmp/cccZ5YIL.s:361    .text:0000000000000248 .L0 
     /tmp/cccZ5YIL.s:362    .text:0000000000000248 .L0 
     /tmp/cccZ5YIL.s:363    .text:0000000000000248 .L0 
     /tmp/cccZ5YIL.s:364    .text:0000000000000248 .L0 
     /tmp/cccZ5YIL.s:374    .text:000000000000026c .L0 
     /tmp/cccZ5YIL.s:375    .text:000000000000026c .L0 
     /tmp/cccZ5YIL.s:383    .text:0000000000000288 .L0 
     /tmp/cccZ5YIL.s:384    .text:0000000000000288 .L0 
     /tmp/cccZ5YIL.s:392    .text:00000000000002a4 .L0 
     /tmp/cccZ5YIL.s:393    .text:00000000000002a4 .L0 
     /tmp/cccZ5YIL.s:401    .text:00000000000002c0 .L0 
     /tmp/cccZ5YIL.s:402    .text:00000000000002c0 .L0 
     /tmp/cccZ5YIL.s:404    .text:00000000000002c8 .L0 
     /tmp/cccZ5YIL.s:406    .text:00000000000002cc .L0 
     /tmp/cccZ5YIL.s:407    .text:00000000000002cc .L0 
     /tmp/cccZ5YIL.s:409    .text:00000000000002d0 .L0 
     /tmp/cccZ5YIL.s:412    .text:00000000000002d4 .L0 
     /tmp/cccZ5YIL.s:414    .text:00000000000002d8 .L0 
     /tmp/cccZ5YIL.s:420    .text:00000000000002d8 _ZN5Pager8map_userEv
     /tmp/cccZ5YIL.s:423    .text:00000000000002d8 .L0 
     /tmp/cccZ5YIL.s:425    .text:00000000000002d8 .L0 
     /tmp/cccZ5YIL.s:426    .text:00000000000002dc .L0 
     /tmp/cccZ5YIL.s:430    .text:00000000000002e8 .L0 
     /tmp/cccZ5YIL.s:431    .text:00000000000002e8 .L0 
     /tmp/cccZ5YIL.s:432    .text:00000000000002e8 .L0 
     /tmp/cccZ5YIL.s:434    .text:00000000000002ec .L0 
     /tmp/cccZ5YIL.s:437    .text:00000000000002f0 .L0 
     /tmp/cccZ5YIL.s:438    .text:00000000000002f0 .L0 
     /tmp/cccZ5YIL.s:446    .text:0000000000000314 .L0 
     /tmp/cccZ5YIL.s:447    .text:0000000000000314 .L0 
     /tmp/cccZ5YIL.s:456    .text:000000000000033c .L0 
     /tmp/cccZ5YIL.s:457    .text:000000000000033c .L0 
     /tmp/cccZ5YIL.s:466    .text:0000000000000364 .L0 
     /tmp/cccZ5YIL.s:467    .text:0000000000000364 .L0 
     /tmp/cccZ5YIL.s:476    .text:000000000000038c .L0 
GAS LISTING /tmp/cccZ5YIL.s 			page 26


     /tmp/cccZ5YIL.s:477    .text:000000000000038c .L0 
     /tmp/cccZ5YIL.s:479    .text:0000000000000394 .L0 
     /tmp/cccZ5YIL.s:481    .text:0000000000000398 .L0 
     /tmp/cccZ5YIL.s:482    .text:0000000000000398 .L0 
     /tmp/cccZ5YIL.s:484    .text:000000000000039c .L0 
     /tmp/cccZ5YIL.s:487    .text:00000000000003a0 .L0 
     /tmp/cccZ5YIL.s:489    .text:00000000000003a4 .L0 
     /tmp/cccZ5YIL.s:495    .text:00000000000003a4 _ZN5Pager12start_pagingEv
     /tmp/cccZ5YIL.s:498    .text:00000000000003a4 .L0 
     /tmp/cccZ5YIL.s:500    .text:00000000000003a4 .L0 
     /tmp/cccZ5YIL.s:501    .text:00000000000003a8 .L0 
     /tmp/cccZ5YIL.s:503    .text:00000000000003ac .L0 
     /tmp/cccZ5YIL.s:505    .text:00000000000003b0 .L0 
     /tmp/cccZ5YIL.s:507    .text:00000000000003b0 .L0 
     /tmp/cccZ5YIL.s:508    .text:00000000000003b0 .L0 
     /tmp/cccZ5YIL.s:510    .text:00000000000003b4 .L0 
     /tmp/cccZ5YIL.s:512    .text:00000000000003b8 .L0 
     /tmp/cccZ5YIL.s:513    .text:00000000000003b8 .L0 
     /tmp/cccZ5YIL.s:515    .text:00000000000003bc .L0 
     /tmp/cccZ5YIL.s:523    .text:00000000000003c8 .L0 
     /tmp/cccZ5YIL.s:524    .text:00000000000003c8 .L0 
     /tmp/cccZ5YIL.s:525    .text:00000000000003c8 .L0 
     /tmp/cccZ5YIL.s:529    .text:00000000000003d0 .L0 
src/kernel/virtualization/pager.cpp:127    .text:00000000000003d0 .L0 
     /tmp/cccZ5YIL.s:535    .text:00000000000003d4 .L0 
     /tmp/cccZ5YIL.s:537    .text:00000000000003d4 .L0 
     /tmp/cccZ5YIL.s:541    .text:00000000000003d8 .L0 
     /tmp/cccZ5YIL.s:542    .text:00000000000003dc .L0 
     /tmp/cccZ5YIL.s:543    .text:00000000000003dc .L0 
     /tmp/cccZ5YIL.s:544    .text:00000000000003dc .L0 
     /tmp/cccZ5YIL.s:546    .text:00000000000003e0 .L0 
     /tmp/cccZ5YIL.s:550    .text:00000000000003e4 .L0 
     /tmp/cccZ5YIL.s:552    .text:00000000000003e4 .L0 
     /tmp/cccZ5YIL.s:555    .text:00000000000003ec .L0 
     /tmp/cccZ5YIL.s:561    .text:00000000000003ec _ZN5Pager5printEv
     /tmp/cccZ5YIL.s:564    .text:00000000000003ec .L0 
     /tmp/cccZ5YIL.s:566    .text:00000000000003ec .L0 
     /tmp/cccZ5YIL.s:567    .text:00000000000003f0 .L0 
     /tmp/cccZ5YIL.s:576    .text:0000000000000410 .L0 
     /tmp/cccZ5YIL.s:577    .text:0000000000000410 .L0 
     /tmp/cccZ5YIL.s:578    .text:0000000000000410 .L0 
     /tmp/cccZ5YIL.s:579    .text:0000000000000410 .L0 
     /tmp/cccZ5YIL.s:580    .text:0000000000000410 .L0 
     /tmp/cccZ5YIL.s:581    .text:0000000000000410 .L0 
     /tmp/cccZ5YIL.s:582    .text:0000000000000410 .L0 
     /tmp/cccZ5YIL.s:583    .text:0000000000000410 .L0 
     /tmp/cccZ5YIL.s:585    .text:0000000000000414 .L0 
     /tmp/cccZ5YIL.s:588    .text:0000000000000414 .L0 
     /tmp/cccZ5YIL.s:590    .text:0000000000000414 .L0 
     /tmp/cccZ5YIL.s:591    .text:0000000000000414 .L0 
     /tmp/cccZ5YIL.s:593    .text:0000000000000418 .L0 
     /tmp/cccZ5YIL.s:598    .text:0000000000000420 .L0 
     /tmp/cccZ5YIL.s:599    .text:0000000000000420 .L0 
     /tmp/cccZ5YIL.s:600    .text:0000000000000420 .L0 
     /tmp/cccZ5YIL.s:605    .text:0000000000000430 .L0 
     /tmp/cccZ5YIL.s:606    .text:0000000000000430 .L0 
     /tmp/cccZ5YIL.s:611    .text:000000000000043c .L0 
GAS LISTING /tmp/cccZ5YIL.s 			page 27


     /tmp/cccZ5YIL.s:612    .text:000000000000043c .L0 
     /tmp/cccZ5YIL.s:615    .text:0000000000000440 .L0 
     /tmp/cccZ5YIL.s:628    .text:0000000000000448 .L0 
     /tmp/cccZ5YIL.s:629    .text:0000000000000448 .L0 
     /tmp/cccZ5YIL.s:632    .text:000000000000044c .L0 
     /tmp/cccZ5YIL.s:633    .text:000000000000044c .L0 
     /tmp/cccZ5YIL.s:639    .text:000000000000045c .L0 
     /tmp/cccZ5YIL.s:640    .text:000000000000045c .L0 
     /tmp/cccZ5YIL.s:645    .text:000000000000046c .L0 
     /tmp/cccZ5YIL.s:649    .text:000000000000047c .L0 
     /tmp/cccZ5YIL.s:655    .text:0000000000000490 .L0 
     /tmp/cccZ5YIL.s:659    .text:00000000000004a0 .L0 
     /tmp/cccZ5YIL.s:660    .text:00000000000004a0 .L0 
     /tmp/cccZ5YIL.s:668    .text:00000000000004ac .L0 
     /tmp/cccZ5YIL.s:672    .text:00000000000004b0 .L0 
     /tmp/cccZ5YIL.s:676    .text:00000000000004b8 .L0 
     /tmp/cccZ5YIL.s:677    .text:00000000000004b8 .L0 
     /tmp/cccZ5YIL.s:685    .text:00000000000004cc .L0 
     /tmp/cccZ5YIL.s:686    .text:00000000000004cc .L0 
     /tmp/cccZ5YIL.s:690    .text:00000000000004d8 .L0 
     /tmp/cccZ5YIL.s:701    .text:00000000000004e0 .L0 
     /tmp/cccZ5YIL.s:705    .text:00000000000004e4 .L0 
     /tmp/cccZ5YIL.s:709    .text:00000000000004ec .L0 
     /tmp/cccZ5YIL.s:710    .text:00000000000004ec .L0 
     /tmp/cccZ5YIL.s:718    .text:0000000000000500 .L0 
     /tmp/cccZ5YIL.s:719    .text:0000000000000500 .L0 
     /tmp/cccZ5YIL.s:723    .text:000000000000050c .L0 
     /tmp/cccZ5YIL.s:726    .text:0000000000000510 .L0 
     /tmp/cccZ5YIL.s:727    .text:0000000000000510 .L0 
     /tmp/cccZ5YIL.s:730    .text:0000000000000514 .L0 
     /tmp/cccZ5YIL.s:731    .text:0000000000000514 .L0 
     /tmp/cccZ5YIL.s:737    .text:0000000000000524 .L0 
     /tmp/cccZ5YIL.s:738    .text:0000000000000524 .L0 
     /tmp/cccZ5YIL.s:743    .text:0000000000000534 .L0 
     /tmp/cccZ5YIL.s:747    .text:0000000000000544 .L0 
     /tmp/cccZ5YIL.s:753    .text:0000000000000558 .L0 
     /tmp/cccZ5YIL.s:757    .text:0000000000000568 .L0 
     /tmp/cccZ5YIL.s:758    .text:0000000000000568 .L0 
     /tmp/cccZ5YIL.s:763    .text:0000000000000574 .L0 
     /tmp/cccZ5YIL.s:764    .text:0000000000000574 .L0 
     /tmp/cccZ5YIL.s:777    .text:000000000000057c .L0 
     /tmp/cccZ5YIL.s:781    .text:0000000000000580 .L0 
     /tmp/cccZ5YIL.s:782    .text:0000000000000580 .L0 
     /tmp/cccZ5YIL.s:786    .text:0000000000000590 .L0 
     /tmp/cccZ5YIL.s:787    .text:0000000000000590 .L0 
     /tmp/cccZ5YIL.s:793    .text:00000000000005a4 .L0 
     /tmp/cccZ5YIL.s:794    .text:00000000000005a4 .L0 
     /tmp/cccZ5YIL.s:798    .text:00000000000005b4 .L0 
     /tmp/cccZ5YIL.s:799    .text:00000000000005b4 .L0 
     /tmp/cccZ5YIL.s:803    .text:00000000000005c4 .L0 
     /tmp/cccZ5YIL.s:804    .text:00000000000005c4 .L0 
     /tmp/cccZ5YIL.s:810    .text:00000000000005d8 .L0 
     /tmp/cccZ5YIL.s:811    .text:00000000000005d8 .L0 
     /tmp/cccZ5YIL.s:815    .text:00000000000005e8 .L0 
     /tmp/cccZ5YIL.s:816    .text:00000000000005e8 .L0 
     /tmp/cccZ5YIL.s:820    .text:00000000000005f8 .L0 
     /tmp/cccZ5YIL.s:821    .text:00000000000005f8 .L0 
GAS LISTING /tmp/cccZ5YIL.s 			page 28


     /tmp/cccZ5YIL.s:831    .text:000000000000061c .L0 
     /tmp/cccZ5YIL.s:836    .text:000000000000062c .L0 
     /tmp/cccZ5YIL.s:837    .text:000000000000062c .L0 
     /tmp/cccZ5YIL.s:841    .text:000000000000063c .L0 
     /tmp/cccZ5YIL.s:842    .text:0000000000000640 .L0 
     /tmp/cccZ5YIL.s:844    .text:0000000000000644 .L0 
     /tmp/cccZ5YIL.s:845    .text:0000000000000644 .L0 
     /tmp/cccZ5YIL.s:847    .text:0000000000000648 .L0 
     /tmp/cccZ5YIL.s:849    .text:000000000000064c .L0 
     /tmp/cccZ5YIL.s:851    .text:0000000000000650 .L0 
     /tmp/cccZ5YIL.s:853    .text:0000000000000654 .L0 
     /tmp/cccZ5YIL.s:856    .text:0000000000000658 .L0 
     /tmp/cccZ5YIL.s:858    .text:000000000000065c .L0 
     /tmp/cccZ5YIL.s:860    .text:0000000000000660 .L0 
     /tmp/cccZ5YIL.s:862    .text:0000000000000664 .L0 
     /tmp/cccZ5YIL.s:906    .text:0000000000000664 .L0 
     /tmp/cccZ5YIL.s:49     .text:000000000000001c .L0 
     /tmp/cccZ5YIL.s:55     .text:000000000000002c .L0 
     /tmp/cccZ5YIL.s:86     .text:0000000000000068 .L0 
     /tmp/cccZ5YIL.s:89     .text:0000000000000070 .L0 
     /tmp/cccZ5YIL.s:365    .text:000000000000024c .L0 
     /tmp/cccZ5YIL.s:368    .text:0000000000000258 .L0 
     /tmp/cccZ5YIL.s:439    .text:00000000000002f4 .L0 
     /tmp/cccZ5YIL.s:441    .text:0000000000000300 .L0 
     /tmp/cccZ5YIL.s:448    .text:0000000000000318 .L0 
     /tmp/cccZ5YIL.s:450    .text:0000000000000324 .L0 
     /tmp/cccZ5YIL.s:458    .text:0000000000000340 .L0 
     /tmp/cccZ5YIL.s:460    .text:000000000000034c .L0 
     /tmp/cccZ5YIL.s:468    .text:0000000000000368 .L0 
     /tmp/cccZ5YIL.s:470    .text:0000000000000374 .L0 
     /tmp/cccZ5YIL.s:525    .text:00000000000003c8 .L0 
     /tmp/cccZ5YIL.s:868    .rodata.str1.8:0000000000000000 .LC0
     /tmp/cccZ5YIL.s:600    .text:0000000000000420 .L0 
     /tmp/cccZ5YIL.s:880    .rodata.str1.8:0000000000000050 .LC4
     /tmp/cccZ5YIL.s:640    .text:000000000000045c .L0 
     /tmp/cccZ5YIL.s:883    .rodata.str1.8:0000000000000070 .LC5
     /tmp/cccZ5YIL.s:645    .text:000000000000046c .L0 
     /tmp/cccZ5YIL.s:877    .rodata.str1.8:0000000000000048 .LC3
     /tmp/cccZ5YIL.s:655    .text:0000000000000490 .L0 
     /tmp/cccZ5YIL.s:871    .rodata.str1.8:0000000000000020 .LC1
     /tmp/cccZ5YIL.s:738    .text:0000000000000524 .L0 
     /tmp/cccZ5YIL.s:874    .rodata.str1.8:0000000000000040 .LC2
     /tmp/cccZ5YIL.s:743    .text:0000000000000534 .L0 
     /tmp/cccZ5YIL.s:753    .text:0000000000000558 .L0 
     /tmp/cccZ5YIL.s:886    .rodata.str1.8:0000000000000078 .LC6
     /tmp/cccZ5YIL.s:782    .text:0000000000000580 .L0 
     /tmp/cccZ5YIL.s:794    .text:00000000000005a4 .L0 
     /tmp/cccZ5YIL.s:889    .rodata.str1.8:0000000000000090 .LC7
     /tmp/cccZ5YIL.s:799    .text:00000000000005b4 .L0 
     /tmp/cccZ5YIL.s:811    .text:00000000000005d8 .L0 
     /tmp/cccZ5YIL.s:892    .rodata.str1.8:00000000000000a8 .LC8
     /tmp/cccZ5YIL.s:816    .text:00000000000005e8 .L0 
     /tmp/cccZ5YIL.s:837    .text:000000000000062c .L0 
     /tmp/cccZ5YIL.s:58     .text:000000000000003c .L9
     /tmp/cccZ5YIL.s:157    .text:00000000000000ec .L16
     /tmp/cccZ5YIL.s:202    .text:000000000000014c .L14
     /tmp/cccZ5YIL.s:140    .text:00000000000000cc .L11
GAS LISTING /tmp/cccZ5YIL.s 			page 29


     /tmp/cccZ5YIL.s:214    .text:0000000000000168 .L12
     /tmp/cccZ5YIL.s:184    .text:0000000000000124 .L13
     /tmp/cccZ5YIL.s:167    .text:00000000000000fc .L17
     /tmp/cccZ5YIL.s:313    .text:000000000000020c .L19
     /tmp/cccZ5YIL.s:294    .text:00000000000001e4 .L20
     /tmp/cccZ5YIL.s:549    .text:00000000000003e4 .L28
     /tmp/cccZ5YIL.s:539    .text:00000000000003d8 .L27
     /tmp/cccZ5YIL.s:768    .text:000000000000057c .L36
     /tmp/cccZ5YIL.s:703    .text:00000000000004e4 .L35
     /tmp/cccZ5YIL.s:693    .text:00000000000004e0 .L32
     /tmp/cccZ5YIL.s:663    .text:00000000000004ac .L33
     /tmp/cccZ5YIL.s:618    .text:0000000000000448 .L38
     /tmp/cccZ5YIL.s:779    .text:0000000000000580 .L31
     /tmp/cccZ5YIL.s:670    .text:00000000000004b0 .L34
     /tmp/cccZ5YIL.s:2705   .debug_abbrev:0000000000000000 .Ldebug_abbrev0
     /tmp/cccZ5YIL.s:4354   .debug_str:00000000000002b7 .LASF114
     /tmp/cccZ5YIL.s:4470   .debug_str:0000000000000674 .LASF115
     /tmp/cccZ5YIL.s:4450   .debug_str:00000000000005f3 .LASF116
     /tmp/cccZ5YIL.s:8      .text:0000000000000000 .Ltext0
     /tmp/cccZ5YIL.s:901    .text:0000000000000664 .Letext0
     /tmp/cccZ5YIL.s:4256   .debug_line:0000000000000000 .Ldebug_line0
     /tmp/cccZ5YIL.s:4272   .debug_str:0000000000000062 .LASF0
     /tmp/cccZ5YIL.s:4486   .debug_str:0000000000000705 .LASF1
     /tmp/cccZ5YIL.s:4484   .debug_str:00000000000006ff .LASF3
     /tmp/cccZ5YIL.s:4468   .debug_str:0000000000000666 .LASF2
     /tmp/cccZ5YIL.s:4456   .debug_str:0000000000000621 .LASF4
     /tmp/cccZ5YIL.s:4462   .debug_str:000000000000063f .LASF5
     /tmp/cccZ5YIL.s:4334   .debug_str:0000000000000225 .LASF6
     /tmp/cccZ5YIL.s:4362   .debug_str:0000000000000394 .LASF7
     /tmp/cccZ5YIL.s:4428   .debug_str:0000000000000580 .LASF8
     /tmp/cccZ5YIL.s:4290   .debug_str:00000000000000d5 .LASF9
     /tmp/cccZ5YIL.s:4482   .debug_str:00000000000006f1 .LASF10
     /tmp/cccZ5YIL.s:4336   .debug_str:000000000000022c .LASF11
     /tmp/cccZ5YIL.s:4300   .debug_str:000000000000011e .LASF12
     /tmp/cccZ5YIL.s:4366   .debug_str:00000000000003cc .LASF13
     /tmp/cccZ5YIL.s:4340   .debug_str:0000000000000249 .LASF14
     /tmp/cccZ5YIL.s:4448   .debug_str:00000000000005e7 .LASF15
     /tmp/cccZ5YIL.s:4346   .debug_str:0000000000000267 .LASF16
     /tmp/cccZ5YIL.s:4320   .debug_str:00000000000001c5 .LASF17
     /tmp/cccZ5YIL.s:4360   .debug_str:000000000000038f .LASF18
     /tmp/cccZ5YIL.s:4382   .debug_str:0000000000000421 .LASF19
     /tmp/cccZ5YIL.s:4286   .debug_str:00000000000000c8 .LASF35
     /tmp/cccZ5YIL.s:4266   .debug_str:000000000000003b .LASF20
     /tmp/cccZ5YIL.s:4262   .debug_str:000000000000001a .LASF21
     /tmp/cccZ5YIL.s:4460   .debug_str:000000000000063a .LASF22
     /tmp/cccZ5YIL.s:4312   .debug_str:000000000000017f .LASF24
     /tmp/cccZ5YIL.s:4338   .debug_str:000000000000023b .LASF59
     /tmp/cccZ5YIL.s:4348   .debug_str:000000000000027d .LASF61
     /tmp/cccZ5YIL.s:4260   .debug_str:0000000000000010 .LASF37
     /tmp/cccZ5YIL.s:4496   .debug_str:0000000000000762 .LASF38
     /tmp/cccZ5YIL.s:4296   .debug_str:000000000000010a .LASF23
     /tmp/cccZ5YIL.s:4294   .debug_str:00000000000000f3 .LASF25
     /tmp/cccZ5YIL.s:4384   .debug_str:0000000000000426 .LASF117
     /tmp/cccZ5YIL.s:4324   .debug_str:00000000000001e5 .LASF26
     /tmp/cccZ5YIL.s:4378   .debug_str:000000000000040e .LASF27
     /tmp/cccZ5YIL.s:4452   .debug_str:0000000000000616 .LASF28
     /tmp/cccZ5YIL.s:4376   .debug_str:0000000000000408 .LASF29
GAS LISTING /tmp/cccZ5YIL.s 			page 30


     /tmp/cccZ5YIL.s:4372   .debug_str:00000000000003f5 .LASF30
     /tmp/cccZ5YIL.s:4332   .debug_str:0000000000000220 .LASF31
     /tmp/cccZ5YIL.s:4408   .debug_str:0000000000000508 .LASF32
     /tmp/cccZ5YIL.s:4342   .debug_str:0000000000000259 .LASF33
     /tmp/cccZ5YIL.s:4410   .debug_str:000000000000050f .LASF34
     /tmp/cccZ5YIL.s:4350   .debug_str:000000000000029a .LASF36
     /tmp/cccZ5YIL.s:4310   .debug_str:000000000000016a .LASF39
     /tmp/cccZ5YIL.s:4358   .debug_str:0000000000000385 .LASF44
     /tmp/cccZ5YIL.s:4386   .debug_str:0000000000000433 .LASF46
     /tmp/cccZ5YIL.s:4278   .debug_str:0000000000000079 .LASF40
     /tmp/cccZ5YIL.s:4390   .debug_str:0000000000000466 .LASF41
     /tmp/cccZ5YIL.s:4426   .debug_str:0000000000000574 .LASF42
     /tmp/cccZ5YIL.s:4412   .debug_str:0000000000000515 .LASF43
     /tmp/cccZ5YIL.s:4444   .debug_str:00000000000005d0 .LASF45
     /tmp/cccZ5YIL.s:4284   .debug_str:00000000000000b2 .LASF47
     /tmp/cccZ5YIL.s:4498   .debug_str:000000000000077a .LASF48
     /tmp/cccZ5YIL.s:4282   .debug_str:000000000000009b .LASF49
     /tmp/cccZ5YIL.s:4424   .debug_str:000000000000056e .LASF57
     /tmp/cccZ5YIL.s:4500   .debug_str:0000000000000781 .LASF65
     /tmp/cccZ5YIL.s:4326   .debug_str:00000000000001eb .LASF50
     /tmp/cccZ5YIL.s:4434   .debug_str:000000000000059d .LASF51
     /tmp/cccZ5YIL.s:4298   .debug_str:0000000000000113 .LASF118
     /tmp/cccZ5YIL.s:4370   .debug_str:00000000000003e8 .LASF52
     /tmp/cccZ5YIL.s:4322   .debug_str:00000000000001db .LASF53
     /tmp/cccZ5YIL.s:4490   .debug_str:000000000000072a .LASF54
     /tmp/cccZ5YIL.s:4352   .debug_str:00000000000002a3 .LASF55
     /tmp/cccZ5YIL.s:4318   .debug_str:00000000000001b5 .LASF56
     /tmp/cccZ5YIL.s:4264   .debug_str:000000000000002b .LASF58
     /tmp/cccZ5YIL.s:4380   .debug_str:0000000000000414 .LASF60
     /tmp/cccZ5YIL.s:4280   .debug_str:0000000000000083 .LASF62
     /tmp/cccZ5YIL.s:4466   .debug_str:0000000000000660 .LASF63
     /tmp/cccZ5YIL.s:4414   .debug_str:000000000000053e .LASF64
     /tmp/cccZ5YIL.s:4492   .debug_str:0000000000000740 .LASF66
     /tmp/cccZ5YIL.s:4406   .debug_str:00000000000004fb .LASF67
     /tmp/cccZ5YIL.s:4328   .debug_str:00000000000001fa .LASF68
     /tmp/cccZ5YIL.s:4258   .debug_str:0000000000000000 .LASF69
     /tmp/cccZ5YIL.s:4398   .debug_str:00000000000004be .LASF70
     /tmp/cccZ5YIL.s:4404   .debug_str:00000000000004eb .LASF71
     /tmp/cccZ5YIL.s:4464   .debug_str:0000000000000651 .LASF73
     /tmp/cccZ5YIL.s:4314   .debug_str:0000000000000192 .LASF72
     /tmp/cccZ5YIL.s:4442   .debug_str:00000000000005c1 .LASF74
     /tmp/cccZ5YIL.s:4368   .debug_str:00000000000003dc .LASF75
     /tmp/cccZ5YIL.s:4474   .debug_str:00000000000006a6 .LASF76
     /tmp/cccZ5YIL.s:4304   .debug_str:0000000000000134 .LASF119
     /tmp/cccZ5YIL.s:4306   .debug_str:0000000000000156 .LASF77
     /tmp/cccZ5YIL.s:4330   .debug_str:0000000000000208 .LASF78
     /tmp/cccZ5YIL.s:4438   .debug_str:00000000000005ac .LASF79
     /tmp/cccZ5YIL.s:4364   .debug_str:00000000000003a7 .LASF80
     /tmp/cccZ5YIL.s:4418   .debug_str:0000000000000553 .LASF81
     /tmp/cccZ5YIL.s:4392   .debug_str:000000000000048c .LASF82
     /tmp/cccZ5YIL.s:4422   .debug_str:0000000000000561 .LASF83
     /tmp/cccZ5YIL.s:4270   .debug_str:0000000000000048 .LASF84
     /tmp/cccZ5YIL.s:4480   .debug_str:00000000000006df .LASF85
     /tmp/cccZ5YIL.s:4458   .debug_str:0000000000000628 .LASF86
     /tmp/cccZ5YIL.s:4374   .debug_str:00000000000003fd .LASF87
     /tmp/cccZ5YIL.s:4402   .debug_str:00000000000004d9 .LASF88
     /tmp/cccZ5YIL.s:4476   .debug_str:00000000000006bf .LASF89
GAS LISTING /tmp/cccZ5YIL.s 			page 31


     /tmp/cccZ5YIL.s:4446   .debug_str:00000000000005d7 .LASF90
     /tmp/cccZ5YIL.s:4440   .debug_str:00000000000005b3 .LASF91
     /tmp/cccZ5YIL.s:4416   .debug_str:0000000000000544 .LASF92
     /tmp/cccZ5YIL.s:4388   .debug_str:0000000000000459 .LASF93
     /tmp/cccZ5YIL.s:4316   .debug_str:00000000000001a5 .LASF94
     /tmp/cccZ5YIL.s:4472   .debug_str:0000000000000698 .LASF95
     /tmp/cccZ5YIL.s:4488   .debug_str:0000000000000718 .LASF96
     /tmp/cccZ5YIL.s:4396   .debug_str:00000000000004ae .LASF97
     /tmp/cccZ5YIL.s:4394   .debug_str:00000000000004a1 .LASF120
     /tmp/cccZ5YIL.s:562    .text:00000000000003ec .LFB122
     /tmp/cccZ5YIL.s:863    .text:0000000000000664 .LFE122
     /tmp/cccZ5YIL.s:4420   .debug_str:000000000000055c .LASF100
     /tmp/cccZ5YIL.s:3733   .debug_loc:0000000000000000 .LLST21
     /tmp/cccZ5YIL.s:3755   .debug_loc:000000000000005f .LLST22
     /tmp/cccZ5YIL.s:4218   .debug_ranges:0000000000000000 .Ldebug_ranges0
     /tmp/cccZ5YIL.s:3785   .debug_loc:00000000000000e4 .LLST23
     /tmp/cccZ5YIL.s:3797   .debug_loc:000000000000011b .LLST24
     /tmp/cccZ5YIL.s:4274   .debug_str:000000000000006f .LASF98
     /tmp/cccZ5YIL.s:3804   .debug_loc:000000000000013e .LLST25
     /tmp/cccZ5YIL.s:3819   .debug_loc:0000000000000187 .LLST26
     /tmp/cccZ5YIL.s:3831   .debug_loc:00000000000001be .LLST27
     /tmp/cccZ5YIL.s:626    .text:0000000000000448 .LBB22
     /tmp/cccZ5YIL.s:664    .text:00000000000004ac .LBE22
     /tmp/cccZ5YIL.s:4276   .debug_str:0000000000000074 .LASF99
     /tmp/cccZ5YIL.s:3846   .debug_loc:0000000000000207 .LLST28
     /tmp/cccZ5YIL.s:635    .text:0000000000000458 .LVL65
     /tmp/cccZ5YIL.s:643    .text:000000000000046c .LVL68
     /tmp/cccZ5YIL.s:647    .text:000000000000047c .LVL69
     /tmp/cccZ5YIL.s:653    .text:0000000000000490 .LVL70
     /tmp/cccZ5YIL.s:657    .text:00000000000004a0 .LVL71
     /tmp/cccZ5YIL.s:662    .text:00000000000004ac .LVL72
     /tmp/cccZ5YIL.s:680    .text:00000000000004c8 .LVL74
     /tmp/cccZ5YIL.s:688    .text:00000000000004d8 .LVL76
     /tmp/cccZ5YIL.s:733    .text:0000000000000520 .LVL83
     /tmp/cccZ5YIL.s:741    .text:0000000000000534 .LVL86
     /tmp/cccZ5YIL.s:745    .text:0000000000000544 .LVL87
     /tmp/cccZ5YIL.s:751    .text:0000000000000558 .LVL88
     /tmp/cccZ5YIL.s:755    .text:0000000000000568 .LVL89
     /tmp/cccZ5YIL.s:760    .text:0000000000000574 .LVL90
     /tmp/cccZ5YIL.s:713    .text:00000000000004fc .LVL79
     /tmp/cccZ5YIL.s:721    .text:000000000000050c .LVL81
     /tmp/cccZ5YIL.s:603    .text:0000000000000430 .LVL61
     /tmp/cccZ5YIL.s:608    .text:000000000000043c .LVL62
     /tmp/cccZ5YIL.s:784    .text:0000000000000590 .LVL94
     /tmp/cccZ5YIL.s:791    .text:00000000000005a4 .LVL95
     /tmp/cccZ5YIL.s:796    .text:00000000000005b4 .LVL96
     /tmp/cccZ5YIL.s:801    .text:00000000000005c4 .LVL97
     /tmp/cccZ5YIL.s:808    .text:00000000000005d8 .LVL98
     /tmp/cccZ5YIL.s:813    .text:00000000000005e8 .LVL99
     /tmp/cccZ5YIL.s:818    .text:00000000000005f8 .LVL100
     /tmp/cccZ5YIL.s:823    .text:0000000000000604 .LVL101
     /tmp/cccZ5YIL.s:829    .text:000000000000061c .LVL102
     /tmp/cccZ5YIL.s:834    .text:000000000000062c .LVL103
     /tmp/cccZ5YIL.s:839    .text:000000000000063c .LVL104
     /tmp/cccZ5YIL.s:496    .text:00000000000003a4 .LFB121
     /tmp/cccZ5YIL.s:556    .text:00000000000003ec .LFE121
     /tmp/cccZ5YIL.s:3857   .debug_loc:000000000000023d .LLST19
GAS LISTING /tmp/cccZ5YIL.s 			page 32


     /tmp/cccZ5YIL.s:4268   .debug_str:0000000000000043 .LASF101
     /tmp/cccZ5YIL.s:3882   .debug_loc:000000000000029f .LLST20
     /tmp/cccZ5YIL.s:520    .text:00000000000003c8 .LBB11
     /tmp/cccZ5YIL.s:527    .text:00000000000003d0 .LBE11
     /tmp/cccZ5YIL.s:421    .text:00000000000002d8 .LFB120
     /tmp/cccZ5YIL.s:490    .text:00000000000003a4 .LFE120
     /tmp/cccZ5YIL.s:3889   .debug_loc:00000000000002c2 .LLST18
     /tmp/cccZ5YIL.s:444    .text:0000000000000314 .LVL47
     /tmp/cccZ5YIL.s:454    .text:000000000000033c .LVL48
     /tmp/cccZ5YIL.s:464    .text:0000000000000364 .LVL49
     /tmp/cccZ5YIL.s:474    .text:000000000000038c .LVL50
     /tmp/cccZ5YIL.s:344    .text:0000000000000230 .LFB119
     /tmp/cccZ5YIL.s:415    .text:00000000000002d8 .LFE119
     /tmp/cccZ5YIL.s:3907   .debug_loc:000000000000030e .LLST15
     /tmp/cccZ5YIL.s:3925   .debug_loc:000000000000035a .LLST16
     /tmp/cccZ5YIL.s:3937   .debug_loc:0000000000000391 .LLST17
     /tmp/cccZ5YIL.s:372    .text:000000000000026c .LVL41
     /tmp/cccZ5YIL.s:381    .text:0000000000000288 .LVL42
     /tmp/cccZ5YIL.s:390    .text:00000000000002a4 .LVL43
     /tmp/cccZ5YIL.s:399    .text:00000000000002c0 .LVL44
     /tmp/cccZ5YIL.s:261    .text:00000000000001b0 .LFB118
     /tmp/cccZ5YIL.s:338    .text:0000000000000230 .LFE118
     /tmp/cccZ5YIL.s:3945   .debug_loc:00000000000003b5 .LLST8
     /tmp/cccZ5YIL.s:4454   .debug_str:000000000000061b .LASF102
     /tmp/cccZ5YIL.s:3963   .debug_loc:0000000000000401 .LLST9
     /tmp/cccZ5YIL.s:3977   .debug_loc:000000000000043a .LLST10
     /tmp/cccZ5YIL.s:4436   .debug_str:00000000000005a7 .LASF103
     /tmp/cccZ5YIL.s:3995   .debug_loc:0000000000000486 .LLST11
     /tmp/cccZ5YIL.s:4302   .debug_str:000000000000012d .LASF104
     /tmp/cccZ5YIL.s:4013   .debug_loc:00000000000004d2 .LLST12
     /tmp/cccZ5YIL.s:4344   .debug_str:0000000000000262 .LASF105
     /tmp/cccZ5YIL.s:4030   .debug_loc:000000000000050f .LLST13
     /tmp/cccZ5YIL.s:4048   .debug_loc:000000000000055b .LLST14
     /tmp/cccZ5YIL.s:305    .text:0000000000000200 .LVL31
     /tmp/cccZ5YIL.s:108    .text:0000000000000090 .LFB117
     /tmp/cccZ5YIL.s:255    .text:00000000000001b0 .LFE117
     /tmp/cccZ5YIL.s:4055   .debug_loc:000000000000057e .LLST1
     /tmp/cccZ5YIL.s:4084   .debug_loc:00000000000005f3 .LLST2
     /tmp/cccZ5YIL.s:4110   .debug_loc:0000000000000665 .LLST3
     /tmp/cccZ5YIL.s:4136   .debug_loc:00000000000006d7 .LLST4
     /tmp/cccZ5YIL.s:4430   .debug_str:0000000000000593 .LASF106
     /tmp/cccZ5YIL.s:4162   .debug_loc:0000000000000749 .LLST5
     /tmp/cccZ5YIL.s:4288   .debug_str:00000000000000d0 .LASF107
     /tmp/cccZ5YIL.s:4174   .debug_loc:0000000000000780 .LLST6
     /tmp/cccZ5YIL.s:4185   .debug_loc:00000000000007b6 .LLST7
     /tmp/cccZ5YIL.s:174    .text:000000000000010c .LVL12
     /tmp/cccZ5YIL.s:178    .text:0000000000000114 .LVL13
     /tmp/cccZ5YIL.s:183    .text:0000000000000124 .LVL14
     /tmp/cccZ5YIL.s:189    .text:0000000000000130 .LVL15
     /tmp/cccZ5YIL.s:196    .text:0000000000000144 .LVL16
     /tmp/cccZ5YIL.s:210    .text:0000000000000160 .LVL19
     /tmp/cccZ5YIL.s:148    .text:00000000000000e0 .LVL7
     /tmp/cccZ5YIL.s:162    .text:00000000000000f4 .LVL10
     /tmp/cccZ5YIL.s:221    .text:0000000000000178 .LVL20
     /tmp/cccZ5YIL.s:227    .text:0000000000000188 .LVL21
     /tmp/cccZ5YIL.s:44     .text:000000000000001c .LFB116
     /tmp/cccZ5YIL.s:102    .text:0000000000000090 .LFE116
GAS LISTING /tmp/cccZ5YIL.s 			page 33


     /tmp/cccZ5YIL.s:72     .text:0000000000000050 .LBB7
     /tmp/cccZ5YIL.s:82     .text:0000000000000060 .LBE7
     /tmp/cccZ5YIL.s:4197   .debug_loc:00000000000007ed .LLST0
     /tmp/cccZ5YIL.s:78     .text:000000000000005c .LVL2
     /tmp/cccZ5YIL.s:84     .text:0000000000000068 .LVL4
     /tmp/cccZ5YIL.s:4292   .debug_str:00000000000000e5 .LASF121
     /tmp/cccZ5YIL.s:13     .text:0000000000000000 .LFB114
     /tmp/cccZ5YIL.s:36     .text:000000000000001c .LFE114
     /tmp/cccZ5YIL.s:4494   .debug_str:000000000000074e .LASF108
     /tmp/cccZ5YIL.s:4400   .debug_str:00000000000004cc .LASF110
     /tmp/cccZ5YIL.s:4478   .debug_str:00000000000006cf .LASF109
     /tmp/cccZ5YIL.s:4356   .debug_str:000000000000037b .LASF111
     /tmp/cccZ5YIL.s:4308   .debug_str:0000000000000161 .LASF112
     /tmp/cccZ5YIL.s:4432   .debug_str:0000000000000598 .LASF113
     /tmp/cccZ5YIL.s:565    .text:00000000000003ec .LVL57
     /tmp/cccZ5YIL.s:601    .text:0000000000000428 .LVL60
     /tmp/cccZ5YIL.s:767    .text:000000000000057c .LVL92
     /tmp/cccZ5YIL.s:778    .text:0000000000000580 .LVL93
     /tmp/cccZ5YIL.s:587    .text:0000000000000414 .LVL58
     /tmp/cccZ5YIL.s:597    .text:0000000000000420 .LVL59
     /tmp/cccZ5YIL.s:617    .text:0000000000000448 .LVL63
     /tmp/cccZ5YIL.s:630    .text:000000000000044c .LVL64
     /tmp/cccZ5YIL.s:728    .text:0000000000000514 .LVL82
     /tmp/cccZ5YIL.s:854    .text:0000000000000654 .LVL105
     /tmp/cccZ5YIL.s:715    .text:0000000000000500 .LVL80
     /tmp/cccZ5YIL.s:765    .text:0000000000000578 .LVL91
     /tmp/cccZ5YIL.s:692    .text:00000000000004e0 .LVL77
     /tmp/cccZ5YIL.s:735    .text:0000000000000524 .LVL84
     /tmp/cccZ5YIL.s:739    .text:000000000000052c .LVL85
     /tmp/cccZ5YIL.s:637    .text:000000000000045c .LVL66
     /tmp/cccZ5YIL.s:682    .text:00000000000004cc .LVL75
     /tmp/cccZ5YIL.s:641    .text:0000000000000464 .LVL67
     /tmp/cccZ5YIL.s:499    .text:00000000000003a4 .LVL52
     /tmp/cccZ5YIL.s:538    .text:00000000000003d8 .LVL54
     /tmp/cccZ5YIL.s:548    .text:00000000000003e4 .LVL55
     /tmp/cccZ5YIL.s:553    .text:00000000000003e8 .LVL56
     /tmp/cccZ5YIL.s:518    .text:00000000000003c8 .LVL53
     /tmp/cccZ5YIL.s:424    .text:00000000000002d8 .LVL46
     /tmp/cccZ5YIL.s:485    .text:000000000000039c .LVL51
     /tmp/cccZ5YIL.s:347    .text:0000000000000230 .LVL37
     /tmp/cccZ5YIL.s:410    .text:00000000000002d0 .LVL45
     /tmp/cccZ5YIL.s:366    .text:0000000000000254 .LVL39
     /tmp/cccZ5YIL.s:369    .text:0000000000000260 .LVL40
     /tmp/cccZ5YIL.s:264    .text:00000000000001b0 .LVL27
     /tmp/cccZ5YIL.s:292    .text:00000000000001e4 .LVL30
     /tmp/cccZ5YIL.s:333    .text:0000000000000228 .LVL36
     /tmp/cccZ5YIL.s:327    .text:0000000000000220 .LVL34
     /tmp/cccZ5YIL.s:330    .text:0000000000000224 .LVL35
     /tmp/cccZ5YIL.s:284    .text:00000000000001d8 .LVL28
     /tmp/cccZ5YIL.s:287    .text:00000000000001dc .LVL29
     /tmp/cccZ5YIL.s:324    .text:000000000000021c .LVL33
     /tmp/cccZ5YIL.s:111    .text:0000000000000090 .LVL5
     /tmp/cccZ5YIL.s:139    .text:00000000000000cc .LVL6
     /tmp/cccZ5YIL.s:150    .text:00000000000000e4 .LVL8
     /tmp/cccZ5YIL.s:156    .text:00000000000000ec .LVL9
     /tmp/cccZ5YIL.s:166    .text:00000000000000fc .LVL11
     /tmp/cccZ5YIL.s:244    .text:00000000000001a0 .LVL24
GAS LISTING /tmp/cccZ5YIL.s 			page 34


     /tmp/cccZ5YIL.s:247    .text:00000000000001a4 .LVL25
     /tmp/cccZ5YIL.s:250    .text:00000000000001a8 .LVL26
     /tmp/cccZ5YIL.s:238    .text:0000000000000198 .LVL22
     /tmp/cccZ5YIL.s:241    .text:000000000000019c .LVL23
     /tmp/cccZ5YIL.s:71     .text:0000000000000050 .LVL1
     /tmp/cccZ5YIL.s:80     .text:0000000000000060 .LVL3
     /tmp/cccZ5YIL.s:907    .debug_info:0000000000000000 .Ldebug_info0
     /tmp/cccZ5YIL.s:152    .text:00000000000000e4 .LBB9
     /tmp/cccZ5YIL.s:158    .text:00000000000000ec .LBE9
     /tmp/cccZ5YIL.s:168    .text:00000000000000fc .LBB10
     /tmp/cccZ5YIL.s:215    .text:0000000000000168 .LBE10
     /tmp/cccZ5YIL.s:610    .text:000000000000043c .LBB15
     /tmp/cccZ5YIL.s:613    .text:0000000000000440 .LBE15
     /tmp/cccZ5YIL.s:619    .text:0000000000000448 .LBB29
     /tmp/cccZ5YIL.s:773    .text:000000000000057c .LBE29
     /tmp/cccZ5YIL.s:620    .text:0000000000000448 .LBB16
     /tmp/cccZ5YIL.s:699    .text:00000000000004e0 .LBE16
     /tmp/cccZ5YIL.s:707    .text:00000000000004ec .LBB28
     /tmp/cccZ5YIL.s:772    .text:000000000000057c .LBE28
     /tmp/cccZ5YIL.s:622    .text:0000000000000448 .LBB18
     /tmp/cccZ5YIL.s:697    .text:00000000000004e0 .LBE18
     /tmp/cccZ5YIL.s:724    .text:0000000000000510 .LBB26
     /tmp/cccZ5YIL.s:770    .text:000000000000057c .LBE26
     /tmp/cccZ5YIL.s:623    .text:0000000000000448 .LBB19
     /tmp/cccZ5YIL.s:696    .text:00000000000004e0 .LBE19
     /tmp/cccZ5YIL.s:762    .text:0000000000000574 .LBB25
     /tmp/cccZ5YIL.s:769    .text:000000000000057c .LBE25
     /tmp/cccZ5YIL.s:624    .text:0000000000000448 .LBB20
     /tmp/cccZ5YIL.s:666    .text:00000000000004ac .LBE20
     /tmp/cccZ5YIL.s:674    .text:00000000000004b8 .LBB24
     /tmp/cccZ5YIL.s:695    .text:00000000000004e0 .LBE24

UNDEFINED SYMBOLS
_ZN7NoAlloc9mem_allocEm
_ZN3PMT9get_entryEhPv
_ZN3PMT12allocate_pmtEv
_ZN8PMTEntry9set_flagsE12PMTEntryBits
_ZN8PMTEntry6set_paEPv
_ZN8PMTEntry6get_paEv
_ZN8PMTEntry9chk_flagsE12PMTEntryBits
HEAP_END_ADDR
KERNEL_TEXT_START
USER_TEXT_END
USER_TEXT_START
USER_BSS_END
USER_BSS_START
USER_DATA_END
USER_DATA_START
USER_RODATA_END
USER_RODATA_START
_ZN7NoAlloc7workingE
_Z12kprintStringPKc
_ZN3PMT5printEv
_Z9kprintIntmib
_ZN3PMT9get_entryEm
_Z4log2m
