GAS LISTING /tmp/cccFR6Ub.s 			page 1


   1              		.file	"pager.cpp"
   2              		.option nopic
   3              		.option norelax
   4              		.attribute arch, "rv64i2p0_m2p0_a2p0"
   5              		.attribute unaligned_access, 0
   6              		.attribute stack_align, 16
   7              		.text
   8              	.Ltext0:
   9              		.align	2
  10              		.globl	_ZN5PagerC2Ev
  12              	_ZN5PagerC2Ev:
  13              	.LFB114:
  14              		.file 1 "src/kernel/virtualization/pager.cpp"
   1:src/kernel/virtualization/pager.cpp **** #include"../../../h/kernel_lib.h"
   2:src/kernel/virtualization/pager.cpp **** 
   3:src/kernel/virtualization/pager.cpp **** Pager* Pager::p = nullptr;
   4:src/kernel/virtualization/pager.cpp **** 
   5:src/kernel/virtualization/pager.cpp **** Pager::Pager():pmt(nullptr){}
  15              		.loc 1 5 1
  16              		.cfi_startproc
  17              	.LVL0:
  18 0000 130101FF 		addi	sp,sp,-16
  19              		.cfi_def_cfa_offset 16
  20 0004 23348100 		sd	s0,8(sp)
  21              		.cfi_offset 8, -8
  22 0008 13040101 		addi	s0,sp,16
  23              		.cfi_def_cfa 8, 0
  24              	.LBB8:
  25              		.loc 1 5 27 is_stmt 0
  26 000c 23300500 		sd	zero,0(a0)
  27              	.LBE8:
  28              		.loc 1 5 29
  29 0010 03348100 		ld	s0,8(sp)
  30              		.cfi_restore 8
  31              		.cfi_def_cfa 2, 16
  32 0014 13010101 		addi	sp,sp,16
  33              		.cfi_def_cfa_offset 0
  34 0018 67800000 		jr	ra
  35              		.cfi_endproc
  36              	.LFE114:
  38              		.globl	_ZN5PagerC1Ev
  39              		.set	_ZN5PagerC1Ev,_ZN5PagerC2Ev
  40              		.align	2
  41              		.globl	_ZN5Pager11getInstanceEv
  43              	_ZN5Pager11getInstanceEv:
  44              	.LFB116:
   6:src/kernel/virtualization/pager.cpp **** 
   7:src/kernel/virtualization/pager.cpp **** Pager& Pager::getInstance(){
  45              		.loc 1 7 28 is_stmt 1
  46              		.cfi_startproc
   8:src/kernel/virtualization/pager.cpp ****     if(!p) p = new Pager();
  47              		.loc 1 8 5
  48              		.loc 1 8 8 is_stmt 0
  49 001c 97070000 		lla	a5,_ZN5Pager1pE
  49      93870700 
  50 0024 83B70700 		ld	a5,0(a5)
  51              		.loc 1 8 5
GAS LISTING /tmp/cccFR6Ub.s 			page 2


  52 0028 638A0700 		beq	a5,zero,.L10
   9:src/kernel/virtualization/pager.cpp ****     
  10:src/kernel/virtualization/pager.cpp ****     return *p;
  53              		.loc 1 10 5 is_stmt 1
  11:src/kernel/virtualization/pager.cpp **** }
  54              		.loc 1 11 1 is_stmt 0
  55 002c 97070000 		lla	a5,_ZN5Pager1pE
  55      93870700 
  56 0034 03B50700 		ld	a0,0(a5)
  57 0038 67800000 		ret
  58              	.L10:
   7:src/kernel/virtualization/pager.cpp ****     if(!p) p = new Pager();
  59              		.loc 1 7 28
  60 003c 130101FE 		addi	sp,sp,-32
  61              		.cfi_def_cfa_offset 32
  62 0040 233C1100 		sd	ra,24(sp)
  63 0044 23388100 		sd	s0,16(sp)
  64 0048 23349100 		sd	s1,8(sp)
  65              		.cfi_offset 1, -8
  66              		.cfi_offset 8, -16
  67              		.cfi_offset 9, -24
  68 004c 13040102 		addi	s0,sp,32
  69              		.cfi_def_cfa 8, 0
   8:src/kernel/virtualization/pager.cpp ****     
  70              		.loc 1 8 12 is_stmt 1
  71              	.LVL1:
  72              	.LBB9:
  73              	.LBB10:
  74              		.file 2 "src/kernel/virtualization/../../../h/../h/pager.h"
   1:src/kernel/virtualization/../../../h/../h/pager.h **** #ifndef PAGER_H
   2:src/kernel/virtualization/../../../h/../h/pager.h **** #define PAGER_H
   3:src/kernel/virtualization/../../../h/../h/pager.h **** #include"../h/pmt.h"
   4:src/kernel/virtualization/../../../h/../h/pager.h **** #include "noalloc_allocator.hpp"
   5:src/kernel/virtualization/../../../h/../h/pager.h **** 
   6:src/kernel/virtualization/../../../h/../h/pager.h **** class Pager{
   7:src/kernel/virtualization/../../../h/../h/pager.h ****     
   8:src/kernel/virtualization/../../../h/../h/pager.h ****     static Pager* p;
   9:src/kernel/virtualization/../../../h/../h/pager.h ****     PMT* pmt;
  10:src/kernel/virtualization/../../../h/../h/pager.h ****     Pager();
  11:src/kernel/virtualization/../../../h/../h/pager.h **** 
  12:src/kernel/virtualization/../../../h/../h/pager.h ****     __NOALLOC_OPERATORS__
  75              		.loc 2 12 5
  76 0050 13058000 		li	a0,8
  77 0054 97000000 		call	_ZN7NoAlloc9mem_allocEm
  77      E7800000 
  78              	.LVL2:
  79 005c 93040500 		mv	s1,a0
  80              	.LVL3:
  81              	.LBE10:
  82              	.LBE9:
   8:src/kernel/virtualization/pager.cpp ****     
  83              		.loc 1 8 26 is_stmt 0
  84 0060 63060500 		beq	a0,zero,.L5
  85 0064 97000000 		call	_ZN5PagerC1Ev
  85      E7800000 
  86              	.LVL4:
  87              	.L5:
GAS LISTING /tmp/cccFR6Ub.s 			page 3


   8:src/kernel/virtualization/pager.cpp ****     
  88              		.loc 1 8 14 discriminator 5
  89 006c 97070000 		sd	s1,_ZN5Pager1pE,a5
  89      23B09700 
  10:src/kernel/virtualization/pager.cpp **** }
  90              		.loc 1 10 5 is_stmt 1 discriminator 5
  91              		.loc 1 11 1 is_stmt 0 discriminator 5
  92 0074 97070000 		lla	a5,_ZN5Pager1pE
  92      93870700 
  93 007c 03B50700 		ld	a0,0(a5)
  94 0080 83308101 		ld	ra,24(sp)
  95              		.cfi_restore 1
  96 0084 03340101 		ld	s0,16(sp)
  97              		.cfi_restore 8
  98              		.cfi_def_cfa 2, 32
  99 0088 83348100 		ld	s1,8(sp)
 100              		.cfi_restore 9
 101 008c 13010102 		addi	sp,sp,32
 102              		.cfi_def_cfa_offset 0
 103 0090 67800000 		jr	ra
 104              		.cfi_endproc
 105              	.LFE116:
 107              		.align	2
 108              		.globl	_ZN5Pager3mapEPvS0_12PMTEntryBits
 110              	_ZN5Pager3mapEPvS0_12PMTEntryBits:
 111              	.LFB117:
  12:src/kernel/virtualization/pager.cpp **** 
  13:src/kernel/virtualization/pager.cpp **** int Pager::map(void *va, void *pa, PMTEntryBits flag){
 112              		.loc 1 13 54 is_stmt 1
 113              		.cfi_startproc
 114              	.LVL5:
 115 0094 130101FC 		addi	sp,sp,-64
 116              		.cfi_def_cfa_offset 64
 117 0098 233C1102 		sd	ra,56(sp)
 118 009c 23388102 		sd	s0,48(sp)
 119 00a0 23349102 		sd	s1,40(sp)
 120 00a4 23302103 		sd	s2,32(sp)
 121 00a8 233C3101 		sd	s3,24(sp)
 122 00ac 23384101 		sd	s4,16(sp)
 123 00b0 23345101 		sd	s5,8(sp)
 124              		.cfi_offset 1, -8
 125              		.cfi_offset 8, -16
 126              		.cfi_offset 9, -24
 127              		.cfi_offset 18, -32
 128              		.cfi_offset 19, -40
 129              		.cfi_offset 20, -48
 130              		.cfi_offset 21, -56
 131 00b4 13040104 		addi	s0,sp,64
 132              		.cfi_def_cfa 8, 0
 133 00b8 93040500 		mv	s1,a0
 134 00bc 93890500 		mv	s3,a1
 135 00c0 130A0600 		mv	s4,a2
 136 00c4 938A0600 		mv	s5,a3
  14:src/kernel/virtualization/pager.cpp ****    
  15:src/kernel/virtualization/pager.cpp ****     if(!pmt)
 137              		.loc 1 15 5
 138              		.loc 1 15 9 is_stmt 0
GAS LISTING /tmp/cccFR6Ub.s 			page 4


 139 00c8 83370500 		ld	a5,0(a0)
 140              		.loc 1 15 5
 141 00cc 63820702 		beq	a5,zero,.L17
 142              	.LVL6:
 143              	.L12:
  16:src/kernel/virtualization/pager.cpp ****         pmt = PMT::allocate_pmt();
  17:src/kernel/virtualization/pager.cpp ****     
  18:src/kernel/virtualization/pager.cpp ****     PMT* curr = pmt;
 144              		.loc 1 18 5 is_stmt 1
  19:src/kernel/virtualization/pager.cpp ****     PMTEntry* pmte = curr->get_entry(2, va);
 145              		.loc 1 19 5
 146              		.loc 1 19 37 is_stmt 0
 147 00d0 13860900 		mv	a2,s3
 148 00d4 93052000 		li	a1,2
 149 00d8 03B50400 		ld	a0,0(s1)
 150 00dc 97000000 		call	_ZN3PMT9get_entryEhPv
 150      E7800000 
 151              	.LVL7:
 152 00e4 93040500 		mv	s1,a0
 153              	.LVL8:
  20:src/kernel/virtualization/pager.cpp ****     
  21:src/kernel/virtualization/pager.cpp ****     for(int i = 2; i > 0; i--){
 154              		.loc 1 21 5 is_stmt 1
 155              	.LBB11:
 156              		.loc 1 21 13 is_stmt 0
 157 00e8 13092000 		li	s2,2
 158 00ec 6F004006 		j	.L15
 159              	.LVL9:
 160              	.L17:
 161              	.LBE11:
  16:src/kernel/virtualization/pager.cpp ****     
 162              		.loc 1 16 9 is_stmt 1
  16:src/kernel/virtualization/pager.cpp ****     
 163              		.loc 1 16 32 is_stmt 0
 164 00f0 97000000 		call	_ZN3PMT12allocate_pmtEv
 164      E7800000 
 165              	.LVL10:
  16:src/kernel/virtualization/pager.cpp ****     
 166              		.loc 1 16 13
 167 00f8 23B0A400 		sd	a0,0(s1)
 168 00fc 6FF05FFD 		j	.L12
 169              	.LVL11:
 170              	.L18:
 171              	.LBB12:
  22:src/kernel/virtualization/pager.cpp ****        
  23:src/kernel/virtualization/pager.cpp ****         if(!(pmte->chk_flags(PMTEntryBits::valid))){
  24:src/kernel/virtualization/pager.cpp ****             pmte->set_flags(PMTEntryBits::valid);
 172              		.loc 1 24 13 is_stmt 1
 173              		.loc 1 24 28 is_stmt 0
 174 0100 93051000 		li	a1,1
 175 0104 13850400 		mv	a0,s1
 176 0108 97000000 		call	_ZN8PMTEntry9set_flagsE12PMTEntryBits
 176      E7800000 
 177              	.LVL12:
  25:src/kernel/virtualization/pager.cpp ****             pmte->set_pa(PMT::allocate_pmt());
 178              		.loc 1 25 13 is_stmt 1
 179              		.loc 1 25 43 is_stmt 0
GAS LISTING /tmp/cccFR6Ub.s 			page 5


 180 0110 97000000 		call	_ZN3PMT12allocate_pmtEv
 180      E7800000 
 181              	.LVL13:
 182              		.loc 1 25 25
 183 0118 93050500 		mv	a1,a0
 184 011c 13850400 		mv	a0,s1
 185 0120 97000000 		call	_ZN8PMTEntry6set_paEPv
 185      E7800000 
 186              	.LVL14:
 187              	.L14:
  26:src/kernel/virtualization/pager.cpp ****         }
  27:src/kernel/virtualization/pager.cpp ****        
  28:src/kernel/virtualization/pager.cpp ****         curr = (PMT*)pmte->get_pa();
 188              		.loc 1 28 9 is_stmt 1 discriminator 2
 189              		.loc 1 28 34 is_stmt 0 discriminator 2
 190 0128 13850400 		mv	a0,s1
 191 012c 97000000 		call	_ZN8PMTEntry6get_paEv
 191      E7800000 
 192              	.LVL15:
  29:src/kernel/virtualization/pager.cpp ****         
  30:src/kernel/virtualization/pager.cpp ****         pmte = curr->get_entry(i-1, va);
 193              		.loc 1 30 9 is_stmt 1 discriminator 2
 194              		.loc 1 30 31 is_stmt 0 discriminator 2
 195 0134 9B05F9FF 		addiw	a1,s2,-1
 196 0138 13860900 		mv	a2,s3
 197 013c 93F5F50F 		andi	a1,a1,0xff
 198 0140 97000000 		call	_ZN3PMT9get_entryEhPv
 198      E7800000 
 199              	.LVL16:
 200 0148 93040500 		mv	s1,a0
 201              	.LVL17:
  21:src/kernel/virtualization/pager.cpp ****        
 202              		.loc 1 21 5 discriminator 2
 203 014c 1B09F9FF 		addiw	s2,s2,-1
 204              	.LVL18:
 205              	.L15:
  21:src/kernel/virtualization/pager.cpp ****        
 206              		.loc 1 21 22 discriminator 1
 207 0150 635E2001 		ble	s2,zero,.L13
  23:src/kernel/virtualization/pager.cpp ****             pmte->set_flags(PMTEntryBits::valid);
 208              		.loc 1 23 9 is_stmt 1
  23:src/kernel/virtualization/pager.cpp ****             pmte->set_flags(PMTEntryBits::valid);
 209              		.loc 1 23 29 is_stmt 0
 210 0154 93051000 		li	a1,1
 211 0158 13850400 		mv	a0,s1
 212 015c 97000000 		call	_ZN8PMTEntry9chk_flagsE12PMTEntryBits
 212      E7800000 
 213              	.LVL19:
  23:src/kernel/virtualization/pager.cpp ****             pmte->set_flags(PMTEntryBits::valid);
 214              		.loc 1 23 9
 215 0164 E31205FC 		bne	a0,zero,.L14
 216 0168 6FF09FF9 		j	.L18
 217              	.L13:
 218              	.LBE12:
  31:src/kernel/virtualization/pager.cpp ****     }
  32:src/kernel/virtualization/pager.cpp ****     
  33:src/kernel/virtualization/pager.cpp ****     pmte->set_flags((PMTEntryBits)(PMTEntryBits::valid | flag));
GAS LISTING /tmp/cccFR6Ub.s 			page 6


 219              		.loc 1 33 5 is_stmt 1
 220              		.loc 1 33 20 is_stmt 0
 221 016c 93E51A00 		ori	a1,s5,1
 222 0170 13850400 		mv	a0,s1
 223 0174 97000000 		call	_ZN8PMTEntry9set_flagsE12PMTEntryBits
 223      E7800000 
 224              	.LVL20:
  34:src/kernel/virtualization/pager.cpp ****     pmte->set_pa(pa);
 225              		.loc 1 34 5 is_stmt 1
 226              		.loc 1 34 17 is_stmt 0
 227 017c 93050A00 		mv	a1,s4
 228 0180 13850400 		mv	a0,s1
 229 0184 97000000 		call	_ZN8PMTEntry6set_paEPv
 229      E7800000 
 230              	.LVL21:
  35:src/kernel/virtualization/pager.cpp ****     
  36:src/kernel/virtualization/pager.cpp **** 
  37:src/kernel/virtualization/pager.cpp ****     return 0;
 231              		.loc 1 37 5 is_stmt 1
  38:src/kernel/virtualization/pager.cpp **** }
 232              		.loc 1 38 1 is_stmt 0
 233 018c 13050000 		li	a0,0
 234 0190 83308103 		ld	ra,56(sp)
 235              		.cfi_restore 1
 236 0194 03340103 		ld	s0,48(sp)
 237              		.cfi_restore 8
 238              		.cfi_def_cfa 2, 64
 239 0198 83348102 		ld	s1,40(sp)
 240              		.cfi_restore 9
 241              	.LVL22:
 242 019c 03390102 		ld	s2,32(sp)
 243              		.cfi_restore 18
 244              	.LVL23:
 245 01a0 83398101 		ld	s3,24(sp)
 246              		.cfi_restore 19
 247              	.LVL24:
 248 01a4 033A0101 		ld	s4,16(sp)
 249              		.cfi_restore 20
 250              	.LVL25:
 251 01a8 833A8100 		ld	s5,8(sp)
 252              		.cfi_restore 21
 253              	.LVL26:
 254 01ac 13010104 		addi	sp,sp,64
 255              		.cfi_def_cfa_offset 0
 256 01b0 67800000 		jr	ra
 257              		.cfi_endproc
 258              	.LFE117:
 260              		.align	2
 261              		.globl	_ZN5Pager6id_mapEPvS0_12PMTEntryBits
 263              	_ZN5Pager6id_mapEPvS0_12PMTEntryBits:
 264              	.LFB118:
  39:src/kernel/virtualization/pager.cpp **** 
  40:src/kernel/virtualization/pager.cpp **** int Pager::id_map(void* start, void* end, PMTEntryBits flag){
 265              		.loc 1 40 61 is_stmt 1
 266              		.cfi_startproc
 267              	.LVL27:
 268 01b4 130101FD 		addi	sp,sp,-48
GAS LISTING /tmp/cccFR6Ub.s 			page 7


 269              		.cfi_def_cfa_offset 48
 270 01b8 23341102 		sd	ra,40(sp)
 271 01bc 23308102 		sd	s0,32(sp)
 272 01c0 233C9100 		sd	s1,24(sp)
 273 01c4 23382101 		sd	s2,16(sp)
 274 01c8 23343101 		sd	s3,8(sp)
 275 01cc 23304101 		sd	s4,0(sp)
 276              		.cfi_offset 1, -8
 277              		.cfi_offset 8, -16
 278              		.cfi_offset 9, -24
 279              		.cfi_offset 18, -32
 280              		.cfi_offset 19, -40
 281              		.cfi_offset 20, -48
 282 01d0 13040103 		addi	s0,sp,48
 283              		.cfi_def_cfa 8, 0
 284 01d4 130A0500 		mv	s4,a0
 285 01d8 93890600 		mv	s3,a3
  41:src/kernel/virtualization/pager.cpp ****     uint64 ustart = (uint64) start, uend = (uint64) end;
 286              		.loc 1 41 5
 287              	.LVL28:
 288              		.loc 1 41 37 is_stmt 0
 289 01dc 13090600 		mv	s2,a2
 290              	.LVL29:
  42:src/kernel/virtualization/pager.cpp ****     ustart = ustart & ~(0xfff);
 291              		.loc 1 42 5 is_stmt 1
 292              		.loc 1 42 12 is_stmt 0
 293 01e0 B7F4FFFF 		li	s1,-4096
 294 01e4 B3F49500 		and	s1,a1,s1
 295              	.LVL30:
  43:src/kernel/virtualization/pager.cpp ****     uint64 tmp = ustart;
 296              		.loc 1 43 5 is_stmt 1
 297              	.L21:
  44:src/kernel/virtualization/pager.cpp **** 
  45:src/kernel/virtualization/pager.cpp ****     while(tmp < uend){
 298              		.loc 1 45 5
 299              		.loc 1 45 15 is_stmt 0
 300 01e8 63F42403 		bgeu	s1,s2,.L20
  46:src/kernel/virtualization/pager.cpp ****         map((void*)tmp, (void*)tmp, flag);
 301              		.loc 1 46 9 is_stmt 1
 302              		.loc 1 46 12 is_stmt 0
 303 01ec 93860900 		mv	a3,s3
 304 01f0 13860400 		mv	a2,s1
 305 01f4 93850400 		mv	a1,s1
 306 01f8 13050A00 		mv	a0,s4
 307 01fc 97000000 		call	_ZN5Pager3mapEPvS0_12PMTEntryBits
 307      E7800000 
 308              	.LVL31:
  47:src/kernel/virtualization/pager.cpp ****         tmp += PMT::PAGE_SIZE;    
 309              		.loc 1 47 9 is_stmt 1
 310              		.loc 1 47 13 is_stmt 0
 311 0204 B7170000 		li	a5,4096
 312 0208 B384F400 		add	s1,s1,a5
 313              	.LVL32:
  45:src/kernel/virtualization/pager.cpp ****         map((void*)tmp, (void*)tmp, flag);
 314              		.loc 1 45 5
 315 020c 6FF0DFFD 		j	.L21
 316              	.L20:
GAS LISTING /tmp/cccFR6Ub.s 			page 8


  48:src/kernel/virtualization/pager.cpp ****     }
  49:src/kernel/virtualization/pager.cpp **** 
  50:src/kernel/virtualization/pager.cpp ****     return 0;
 317              		.loc 1 50 5 is_stmt 1
  51:src/kernel/virtualization/pager.cpp **** }
 318              		.loc 1 51 1 is_stmt 0
 319 0210 13050000 		li	a0,0
 320 0214 83308102 		ld	ra,40(sp)
 321              		.cfi_restore 1
 322 0218 03340102 		ld	s0,32(sp)
 323              		.cfi_restore 8
 324              		.cfi_def_cfa 2, 48
 325 021c 83348101 		ld	s1,24(sp)
 326              		.cfi_restore 9
 327              	.LVL33:
 328 0220 03390101 		ld	s2,16(sp)
 329              		.cfi_restore 18
 330              	.LVL34:
 331 0224 83398100 		ld	s3,8(sp)
 332              		.cfi_restore 19
 333              	.LVL35:
 334 0228 033A0100 		ld	s4,0(sp)
 335              		.cfi_restore 20
 336              	.LVL36:
 337 022c 13010103 		addi	sp,sp,48
 338              		.cfi_def_cfa_offset 0
 339 0230 67800000 		jr	ra
 340              		.cfi_endproc
 341              	.LFE118:
 343              		.align	2
 344              		.globl	_ZN5Pager10map_kernelEv
 346              	_ZN5Pager10map_kernelEv:
 347              	.LFB119:
  52:src/kernel/virtualization/pager.cpp **** 
  53:src/kernel/virtualization/pager.cpp **** int Pager::map_kernel(){
 348              		.loc 1 53 24 is_stmt 1
 349              		.cfi_startproc
 350              	.LVL37:
 351 0234 130101FE 		addi	sp,sp,-32
 352              		.cfi_def_cfa_offset 32
 353 0238 233C1100 		sd	ra,24(sp)
 354 023c 23388100 		sd	s0,16(sp)
 355 0240 23349100 		sd	s1,8(sp)
 356              		.cfi_offset 1, -8
 357              		.cfi_offset 8, -16
 358              		.cfi_offset 9, -24
 359 0244 13040102 		addi	s0,sp,32
 360              		.cfi_def_cfa 8, 0
 361 0248 93040500 		mv	s1,a0
  54:src/kernel/virtualization/pager.cpp ****     uint64 laa = (uint64)NoAlloc::getEndAddress();
 362              		.loc 1 54 5
 363              	.LBB13:
 364              	.LBB14:
 365              		.file 3 "src/kernel/virtualization/../../../h/../h/noalloc_allocator.hpp"
   1:src/kernel/virtualization/../../../h/../h/noalloc_allocator.hpp **** #ifndef NOALLOC_ALLOCATOR_H
   2:src/kernel/virtualization/../../../h/../h/noalloc_allocator.hpp **** #define NOALLOC_ALLOCATOR_H
   3:src/kernel/virtualization/../../../h/../h/noalloc_allocator.hpp **** 
GAS LISTING /tmp/cccFR6Ub.s 			page 9


   4:src/kernel/virtualization/../../../h/../h/noalloc_allocator.hpp **** #include"../lib/hw.h"
   5:src/kernel/virtualization/../../../h/../h/noalloc_allocator.hpp **** 
   6:src/kernel/virtualization/../../../h/../h/noalloc_allocator.hpp **** /* CHECK THIS !!!!!
   7:src/kernel/virtualization/../../../h/../h/noalloc_allocator.hpp **** *
   8:src/kernel/virtualization/../../../h/../h/noalloc_allocator.hpp **** * No existing allocator operator functions;
   9:src/kernel/virtualization/../../../h/../h/noalloc_allocator.hpp **** * Used for allocating allocator objects;
  10:src/kernel/virtualization/../../../h/../h/noalloc_allocator.hpp **** * Allocators are not deallocated so operator delete is not needed;
  11:src/kernel/virtualization/../../../h/../h/noalloc_allocator.hpp **** *
  12:src/kernel/virtualization/../../../h/../h/noalloc_allocator.hpp **** */
  13:src/kernel/virtualization/../../../h/../h/noalloc_allocator.hpp **** #define __NOALLOC_OPERATORS__ \
  14:src/kernel/virtualization/../../../h/../h/noalloc_allocator.hpp **** void* operator new(size_t sz){ return NoAlloc::mem_alloc(sz); } \
  15:src/kernel/virtualization/../../../h/../h/noalloc_allocator.hpp **** void* operator new[](size_t sz){ return NoAlloc::mem_alloc(sz); } \
  16:src/kernel/virtualization/../../../h/../h/noalloc_allocator.hpp **** void operator delete(void* ptr){  } \
  17:src/kernel/virtualization/../../../h/../h/noalloc_allocator.hpp **** void operator delete[](void* ptr){  }
  18:src/kernel/virtualization/../../../h/../h/noalloc_allocator.hpp **** 
  19:src/kernel/virtualization/../../../h/../h/noalloc_allocator.hpp **** 
  20:src/kernel/virtualization/../../../h/../h/noalloc_allocator.hpp **** /* 
  21:src/kernel/virtualization/../../../h/../h/noalloc_allocator.hpp **** * Continual allocation used when there is no allocator;
  22:src/kernel/virtualization/../../../h/../h/noalloc_allocator.hpp **** * -----USED FOR ALLOCATING ALLOCATOR OBJECTS-----
  23:src/kernel/virtualization/../../../h/../h/noalloc_allocator.hpp **** */
  24:src/kernel/virtualization/../../../h/../h/noalloc_allocator.hpp **** class NoAlloc{ /* singleton */ 
  25:src/kernel/virtualization/../../../h/../h/noalloc_allocator.hpp ****     static bool working;
  26:src/kernel/virtualization/../../../h/../h/noalloc_allocator.hpp ****     static void* NOALLOC_END_ADDR; 
  27:src/kernel/virtualization/../../../h/../h/noalloc_allocator.hpp **** public:
  28:src/kernel/virtualization/../../../h/../h/noalloc_allocator.hpp ****     static void init(); /* set NOALLOC END ADDR = HEAP START ADDR */
  29:src/kernel/virtualization/../../../h/../h/noalloc_allocator.hpp ****     static void* getEndAddress(){ return NOALLOC_END_ADDR; } /* get end address of allocated object
 366              		.loc 3 29 35
 367              	.LVL38:
 368              	.LBE14:
 369              	.LBE13:
  55:src/kernel/virtualization/pager.cpp ****     //int64 laa = (uint64)HEAP_END_ADDR;
  56:src/kernel/virtualization/pager.cpp ****     uint64 fa = KERNEL_TEXT_START;
 370              		.loc 1 56 5
  57:src/kernel/virtualization/pager.cpp ****     
  58:src/kernel/virtualization/pager.cpp ****     //map_ram
  59:src/kernel/virtualization/pager.cpp ****     id_map((void*)fa, (void*)laa, (PMTEntryBits)
 371              		.loc 1 59 5
 372              		.loc 1 59 11 is_stmt 0
 373 024c 9306E000 		li	a3,14
 374 0250 97070000 		lla	a5,_ZN7NoAlloc16NOALLOC_END_ADDRE
 374      93870700 
 375 0258 03B60700 		ld	a2,0(a5)
 376 025c 97070000 		lla	a5,KERNEL_TEXT_START
 376      93870700 
 377              	.LVL39:
 378 0264 83B50700 		ld	a1,0(a5)
 379 0268 97000000 		call	_ZN5Pager6id_mapEPvS0_12PMTEntryBits
 379      E7800000 
 380              	.LVL40:
  60:src/kernel/virtualization/pager.cpp ****             (PMTEntryBits::write | PMTEntryBits::read | PMTEntryBits::execute ));
  61:src/kernel/virtualization/pager.cpp **** 
  62:src/kernel/virtualization/pager.cpp ****     // UART
  63:src/kernel/virtualization/pager.cpp **** 	id_map((void*)0x10000000,
 381              		.loc 1 63 2 is_stmt 1
 382              		.loc 1 63 8 is_stmt 0
 383 0270 93066000 		li	a3,6
 384 0274 37060010 		li	a2,268435456
GAS LISTING /tmp/cccFR6Ub.s 			page 10


 385 0278 13060610 		addi	a2,a2,256
 386 027c B7050010 		li	a1,268435456
 387 0280 13850400 		mv	a0,s1
 388 0284 97000000 		call	_ZN5Pager6id_mapEPvS0_12PMTEntryBits
 388      E7800000 
 389              	.LVL41:
  64:src/kernel/virtualization/pager.cpp **** 	        (void*)0x10000100,
  65:src/kernel/virtualization/pager.cpp **** 	        (PMTEntryBits)
  66:src/kernel/virtualization/pager.cpp ****             (PMTEntryBits::write | PMTEntryBits::read )
  67:src/kernel/virtualization/pager.cpp **** 	);
  68:src/kernel/virtualization/pager.cpp **** 
  69:src/kernel/virtualization/pager.cpp **** 	// CLINT
  70:src/kernel/virtualization/pager.cpp **** 	// id_map(
  71:src/kernel/virtualization/pager.cpp **** 	//             (void*)0x02000000,
  72:src/kernel/virtualization/pager.cpp **** 	//             (void*)0x0200ffff,
  73:src/kernel/virtualization/pager.cpp **** 	//             (PMTEntryBits)
  74:src/kernel/virtualization/pager.cpp ****     //             (PMTEntryBits::write | PMTEntryBits::read)
  75:src/kernel/virtualization/pager.cpp **** 	// );
  76:src/kernel/virtualization/pager.cpp **** 	// PLIC
  77:src/kernel/virtualization/pager.cpp **** 	id_map(
 390              		.loc 1 77 2 is_stmt 1
 391              		.loc 1 77 8 is_stmt 0
 392 028c 93066000 		li	a3,6
 393 0290 3726000C 		li	a2,201334784
 394 0294 13061600 		addi	a2,a2,1
 395 0298 B705000C 		li	a1,201326592
 396 029c 13850400 		mv	a0,s1
 397 02a0 97000000 		call	_ZN5Pager6id_mapEPvS0_12PMTEntryBits
 397      E7800000 
 398              	.LVL42:
  78:src/kernel/virtualization/pager.cpp **** 	            (void*)0x0c000000,
  79:src/kernel/virtualization/pager.cpp **** 	            (void*)0x0c002001,
  80:src/kernel/virtualization/pager.cpp **** 	            (PMTEntryBits)
  81:src/kernel/virtualization/pager.cpp ****                 (PMTEntryBits::write | PMTEntryBits::read )
  82:src/kernel/virtualization/pager.cpp **** 	);
  83:src/kernel/virtualization/pager.cpp **** 	id_map(
 399              		.loc 1 83 2 is_stmt 1
 400              		.loc 1 83 8 is_stmt 0
 401 02a8 93066000 		li	a3,6
 402 02ac 3786200C 		li	a2,203456512
 403 02b0 13061600 		addi	a2,a2,1
 404 02b4 B705200C 		li	a1,203423744
 405 02b8 13850400 		mv	a0,s1
 406 02bc 97000000 		call	_ZN5Pager6id_mapEPvS0_12PMTEntryBits
 406      E7800000 
 407              	.LVL43:
  84:src/kernel/virtualization/pager.cpp **** 	            (void*)0x0c200000,
  85:src/kernel/virtualization/pager.cpp **** 	            (void*)0x0c208001,
  86:src/kernel/virtualization/pager.cpp **** 	            (PMTEntryBits)
  87:src/kernel/virtualization/pager.cpp ****                 (PMTEntryBits::write | PMTEntryBits::read )
  88:src/kernel/virtualization/pager.cpp **** 	);
  89:src/kernel/virtualization/pager.cpp **** 
  90:src/kernel/virtualization/pager.cpp **** 
  91:src/kernel/virtualization/pager.cpp ****     return 0;        
 408              		.loc 1 91 5 is_stmt 1
  92:src/kernel/virtualization/pager.cpp **** }
 409              		.loc 1 92 1 is_stmt 0
GAS LISTING /tmp/cccFR6Ub.s 			page 11


 410 02c4 13050000 		li	a0,0
 411 02c8 83308101 		ld	ra,24(sp)
 412              		.cfi_restore 1
 413 02cc 03340101 		ld	s0,16(sp)
 414              		.cfi_restore 8
 415              		.cfi_def_cfa 2, 32
 416 02d0 83348100 		ld	s1,8(sp)
 417              		.cfi_restore 9
 418              	.LVL44:
 419 02d4 13010102 		addi	sp,sp,32
 420              		.cfi_def_cfa_offset 0
 421 02d8 67800000 		jr	ra
 422              		.cfi_endproc
 423              	.LFE119:
 425              		.align	2
 426              		.globl	_ZN5Pager8map_userEv
 428              	_ZN5Pager8map_userEv:
 429              	.LFB120:
  93:src/kernel/virtualization/pager.cpp **** 
  94:src/kernel/virtualization/pager.cpp **** int Pager::map_user(){
 430              		.loc 1 94 22 is_stmt 1
 431              		.cfi_startproc
 432              	.LVL45:
 433 02dc 130101FE 		addi	sp,sp,-32
 434              		.cfi_def_cfa_offset 32
 435 02e0 233C1100 		sd	ra,24(sp)
 436 02e4 23388100 		sd	s0,16(sp)
 437 02e8 23349100 		sd	s1,8(sp)
 438              		.cfi_offset 1, -8
 439              		.cfi_offset 8, -16
 440              		.cfi_offset 9, -24
 441 02ec 13040102 		addi	s0,sp,32
 442              		.cfi_def_cfa 8, 0
 443 02f0 93040500 		mv	s1,a0
  95:src/kernel/virtualization/pager.cpp ****     id_map(
 444              		.loc 1 95 5
 445              		.loc 1 95 11 is_stmt 0
 446 02f4 9306A001 		li	a3,26
 447 02f8 97070000 		lla	a5,USER_TEXT_END
 447      93870700 
 448 0300 03B60700 		ld	a2,0(a5)
 449 0304 97070000 		lla	a5,USER_TEXT_START
 449      93870700 
 450 030c 83B50700 		ld	a1,0(a5)
 451 0310 97000000 		call	_ZN5Pager6id_mapEPvS0_12PMTEntryBits
 451      E7800000 
 452              	.LVL46:
  96:src/kernel/virtualization/pager.cpp ****                 (void*)USER_TEXT_START,
  97:src/kernel/virtualization/pager.cpp ****                 (void*)USER_TEXT_END,
  98:src/kernel/virtualization/pager.cpp ****                 (PMTEntryBits) (PMTEntryBits::read | PMTEntryBits::execute | PMTEntryBits::user)
  99:src/kernel/virtualization/pager.cpp ****     );
 100:src/kernel/virtualization/pager.cpp **** 
 101:src/kernel/virtualization/pager.cpp ****     id_map(
 453              		.loc 1 101 5 is_stmt 1
 454              		.loc 1 101 11 is_stmt 0
 455 0318 93066001 		li	a3,22
 456 031c 97070000 		lla	a5,USER_BSS_END
GAS LISTING /tmp/cccFR6Ub.s 			page 12


 456      93870700 
 457 0324 03B60700 		ld	a2,0(a5)
 458 0328 97070000 		lla	a5,USER_BSS_START
 458      93870700 
 459 0330 83B50700 		ld	a1,0(a5)
 460 0334 13850400 		mv	a0,s1
 461 0338 97000000 		call	_ZN5Pager6id_mapEPvS0_12PMTEntryBits
 461      E7800000 
 462              	.LVL47:
 102:src/kernel/virtualization/pager.cpp ****                 (void*)USER_BSS_START,
 103:src/kernel/virtualization/pager.cpp ****                 (void*)USER_BSS_END,
 104:src/kernel/virtualization/pager.cpp ****                 (PMTEntryBits) (PMTEntryBits::read | PMTEntryBits::write | PMTEntryBits::user)
 105:src/kernel/virtualization/pager.cpp ****     );
 106:src/kernel/virtualization/pager.cpp **** 
 107:src/kernel/virtualization/pager.cpp ****     id_map(
 463              		.loc 1 107 5 is_stmt 1
 464              		.loc 1 107 11 is_stmt 0
 465 0340 93066001 		li	a3,22
 466 0344 97070000 		lla	a5,USER_DATA_END
 466      93870700 
 467 034c 03B60700 		ld	a2,0(a5)
 468 0350 97070000 		lla	a5,USER_DATA_START
 468      93870700 
 469 0358 83B50700 		ld	a1,0(a5)
 470 035c 13850400 		mv	a0,s1
 471 0360 97000000 		call	_ZN5Pager6id_mapEPvS0_12PMTEntryBits
 471      E7800000 
 472              	.LVL48:
 108:src/kernel/virtualization/pager.cpp ****                 (void*)USER_DATA_START,
 109:src/kernel/virtualization/pager.cpp ****                 (void*)USER_DATA_END,
 110:src/kernel/virtualization/pager.cpp ****                 (PMTEntryBits) (PMTEntryBits::read | PMTEntryBits::write | PMTEntryBits::user)
 111:src/kernel/virtualization/pager.cpp ****     );
 112:src/kernel/virtualization/pager.cpp **** 
 113:src/kernel/virtualization/pager.cpp ****     id_map(
 473              		.loc 1 113 5 is_stmt 1
 474              		.loc 1 113 11 is_stmt 0
 475 0368 93062001 		li	a3,18
 476 036c 97070000 		lla	a5,USER_RODATA_END
 476      93870700 
 477 0374 03B60700 		ld	a2,0(a5)
 478 0378 97070000 		lla	a5,USER_RODATA_START
 478      93870700 
 479 0380 83B50700 		ld	a1,0(a5)
 480 0384 13850400 		mv	a0,s1
 481 0388 97000000 		call	_ZN5Pager6id_mapEPvS0_12PMTEntryBits
 481      E7800000 
 482              	.LVL49:
 114:src/kernel/virtualization/pager.cpp ****                 (void*)USER_RODATA_START,
 115:src/kernel/virtualization/pager.cpp ****                 (void*)USER_RODATA_END,
 116:src/kernel/virtualization/pager.cpp ****                 (PMTEntryBits) (PMTEntryBits::read | PMTEntryBits::user)
 117:src/kernel/virtualization/pager.cpp ****     );
 118:src/kernel/virtualization/pager.cpp ****     return 0;
 483              		.loc 1 118 5 is_stmt 1
 119:src/kernel/virtualization/pager.cpp **** }
 484              		.loc 1 119 1 is_stmt 0
 485 0390 13050000 		li	a0,0
 486 0394 83308101 		ld	ra,24(sp)
GAS LISTING /tmp/cccFR6Ub.s 			page 13


 487              		.cfi_restore 1
 488 0398 03340101 		ld	s0,16(sp)
 489              		.cfi_restore 8
 490              		.cfi_def_cfa 2, 32
 491 039c 83348100 		ld	s1,8(sp)
 492              		.cfi_restore 9
 493              	.LVL50:
 494 03a0 13010102 		addi	sp,sp,32
 495              		.cfi_def_cfa_offset 0
 496 03a4 67800000 		jr	ra
 497              		.cfi_endproc
 498              	.LFE120:
 500              		.align	2
 501              		.globl	_ZN5Pager12start_pagingEv
 503              	_ZN5Pager12start_pagingEv:
 504              	.LFB121:
 120:src/kernel/virtualization/pager.cpp **** 
 121:src/kernel/virtualization/pager.cpp **** int Pager::start_paging(){
 505              		.loc 1 121 26 is_stmt 1
 506              		.cfi_startproc
 507              	.LVL51:
 508 03a8 130101FF 		addi	sp,sp,-16
 509              		.cfi_def_cfa_offset 16
 510 03ac 23348100 		sd	s0,8(sp)
 511              		.cfi_offset 8, -8
 512 03b0 13040101 		addi	s0,sp,16
 513              		.cfi_def_cfa 8, 0
 122:src/kernel/virtualization/pager.cpp ****     if(!pmt)
 514              		.loc 1 122 5
 515              		.loc 1 122 9 is_stmt 0
 516 03b4 83370500 		ld	a5,0(a0)
 517              		.loc 1 122 5
 518 03b8 63880702 		beq	a5,zero,.L29
 123:src/kernel/virtualization/pager.cpp ****         return 1;
 124:src/kernel/virtualization/pager.cpp ****     //Riscv::ms_sstatus(Riscv::BitMaskSstatus::SSTATUS_SUM);
 125:src/kernel/virtualization/pager.cpp ****     uint64 satp = (8ULL << 60) | ( (uint64)pmt >> 12);
 519              		.loc 1 125 5 is_stmt 1
 520              		.loc 1 125 48 is_stmt 0
 521 03bc 93D7C700 		srli	a5,a5,12
 522              		.loc 1 125 12
 523 03c0 1307F0FF 		li	a4,-1
 524 03c4 1317F703 		slli	a4,a4,63
 525 03c8 B3E7E700 		or	a5,a5,a4
 526              	.LVL52:
 126:src/kernel/virtualization/pager.cpp ****     NoAlloc::turn_off();
 527              		.loc 1 126 5 is_stmt 1
 528              	.LBB15:
 529              	.LBB16:
  30:src/kernel/virtualization/../../../h/../h/noalloc_allocator.hpp ****     static void* mem_alloc(size_t); /* allocate */
  31:src/kernel/virtualization/../../../h/../h/noalloc_allocator.hpp ****     static void turn_off() { working = false; }
 530              		.loc 3 31 30
 531              		.loc 3 31 38 is_stmt 0
 532 03cc 17070000 		sb	zero,_ZN7NoAlloc7workingE,a4
 532      23000700 
 533              	.LBE16:
 534              	.LBE15:
 127:src/kernel/virtualization/pager.cpp ****     asm volatile("csrw satp, %0" : : "r" (satp));
GAS LISTING /tmp/cccFR6Ub.s 			page 14


 535              		.loc 1 127 5 is_stmt 1
 536              		.loc 1 127 49 is_stmt 0
 537              	 #APP
 538              	# 127 "src/kernel/virtualization/pager.cpp" 1
 128              	    return 0;
 539              		csrw satp, a5
 540              	# 0 "" 2
 541              		.loc 1 128 5 is_stmt 1
 542              		.loc 1 128 12 is_stmt 0
 543              	 #NO_APP
 544 03d8 13050000 		li	a0,0
 545              	.LVL53:
 546              	.L28:
 129:src/kernel/virtualization/pager.cpp **** }
 547              		.loc 1 129 1
 548 03dc 03348100 		ld	s0,8(sp)
 549              		.cfi_remember_state
 550              		.cfi_restore 8
 551              		.cfi_def_cfa 2, 16
 552 03e0 13010101 		addi	sp,sp,16
 553              		.cfi_def_cfa_offset 0
 554 03e4 67800000 		jr	ra
 555              	.LVL54:
 556              	.L29:
 557              		.cfi_restore_state
 123:src/kernel/virtualization/pager.cpp ****     //Riscv::ms_sstatus(Riscv::BitMaskSstatus::SSTATUS_SUM);
 558              		.loc 1 123 16
 559 03e8 13051000 		li	a0,1
 560              	.LVL55:
 561 03ec 6FF01FFF 		j	.L28
 562              		.cfi_endproc
 563              	.LFE121:
 565              		.align	2
 566              		.globl	_ZN5Pager5printEv
 568              	_ZN5Pager5printEv:
 569              	.LFB122:
 130:src/kernel/virtualization/pager.cpp **** 
 131:src/kernel/virtualization/pager.cpp **** void Pager::print(){
 570              		.loc 1 131 20 is_stmt 1
 571              		.cfi_startproc
 572              	.LVL56:
 573 03f0 130101FC 		addi	sp,sp,-64
 574              		.cfi_def_cfa_offset 64
 575 03f4 233C1102 		sd	ra,56(sp)
 576 03f8 23388102 		sd	s0,48(sp)
 577 03fc 23349102 		sd	s1,40(sp)
 578 0400 23302103 		sd	s2,32(sp)
 579 0404 233C3101 		sd	s3,24(sp)
 580 0408 23384101 		sd	s4,16(sp)
 581 040c 23345101 		sd	s5,8(sp)
 582 0410 23306101 		sd	s6,0(sp)
 583              		.cfi_offset 1, -8
 584              		.cfi_offset 8, -16
 585              		.cfi_offset 9, -24
 586              		.cfi_offset 18, -32
 587              		.cfi_offset 19, -40
 588              		.cfi_offset 20, -48
GAS LISTING /tmp/cccFR6Ub.s 			page 15


 589              		.cfi_offset 21, -56
 590              		.cfi_offset 22, -64
 591 0414 13040104 		addi	s0,sp,64
 592              		.cfi_def_cfa 8, 0
 132:src/kernel/virtualization/pager.cpp ****     int t = 0;
 593              		.loc 1 132 5
 594              	.LVL57:
 133:src/kernel/virtualization/pager.cpp ****     if(pmt){
 595              		.loc 1 133 5
 596              	.LBB17:
 597              		.loc 1 133 8 is_stmt 0
 598 0418 83370500 		ld	a5,0(a0)
 599              		.loc 1 133 5
 600 041c 63820716 		beq	a5,zero,.L37
 601 0420 130B0500 		mv	s6,a0
 602              	.LBB18:
 134:src/kernel/virtualization/pager.cpp ****         t++;
 603              		.loc 1 134 9 is_stmt 1
 604              	.LVL58:
 135:src/kernel/virtualization/pager.cpp ****         kprintString("--------LEVEL 0--------\n");
 605              		.loc 1 135 9
 606              		.loc 1 135 21 is_stmt 0
 607 0424 17050000 		lla	a0,.LC0
 607      13050500 
 608              	.LVL59:
 609 042c 97000000 		call	_Z12kprintStringPKc
 609      E7800000 
 610              	.LVL60:
 136:src/kernel/virtualization/pager.cpp ****         pmt->print();
 611              		.loc 1 136 9 is_stmt 1
 612              		.loc 1 136 19 is_stmt 0
 613 0434 03350B00 		ld	a0,0(s6)
 614 0438 97000000 		call	_ZN3PMT5printEv
 614      E7800000 
 615              	.LVL61:
 137:src/kernel/virtualization/pager.cpp ****         for(size_t i = 0; i < PMT::PMT_LEVEL_SIZE; i++){
 616              		.loc 1 137 9 is_stmt 1
 617              	.LBB19:
 618              		.loc 1 137 20 is_stmt 0
 619 0440 930A0000 		li	s5,0
 620              	.LBE19:
 134:src/kernel/virtualization/pager.cpp ****         kprintString("--------LEVEL 0--------\n");
 621              		.loc 1 134 10
 622 0444 130A1000 		li	s4,1
 623 0448 6F00000A 		j	.L36
 624              	.LVL62:
 625              	.L39:
 626              	.LBB33:
 627              	.LBB20:
 628              	.LBB21:
 629              	.LBB22:
 630              	.LBB23:
 631              	.LBB24:
 632              	.LBB25:
 633              	.LBB26:
 138:src/kernel/virtualization/pager.cpp ****             PMTEntry* en = pmt->get_entry(i);
 139:src/kernel/virtualization/pager.cpp ****             
GAS LISTING /tmp/cccFR6Ub.s 			page 16


 140:src/kernel/virtualization/pager.cpp ****             if(en->chk_flags(PMTEntryBits::valid)){
 141:src/kernel/virtualization/pager.cpp ****                 t++;
 142:src/kernel/virtualization/pager.cpp ****                 PMT* pmt1 = (PMT*)en->get_pa();
 143:src/kernel/virtualization/pager.cpp ****                 kprintString("--------LEVEL 1--------\n");
 144:src/kernel/virtualization/pager.cpp ****                 KCHECKPRINT(pmt1);
 145:src/kernel/virtualization/pager.cpp ****                 pmt1->print();
 146:src/kernel/virtualization/pager.cpp ****                 for(size_t  i = 0; i < PMT::PMT_LEVEL_SIZE; i++){
 147:src/kernel/virtualization/pager.cpp ****                     PMTEntry* en1 = pmt1->get_entry(i);
 148:src/kernel/virtualization/pager.cpp **** 
 149:src/kernel/virtualization/pager.cpp ****                     if(en1->chk_flags(PMTEntryBits::valid)){
 150:src/kernel/virtualization/pager.cpp ****                         t++;
 634              		.loc 1 150 25 is_stmt 1
 635              		.loc 1 150 26 is_stmt 0
 636 044c 1B0A1A00 		addiw	s4,s4,1
 637              	.LVL63:
 151:src/kernel/virtualization/pager.cpp ****                         PMT* pmt2 = (PMT*)en1->get_pa();
 638              		.loc 1 151 25 is_stmt 1
 639              		.loc 1 151 54 is_stmt 0
 640 0450 13050900 		mv	a0,s2
 641 0454 97000000 		call	_ZN8PMTEntry6get_paEv
 641      E7800000 
 642              	.LVL64:
 643 045c 13090500 		mv	s2,a0
 644              	.LVL65:
 152:src/kernel/virtualization/pager.cpp ****                         kprintString("--------LEVEL 2--------\n");
 645              		.loc 1 152 25 is_stmt 1
 646              		.loc 1 152 37 is_stmt 0
 647 0460 17050000 		lla	a0,.LC4
 647      13050500 
 648              	.LVL66:
 649 0468 97000000 		call	_Z12kprintStringPKc
 649      E7800000 
 650              	.LVL67:
 153:src/kernel/virtualization/pager.cpp ****                         KCHECKPRINT(pmt2);
 651              		.loc 1 153 25 is_stmt 1
 652 0470 17050000 		lla	a0,.LC5
 652      13050500 
 653 0478 97000000 		call	_Z12kprintStringPKc
 653      E7800000 
 654              	.LVL68:
 655              		.loc 1 153 25
 656 0480 13060000 		li	a2,0
 657 0484 93050001 		li	a1,16
 658 0488 13050900 		mv	a0,s2
 659 048c 97000000 		call	_Z9kprintIntmib
 659      E7800000 
 660              	.LVL69:
 661              		.loc 1 153 25
 662 0494 17050000 		lla	a0,.LC3
 662      13050500 
 663 049c 97000000 		call	_Z12kprintStringPKc
 663      E7800000 
 664              	.LVL70:
 154:src/kernel/virtualization/pager.cpp ****                         pmt2->print();
 665              		.loc 1 154 25
 666              		.loc 1 154 36 is_stmt 0
 667 04a4 13050900 		mv	a0,s2
GAS LISTING /tmp/cccFR6Ub.s 			page 17


 668 04a8 97000000 		call	_ZN3PMT5printEv
 668      E7800000 
 669              	.LVL71:
 670              	.L34:
 671              	.LBE26:
 672              	.LBE25:
 673              	.LBE24:
 146:src/kernel/virtualization/pager.cpp ****                     PMTEntry* en1 = pmt1->get_entry(i);
 674              		.loc 1 146 17 discriminator 2
 675 04b0 93841400 		addi	s1,s1,1
 676              	.LVL72:
 677              	.L35:
 146:src/kernel/virtualization/pager.cpp ****                     PMTEntry* en1 = pmt1->get_entry(i);
 678              		.loc 1 146 38 discriminator 1
 679 04b4 9307F01F 		li	a5,511
 680 04b8 63E69702 		bgtu	s1,a5,.L33
 681              	.LBB28:
 147:src/kernel/virtualization/pager.cpp **** 
 682              		.loc 1 147 21 is_stmt 1
 147:src/kernel/virtualization/pager.cpp **** 
 683              		.loc 1 147 52 is_stmt 0
 684 04bc 93850400 		mv	a1,s1
 685 04c0 13850900 		mv	a0,s3
 686 04c4 97000000 		call	_ZN3PMT9get_entryEm
 686      E7800000 
 687              	.LVL73:
 688 04cc 13090500 		mv	s2,a0
 689              	.LVL74:
 149:src/kernel/virtualization/pager.cpp ****                         t++;
 690              		.loc 1 149 21 is_stmt 1
 691              	.LBB27:
 149:src/kernel/virtualization/pager.cpp ****                         t++;
 692              		.loc 1 149 38 is_stmt 0
 693 04d0 93051000 		li	a1,1
 694 04d4 97000000 		call	_ZN8PMTEntry9chk_flagsE12PMTEntryBits
 694      E7800000 
 695              	.LVL75:
 149:src/kernel/virtualization/pager.cpp ****                         t++;
 696              		.loc 1 149 21
 697 04dc E30A05FC 		beq	a0,zero,.L34
 698 04e0 6FF0DFF6 		j	.L39
 699              	.LVL76:
 700              	.L33:
 701              	.LBE27:
 702              	.LBE28:
 703              	.LBE23:
 704              	.LBE22:
 705              	.LBE21:
 706              	.LBE20:
 137:src/kernel/virtualization/pager.cpp ****             PMTEntry* en = pmt->get_entry(i);
 707              		.loc 1 137 9 discriminator 2
 708 04e4 938A1A00 		addi	s5,s5,1
 709              	.LVL77:
 710              	.L36:
 137:src/kernel/virtualization/pager.cpp ****             PMTEntry* en = pmt->get_entry(i);
 711              		.loc 1 137 29 discriminator 1
 712 04e8 9307F01F 		li	a5,511
GAS LISTING /tmp/cccFR6Ub.s 			page 18


 713 04ec 63EC5709 		bgtu	s5,a5,.L32
 714              	.LBB32:
 138:src/kernel/virtualization/pager.cpp ****             
 715              		.loc 1 138 13 is_stmt 1
 138:src/kernel/virtualization/pager.cpp ****             
 716              		.loc 1 138 42 is_stmt 0
 717 04f0 93850A00 		mv	a1,s5
 718 04f4 03350B00 		ld	a0,0(s6)
 719 04f8 97000000 		call	_ZN3PMT9get_entryEm
 719      E7800000 
 720              	.LVL78:
 721 0500 93040500 		mv	s1,a0
 722              	.LVL79:
 140:src/kernel/virtualization/pager.cpp ****                 t++;
 723              		.loc 1 140 13 is_stmt 1
 724              	.LBB31:
 140:src/kernel/virtualization/pager.cpp ****                 t++;
 725              		.loc 1 140 29 is_stmt 0
 726 0504 93051000 		li	a1,1
 727 0508 97000000 		call	_ZN8PMTEntry9chk_flagsE12PMTEntryBits
 727      E7800000 
 728              	.LVL80:
 140:src/kernel/virtualization/pager.cpp ****                 t++;
 729              		.loc 1 140 13
 730 0510 E30A05FC 		beq	a0,zero,.L33
 731              	.LBB30:
 141:src/kernel/virtualization/pager.cpp ****                 PMT* pmt1 = (PMT*)en->get_pa();
 732              		.loc 1 141 17 is_stmt 1
 141:src/kernel/virtualization/pager.cpp ****                 PMT* pmt1 = (PMT*)en->get_pa();
 733              		.loc 1 141 18 is_stmt 0
 734 0514 1B0A1A00 		addiw	s4,s4,1
 735              	.LVL81:
 142:src/kernel/virtualization/pager.cpp ****                 kprintString("--------LEVEL 1--------\n");
 736              		.loc 1 142 17 is_stmt 1
 142:src/kernel/virtualization/pager.cpp ****                 kprintString("--------LEVEL 1--------\n");
 737              		.loc 1 142 45 is_stmt 0
 738 0518 13850400 		mv	a0,s1
 739 051c 97000000 		call	_ZN8PMTEntry6get_paEv
 739      E7800000 
 740              	.LVL82:
 741 0524 93090500 		mv	s3,a0
 742              	.LVL83:
 143:src/kernel/virtualization/pager.cpp ****                 KCHECKPRINT(pmt1);
 743              		.loc 1 143 17 is_stmt 1
 143:src/kernel/virtualization/pager.cpp ****                 KCHECKPRINT(pmt1);
 744              		.loc 1 143 29 is_stmt 0
 745 0528 17050000 		lla	a0,.LC1
 745      13050500 
 746              	.LVL84:
 747 0530 97000000 		call	_Z12kprintStringPKc
 747      E7800000 
 748              	.LVL85:
 144:src/kernel/virtualization/pager.cpp ****                 pmt1->print();
 749              		.loc 1 144 17 is_stmt 1
 750 0538 17050000 		lla	a0,.LC2
 750      13050500 
 751 0540 97000000 		call	_Z12kprintStringPKc
GAS LISTING /tmp/cccFR6Ub.s 			page 19


 751      E7800000 
 752              	.LVL86:
 144:src/kernel/virtualization/pager.cpp ****                 pmt1->print();
 753              		.loc 1 144 17
 754 0548 13060000 		li	a2,0
 755 054c 93050001 		li	a1,16
 756 0550 13850900 		mv	a0,s3
 757 0554 97000000 		call	_Z9kprintIntmib
 757      E7800000 
 758              	.LVL87:
 144:src/kernel/virtualization/pager.cpp ****                 pmt1->print();
 759              		.loc 1 144 17
 760 055c 17050000 		lla	a0,.LC3
 760      13050500 
 761 0564 97000000 		call	_Z12kprintStringPKc
 761      E7800000 
 762              	.LVL88:
 145:src/kernel/virtualization/pager.cpp ****                 for(size_t  i = 0; i < PMT::PMT_LEVEL_SIZE; i++){
 763              		.loc 1 145 17
 145:src/kernel/virtualization/pager.cpp ****                 for(size_t  i = 0; i < PMT::PMT_LEVEL_SIZE; i++){
 764              		.loc 1 145 28 is_stmt 0
 765 056c 13850900 		mv	a0,s3
 766 0570 97000000 		call	_ZN3PMT5printEv
 766      E7800000 
 767              	.LVL89:
 146:src/kernel/virtualization/pager.cpp ****                     PMTEntry* en1 = pmt1->get_entry(i);
 768              		.loc 1 146 17 is_stmt 1
 769              	.LBB29:
 146:src/kernel/virtualization/pager.cpp ****                     PMTEntry* en1 = pmt1->get_entry(i);
 770              		.loc 1 146 29 is_stmt 0
 771 0578 93040000 		li	s1,0
 772              	.LVL90:
 773 057c 6FF09FF3 		j	.L35
 774              	.LVL91:
 775              	.L37:
 776              	.LBE29:
 777              	.LBE30:
 778              	.LBE31:
 779              	.LBE32:
 780              	.LBE33:
 781              	.LBE18:
 782              	.LBE17:
 132:src/kernel/virtualization/pager.cpp ****     if(pmt){
 783              		.loc 1 132 9
 784 0580 130A0000 		li	s4,0
 785              	.LVL92:
 786              	.L32:
 155:src/kernel/virtualization/pager.cpp ****                     }
 156:src/kernel/virtualization/pager.cpp ****             
 157:src/kernel/virtualization/pager.cpp ****                 }
 158:src/kernel/virtualization/pager.cpp ****             }
 159:src/kernel/virtualization/pager.cpp ****             
 160:src/kernel/virtualization/pager.cpp ****         }
 161:src/kernel/virtualization/pager.cpp ****     }
 162:src/kernel/virtualization/pager.cpp ****     kprintString("page_table_num: "); kprintInt(t); kprintString("\n");
 787              		.loc 1 162 5 is_stmt 1
 788              		.loc 1 162 17 is_stmt 0
GAS LISTING /tmp/cccFR6Ub.s 			page 20


 789 0584 17050000 		lla	a0,.LC6
 789      13050500 
 790 058c 97000000 		call	_Z12kprintStringPKc
 790      E7800000 
 791              	.LVL93:
 792              		.loc 1 162 39 is_stmt 1
 793              		.loc 1 162 48 is_stmt 0
 794 0594 13060000 		li	a2,0
 795 0598 9305A000 		li	a1,10
 796 059c 13050A00 		mv	a0,s4
 797 05a0 97000000 		call	_Z9kprintIntmib
 797      E7800000 
 798              	.LVL94:
 799              		.loc 1 162 53 is_stmt 1
 800              		.loc 1 162 65 is_stmt 0
 801 05a8 17050000 		lla	a0,.LC3
 801      13050500 
 802 05b0 97000000 		call	_Z12kprintStringPKc
 802      E7800000 
 803              	.LVL95:
 163:src/kernel/virtualization/pager.cpp ****     kprintString("page_table_size: "); kprintInt(sizeof(PMT)); kprintString("\n");
 804              		.loc 1 163 5 is_stmt 1
 805              		.loc 1 163 17 is_stmt 0
 806 05b8 17050000 		lla	a0,.LC7
 806      13050500 
 807 05c0 97000000 		call	_Z12kprintStringPKc
 807      E7800000 
 808              	.LVL96:
 809              		.loc 1 163 40 is_stmt 1
 810              		.loc 1 163 49 is_stmt 0
 811 05c8 13060000 		li	a2,0
 812 05cc 9305A000 		li	a1,10
 813 05d0 37150000 		li	a0,4096
 814 05d4 97000000 		call	_Z9kprintIntmib
 814      E7800000 
 815              	.LVL97:
 816              		.loc 1 163 64 is_stmt 1
 817              		.loc 1 163 76 is_stmt 0
 818 05dc 17050000 		lla	a0,.LC3
 818      13050500 
 819 05e4 97000000 		call	_Z12kprintStringPKc
 819      E7800000 
 820              	.LVL98:
 164:src/kernel/virtualization/pager.cpp ****     kprintString("page_table_buddy_level: "); kprintInt(BUDDY_LEVEL(sizeof(PMT))); kprintString("\n
 821              		.loc 1 164 5 is_stmt 1
 822              		.loc 1 164 17 is_stmt 0
 823 05ec 17050000 		lla	a0,.LC8
 823      13050500 
 824 05f4 97000000 		call	_Z12kprintStringPKc
 824      E7800000 
 825              	.LVL99:
 826              		.loc 1 164 47 is_stmt 1
 827              		.loc 1 164 57 is_stmt 0
 828 05fc 37150000 		li	a0,4096
 829 0600 97000000 		call	_Z4log2m
 829      E7800000 
 830              	.LVL100:
GAS LISTING /tmp/cccFR6Ub.s 			page 21


 831 0608 B7170000 		li	a5,4096
 832 060c 9387F7FF 		addi	a5,a5,-1
 833 0610 33D5A700 		srl	a0,a5,a0
 834 0614 13051500 		addi	a0,a0,1
 835 0618 97000000 		call	_Z4log2m
 835      E7800000 
 836              	.LVL101:
 837              		.loc 1 164 56
 838 0620 13060000 		li	a2,0
 839 0624 9305A000 		li	a1,10
 840 0628 97000000 		call	_Z9kprintIntmib
 840      E7800000 
 841              	.LVL102:
 842              		.loc 1 164 84 is_stmt 1
 843              		.loc 1 164 96 is_stmt 0
 844 0630 17050000 		lla	a0,.LC3
 844      13050500 
 845 0638 97000000 		call	_Z12kprintStringPKc
 845      E7800000 
 846              	.LVL103:
 165:src/kernel/virtualization/pager.cpp **** }
 847              		.loc 1 165 1
 848 0640 83308103 		ld	ra,56(sp)
 849              		.cfi_restore 1
 850 0644 03340103 		ld	s0,48(sp)
 851              		.cfi_restore 8
 852              		.cfi_def_cfa 2, 64
 853 0648 83348102 		ld	s1,40(sp)
 854              		.cfi_restore 9
 855 064c 03390102 		ld	s2,32(sp)
 856              		.cfi_restore 18
 857 0650 83398101 		ld	s3,24(sp)
 858              		.cfi_restore 19
 859 0654 033A0101 		ld	s4,16(sp)
 860              		.cfi_restore 20
 861              	.LVL104:
 862 0658 833A8100 		ld	s5,8(sp)
 863              		.cfi_restore 21
 864 065c 033B0100 		ld	s6,0(sp)
 865              		.cfi_restore 22
 866 0660 13010104 		addi	sp,sp,64
 867              		.cfi_def_cfa_offset 0
 868 0664 67800000 		jr	ra
 869              		.cfi_endproc
 870              	.LFE122:
 872              		.globl	_ZN5Pager1pE
 873              		.section	.rodata.str1.8,"aMS",@progbits,1
 874              		.align	3
 875              	.LC0:
 876 0000 2D2D2D2D 		.string	"--------LEVEL 0--------\n"
 876      2D2D2D2D 
 876      4C455645 
 876      4C20302D 
 876      2D2D2D2D 
 877 0019 00000000 		.zero	7
 877      000000
 878              	.LC1:
GAS LISTING /tmp/cccFR6Ub.s 			page 22


 879 0020 2D2D2D2D 		.string	"--------LEVEL 1--------\n"
 879      2D2D2D2D 
 879      4C455645 
 879      4C20312D 
 879      2D2D2D2D 
 880 0039 00000000 		.zero	7
 880      000000
 881              	.LC2:
 882 0040 706D7431 		.string	"pmt1: "
 882      3A2000
 883 0047 00       		.zero	1
 884              	.LC3:
 885 0048 0A00     		.string	"\n"
 886 004a 00000000 		.zero	6
 886      0000
 887              	.LC4:
 888 0050 2D2D2D2D 		.string	"--------LEVEL 2--------\n"
 888      2D2D2D2D 
 888      4C455645 
 888      4C20322D 
 888      2D2D2D2D 
 889 0069 00000000 		.zero	7
 889      000000
 890              	.LC5:
 891 0070 706D7432 		.string	"pmt2: "
 891      3A2000
 892 0077 00       		.zero	1
 893              	.LC6:
 894 0078 70616765 		.string	"page_table_num: "
 894      5F746162 
 894      6C655F6E 
 894      756D3A20 
 894      00
 895 0089 00000000 		.zero	7
 895      000000
 896              	.LC7:
 897 0090 70616765 		.string	"page_table_size: "
 897      5F746162 
 897      6C655F73 
 897      697A653A 
 897      2000
 898 00a2 00000000 		.zero	6
 898      0000
 899              	.LC8:
 900 00a8 70616765 		.string	"page_table_buddy_level: "
 900      5F746162 
 900      6C655F62 
 900      75646479 
 900      5F6C6576 
 901              		.section	.sbss,"aw",@nobits
 902              		.align	3
 905              	_ZN5Pager1pE:
 906 0000 00000000 		.zero	8
 906      00000000 
 907              		.text
 908              	.Letext0:
 909              		.file 4 "src/kernel/virtualization/../../../h/../h/../lib/hw.h"
GAS LISTING /tmp/cccFR6Ub.s 			page 23


 910              		.file 5 "src/kernel/virtualization/../../../h/../h/pmt.h"
 911              		.file 6 "src/kernel/virtualization/../../../h/../h/slab.h"
 912              		.file 7 "src/kernel/virtualization/../../../h/kernel_lib.h"
 913              		.file 8 "src/kernel/virtualization/../../../h/../h/kernel_funs.h"
GAS LISTING /tmp/cccFR6Ub.s 			page 24

