GAS LISTING /tmp/ccpb0gcC.s 			page 1


   1              		.file	"pmt.cpp"
   2              		.option nopic
   3              		.option norelax
   4              		.attribute arch, "rv64i2p0_m2p0_a2p0"
   5              		.attribute unaligned_access, 0
   6              		.attribute stack_align, 16
   7              		.text
   8              	.Ltext0:
   9              		.align	2
  10              		.globl	_ZN8PMTEntry5printEv
  12              	_ZN8PMTEntry5printEv:
  13              	.LFB114:
  14              		.file 1 "src/kernel/virtualization/pmt.cpp"
   1:src/kernel/virtualization/pmt.cpp **** #include"../../../h/kernel_lib.h"
   2:src/kernel/virtualization/pmt.cpp **** 
   3:src/kernel/virtualization/pmt.cpp **** const size_t PMT::VADDR_MASK[3] = { (size_t)( -(1LL<<12) ^ -(1LL<<21)), (size_t)( -(1LL<<21) ^ -(1L
   4:src/kernel/virtualization/pmt.cpp **** 
   5:src/kernel/virtualization/pmt.cpp **** PMT* PMT::allocate_pmt(){
   6:src/kernel/virtualization/pmt.cpp ****     PMT* ret = (PMT*)(Buddy::getInstance().mem_alloc(BUDDY_LEVEL(sizeof(PMT))));
   7:src/kernel/virtualization/pmt.cpp ****     ret->clear();
   8:src/kernel/virtualization/pmt.cpp ****     return ret;
   9:src/kernel/virtualization/pmt.cpp **** }
  10:src/kernel/virtualization/pmt.cpp **** 
  11:src/kernel/virtualization/pmt.cpp **** void PMTEntry::print(){
  15              		.loc 1 11 23
  16              		.cfi_startproc
  17              	.LVL0:
  18 0000 130101FE 		addi	sp,sp,-32
  19              		.cfi_def_cfa_offset 32
  20 0004 233C1100 		sd	ra,24(sp)
  21 0008 23388100 		sd	s0,16(sp)
  22 000c 23349100 		sd	s1,8(sp)
  23              		.cfi_offset 1, -8
  24              		.cfi_offset 8, -16
  25              		.cfi_offset 9, -24
  26 0010 13040102 		addi	s0,sp,32
  27              		.cfi_def_cfa 8, 0
  28 0014 93040500 		mv	s1,a0
  12:src/kernel/virtualization/pmt.cpp ****     KVALCHECKPRINT(PA, (val >> 10) << 12);
  29              		.loc 1 12 5
  30 0018 17050000 		lla	a0,.LC0
  30      13050500 
  31              	.LVL1:
  32 0020 97000000 		call	_Z12kprintStringPKc
  32      E7800000 
  33              	.LVL2:
  34              		.loc 1 12 5
  35 0028 03B50400 		ld	a0,0(s1)
  36 002c 1355A500 		srli	a0,a0,10
  37 0030 13060000 		li	a2,0
  38 0034 93050001 		li	a1,16
  39 0038 1315C500 		slli	a0,a0,12
  40 003c 97000000 		call	_Z9kprintIntmib
  40      E7800000 
  41              	.LVL3:
  42              		.loc 1 12 5
  43 0044 17050000 		lla	a0,.LC1
GAS LISTING /tmp/ccpb0gcC.s 			page 2


  43      13050500 
  44 004c 97000000 		call	_Z12kprintStringPKc
  44      E7800000 
  45              	.LVL4:
  13:src/kernel/virtualization/pmt.cpp ****     kprintString("bits: "); kprintInt((val & 511ULL), 2); kprintString("\n");
  46              		.loc 1 13 5
  47              		.loc 1 13 17 is_stmt 0
  48 0054 17050000 		lla	a0,.LC2
  48      13050500 
  49 005c 97000000 		call	_Z12kprintStringPKc
  49      E7800000 
  50              	.LVL5:
  51              		.loc 1 13 29 is_stmt 1
  52              		.loc 1 13 40 is_stmt 0
  53 0064 03B50400 		ld	a0,0(s1)
  54              		.loc 1 13 38
  55 0068 13060000 		li	a2,0
  56 006c 93052000 		li	a1,2
  57 0070 1375F51F 		andi	a0,a0,511
  58 0074 97000000 		call	_Z9kprintIntmib
  58      E7800000 
  59              	.LVL6:
  60              		.loc 1 13 59 is_stmt 1
  61              		.loc 1 13 71 is_stmt 0
  62 007c 17050000 		lla	a0,.LC1
  62      13050500 
  63 0084 97000000 		call	_Z12kprintStringPKc
  63      E7800000 
  64              	.LVL7:
  14:src/kernel/virtualization/pmt.cpp **** }
  65              		.loc 1 14 1
  66 008c 83308101 		ld	ra,24(sp)
  67              		.cfi_restore 1
  68 0090 03340101 		ld	s0,16(sp)
  69              		.cfi_restore 8
  70              		.cfi_def_cfa 2, 32
  71 0094 83348100 		ld	s1,8(sp)
  72              		.cfi_restore 9
  73              	.LVL8:
  74 0098 13010102 		addi	sp,sp,32
  75              		.cfi_def_cfa_offset 0
  76 009c 67800000 		jr	ra
  77              		.cfi_endproc
  78              	.LFE114:
  80              		.align	2
  81              		.globl	_ZN8PMTEntry9set_flagsE12PMTEntryBits
  83              	_ZN8PMTEntry9set_flagsE12PMTEntryBits:
  84              	.LFB115:
  15:src/kernel/virtualization/pmt.cpp **** 
  16:src/kernel/virtualization/pmt.cpp **** void PMTEntry::set_flags(PMTEntryBits peb){ val |= (uint64) peb; }
  85              		.loc 1 16 43 is_stmt 1
  86              		.cfi_startproc
  87              	.LVL9:
  88 00a0 130101FF 		addi	sp,sp,-16
  89              		.cfi_def_cfa_offset 16
  90 00a4 23348100 		sd	s0,8(sp)
  91              		.cfi_offset 8, -8
GAS LISTING /tmp/ccpb0gcC.s 			page 3


  92 00a8 13040101 		addi	s0,sp,16
  93              		.cfi_def_cfa 8, 0
  94              		.loc 1 16 45
  95              		.loc 1 16 49 is_stmt 0
  96 00ac 83370500 		ld	a5,0(a0)
  97 00b0 B3E5B700 		or	a1,a5,a1
  98              	.LVL10:
  99 00b4 2330B500 		sd	a1,0(a0)
 100              		.loc 1 16 66
 101 00b8 03348100 		ld	s0,8(sp)
 102              		.cfi_restore 8
 103              		.cfi_def_cfa 2, 16
 104 00bc 13010101 		addi	sp,sp,16
 105              		.cfi_def_cfa_offset 0
 106 00c0 67800000 		jr	ra
 107              		.cfi_endproc
 108              	.LFE115:
 110              		.align	2
 111              		.globl	_ZN8PMTEntry11clear_flagsE12PMTEntryBits
 113              	_ZN8PMTEntry11clear_flagsE12PMTEntryBits:
 114              	.LFB116:
  17:src/kernel/virtualization/pmt.cpp **** 
  18:src/kernel/virtualization/pmt.cpp **** void PMTEntry::clear_flags(PMTEntryBits peb){ val &= ~((uint64) peb); }
 115              		.loc 1 18 45 is_stmt 1
 116              		.cfi_startproc
 117              	.LVL11:
 118 00c4 130101FF 		addi	sp,sp,-16
 119              		.cfi_def_cfa_offset 16
 120 00c8 23348100 		sd	s0,8(sp)
 121              		.cfi_offset 8, -8
 122 00cc 13040101 		addi	s0,sp,16
 123              		.cfi_def_cfa 8, 0
 124              		.loc 1 18 47
 125              		.loc 1 18 54 is_stmt 0
 126 00d0 93C5F5FF 		not	a1,a1
 127              	.LVL12:
 128              		.loc 1 18 51
 129 00d4 83370500 		ld	a5,0(a0)
 130 00d8 B3F7B700 		and	a5,a5,a1
 131 00dc 2330F500 		sd	a5,0(a0)
 132              		.loc 1 18 71
 133 00e0 03348100 		ld	s0,8(sp)
 134              		.cfi_restore 8
 135              		.cfi_def_cfa 2, 16
 136 00e4 13010101 		addi	sp,sp,16
 137              		.cfi_def_cfa_offset 0
 138 00e8 67800000 		jr	ra
 139              		.cfi_endproc
 140              	.LFE116:
 142              		.align	2
 143              		.globl	_ZN8PMTEntry5clearEv
 145              	_ZN8PMTEntry5clearEv:
 146              	.LFB117:
  19:src/kernel/virtualization/pmt.cpp **** 
  20:src/kernel/virtualization/pmt.cpp **** void PMTEntry::clear(){ val = PMTEntryBits::clear; }
 147              		.loc 1 20 23 is_stmt 1
 148              		.cfi_startproc
GAS LISTING /tmp/ccpb0gcC.s 			page 4


 149              	.LVL13:
 150 00ec 130101FF 		addi	sp,sp,-16
 151              		.cfi_def_cfa_offset 16
 152 00f0 23348100 		sd	s0,8(sp)
 153              		.cfi_offset 8, -8
 154 00f4 13040101 		addi	s0,sp,16
 155              		.cfi_def_cfa 8, 0
 156              		.loc 1 20 25
 157              		.loc 1 20 29 is_stmt 0
 158 00f8 23300500 		sd	zero,0(a0)
 159              		.loc 1 20 52
 160 00fc 03348100 		ld	s0,8(sp)
 161              		.cfi_restore 8
 162              		.cfi_def_cfa 2, 16
 163 0100 13010101 		addi	sp,sp,16
 164              		.cfi_def_cfa_offset 0
 165 0104 67800000 		jr	ra
 166              		.cfi_endproc
 167              	.LFE117:
 169              		.align	2
 170              		.globl	_ZN8PMTEntry6get_paEv
 172              	_ZN8PMTEntry6get_paEv:
 173              	.LFB118:
  21:src/kernel/virtualization/pmt.cpp **** 
  22:src/kernel/virtualization/pmt.cpp **** void* PMTEntry::get_pa(){
 174              		.loc 1 22 25 is_stmt 1
 175              		.cfi_startproc
 176              	.LVL14:
 177 0108 130101FF 		addi	sp,sp,-16
 178              		.cfi_def_cfa_offset 16
 179 010c 23348100 		sd	s0,8(sp)
 180              		.cfi_offset 8, -8
 181 0110 13040101 		addi	s0,sp,16
 182              		.cfi_def_cfa 8, 0
  23:src/kernel/virtualization/pmt.cpp ****     uint64 mask = (~0ULL) << 10;
 183              		.loc 1 23 5
 184              	.LVL15:
  24:src/kernel/virtualization/pmt.cpp ****     return (void*)((val & mask) << 2);
 185              		.loc 1 24 5
 186              		.loc 1 24 21 is_stmt 0
 187 0114 83370500 		ld	a5,0(a0)
 188              		.loc 1 24 33
 189 0118 93972700 		slli	a5,a5,2
  25:src/kernel/virtualization/pmt.cpp **** }
 190              		.loc 1 25 1
 191 011c 37F5FFFF 		li	a0,-4096
 192              	.LVL16:
 193 0120 33F5A700 		and	a0,a5,a0
 194 0124 03348100 		ld	s0,8(sp)
 195              		.cfi_restore 8
 196              		.cfi_def_cfa 2, 16
 197 0128 13010101 		addi	sp,sp,16
 198              		.cfi_def_cfa_offset 0
 199 012c 67800000 		jr	ra
 200              		.cfi_endproc
 201              	.LFE118:
 203              		.align	2
GAS LISTING /tmp/ccpb0gcC.s 			page 5


 204              		.globl	_ZN8PMTEntry6set_paEPv
 206              	_ZN8PMTEntry6set_paEPv:
 207              	.LFB119:
  26:src/kernel/virtualization/pmt.cpp **** 
  27:src/kernel/virtualization/pmt.cpp **** int PMTEntry::set_pa(void* pa){
 208              		.loc 1 27 31 is_stmt 1
 209              		.cfi_startproc
 210              	.LVL17:
 211 0130 130101FF 		addi	sp,sp,-16
 212              		.cfi_def_cfa_offset 16
 213 0134 23348100 		sd	s0,8(sp)
 214              		.cfi_offset 8, -8
 215 0138 13040101 		addi	s0,sp,16
 216              		.cfi_def_cfa 8, 0
  28:src/kernel/virtualization/pmt.cpp ****     uint64 mask = (~0ULL) << 12, 
 217              		.loc 1 28 5
 218              	.LVL18:
  29:src/kernel/virtualization/pmt.cpp ****     uipa = (uint64) pa; //uint phisical address
  30:src/kernel/virtualization/pmt.cpp ****     
  31:src/kernel/virtualization/pmt.cpp ****     if( (mask & uipa) != uipa )
 219              		.loc 1 31 5
 220 013c 93974503 		slli	a5,a1,52
 221 0140 63940702 		bne	a5,zero,.L13
  32:src/kernel/virtualization/pmt.cpp ****         return -1; //exception
  33:src/kernel/virtualization/pmt.cpp ****     
  34:src/kernel/virtualization/pmt.cpp ****     mask = ~((~0ULL) << 10);
 222              		.loc 1 34 5
 223              	.LVL19:
  35:src/kernel/virtualization/pmt.cpp ****     val &= mask;
 224              		.loc 1 35 5
 225              		.loc 1 35 9 is_stmt 0
 226 0144 83370500 		ld	a5,0(a0)
 227 0148 93F7F73F 		andi	a5,a5,1023
  36:src/kernel/virtualization/pmt.cpp ****     val |= (uipa >> 2); 
 228              		.loc 1 36 5 is_stmt 1
 229              		.loc 1 36 18 is_stmt 0
 230 014c 93D52500 		srli	a1,a1,2
 231              	.LVL20:
 232              		.loc 1 36 9
 233 0150 B3E7B700 		or	a5,a5,a1
 234 0154 2330F500 		sd	a5,0(a0)
  37:src/kernel/virtualization/pmt.cpp ****     return 0;
 235              		.loc 1 37 5 is_stmt 1
 236              		.loc 1 37 12 is_stmt 0
 237 0158 13050000 		li	a0,0
 238              	.LVL21:
 239              	.L12:
  38:src/kernel/virtualization/pmt.cpp **** }
 240              		.loc 1 38 1
 241 015c 03348100 		ld	s0,8(sp)
 242              		.cfi_remember_state
 243              		.cfi_restore 8
 244              		.cfi_def_cfa 2, 16
 245 0160 13010101 		addi	sp,sp,16
 246              		.cfi_def_cfa_offset 0
 247 0164 67800000 		jr	ra
 248              	.LVL22:
GAS LISTING /tmp/ccpb0gcC.s 			page 6


 249              	.L13:
 250              		.cfi_restore_state
  32:src/kernel/virtualization/pmt.cpp ****     
 251              		.loc 1 32 17
 252 0168 1305F0FF 		li	a0,-1
 253              	.LVL23:
 254 016c 6FF01FFF 		j	.L12
 255              		.cfi_endproc
 256              	.LFE119:
 258              		.align	2
 259              		.globl	_ZN8PMTEntry9chk_flagsE12PMTEntryBits
 261              	_ZN8PMTEntry9chk_flagsE12PMTEntryBits:
 262              	.LFB120:
  39:src/kernel/virtualization/pmt.cpp **** 
  40:src/kernel/virtualization/pmt.cpp **** bool PMTEntry::chk_flags(PMTEntryBits peb){
 263              		.loc 1 40 43 is_stmt 1
 264              		.cfi_startproc
 265              	.LVL24:
 266 0170 130101FF 		addi	sp,sp,-16
 267              		.cfi_def_cfa_offset 16
 268 0174 23348100 		sd	s0,8(sp)
 269              		.cfi_offset 8, -8
 270 0178 13040101 		addi	s0,sp,16
 271              		.cfi_def_cfa 8, 0
  41:src/kernel/virtualization/pmt.cpp ****     uint64 t = val & peb;
 272              		.loc 1 41 5
 273              		.loc 1 41 16 is_stmt 0
 274 017c 03350500 		ld	a0,0(a0)
 275              	.LVL25:
 276              		.loc 1 41 12
 277 0180 3375B500 		and	a0,a0,a1
 278              	.LVL26:
  42:src/kernel/virtualization/pmt.cpp ****     return t == peb;
 279              		.loc 1 42 5 is_stmt 1
 280              		.loc 1 42 17 is_stmt 0
 281 0184 3385A540 		sub	a0,a1,a0
 282              	.LVL27:
  43:src/kernel/virtualization/pmt.cpp **** }
 283              		.loc 1 43 1
 284 0188 13351500 		seqz	a0,a0
 285 018c 03348100 		ld	s0,8(sp)
 286              		.cfi_restore 8
 287              		.cfi_def_cfa 2, 16
 288 0190 13010101 		addi	sp,sp,16
 289              		.cfi_def_cfa_offset 0
 290 0194 67800000 		jr	ra
 291              		.cfi_endproc
 292              	.LFE120:
 294              		.align	2
 295              		.globl	_ZN3PMT9get_entryEhPv
 297              	_ZN3PMT9get_entryEhPv:
 298              	.LFB121:
  44:src/kernel/virtualization/pmt.cpp **** 
  45:src/kernel/virtualization/pmt.cpp **** PMTEntry* PMT::get_entry(uchar level, void *vaddr){
 299              		.loc 1 45 51 is_stmt 1
 300              		.cfi_startproc
 301              	.LVL28:
GAS LISTING /tmp/ccpb0gcC.s 			page 7


 302 0198 130101FF 		addi	sp,sp,-16
 303              		.cfi_def_cfa_offset 16
 304 019c 23348100 		sd	s0,8(sp)
 305              		.cfi_offset 8, -8
 306 01a0 13040101 		addi	s0,sp,16
 307              		.cfi_def_cfa 8, 0
  46:src/kernel/virtualization/pmt.cpp ****     if(level >= 3) return nullptr;
 308              		.loc 1 46 5
 309 01a4 93072000 		li	a5,2
 310 01a8 63EAB704 		bgtu	a1,a5,.L19
  47:src/kernel/virtualization/pmt.cpp ****     if(INVALID_MASK & (size_t)vaddr) return nullptr;
 311              		.loc 1 47 5
 312              		.loc 1 47 21 is_stmt 0
 313 01ac 9307F0FF 		li	a5,-1
 314 01b0 93977702 		slli	a5,a5,39
 315 01b4 B377F600 		and	a5,a2,a5
 316              		.loc 1 47 5
 317 01b8 63960704 		bne	a5,zero,.L20
  48:src/kernel/virtualization/pmt.cpp ****     
  49:src/kernel/virtualization/pmt.cpp ****     return entry + 
 318              		.loc 1 49 5 is_stmt 1
  50:src/kernel/virtualization/pmt.cpp ****     ( ((uint64)(vaddr) & VADDR_MASK[level]) >> (12 + 9*level) );
 319              		.loc 1 50 42 is_stmt 0
 320 01bc 9B850500 		sext.w	a1,a1
 321              	.LVL29:
 322 01c0 13973500 		slli	a4,a1,3
 323 01c4 97070000 		lla	a5,.LANCHOR0
 323      93870700 
 324 01cc B387E700 		add	a5,a5,a4
 325 01d0 83B70700 		ld	a5,0(a5)
 326              		.loc 1 50 24
 327 01d4 3376F600 		and	a2,a2,a5
 328              	.LVL30:
 329              		.loc 1 50 55
 330 01d8 9B973500 		slliw	a5,a1,3
 331 01dc BB85B700 		addw	a1,a5,a1
 332              		.loc 1 50 52
 333 01e0 9385C500 		addi	a1,a1,12
 334              		.loc 1 50 45
 335 01e4 3356B600 		srl	a2,a2,a1
  49:src/kernel/virtualization/pmt.cpp ****     ( ((uint64)(vaddr) & VADDR_MASK[level]) >> (12 + 9*level) );
 336              		.loc 1 49 18
 337 01e8 13163600 		slli	a2,a2,3
 338              		.loc 1 50 63
 339 01ec 3305C500 		add	a0,a0,a2
 340              	.LVL31:
 341              	.L17:
  51:src/kernel/virtualization/pmt.cpp **** }
 342              		.loc 1 51 1
 343 01f0 03348100 		ld	s0,8(sp)
 344              		.cfi_remember_state
 345              		.cfi_restore 8
 346              		.cfi_def_cfa 2, 16
 347 01f4 13010101 		addi	sp,sp,16
 348              		.cfi_def_cfa_offset 0
 349 01f8 67800000 		jr	ra
 350              	.LVL32:
GAS LISTING /tmp/ccpb0gcC.s 			page 8


 351              	.L19:
 352              		.cfi_restore_state
  46:src/kernel/virtualization/pmt.cpp ****     if(INVALID_MASK & (size_t)vaddr) return nullptr;
 353              		.loc 1 46 27
 354 01fc 13050000 		li	a0,0
 355              	.LVL33:
 356 0200 6FF01FFF 		j	.L17
 357              	.LVL34:
 358              	.L20:
  47:src/kernel/virtualization/pmt.cpp ****     
 359              		.loc 1 47 45
 360 0204 13050000 		li	a0,0
 361              	.LVL35:
 362 0208 6FF09FFE 		j	.L17
 363              		.cfi_endproc
 364              	.LFE121:
 366              		.align	2
 367              		.globl	_ZN3PMT9get_entryEm
 369              	_ZN3PMT9get_entryEm:
 370              	.LFB122:
  52:src/kernel/virtualization/pmt.cpp **** 
  53:src/kernel/virtualization/pmt.cpp **** PMTEntry* PMT::get_entry(uint64 index){
 371              		.loc 1 53 39 is_stmt 1
 372              		.cfi_startproc
 373              	.LVL36:
 374 020c 130101FF 		addi	sp,sp,-16
 375              		.cfi_def_cfa_offset 16
 376 0210 23348100 		sd	s0,8(sp)
 377              		.cfi_offset 8, -8
 378 0214 13040101 		addi	s0,sp,16
 379              		.cfi_def_cfa 8, 0
  54:src/kernel/virtualization/pmt.cpp ****     return entry + index;
 380              		.loc 1 54 5
 381              		.loc 1 54 18 is_stmt 0
 382 0218 93953500 		slli	a1,a1,3
 383              	.LVL37:
  55:src/kernel/virtualization/pmt.cpp **** 
  56:src/kernel/virtualization/pmt.cpp **** }
 384              		.loc 1 56 1
 385 021c 3305B500 		add	a0,a0,a1
 386              	.LVL38:
 387 0220 03348100 		ld	s0,8(sp)
 388              		.cfi_restore 8
 389              		.cfi_def_cfa 2, 16
 390 0224 13010101 		addi	sp,sp,16
 391              		.cfi_def_cfa_offset 0
 392 0228 67800000 		jr	ra
 393              		.cfi_endproc
 394              	.LFE122:
 396              		.align	2
 397              		.globl	_ZN3PMT5clearEv
 399              	_ZN3PMT5clearEv:
 400              	.LFB123:
  57:src/kernel/virtualization/pmt.cpp **** 
  58:src/kernel/virtualization/pmt.cpp **** 
  59:src/kernel/virtualization/pmt.cpp **** void PMT::clear(){
 401              		.loc 1 59 18 is_stmt 1
GAS LISTING /tmp/ccpb0gcC.s 			page 9


 402              		.cfi_startproc
 403              	.LVL39:
 404 022c 130101FE 		addi	sp,sp,-32
 405              		.cfi_def_cfa_offset 32
 406 0230 233C1100 		sd	ra,24(sp)
 407 0234 23388100 		sd	s0,16(sp)
 408 0238 23349100 		sd	s1,8(sp)
 409 023c 23302101 		sd	s2,0(sp)
 410              		.cfi_offset 1, -8
 411              		.cfi_offset 8, -16
 412              		.cfi_offset 9, -24
 413              		.cfi_offset 18, -32
 414 0240 13040102 		addi	s0,sp,32
 415              		.cfi_def_cfa 8, 0
 416 0244 13090500 		mv	s2,a0
  60:src/kernel/virtualization/pmt.cpp ****     for(uint64 i = 0; i < PMT_LEVEL_SIZE; i++)
 417              		.loc 1 60 5
 418              	.LVL40:
 419              	.LBB2:
 420              		.loc 1 60 16 is_stmt 0
 421 0248 93040000 		li	s1,0
 422              	.LVL41:
 423              	.L26:
 424              		.loc 1 60 25 discriminator 3
 425 024c 9307F01F 		li	a5,511
 426 0250 63EE9700 		bgtu	s1,a5,.L24
  61:src/kernel/virtualization/pmt.cpp ****         entry[i].clear();
 427              		.loc 1 61 9 is_stmt 1 discriminator 2
 428              		.loc 1 61 23 is_stmt 0 discriminator 2
 429 0254 13953400 		slli	a0,s1,3
 430 0258 3305A900 		add	a0,s2,a0
 431 025c 97000000 		call	_ZN8PMTEntry5clearEv
 431      E7800000 
 432              	.LVL42:
  60:src/kernel/virtualization/pmt.cpp ****     for(uint64 i = 0; i < PMT_LEVEL_SIZE; i++)
 433              		.loc 1 60 5 discriminator 2
 434 0264 93841400 		addi	s1,s1,1
 435              	.LVL43:
 436 0268 6FF05FFE 		j	.L26
 437              	.L24:
 438              	.LBE2:
  62:src/kernel/virtualization/pmt.cpp **** }
 439              		.loc 1 62 1
 440 026c 83308101 		ld	ra,24(sp)
 441              		.cfi_restore 1
 442 0270 03340101 		ld	s0,16(sp)
 443              		.cfi_restore 8
 444              		.cfi_def_cfa 2, 32
 445 0274 83348100 		ld	s1,8(sp)
 446              		.cfi_restore 9
 447              	.LVL44:
 448 0278 03390100 		ld	s2,0(sp)
 449              		.cfi_restore 18
 450              	.LVL45:
 451 027c 13010102 		addi	sp,sp,32
 452              		.cfi_def_cfa_offset 0
 453 0280 67800000 		jr	ra
GAS LISTING /tmp/ccpb0gcC.s 			page 10


 454              		.cfi_endproc
 455              	.LFE123:
 457              		.align	2
 458              		.globl	_ZN3PMT12allocate_pmtEv
 460              	_ZN3PMT12allocate_pmtEv:
 461              	.LFB113:
   5:src/kernel/virtualization/pmt.cpp ****     PMT* ret = (PMT*)(Buddy::getInstance().mem_alloc(BUDDY_LEVEL(sizeof(PMT))));
 462              		.loc 1 5 25 is_stmt 1
 463              		.cfi_startproc
 464 0284 130101FE 		addi	sp,sp,-32
 465              		.cfi_def_cfa_offset 32
 466 0288 233C1100 		sd	ra,24(sp)
 467 028c 23388100 		sd	s0,16(sp)
 468 0290 23349100 		sd	s1,8(sp)
 469              		.cfi_offset 1, -8
 470              		.cfi_offset 8, -16
 471              		.cfi_offset 9, -24
 472 0294 13040102 		addi	s0,sp,32
 473              		.cfi_def_cfa 8, 0
   6:src/kernel/virtualization/pmt.cpp ****     ret->clear();
 474              		.loc 1 6 5
   6:src/kernel/virtualization/pmt.cpp ****     ret->clear();
 475              		.loc 1 6 42 is_stmt 0
 476 0298 97000000 		call	_ZN5Buddy11getInstanceEv
 476      E7800000 
 477              	.LVL46:
 478 02a0 93040500 		mv	s1,a0
   6:src/kernel/virtualization/pmt.cpp ****     ret->clear();
 479              		.loc 1 6 54
 480 02a4 37150000 		li	a0,4096
 481 02a8 97000000 		call	_Z4log2m
 481      E7800000 
 482              	.LVL47:
 483 02b0 B7170000 		li	a5,4096
 484 02b4 9387F7FF 		addi	a5,a5,-1
 485 02b8 33D5A700 		srl	a0,a5,a0
 486 02bc 13051500 		addi	a0,a0,1
 487 02c0 97000000 		call	_Z4log2m
 487      E7800000 
 488              	.LVL48:
   6:src/kernel/virtualization/pmt.cpp ****     ret->clear();
 489              		.loc 1 6 53
 490 02c8 93050500 		mv	a1,a0
 491 02cc 13850400 		mv	a0,s1
 492 02d0 97000000 		call	_ZN5Buddy9mem_allocEh
 492      E7800000 
 493              	.LVL49:
 494 02d8 93040500 		mv	s1,a0
 495              	.LVL50:
   7:src/kernel/virtualization/pmt.cpp ****     return ret;
 496              		.loc 1 7 5 is_stmt 1
   7:src/kernel/virtualization/pmt.cpp ****     return ret;
 497              		.loc 1 7 15 is_stmt 0
 498 02dc 97000000 		call	_ZN3PMT5clearEv
 498      E7800000 
 499              	.LVL51:
   8:src/kernel/virtualization/pmt.cpp **** }
GAS LISTING /tmp/ccpb0gcC.s 			page 11


 500              		.loc 1 8 5 is_stmt 1
   9:src/kernel/virtualization/pmt.cpp **** 
 501              		.loc 1 9 1 is_stmt 0
 502 02e4 13850400 		mv	a0,s1
 503 02e8 83308101 		ld	ra,24(sp)
 504              		.cfi_restore 1
 505 02ec 03340101 		ld	s0,16(sp)
 506              		.cfi_restore 8
 507              		.cfi_def_cfa 2, 32
 508 02f0 83348100 		ld	s1,8(sp)
 509              		.cfi_restore 9
 510              	.LVL52:
 511 02f4 13010102 		addi	sp,sp,32
 512              		.cfi_def_cfa_offset 0
 513 02f8 67800000 		jr	ra
 514              		.cfi_endproc
 515              	.LFE113:
 517              		.align	2
 518              		.globl	_ZN3PMT5printEv
 520              	_ZN3PMT5printEv:
 521              	.LFB124:
  63:src/kernel/virtualization/pmt.cpp **** 
  64:src/kernel/virtualization/pmt.cpp **** void PMT::print(){
 522              		.loc 1 64 18 is_stmt 1
 523              		.cfi_startproc
 524              	.LVL53:
 525 02fc 130101FD 		addi	sp,sp,-48
 526              		.cfi_def_cfa_offset 48
 527 0300 23341102 		sd	ra,40(sp)
 528 0304 23308102 		sd	s0,32(sp)
 529 0308 233C9100 		sd	s1,24(sp)
 530 030c 23382101 		sd	s2,16(sp)
 531 0310 23343101 		sd	s3,8(sp)
 532              		.cfi_offset 1, -8
 533              		.cfi_offset 8, -16
 534              		.cfi_offset 9, -24
 535              		.cfi_offset 18, -32
 536              		.cfi_offset 19, -40
 537 0314 13040103 		addi	s0,sp,48
 538              		.cfi_def_cfa 8, 0
 539 0318 93090500 		mv	s3,a0
  65:src/kernel/virtualization/pmt.cpp ****     for(uint64 i = 0; i < PMT_LEVEL_SIZE; i++){
 540              		.loc 1 65 5
 541              	.LVL54:
 542              	.LBB3:
 543              		.loc 1 65 16 is_stmt 0
 544 031c 13090000 		li	s2,0
 545 0320 6F008007 		j	.L33
 546              	.LVL55:
 547              	.L35:
  66:src/kernel/virtualization/pmt.cpp ****         if(entry[i].chk_flags(PMTEntryBits::valid)){
  67:src/kernel/virtualization/pmt.cpp ****             KPRINTARR(entry, i, entry[i].chk_flags(PMTEntryBits::valid));
 548              		.loc 1 67 13 is_stmt 1
 549 0324 17050000 		lla	a0,.LC3
 549      13050500 
 550 032c 97000000 		call	_Z12kprintStringPKc
 550      E7800000 
GAS LISTING /tmp/ccpb0gcC.s 			page 12


 551              	.LVL56:
 552              		.loc 1 67 13
 553 0334 13060000 		li	a2,0
 554 0338 9305A000 		li	a1,10
 555 033c 13050900 		mv	a0,s2
 556 0340 97000000 		call	_Z9kprintIntmib
 556      E7800000 
 557              	.LVL57:
 558              		.loc 1 67 13
 559 0348 17050000 		lla	a0,.LC4
 559      13050500 
 560 0350 97000000 		call	_Z12kprintStringPKc
 560      E7800000 
 561              	.LVL58:
 562              		.loc 1 67 13
 563 0358 93051000 		li	a1,1
 564 035c 13850400 		mv	a0,s1
 565 0360 97000000 		call	_ZN8PMTEntry9chk_flagsE12PMTEntryBits
 565      E7800000 
 566              	.LVL59:
 567 0368 13060000 		li	a2,0
 568 036c 93050001 		li	a1,16
 569 0370 97000000 		call	_Z9kprintIntmib
 569      E7800000 
 570              	.LVL60:
 571              		.loc 1 67 13
 572 0378 17050000 		lla	a0,.LC1
 572      13050500 
 573 0380 97000000 		call	_Z12kprintStringPKc
 573      E7800000 
 574              	.LVL61:
  68:src/kernel/virtualization/pmt.cpp ****             entry[i].print();
 575              		.loc 1 68 13
 576              		.loc 1 68 27 is_stmt 0
 577 0388 13850400 		mv	a0,s1
 578 038c 97000000 		call	_ZN8PMTEntry5printEv
 578      E7800000 
 579              	.LVL62:
 580              	.L32:
  65:src/kernel/virtualization/pmt.cpp ****     for(uint64 i = 0; i < PMT_LEVEL_SIZE; i++){
 581              		.loc 1 65 5 discriminator 2
 582 0394 13091900 		addi	s2,s2,1
 583              	.LVL63:
 584              	.L33:
  65:src/kernel/virtualization/pmt.cpp ****     for(uint64 i = 0; i < PMT_LEVEL_SIZE; i++){
 585              		.loc 1 65 25 discriminator 1
 586 0398 9307F01F 		li	a5,511
 587 039c 63E22703 		bgtu	s2,a5,.L30
  66:src/kernel/virtualization/pmt.cpp ****         if(entry[i].chk_flags(PMTEntryBits::valid)){
 588              		.loc 1 66 9 is_stmt 1
  66:src/kernel/virtualization/pmt.cpp ****         if(entry[i].chk_flags(PMTEntryBits::valid)){
 589              		.loc 1 66 30 is_stmt 0
 590 03a0 93143900 		slli	s1,s2,3
 591 03a4 B3849900 		add	s1,s3,s1
 592 03a8 93051000 		li	a1,1
 593 03ac 13850400 		mv	a0,s1
 594 03b0 97000000 		call	_ZN8PMTEntry9chk_flagsE12PMTEntryBits
GAS LISTING /tmp/ccpb0gcC.s 			page 13


 594      E7800000 
 595              	.LVL64:
  66:src/kernel/virtualization/pmt.cpp ****         if(entry[i].chk_flags(PMTEntryBits::valid)){
 596              		.loc 1 66 9
 597 03b8 E30E05FC 		beq	a0,zero,.L32
 598 03bc 6FF09FF6 		j	.L35
 599              	.L30:
 600              	.LBE3:
  69:src/kernel/virtualization/pmt.cpp ****         }
  70:src/kernel/virtualization/pmt.cpp ****     }
  71:src/kernel/virtualization/pmt.cpp **** }...
 601              		.loc 1 71 1
 602 03c0 83308102 		ld	ra,40(sp)
 603              		.cfi_restore 1
 604 03c4 03340102 		ld	s0,32(sp)
 605              		.cfi_restore 8
 606              		.cfi_def_cfa 2, 48
 607 03c8 83348101 		ld	s1,24(sp)
 608              		.cfi_restore 9
 609 03cc 03390101 		ld	s2,16(sp)
 610              		.cfi_restore 18
 611              	.LVL65:
 612 03d0 83398100 		ld	s3,8(sp)
 613              		.cfi_restore 19
 614              	.LVL66:
 615 03d4 13010103 		addi	sp,sp,48
 616              		.cfi_def_cfa_offset 0
 617 03d8 67800000 		jr	ra
 618              		.cfi_endproc
 619              	.LFE124:
 621              		.globl	_ZN3PMT10VADDR_MASKE
 622              		.section	.rodata
 623              		.align	3
 624              		.set	.LANCHOR0,. + 0
 627              	_ZN3PMT10VADDR_MASKE:
 628 0000 00F01F00 		.dword	2093056
 628      00000000 
 629 0008 0000E03F 		.dword	1071644672
 629      00000000 
 630 0010 000000C0 		.dword	548682072064
 630      7F000000 
 631              		.section	.rodata.str1.8,"aMS",@progbits,1
 632              		.align	3
 633              	.LC0:
 634 0000 50413A20 		.string	"PA: "
 634      00
 635 0005 000000   		.zero	3
 636              	.LC1:
 637 0008 0A00     		.string	"\n"
 638 000a 00000000 		.zero	6
 638      0000
 639              	.LC2:
 640 0010 62697473 		.string	"bits: "
 640      3A2000
 641 0017 00       		.zero	1
 642              	.LC3:
 643 0018 656E7472 		.string	"entry["
GAS LISTING /tmp/ccpb0gcC.s 			page 14


 643      795B00
 644 001f 00       		.zero	1
 645              	.LC4:
 646 0020 5D3A2000 		.string	"]: "
 647              		.text
 648              	.Letext0:
 649              		.file 2 "src/kernel/virtualization/../../../h/../h/../lib/hw.h"
 650              		.file 3 "src/kernel/virtualization/../../../h/../h/pmt.h"
 651              		.file 4 "src/kernel/virtualization/../../../h/../h/buddy.h"
 652              		.file 5 "src/kernel/virtualization/../../../h/../h/slab.h"
 653              		.file 6 "src/kernel/virtualization/../../../h/kernel_lib.h"
 654              		.file 7 "src/kernel/virtualization/../../../h/../h/kernel_funs.h"
GAS LISTING /tmp/ccpb0gcC.s 			page 15

