GAS LISTING /tmp/ccpb0gcC.s 			page 1


   1              		.file	"pmt.cpp"
   2              		.option nopic
   3              		.option norelax
   4              		.attribute arch, "rv64i2p0_m2p0_a2p0"
   5              		.attribute unaligned_access, 0
   6              		.attribute stack_align, 16
   7              		.text
   8              	.Ltext0:
   9              		.align	2
  10              		.globl	_ZN8PMTEntry5printEv
  12              	_ZN8PMTEntry5printEv:
  13              	.LFB114:
  14              		.file 1 "src/kernel/virtualization/pmt.cpp"
   1:src/kernel/virtualization/pmt.cpp **** #include"../../../h/kernel_lib.h"
   2:src/kernel/virtualization/pmt.cpp **** 
   3:src/kernel/virtualization/pmt.cpp **** const size_t PMT::VADDR_MASK[3] = { (size_t)( -(1LL<<12) ^ -(1LL<<21)), (size_t)( -(1LL<<21) ^ -(1L
   4:src/kernel/virtualization/pmt.cpp **** 
   5:src/kernel/virtualization/pmt.cpp **** PMT* PMT::allocate_pmt(){
   6:src/kernel/virtualization/pmt.cpp ****     PMT* ret = (PMT*)(Buddy::getInstance().mem_alloc(BUDDY_LEVEL(sizeof(PMT))));
   7:src/kernel/virtualization/pmt.cpp ****     ret->clear();
   8:src/kernel/virtualization/pmt.cpp ****     return ret;
   9:src/kernel/virtualization/pmt.cpp **** }
  10:src/kernel/virtualization/pmt.cpp **** 
  11:src/kernel/virtualization/pmt.cpp **** void PMTEntry::print(){
  15              		.loc 1 11 23
  16              		.cfi_startproc
  17              	.LVL0:
  18 0000 130101FE 		addi	sp,sp,-32
  19              		.cfi_def_cfa_offset 32
  20 0004 233C1100 		sd	ra,24(sp)
  21 0008 23388100 		sd	s0,16(sp)
  22 000c 23349100 		sd	s1,8(sp)
  23              		.cfi_offset 1, -8
  24              		.cfi_offset 8, -16
  25              		.cfi_offset 9, -24
  26 0010 13040102 		addi	s0,sp,32
  27              		.cfi_def_cfa 8, 0
  28 0014 93040500 		mv	s1,a0
  12:src/kernel/virtualization/pmt.cpp ****     KVALCHECKPRINT(PA, (val >> 10) << 12);
  29              		.loc 1 12 5
  30 0018 17050000 		lla	a0,.LC0
  30      13050500 
  31              	.LVL1:
  32 0020 97000000 		call	_Z12kprintStringPKc
  32      E7800000 
  33              	.LVL2:
  34              		.loc 1 12 5
  35 0028 03B50400 		ld	a0,0(s1)
  36 002c 1355A500 		srli	a0,a0,10
  37 0030 13060000 		li	a2,0
  38 0034 93050001 		li	a1,16
  39 0038 1315C500 		slli	a0,a0,12
  40 003c 97000000 		call	_Z9kprintIntmib
  40      E7800000 
  41              	.LVL3:
  42              		.loc 1 12 5
  43 0044 17050000 		lla	a0,.LC1
GAS LISTING /tmp/ccpb0gcC.s 			page 2


  43      13050500 
  44 004c 97000000 		call	_Z12kprintStringPKc
  44      E7800000 
  45              	.LVL4:
  13:src/kernel/virtualization/pmt.cpp ****     kprintString("bits: "); kprintInt((val & 511ULL), 2); kprintString("\n");
  46              		.loc 1 13 5
  47              		.loc 1 13 17 is_stmt 0
  48 0054 17050000 		lla	a0,.LC2
  48      13050500 
  49 005c 97000000 		call	_Z12kprintStringPKc
  49      E7800000 
  50              	.LVL5:
  51              		.loc 1 13 29 is_stmt 1
  52              		.loc 1 13 40 is_stmt 0
  53 0064 03B50400 		ld	a0,0(s1)
  54              		.loc 1 13 38
  55 0068 13060000 		li	a2,0
  56 006c 93052000 		li	a1,2
  57 0070 1375F51F 		andi	a0,a0,511
  58 0074 97000000 		call	_Z9kprintIntmib
  58      E7800000 
  59              	.LVL6:
  60              		.loc 1 13 59 is_stmt 1
  61              		.loc 1 13 71 is_stmt 0
  62 007c 17050000 		lla	a0,.LC1
  62      13050500 
  63 0084 97000000 		call	_Z12kprintStringPKc
  63      E7800000 
  64              	.LVL7:
  14:src/kernel/virtualization/pmt.cpp **** }
  65              		.loc 1 14 1
  66 008c 83308101 		ld	ra,24(sp)
  67              		.cfi_restore 1
  68 0090 03340101 		ld	s0,16(sp)
  69              		.cfi_restore 8
  70              		.cfi_def_cfa 2, 32
  71 0094 83348100 		ld	s1,8(sp)
  72              		.cfi_restore 9
  73              	.LVL8:
  74 0098 13010102 		addi	sp,sp,32
  75              		.cfi_def_cfa_offset 0
  76 009c 67800000 		jr	ra
  77              		.cfi_endproc
  78              	.LFE114:
  80              		.align	2
  81              		.globl	_ZN8PMTEntry9set_flagsE12PMTEntryBits
  83              	_ZN8PMTEntry9set_flagsE12PMTEntryBits:
  84              	.LFB115:
  15:src/kernel/virtualization/pmt.cpp **** 
  16:src/kernel/virtualization/pmt.cpp **** void PMTEntry::set_flags(PMTEntryBits peb){ val |= (uint64) peb; }
  85              		.loc 1 16 43 is_stmt 1
  86              		.cfi_startproc
  87              	.LVL9:
  88 00a0 130101FF 		addi	sp,sp,-16
  89              		.cfi_def_cfa_offset 16
  90 00a4 23348100 		sd	s0,8(sp)
  91              		.cfi_offset 8, -8
GAS LISTING /tmp/ccpb0gcC.s 			page 3


  92 00a8 13040101 		addi	s0,sp,16
  93              		.cfi_def_cfa 8, 0
  94              		.loc 1 16 45
  95              		.loc 1 16 49 is_stmt 0
  96 00ac 83370500 		ld	a5,0(a0)
  97 00b0 B3E5B700 		or	a1,a5,a1
  98              	.LVL10:
  99 00b4 2330B500 		sd	a1,0(a0)
 100              		.loc 1 16 66
 101 00b8 03348100 		ld	s0,8(sp)
 102              		.cfi_restore 8
 103              		.cfi_def_cfa 2, 16
 104 00bc 13010101 		addi	sp,sp,16
 105              		.cfi_def_cfa_offset 0
 106 00c0 67800000 		jr	ra
 107              		.cfi_endproc
 108              	.LFE115:
 110              		.align	2
 111              		.globl	_ZN8PMTEntry11clear_flagsE12PMTEntryBits
 113              	_ZN8PMTEntry11clear_flagsE12PMTEntryBits:
 114              	.LFB116:
  17:src/kernel/virtualization/pmt.cpp **** 
  18:src/kernel/virtualization/pmt.cpp **** void PMTEntry::clear_flags(PMTEntryBits peb){ val &= ~((uint64) peb); }
 115              		.loc 1 18 45 is_stmt 1
 116              		.cfi_startproc
 117              	.LVL11:
 118 00c4 130101FF 		addi	sp,sp,-16
 119              		.cfi_def_cfa_offset 16
 120 00c8 23348100 		sd	s0,8(sp)
 121              		.cfi_offset 8, -8
 122 00cc 13040101 		addi	s0,sp,16
 123              		.cfi_def_cfa 8, 0
 124              		.loc 1 18 47
 125              		.loc 1 18 54 is_stmt 0
 126 00d0 93C5F5FF 		not	a1,a1
 127              	.LVL12:
 128              		.loc 1 18 51
 129 00d4 83370500 		ld	a5,0(a0)
 130 00d8 B3F7B700 		and	a5,a5,a1
 131 00dc 2330F500 		sd	a5,0(a0)
 132              		.loc 1 18 71
 133 00e0 03348100 		ld	s0,8(sp)
 134              		.cfi_restore 8
 135              		.cfi_def_cfa 2, 16
 136 00e4 13010101 		addi	sp,sp,16
 137              		.cfi_def_cfa_offset 0
 138 00e8 67800000 		jr	ra
 139              		.cfi_endproc
 140              	.LFE116:
 142              		.align	2
 143              		.globl	_ZN8PMTEntry5clearEv
 145              	_ZN8PMTEntry5clearEv:
 146              	.LFB117:
  19:src/kernel/virtualization/pmt.cpp **** 
  20:src/kernel/virtualization/pmt.cpp **** void PMTEntry::clear(){ val = PMTEntryBits::clear; }
 147              		.loc 1 20 23 is_stmt 1
 148              		.cfi_startproc
GAS LISTING /tmp/ccpb0gcC.s 			page 4


 149              	.LVL13:
 150 00ec 130101FF 		addi	sp,sp,-16
 151              		.cfi_def_cfa_offset 16
 152 00f0 23348100 		sd	s0,8(sp)
 153              		.cfi_offset 8, -8
 154 00f4 13040101 		addi	s0,sp,16
 155              		.cfi_def_cfa 8, 0
 156              		.loc 1 20 25
 157              		.loc 1 20 29 is_stmt 0
 158 00f8 23300500 		sd	zero,0(a0)
 159              		.loc 1 20 52
 160 00fc 03348100 		ld	s0,8(sp)
 161              		.cfi_restore 8
 162              		.cfi_def_cfa 2, 16
 163 0100 13010101 		addi	sp,sp,16
 164              		.cfi_def_cfa_offset 0
 165 0104 67800000 		jr	ra
 166              		.cfi_endproc
 167              	.LFE117:
 169              		.align	2
 170              		.globl	_ZN8PMTEntry6get_paEv
 172              	_ZN8PMTEntry6get_paEv:
 173              	.LFB118:
  21:src/kernel/virtualization/pmt.cpp **** 
  22:src/kernel/virtualization/pmt.cpp **** void* PMTEntry::get_pa(){
 174              		.loc 1 22 25 is_stmt 1
 175              		.cfi_startproc
 176              	.LVL14:
 177 0108 130101FF 		addi	sp,sp,-16
 178              		.cfi_def_cfa_offset 16
 179 010c 23348100 		sd	s0,8(sp)
 180              		.cfi_offset 8, -8
 181 0110 13040101 		addi	s0,sp,16
 182              		.cfi_def_cfa 8, 0
  23:src/kernel/virtualization/pmt.cpp ****     uint64 mask = (~0ULL) << 10;
 183              		.loc 1 23 5
 184              	.LVL15:
  24:src/kernel/virtualization/pmt.cpp ****     return (void*)((val & mask) << 2);
 185              		.loc 1 24 5
 186              		.loc 1 24 21 is_stmt 0
 187 0114 83370500 		ld	a5,0(a0)
 188              		.loc 1 24 33
 189 0118 93972700 		slli	a5,a5,2
  25:src/kernel/virtualization/pmt.cpp **** }
 190              		.loc 1 25 1
 191 011c 37F5FFFF 		li	a0,-4096
 192              	.LVL16:
 193 0120 33F5A700 		and	a0,a5,a0
 194 0124 03348100 		ld	s0,8(sp)
 195              		.cfi_restore 8
 196              		.cfi_def_cfa 2, 16
 197 0128 13010101 		addi	sp,sp,16
 198              		.cfi_def_cfa_offset 0
 199 012c 67800000 		jr	ra
 200              		.cfi_endproc
 201              	.LFE118:
 203              		.align	2
GAS LISTING /tmp/ccpb0gcC.s 			page 5


 204              		.globl	_ZN8PMTEntry6set_paEPv
 206              	_ZN8PMTEntry6set_paEPv:
 207              	.LFB119:
  26:src/kernel/virtualization/pmt.cpp **** 
  27:src/kernel/virtualization/pmt.cpp **** int PMTEntry::set_pa(void* pa){
 208              		.loc 1 27 31 is_stmt 1
 209              		.cfi_startproc
 210              	.LVL17:
 211 0130 130101FF 		addi	sp,sp,-16
 212              		.cfi_def_cfa_offset 16
 213 0134 23348100 		sd	s0,8(sp)
 214              		.cfi_offset 8, -8
 215 0138 13040101 		addi	s0,sp,16
 216              		.cfi_def_cfa 8, 0
  28:src/kernel/virtualization/pmt.cpp ****     uint64 mask = (~0ULL) << 12, 
 217              		.loc 1 28 5
 218              	.LVL18:
  29:src/kernel/virtualization/pmt.cpp ****     uipa = (uint64) pa; //uint phisical address
  30:src/kernel/virtualization/pmt.cpp ****     
  31:src/kernel/virtualization/pmt.cpp ****     if( (mask & uipa) != uipa )
 219              		.loc 1 31 5
 220 013c 93974503 		slli	a5,a1,52
 221 0140 63940702 		bne	a5,zero,.L13
  32:src/kernel/virtualization/pmt.cpp ****         return -1; //exception
  33:src/kernel/virtualization/pmt.cpp ****     
  34:src/kernel/virtualization/pmt.cpp ****     mask = ~((~0ULL) << 10);
 222              		.loc 1 34 5
 223              	.LVL19:
  35:src/kernel/virtualization/pmt.cpp ****     val &= mask;
 224              		.loc 1 35 5
 225              		.loc 1 35 9 is_stmt 0
 226 0144 83370500 		ld	a5,0(a0)
 227 0148 93F7F73F 		andi	a5,a5,1023
  36:src/kernel/virtualization/pmt.cpp ****     val |= (uipa >> 2); 
 228              		.loc 1 36 5 is_stmt 1
 229              		.loc 1 36 18 is_stmt 0
 230 014c 93D52500 		srli	a1,a1,2
 231              	.LVL20:
 232              		.loc 1 36 9
 233 0150 B3E7B700 		or	a5,a5,a1
 234 0154 2330F500 		sd	a5,0(a0)
  37:src/kernel/virtualization/pmt.cpp ****     return 0;
 235              		.loc 1 37 5 is_stmt 1
 236              		.loc 1 37 12 is_stmt 0
 237 0158 13050000 		li	a0,0
 238              	.LVL21:
 239              	.L12:
  38:src/kernel/virtualization/pmt.cpp **** }
 240              		.loc 1 38 1
 241 015c 03348100 		ld	s0,8(sp)
 242              		.cfi_remember_state
 243              		.cfi_restore 8
 244              		.cfi_def_cfa 2, 16
 245 0160 13010101 		addi	sp,sp,16
 246              		.cfi_def_cfa_offset 0
 247 0164 67800000 		jr	ra
 248              	.LVL22:
GAS LISTING /tmp/ccpb0gcC.s 			page 6


 249              	.L13:
 250              		.cfi_restore_state
  32:src/kernel/virtualization/pmt.cpp ****     
 251              		.loc 1 32 17
 252 0168 1305F0FF 		li	a0,-1
 253              	.LVL23:
 254 016c 6FF01FFF 		j	.L12
 255              		.cfi_endproc
 256              	.LFE119:
 258              		.align	2
 259              		.globl	_ZN8PMTEntry9chk_flagsE12PMTEntryBits
 261              	_ZN8PMTEntry9chk_flagsE12PMTEntryBits:
 262              	.LFB120:
  39:src/kernel/virtualization/pmt.cpp **** 
  40:src/kernel/virtualization/pmt.cpp **** bool PMTEntry::chk_flags(PMTEntryBits peb){
 263              		.loc 1 40 43 is_stmt 1
 264              		.cfi_startproc
 265              	.LVL24:
 266 0170 130101FF 		addi	sp,sp,-16
 267              		.cfi_def_cfa_offset 16
 268 0174 23348100 		sd	s0,8(sp)
 269              		.cfi_offset 8, -8
 270 0178 13040101 		addi	s0,sp,16
 271              		.cfi_def_cfa 8, 0
  41:src/kernel/virtualization/pmt.cpp ****     uint64 t = val & peb;
 272              		.loc 1 41 5
 273              		.loc 1 41 16 is_stmt 0
 274 017c 03350500 		ld	a0,0(a0)
 275              	.LVL25:
 276              		.loc 1 41 12
 277 0180 3375B500 		and	a0,a0,a1
 278              	.LVL26:
  42:src/kernel/virtualization/pmt.cpp ****     return t == peb;
 279              		.loc 1 42 5 is_stmt 1
 280              		.loc 1 42 17 is_stmt 0
 281 0184 3385A540 		sub	a0,a1,a0
 282              	.LVL27:
  43:src/kernel/virtualization/pmt.cpp **** }
 283              		.loc 1 43 1
 284 0188 13351500 		seqz	a0,a0
 285 018c 03348100 		ld	s0,8(sp)
 286              		.cfi_restore 8
 287              		.cfi_def_cfa 2, 16
 288 0190 13010101 		addi	sp,sp,16
 289              		.cfi_def_cfa_offset 0
 290 0194 67800000 		jr	ra
 291              		.cfi_endproc
 292              	.LFE120:
 294              		.align	2
 295              		.globl	_ZN3PMT9get_entryEhPv
 297              	_ZN3PMT9get_entryEhPv:
 298              	.LFB121:
  44:src/kernel/virtualization/pmt.cpp **** 
  45:src/kernel/virtualization/pmt.cpp **** PMTEntry* PMT::get_entry(uchar level, void *vaddr){
 299              		.loc 1 45 51 is_stmt 1
 300              		.cfi_startproc
 301              	.LVL28:
GAS LISTING /tmp/ccpb0gcC.s 			page 7


 302 0198 130101FF 		addi	sp,sp,-16
 303              		.cfi_def_cfa_offset 16
 304 019c 23348100 		sd	s0,8(sp)
 305              		.cfi_offset 8, -8
 306 01a0 13040101 		addi	s0,sp,16
 307              		.cfi_def_cfa 8, 0
  46:src/kernel/virtualization/pmt.cpp ****     if(level >= 3) return nullptr;
 308              		.loc 1 46 5
 309 01a4 93072000 		li	a5,2
 310 01a8 63EAB704 		bgtu	a1,a5,.L19
  47:src/kernel/virtualization/pmt.cpp ****     if(INVALID_MASK & (size_t)vaddr) return nullptr;
 311              		.loc 1 47 5
 312              		.loc 1 47 21 is_stmt 0
 313 01ac 9307F0FF 		li	a5,-1
 314 01b0 93977702 		slli	a5,a5,39
 315 01b4 B377F600 		and	a5,a2,a5
 316              		.loc 1 47 5
 317 01b8 63960704 		bne	a5,zero,.L20
  48:src/kernel/virtualization/pmt.cpp ****     
  49:src/kernel/virtualization/pmt.cpp ****     return entry + 
 318              		.loc 1 49 5 is_stmt 1
  50:src/kernel/virtualization/pmt.cpp ****     ( ((uint64)(vaddr) & VADDR_MASK[level]) >> (12 + 9*level) );
 319              		.loc 1 50 42 is_stmt 0
 320 01bc 9B850500 		sext.w	a1,a1
 321              	.LVL29:
 322 01c0 13973500 		slli	a4,a1,3
 323 01c4 97070000 		lla	a5,.LANCHOR0
 323      93870700 
 324 01cc B387E700 		add	a5,a5,a4
 325 01d0 83B70700 		ld	a5,0(a5)
 326              		.loc 1 50 24
 327 01d4 3376F600 		and	a2,a2,a5
 328              	.LVL30:
 329              		.loc 1 50 55
 330 01d8 9B973500 		slliw	a5,a1,3
 331 01dc BB85B700 		addw	a1,a5,a1
 332              		.loc 1 50 52
 333 01e0 9385C500 		addi	a1,a1,12
 334              		.loc 1 50 45
 335 01e4 3356B600 		srl	a2,a2,a1
  49:src/kernel/virtualization/pmt.cpp ****     ( ((uint64)(vaddr) & VADDR_MASK[level]) >> (12 + 9*level) );
 336              		.loc 1 49 18
 337 01e8 13163600 		slli	a2,a2,3
 338              		.loc 1 50 63
 339 01ec 3305C500 		add	a0,a0,a2
 340              	.LVL31:
 341              	.L17:
  51:src/kernel/virtualization/pmt.cpp **** }
 342              		.loc 1 51 1
 343 01f0 03348100 		ld	s0,8(sp)
 344              		.cfi_remember_state
 345              		.cfi_restore 8
 346              		.cfi_def_cfa 2, 16
 347 01f4 13010101 		addi	sp,sp,16
 348              		.cfi_def_cfa_offset 0
 349 01f8 67800000 		jr	ra
 350              	.LVL32:
GAS LISTING /tmp/ccpb0gcC.s 			page 8


 351              	.L19:
 352              		.cfi_restore_state
  46:src/kernel/virtualization/pmt.cpp ****     if(INVALID_MASK & (size_t)vaddr) return nullptr;
 353              		.loc 1 46 27
 354 01fc 13050000 		li	a0,0
 355              	.LVL33:
 356 0200 6FF01FFF 		j	.L17
 357              	.LVL34:
 358              	.L20:
  47:src/kernel/virtualization/pmt.cpp ****     
 359              		.loc 1 47 45
 360 0204 13050000 		li	a0,0
 361              	.LVL35:
 362 0208 6FF09FFE 		j	.L17
 363              		.cfi_endproc
 364              	.LFE121:
 366              		.align	2
 367              		.globl	_ZN3PMT9get_entryEm
 369              	_ZN3PMT9get_entryEm:
 370              	.LFB122:
  52:src/kernel/virtualization/pmt.cpp **** 
  53:src/kernel/virtualization/pmt.cpp **** PMTEntry* PMT::get_entry(uint64 index){
 371              		.loc 1 53 39 is_stmt 1
 372              		.cfi_startproc
 373              	.LVL36:
 374 020c 130101FF 		addi	sp,sp,-16
 375              		.cfi_def_cfa_offset 16
 376 0210 23348100 		sd	s0,8(sp)
 377              		.cfi_offset 8, -8
 378 0214 13040101 		addi	s0,sp,16
 379              		.cfi_def_cfa 8, 0
  54:src/kernel/virtualization/pmt.cpp ****     return entry + index;
 380              		.loc 1 54 5
 381              		.loc 1 54 18 is_stmt 0
 382 0218 93953500 		slli	a1,a1,3
 383              	.LVL37:
  55:src/kernel/virtualization/pmt.cpp **** 
  56:src/kernel/virtualization/pmt.cpp **** }
 384              		.loc 1 56 1
 385 021c 3305B500 		add	a0,a0,a1
 386              	.LVL38:
 387 0220 03348100 		ld	s0,8(sp)
 388              		.cfi_restore 8
 389              		.cfi_def_cfa 2, 16
 390 0224 13010101 		addi	sp,sp,16
 391              		.cfi_def_cfa_offset 0
 392 0228 67800000 		jr	ra
 393              		.cfi_endproc
 394              	.LFE122:
 396              		.align	2
 397              		.globl	_ZN3PMT5clearEv
 399              	_ZN3PMT5clearEv:
 400              	.LFB123:
  57:src/kernel/virtualization/pmt.cpp **** 
  58:src/kernel/virtualization/pmt.cpp **** 
  59:src/kernel/virtualization/pmt.cpp **** void PMT::clear(){
 401              		.loc 1 59 18 is_stmt 1
GAS LISTING /tmp/ccpb0gcC.s 			page 9


 402              		.cfi_startproc
 403              	.LVL39:
 404 022c 130101FE 		addi	sp,sp,-32
 405              		.cfi_def_cfa_offset 32
 406 0230 233C1100 		sd	ra,24(sp)
 407 0234 23388100 		sd	s0,16(sp)
 408 0238 23349100 		sd	s1,8(sp)
 409 023c 23302101 		sd	s2,0(sp)
 410              		.cfi_offset 1, -8
 411              		.cfi_offset 8, -16
 412              		.cfi_offset 9, -24
 413              		.cfi_offset 18, -32
 414 0240 13040102 		addi	s0,sp,32
 415              		.cfi_def_cfa 8, 0
 416 0244 13090500 		mv	s2,a0
  60:src/kernel/virtualization/pmt.cpp ****     for(uint64 i = 0; i < PMT_LEVEL_SIZE; i++)
 417              		.loc 1 60 5
 418              	.LVL40:
 419              	.LBB2:
 420              		.loc 1 60 16 is_stmt 0
 421 0248 93040000 		li	s1,0
 422              	.LVL41:
 423              	.L26:
 424              		.loc 1 60 25 discriminator 3
 425 024c 9307F01F 		li	a5,511
 426 0250 63EE9700 		bgtu	s1,a5,.L24
  61:src/kernel/virtualization/pmt.cpp ****         entry[i].clear();
 427              		.loc 1 61 9 is_stmt 1 discriminator 2
 428              		.loc 1 61 23 is_stmt 0 discriminator 2
 429 0254 13953400 		slli	a0,s1,3
 430 0258 3305A900 		add	a0,s2,a0
 431 025c 97000000 		call	_ZN8PMTEntry5clearEv
 431      E7800000 
 432              	.LVL42:
  60:src/kernel/virtualization/pmt.cpp ****     for(uint64 i = 0; i < PMT_LEVEL_SIZE; i++)
 433              		.loc 1 60 5 discriminator 2
 434 0264 93841400 		addi	s1,s1,1
 435              	.LVL43:
 436 0268 6FF05FFE 		j	.L26
 437              	.L24:
 438              	.LBE2:
  62:src/kernel/virtualization/pmt.cpp **** }
 439              		.loc 1 62 1
 440 026c 83308101 		ld	ra,24(sp)
 441              		.cfi_restore 1
 442 0270 03340101 		ld	s0,16(sp)
 443              		.cfi_restore 8
 444              		.cfi_def_cfa 2, 32
 445 0274 83348100 		ld	s1,8(sp)
 446              		.cfi_restore 9
 447              	.LVL44:
 448 0278 03390100 		ld	s2,0(sp)
 449              		.cfi_restore 18
 450              	.LVL45:
 451 027c 13010102 		addi	sp,sp,32
 452              		.cfi_def_cfa_offset 0
 453 0280 67800000 		jr	ra
GAS LISTING /tmp/ccpb0gcC.s 			page 10


 454              		.cfi_endproc
 455              	.LFE123:
 457              		.align	2
 458              		.globl	_ZN3PMT12allocate_pmtEv
 460              	_ZN3PMT12allocate_pmtEv:
 461              	.LFB113:
   5:src/kernel/virtualization/pmt.cpp ****     PMT* ret = (PMT*)(Buddy::getInstance().mem_alloc(BUDDY_LEVEL(sizeof(PMT))));
 462              		.loc 1 5 25 is_stmt 1
 463              		.cfi_startproc
 464 0284 130101FE 		addi	sp,sp,-32
 465              		.cfi_def_cfa_offset 32
 466 0288 233C1100 		sd	ra,24(sp)
 467 028c 23388100 		sd	s0,16(sp)
 468 0290 23349100 		sd	s1,8(sp)
 469              		.cfi_offset 1, -8
 470              		.cfi_offset 8, -16
 471              		.cfi_offset 9, -24
 472 0294 13040102 		addi	s0,sp,32
 473              		.cfi_def_cfa 8, 0
   6:src/kernel/virtualization/pmt.cpp ****     ret->clear();
 474              		.loc 1 6 5
   6:src/kernel/virtualization/pmt.cpp ****     ret->clear();
 475              		.loc 1 6 42 is_stmt 0
 476 0298 97000000 		call	_ZN5Buddy11getInstanceEv
 476      E7800000 
 477              	.LVL46:
 478 02a0 93040500 		mv	s1,a0
   6:src/kernel/virtualization/pmt.cpp ****     ret->clear();
 479              		.loc 1 6 54
 480 02a4 37150000 		li	a0,4096
 481 02a8 97000000 		call	_Z4log2m
 481      E7800000 
 482              	.LVL47:
 483 02b0 B7170000 		li	a5,4096
 484 02b4 9387F7FF 		addi	a5,a5,-1
 485 02b8 33D5A700 		srl	a0,a5,a0
 486 02bc 13051500 		addi	a0,a0,1
 487 02c0 97000000 		call	_Z4log2m
 487      E7800000 
 488              	.LVL48:
   6:src/kernel/virtualization/pmt.cpp ****     ret->clear();
 489              		.loc 1 6 53
 490 02c8 93050500 		mv	a1,a0
 491 02cc 13850400 		mv	a0,s1
 492 02d0 97000000 		call	_ZN5Buddy9mem_allocEh
 492      E7800000 
 493              	.LVL49:
 494 02d8 93040500 		mv	s1,a0
 495              	.LVL50:
   7:src/kernel/virtualization/pmt.cpp ****     return ret;
 496              		.loc 1 7 5 is_stmt 1
   7:src/kernel/virtualization/pmt.cpp ****     return ret;
 497              		.loc 1 7 15 is_stmt 0
 498 02dc 97000000 		call	_ZN3PMT5clearEv
 498      E7800000 
 499              	.LVL51:
   8:src/kernel/virtualization/pmt.cpp **** }
GAS LISTING /tmp/ccpb0gcC.s 			page 11


 500              		.loc 1 8 5 is_stmt 1
   9:src/kernel/virtualization/pmt.cpp **** 
 501              		.loc 1 9 1 is_stmt 0
 502 02e4 13850400 		mv	a0,s1
 503 02e8 83308101 		ld	ra,24(sp)
 504              		.cfi_restore 1
 505 02ec 03340101 		ld	s0,16(sp)
 506              		.cfi_restore 8
 507              		.cfi_def_cfa 2, 32
 508 02f0 83348100 		ld	s1,8(sp)
 509              		.cfi_restore 9
 510              	.LVL52:
 511 02f4 13010102 		addi	sp,sp,32
 512              		.cfi_def_cfa_offset 0
 513 02f8 67800000 		jr	ra
 514              		.cfi_endproc
 515              	.LFE113:
 517              		.align	2
 518              		.globl	_ZN3PMT5printEv
 520              	_ZN3PMT5printEv:
 521              	.LFB124:
  63:src/kernel/virtualization/pmt.cpp **** 
  64:src/kernel/virtualization/pmt.cpp **** void PMT::print(){
 522              		.loc 1 64 18 is_stmt 1
 523              		.cfi_startproc
 524              	.LVL53:
 525 02fc 130101FD 		addi	sp,sp,-48
 526              		.cfi_def_cfa_offset 48
 527 0300 23341102 		sd	ra,40(sp)
 528 0304 23308102 		sd	s0,32(sp)
 529 0308 233C9100 		sd	s1,24(sp)
 530 030c 23382101 		sd	s2,16(sp)
 531 0310 23343101 		sd	s3,8(sp)
 532              		.cfi_offset 1, -8
 533              		.cfi_offset 8, -16
 534              		.cfi_offset 9, -24
 535              		.cfi_offset 18, -32
 536              		.cfi_offset 19, -40
 537 0314 13040103 		addi	s0,sp,48
 538              		.cfi_def_cfa 8, 0
 539 0318 93090500 		mv	s3,a0
  65:src/kernel/virtualization/pmt.cpp ****     for(uint64 i = 0; i < PMT_LEVEL_SIZE; i++){
 540              		.loc 1 65 5
 541              	.LVL54:
 542              	.LBB3:
 543              		.loc 1 65 16 is_stmt 0
 544 031c 13090000 		li	s2,0
 545 0320 6F008007 		j	.L33
 546              	.LVL55:
 547              	.L35:
  66:src/kernel/virtualization/pmt.cpp ****         if(entry[i].chk_flags(PMTEntryBits::valid)){
  67:src/kernel/virtualization/pmt.cpp ****             KPRINTARR(entry, i, entry[i].chk_flags(PMTEntryBits::valid));
 548              		.loc 1 67 13 is_stmt 1
 549 0324 17050000 		lla	a0,.LC3
 549      13050500 
 550 032c 97000000 		call	_Z12kprintStringPKc
 550      E7800000 
GAS LISTING /tmp/ccpb0gcC.s 			page 12


 551              	.LVL56:
 552              		.loc 1 67 13
 553 0334 13060000 		li	a2,0
 554 0338 9305A000 		li	a1,10
 555 033c 13050900 		mv	a0,s2
 556 0340 97000000 		call	_Z9kprintIntmib
 556      E7800000 
 557              	.LVL57:
 558              		.loc 1 67 13
 559 0348 17050000 		lla	a0,.LC4
 559      13050500 
 560 0350 97000000 		call	_Z12kprintStringPKc
 560      E7800000 
 561              	.LVL58:
 562              		.loc 1 67 13
 563 0358 93051000 		li	a1,1
 564 035c 13850400 		mv	a0,s1
 565 0360 97000000 		call	_ZN8PMTEntry9chk_flagsE12PMTEntryBits
 565      E7800000 
 566              	.LVL59:
 567 0368 13060000 		li	a2,0
 568 036c 93050001 		li	a1,16
 569 0370 97000000 		call	_Z9kprintIntmib
 569      E7800000 
 570              	.LVL60:
 571              		.loc 1 67 13
 572 0378 17050000 		lla	a0,.LC1
 572      13050500 
 573 0380 97000000 		call	_Z12kprintStringPKc
 573      E7800000 
 574              	.LVL61:
  68:src/kernel/virtualization/pmt.cpp ****             entry[i].print();
 575              		.loc 1 68 13
 576              		.loc 1 68 27 is_stmt 0
 577 0388 13850400 		mv	a0,s1
 578 038c 97000000 		call	_ZN8PMTEntry5printEv
 578      E7800000 
 579              	.LVL62:
 580              	.L32:
  65:src/kernel/virtualization/pmt.cpp ****     for(uint64 i = 0; i < PMT_LEVEL_SIZE; i++){
 581              		.loc 1 65 5 discriminator 2
 582 0394 13091900 		addi	s2,s2,1
 583              	.LVL63:
 584              	.L33:
  65:src/kernel/virtualization/pmt.cpp ****     for(uint64 i = 0; i < PMT_LEVEL_SIZE; i++){
 585              		.loc 1 65 25 discriminator 1
 586 0398 9307F01F 		li	a5,511
 587 039c 63E22703 		bgtu	s2,a5,.L30
  66:src/kernel/virtualization/pmt.cpp ****         if(entry[i].chk_flags(PMTEntryBits::valid)){
 588              		.loc 1 66 9 is_stmt 1
  66:src/kernel/virtualization/pmt.cpp ****         if(entry[i].chk_flags(PMTEntryBits::valid)){
 589              		.loc 1 66 30 is_stmt 0
 590 03a0 93143900 		slli	s1,s2,3
 591 03a4 B3849900 		add	s1,s3,s1
 592 03a8 93051000 		li	a1,1
 593 03ac 13850400 		mv	a0,s1
 594 03b0 97000000 		call	_ZN8PMTEntry9chk_flagsE12PMTEntryBits
GAS LISTING /tmp/ccpb0gcC.s 			page 13


 594      E7800000 
 595              	.LVL64:
  66:src/kernel/virtualization/pmt.cpp ****         if(entry[i].chk_flags(PMTEntryBits::valid)){
 596              		.loc 1 66 9
 597 03b8 E30E05FC 		beq	a0,zero,.L32
 598 03bc 6FF09FF6 		j	.L35
 599              	.L30:
 600              	.LBE3:
  69:src/kernel/virtualization/pmt.cpp ****         }
  70:src/kernel/virtualization/pmt.cpp ****     }
  71:src/kernel/virtualization/pmt.cpp **** }...
 601              		.loc 1 71 1
 602 03c0 83308102 		ld	ra,40(sp)
 603              		.cfi_restore 1
 604 03c4 03340102 		ld	s0,32(sp)
 605              		.cfi_restore 8
 606              		.cfi_def_cfa 2, 48
 607 03c8 83348101 		ld	s1,24(sp)
 608              		.cfi_restore 9
 609 03cc 03390101 		ld	s2,16(sp)
 610              		.cfi_restore 18
 611              	.LVL65:
 612 03d0 83398100 		ld	s3,8(sp)
 613              		.cfi_restore 19
 614              	.LVL66:
 615 03d4 13010103 		addi	sp,sp,48
 616              		.cfi_def_cfa_offset 0
 617 03d8 67800000 		jr	ra
 618              		.cfi_endproc
 619              	.LFE124:
 621              		.globl	_ZN3PMT10VADDR_MASKE
 622              		.section	.rodata
 623              		.align	3
 624              		.set	.LANCHOR0,. + 0
 627              	_ZN3PMT10VADDR_MASKE:
 628 0000 00F01F00 		.dword	2093056
 628      00000000 
 629 0008 0000E03F 		.dword	1071644672
 629      00000000 
 630 0010 000000C0 		.dword	548682072064
 630      7F000000 
 631              		.section	.rodata.str1.8,"aMS",@progbits,1
 632              		.align	3
 633              	.LC0:
 634 0000 50413A20 		.string	"PA: "
 634      00
 635 0005 000000   		.zero	3
 636              	.LC1:
 637 0008 0A00     		.string	"\n"
 638 000a 00000000 		.zero	6
 638      0000
 639              	.LC2:
 640 0010 62697473 		.string	"bits: "
 640      3A2000
 641 0017 00       		.zero	1
 642              	.LC3:
 643 0018 656E7472 		.string	"entry["
GAS LISTING /tmp/ccpb0gcC.s 			page 14


 643      795B00
 644 001f 00       		.zero	1
 645              	.LC4:
 646 0020 5D3A2000 		.string	"]: "
 647              		.text
 648              	.Letext0:
 649              		.file 2 "src/kernel/virtualization/../../../h/../h/../lib/hw.h"
 650              		.file 3 "src/kernel/virtualization/../../../h/../h/pmt.h"
 651              		.file 4 "src/kernel/virtualization/../../../h/../h/buddy.h"
 652              		.file 5 "src/kernel/virtualization/../../../h/../h/slab.h"
 653              		.file 6 "src/kernel/virtualization/../../../h/kernel_lib.h"
 654              		.file 7 "src/kernel/virtualization/../../../h/../h/kernel_funs.h"
GAS LISTING /tmp/ccpb0gcC.s 			page 15


DEFINED SYMBOLS
                            *ABS*:0000000000000000 pmt.cpp
     /tmp/ccpb0gcC.s:12     .text:0000000000000000 _ZN8PMTEntry5printEv
     /tmp/ccpb0gcC.s:16     .text:0000000000000000 .L0 
     /tmp/ccpb0gcC.s:18     .text:0000000000000000 .L0 
     /tmp/ccpb0gcC.s:19     .text:0000000000000004 .L0 
     /tmp/ccpb0gcC.s:23     .text:0000000000000010 .L0 
     /tmp/ccpb0gcC.s:24     .text:0000000000000010 .L0 
     /tmp/ccpb0gcC.s:25     .text:0000000000000010 .L0 
     /tmp/ccpb0gcC.s:27     .text:0000000000000014 .L0 
     /tmp/ccpb0gcC.s:30     .text:0000000000000018 .L0 
     /tmp/ccpb0gcC.s:35     .text:0000000000000028 .L0 
     /tmp/ccpb0gcC.s:43     .text:0000000000000044 .L0 
     /tmp/ccpb0gcC.s:47     .text:0000000000000054 .L0 
     /tmp/ccpb0gcC.s:48     .text:0000000000000054 .L0 
     /tmp/ccpb0gcC.s:52     .text:0000000000000064 .L0 
     /tmp/ccpb0gcC.s:53     .text:0000000000000064 .L0 
     /tmp/ccpb0gcC.s:55     .text:0000000000000068 .L0 
     /tmp/ccpb0gcC.s:61     .text:000000000000007c .L0 
     /tmp/ccpb0gcC.s:62     .text:000000000000007c .L0 
     /tmp/ccpb0gcC.s:66     .text:000000000000008c .L0 
     /tmp/ccpb0gcC.s:67     .text:0000000000000090 .L0 
     /tmp/ccpb0gcC.s:69     .text:0000000000000094 .L0 
     /tmp/ccpb0gcC.s:70     .text:0000000000000094 .L0 
     /tmp/ccpb0gcC.s:72     .text:0000000000000098 .L0 
     /tmp/ccpb0gcC.s:75     .text:000000000000009c .L0 
     /tmp/ccpb0gcC.s:77     .text:00000000000000a0 .L0 
     /tmp/ccpb0gcC.s:83     .text:00000000000000a0 _ZN8PMTEntry9set_flagsE12PMTEntryBits
     /tmp/ccpb0gcC.s:86     .text:00000000000000a0 .L0 
     /tmp/ccpb0gcC.s:88     .text:00000000000000a0 .L0 
     /tmp/ccpb0gcC.s:89     .text:00000000000000a4 .L0 
     /tmp/ccpb0gcC.s:91     .text:00000000000000a8 .L0 
     /tmp/ccpb0gcC.s:93     .text:00000000000000ac .L0 
     /tmp/ccpb0gcC.s:95     .text:00000000000000ac .L0 
     /tmp/ccpb0gcC.s:96     .text:00000000000000ac .L0 
     /tmp/ccpb0gcC.s:101    .text:00000000000000b8 .L0 
     /tmp/ccpb0gcC.s:102    .text:00000000000000bc .L0 
     /tmp/ccpb0gcC.s:103    .text:00000000000000bc .L0 
     /tmp/ccpb0gcC.s:105    .text:00000000000000c0 .L0 
     /tmp/ccpb0gcC.s:107    .text:00000000000000c4 .L0 
     /tmp/ccpb0gcC.s:113    .text:00000000000000c4 _ZN8PMTEntry11clear_flagsE12PMTEntryBits
     /tmp/ccpb0gcC.s:116    .text:00000000000000c4 .L0 
     /tmp/ccpb0gcC.s:118    .text:00000000000000c4 .L0 
     /tmp/ccpb0gcC.s:119    .text:00000000000000c8 .L0 
     /tmp/ccpb0gcC.s:121    .text:00000000000000cc .L0 
     /tmp/ccpb0gcC.s:123    .text:00000000000000d0 .L0 
     /tmp/ccpb0gcC.s:125    .text:00000000000000d0 .L0 
     /tmp/ccpb0gcC.s:126    .text:00000000000000d0 .L0 
     /tmp/ccpb0gcC.s:129    .text:00000000000000d4 .L0 
     /tmp/ccpb0gcC.s:133    .text:00000000000000e0 .L0 
     /tmp/ccpb0gcC.s:134    .text:00000000000000e4 .L0 
     /tmp/ccpb0gcC.s:135    .text:00000000000000e4 .L0 
     /tmp/ccpb0gcC.s:137    .text:00000000000000e8 .L0 
     /tmp/ccpb0gcC.s:139    .text:00000000000000ec .L0 
     /tmp/ccpb0gcC.s:145    .text:00000000000000ec _ZN8PMTEntry5clearEv
     /tmp/ccpb0gcC.s:148    .text:00000000000000ec .L0 
     /tmp/ccpb0gcC.s:150    .text:00000000000000ec .L0 
GAS LISTING /tmp/ccpb0gcC.s 			page 16


     /tmp/ccpb0gcC.s:151    .text:00000000000000f0 .L0 
     /tmp/ccpb0gcC.s:153    .text:00000000000000f4 .L0 
     /tmp/ccpb0gcC.s:155    .text:00000000000000f8 .L0 
     /tmp/ccpb0gcC.s:157    .text:00000000000000f8 .L0 
     /tmp/ccpb0gcC.s:158    .text:00000000000000f8 .L0 
     /tmp/ccpb0gcC.s:160    .text:00000000000000fc .L0 
     /tmp/ccpb0gcC.s:161    .text:0000000000000100 .L0 
     /tmp/ccpb0gcC.s:162    .text:0000000000000100 .L0 
     /tmp/ccpb0gcC.s:164    .text:0000000000000104 .L0 
     /tmp/ccpb0gcC.s:166    .text:0000000000000108 .L0 
     /tmp/ccpb0gcC.s:172    .text:0000000000000108 _ZN8PMTEntry6get_paEv
     /tmp/ccpb0gcC.s:175    .text:0000000000000108 .L0 
     /tmp/ccpb0gcC.s:177    .text:0000000000000108 .L0 
     /tmp/ccpb0gcC.s:178    .text:000000000000010c .L0 
     /tmp/ccpb0gcC.s:180    .text:0000000000000110 .L0 
     /tmp/ccpb0gcC.s:182    .text:0000000000000114 .L0 
     /tmp/ccpb0gcC.s:185    .text:0000000000000114 .L0 
     /tmp/ccpb0gcC.s:186    .text:0000000000000114 .L0 
     /tmp/ccpb0gcC.s:187    .text:0000000000000114 .L0 
     /tmp/ccpb0gcC.s:189    .text:0000000000000118 .L0 
     /tmp/ccpb0gcC.s:191    .text:000000000000011c .L0 
     /tmp/ccpb0gcC.s:195    .text:0000000000000128 .L0 
     /tmp/ccpb0gcC.s:196    .text:0000000000000128 .L0 
     /tmp/ccpb0gcC.s:198    .text:000000000000012c .L0 
     /tmp/ccpb0gcC.s:200    .text:0000000000000130 .L0 
     /tmp/ccpb0gcC.s:206    .text:0000000000000130 _ZN8PMTEntry6set_paEPv
     /tmp/ccpb0gcC.s:209    .text:0000000000000130 .L0 
     /tmp/ccpb0gcC.s:211    .text:0000000000000130 .L0 
     /tmp/ccpb0gcC.s:212    .text:0000000000000134 .L0 
     /tmp/ccpb0gcC.s:214    .text:0000000000000138 .L0 
     /tmp/ccpb0gcC.s:216    .text:000000000000013c .L0 
     /tmp/ccpb0gcC.s:219    .text:000000000000013c .L0 
     /tmp/ccpb0gcC.s:220    .text:000000000000013c .L0 
     /tmp/ccpb0gcC.s:224    .text:0000000000000144 .L0 
     /tmp/ccpb0gcC.s:225    .text:0000000000000144 .L0 
     /tmp/ccpb0gcC.s:226    .text:0000000000000144 .L0 
     /tmp/ccpb0gcC.s:229    .text:000000000000014c .L0 
     /tmp/ccpb0gcC.s:230    .text:000000000000014c .L0 
     /tmp/ccpb0gcC.s:233    .text:0000000000000150 .L0 
     /tmp/ccpb0gcC.s:236    .text:0000000000000158 .L0 
     /tmp/ccpb0gcC.s:237    .text:0000000000000158 .L0 
     /tmp/ccpb0gcC.s:241    .text:000000000000015c .L0 
     /tmp/ccpb0gcC.s:242    .text:0000000000000160 .L0 
     /tmp/ccpb0gcC.s:243    .text:0000000000000160 .L0 
     /tmp/ccpb0gcC.s:244    .text:0000000000000160 .L0 
     /tmp/ccpb0gcC.s:246    .text:0000000000000164 .L0 
     /tmp/ccpb0gcC.s:250    .text:0000000000000168 .L0 
     /tmp/ccpb0gcC.s:252    .text:0000000000000168 .L0 
     /tmp/ccpb0gcC.s:255    .text:0000000000000170 .L0 
     /tmp/ccpb0gcC.s:261    .text:0000000000000170 _ZN8PMTEntry9chk_flagsE12PMTEntryBits
     /tmp/ccpb0gcC.s:264    .text:0000000000000170 .L0 
     /tmp/ccpb0gcC.s:266    .text:0000000000000170 .L0 
     /tmp/ccpb0gcC.s:267    .text:0000000000000174 .L0 
     /tmp/ccpb0gcC.s:269    .text:0000000000000178 .L0 
     /tmp/ccpb0gcC.s:271    .text:000000000000017c .L0 
     /tmp/ccpb0gcC.s:273    .text:000000000000017c .L0 
     /tmp/ccpb0gcC.s:274    .text:000000000000017c .L0 
GAS LISTING /tmp/ccpb0gcC.s 			page 17


     /tmp/ccpb0gcC.s:277    .text:0000000000000180 .L0 
     /tmp/ccpb0gcC.s:280    .text:0000000000000184 .L0 
     /tmp/ccpb0gcC.s:281    .text:0000000000000184 .L0 
     /tmp/ccpb0gcC.s:284    .text:0000000000000188 .L0 
     /tmp/ccpb0gcC.s:286    .text:0000000000000190 .L0 
     /tmp/ccpb0gcC.s:287    .text:0000000000000190 .L0 
     /tmp/ccpb0gcC.s:289    .text:0000000000000194 .L0 
     /tmp/ccpb0gcC.s:291    .text:0000000000000198 .L0 
     /tmp/ccpb0gcC.s:297    .text:0000000000000198 _ZN3PMT9get_entryEhPv
     /tmp/ccpb0gcC.s:300    .text:0000000000000198 .L0 
     /tmp/ccpb0gcC.s:302    .text:0000000000000198 .L0 
     /tmp/ccpb0gcC.s:303    .text:000000000000019c .L0 
     /tmp/ccpb0gcC.s:305    .text:00000000000001a0 .L0 
     /tmp/ccpb0gcC.s:307    .text:00000000000001a4 .L0 
     /tmp/ccpb0gcC.s:309    .text:00000000000001a4 .L0 
     /tmp/ccpb0gcC.s:312    .text:00000000000001ac .L0 
     /tmp/ccpb0gcC.s:313    .text:00000000000001ac .L0 
     /tmp/ccpb0gcC.s:317    .text:00000000000001b8 .L0 
     /tmp/ccpb0gcC.s:319    .text:00000000000001bc .L0 
     /tmp/ccpb0gcC.s:320    .text:00000000000001bc .L0 
     /tmp/ccpb0gcC.s:327    .text:00000000000001d4 .L0 
     /tmp/ccpb0gcC.s:330    .text:00000000000001d8 .L0 
     /tmp/ccpb0gcC.s:333    .text:00000000000001e0 .L0 
     /tmp/ccpb0gcC.s:335    .text:00000000000001e4 .L0 
     /tmp/ccpb0gcC.s:337    .text:00000000000001e8 .L0 
     /tmp/ccpb0gcC.s:339    .text:00000000000001ec .L0 
     /tmp/ccpb0gcC.s:343    .text:00000000000001f0 .L0 
     /tmp/ccpb0gcC.s:344    .text:00000000000001f4 .L0 
     /tmp/ccpb0gcC.s:345    .text:00000000000001f4 .L0 
     /tmp/ccpb0gcC.s:346    .text:00000000000001f4 .L0 
     /tmp/ccpb0gcC.s:348    .text:00000000000001f8 .L0 
     /tmp/ccpb0gcC.s:352    .text:00000000000001fc .L0 
     /tmp/ccpb0gcC.s:354    .text:00000000000001fc .L0 
     /tmp/ccpb0gcC.s:360    .text:0000000000000204 .L0 
     /tmp/ccpb0gcC.s:363    .text:000000000000020c .L0 
     /tmp/ccpb0gcC.s:369    .text:000000000000020c _ZN3PMT9get_entryEm
     /tmp/ccpb0gcC.s:372    .text:000000000000020c .L0 
     /tmp/ccpb0gcC.s:374    .text:000000000000020c .L0 
     /tmp/ccpb0gcC.s:375    .text:0000000000000210 .L0 
     /tmp/ccpb0gcC.s:377    .text:0000000000000214 .L0 
     /tmp/ccpb0gcC.s:379    .text:0000000000000218 .L0 
     /tmp/ccpb0gcC.s:381    .text:0000000000000218 .L0 
     /tmp/ccpb0gcC.s:382    .text:0000000000000218 .L0 
     /tmp/ccpb0gcC.s:385    .text:000000000000021c .L0 
     /tmp/ccpb0gcC.s:388    .text:0000000000000224 .L0 
     /tmp/ccpb0gcC.s:389    .text:0000000000000224 .L0 
     /tmp/ccpb0gcC.s:391    .text:0000000000000228 .L0 
     /tmp/ccpb0gcC.s:393    .text:000000000000022c .L0 
     /tmp/ccpb0gcC.s:399    .text:000000000000022c _ZN3PMT5clearEv
     /tmp/ccpb0gcC.s:402    .text:000000000000022c .L0 
     /tmp/ccpb0gcC.s:404    .text:000000000000022c .L0 
     /tmp/ccpb0gcC.s:405    .text:0000000000000230 .L0 
     /tmp/ccpb0gcC.s:410    .text:0000000000000240 .L0 
     /tmp/ccpb0gcC.s:411    .text:0000000000000240 .L0 
     /tmp/ccpb0gcC.s:412    .text:0000000000000240 .L0 
     /tmp/ccpb0gcC.s:413    .text:0000000000000240 .L0 
     /tmp/ccpb0gcC.s:415    .text:0000000000000244 .L0 
GAS LISTING /tmp/ccpb0gcC.s 			page 18


     /tmp/ccpb0gcC.s:420    .text:0000000000000248 .L0 
     /tmp/ccpb0gcC.s:421    .text:0000000000000248 .L0 
     /tmp/ccpb0gcC.s:425    .text:000000000000024c .L0 
     /tmp/ccpb0gcC.s:428    .text:0000000000000254 .L0 
     /tmp/ccpb0gcC.s:429    .text:0000000000000254 .L0 
     /tmp/ccpb0gcC.s:434    .text:0000000000000264 .L0 
     /tmp/ccpb0gcC.s:440    .text:000000000000026c .L0 
     /tmp/ccpb0gcC.s:441    .text:0000000000000270 .L0 
     /tmp/ccpb0gcC.s:443    .text:0000000000000274 .L0 
     /tmp/ccpb0gcC.s:444    .text:0000000000000274 .L0 
     /tmp/ccpb0gcC.s:446    .text:0000000000000278 .L0 
     /tmp/ccpb0gcC.s:449    .text:000000000000027c .L0 
     /tmp/ccpb0gcC.s:452    .text:0000000000000280 .L0 
     /tmp/ccpb0gcC.s:454    .text:0000000000000284 .L0 
     /tmp/ccpb0gcC.s:460    .text:0000000000000284 _ZN3PMT12allocate_pmtEv
     /tmp/ccpb0gcC.s:463    .text:0000000000000284 .L0 
     /tmp/ccpb0gcC.s:464    .text:0000000000000284 .L0 
     /tmp/ccpb0gcC.s:465    .text:0000000000000288 .L0 
     /tmp/ccpb0gcC.s:469    .text:0000000000000294 .L0 
     /tmp/ccpb0gcC.s:470    .text:0000000000000294 .L0 
     /tmp/ccpb0gcC.s:471    .text:0000000000000294 .L0 
     /tmp/ccpb0gcC.s:473    .text:0000000000000298 .L0 
     /tmp/ccpb0gcC.s:475    .text:0000000000000298 .L0 
     /tmp/ccpb0gcC.s:476    .text:0000000000000298 .L0 
     /tmp/ccpb0gcC.s:480    .text:00000000000002a4 .L0 
     /tmp/ccpb0gcC.s:490    .text:00000000000002c8 .L0 
     /tmp/ccpb0gcC.s:497    .text:00000000000002dc .L0 
     /tmp/ccpb0gcC.s:498    .text:00000000000002dc .L0 
     /tmp/ccpb0gcC.s:501    .text:00000000000002e4 .L0 
     /tmp/ccpb0gcC.s:502    .text:00000000000002e4 .L0 
     /tmp/ccpb0gcC.s:504    .text:00000000000002ec .L0 
     /tmp/ccpb0gcC.s:506    .text:00000000000002f0 .L0 
     /tmp/ccpb0gcC.s:507    .text:00000000000002f0 .L0 
     /tmp/ccpb0gcC.s:509    .text:00000000000002f4 .L0 
     /tmp/ccpb0gcC.s:512    .text:00000000000002f8 .L0 
     /tmp/ccpb0gcC.s:514    .text:00000000000002fc .L0 
     /tmp/ccpb0gcC.s:520    .text:00000000000002fc _ZN3PMT5printEv
     /tmp/ccpb0gcC.s:523    .text:00000000000002fc .L0 
     /tmp/ccpb0gcC.s:525    .text:00000000000002fc .L0 
     /tmp/ccpb0gcC.s:526    .text:0000000000000300 .L0 
     /tmp/ccpb0gcC.s:532    .text:0000000000000314 .L0 
     /tmp/ccpb0gcC.s:533    .text:0000000000000314 .L0 
     /tmp/ccpb0gcC.s:534    .text:0000000000000314 .L0 
     /tmp/ccpb0gcC.s:535    .text:0000000000000314 .L0 
     /tmp/ccpb0gcC.s:536    .text:0000000000000314 .L0 
     /tmp/ccpb0gcC.s:538    .text:0000000000000318 .L0 
     /tmp/ccpb0gcC.s:543    .text:000000000000031c .L0 
     /tmp/ccpb0gcC.s:544    .text:000000000000031c .L0 
     /tmp/ccpb0gcC.s:549    .text:0000000000000324 .L0 
     /tmp/ccpb0gcC.s:553    .text:0000000000000334 .L0 
     /tmp/ccpb0gcC.s:559    .text:0000000000000348 .L0 
     /tmp/ccpb0gcC.s:563    .text:0000000000000358 .L0 
     /tmp/ccpb0gcC.s:572    .text:0000000000000378 .L0 
     /tmp/ccpb0gcC.s:576    .text:0000000000000388 .L0 
     /tmp/ccpb0gcC.s:577    .text:0000000000000388 .L0 
     /tmp/ccpb0gcC.s:582    .text:0000000000000394 .L0 
     /tmp/ccpb0gcC.s:586    .text:0000000000000398 .L0 
GAS LISTING /tmp/ccpb0gcC.s 			page 19


     /tmp/ccpb0gcC.s:589    .text:00000000000003a0 .L0 
     /tmp/ccpb0gcC.s:590    .text:00000000000003a0 .L0 
     /tmp/ccpb0gcC.s:597    .text:00000000000003b8 .L0 
     /tmp/ccpb0gcC.s:602    .text:00000000000003c0 .L0 
     /tmp/ccpb0gcC.s:603    .text:00000000000003c4 .L0 
     /tmp/ccpb0gcC.s:605    .text:00000000000003c8 .L0 
     /tmp/ccpb0gcC.s:606    .text:00000000000003c8 .L0 
     /tmp/ccpb0gcC.s:608    .text:00000000000003cc .L0 
     /tmp/ccpb0gcC.s:610    .text:00000000000003d0 .L0 
     /tmp/ccpb0gcC.s:613    .text:00000000000003d4 .L0 
     /tmp/ccpb0gcC.s:616    .text:00000000000003d8 .L0 
     /tmp/ccpb0gcC.s:618    .text:00000000000003dc .L0 
     /tmp/ccpb0gcC.s:627    .rodata:0000000000000000 _ZN3PMT10VADDR_MASKE
     /tmp/ccpb0gcC.s:624    .rodata:0000000000000000 .LANCHOR0
     /tmp/ccpb0gcC.s:655    .text:00000000000003dc .L0 
     /tmp/ccpb0gcC.s:633    .rodata.str1.8:0000000000000000 .LC0
     /tmp/ccpb0gcC.s:30     .text:0000000000000018 .L0 
     /tmp/ccpb0gcC.s:636    .rodata.str1.8:0000000000000008 .LC1
     /tmp/ccpb0gcC.s:43     .text:0000000000000044 .L0 
     /tmp/ccpb0gcC.s:639    .rodata.str1.8:0000000000000010 .LC2
     /tmp/ccpb0gcC.s:48     .text:0000000000000054 .L0 
     /tmp/ccpb0gcC.s:62     .text:000000000000007c .L0 
     /tmp/ccpb0gcC.s:323    .text:00000000000001c4 .L0 
     /tmp/ccpb0gcC.s:642    .rodata.str1.8:0000000000000018 .LC3
     /tmp/ccpb0gcC.s:549    .text:0000000000000324 .L0 
     /tmp/ccpb0gcC.s:645    .rodata.str1.8:0000000000000020 .LC4
     /tmp/ccpb0gcC.s:559    .text:0000000000000348 .L0 
     /tmp/ccpb0gcC.s:572    .text:0000000000000378 .L0 
     /tmp/ccpb0gcC.s:249    .text:0000000000000168 .L13
     /tmp/ccpb0gcC.s:239    .text:000000000000015c .L12
     /tmp/ccpb0gcC.s:351    .text:00000000000001fc .L19
     /tmp/ccpb0gcC.s:358    .text:0000000000000204 .L20
     /tmp/ccpb0gcC.s:341    .text:00000000000001f0 .L17
     /tmp/ccpb0gcC.s:437    .text:000000000000026c .L24
     /tmp/ccpb0gcC.s:423    .text:000000000000024c .L26
     /tmp/ccpb0gcC.s:584    .text:0000000000000398 .L33
     /tmp/ccpb0gcC.s:599    .text:00000000000003c0 .L30
     /tmp/ccpb0gcC.s:580    .text:0000000000000394 .L32
     /tmp/ccpb0gcC.s:547    .text:0000000000000324 .L35
     /tmp/ccpb0gcC.s:2134   .debug_abbrev:0000000000000000 .Ldebug_abbrev0
     /tmp/ccpb0gcC.s:3555   .debug_str:00000000000003a6 .LASF131
     /tmp/ccpb0gcC.s:3549   .debug_str:0000000000000359 .LASF132
     /tmp/ccpb0gcC.s:3641   .debug_str:00000000000006cb .LASF133
     /tmp/ccpb0gcC.s:8      .text:0000000000000000 .Ltext0
     /tmp/ccpb0gcC.s:648    .text:00000000000003dc .Letext0
     /tmp/ccpb0gcC.s:3427   .debug_line:0000000000000000 .Ldebug_line0
     /tmp/ccpb0gcC.s:3449   .debug_str:0000000000000078 .LASF0
     /tmp/ccpb0gcC.s:3687   .debug_str:0000000000000830 .LASF1
     /tmp/ccpb0gcC.s:3685   .debug_str:000000000000082a .LASF3
     /tmp/ccpb0gcC.s:3663   .debug_str:0000000000000767 .LASF2
     /tmp/ccpb0gcC.s:3645   .debug_str:00000000000006f3 .LASF4
     /tmp/ccpb0gcC.s:3649   .debug_str:000000000000070c .LASF5
     /tmp/ccpb0gcC.s:3521   .debug_str:00000000000002a7 .LASF6
     /tmp/ccpb0gcC.s:3547   .debug_str:0000000000000346 .LASF7
     /tmp/ccpb0gcC.s:3619   .debug_str:0000000000000628 .LASF8
     /tmp/ccpb0gcC.s:3473   .debug_str:0000000000000131 .LASF9
     /tmp/ccpb0gcC.s:3677   .debug_str:00000000000007f0 .LASF10
GAS LISTING /tmp/ccpb0gcC.s 			page 20


     /tmp/ccpb0gcC.s:3525   .debug_str:00000000000002bd .LASF11
     /tmp/ccpb0gcC.s:3489   .debug_str:00000000000001ac .LASF12
     /tmp/ccpb0gcC.s:3553   .debug_str:0000000000000396 .LASF13
     /tmp/ccpb0gcC.s:3529   .debug_str:00000000000002d8 .LASF14
     /tmp/ccpb0gcC.s:3637   .debug_str:00000000000006b0 .LASF15
     /tmp/ccpb0gcC.s:3533   .debug_str:00000000000002f1 .LASF16
     /tmp/ccpb0gcC.s:3511   .debug_str:000000000000026d .LASF17
     /tmp/ccpb0gcC.s:3545   .debug_str:0000000000000341 .LASF18
     /tmp/ccpb0gcC.s:3571   .debug_str:00000000000004bb .LASF19
     /tmp/ccpb0gcC.s:3573   .debug_str:00000000000004c0 .LASF134
     /tmp/ccpb0gcC.s:3515   .debug_str:000000000000028d .LASF20
     /tmp/ccpb0gcC.s:3567   .debug_str:00000000000004a8 .LASF21
     /tmp/ccpb0gcC.s:3643   .debug_str:00000000000006ee .LASF22
     /tmp/ccpb0gcC.s:3565   .debug_str:00000000000004a2 .LASF23
     /tmp/ccpb0gcC.s:3561   .debug_str:000000000000048f .LASF24
     /tmp/ccpb0gcC.s:3519   .debug_str:00000000000002a2 .LASF25
     /tmp/ccpb0gcC.s:3603   .debug_str:00000000000005c6 .LASF26
     /tmp/ccpb0gcC.s:3531   .debug_str:00000000000002e8 .LASF27
     /tmp/ccpb0gcC.s:3605   .debug_str:00000000000005cd .LASF28
     /tmp/ccpb0gcC.s:3535   .debug_str:0000000000000307 .LASF40
     /tmp/ccpb0gcC.s:3503   .debug_str:0000000000000225 .LASF30
     /tmp/ccpb0gcC.s:3543   .debug_str:0000000000000337 .LASF34
     /tmp/ccpb0gcC.s:3577   .debug_str:00000000000004d7 .LASF36
     /tmp/ccpb0gcC.s:3695   .debug_str:000000000000087f .LASF29
     /tmp/ccpb0gcC.s:3581   .debug_str:0000000000000509 .LASF31
     /tmp/ccpb0gcC.s:3617   .debug_str:000000000000061c .LASF32
     /tmp/ccpb0gcC.s:3607   .debug_str:00000000000005d3 .LASF33
     /tmp/ccpb0gcC.s:3631   .debug_str:0000000000000685 .LASF35
     /tmp/ccpb0gcC.s:3465   .debug_str:0000000000000102 .LASF37
     /tmp/ccpb0gcC.s:3699   .debug_str:000000000000089e .LASF38
     /tmp/ccpb0gcC.s:3463   .debug_str:00000000000000eb .LASF39
     /tmp/ccpb0gcC.s:3615   .debug_str:0000000000000616 .LASF48
     /tmp/ccpb0gcC.s:3703   .debug_str:00000000000008ad .LASF61
     /tmp/ccpb0gcC.s:3517   .debug_str:0000000000000293 .LASF41
     /tmp/ccpb0gcC.s:3625   .debug_str:0000000000000653 .LASF42
     /tmp/ccpb0gcC.s:3485   .debug_str:0000000000000183 .LASF135
     /tmp/ccpb0gcC.s:3559   .debug_str:0000000000000482 .LASF43
     /tmp/ccpb0gcC.s:3513   .debug_str:0000000000000283 .LASF44
     /tmp/ccpb0gcC.s:3691   .debug_str:0000000000000855 .LASF45
     /tmp/ccpb0gcC.s:3537   .debug_str:0000000000000310 .LASF46
     /tmp/ccpb0gcC.s:3509   .debug_str:000000000000025d .LASF47
     /tmp/ccpb0gcC.s:3437   .debug_str:000000000000003a .LASF49
     /tmp/ccpb0gcC.s:3569   .debug_str:00000000000004ae .LASF98
     /tmp/ccpb0gcC.s:3461   .debug_str:00000000000000d3 .LASF100
     /tmp/ccpb0gcC.s:3661   .debug_str:0000000000000761 .LASF50
     /tmp/ccpb0gcC.s:3653   .debug_str:000000000000072f .LASF136
     /tmp/ccpb0gcC.s:3451   .debug_str:0000000000000085 .LASF51
     /tmp/ccpb0gcC.s:3477   .debug_str:000000000000014f .LASF52
     /tmp/ccpb0gcC.s:3467   .debug_str:0000000000000118 .LASF53
     /tmp/ccpb0gcC.s:3655   .debug_str:0000000000000737 .LASF54
     /tmp/ccpb0gcC.s:3623   .debug_str:0000000000000640 .LASF55
     /tmp/ccpb0gcC.s:3613   .debug_str:0000000000000610 .LASF56
     /tmp/ccpb0gcC.s:3483   .debug_str:0000000000000175 .LASF57
     /tmp/ccpb0gcC.s:3481   .debug_str:000000000000016b .LASF58
     /tmp/ccpb0gcC.s:3469   .debug_str:000000000000011e .LASF59
     /tmp/ccpb0gcC.s:3599   .debug_str:00000000000005a8 .LASF60
     /tmp/ccpb0gcC.s:3657   .debug_str:000000000000073d .LASF62
GAS LISTING /tmp/ccpb0gcC.s 			page 21


     /tmp/ccpb0gcC.s:3431   .debug_str:000000000000001a .LASF63
     /tmp/ccpb0gcC.s:3455   .debug_str:0000000000000094 .LASF64
     /tmp/ccpb0gcC.s:3597   .debug_str:0000000000000598 .LASF65
     /tmp/ccpb0gcC.s:3523   .debug_str:00000000000002ae .LASF67
     /tmp/ccpb0gcC.s:3505   .debug_str:000000000000023a .LASF66
     /tmp/ccpb0gcC.s:3639   .debug_str:00000000000006bc .LASF68
     /tmp/ccpb0gcC.s:3583   .debug_str:000000000000052f .LASF69
     /tmp/ccpb0gcC.s:3651   .debug_str:000000000000071e .LASF70
     /tmp/ccpb0gcC.s:3575   .debug_str:00000000000004cd .LASF71
     /tmp/ccpb0gcC.s:3499   .debug_str:00000000000001ed .LASF72
     /tmp/ccpb0gcC.s:3471   .debug_str:0000000000000123 .LASF73
     /tmp/ccpb0gcC.s:3551   .debug_str:000000000000037b .LASF74
     /tmp/ccpb0gcC.s:3527   .debug_str:00000000000002cc .LASF75
     /tmp/ccpb0gcC.s:3665   .debug_str:0000000000000775 .LASF76
     /tmp/ccpb0gcC.s:3601   .debug_str:00000000000005b5 .LASF77
     /tmp/ccpb0gcC.s:3501   .debug_str:00000000000001fe .LASF78
     /tmp/ccpb0gcC.s:3493   .debug_str:00000000000001d8 .LASF79
     /tmp/ccpb0gcC.s:3627   .debug_str:000000000000065d .LASF80
     /tmp/ccpb0gcC.s:3539   .debug_str:0000000000000324 .LASF81
     /tmp/ccpb0gcC.s:3491   .debug_str:00000000000001bb .LASF82
     /tmp/ccpb0gcC.s:3579   .debug_str:00000000000004fd .LASF83
     /tmp/ccpb0gcC.s:3667   .debug_str:0000000000000797 .LASF84
     /tmp/ccpb0gcC.s:3701   .debug_str:00000000000008a5 .LASF85
     /tmp/ccpb0gcC.s:3635   .debug_str:000000000000069c .LASF86
     /tmp/ccpb0gcC.s:3441   .debug_str:0000000000000053 .LASF87
     /tmp/ccpb0gcC.s:3679   .debug_str:00000000000007fe .LASF88
     /tmp/ccpb0gcC.s:3447   .debug_str:0000000000000069 .LASF89
     /tmp/ccpb0gcC.s:3487   .debug_str:000000000000018e .LASF90
     /tmp/ccpb0gcC.s:3681   .debug_str:0000000000000812 .LASF91
     /tmp/ccpb0gcC.s:3459   .debug_str:00000000000000bb .LASF92
     /tmp/ccpb0gcC.s:3443   .debug_str:000000000000005b .LASF93
     /tmp/ccpb0gcC.s:3697   .debug_str:0000000000000889 .LASF94
     /tmp/ccpb0gcC.s:3669   .debug_str:00000000000007b0 .LASF95
     /tmp/ccpb0gcC.s:3453   .debug_str:000000000000008a .LASF96
     /tmp/ccpb0gcC.s:3589   .debug_str:0000000000000551 .LASF97
     /tmp/ccpb0gcC.s:3557   .debug_str:0000000000000476 .LASF99
     /tmp/ccpb0gcC.s:3457   .debug_str:00000000000000a2 .LASF101
     /tmp/ccpb0gcC.s:3585   .debug_str:000000000000053f .LASF102
     /tmp/ccpb0gcC.s:3429   .debug_str:0000000000000000 .LASF103
     /tmp/ccpb0gcC.s:3433   .debug_str:000000000000002a .LASF104
     /tmp/ccpb0gcC.s:3659   .debug_str:000000000000074b .LASF105
     /tmp/ccpb0gcC.s:3439   .debug_str:000000000000004a .LASF106
     /tmp/ccpb0gcC.s:3479   .debug_str:0000000000000154 .LASF107
     /tmp/ccpb0gcC.s:3647   .debug_str:00000000000006fa .LASF108
     /tmp/ccpb0gcC.s:3563   .debug_str:0000000000000497 .LASF109
     /tmp/ccpb0gcC.s:3595   .debug_str:0000000000000586 .LASF110
     /tmp/ccpb0gcC.s:3673   .debug_str:00000000000007d0 .LASF111
     /tmp/ccpb0gcC.s:3633   .debug_str:000000000000068c .LASF112
     /tmp/ccpb0gcC.s:3629   .debug_str:0000000000000677 .LASF113
     /tmp/ccpb0gcC.s:3609   .debug_str:00000000000005fc .LASF114
     /tmp/ccpb0gcC.s:3683   .debug_str:000000000000081d .LASF115
     /tmp/ccpb0gcC.s:3507   .debug_str:000000000000024d .LASF116
     /tmp/ccpb0gcC.s:3475   .debug_str:0000000000000141 .LASF117
     /tmp/ccpb0gcC.s:3689   .debug_str:0000000000000843 .LASF118
     /tmp/ccpb0gcC.s:3591   .debug_str:0000000000000569 .LASF119
     /tmp/ccpb0gcC.s:3671   .debug_str:00000000000007bb .LASF137
     /tmp/ccpb0gcC.s:521    .text:00000000000002fc .LFB124
GAS LISTING /tmp/ccpb0gcC.s 			page 22


     /tmp/ccpb0gcC.s:619    .text:00000000000003dc .LFE124
     /tmp/ccpb0gcC.s:3611   .debug_str:000000000000060b .LASF120
     /tmp/ccpb0gcC.s:3069   .debug_loc:0000000000000000 .LLST18
     /tmp/ccpb0gcC.s:542    .text:000000000000031c .LBB3
     /tmp/ccpb0gcC.s:600    .text:00000000000003c0 .LBE3
     /tmp/ccpb0gcC.s:3087   .debug_loc:000000000000004c .LLST19
     /tmp/ccpb0gcC.s:551    .text:0000000000000334 .LVL56
     /tmp/ccpb0gcC.s:557    .text:0000000000000348 .LVL57
     /tmp/ccpb0gcC.s:561    .text:0000000000000358 .LVL58
     /tmp/ccpb0gcC.s:566    .text:0000000000000368 .LVL59
     /tmp/ccpb0gcC.s:570    .text:0000000000000378 .LVL60
     /tmp/ccpb0gcC.s:574    .text:0000000000000388 .LVL61
     /tmp/ccpb0gcC.s:579    .text:0000000000000394 .LVL62
     /tmp/ccpb0gcC.s:595    .text:00000000000003b8 .LVL64
     /tmp/ccpb0gcC.s:400    .text:000000000000022c .LFB123
     /tmp/ccpb0gcC.s:455    .text:0000000000000284 .LFE123
     /tmp/ccpb0gcC.s:3099   .debug_loc:0000000000000083 .LLST15
     /tmp/ccpb0gcC.s:419    .text:0000000000000248 .LBB2
     /tmp/ccpb0gcC.s:438    .text:000000000000026c .LBE2
     /tmp/ccpb0gcC.s:3117   .debug_loc:00000000000000cf .LLST16
     /tmp/ccpb0gcC.s:432    .text:0000000000000264 .LVL42
     /tmp/ccpb0gcC.s:370    .text:000000000000020c .LFB122
     /tmp/ccpb0gcC.s:394    .text:000000000000022c .LFE122
     /tmp/ccpb0gcC.s:3129   .debug_loc:0000000000000106 .LLST13
     /tmp/ccpb0gcC.s:3495   .debug_str:00000000000001de .LASF121
     /tmp/ccpb0gcC.s:3143   .debug_loc:000000000000013f .LLST14
     /tmp/ccpb0gcC.s:298    .text:0000000000000198 .LFB121
     /tmp/ccpb0gcC.s:364    .text:000000000000020c .LFE121
     /tmp/ccpb0gcC.s:3157   .debug_loc:0000000000000178 .LLST10
     /tmp/ccpb0gcC.s:3193   .debug_loc:0000000000000203 .LLST11
     /tmp/ccpb0gcC.s:3435   .debug_str:0000000000000034 .LASF122
     /tmp/ccpb0gcC.s:3211   .debug_loc:000000000000024f .LLST12
     /tmp/ccpb0gcC.s:262    .text:0000000000000170 .LFB120
     /tmp/ccpb0gcC.s:292    .text:0000000000000198 .LFE120
     /tmp/ccpb0gcC.s:3229   .debug_loc:000000000000029b .LLST8
     /tmp/ccpb0gcC.s:3243   .debug_loc:00000000000002d4 .LLST9
     /tmp/ccpb0gcC.s:207    .text:0000000000000130 .LFB119
     /tmp/ccpb0gcC.s:256    .text:0000000000000170 .LFE119
     /tmp/ccpb0gcC.s:3261   .debug_loc:0000000000000311 .LLST4
     /tmp/ccpb0gcC.s:3286   .debug_loc:0000000000000373 .LLST5
     /tmp/ccpb0gcC.s:3587   .debug_str:000000000000054c .LASF123
     /tmp/ccpb0gcC.s:3304   .debug_loc:00000000000003bf .LLST6
     /tmp/ccpb0gcC.s:3445   .debug_str:0000000000000064 .LASF124
     /tmp/ccpb0gcC.s:3325   .debug_loc:0000000000000411 .LLST7
     /tmp/ccpb0gcC.s:173    .text:0000000000000108 .LFB118
     /tmp/ccpb0gcC.s:201    .text:0000000000000130 .LFE118
     /tmp/ccpb0gcC.s:3343   .debug_loc:000000000000045d .LLST3
     /tmp/ccpb0gcC.s:146    .text:00000000000000ec .LFB117
     /tmp/ccpb0gcC.s:167    .text:0000000000000108 .LFE117
     /tmp/ccpb0gcC.s:114    .text:00000000000000c4 .LFB116
     /tmp/ccpb0gcC.s:140    .text:00000000000000ec .LFE116
     /tmp/ccpb0gcC.s:3357   .debug_loc:0000000000000496 .LLST2
     /tmp/ccpb0gcC.s:84     .text:00000000000000a0 .LFB115
     /tmp/ccpb0gcC.s:108    .text:00000000000000c4 .LFE115
     /tmp/ccpb0gcC.s:3371   .debug_loc:00000000000004cf .LLST1
     /tmp/ccpb0gcC.s:13     .text:0000000000000000 .LFB114
     /tmp/ccpb0gcC.s:78     .text:00000000000000a0 .LFE114
GAS LISTING /tmp/ccpb0gcC.s 			page 23


     /tmp/ccpb0gcC.s:3385   .debug_loc:0000000000000508 .LLST0
     /tmp/ccpb0gcC.s:33     .text:0000000000000028 .LVL2
     /tmp/ccpb0gcC.s:41     .text:0000000000000044 .LVL3
     /tmp/ccpb0gcC.s:45     .text:0000000000000054 .LVL4
     /tmp/ccpb0gcC.s:50     .text:0000000000000064 .LVL5
     /tmp/ccpb0gcC.s:59     .text:000000000000007c .LVL6
     /tmp/ccpb0gcC.s:64     .text:000000000000008c .LVL7
     /tmp/ccpb0gcC.s:461    .text:0000000000000284 .LFB113
     /tmp/ccpb0gcC.s:515    .text:00000000000002fc .LFE113
     /tmp/ccpb0gcC.s:3403   .debug_loc:0000000000000554 .LLST17
     /tmp/ccpb0gcC.s:477    .text:00000000000002a0 .LVL46
     /tmp/ccpb0gcC.s:482    .text:00000000000002b0 .LVL47
     /tmp/ccpb0gcC.s:488    .text:00000000000002c8 .LVL48
     /tmp/ccpb0gcC.s:493    .text:00000000000002d8 .LVL49
     /tmp/ccpb0gcC.s:499    .text:00000000000002e4 .LVL51
     /tmp/ccpb0gcC.s:3693   .debug_str:000000000000086b .LASF125
     /tmp/ccpb0gcC.s:3593   .debug_str:0000000000000579 .LASF127
     /tmp/ccpb0gcC.s:3675   .debug_str:00000000000007e0 .LASF126
     /tmp/ccpb0gcC.s:3541   .debug_str:000000000000032d .LASF128
     /tmp/ccpb0gcC.s:3497   .debug_str:00000000000001e4 .LASF129
     /tmp/ccpb0gcC.s:3621   .debug_str:000000000000063b .LASF130
     /tmp/ccpb0gcC.s:524    .text:00000000000002fc .LVL53
     /tmp/ccpb0gcC.s:546    .text:0000000000000324 .LVL55
     /tmp/ccpb0gcC.s:614    .text:00000000000003d4 .LVL66
     /tmp/ccpb0gcC.s:541    .text:000000000000031c .LVL54
     /tmp/ccpb0gcC.s:611    .text:00000000000003d0 .LVL65
     /tmp/ccpb0gcC.s:403    .text:000000000000022c .LVL39
     /tmp/ccpb0gcC.s:422    .text:000000000000024c .LVL41
     /tmp/ccpb0gcC.s:450    .text:000000000000027c .LVL45
     /tmp/ccpb0gcC.s:418    .text:0000000000000248 .LVL40
     /tmp/ccpb0gcC.s:447    .text:0000000000000278 .LVL44
     /tmp/ccpb0gcC.s:373    .text:000000000000020c .LVL36
     /tmp/ccpb0gcC.s:386    .text:0000000000000220 .LVL38
     /tmp/ccpb0gcC.s:383    .text:000000000000021c .LVL37
     /tmp/ccpb0gcC.s:301    .text:0000000000000198 .LVL28
     /tmp/ccpb0gcC.s:340    .text:00000000000001f0 .LVL31
     /tmp/ccpb0gcC.s:350    .text:00000000000001fc .LVL32
     /tmp/ccpb0gcC.s:355    .text:0000000000000200 .LVL33
     /tmp/ccpb0gcC.s:357    .text:0000000000000204 .LVL34
     /tmp/ccpb0gcC.s:361    .text:0000000000000208 .LVL35
     /tmp/ccpb0gcC.s:321    .text:00000000000001c0 .LVL29
     /tmp/ccpb0gcC.s:328    .text:00000000000001d8 .LVL30
     /tmp/ccpb0gcC.s:265    .text:0000000000000170 .LVL24
     /tmp/ccpb0gcC.s:275    .text:0000000000000180 .LVL25
     /tmp/ccpb0gcC.s:278    .text:0000000000000184 .LVL26
     /tmp/ccpb0gcC.s:282    .text:0000000000000188 .LVL27
     /tmp/ccpb0gcC.s:210    .text:0000000000000130 .LVL17
     /tmp/ccpb0gcC.s:238    .text:000000000000015c .LVL21
     /tmp/ccpb0gcC.s:248    .text:0000000000000168 .LVL22
     /tmp/ccpb0gcC.s:253    .text:000000000000016c .LVL23
     /tmp/ccpb0gcC.s:231    .text:0000000000000150 .LVL20
     /tmp/ccpb0gcC.s:218    .text:000000000000013c .LVL18
     /tmp/ccpb0gcC.s:223    .text:0000000000000144 .LVL19
     /tmp/ccpb0gcC.s:176    .text:0000000000000108 .LVL14
     /tmp/ccpb0gcC.s:192    .text:0000000000000120 .LVL16
     /tmp/ccpb0gcC.s:117    .text:00000000000000c4 .LVL11
     /tmp/ccpb0gcC.s:127    .text:00000000000000d4 .LVL12
GAS LISTING /tmp/ccpb0gcC.s 			page 24


     /tmp/ccpb0gcC.s:87     .text:00000000000000a0 .LVL9
     /tmp/ccpb0gcC.s:98     .text:00000000000000b4 .LVL10
     /tmp/ccpb0gcC.s:17     .text:0000000000000000 .LVL0
     /tmp/ccpb0gcC.s:31     .text:0000000000000020 .LVL1
     /tmp/ccpb0gcC.s:73     .text:0000000000000098 .LVL8
     /tmp/ccpb0gcC.s:495    .text:00000000000002dc .LVL50
     /tmp/ccpb0gcC.s:510    .text:00000000000002f4 .LVL52
     /tmp/ccpb0gcC.s:656    .debug_info:0000000000000000 .Ldebug_info0

UNDEFINED SYMBOLS
_Z12kprintStringPKc
_Z9kprintIntmib
_ZN5Buddy11getInstanceEv
_Z4log2m
_ZN5Buddy9mem_allocEh
