GAS LISTING /tmp/cc21fReX.s 			page 1


   1              		.file	"buddy_test.cpp"
   2              		.option nopic
   3              		.option norelax
   4              		.attribute arch, "rv64i2p0_m2p0_a2p0"
   5              		.attribute unaligned_access, 0
   6              		.attribute stack_align, 16
   7              		.text
   8              	.Ltext0:
   9              		.align	2
  10              		.globl	_Z19buddy_allocate_testhb
  12              	_Z19buddy_allocate_testhb:
  13              	.LFB113:
  14              		.file 1 "src/kernel/testing/buddy_test.cpp"
   1:src/kernel/testing/buddy_test.cpp **** #include"../../../h/kernel_lib.h"
   2:src/kernel/testing/buddy_test.cpp **** #include"../../../h/kernel_test.h"
   3:src/kernel/testing/buddy_test.cpp **** 
   4:src/kernel/testing/buddy_test.cpp **** void* buddy_allocate_test(uchar level, bool a = false){
  15              		.loc 1 4 55
  16              		.cfi_startproc
  17              	.LVL0:
  18 0000 130101FE 		addi	sp,sp,-32
  19              		.cfi_def_cfa_offset 32
  20 0004 233C1100 		sd	ra,24(sp)
  21 0008 23388100 		sd	s0,16(sp)
  22 000c 23349100 		sd	s1,8(sp)
  23 0010 23302101 		sd	s2,0(sp)
  24              		.cfi_offset 1, -8
  25              		.cfi_offset 8, -16
  26              		.cfi_offset 9, -24
  27              		.cfi_offset 18, -32
  28 0014 13040102 		addi	s0,sp,32
  29              		.cfi_def_cfa 8, 0
  30 0018 93040500 		mv	s1,a0
  31 001c 13890500 		mv	s2,a1
   5:src/kernel/testing/buddy_test.cpp ****     kprintString("Buddy allocate: 2^");
  32              		.loc 1 5 5
  33              		.loc 1 5 17 is_stmt 0
  34 0020 17050000 		lla	a0,.LC0
  34      13050500 
  35              	.LVL1:
  36 0028 97000000 		call	_Z12kprintStringPKc
  36      E7800000 
  37              	.LVL2:
   6:src/kernel/testing/buddy_test.cpp ****     kprintInt(level);
  38              		.loc 1 6 5 is_stmt 1
  39              		.loc 1 6 14 is_stmt 0
  40 0030 13060000 		li	a2,0
  41 0034 9305A000 		li	a1,10
  42 0038 13850400 		mv	a0,s1
  43 003c 97000000 		call	_Z9kprintIntmib
  43      E7800000 
  44              	.LVL3:
   7:src/kernel/testing/buddy_test.cpp ****     kprintString(" blocks\n");
  45              		.loc 1 7 5 is_stmt 1
  46              		.loc 1 7 17 is_stmt 0
  47 0044 17050000 		lla	a0,.LC1
  47      13050500 
GAS LISTING /tmp/cc21fReX.s 			page 2


  48 004c 97000000 		call	_Z12kprintStringPKc
  48      E7800000 
  49              	.LVL4:
   8:src/kernel/testing/buddy_test.cpp ****     void* ret = Buddy::getInstance().mem_alloc(level);
  50              		.loc 1 8 5 is_stmt 1
  51              		.loc 1 8 36 is_stmt 0
  52 0054 97000000 		call	_ZN5Buddy11getInstanceEv
  52      E7800000 
  53              	.LVL5:
  54              		.loc 1 8 47
  55 005c 93850400 		mv	a1,s1
  56 0060 97000000 		call	_ZN5Buddy9mem_allocEh
  56      E7800000 
  57              	.LVL6:
  58 0068 93040500 		mv	s1,a0
  59              	.LVL7:
   9:src/kernel/testing/buddy_test.cpp ****     KVALCHECKPRINT(Returned address, ret);
  60              		.loc 1 9 5 is_stmt 1
  61 006c 17050000 		lla	a0,.LC2
  61      13050500 
  62 0074 97000000 		call	_Z12kprintStringPKc
  62      E7800000 
  63              	.LVL8:
  64              		.loc 1 9 5
  65 007c 13060000 		li	a2,0
  66 0080 93050001 		li	a1,16
  67 0084 13850400 		mv	a0,s1
  68 0088 97000000 		call	_Z9kprintIntmib
  68      E7800000 
  69              	.LVL9:
  70              		.loc 1 9 5
  71 0090 17050000 		lla	a0,.LC3
  71      13050500 
  72 0098 97000000 		call	_Z12kprintStringPKc
  72      E7800000 
  73              	.LVL10:
  10:src/kernel/testing/buddy_test.cpp ****     kprintString("\n");
  74              		.loc 1 10 5
  75              		.loc 1 10 17 is_stmt 0
  76 00a0 17050000 		lla	a0,.LC3
  76      13050500 
  77 00a8 97000000 		call	_Z12kprintStringPKc
  77      E7800000 
  78              	.LVL11:
  11:src/kernel/testing/buddy_test.cpp ****     if(!ret)
  79              		.loc 1 11 5 is_stmt 1
  80 00b0 63820404 		beq	s1,zero,.L5
  81              	.L2:
  12:src/kernel/testing/buddy_test.cpp ****         kprintString("BUDDY ALLOCATE ERROR\n");
  13:src/kernel/testing/buddy_test.cpp ****     kprintString("\n");
  82              		.loc 1 13 5
  83              		.loc 1 13 17 is_stmt 0
  84 00b4 17050000 		lla	a0,.LC3
  84      13050500 
  85 00bc 97000000 		call	_Z12kprintStringPKc
  85      E7800000 
  86              	.LVL12:
GAS LISTING /tmp/cc21fReX.s 			page 3


  14:src/kernel/testing/buddy_test.cpp ****     
  15:src/kernel/testing/buddy_test.cpp ****     if(a) Buddy::getInstance().status_print();
  87              		.loc 1 15 5 is_stmt 1
  88 00c4 63120904 		bne	s2,zero,.L6
  89              	.L3:
  16:src/kernel/testing/buddy_test.cpp ****     kprintString("\n");
  90              		.loc 1 16 5
  91              		.loc 1 16 17 is_stmt 0
  92 00c8 17050000 		lla	a0,.LC3
  92      13050500 
  93 00d0 97000000 		call	_Z12kprintStringPKc
  93      E7800000 
  94              	.LVL13:
  17:src/kernel/testing/buddy_test.cpp ****     return ret;
  95              		.loc 1 17 5 is_stmt 1
  18:src/kernel/testing/buddy_test.cpp **** }
  96              		.loc 1 18 1 is_stmt 0
  97 00d8 13850400 		mv	a0,s1
  98 00dc 83308101 		ld	ra,24(sp)
  99              		.cfi_remember_state
 100              		.cfi_restore 1
 101 00e0 03340101 		ld	s0,16(sp)
 102              		.cfi_restore 8
 103              		.cfi_def_cfa 2, 32
 104 00e4 83348100 		ld	s1,8(sp)
 105              		.cfi_restore 9
 106              	.LVL14:
 107 00e8 03390100 		ld	s2,0(sp)
 108              		.cfi_restore 18
 109 00ec 13010102 		addi	sp,sp,32
 110              		.cfi_def_cfa_offset 0
 111 00f0 67800000 		jr	ra
 112              	.LVL15:
 113              	.L5:
 114              		.cfi_restore_state
  12:src/kernel/testing/buddy_test.cpp ****     kprintString("\n");
 115              		.loc 1 12 9 is_stmt 1
  12:src/kernel/testing/buddy_test.cpp ****     kprintString("\n");
 116              		.loc 1 12 21 is_stmt 0
 117 00f4 17050000 		lla	a0,.LC4
 117      13050500 
 118 00fc 97000000 		call	_Z12kprintStringPKc
 118      E7800000 
 119              	.LVL16:
 120 0104 6FF01FFB 		j	.L2
 121              	.L6:
  15:src/kernel/testing/buddy_test.cpp ****     kprintString("\n");
 122              		.loc 1 15 11 is_stmt 1 discriminator 1
  15:src/kernel/testing/buddy_test.cpp ****     kprintString("\n");
 123              		.loc 1 15 30 is_stmt 0 discriminator 1
 124 0108 97000000 		call	_ZN5Buddy11getInstanceEv
 124      E7800000 
 125              	.LVL17:
  15:src/kernel/testing/buddy_test.cpp ****     kprintString("\n");
 126              		.loc 1 15 44 discriminator 1
 127 0110 93051000 		li	a1,1
 128 0114 97000000 		call	_ZN5Buddy12status_printEb
GAS LISTING /tmp/cc21fReX.s 			page 4


 128      E7800000 
 129              	.LVL18:
 130 011c 6FF0DFFA 		j	.L3
 131              		.cfi_endproc
 132              	.LFE113:
 134              		.align	2
 135              		.globl	_Z21buddy_deallocate_testPvhb
 137              	_Z21buddy_deallocate_testPvhb:
 138              	.LFB114:
  19:src/kernel/testing/buddy_test.cpp **** 
  20:src/kernel/testing/buddy_test.cpp **** int buddy_deallocate_test(void* s, uchar level, bool a = false){
 139              		.loc 1 20 64 is_stmt 1
 140              		.cfi_startproc
 141              	.LVL19:
 142 0120 130101FD 		addi	sp,sp,-48
 143              		.cfi_def_cfa_offset 48
 144 0124 23341102 		sd	ra,40(sp)
 145 0128 23308102 		sd	s0,32(sp)
 146 012c 233C9100 		sd	s1,24(sp)
 147 0130 23382101 		sd	s2,16(sp)
 148 0134 23343101 		sd	s3,8(sp)
 149              		.cfi_offset 1, -8
 150              		.cfi_offset 8, -16
 151              		.cfi_offset 9, -24
 152              		.cfi_offset 18, -32
 153              		.cfi_offset 19, -40
 154 0138 13040103 		addi	s0,sp,48
 155              		.cfi_def_cfa 8, 0
 156 013c 93040500 		mv	s1,a0
 157 0140 13890500 		mv	s2,a1
 158 0144 93090600 		mv	s3,a2
  21:src/kernel/testing/buddy_test.cpp ****     kprintString("Buddy deallocate 2^"); 
 159              		.loc 1 21 5
 160              		.loc 1 21 17 is_stmt 0
 161 0148 17050000 		lla	a0,.LC5
 161      13050500 
 162              	.LVL20:
 163 0150 97000000 		call	_Z12kprintStringPKc
 163      E7800000 
 164              	.LVL21:
  22:src/kernel/testing/buddy_test.cpp ****     kprintInt(level);
 165              		.loc 1 22 5 is_stmt 1
 166              		.loc 1 22 14 is_stmt 0
 167 0158 13060000 		li	a2,0
 168 015c 9305A000 		li	a1,10
 169 0160 13050900 		mv	a0,s2
 170 0164 97000000 		call	_Z9kprintIntmib
 170      E7800000 
 171              	.LVL22:
  23:src/kernel/testing/buddy_test.cpp ****     kprintString(" blocks on address: ");
 172              		.loc 1 23 5 is_stmt 1
 173              		.loc 1 23 17 is_stmt 0
 174 016c 17050000 		lla	a0,.LC6
 174      13050500 
 175 0174 97000000 		call	_Z12kprintStringPKc
 175      E7800000 
 176              	.LVL23:
GAS LISTING /tmp/cc21fReX.s 			page 5


  24:src/kernel/testing/buddy_test.cpp ****     kprintInt((uint64)s, 16);
 177              		.loc 1 24 5 is_stmt 1
 178              		.loc 1 24 14 is_stmt 0
 179 017c 13060000 		li	a2,0
 180 0180 93050001 		li	a1,16
 181 0184 13850400 		mv	a0,s1
 182 0188 97000000 		call	_Z9kprintIntmib
 182      E7800000 
 183              	.LVL24:
  25:src/kernel/testing/buddy_test.cpp ****     kprintString("\n");
 184              		.loc 1 25 5 is_stmt 1
 185              		.loc 1 25 17 is_stmt 0
 186 0190 17050000 		lla	a0,.LC3
 186      13050500 
 187 0198 97000000 		call	_Z12kprintStringPKc
 187      E7800000 
 188              	.LVL25:
  26:src/kernel/testing/buddy_test.cpp ****     int ret = Buddy::getInstance().mem_free(s, level);
 189              		.loc 1 26 5 is_stmt 1
 190              		.loc 1 26 34 is_stmt 0
 191 01a0 97000000 		call	_ZN5Buddy11getInstanceEv
 191      E7800000 
 192              	.LVL26:
 193              		.loc 1 26 44
 194 01a8 13060900 		mv	a2,s2
 195 01ac 93850400 		mv	a1,s1
 196 01b0 97000000 		call	_ZN5Buddy8mem_freeEPvh
 196      E7800000 
 197              	.LVL27:
 198 01b8 93040500 		mv	s1,a0
 199              	.LVL28:
  27:src/kernel/testing/buddy_test.cpp ****     if(ret < 0){
 200              		.loc 1 27 5 is_stmt 1
 201 01bc 63440504 		blt	a0,zero,.L11
 202              	.LVL29:
 203              	.L8:
  28:src/kernel/testing/buddy_test.cpp ****         kprintString("BUDDY DEALLOCATE ERROR:");
  29:src/kernel/testing/buddy_test.cpp ****         kprintInt((uint64)ret, 10, true);
  30:src/kernel/testing/buddy_test.cpp ****         kprintString("\n");
  31:src/kernel/testing/buddy_test.cpp ****     }
  32:src/kernel/testing/buddy_test.cpp ****     kprintString("\n");
 204              		.loc 1 32 5
 205              		.loc 1 32 17 is_stmt 0
 206 01c0 17050000 		lla	a0,.LC3
 206      13050500 
 207 01c8 97000000 		call	_Z12kprintStringPKc
 207      E7800000 
 208              	.LVL30:
  33:src/kernel/testing/buddy_test.cpp ****     if(a) Buddy::getInstance().status_print();
 209              		.loc 1 33 5 is_stmt 1
 210 01d0 63960906 		bne	s3,zero,.L12
 211              	.L9:
  34:src/kernel/testing/buddy_test.cpp ****     kprintString("\n");
 212              		.loc 1 34 5
 213              		.loc 1 34 17 is_stmt 0
 214 01d4 17050000 		lla	a0,.LC3
 214      13050500 
GAS LISTING /tmp/cc21fReX.s 			page 6


 215 01dc 97000000 		call	_Z12kprintStringPKc
 215      E7800000 
 216              	.LVL31:
  35:src/kernel/testing/buddy_test.cpp ****     return ret;
 217              		.loc 1 35 5 is_stmt 1
  36:src/kernel/testing/buddy_test.cpp **** }
 218              		.loc 1 36 1 is_stmt 0
 219 01e4 13850400 		mv	a0,s1
 220 01e8 83308102 		ld	ra,40(sp)
 221              		.cfi_remember_state
 222              		.cfi_restore 1
 223 01ec 03340102 		ld	s0,32(sp)
 224              		.cfi_restore 8
 225              		.cfi_def_cfa 2, 48
 226 01f0 83348101 		ld	s1,24(sp)
 227              		.cfi_restore 9
 228 01f4 03390101 		ld	s2,16(sp)
 229              		.cfi_restore 18
 230 01f8 83398100 		ld	s3,8(sp)
 231              		.cfi_restore 19
 232 01fc 13010103 		addi	sp,sp,48
 233              		.cfi_def_cfa_offset 0
 234 0200 67800000 		jr	ra
 235              	.LVL32:
 236              	.L11:
 237              		.cfi_restore_state
  28:src/kernel/testing/buddy_test.cpp ****         kprintInt((uint64)ret, 10, true);
 238              		.loc 1 28 9 is_stmt 1
  28:src/kernel/testing/buddy_test.cpp ****         kprintInt((uint64)ret, 10, true);
 239              		.loc 1 28 21 is_stmt 0
 240 0204 17050000 		lla	a0,.LC7
 240      13050500 
 241              	.LVL33:
 242 020c 97000000 		call	_Z12kprintStringPKc
 242      E7800000 
 243              	.LVL34:
  29:src/kernel/testing/buddy_test.cpp ****         kprintString("\n");
 244              		.loc 1 29 9 is_stmt 1
  29:src/kernel/testing/buddy_test.cpp ****         kprintString("\n");
 245              		.loc 1 29 18 is_stmt 0
 246 0214 13061000 		li	a2,1
 247 0218 9305A000 		li	a1,10
 248 021c 13850400 		mv	a0,s1
 249 0220 97000000 		call	_Z9kprintIntmib
 249      E7800000 
 250              	.LVL35:
  30:src/kernel/testing/buddy_test.cpp ****     }
 251              		.loc 1 30 9 is_stmt 1
  30:src/kernel/testing/buddy_test.cpp ****     }
 252              		.loc 1 30 21 is_stmt 0
 253 0228 17050000 		lla	a0,.LC3
 253      13050500 
 254 0230 97000000 		call	_Z12kprintStringPKc
 254      E7800000 
 255              	.LVL36:
 256 0238 6FF09FF8 		j	.L8
 257              	.L12:
GAS LISTING /tmp/cc21fReX.s 			page 7


  33:src/kernel/testing/buddy_test.cpp ****     kprintString("\n");
 258              		.loc 1 33 11 is_stmt 1 discriminator 1
  33:src/kernel/testing/buddy_test.cpp ****     kprintString("\n");
 259              		.loc 1 33 30 is_stmt 0 discriminator 1
 260 023c 97000000 		call	_ZN5Buddy11getInstanceEv
 260      E7800000 
 261              	.LVL37:
  33:src/kernel/testing/buddy_test.cpp ****     kprintString("\n");
 262              		.loc 1 33 44 discriminator 1
 263 0244 93051000 		li	a1,1
 264 0248 97000000 		call	_ZN5Buddy12status_printEb
 264      E7800000 
 265              	.LVL38:
 266 0250 6FF05FF8 		j	.L9
 267              		.cfi_endproc
 268              	.LFE114:
 270              		.align	2
 271              		.globl	_Z10buddy_testv
 273              	_Z10buddy_testv:
 274              	.LFB115:
  37:src/kernel/testing/buddy_test.cpp **** 
  38:src/kernel/testing/buddy_test.cpp **** void buddy_test(){
 275              		.loc 1 38 18 is_stmt 1
 276              		.cfi_startproc
 277 0254 130101FE 		addi	sp,sp,-32
 278              		.cfi_def_cfa_offset 32
 279 0258 233C1100 		sd	ra,24(sp)
 280 025c 23388100 		sd	s0,16(sp)
 281 0260 23349100 		sd	s1,8(sp)
 282              		.cfi_offset 1, -8
 283              		.cfi_offset 8, -16
 284              		.cfi_offset 9, -24
 285 0264 13040102 		addi	s0,sp,32
 286              		.cfi_def_cfa 8, 0
  39:src/kernel/testing/buddy_test.cpp ****     kprintString("--------BUDDY TEST--------\n");
 287              		.loc 1 39 5
 288              		.loc 1 39 17 is_stmt 0
 289 0268 17050000 		lla	a0,.LC8
 289      13050500 
 290 0270 97000000 		call	_Z12kprintStringPKc
 290      E7800000 
 291              	.LVL39:
  40:src/kernel/testing/buddy_test.cpp **** 
  41:src/kernel/testing/buddy_test.cpp ****     /* allocate deallocate */
  42:src/kernel/testing/buddy_test.cpp ****     bool x = false;
 292              		.loc 1 42 5 is_stmt 1
  43:src/kernel/testing/buddy_test.cpp ****     void* t = buddy_allocate_test(4, x);
 293              		.loc 1 43 5
 294              		.loc 1 43 34 is_stmt 0
 295 0278 93050000 		li	a1,0
 296 027c 13054000 		li	a0,4
 297 0280 97000000 		call	_Z19buddy_allocate_testhb
 297      E7800000 
 298              	.LVL40:
 299 0288 93040500 		mv	s1,a0
 300              	.LVL41:
  44:src/kernel/testing/buddy_test.cpp ****     buddy_deallocate_test(t, 4, x);
GAS LISTING /tmp/cc21fReX.s 			page 8


 301              		.loc 1 44 5 is_stmt 1
 302              		.loc 1 44 26 is_stmt 0
 303 028c 13060000 		li	a2,0
 304 0290 93054000 		li	a1,4
 305 0294 97000000 		call	_Z21buddy_deallocate_testPvhb
 305      E7800000 
 306              	.LVL42:
  45:src/kernel/testing/buddy_test.cpp **** 
  46:src/kernel/testing/buddy_test.cpp ****     /* allocate errors */
  47:src/kernel/testing/buddy_test.cpp ****     x = true;
 307              		.loc 1 47 5 is_stmt 1
  48:src/kernel/testing/buddy_test.cpp ****     buddy_allocate_test(13);
 308              		.loc 1 48 5
 309              		.loc 1 48 24 is_stmt 0
 310 029c 93050000 		li	a1,0
 311 02a0 1305D000 		li	a0,13
 312 02a4 97000000 		call	_Z19buddy_allocate_testhb
 312      E7800000 
 313              	.LVL43:
  49:src/kernel/testing/buddy_test.cpp ****     buddy_deallocate_test(t, 13);
 314              		.loc 1 49 5 is_stmt 1
 315              		.loc 1 49 26 is_stmt 0
 316 02ac 13060000 		li	a2,0
 317 02b0 9305D000 		li	a1,13
 318 02b4 13850400 		mv	a0,s1
 319 02b8 97000000 		call	_Z21buddy_deallocate_testPvhb
 319      E7800000 
 320              	.LVL44:
  50:src/kernel/testing/buddy_test.cpp ****     buddy_deallocate_test(nullptr, 2);
 321              		.loc 1 50 5 is_stmt 1
 322              		.loc 1 50 26 is_stmt 0
 323 02c0 13060000 		li	a2,0
 324 02c4 93052000 		li	a1,2
 325 02c8 13050000 		li	a0,0
 326 02cc 97000000 		call	_Z21buddy_deallocate_testPvhb
 326      E7800000 
 327              	.LVL45:
  51:src/kernel/testing/buddy_test.cpp **** 
  52:src/kernel/testing/buddy_test.cpp ****     kprintString("------BUDDY TEST END------\n");
 328              		.loc 1 52 5 is_stmt 1
 329              		.loc 1 52 17 is_stmt 0
 330 02d4 17050000 		lla	a0,.LC9
 330      13050500 
 331 02dc 97000000 		call	_Z12kprintStringPKc
 331      E7800000 
 332              	.LVL46:
  53:src/kernel/testing/buddy_test.cpp **** }...
 333              		.loc 1 53 1
 334 02e4 83308101 		ld	ra,24(sp)
 335              		.cfi_restore 1
 336 02e8 03340101 		ld	s0,16(sp)
 337              		.cfi_restore 8
 338              		.cfi_def_cfa 2, 32
 339 02ec 83348100 		ld	s1,8(sp)
 340              		.cfi_restore 9
 341              	.LVL47:
 342 02f0 13010102 		addi	sp,sp,32
GAS LISTING /tmp/cc21fReX.s 			page 9


 343              		.cfi_def_cfa_offset 0
 344 02f4 67800000 		jr	ra
 345              		.cfi_endproc
 346              	.LFE115:
 348              		.section	.rodata.str1.8,"aMS",@progbits,1
 349              		.align	3
 350              	.LC0:
 351 0000 42756464 		.string	"Buddy allocate: 2^"
 351      7920616C 
 351      6C6F6361 
 351      74653A20 
 351      325E00
 352 0013 00000000 		.zero	5
 352      00
 353              	.LC1:
 354 0018 20626C6F 		.string	" blocks\n"
 354      636B730A 
 354      00
 355 0021 00000000 		.zero	7
 355      000000
 356              	.LC2:
 357 0028 52657475 		.string	"Returned address: "
 357      726E6564 
 357      20616464 
 357      72657373 
 357      3A2000
 358 003b 00000000 		.zero	5
 358      00
 359              	.LC3:
 360 0040 0A00     		.string	"\n"
 361 0042 00000000 		.zero	6
 361      0000
 362              	.LC4:
 363 0048 42554444 		.string	"BUDDY ALLOCATE ERROR\n"
 363      5920414C 
 363      4C4F4341 
 363      54452045 
 363      52524F52 
 364 005e 0000     		.zero	2
 365              	.LC5:
 366 0060 42756464 		.string	"Buddy deallocate 2^"
 366      79206465 
 366      616C6C6F 
 366      63617465 
 366      20325E00 
 367 0074 00000000 		.zero	4
 368              	.LC6:
 369 0078 20626C6F 		.string	" blocks on address: "
 369      636B7320 
 369      6F6E2061 
 369      64647265 
 369      73733A20 
 370 008d 000000   		.zero	3
 371              	.LC7:
 372 0090 42554444 		.string	"BUDDY DEALLOCATE ERROR:"
 372      59204445 
 372      414C4C4F 
GAS LISTING /tmp/cc21fReX.s 			page 10


 372      43415445 
 372      20455252 
 373              	.LC8:
 374 00a8 2D2D2D2D 		.string	"--------BUDDY TEST--------\n"
 374      2D2D2D2D 
 374      42554444 
 374      59205445 
 374      53542D2D 
 375 00c4 00000000 		.zero	4
 376              	.LC9:
 377 00c8 2D2D2D2D 		.string	"------BUDDY TEST END------\n"
 377      2D2D4255 
 377      44445920 
 377      54455354 
 377      20454E44 
 378              		.text
 379              	.Letext0:
 380              		.file 2 "src/kernel/testing/../../../h/../h/../lib/hw.h"
 381              		.file 3 "src/kernel/testing/../../../h/../h/buddy.h"
 382              		.file 4 "src/kernel/testing/../../../h/kernel_lib.h"
 383              		.file 5 "src/kernel/testing/../../../h/../h/kernel_funs.h"
GAS LISTING /tmp/cc21fReX.s 			page 11


DEFINED SYMBOLS
                            *ABS*:0000000000000000 buddy_test.cpp
     /tmp/cc21fReX.s:12     .text:0000000000000000 _Z19buddy_allocate_testhb
     /tmp/cc21fReX.s:16     .text:0000000000000000 .L0 
     /tmp/cc21fReX.s:18     .text:0000000000000000 .L0 
     /tmp/cc21fReX.s:19     .text:0000000000000004 .L0 
     /tmp/cc21fReX.s:24     .text:0000000000000014 .L0 
     /tmp/cc21fReX.s:25     .text:0000000000000014 .L0 
     /tmp/cc21fReX.s:26     .text:0000000000000014 .L0 
     /tmp/cc21fReX.s:27     .text:0000000000000014 .L0 
     /tmp/cc21fReX.s:29     .text:0000000000000018 .L0 
     /tmp/cc21fReX.s:33     .text:0000000000000020 .L0 
     /tmp/cc21fReX.s:34     .text:0000000000000020 .L0 
     /tmp/cc21fReX.s:39     .text:0000000000000030 .L0 
     /tmp/cc21fReX.s:40     .text:0000000000000030 .L0 
     /tmp/cc21fReX.s:46     .text:0000000000000044 .L0 
     /tmp/cc21fReX.s:47     .text:0000000000000044 .L0 
     /tmp/cc21fReX.s:51     .text:0000000000000054 .L0 
     /tmp/cc21fReX.s:52     .text:0000000000000054 .L0 
     /tmp/cc21fReX.s:55     .text:000000000000005c .L0 
     /tmp/cc21fReX.s:61     .text:000000000000006c .L0 
     /tmp/cc21fReX.s:65     .text:000000000000007c .L0 
     /tmp/cc21fReX.s:71     .text:0000000000000090 .L0 
     /tmp/cc21fReX.s:75     .text:00000000000000a0 .L0 
     /tmp/cc21fReX.s:76     .text:00000000000000a0 .L0 
     /tmp/cc21fReX.s:80     .text:00000000000000b0 .L0 
     /tmp/cc21fReX.s:83     .text:00000000000000b4 .L0 
     /tmp/cc21fReX.s:84     .text:00000000000000b4 .L0 
     /tmp/cc21fReX.s:88     .text:00000000000000c4 .L0 
     /tmp/cc21fReX.s:91     .text:00000000000000c8 .L0 
     /tmp/cc21fReX.s:92     .text:00000000000000c8 .L0 
     /tmp/cc21fReX.s:96     .text:00000000000000d8 .L0 
     /tmp/cc21fReX.s:97     .text:00000000000000d8 .L0 
     /tmp/cc21fReX.s:99     .text:00000000000000e0 .L0 
     /tmp/cc21fReX.s:100    .text:00000000000000e0 .L0 
     /tmp/cc21fReX.s:102    .text:00000000000000e4 .L0 
     /tmp/cc21fReX.s:103    .text:00000000000000e4 .L0 
     /tmp/cc21fReX.s:105    .text:00000000000000e8 .L0 
     /tmp/cc21fReX.s:108    .text:00000000000000ec .L0 
     /tmp/cc21fReX.s:110    .text:00000000000000f0 .L0 
     /tmp/cc21fReX.s:114    .text:00000000000000f4 .L0 
     /tmp/cc21fReX.s:116    .text:00000000000000f4 .L0 
     /tmp/cc21fReX.s:117    .text:00000000000000f4 .L0 
     /tmp/cc21fReX.s:123    .text:0000000000000108 .L0 
     /tmp/cc21fReX.s:124    .text:0000000000000108 .L0 
     /tmp/cc21fReX.s:127    .text:0000000000000110 .L0 
     /tmp/cc21fReX.s:131    .text:0000000000000120 .L0 
     /tmp/cc21fReX.s:137    .text:0000000000000120 _Z21buddy_deallocate_testPvhb
     /tmp/cc21fReX.s:140    .text:0000000000000120 .L0 
     /tmp/cc21fReX.s:142    .text:0000000000000120 .L0 
     /tmp/cc21fReX.s:143    .text:0000000000000124 .L0 
     /tmp/cc21fReX.s:149    .text:0000000000000138 .L0 
     /tmp/cc21fReX.s:150    .text:0000000000000138 .L0 
     /tmp/cc21fReX.s:151    .text:0000000000000138 .L0 
     /tmp/cc21fReX.s:152    .text:0000000000000138 .L0 
     /tmp/cc21fReX.s:153    .text:0000000000000138 .L0 
     /tmp/cc21fReX.s:155    .text:000000000000013c .L0 
GAS LISTING /tmp/cc21fReX.s 			page 12


     /tmp/cc21fReX.s:160    .text:0000000000000148 .L0 
     /tmp/cc21fReX.s:161    .text:0000000000000148 .L0 
     /tmp/cc21fReX.s:166    .text:0000000000000158 .L0 
     /tmp/cc21fReX.s:167    .text:0000000000000158 .L0 
     /tmp/cc21fReX.s:173    .text:000000000000016c .L0 
     /tmp/cc21fReX.s:174    .text:000000000000016c .L0 
     /tmp/cc21fReX.s:178    .text:000000000000017c .L0 
     /tmp/cc21fReX.s:179    .text:000000000000017c .L0 
     /tmp/cc21fReX.s:185    .text:0000000000000190 .L0 
     /tmp/cc21fReX.s:186    .text:0000000000000190 .L0 
     /tmp/cc21fReX.s:190    .text:00000000000001a0 .L0 
     /tmp/cc21fReX.s:191    .text:00000000000001a0 .L0 
     /tmp/cc21fReX.s:194    .text:00000000000001a8 .L0 
     /tmp/cc21fReX.s:201    .text:00000000000001bc .L0 
     /tmp/cc21fReX.s:205    .text:00000000000001c0 .L0 
     /tmp/cc21fReX.s:206    .text:00000000000001c0 .L0 
     /tmp/cc21fReX.s:210    .text:00000000000001d0 .L0 
     /tmp/cc21fReX.s:213    .text:00000000000001d4 .L0 
     /tmp/cc21fReX.s:214    .text:00000000000001d4 .L0 
     /tmp/cc21fReX.s:218    .text:00000000000001e4 .L0 
     /tmp/cc21fReX.s:219    .text:00000000000001e4 .L0 
     /tmp/cc21fReX.s:221    .text:00000000000001ec .L0 
     /tmp/cc21fReX.s:222    .text:00000000000001ec .L0 
     /tmp/cc21fReX.s:224    .text:00000000000001f0 .L0 
     /tmp/cc21fReX.s:225    .text:00000000000001f0 .L0 
     /tmp/cc21fReX.s:227    .text:00000000000001f4 .L0 
     /tmp/cc21fReX.s:229    .text:00000000000001f8 .L0 
     /tmp/cc21fReX.s:231    .text:00000000000001fc .L0 
     /tmp/cc21fReX.s:233    .text:0000000000000200 .L0 
     /tmp/cc21fReX.s:237    .text:0000000000000204 .L0 
     /tmp/cc21fReX.s:239    .text:0000000000000204 .L0 
     /tmp/cc21fReX.s:240    .text:0000000000000204 .L0 
     /tmp/cc21fReX.s:245    .text:0000000000000214 .L0 
     /tmp/cc21fReX.s:246    .text:0000000000000214 .L0 
     /tmp/cc21fReX.s:252    .text:0000000000000228 .L0 
     /tmp/cc21fReX.s:253    .text:0000000000000228 .L0 
     /tmp/cc21fReX.s:259    .text:000000000000023c .L0 
     /tmp/cc21fReX.s:260    .text:000000000000023c .L0 
     /tmp/cc21fReX.s:263    .text:0000000000000244 .L0 
     /tmp/cc21fReX.s:267    .text:0000000000000254 .L0 
     /tmp/cc21fReX.s:273    .text:0000000000000254 _Z10buddy_testv
     /tmp/cc21fReX.s:276    .text:0000000000000254 .L0 
     /tmp/cc21fReX.s:277    .text:0000000000000254 .L0 
     /tmp/cc21fReX.s:278    .text:0000000000000258 .L0 
     /tmp/cc21fReX.s:282    .text:0000000000000264 .L0 
     /tmp/cc21fReX.s:283    .text:0000000000000264 .L0 
     /tmp/cc21fReX.s:284    .text:0000000000000264 .L0 
     /tmp/cc21fReX.s:286    .text:0000000000000268 .L0 
     /tmp/cc21fReX.s:288    .text:0000000000000268 .L0 
     /tmp/cc21fReX.s:289    .text:0000000000000268 .L0 
     /tmp/cc21fReX.s:293    .text:0000000000000278 .L0 
     /tmp/cc21fReX.s:294    .text:0000000000000278 .L0 
     /tmp/cc21fReX.s:295    .text:0000000000000278 .L0 
     /tmp/cc21fReX.s:302    .text:000000000000028c .L0 
     /tmp/cc21fReX.s:303    .text:000000000000028c .L0 
     /tmp/cc21fReX.s:308    .text:000000000000029c .L0 
     /tmp/cc21fReX.s:309    .text:000000000000029c .L0 
GAS LISTING /tmp/cc21fReX.s 			page 13


     /tmp/cc21fReX.s:310    .text:000000000000029c .L0 
     /tmp/cc21fReX.s:315    .text:00000000000002ac .L0 
     /tmp/cc21fReX.s:316    .text:00000000000002ac .L0 
     /tmp/cc21fReX.s:322    .text:00000000000002c0 .L0 
     /tmp/cc21fReX.s:323    .text:00000000000002c0 .L0 
     /tmp/cc21fReX.s:329    .text:00000000000002d4 .L0 
     /tmp/cc21fReX.s:330    .text:00000000000002d4 .L0 
     /tmp/cc21fReX.s:334    .text:00000000000002e4 .L0 
     /tmp/cc21fReX.s:335    .text:00000000000002e8 .L0 
     /tmp/cc21fReX.s:337    .text:00000000000002ec .L0 
     /tmp/cc21fReX.s:338    .text:00000000000002ec .L0 
     /tmp/cc21fReX.s:340    .text:00000000000002f0 .L0 
     /tmp/cc21fReX.s:343    .text:00000000000002f4 .L0 
     /tmp/cc21fReX.s:345    .text:00000000000002f8 .L0 
     /tmp/cc21fReX.s:384    .text:00000000000002f8 .L0 
     /tmp/cc21fReX.s:350    .rodata.str1.8:0000000000000000 .LC0
     /tmp/cc21fReX.s:34     .text:0000000000000020 .L0 
     /tmp/cc21fReX.s:353    .rodata.str1.8:0000000000000018 .LC1
     /tmp/cc21fReX.s:47     .text:0000000000000044 .L0 
     /tmp/cc21fReX.s:356    .rodata.str1.8:0000000000000028 .LC2
     /tmp/cc21fReX.s:61     .text:000000000000006c .L0 
     /tmp/cc21fReX.s:359    .rodata.str1.8:0000000000000040 .LC3
     /tmp/cc21fReX.s:71     .text:0000000000000090 .L0 
     /tmp/cc21fReX.s:76     .text:00000000000000a0 .L0 
     /tmp/cc21fReX.s:84     .text:00000000000000b4 .L0 
     /tmp/cc21fReX.s:92     .text:00000000000000c8 .L0 
     /tmp/cc21fReX.s:362    .rodata.str1.8:0000000000000048 .LC4
     /tmp/cc21fReX.s:117    .text:00000000000000f4 .L0 
     /tmp/cc21fReX.s:365    .rodata.str1.8:0000000000000060 .LC5
     /tmp/cc21fReX.s:161    .text:0000000000000148 .L0 
     /tmp/cc21fReX.s:368    .rodata.str1.8:0000000000000078 .LC6
     /tmp/cc21fReX.s:174    .text:000000000000016c .L0 
     /tmp/cc21fReX.s:186    .text:0000000000000190 .L0 
     /tmp/cc21fReX.s:206    .text:00000000000001c0 .L0 
     /tmp/cc21fReX.s:214    .text:00000000000001d4 .L0 
     /tmp/cc21fReX.s:371    .rodata.str1.8:0000000000000090 .LC7
     /tmp/cc21fReX.s:240    .text:0000000000000204 .L0 
     /tmp/cc21fReX.s:253    .text:0000000000000228 .L0 
     /tmp/cc21fReX.s:373    .rodata.str1.8:00000000000000a8 .LC8
     /tmp/cc21fReX.s:289    .text:0000000000000268 .L0 
     /tmp/cc21fReX.s:376    .rodata.str1.8:00000000000000c8 .LC9
     /tmp/cc21fReX.s:330    .text:00000000000002d4 .L0 
     /tmp/cc21fReX.s:113    .text:00000000000000f4 .L5
     /tmp/cc21fReX.s:121    .text:0000000000000108 .L6
     /tmp/cc21fReX.s:81     .text:00000000000000b4 .L2
     /tmp/cc21fReX.s:89     .text:00000000000000c8 .L3
     /tmp/cc21fReX.s:236    .text:0000000000000204 .L11
     /tmp/cc21fReX.s:257    .text:000000000000023c .L12
     /tmp/cc21fReX.s:203    .text:00000000000001c0 .L8
     /tmp/cc21fReX.s:211    .text:00000000000001d4 .L9
     /tmp/cc21fReX.s:1565   .debug_abbrev:0000000000000000 .Ldebug_abbrev0
     /tmp/cc21fReX.s:2485   .debug_str:0000000000000251 .LASF93
     /tmp/cc21fReX.s:2553   .debug_str:000000000000053d .LASF94
     /tmp/cc21fReX.s:2577   .debug_str:0000000000000614 .LASF95
     /tmp/cc21fReX.s:8      .text:0000000000000000 .Ltext0
     /tmp/cc21fReX.s:379    .text:00000000000002f8 .Letext0
     /tmp/cc21fReX.s:2397   .debug_line:0000000000000000 .Ldebug_line0
GAS LISTING /tmp/cc21fReX.s 			page 14


     /tmp/cc21fReX.s:2493   .debug_str:000000000000033e .LASF0
     /tmp/cc21fReX.s:2563   .debug_str:0000000000000598 .LASF1
     /tmp/cc21fReX.s:2441   .debug_str:000000000000010f .LASF3
     /tmp/cc21fReX.s:2481   .debug_str:000000000000023a .LASF2
     /tmp/cc21fReX.s:2437   .debug_str:00000000000000f9 .LASF4
     /tmp/cc21fReX.s:2539   .debug_str:00000000000004c4 .LASF5
     /tmp/cc21fReX.s:2411   .debug_str:000000000000004e .LASF6
     /tmp/cc21fReX.s:2513   .debug_str:00000000000003e5 .LASF7
     /tmp/cc21fReX.s:2419   .debug_str:000000000000007f .LASF8
     /tmp/cc21fReX.s:2573   .debug_str:00000000000005fe .LASF9
     /tmp/cc21fReX.s:2451   .debug_str:0000000000000163 .LASF10
     /tmp/cc21fReX.s:2521   .debug_str:0000000000000424 .LASF11
     /tmp/cc21fReX.s:2561   .debug_str:0000000000000589 .LASF12
     /tmp/cc21fReX.s:2473   .debug_str:00000000000001fc .LASF13
     /tmp/cc21fReX.s:2505   .debug_str:00000000000003b0 .LASF14
     /tmp/cc21fReX.s:2425   .debug_str:00000000000000a8 .LASF15
     /tmp/cc21fReX.s:2533   .debug_str:000000000000048e .LASF16
     /tmp/cc21fReX.s:2433   .debug_str:00000000000000d4 .LASF17
     /tmp/cc21fReX.s:2515   .debug_str:00000000000003f8 .LASF18
     /tmp/cc21fReX.s:2445   .debug_str:0000000000000130 .LASF19
     /tmp/cc21fReX.s:2479   .debug_str:0000000000000232 .LASF96
     /tmp/cc21fReX.s:2597   .debug_str:00000000000006f0 .LASF20
     /tmp/cc21fReX.s:2585   .debug_str:000000000000066c .LASF21
     /tmp/cc21fReX.s:2559   .debug_str:0000000000000583 .LASF22
     /tmp/cc21fReX.s:2467   .debug_str:00000000000001df .LASF36
     /tmp/cc21fReX.s:2567   .debug_str:00000000000005c9 .LASF23
     /tmp/cc21fReX.s:2531   .debug_str:0000000000000488 .LASF24
     /tmp/cc21fReX.s:2489   .debug_str:000000000000031f .LASF25
     /tmp/cc21fReX.s:2507   .debug_str:00000000000003c0 .LASF26
     /tmp/cc21fReX.s:2457   .debug_str:0000000000000190 .LASF27
     /tmp/cc21fReX.s:2581   .debug_str:0000000000000649 .LASF28
     /tmp/cc21fReX.s:2591   .debug_str:00000000000006b2 .LASF30
     /tmp/cc21fReX.s:2453   .debug_str:0000000000000171 .LASF29
     /tmp/cc21fReX.s:2403   .debug_str:0000000000000018 .LASF31
     /tmp/cc21fReX.s:2545   .debug_str:00000000000004f0 .LASF32
     /tmp/cc21fReX.s:2439   .debug_str:0000000000000100 .LASF34
     /tmp/cc21fReX.s:2549   .debug_str:0000000000000510 .LASF33
     /tmp/cc21fReX.s:2461   .debug_str:00000000000001a5 .LASF35
     /tmp/cc21fReX.s:2503   .debug_str:00000000000003a0 .LASF37
     /tmp/cc21fReX.s:2413   .debug_str:0000000000000055 .LASF39
     /tmp/cc21fReX.s:2487   .debug_str:0000000000000315 .LASF38
     /tmp/cc21fReX.s:2405   .debug_str:0000000000000026 .LASF40
     /tmp/cc21fReX.s:2429   .debug_str:00000000000000bc .LASF41
     /tmp/cc21fReX.s:2443   .debug_str:0000000000000115 .LASF42
     /tmp/cc21fReX.s:2401   .debug_str:000000000000000c .LASF43
     /tmp/cc21fReX.s:2527   .debug_str:0000000000000452 .LASF44
     /tmp/cc21fReX.s:2491   .debug_str:000000000000032d .LASF45
     /tmp/cc21fReX.s:2587   .debug_str:0000000000000671 .LASF46
     /tmp/cc21fReX.s:2575   .debug_str:000000000000060e .LASF47
     /tmp/cc21fReX.s:2449   .debug_str:0000000000000149 .LASF48
     /tmp/cc21fReX.s:2471   .debug_str:00000000000001f3 .LASF49
     /tmp/cc21fReX.s:2495   .debug_str:000000000000034b .LASF50
     /tmp/cc21fReX.s:2399   .debug_str:0000000000000000 .LASF51
     /tmp/cc21fReX.s:2475   .debug_str:000000000000020c .LASF52
     /tmp/cc21fReX.s:2427   .debug_str:00000000000000b4 .LASF53
     /tmp/cc21fReX.s:2463   .debug_str:00000000000001b4 .LASF54
     /tmp/cc21fReX.s:2535   .debug_str:00000000000004a4 .LASF55
GAS LISTING /tmp/cc21fReX.s 			page 15


     /tmp/cc21fReX.s:2525   .debug_str:000000000000043e .LASF56
     /tmp/cc21fReX.s:2435   .debug_str:00000000000000ea .LASF57
     /tmp/cc21fReX.s:2565   .debug_str:00000000000005ab .LASF58
     /tmp/cc21fReX.s:2523   .debug_str:0000000000000433 .LASF59
     /tmp/cc21fReX.s:2555   .debug_str:000000000000055f .LASF60
     /tmp/cc21fReX.s:2483   .debug_str:0000000000000248 .LASF61
     /tmp/cc21fReX.s:2501   .debug_str:000000000000038b .LASF62
     /tmp/cc21fReX.s:2423   .debug_str:000000000000009d .LASF97
     /tmp/cc21fReX.s:2431   .debug_str:00000000000000ca .LASF63
     /tmp/cc21fReX.s:2537   .debug_str:00000000000004ac .LASF64
     /tmp/cc21fReX.s:2557   .debug_str:0000000000000577 .LASF98
     /tmp/cc21fReX.s:2517   .debug_str:00000000000003fd .LASF99
     /tmp/cc21fReX.s:2407   .debug_str:0000000000000037 .LASF65
     /tmp/cc21fReX.s:2551   .debug_str:0000000000000523 .LASF66
     /tmp/cc21fReX.s:2541   .debug_str:00000000000004d6 .LASF81
     /tmp/cc21fReX.s:2583   .debug_str:0000000000000656 .LASF83
     /tmp/cc21fReX.s:2415   .debug_str:0000000000000066 .LASF67
     /tmp/cc21fReX.s:2465   .debug_str:00000000000001c8 .LASF68
     /tmp/cc21fReX.s:2579   .debug_str:0000000000000637 .LASF69
     /tmp/cc21fReX.s:2509   .debug_str:00000000000003ca .LASF70
     /tmp/cc21fReX.s:2571   .debug_str:00000000000005ec .LASF71
     /tmp/cc21fReX.s:2547   .debug_str:0000000000000500 .LASF72
     /tmp/cc21fReX.s:2459   .debug_str:0000000000000195 .LASF73
     /tmp/cc21fReX.s:2519   .debug_str:0000000000000416 .LASF74
     /tmp/cc21fReX.s:2455   .debug_str:0000000000000181 .LASF75
     /tmp/cc21fReX.s:2477   .debug_str:0000000000000225 .LASF76
     /tmp/cc21fReX.s:2417   .debug_str:000000000000006f .LASF77
     /tmp/cc21fReX.s:2469   .debug_str:00000000000001e5 .LASF78
     /tmp/cc21fReX.s:2595   .debug_str:00000000000006de .LASF79
     /tmp/cc21fReX.s:2543   .debug_str:00000000000004e0 .LASF80
     /tmp/cc21fReX.s:2421   .debug_str:0000000000000092 .LASF82
     /tmp/cc21fReX.s:2511   .debug_str:00000000000003d5 .LASF84
     /tmp/cc21fReX.s:274    .text:0000000000000254 .LFB115
     /tmp/cc21fReX.s:346    .text:00000000000002f8 .LFE115
     /tmp/cc21fReX.s:2264   .debug_loc:0000000000000000 .LLST7
     /tmp/cc21fReX.s:2277   .debug_loc:0000000000000038 .LLST8
     /tmp/cc21fReX.s:291    .text:0000000000000278 .LVL39
     /tmp/cc21fReX.s:298    .text:0000000000000288 .LVL40
     /tmp/cc21fReX.s:306    .text:000000000000029c .LVL42
     /tmp/cc21fReX.s:313    .text:00000000000002ac .LVL43
     /tmp/cc21fReX.s:320    .text:00000000000002c0 .LVL44
     /tmp/cc21fReX.s:327    .text:00000000000002d4 .LVL45
     /tmp/cc21fReX.s:332    .text:00000000000002e4 .LVL46
     /tmp/cc21fReX.s:2499   .debug_str:0000000000000375 .LASF85
     /tmp/cc21fReX.s:2593   .debug_str:00000000000006c0 .LASF87
     /tmp/cc21fReX.s:138    .text:0000000000000120 .LFB114
     /tmp/cc21fReX.s:268    .text:0000000000000254 .LFE114
     /tmp/cc21fReX.s:2284   .debug_loc:000000000000005b .LLST3
     /tmp/cc21fReX.s:2302   .debug_loc:00000000000000a7 .LLST4
     /tmp/cc21fReX.s:2316   .debug_loc:00000000000000e0 .LLST5
     /tmp/cc21fReX.s:2330   .debug_loc:0000000000000119 .LLST6
     /tmp/cc21fReX.s:164    .text:0000000000000158 .LVL21
     /tmp/cc21fReX.s:171    .text:000000000000016c .LVL22
     /tmp/cc21fReX.s:176    .text:000000000000017c .LVL23
     /tmp/cc21fReX.s:183    .text:0000000000000190 .LVL24
     /tmp/cc21fReX.s:188    .text:00000000000001a0 .LVL25
     /tmp/cc21fReX.s:192    .text:00000000000001a8 .LVL26
GAS LISTING /tmp/cc21fReX.s 			page 16


     /tmp/cc21fReX.s:197    .text:00000000000001b8 .LVL27
     /tmp/cc21fReX.s:208    .text:00000000000001d0 .LVL30
     /tmp/cc21fReX.s:216    .text:00000000000001e4 .LVL31
     /tmp/cc21fReX.s:243    .text:0000000000000214 .LVL34
     /tmp/cc21fReX.s:250    .text:0000000000000228 .LVL35
     /tmp/cc21fReX.s:255    .text:0000000000000238 .LVL36
     /tmp/cc21fReX.s:261    .text:0000000000000244 .LVL37
     /tmp/cc21fReX.s:265    .text:0000000000000250 .LVL38
     /tmp/cc21fReX.s:2529   .debug_str:0000000000000474 .LASF86
     /tmp/cc21fReX.s:2589   .debug_str:0000000000000698 .LASF88
     /tmp/cc21fReX.s:13     .text:0000000000000000 .LFB113
     /tmp/cc21fReX.s:132    .text:0000000000000120 .LFE113
     /tmp/cc21fReX.s:2341   .debug_loc:000000000000014f .LLST0
     /tmp/cc21fReX.s:2355   .debug_loc:0000000000000188 .LLST1
     /tmp/cc21fReX.s:2369   .debug_loc:00000000000001c1 .LLST2
     /tmp/cc21fReX.s:37     .text:0000000000000030 .LVL2
     /tmp/cc21fReX.s:44     .text:0000000000000044 .LVL3
     /tmp/cc21fReX.s:49     .text:0000000000000054 .LVL4
     /tmp/cc21fReX.s:53     .text:000000000000005c .LVL5
     /tmp/cc21fReX.s:57     .text:0000000000000068 .LVL6
     /tmp/cc21fReX.s:63     .text:000000000000007c .LVL8
     /tmp/cc21fReX.s:69     .text:0000000000000090 .LVL9
     /tmp/cc21fReX.s:73     .text:00000000000000a0 .LVL10
     /tmp/cc21fReX.s:78     .text:00000000000000b0 .LVL11
     /tmp/cc21fReX.s:86     .text:00000000000000c4 .LVL12
     /tmp/cc21fReX.s:94     .text:00000000000000d8 .LVL13
     /tmp/cc21fReX.s:119    .text:0000000000000104 .LVL16
     /tmp/cc21fReX.s:125    .text:0000000000000110 .LVL17
     /tmp/cc21fReX.s:129    .text:000000000000011c .LVL18
     /tmp/cc21fReX.s:2447   .debug_str:0000000000000135 .LASF89
     /tmp/cc21fReX.s:2497   .debug_str:0000000000000368 .LASF91
     /tmp/cc21fReX.s:2569   .debug_str:00000000000005dc .LASF90
     /tmp/cc21fReX.s:2409   .debug_str:0000000000000044 .LASF92
     /tmp/cc21fReX.s:300    .text:000000000000028c .LVL41
     /tmp/cc21fReX.s:341    .text:00000000000002f0 .LVL47
     /tmp/cc21fReX.s:141    .text:0000000000000120 .LVL19
     /tmp/cc21fReX.s:162    .text:0000000000000150 .LVL20
     /tmp/cc21fReX.s:199    .text:00000000000001bc .LVL28
     /tmp/cc21fReX.s:202    .text:00000000000001c0 .LVL29
     /tmp/cc21fReX.s:235    .text:0000000000000204 .LVL32
     /tmp/cc21fReX.s:241    .text:000000000000020c .LVL33
     /tmp/cc21fReX.s:17     .text:0000000000000000 .LVL0
     /tmp/cc21fReX.s:35     .text:0000000000000028 .LVL1
     /tmp/cc21fReX.s:59     .text:000000000000006c .LVL7
     /tmp/cc21fReX.s:106    .text:00000000000000e8 .LVL14
     /tmp/cc21fReX.s:112    .text:00000000000000f4 .LVL15
     /tmp/cc21fReX.s:385    .debug_info:0000000000000000 .Ldebug_info0

UNDEFINED SYMBOLS
_Z12kprintStringPKc
_Z9kprintIntmib
_ZN5Buddy11getInstanceEv
_ZN5Buddy9mem_allocEh
_ZN5Buddy12status_printEb
_ZN5Buddy8mem_freeEPvh
