GAS LISTING /tmp/ccZnaynb.s 			page 1


   1              		.file	"paging_test.cpp"
   2              		.option nopic
   3              		.option norelax
   4              		.attribute arch, "rv64i2p0_m2p0_a2p0"
   5              		.attribute unaligned_access, 0
   6              		.attribute stack_align, 16
   7              		.text
   8              	.Ltext0:
   9              		.align	2
  10              		.globl	_Z11paging_testv
  12              	_Z11paging_testv:
  13              	.LFB113:
  14              		.file 1 "src/kernel/testing/paging_test.cpp"
   1:src/kernel/testing/paging_test.cpp **** #include"../../../h/kernel_lib.h"
   2:src/kernel/testing/paging_test.cpp **** #include"../../../h/kernel_test.h"
   3:src/kernel/testing/paging_test.cpp **** 
   4:src/kernel/testing/paging_test.cpp **** 
   5:src/kernel/testing/paging_test.cpp **** void paging_test(){
  15              		.loc 1 5 19
  16              		.cfi_startproc
  17 0000 130101FE 		addi	sp,sp,-32
  18              		.cfi_def_cfa_offset 32
  19 0004 233C1100 		sd	ra,24(sp)
  20 0008 23388100 		sd	s0,16(sp)
  21 000c 23349100 		sd	s1,8(sp)
  22 0010 23302101 		sd	s2,0(sp)
  23              		.cfi_offset 1, -8
  24              		.cfi_offset 8, -16
  25              		.cfi_offset 9, -24
  26              		.cfi_offset 18, -32
  27 0014 13040102 		addi	s0,sp,32
  28              		.cfi_def_cfa 8, 0
   6:src/kernel/testing/paging_test.cpp ****     kprintString("--------PAGING TEST--------\n");
  29              		.loc 1 6 5
  30              		.loc 1 6 17 is_stmt 0
  31 0018 17050000 		lla	a0,.LC0
  31      13050500 
  32 0020 97000000 		call	_Z12kprintStringPKc
  32      E7800000 
  33              	.LVL0:
   7:src/kernel/testing/paging_test.cpp **** 
   8:src/kernel/testing/paging_test.cpp ****     kprintString("GETING PAGER iNSTANCE\n");
  34              		.loc 1 8 5 is_stmt 1
  35              		.loc 1 8 17 is_stmt 0
  36 0028 17050000 		lla	a0,.LC1
  36      13050500 
  37 0030 97000000 		call	_Z12kprintStringPKc
  37      E7800000 
  38              	.LVL1:
   9:src/kernel/testing/paging_test.cpp ****     Pager& pager = Pager::getInstance();
  39              		.loc 1 9 5 is_stmt 1
  40              		.loc 1 9 39 is_stmt 0
  41 0038 97000000 		call	_ZN5Pager11getInstanceEv
  41      E7800000 
  42              	.LVL2:
  43 0040 13090500 		mv	s2,a0
  44              	.LVL3:
GAS LISTING /tmp/ccZnaynb.s 			page 2


  10:src/kernel/testing/paging_test.cpp ****     kprintString("MAPPING KERNEL\n");
  45              		.loc 1 10 5 is_stmt 1
  46              		.loc 1 10 17 is_stmt 0
  47 0044 17050000 		lla	a0,.LC2
  47      13050500 
  48              	.LVL4:
  49 004c 97000000 		call	_Z12kprintStringPKc
  49      E7800000 
  50              	.LVL5:
  11:src/kernel/testing/paging_test.cpp ****     pager.map_kernel();
  51              		.loc 1 11 5 is_stmt 1
  52              		.loc 1 11 21 is_stmt 0
  53 0054 13050900 		mv	a0,s2
  54 0058 97000000 		call	_ZN5Pager10map_kernelEv
  54      E7800000 
  55              	.LVL6:
  12:src/kernel/testing/paging_test.cpp ****     kprintString("PAGING BEGIN\n");
  56              		.loc 1 12 5 is_stmt 1
  57              		.loc 1 12 17 is_stmt 0
  58 0060 17050000 		lla	a0,.LC3
  58      13050500 
  59 0068 97000000 		call	_Z12kprintStringPKc
  59      E7800000 
  60              	.LVL7:
  13:src/kernel/testing/paging_test.cpp ****     //Riscv::mc_sie(Riscv::BitMaskSip::SIP_STIE);
  14:src/kernel/testing/paging_test.cpp ****     //Riscv::ms_sstatus(Riscv::BitMaskSstatus::SSTATUS_SIE);
  15:src/kernel/testing/paging_test.cpp ****     Riscv::ms_sstatus(Riscv::BitMaskSstatus::SSTATUS_SUM);
  61              		.loc 1 15 5 is_stmt 1
  62              	.LBB5:
  63              	.LBB6:
  64              		.file 2 "src/kernel/testing/../../../h/../h/riscv.hpp"
   1:src/kernel/testing/../../../h/../h/riscv.hpp **** #ifndef __riscv__
   2:src/kernel/testing/../../../h/../h/riscv.hpp **** #define __riscv__
   3:src/kernel/testing/../../../h/../h/riscv.hpp **** 
   4:src/kernel/testing/../../../h/../h/riscv.hpp **** #include"../lib/hw.h"
   5:src/kernel/testing/../../../h/../h/riscv.hpp **** 
   6:src/kernel/testing/../../../h/../h/riscv.hpp **** class Riscv{
   7:src/kernel/testing/../../../h/../h/riscv.hpp **** public:
   8:src/kernel/testing/../../../h/../h/riscv.hpp **** /* 
   9:src/kernel/testing/../../../h/../h/riscv.hpp **** --------------------SUPERVISOR REGISTERS--------------------    
  10:src/kernel/testing/../../../h/../h/riscv.hpp **** */
  11:src/kernel/testing/../../../h/../h/riscv.hpp ****     static void w_scause(uint64);
  12:src/kernel/testing/../../../h/../h/riscv.hpp ****     static uint64 r_scause(); 
  13:src/kernel/testing/../../../h/../h/riscv.hpp **** 
  14:src/kernel/testing/../../../h/../h/riscv.hpp ****     static void w_sepc(uint64);
  15:src/kernel/testing/../../../h/../h/riscv.hpp ****     static uint64 r_sepc();
  16:src/kernel/testing/../../../h/../h/riscv.hpp ****     static void ni_sepc();
  17:src/kernel/testing/../../../h/../h/riscv.hpp **** 
  18:src/kernel/testing/../../../h/../h/riscv.hpp ****     static void w_stvec(uint64);
  19:src/kernel/testing/../../../h/../h/riscv.hpp ****     static uint64 r_stvec();
  20:src/kernel/testing/../../../h/../h/riscv.hpp ****      
  21:src/kernel/testing/../../../h/../h/riscv.hpp ****     static void w_stval(uint64);
  22:src/kernel/testing/../../../h/../h/riscv.hpp ****     static uint64 r_stval();
  23:src/kernel/testing/../../../h/../h/riscv.hpp **** 
  24:src/kernel/testing/../../../h/../h/riscv.hpp ****     static void w_satp(uint64);
  25:src/kernel/testing/../../../h/../h/riscv.hpp ****     static uint64 r_satp();
  26:src/kernel/testing/../../../h/../h/riscv.hpp ****     
GAS LISTING /tmp/ccZnaynb.s 			page 3


  27:src/kernel/testing/../../../h/../h/riscv.hpp ****     enum BitMaskSip{
  28:src/kernel/testing/../../../h/../h/riscv.hpp ****         SIP_SSIE = (1<<1),
  29:src/kernel/testing/../../../h/../h/riscv.hpp ****         SIP_STIE = (1<<5),
  30:src/kernel/testing/../../../h/../h/riscv.hpp ****         SIP_SEIE = (1<<9),
  31:src/kernel/testing/../../../h/../h/riscv.hpp ****     };
  32:src/kernel/testing/../../../h/../h/riscv.hpp **** 
  33:src/kernel/testing/../../../h/../h/riscv.hpp ****     static void ms_sip(uint64);
  34:src/kernel/testing/../../../h/../h/riscv.hpp ****     static void mc_sip(uint64);
  35:src/kernel/testing/../../../h/../h/riscv.hpp **** 
  36:src/kernel/testing/../../../h/../h/riscv.hpp ****     static void w_sip(uint64);
  37:src/kernel/testing/../../../h/../h/riscv.hpp ****     static uint64 r_sip();
  38:src/kernel/testing/../../../h/../h/riscv.hpp **** 
  39:src/kernel/testing/../../../h/../h/riscv.hpp ****     static void ms_sie(uint64);
  40:src/kernel/testing/../../../h/../h/riscv.hpp ****     static void mc_sie(uint64);
  41:src/kernel/testing/../../../h/../h/riscv.hpp **** 
  42:src/kernel/testing/../../../h/../h/riscv.hpp ****     static void w_sie(uint64);
  43:src/kernel/testing/../../../h/../h/riscv.hpp ****     static uint64 r_sie();
  44:src/kernel/testing/../../../h/../h/riscv.hpp **** 
  45:src/kernel/testing/../../../h/../h/riscv.hpp ****     enum BitMaskSstatus{
  46:src/kernel/testing/../../../h/../h/riscv.hpp ****         SSTATUS_SIE = (1<<1),
  47:src/kernel/testing/../../../h/../h/riscv.hpp ****         SSTATUS_SPIE = (1<<5),
  48:src/kernel/testing/../../../h/../h/riscv.hpp ****         SSTATUS_SPP = (1<<8),
  49:src/kernel/testing/../../../h/../h/riscv.hpp ****         SSTATUS_SUM = (1<<18),
  50:src/kernel/testing/../../../h/../h/riscv.hpp ****     };
  51:src/kernel/testing/../../../h/../h/riscv.hpp **** 
  52:src/kernel/testing/../../../h/../h/riscv.hpp ****     static void ms_sstatus(uint64);
  53:src/kernel/testing/../../../h/../h/riscv.hpp ****     static void mc_sstatus(uint64);
  54:src/kernel/testing/../../../h/../h/riscv.hpp **** 
  55:src/kernel/testing/../../../h/../h/riscv.hpp ****     static void w_sstatus(uint64);
  56:src/kernel/testing/../../../h/../h/riscv.hpp ****     static uint64 r_sstatus();
  57:src/kernel/testing/../../../h/../h/riscv.hpp **** 
  58:src/kernel/testing/../../../h/../h/riscv.hpp **** /* 
  59:src/kernel/testing/../../../h/../h/riscv.hpp **** --------------------CLASSIC REGISTERS--------------------    
  60:src/kernel/testing/../../../h/../h/riscv.hpp **** */
  61:src/kernel/testing/../../../h/../h/riscv.hpp ****     static uint64 r_sp();
  62:src/kernel/testing/../../../h/../h/riscv.hpp ****     static uint64 r_a0(); /* parameter registers */
  63:src/kernel/testing/../../../h/../h/riscv.hpp ****     static uint64 s_a0(uint64 a0);
  64:src/kernel/testing/../../../h/../h/riscv.hpp ****     static uint64 r_a1();
  65:src/kernel/testing/../../../h/../h/riscv.hpp ****     static uint64 r_a2();
  66:src/kernel/testing/../../../h/../h/riscv.hpp ****     static uint64 r_a3();
  67:src/kernel/testing/../../../h/../h/riscv.hpp ****     static uint64 r_a4();
  68:src/kernel/testing/../../../h/../h/riscv.hpp **** 
  69:src/kernel/testing/../../../h/../h/riscv.hpp ****     static void popRegisters(); /* pop all context registers */
  70:src/kernel/testing/../../../h/../h/riscv.hpp ****     static void pushRegisters(); /* push all context registers */
  71:src/kernel/testing/../../../h/../h/riscv.hpp ****  
  72:src/kernel/testing/../../../h/../h/riscv.hpp ****     static void popSppSpie(); /* jump from kernel to start of thread */
  73:src/kernel/testing/../../../h/../h/riscv.hpp **** 
  74:src/kernel/testing/../../../h/../h/riscv.hpp **** /* 
  75:src/kernel/testing/../../../h/../h/riscv.hpp **** --------------------CONSOLE REGISTERS--------------------    
  76:src/kernel/testing/../../../h/../h/riscv.hpp **** */
  77:src/kernel/testing/../../../h/../h/riscv.hpp ****     static void mc_cstatus(uint64 mask); 
  78:src/kernel/testing/../../../h/../h/riscv.hpp ****     static bool cstatus_ready(uint64 mask);
  79:src/kernel/testing/../../../h/../h/riscv.hpp **** };
  80:src/kernel/testing/../../../h/../h/riscv.hpp **** 
  81:src/kernel/testing/../../../h/../h/riscv.hpp **** /* 
  82:src/kernel/testing/../../../h/../h/riscv.hpp **** --------------------CLASSIC REGISTERS--------------------    
  83:src/kernel/testing/../../../h/../h/riscv.hpp **** */
GAS LISTING /tmp/ccZnaynb.s 			page 4


  84:src/kernel/testing/../../../h/../h/riscv.hpp **** 
  85:src/kernel/testing/../../../h/../h/riscv.hpp **** inline uint64 Riscv::r_sp(){
  86:src/kernel/testing/../../../h/../h/riscv.hpp ****     uint64 a0;
  87:src/kernel/testing/../../../h/../h/riscv.hpp ****     asm volatile("mv %0, sp" : "=r" (a0));
  88:src/kernel/testing/../../../h/../h/riscv.hpp ****     return a0;
  89:src/kernel/testing/../../../h/../h/riscv.hpp **** }
  90:src/kernel/testing/../../../h/../h/riscv.hpp **** 
  91:src/kernel/testing/../../../h/../h/riscv.hpp **** inline uint64 Riscv::r_a0(){
  92:src/kernel/testing/../../../h/../h/riscv.hpp ****     uint64 a0;
  93:src/kernel/testing/../../../h/../h/riscv.hpp ****     asm volatile("mv %0, a0" : "=r" (a0));
  94:src/kernel/testing/../../../h/../h/riscv.hpp ****     return a0;
  95:src/kernel/testing/../../../h/../h/riscv.hpp **** }
  96:src/kernel/testing/../../../h/../h/riscv.hpp **** 
  97:src/kernel/testing/../../../h/../h/riscv.hpp **** inline uint64 Riscv::r_a1(){
  98:src/kernel/testing/../../../h/../h/riscv.hpp ****     uint64 a0;
  99:src/kernel/testing/../../../h/../h/riscv.hpp ****     asm volatile("mv %0, a1" : "=r" (a0));
 100:src/kernel/testing/../../../h/../h/riscv.hpp ****     return a0;
 101:src/kernel/testing/../../../h/../h/riscv.hpp **** }
 102:src/kernel/testing/../../../h/../h/riscv.hpp **** 
 103:src/kernel/testing/../../../h/../h/riscv.hpp **** inline uint64 Riscv::r_a2(){
 104:src/kernel/testing/../../../h/../h/riscv.hpp ****     uint64 a0;
 105:src/kernel/testing/../../../h/../h/riscv.hpp ****     asm volatile("mv %0, a2" : "=r" (a0));
 106:src/kernel/testing/../../../h/../h/riscv.hpp ****     return a0;
 107:src/kernel/testing/../../../h/../h/riscv.hpp **** }
 108:src/kernel/testing/../../../h/../h/riscv.hpp **** 
 109:src/kernel/testing/../../../h/../h/riscv.hpp **** inline uint64 Riscv::r_a3(){
 110:src/kernel/testing/../../../h/../h/riscv.hpp ****     uint64 a0;
 111:src/kernel/testing/../../../h/../h/riscv.hpp ****     asm volatile("mv %0, a3" : "=r" (a0));
 112:src/kernel/testing/../../../h/../h/riscv.hpp ****     return a0;
 113:src/kernel/testing/../../../h/../h/riscv.hpp **** }
 114:src/kernel/testing/../../../h/../h/riscv.hpp **** 
 115:src/kernel/testing/../../../h/../h/riscv.hpp **** inline uint64 Riscv::r_a4(){
 116:src/kernel/testing/../../../h/../h/riscv.hpp ****     uint64 a0;
 117:src/kernel/testing/../../../h/../h/riscv.hpp ****     asm volatile("mv %0, a4" : "=r" (a0));
 118:src/kernel/testing/../../../h/../h/riscv.hpp ****     return a0;
 119:src/kernel/testing/../../../h/../h/riscv.hpp **** }
 120:src/kernel/testing/../../../h/../h/riscv.hpp **** 
 121:src/kernel/testing/../../../h/../h/riscv.hpp **** 
 122:src/kernel/testing/../../../h/../h/riscv.hpp **** inline uint64 Riscv::s_a0(uint64 a0){
 123:src/kernel/testing/../../../h/../h/riscv.hpp ****     return a0;
 124:src/kernel/testing/../../../h/../h/riscv.hpp **** }
 125:src/kernel/testing/../../../h/../h/riscv.hpp **** 
 126:src/kernel/testing/../../../h/../h/riscv.hpp **** /* 
 127:src/kernel/testing/../../../h/../h/riscv.hpp **** --------------------SUPERVISOR REGISTERS--------------------    
 128:src/kernel/testing/../../../h/../h/riscv.hpp **** */
 129:src/kernel/testing/../../../h/../h/riscv.hpp **** 
 130:src/kernel/testing/../../../h/../h/riscv.hpp **** inline void Riscv::w_scause(uint64 scause){
 131:src/kernel/testing/../../../h/../h/riscv.hpp ****     asm volatile("csrw scause, %0" : : "r" (scause));
 132:src/kernel/testing/../../../h/../h/riscv.hpp **** }
 133:src/kernel/testing/../../../h/../h/riscv.hpp **** 
 134:src/kernel/testing/../../../h/../h/riscv.hpp **** inline uint64 Riscv::r_scause(){
 135:src/kernel/testing/../../../h/../h/riscv.hpp ****     uint64 volatile scause;
 136:src/kernel/testing/../../../h/../h/riscv.hpp ****     asm volatile("csrr %0, scause" : "=r" (scause));
 137:src/kernel/testing/../../../h/../h/riscv.hpp ****     return scause;
 138:src/kernel/testing/../../../h/../h/riscv.hpp **** } 
 139:src/kernel/testing/../../../h/../h/riscv.hpp **** 
 140:src/kernel/testing/../../../h/../h/riscv.hpp **** inline void Riscv::w_sepc(uint64 sepc){
GAS LISTING /tmp/ccZnaynb.s 			page 5


 141:src/kernel/testing/../../../h/../h/riscv.hpp ****     asm volatile("csrw sepc, %0" : : "r" (sepc));
 142:src/kernel/testing/../../../h/../h/riscv.hpp **** }
 143:src/kernel/testing/../../../h/../h/riscv.hpp **** 
 144:src/kernel/testing/../../../h/../h/riscv.hpp **** inline uint64 Riscv::r_sepc(){
 145:src/kernel/testing/../../../h/../h/riscv.hpp ****     uint64 volatile sepc;
 146:src/kernel/testing/../../../h/../h/riscv.hpp ****     asm volatile("csrr %0, sepc" : "=r" (sepc));
 147:src/kernel/testing/../../../h/../h/riscv.hpp ****     return sepc;
 148:src/kernel/testing/../../../h/../h/riscv.hpp **** } 
 149:src/kernel/testing/../../../h/../h/riscv.hpp **** 
 150:src/kernel/testing/../../../h/../h/riscv.hpp **** inline void Riscv::w_stvec(uint64 stvec){
 151:src/kernel/testing/../../../h/../h/riscv.hpp ****     asm volatile("csrw stvec, %0" : : "r" (stvec));
 152:src/kernel/testing/../../../h/../h/riscv.hpp **** }
 153:src/kernel/testing/../../../h/../h/riscv.hpp **** 
 154:src/kernel/testing/../../../h/../h/riscv.hpp **** inline uint64 Riscv::r_stvec(){
 155:src/kernel/testing/../../../h/../h/riscv.hpp ****     uint64 volatile stvec;
 156:src/kernel/testing/../../../h/../h/riscv.hpp ****     asm volatile("csrr %0, stvec" : "=r" (stvec));
 157:src/kernel/testing/../../../h/../h/riscv.hpp ****     return stvec;
 158:src/kernel/testing/../../../h/../h/riscv.hpp **** } 
 159:src/kernel/testing/../../../h/../h/riscv.hpp **** 
 160:src/kernel/testing/../../../h/../h/riscv.hpp **** inline void Riscv::w_stval(uint64 stval){
 161:src/kernel/testing/../../../h/../h/riscv.hpp ****     asm volatile("csrw stval, %0" : : "r" (stval));
 162:src/kernel/testing/../../../h/../h/riscv.hpp **** }
 163:src/kernel/testing/../../../h/../h/riscv.hpp **** 
 164:src/kernel/testing/../../../h/../h/riscv.hpp **** inline uint64 Riscv::r_stval(){
 165:src/kernel/testing/../../../h/../h/riscv.hpp ****     uint64 volatile stval;
 166:src/kernel/testing/../../../h/../h/riscv.hpp ****     asm volatile("csrr %0, stval" : "=r" (stval));
 167:src/kernel/testing/../../../h/../h/riscv.hpp ****     return stval;
 168:src/kernel/testing/../../../h/../h/riscv.hpp **** } 
 169:src/kernel/testing/../../../h/../h/riscv.hpp **** 
 170:src/kernel/testing/../../../h/../h/riscv.hpp **** inline void Riscv::ms_sip(uint64 mask){
 171:src/kernel/testing/../../../h/../h/riscv.hpp ****     asm volatile ("csrs sip, %0" : : "r" (mask));
 172:src/kernel/testing/../../../h/../h/riscv.hpp **** }
 173:src/kernel/testing/../../../h/../h/riscv.hpp **** 
 174:src/kernel/testing/../../../h/../h/riscv.hpp **** inline void Riscv::mc_sip(uint64 mask){
 175:src/kernel/testing/../../../h/../h/riscv.hpp ****     asm volatile ("csrc sip, %0" : : "r" (mask));
 176:src/kernel/testing/../../../h/../h/riscv.hpp **** }
 177:src/kernel/testing/../../../h/../h/riscv.hpp **** 
 178:src/kernel/testing/../../../h/../h/riscv.hpp **** inline void Riscv::w_sip(uint64 sip){
 179:src/kernel/testing/../../../h/../h/riscv.hpp ****     asm volatile("csrw sip, %0" : : "r" (sip));
 180:src/kernel/testing/../../../h/../h/riscv.hpp **** }
 181:src/kernel/testing/../../../h/../h/riscv.hpp **** 
 182:src/kernel/testing/../../../h/../h/riscv.hpp **** inline uint64 Riscv::r_sip(){
 183:src/kernel/testing/../../../h/../h/riscv.hpp ****     uint64 volatile sip;
 184:src/kernel/testing/../../../h/../h/riscv.hpp ****     asm volatile("csrr %0, sip" : "=r" (sip));
 185:src/kernel/testing/../../../h/../h/riscv.hpp ****     return sip;
 186:src/kernel/testing/../../../h/../h/riscv.hpp **** } 
 187:src/kernel/testing/../../../h/../h/riscv.hpp **** 
 188:src/kernel/testing/../../../h/../h/riscv.hpp **** inline void Riscv::ms_sie(uint64 mask){
 189:src/kernel/testing/../../../h/../h/riscv.hpp ****     asm volatile ("csrs sie, %0" : : "r" (mask));
 190:src/kernel/testing/../../../h/../h/riscv.hpp **** }
 191:src/kernel/testing/../../../h/../h/riscv.hpp **** 
 192:src/kernel/testing/../../../h/../h/riscv.hpp **** inline void Riscv::mc_sie(uint64 mask){
 193:src/kernel/testing/../../../h/../h/riscv.hpp ****     asm volatile ("csrc sie, %0" : : "r" (mask));
 194:src/kernel/testing/../../../h/../h/riscv.hpp **** }
 195:src/kernel/testing/../../../h/../h/riscv.hpp **** 
 196:src/kernel/testing/../../../h/../h/riscv.hpp **** inline void Riscv::w_sie(uint64 sie){
 197:src/kernel/testing/../../../h/../h/riscv.hpp ****     asm volatile("csrw sie, %0" : : "r" (sie));
GAS LISTING /tmp/ccZnaynb.s 			page 6


 198:src/kernel/testing/../../../h/../h/riscv.hpp **** }
 199:src/kernel/testing/../../../h/../h/riscv.hpp **** 
 200:src/kernel/testing/../../../h/../h/riscv.hpp **** inline uint64 Riscv::r_sie(){
 201:src/kernel/testing/../../../h/../h/riscv.hpp ****     uint64 volatile sie;
 202:src/kernel/testing/../../../h/../h/riscv.hpp ****     asm volatile("csrr %0, sie" : "=r" (sie));
 203:src/kernel/testing/../../../h/../h/riscv.hpp ****     return sie;
 204:src/kernel/testing/../../../h/../h/riscv.hpp **** } 
 205:src/kernel/testing/../../../h/../h/riscv.hpp **** 
 206:src/kernel/testing/../../../h/../h/riscv.hpp **** inline void Riscv::ms_sstatus(uint64 mask){
 207:src/kernel/testing/../../../h/../h/riscv.hpp ****     asm volatile ("csrs sstatus, %0" : : "r" (mask));
  65              		.loc 2 207 5
  66              		.loc 2 207 53 is_stmt 0
  67 0070 B7070400 		li	a5,262144
  68              	 #APP
  69              	# 207 "src/kernel/testing/../../../h/../h/riscv.hpp" 1
 208              	}
  70              		csrs sstatus, a5
  71              	# 0 "" 2
  72              	.LVL8:
  73              	 #NO_APP
  74              	.LBE6:
  75              	.LBE5:
  16:src/kernel/testing/paging_test.cpp ****     kprintString("Moze li\n");
  76              		.loc 1 16 5 is_stmt 1
  77              		.loc 1 16 17 is_stmt 0
  78 0078 17050000 		lla	a0,.LC4
  78      13050500 
  79 0080 97000000 		call	_Z12kprintStringPKc
  79      E7800000 
  80              	.LVL9:
  17:src/kernel/testing/paging_test.cpp ****     pager.start_paging();
  81              		.loc 1 17 5 is_stmt 1
  82              		.loc 1 17 23 is_stmt 0
  83 0088 13050900 		mv	a0,s2
  84 008c 97000000 		call	_ZN5Pager12start_pagingEv
  84      E7800000 
  85              	.LVL10:
  18:src/kernel/testing/paging_test.cpp ****    
  19:src/kernel/testing/paging_test.cpp ****     for(int i = 0; i < 5; i++){
  86              		.loc 1 19 5 is_stmt 1
  87              	.LBB7:
  88              		.loc 1 19 13 is_stmt 0
  89 0094 93040000 		li	s1,0
  90              	.LVL11:
  91              	.L3:
  92              		.loc 1 19 22 discriminator 3
  93 0098 93074000 		li	a5,4
  94 009c 63C09704 		bgt	s1,a5,.L2
  20:src/kernel/testing/paging_test.cpp ****         KCHECKPRINT(i);
  95              		.loc 1 20 9 is_stmt 1 discriminator 2
  96 00a0 17050000 		lla	a0,.LC5
  96      13050500 
  97 00a8 97000000 		call	_Z12kprintStringPKc
  97      E7800000 
  98              	.LVL12:
  99              		.loc 1 20 9 discriminator 2
 100 00b0 13060000 		li	a2,0
GAS LISTING /tmp/ccZnaynb.s 			page 7


 101 00b4 93050001 		li	a1,16
 102 00b8 13850400 		mv	a0,s1
 103 00bc 97000000 		call	_Z9kprintIntmib
 103      E7800000 
 104              	.LVL13:
 105              		.loc 1 20 9 discriminator 2
 106 00c4 17050000 		lla	a0,.LC6
 106      13050500 
 107 00cc 97000000 		call	_Z12kprintStringPKc
 107      E7800000 
 108              	.LVL14:
  19:src/kernel/testing/paging_test.cpp ****         KCHECKPRINT(i);
 109              		.loc 1 19 5 is_stmt 0 discriminator 2
 110 00d4 9B841400 		addiw	s1,s1,1
 111              	.LVL15:
 112 00d8 6FF01FFC 		j	.L3
 113              	.LVL16:
 114              	.L2:
 115              	.LBE7:
  21:src/kernel/testing/paging_test.cpp ****     }
  22:src/kernel/testing/paging_test.cpp ****     uint64* ptr = (uint64*) HEAP_END_ADDR - 40;
 116              		.loc 1 22 5 is_stmt 1
 117              		.loc 1 22 19 is_stmt 0
 118 00dc 97070000 		lla	a5,HEAP_END_ADDR
 118      93870700 
 119 00e4 83B40700 		ld	s1,0(a5)
 120              	.LVL17:
 121              		.loc 1 22 13
 122 00e8 938504EC 		addi	a1,s1,-320
 123              	.LVL18:
  23:src/kernel/testing/paging_test.cpp ****     pager.map(ptr, (void*)((uint64)ptr & ~0xFFF), 
 124              		.loc 1 23 5 is_stmt 1
 125              		.loc 1 23 14 is_stmt 0
 126 00ec 93066001 		li	a3,22
 127 00f0 37F6FFFF 		li	a2,-4096
 128 00f4 33F6C500 		and	a2,a1,a2
 129 00f8 13050900 		mv	a0,s2
 130 00fc 97000000 		call	_ZN5Pager3mapEPvS0_12PMTEntryBits
 130      E7800000 
 131              	.LVL19:
  24:src/kernel/testing/paging_test.cpp ****         (PMTEntryBits) (PMTEntryBits::user | PMTEntryBits::write | PMTEntryBits::read)); 
  25:src/kernel/testing/paging_test.cpp ****     pager.print();
 132              		.loc 1 25 5 is_stmt 1
 133              		.loc 1 25 16 is_stmt 0
 134 0104 13050900 		mv	a0,s2
 135 0108 97000000 		call	_ZN5Pager5printEv
 135      E7800000 
 136              	.LVL20:
  26:src/kernel/testing/paging_test.cpp ****     //KCHECKPRINT(CONSOLE_RX_DATA);
  27:src/kernel/testing/paging_test.cpp ****     //pager.print();
  28:src/kernel/testing/paging_test.cpp ****     
  29:src/kernel/testing/paging_test.cpp ****     *ptr = 13;
 137              		.loc 1 29 5 is_stmt 1
 138              		.loc 1 29 10 is_stmt 0
 139 0110 9307D000 		li	a5,13
 140 0114 23B0F4EC 		sd	a5,-320(s1)
  30:src/kernel/testing/paging_test.cpp ****     //KCHECKPRINT(*ptr);
GAS LISTING /tmp/ccZnaynb.s 			page 8


  31:src/kernel/testing/paging_test.cpp ****     //KCHECKPRINT(ptr);
  32:src/kernel/testing/paging_test.cpp ****     
  33:src/kernel/testing/paging_test.cpp ****     kprintString("------PAGING TEST END------\n");
 141              		.loc 1 33 5 is_stmt 1
 142              		.loc 1 33 17 is_stmt 0
 143 0118 17050000 		lla	a0,.LC7
 143      13050500 
 144 0120 97000000 		call	_Z12kprintStringPKc
 144      E7800000 
 145              	.LVL21:
  34:src/kernel/testing/paging_test.cpp **** }
 146              		.loc 1 34 1
 147 0128 83308101 		ld	ra,24(sp)
 148              		.cfi_restore 1
 149 012c 03340101 		ld	s0,16(sp)
 150              		.cfi_restore 8
 151              		.cfi_def_cfa 2, 32
 152 0130 83348100 		ld	s1,8(sp)
 153              		.cfi_restore 9
 154              	.LVL22:
 155 0134 03390100 		ld	s2,0(sp)
 156              		.cfi_restore 18
 157              	.LVL23:
 158 0138 13010102 		addi	sp,sp,32
 159              		.cfi_def_cfa_offset 0
 160 013c 67800000 		jr	ra
 161              		.cfi_endproc
 162              	.LFE113:
 164              		.section	.rodata.str1.8,"aMS",@progbits,1
 165              		.align	3
 166              	.LC0:
 167 0000 2D2D2D2D 		.string	"--------PAGING TEST--------\n"
 167      2D2D2D2D 
 167      50414749 
 167      4E472054 
 167      4553542D 
 168 001d 000000   		.zero	3
 169              	.LC1:
 170 0020 47455449 		.string	"GETING PAGER iNSTANCE\n"
 170      4E472050 
 170      41474552 
 170      20694E53 
 170      54414E43 
 171 0037 00       		.zero	1
 172              	.LC2:
 173 0038 4D415050 		.string	"MAPPING KERNEL\n"
 173      494E4720 
 173      4B45524E 
 173      454C0A00 
 174              	.LC3:
 175 0048 50414749 		.string	"PAGING BEGIN\n"
 175      4E472042 
 175      4547494E 
 175      0A00
 176 0056 0000     		.zero	2
 177              	.LC4:
 178 0058 4D6F7A65 		.string	"Moze li\n"
GAS LISTING /tmp/ccZnaynb.s 			page 9


 178      206C690A 
 178      00
 179 0061 00000000 		.zero	7
 179      000000
 180              	.LC5:
 181 0068 693A2000 		.string	"i: "
 182 006c 00000000 		.zero	4
 183              	.LC6:
 184 0070 0A00     		.string	"\n"
 185 0072 00000000 		.zero	6
 185      0000
 186              	.LC7:
 187 0078 2D2D2D2D 		.string	"------PAGING TEST END------\n"
 187      2D2D5041 
 187      47494E47 
 187      20544553 
 187      5420454E 
 188              		.text
 189              	.Letext0:
 190              		.file 3 "src/kernel/testing/../../../h/../h/../lib/hw.h"
 191              		.file 4 "src/kernel/testing/../../../h/../h/pmt.h"
 192              		.file 5 "src/kernel/testing/../../../h/../h/pager.h"
 193              		.file 6 "src/kernel/testing/../../../h/../h/slab.h"
 194              		.file 7 "src/kernel/testing/../../../h/kernel_lib.h"
 195              		.file 8 "src/kernel/testing/../../../h/../h/kernel_funs.h"
GAS LISTING /tmp/ccZnaynb.s 			page 10

