GAS LISTING /tmp/ccZnaynb.s 			page 1


   1              		.file	"paging_test.cpp"
   2              		.option nopic
   3              		.option norelax
   4              		.attribute arch, "rv64i2p0_m2p0_a2p0"
   5              		.attribute unaligned_access, 0
   6              		.attribute stack_align, 16
   7              		.text
   8              	.Ltext0:
   9              		.align	2
  10              		.globl	_Z11paging_testv
  12              	_Z11paging_testv:
  13              	.LFB113:
  14              		.file 1 "src/kernel/testing/paging_test.cpp"
   1:src/kernel/testing/paging_test.cpp **** #include"../../../h/kernel_lib.h"
   2:src/kernel/testing/paging_test.cpp **** #include"../../../h/kernel_test.h"
   3:src/kernel/testing/paging_test.cpp **** 
   4:src/kernel/testing/paging_test.cpp **** 
   5:src/kernel/testing/paging_test.cpp **** void paging_test(){
  15              		.loc 1 5 19
  16              		.cfi_startproc
  17 0000 130101FE 		addi	sp,sp,-32
  18              		.cfi_def_cfa_offset 32
  19 0004 233C1100 		sd	ra,24(sp)
  20 0008 23388100 		sd	s0,16(sp)
  21 000c 23349100 		sd	s1,8(sp)
  22 0010 23302101 		sd	s2,0(sp)
  23              		.cfi_offset 1, -8
  24              		.cfi_offset 8, -16
  25              		.cfi_offset 9, -24
  26              		.cfi_offset 18, -32
  27 0014 13040102 		addi	s0,sp,32
  28              		.cfi_def_cfa 8, 0
   6:src/kernel/testing/paging_test.cpp ****     kprintString("--------PAGING TEST--------\n");
  29              		.loc 1 6 5
  30              		.loc 1 6 17 is_stmt 0
  31 0018 17050000 		lla	a0,.LC0
  31      13050500 
  32 0020 97000000 		call	_Z12kprintStringPKc
  32      E7800000 
  33              	.LVL0:
   7:src/kernel/testing/paging_test.cpp **** 
   8:src/kernel/testing/paging_test.cpp ****     kprintString("GETING PAGER iNSTANCE\n");
  34              		.loc 1 8 5 is_stmt 1
  35              		.loc 1 8 17 is_stmt 0
  36 0028 17050000 		lla	a0,.LC1
  36      13050500 
  37 0030 97000000 		call	_Z12kprintStringPKc
  37      E7800000 
  38              	.LVL1:
   9:src/kernel/testing/paging_test.cpp ****     Pager& pager = Pager::getInstance();
  39              		.loc 1 9 5 is_stmt 1
  40              		.loc 1 9 39 is_stmt 0
  41 0038 97000000 		call	_ZN5Pager11getInstanceEv
  41      E7800000 
  42              	.LVL2:
  43 0040 13090500 		mv	s2,a0
  44              	.LVL3:
GAS LISTING /tmp/ccZnaynb.s 			page 2


  10:src/kernel/testing/paging_test.cpp ****     kprintString("MAPPING KERNEL\n");
  45              		.loc 1 10 5 is_stmt 1
  46              		.loc 1 10 17 is_stmt 0
  47 0044 17050000 		lla	a0,.LC2
  47      13050500 
  48              	.LVL4:
  49 004c 97000000 		call	_Z12kprintStringPKc
  49      E7800000 
  50              	.LVL5:
  11:src/kernel/testing/paging_test.cpp ****     pager.map_kernel();
  51              		.loc 1 11 5 is_stmt 1
  52              		.loc 1 11 21 is_stmt 0
  53 0054 13050900 		mv	a0,s2
  54 0058 97000000 		call	_ZN5Pager10map_kernelEv
  54      E7800000 
  55              	.LVL6:
  12:src/kernel/testing/paging_test.cpp ****     kprintString("PAGING BEGIN\n");
  56              		.loc 1 12 5 is_stmt 1
  57              		.loc 1 12 17 is_stmt 0
  58 0060 17050000 		lla	a0,.LC3
  58      13050500 
  59 0068 97000000 		call	_Z12kprintStringPKc
  59      E7800000 
  60              	.LVL7:
  13:src/kernel/testing/paging_test.cpp ****     //Riscv::mc_sie(Riscv::BitMaskSip::SIP_STIE);
  14:src/kernel/testing/paging_test.cpp ****     //Riscv::ms_sstatus(Riscv::BitMaskSstatus::SSTATUS_SIE);
  15:src/kernel/testing/paging_test.cpp ****     Riscv::ms_sstatus(Riscv::BitMaskSstatus::SSTATUS_SUM);
  61              		.loc 1 15 5 is_stmt 1
  62              	.LBB5:
  63              	.LBB6:
  64              		.file 2 "src/kernel/testing/../../../h/../h/riscv.hpp"
   1:src/kernel/testing/../../../h/../h/riscv.hpp **** #ifndef __riscv__
   2:src/kernel/testing/../../../h/../h/riscv.hpp **** #define __riscv__
   3:src/kernel/testing/../../../h/../h/riscv.hpp **** 
   4:src/kernel/testing/../../../h/../h/riscv.hpp **** #include"../lib/hw.h"
   5:src/kernel/testing/../../../h/../h/riscv.hpp **** 
   6:src/kernel/testing/../../../h/../h/riscv.hpp **** class Riscv{
   7:src/kernel/testing/../../../h/../h/riscv.hpp **** public:
   8:src/kernel/testing/../../../h/../h/riscv.hpp **** /* 
   9:src/kernel/testing/../../../h/../h/riscv.hpp **** --------------------SUPERVISOR REGISTERS--------------------    
  10:src/kernel/testing/../../../h/../h/riscv.hpp **** */
  11:src/kernel/testing/../../../h/../h/riscv.hpp ****     static void w_scause(uint64);
  12:src/kernel/testing/../../../h/../h/riscv.hpp ****     static uint64 r_scause(); 
  13:src/kernel/testing/../../../h/../h/riscv.hpp **** 
  14:src/kernel/testing/../../../h/../h/riscv.hpp ****     static void w_sepc(uint64);
  15:src/kernel/testing/../../../h/../h/riscv.hpp ****     static uint64 r_sepc();
  16:src/kernel/testing/../../../h/../h/riscv.hpp ****     static void ni_sepc();
  17:src/kernel/testing/../../../h/../h/riscv.hpp **** 
  18:src/kernel/testing/../../../h/../h/riscv.hpp ****     static void w_stvec(uint64);
  19:src/kernel/testing/../../../h/../h/riscv.hpp ****     static uint64 r_stvec();
  20:src/kernel/testing/../../../h/../h/riscv.hpp ****      
  21:src/kernel/testing/../../../h/../h/riscv.hpp ****     static void w_stval(uint64);
  22:src/kernel/testing/../../../h/../h/riscv.hpp ****     static uint64 r_stval();
  23:src/kernel/testing/../../../h/../h/riscv.hpp **** 
  24:src/kernel/testing/../../../h/../h/riscv.hpp ****     static void w_satp(uint64);
  25:src/kernel/testing/../../../h/../h/riscv.hpp ****     static uint64 r_satp();
  26:src/kernel/testing/../../../h/../h/riscv.hpp ****     
GAS LISTING /tmp/ccZnaynb.s 			page 3


  27:src/kernel/testing/../../../h/../h/riscv.hpp ****     enum BitMaskSip{
  28:src/kernel/testing/../../../h/../h/riscv.hpp ****         SIP_SSIE = (1<<1),
  29:src/kernel/testing/../../../h/../h/riscv.hpp ****         SIP_STIE = (1<<5),
  30:src/kernel/testing/../../../h/../h/riscv.hpp ****         SIP_SEIE = (1<<9),
  31:src/kernel/testing/../../../h/../h/riscv.hpp ****     };
  32:src/kernel/testing/../../../h/../h/riscv.hpp **** 
  33:src/kernel/testing/../../../h/../h/riscv.hpp ****     static void ms_sip(uint64);
  34:src/kernel/testing/../../../h/../h/riscv.hpp ****     static void mc_sip(uint64);
  35:src/kernel/testing/../../../h/../h/riscv.hpp **** 
  36:src/kernel/testing/../../../h/../h/riscv.hpp ****     static void w_sip(uint64);
  37:src/kernel/testing/../../../h/../h/riscv.hpp ****     static uint64 r_sip();
  38:src/kernel/testing/../../../h/../h/riscv.hpp **** 
  39:src/kernel/testing/../../../h/../h/riscv.hpp ****     static void ms_sie(uint64);
  40:src/kernel/testing/../../../h/../h/riscv.hpp ****     static void mc_sie(uint64);
  41:src/kernel/testing/../../../h/../h/riscv.hpp **** 
  42:src/kernel/testing/../../../h/../h/riscv.hpp ****     static void w_sie(uint64);
  43:src/kernel/testing/../../../h/../h/riscv.hpp ****     static uint64 r_sie();
  44:src/kernel/testing/../../../h/../h/riscv.hpp **** 
  45:src/kernel/testing/../../../h/../h/riscv.hpp ****     enum BitMaskSstatus{
  46:src/kernel/testing/../../../h/../h/riscv.hpp ****         SSTATUS_SIE = (1<<1),
  47:src/kernel/testing/../../../h/../h/riscv.hpp ****         SSTATUS_SPIE = (1<<5),
  48:src/kernel/testing/../../../h/../h/riscv.hpp ****         SSTATUS_SPP = (1<<8),
  49:src/kernel/testing/../../../h/../h/riscv.hpp ****         SSTATUS_SUM = (1<<18),
  50:src/kernel/testing/../../../h/../h/riscv.hpp ****     };
  51:src/kernel/testing/../../../h/../h/riscv.hpp **** 
  52:src/kernel/testing/../../../h/../h/riscv.hpp ****     static void ms_sstatus(uint64);
  53:src/kernel/testing/../../../h/../h/riscv.hpp ****     static void mc_sstatus(uint64);
  54:src/kernel/testing/../../../h/../h/riscv.hpp **** 
  55:src/kernel/testing/../../../h/../h/riscv.hpp ****     static void w_sstatus(uint64);
  56:src/kernel/testing/../../../h/../h/riscv.hpp ****     static uint64 r_sstatus();
  57:src/kernel/testing/../../../h/../h/riscv.hpp **** 
  58:src/kernel/testing/../../../h/../h/riscv.hpp **** /* 
  59:src/kernel/testing/../../../h/../h/riscv.hpp **** --------------------CLASSIC REGISTERS--------------------    
  60:src/kernel/testing/../../../h/../h/riscv.hpp **** */
  61:src/kernel/testing/../../../h/../h/riscv.hpp ****     static uint64 r_sp();
  62:src/kernel/testing/../../../h/../h/riscv.hpp ****     static uint64 r_a0(); /* parameter registers */
  63:src/kernel/testing/../../../h/../h/riscv.hpp ****     static uint64 s_a0(uint64 a0);
  64:src/kernel/testing/../../../h/../h/riscv.hpp ****     static uint64 r_a1();
  65:src/kernel/testing/../../../h/../h/riscv.hpp ****     static uint64 r_a2();
  66:src/kernel/testing/../../../h/../h/riscv.hpp ****     static uint64 r_a3();
  67:src/kernel/testing/../../../h/../h/riscv.hpp ****     static uint64 r_a4();
  68:src/kernel/testing/../../../h/../h/riscv.hpp **** 
  69:src/kernel/testing/../../../h/../h/riscv.hpp ****     static void popRegisters(); /* pop all context registers */
  70:src/kernel/testing/../../../h/../h/riscv.hpp ****     static void pushRegisters(); /* push all context registers */
  71:src/kernel/testing/../../../h/../h/riscv.hpp ****  
  72:src/kernel/testing/../../../h/../h/riscv.hpp ****     static void popSppSpie(); /* jump from kernel to start of thread */
  73:src/kernel/testing/../../../h/../h/riscv.hpp **** 
  74:src/kernel/testing/../../../h/../h/riscv.hpp **** /* 
  75:src/kernel/testing/../../../h/../h/riscv.hpp **** --------------------CONSOLE REGISTERS--------------------    
  76:src/kernel/testing/../../../h/../h/riscv.hpp **** */
  77:src/kernel/testing/../../../h/../h/riscv.hpp ****     static void mc_cstatus(uint64 mask); 
  78:src/kernel/testing/../../../h/../h/riscv.hpp ****     static bool cstatus_ready(uint64 mask);
  79:src/kernel/testing/../../../h/../h/riscv.hpp **** };
  80:src/kernel/testing/../../../h/../h/riscv.hpp **** 
  81:src/kernel/testing/../../../h/../h/riscv.hpp **** /* 
  82:src/kernel/testing/../../../h/../h/riscv.hpp **** --------------------CLASSIC REGISTERS--------------------    
  83:src/kernel/testing/../../../h/../h/riscv.hpp **** */
GAS LISTING /tmp/ccZnaynb.s 			page 4


  84:src/kernel/testing/../../../h/../h/riscv.hpp **** 
  85:src/kernel/testing/../../../h/../h/riscv.hpp **** inline uint64 Riscv::r_sp(){
  86:src/kernel/testing/../../../h/../h/riscv.hpp ****     uint64 a0;
  87:src/kernel/testing/../../../h/../h/riscv.hpp ****     asm volatile("mv %0, sp" : "=r" (a0));
  88:src/kernel/testing/../../../h/../h/riscv.hpp ****     return a0;
  89:src/kernel/testing/../../../h/../h/riscv.hpp **** }
  90:src/kernel/testing/../../../h/../h/riscv.hpp **** 
  91:src/kernel/testing/../../../h/../h/riscv.hpp **** inline uint64 Riscv::r_a0(){
  92:src/kernel/testing/../../../h/../h/riscv.hpp ****     uint64 a0;
  93:src/kernel/testing/../../../h/../h/riscv.hpp ****     asm volatile("mv %0, a0" : "=r" (a0));
  94:src/kernel/testing/../../../h/../h/riscv.hpp ****     return a0;
  95:src/kernel/testing/../../../h/../h/riscv.hpp **** }
  96:src/kernel/testing/../../../h/../h/riscv.hpp **** 
  97:src/kernel/testing/../../../h/../h/riscv.hpp **** inline uint64 Riscv::r_a1(){
  98:src/kernel/testing/../../../h/../h/riscv.hpp ****     uint64 a0;
  99:src/kernel/testing/../../../h/../h/riscv.hpp ****     asm volatile("mv %0, a1" : "=r" (a0));
 100:src/kernel/testing/../../../h/../h/riscv.hpp ****     return a0;
 101:src/kernel/testing/../../../h/../h/riscv.hpp **** }
 102:src/kernel/testing/../../../h/../h/riscv.hpp **** 
 103:src/kernel/testing/../../../h/../h/riscv.hpp **** inline uint64 Riscv::r_a2(){
 104:src/kernel/testing/../../../h/../h/riscv.hpp ****     uint64 a0;
 105:src/kernel/testing/../../../h/../h/riscv.hpp ****     asm volatile("mv %0, a2" : "=r" (a0));
 106:src/kernel/testing/../../../h/../h/riscv.hpp ****     return a0;
 107:src/kernel/testing/../../../h/../h/riscv.hpp **** }
 108:src/kernel/testing/../../../h/../h/riscv.hpp **** 
 109:src/kernel/testing/../../../h/../h/riscv.hpp **** inline uint64 Riscv::r_a3(){
 110:src/kernel/testing/../../../h/../h/riscv.hpp ****     uint64 a0;
 111:src/kernel/testing/../../../h/../h/riscv.hpp ****     asm volatile("mv %0, a3" : "=r" (a0));
 112:src/kernel/testing/../../../h/../h/riscv.hpp ****     return a0;
 113:src/kernel/testing/../../../h/../h/riscv.hpp **** }
 114:src/kernel/testing/../../../h/../h/riscv.hpp **** 
 115:src/kernel/testing/../../../h/../h/riscv.hpp **** inline uint64 Riscv::r_a4(){
 116:src/kernel/testing/../../../h/../h/riscv.hpp ****     uint64 a0;
 117:src/kernel/testing/../../../h/../h/riscv.hpp ****     asm volatile("mv %0, a4" : "=r" (a0));
 118:src/kernel/testing/../../../h/../h/riscv.hpp ****     return a0;
 119:src/kernel/testing/../../../h/../h/riscv.hpp **** }
 120:src/kernel/testing/../../../h/../h/riscv.hpp **** 
 121:src/kernel/testing/../../../h/../h/riscv.hpp **** 
 122:src/kernel/testing/../../../h/../h/riscv.hpp **** inline uint64 Riscv::s_a0(uint64 a0){
 123:src/kernel/testing/../../../h/../h/riscv.hpp ****     return a0;
 124:src/kernel/testing/../../../h/../h/riscv.hpp **** }
 125:src/kernel/testing/../../../h/../h/riscv.hpp **** 
 126:src/kernel/testing/../../../h/../h/riscv.hpp **** /* 
 127:src/kernel/testing/../../../h/../h/riscv.hpp **** --------------------SUPERVISOR REGISTERS--------------------    
 128:src/kernel/testing/../../../h/../h/riscv.hpp **** */
 129:src/kernel/testing/../../../h/../h/riscv.hpp **** 
 130:src/kernel/testing/../../../h/../h/riscv.hpp **** inline void Riscv::w_scause(uint64 scause){
 131:src/kernel/testing/../../../h/../h/riscv.hpp ****     asm volatile("csrw scause, %0" : : "r" (scause));
 132:src/kernel/testing/../../../h/../h/riscv.hpp **** }
 133:src/kernel/testing/../../../h/../h/riscv.hpp **** 
 134:src/kernel/testing/../../../h/../h/riscv.hpp **** inline uint64 Riscv::r_scause(){
 135:src/kernel/testing/../../../h/../h/riscv.hpp ****     uint64 volatile scause;
 136:src/kernel/testing/../../../h/../h/riscv.hpp ****     asm volatile("csrr %0, scause" : "=r" (scause));
 137:src/kernel/testing/../../../h/../h/riscv.hpp ****     return scause;
 138:src/kernel/testing/../../../h/../h/riscv.hpp **** } 
 139:src/kernel/testing/../../../h/../h/riscv.hpp **** 
 140:src/kernel/testing/../../../h/../h/riscv.hpp **** inline void Riscv::w_sepc(uint64 sepc){
GAS LISTING /tmp/ccZnaynb.s 			page 5


 141:src/kernel/testing/../../../h/../h/riscv.hpp ****     asm volatile("csrw sepc, %0" : : "r" (sepc));
 142:src/kernel/testing/../../../h/../h/riscv.hpp **** }
 143:src/kernel/testing/../../../h/../h/riscv.hpp **** 
 144:src/kernel/testing/../../../h/../h/riscv.hpp **** inline uint64 Riscv::r_sepc(){
 145:src/kernel/testing/../../../h/../h/riscv.hpp ****     uint64 volatile sepc;
 146:src/kernel/testing/../../../h/../h/riscv.hpp ****     asm volatile("csrr %0, sepc" : "=r" (sepc));
 147:src/kernel/testing/../../../h/../h/riscv.hpp ****     return sepc;
 148:src/kernel/testing/../../../h/../h/riscv.hpp **** } 
 149:src/kernel/testing/../../../h/../h/riscv.hpp **** 
 150:src/kernel/testing/../../../h/../h/riscv.hpp **** inline void Riscv::w_stvec(uint64 stvec){
 151:src/kernel/testing/../../../h/../h/riscv.hpp ****     asm volatile("csrw stvec, %0" : : "r" (stvec));
 152:src/kernel/testing/../../../h/../h/riscv.hpp **** }
 153:src/kernel/testing/../../../h/../h/riscv.hpp **** 
 154:src/kernel/testing/../../../h/../h/riscv.hpp **** inline uint64 Riscv::r_stvec(){
 155:src/kernel/testing/../../../h/../h/riscv.hpp ****     uint64 volatile stvec;
 156:src/kernel/testing/../../../h/../h/riscv.hpp ****     asm volatile("csrr %0, stvec" : "=r" (stvec));
 157:src/kernel/testing/../../../h/../h/riscv.hpp ****     return stvec;
 158:src/kernel/testing/../../../h/../h/riscv.hpp **** } 
 159:src/kernel/testing/../../../h/../h/riscv.hpp **** 
 160:src/kernel/testing/../../../h/../h/riscv.hpp **** inline void Riscv::w_stval(uint64 stval){
 161:src/kernel/testing/../../../h/../h/riscv.hpp ****     asm volatile("csrw stval, %0" : : "r" (stval));
 162:src/kernel/testing/../../../h/../h/riscv.hpp **** }
 163:src/kernel/testing/../../../h/../h/riscv.hpp **** 
 164:src/kernel/testing/../../../h/../h/riscv.hpp **** inline uint64 Riscv::r_stval(){
 165:src/kernel/testing/../../../h/../h/riscv.hpp ****     uint64 volatile stval;
 166:src/kernel/testing/../../../h/../h/riscv.hpp ****     asm volatile("csrr %0, stval" : "=r" (stval));
 167:src/kernel/testing/../../../h/../h/riscv.hpp ****     return stval;
 168:src/kernel/testing/../../../h/../h/riscv.hpp **** } 
 169:src/kernel/testing/../../../h/../h/riscv.hpp **** 
 170:src/kernel/testing/../../../h/../h/riscv.hpp **** inline void Riscv::ms_sip(uint64 mask){
 171:src/kernel/testing/../../../h/../h/riscv.hpp ****     asm volatile ("csrs sip, %0" : : "r" (mask));
 172:src/kernel/testing/../../../h/../h/riscv.hpp **** }
 173:src/kernel/testing/../../../h/../h/riscv.hpp **** 
 174:src/kernel/testing/../../../h/../h/riscv.hpp **** inline void Riscv::mc_sip(uint64 mask){
 175:src/kernel/testing/../../../h/../h/riscv.hpp ****     asm volatile ("csrc sip, %0" : : "r" (mask));
 176:src/kernel/testing/../../../h/../h/riscv.hpp **** }
 177:src/kernel/testing/../../../h/../h/riscv.hpp **** 
 178:src/kernel/testing/../../../h/../h/riscv.hpp **** inline void Riscv::w_sip(uint64 sip){
 179:src/kernel/testing/../../../h/../h/riscv.hpp ****     asm volatile("csrw sip, %0" : : "r" (sip));
 180:src/kernel/testing/../../../h/../h/riscv.hpp **** }
 181:src/kernel/testing/../../../h/../h/riscv.hpp **** 
 182:src/kernel/testing/../../../h/../h/riscv.hpp **** inline uint64 Riscv::r_sip(){
 183:src/kernel/testing/../../../h/../h/riscv.hpp ****     uint64 volatile sip;
 184:src/kernel/testing/../../../h/../h/riscv.hpp ****     asm volatile("csrr %0, sip" : "=r" (sip));
 185:src/kernel/testing/../../../h/../h/riscv.hpp ****     return sip;
 186:src/kernel/testing/../../../h/../h/riscv.hpp **** } 
 187:src/kernel/testing/../../../h/../h/riscv.hpp **** 
 188:src/kernel/testing/../../../h/../h/riscv.hpp **** inline void Riscv::ms_sie(uint64 mask){
 189:src/kernel/testing/../../../h/../h/riscv.hpp ****     asm volatile ("csrs sie, %0" : : "r" (mask));
 190:src/kernel/testing/../../../h/../h/riscv.hpp **** }
 191:src/kernel/testing/../../../h/../h/riscv.hpp **** 
 192:src/kernel/testing/../../../h/../h/riscv.hpp **** inline void Riscv::mc_sie(uint64 mask){
 193:src/kernel/testing/../../../h/../h/riscv.hpp ****     asm volatile ("csrc sie, %0" : : "r" (mask));
 194:src/kernel/testing/../../../h/../h/riscv.hpp **** }
 195:src/kernel/testing/../../../h/../h/riscv.hpp **** 
 196:src/kernel/testing/../../../h/../h/riscv.hpp **** inline void Riscv::w_sie(uint64 sie){
 197:src/kernel/testing/../../../h/../h/riscv.hpp ****     asm volatile("csrw sie, %0" : : "r" (sie));
GAS LISTING /tmp/ccZnaynb.s 			page 6


 198:src/kernel/testing/../../../h/../h/riscv.hpp **** }
 199:src/kernel/testing/../../../h/../h/riscv.hpp **** 
 200:src/kernel/testing/../../../h/../h/riscv.hpp **** inline uint64 Riscv::r_sie(){
 201:src/kernel/testing/../../../h/../h/riscv.hpp ****     uint64 volatile sie;
 202:src/kernel/testing/../../../h/../h/riscv.hpp ****     asm volatile("csrr %0, sie" : "=r" (sie));
 203:src/kernel/testing/../../../h/../h/riscv.hpp ****     return sie;
 204:src/kernel/testing/../../../h/../h/riscv.hpp **** } 
 205:src/kernel/testing/../../../h/../h/riscv.hpp **** 
 206:src/kernel/testing/../../../h/../h/riscv.hpp **** inline void Riscv::ms_sstatus(uint64 mask){
 207:src/kernel/testing/../../../h/../h/riscv.hpp ****     asm volatile ("csrs sstatus, %0" : : "r" (mask));
  65              		.loc 2 207 5
  66              		.loc 2 207 53 is_stmt 0
  67 0070 B7070400 		li	a5,262144
  68              	 #APP
  69              	# 207 "src/kernel/testing/../../../h/../h/riscv.hpp" 1
 208              	}
  70              		csrs sstatus, a5
  71              	# 0 "" 2
  72              	.LVL8:
  73              	 #NO_APP
  74              	.LBE6:
  75              	.LBE5:
  16:src/kernel/testing/paging_test.cpp ****     kprintString("Moze li\n");
  76              		.loc 1 16 5 is_stmt 1
  77              		.loc 1 16 17 is_stmt 0
  78 0078 17050000 		lla	a0,.LC4
  78      13050500 
  79 0080 97000000 		call	_Z12kprintStringPKc
  79      E7800000 
  80              	.LVL9:
  17:src/kernel/testing/paging_test.cpp ****     pager.start_paging();
  81              		.loc 1 17 5 is_stmt 1
  82              		.loc 1 17 23 is_stmt 0
  83 0088 13050900 		mv	a0,s2
  84 008c 97000000 		call	_ZN5Pager12start_pagingEv
  84      E7800000 
  85              	.LVL10:
  18:src/kernel/testing/paging_test.cpp ****    
  19:src/kernel/testing/paging_test.cpp ****     for(int i = 0; i < 5; i++){
  86              		.loc 1 19 5 is_stmt 1
  87              	.LBB7:
  88              		.loc 1 19 13 is_stmt 0
  89 0094 93040000 		li	s1,0
  90              	.LVL11:
  91              	.L3:
  92              		.loc 1 19 22 discriminator 3
  93 0098 93074000 		li	a5,4
  94 009c 63C09704 		bgt	s1,a5,.L2
  20:src/kernel/testing/paging_test.cpp ****         KCHECKPRINT(i);
  95              		.loc 1 20 9 is_stmt 1 discriminator 2
  96 00a0 17050000 		lla	a0,.LC5
  96      13050500 
  97 00a8 97000000 		call	_Z12kprintStringPKc
  97      E7800000 
  98              	.LVL12:
  99              		.loc 1 20 9 discriminator 2
 100 00b0 13060000 		li	a2,0
GAS LISTING /tmp/ccZnaynb.s 			page 7


 101 00b4 93050001 		li	a1,16
 102 00b8 13850400 		mv	a0,s1
 103 00bc 97000000 		call	_Z9kprintIntmib
 103      E7800000 
 104              	.LVL13:
 105              		.loc 1 20 9 discriminator 2
 106 00c4 17050000 		lla	a0,.LC6
 106      13050500 
 107 00cc 97000000 		call	_Z12kprintStringPKc
 107      E7800000 
 108              	.LVL14:
  19:src/kernel/testing/paging_test.cpp ****         KCHECKPRINT(i);
 109              		.loc 1 19 5 is_stmt 0 discriminator 2
 110 00d4 9B841400 		addiw	s1,s1,1
 111              	.LVL15:
 112 00d8 6FF01FFC 		j	.L3
 113              	.LVL16:
 114              	.L2:
 115              	.LBE7:
  21:src/kernel/testing/paging_test.cpp ****     }
  22:src/kernel/testing/paging_test.cpp ****     uint64* ptr = (uint64*) HEAP_END_ADDR - 40;
 116              		.loc 1 22 5 is_stmt 1
 117              		.loc 1 22 19 is_stmt 0
 118 00dc 97070000 		lla	a5,HEAP_END_ADDR
 118      93870700 
 119 00e4 83B40700 		ld	s1,0(a5)
 120              	.LVL17:
 121              		.loc 1 22 13
 122 00e8 938504EC 		addi	a1,s1,-320
 123              	.LVL18:
  23:src/kernel/testing/paging_test.cpp ****     pager.map(ptr, (void*)((uint64)ptr & ~0xFFF), 
 124              		.loc 1 23 5 is_stmt 1
 125              		.loc 1 23 14 is_stmt 0
 126 00ec 93066001 		li	a3,22
 127 00f0 37F6FFFF 		li	a2,-4096
 128 00f4 33F6C500 		and	a2,a1,a2
 129 00f8 13050900 		mv	a0,s2
 130 00fc 97000000 		call	_ZN5Pager3mapEPvS0_12PMTEntryBits
 130      E7800000 
 131              	.LVL19:
  24:src/kernel/testing/paging_test.cpp ****         (PMTEntryBits) (PMTEntryBits::user | PMTEntryBits::write | PMTEntryBits::read)); 
  25:src/kernel/testing/paging_test.cpp ****     pager.print();
 132              		.loc 1 25 5 is_stmt 1
 133              		.loc 1 25 16 is_stmt 0
 134 0104 13050900 		mv	a0,s2
 135 0108 97000000 		call	_ZN5Pager5printEv
 135      E7800000 
 136              	.LVL20:
  26:src/kernel/testing/paging_test.cpp ****     //KCHECKPRINT(CONSOLE_RX_DATA);
  27:src/kernel/testing/paging_test.cpp ****     //pager.print();
  28:src/kernel/testing/paging_test.cpp ****     
  29:src/kernel/testing/paging_test.cpp ****     *ptr = 13;
 137              		.loc 1 29 5 is_stmt 1
 138              		.loc 1 29 10 is_stmt 0
 139 0110 9307D000 		li	a5,13
 140 0114 23B0F4EC 		sd	a5,-320(s1)
  30:src/kernel/testing/paging_test.cpp ****     //KCHECKPRINT(*ptr);
GAS LISTING /tmp/ccZnaynb.s 			page 8


  31:src/kernel/testing/paging_test.cpp ****     //KCHECKPRINT(ptr);
  32:src/kernel/testing/paging_test.cpp ****     
  33:src/kernel/testing/paging_test.cpp ****     kprintString("------PAGING TEST END------\n");
 141              		.loc 1 33 5 is_stmt 1
 142              		.loc 1 33 17 is_stmt 0
 143 0118 17050000 		lla	a0,.LC7
 143      13050500 
 144 0120 97000000 		call	_Z12kprintStringPKc
 144      E7800000 
 145              	.LVL21:
  34:src/kernel/testing/paging_test.cpp **** }
 146              		.loc 1 34 1
 147 0128 83308101 		ld	ra,24(sp)
 148              		.cfi_restore 1
 149 012c 03340101 		ld	s0,16(sp)
 150              		.cfi_restore 8
 151              		.cfi_def_cfa 2, 32
 152 0130 83348100 		ld	s1,8(sp)
 153              		.cfi_restore 9
 154              	.LVL22:
 155 0134 03390100 		ld	s2,0(sp)
 156              		.cfi_restore 18
 157              	.LVL23:
 158 0138 13010102 		addi	sp,sp,32
 159              		.cfi_def_cfa_offset 0
 160 013c 67800000 		jr	ra
 161              		.cfi_endproc
 162              	.LFE113:
 164              		.section	.rodata.str1.8,"aMS",@progbits,1
 165              		.align	3
 166              	.LC0:
 167 0000 2D2D2D2D 		.string	"--------PAGING TEST--------\n"
 167      2D2D2D2D 
 167      50414749 
 167      4E472054 
 167      4553542D 
 168 001d 000000   		.zero	3
 169              	.LC1:
 170 0020 47455449 		.string	"GETING PAGER iNSTANCE\n"
 170      4E472050 
 170      41474552 
 170      20694E53 
 170      54414E43 
 171 0037 00       		.zero	1
 172              	.LC2:
 173 0038 4D415050 		.string	"MAPPING KERNEL\n"
 173      494E4720 
 173      4B45524E 
 173      454C0A00 
 174              	.LC3:
 175 0048 50414749 		.string	"PAGING BEGIN\n"
 175      4E472042 
 175      4547494E 
 175      0A00
 176 0056 0000     		.zero	2
 177              	.LC4:
 178 0058 4D6F7A65 		.string	"Moze li\n"
GAS LISTING /tmp/ccZnaynb.s 			page 9


 178      206C690A 
 178      00
 179 0061 00000000 		.zero	7
 179      000000
 180              	.LC5:
 181 0068 693A2000 		.string	"i: "
 182 006c 00000000 		.zero	4
 183              	.LC6:
 184 0070 0A00     		.string	"\n"
 185 0072 00000000 		.zero	6
 185      0000
 186              	.LC7:
 187 0078 2D2D2D2D 		.string	"------PAGING TEST END------\n"
 187      2D2D5041 
 187      47494E47 
 187      20544553 
 187      5420454E 
 188              		.text
 189              	.Letext0:
 190              		.file 3 "src/kernel/testing/../../../h/../h/../lib/hw.h"
 191              		.file 4 "src/kernel/testing/../../../h/../h/pmt.h"
 192              		.file 5 "src/kernel/testing/../../../h/../h/pager.h"
 193              		.file 6 "src/kernel/testing/../../../h/../h/slab.h"
 194              		.file 7 "src/kernel/testing/../../../h/kernel_lib.h"
 195              		.file 8 "src/kernel/testing/../../../h/../h/kernel_funs.h"
GAS LISTING /tmp/ccZnaynb.s 			page 10


DEFINED SYMBOLS
                            *ABS*:0000000000000000 paging_test.cpp
     /tmp/ccZnaynb.s:12     .text:0000000000000000 _Z11paging_testv
     /tmp/ccZnaynb.s:16     .text:0000000000000000 .L0 
     /tmp/ccZnaynb.s:17     .text:0000000000000000 .L0 
     /tmp/ccZnaynb.s:18     .text:0000000000000004 .L0 
     /tmp/ccZnaynb.s:23     .text:0000000000000014 .L0 
     /tmp/ccZnaynb.s:24     .text:0000000000000014 .L0 
     /tmp/ccZnaynb.s:25     .text:0000000000000014 .L0 
     /tmp/ccZnaynb.s:26     .text:0000000000000014 .L0 
     /tmp/ccZnaynb.s:28     .text:0000000000000018 .L0 
     /tmp/ccZnaynb.s:30     .text:0000000000000018 .L0 
     /tmp/ccZnaynb.s:31     .text:0000000000000018 .L0 
     /tmp/ccZnaynb.s:35     .text:0000000000000028 .L0 
     /tmp/ccZnaynb.s:36     .text:0000000000000028 .L0 
     /tmp/ccZnaynb.s:40     .text:0000000000000038 .L0 
     /tmp/ccZnaynb.s:41     .text:0000000000000038 .L0 
     /tmp/ccZnaynb.s:46     .text:0000000000000044 .L0 
     /tmp/ccZnaynb.s:47     .text:0000000000000044 .L0 
     /tmp/ccZnaynb.s:52     .text:0000000000000054 .L0 
     /tmp/ccZnaynb.s:53     .text:0000000000000054 .L0 
     /tmp/ccZnaynb.s:57     .text:0000000000000060 .L0 
     /tmp/ccZnaynb.s:58     .text:0000000000000060 .L0 
     /tmp/ccZnaynb.s:65     .text:0000000000000070 .L0 
     /tmp/ccZnaynb.s:66     .text:0000000000000070 .L0 
     /tmp/ccZnaynb.s:67     .text:0000000000000070 .L0 
     /tmp/ccZnaynb.s:77     .text:0000000000000078 .L0 
     /tmp/ccZnaynb.s:78     .text:0000000000000078 .L0 
     /tmp/ccZnaynb.s:82     .text:0000000000000088 .L0 
     /tmp/ccZnaynb.s:83     .text:0000000000000088 .L0 
     /tmp/ccZnaynb.s:88     .text:0000000000000094 .L0 
     /tmp/ccZnaynb.s:89     .text:0000000000000094 .L0 
     /tmp/ccZnaynb.s:93     .text:0000000000000098 .L0 
     /tmp/ccZnaynb.s:96     .text:00000000000000a0 .L0 
     /tmp/ccZnaynb.s:100    .text:00000000000000b0 .L0 
     /tmp/ccZnaynb.s:106    .text:00000000000000c4 .L0 
     /tmp/ccZnaynb.s:110    .text:00000000000000d4 .L0 
     /tmp/ccZnaynb.s:117    .text:00000000000000dc .L0 
     /tmp/ccZnaynb.s:118    .text:00000000000000dc .L0 
     /tmp/ccZnaynb.s:122    .text:00000000000000e8 .L0 
     /tmp/ccZnaynb.s:125    .text:00000000000000ec .L0 
     /tmp/ccZnaynb.s:126    .text:00000000000000ec .L0 
     /tmp/ccZnaynb.s:133    .text:0000000000000104 .L0 
     /tmp/ccZnaynb.s:134    .text:0000000000000104 .L0 
     /tmp/ccZnaynb.s:138    .text:0000000000000110 .L0 
     /tmp/ccZnaynb.s:139    .text:0000000000000110 .L0 
     /tmp/ccZnaynb.s:142    .text:0000000000000118 .L0 
     /tmp/ccZnaynb.s:143    .text:0000000000000118 .L0 
     /tmp/ccZnaynb.s:147    .text:0000000000000128 .L0 
     /tmp/ccZnaynb.s:148    .text:000000000000012c .L0 
     /tmp/ccZnaynb.s:150    .text:0000000000000130 .L0 
     /tmp/ccZnaynb.s:151    .text:0000000000000130 .L0 
     /tmp/ccZnaynb.s:153    .text:0000000000000134 .L0 
     /tmp/ccZnaynb.s:156    .text:0000000000000138 .L0 
     /tmp/ccZnaynb.s:159    .text:000000000000013c .L0 
     /tmp/ccZnaynb.s:161    .text:0000000000000140 .L0 
     /tmp/ccZnaynb.s:196    .text:0000000000000140 .L0 
GAS LISTING /tmp/ccZnaynb.s 			page 11


     /tmp/ccZnaynb.s:166    .rodata.str1.8:0000000000000000 .LC0
     /tmp/ccZnaynb.s:31     .text:0000000000000018 .L0 
     /tmp/ccZnaynb.s:169    .rodata.str1.8:0000000000000020 .LC1
     /tmp/ccZnaynb.s:36     .text:0000000000000028 .L0 
     /tmp/ccZnaynb.s:172    .rodata.str1.8:0000000000000038 .LC2
     /tmp/ccZnaynb.s:47     .text:0000000000000044 .L0 
     /tmp/ccZnaynb.s:174    .rodata.str1.8:0000000000000048 .LC3
     /tmp/ccZnaynb.s:58     .text:0000000000000060 .L0 
     /tmp/ccZnaynb.s:177    .rodata.str1.8:0000000000000058 .LC4
     /tmp/ccZnaynb.s:78     .text:0000000000000078 .L0 
     /tmp/ccZnaynb.s:180    .rodata.str1.8:0000000000000068 .LC5
     /tmp/ccZnaynb.s:96     .text:00000000000000a0 .L0 
     /tmp/ccZnaynb.s:183    .rodata.str1.8:0000000000000070 .LC6
     /tmp/ccZnaynb.s:106    .text:00000000000000c4 .L0 
     /tmp/ccZnaynb.s:118    .text:00000000000000dc .L0 
     /tmp/ccZnaynb.s:186    .rodata.str1.8:0000000000000078 .LC7
     /tmp/ccZnaynb.s:143    .text:0000000000000118 .L0 
     /tmp/ccZnaynb.s:114    .text:00000000000000dc .L2
     /tmp/ccZnaynb.s:91     .text:0000000000000098 .L3
     /tmp/ccZnaynb.s:1488   .debug_abbrev:0000000000000000 .Ldebug_abbrev0
     /tmp/ccZnaynb.s:2615   .debug_str:000000000000049e .LASF170
     /tmp/ccZnaynb.s:2795   .debug_str:0000000000000a30 .LASF171
     /tmp/ccZnaynb.s:2727   .debug_str:0000000000000853 .LASF172
     /tmp/ccZnaynb.s:8      .text:0000000000000000 .Ltext0
     /tmp/ccZnaynb.s:189    .text:0000000000000140 .Letext0
     /tmp/ccZnaynb.s:2457   .debug_line:0000000000000000 .Ldebug_line0
     /tmp/ccZnaynb.s:2475   .debug_str:0000000000000082 .LASF0
     /tmp/ccZnaynb.s:2787   .debug_str:00000000000009fc .LASF1
     /tmp/ccZnaynb.s:2785   .debug_str:00000000000009f6 .LASF3
     /tmp/ccZnaynb.s:2755   .debug_str:0000000000000910 .LASF2
     /tmp/ccZnaynb.s:2735   .debug_str:000000000000088c .LASF4
     /tmp/ccZnaynb.s:2741   .debug_str:00000000000008ab .LASF5
     /tmp/ccZnaynb.s:2553   .debug_str:00000000000002f7 .LASF6
     /tmp/ccZnaynb.s:2595   .debug_str:00000000000003ed .LASF7
     /tmp/ccZnaynb.s:2701   .debug_str:00000000000007af .LASF8
     /tmp/ccZnaynb.s:2495   .debug_str:000000000000012a .LASF9
     /tmp/ccZnaynb.s:2781   .debug_str:00000000000009e3 .LASF10
     /tmp/ccZnaynb.s:2559   .debug_str:0000000000000308 .LASF11
     /tmp/ccZnaynb.s:2511   .debug_str:00000000000001a6 .LASF12
     /tmp/ccZnaynb.s:2613   .debug_str:000000000000048e .LASF13
     /tmp/ccZnaynb.s:2567   .debug_str:000000000000032b .LASF14
     /tmp/ccZnaynb.s:2725   .debug_str:0000000000000847 .LASF15
     /tmp/ccZnaynb.s:2571   .debug_str:0000000000000344 .LASF16
     /tmp/ccZnaynb.s:2537   .debug_str:0000000000000290 .LASF17
     /tmp/ccZnaynb.s:2591   .debug_str:00000000000003e1 .LASF18
     /tmp/ccZnaynb.s:2639   .debug_str:00000000000005ed .LASF19
     /tmp/ccZnaynb.s:2499   .debug_str:000000000000014e .LASF101
     /tmp/ccZnaynb.s:2601   .debug_str:0000000000000412 .LASF173
     /tmp/ccZnaynb.s:2779   .debug_str:00000000000009d7 .LASF20
     /tmp/ccZnaynb.s:2471   .debug_str:0000000000000070 .LASF21
     /tmp/ccZnaynb.s:2579   .debug_str:0000000000000382 .LASF22
     /tmp/ccZnaynb.s:2705   .debug_str:00000000000007cd .LASF23
     /tmp/ccZnaynb.s:2717   .debug_str:0000000000000812 .LASF24
     /tmp/ccZnaynb.s:2493   .debug_str:0000000000000115 .LASF26
     /tmp/ccZnaynb.s:2805   .debug_str:0000000000000a9d .LASF28
     /tmp/ccZnaynb.s:2777   .debug_str:00000000000009c2 .LASF30
     /tmp/ccZnaynb.s:2551   .debug_str:00000000000002f0 .LASF25
GAS LISTING /tmp/ccZnaynb.s 			page 12


     /tmp/ccZnaynb.s:2489   .debug_str:00000000000000f7 .LASF27
     /tmp/ccZnaynb.s:2519   .debug_str:00000000000001fd .LASF29
     /tmp/ccZnaynb.s:2573   .debug_str:000000000000035a .LASF31
     /tmp/ccZnaynb.s:2485   .debug_str:00000000000000d9 .LASF80
     /tmp/ccZnaynb.s:2747   .debug_str:00000000000008d4 .LASF82
     /tmp/ccZnaynb.s:2719   .debug_str:000000000000081b .LASF32
     /tmp/ccZnaynb.s:2497   .debug_str:000000000000013a .LASF33
     /tmp/ccZnaynb.s:2793   .debug_str:0000000000000a28 .LASF34
     /tmp/ccZnaynb.s:2723   .debug_str:0000000000000833 .LASF35
     /tmp/ccZnaynb.s:2629   .debug_str:00000000000005b1 .LASF36
     /tmp/ccZnaynb.s:2605   .debug_str:0000000000000432 .LASF37
     /tmp/ccZnaynb.s:2695   .debug_str:000000000000078a .LASF38
     /tmp/ccZnaynb.s:2461   .debug_str:0000000000000007 .LASF39
     /tmp/ccZnaynb.s:2459   .debug_str:0000000000000000 .LASF40
     /tmp/ccZnaynb.s:2809   .debug_str:0000000000000aad .LASF41
     /tmp/ccZnaynb.s:2789   .debug_str:0000000000000a0f .LASF42
     /tmp/ccZnaynb.s:2515   .debug_str:00000000000001d7 .LASF43
     /tmp/ccZnaynb.s:2759   .debug_str:0000000000000925 .LASF44
     /tmp/ccZnaynb.s:2661   .debug_str:0000000000000695 .LASF45
     /tmp/ccZnaynb.s:2597   .debug_str:0000000000000400 .LASF46
     /tmp/ccZnaynb.s:2753   .debug_str:00000000000008fd .LASF47
     /tmp/ccZnaynb.s:2743   .debug_str:00000000000008bd .LASF48
     /tmp/ccZnaynb.s:2687   .debug_str:0000000000000757 .LASF49
     /tmp/ccZnaynb.s:2643   .debug_str:00000000000005f8 .LASF50
     /tmp/ccZnaynb.s:2801   .debug_str:0000000000000a77 .LASF51
     /tmp/ccZnaynb.s:2757   .debug_str:000000000000091e .LASF52
     /tmp/ccZnaynb.s:2583   .debug_str:00000000000003a2 .LASF53
     /tmp/ccZnaynb.s:2593   .debug_str:00000000000003e6 .LASF54
     /tmp/ccZnaynb.s:2517   .debug_str:00000000000001ea .LASF55
     /tmp/ccZnaynb.s:2739   .debug_str:00000000000008a5 .LASF56
     /tmp/ccZnaynb.s:2535   .debug_str:000000000000027e .LASF57
     /tmp/ccZnaynb.s:2641   .debug_str:00000000000005f2 .LASF58
     /tmp/ccZnaynb.s:2657   .debug_str:000000000000067e .LASF59
     /tmp/ccZnaynb.s:2707   .debug_str:00000000000007d9 .LASF60
     /tmp/ccZnaynb.s:2509   .debug_str:000000000000018e .LASF61
     /tmp/ccZnaynb.s:2491   .debug_str:000000000000010a .LASF62
     /tmp/ccZnaynb.s:2811   .debug_str:0000000000000ac0 .LASF63
     /tmp/ccZnaynb.s:2733   .debug_str:0000000000000882 .LASF64
     /tmp/ccZnaynb.s:2607   .debug_str:0000000000000446 .LASF65
     /tmp/ccZnaynb.s:2565   .debug_str:0000000000000321 .LASF66
     /tmp/ccZnaynb.s:2527   .debug_str:0000000000000235 .LASF67
     /tmp/ccZnaynb.s:2653   .debug_str:0000000000000664 .LASF68
     /tmp/ccZnaynb.s:2625   .debug_str:0000000000000595 .LASF69
     /tmp/ccZnaynb.s:2555   .debug_str:00000000000002fe .LASF70
     /tmp/ccZnaynb.s:2745   .debug_str:00000000000008c3 .LASF71
     /tmp/ccZnaynb.s:2783   .debug_str:00000000000009f1 .LASF103
     /tmp/ccZnaynb.s:2477   .debug_str:000000000000008f .LASF104
     /tmp/ccZnaynb.s:2557   .debug_str:0000000000000303 .LASF72
     /tmp/ccZnaynb.s:2503   .debug_str:0000000000000162 .LASF73
     /tmp/ccZnaynb.s:2473   .debug_str:000000000000007d .LASF74
     /tmp/ccZnaynb.s:2665   .debug_str:00000000000006b6 .LASF75
     /tmp/ccZnaynb.s:2561   .debug_str:0000000000000317 .LASF76
     /tmp/ccZnaynb.s:2603   .debug_str:0000000000000421 .LASF77
     /tmp/ccZnaynb.s:2563   .debug_str:000000000000031c .LASF78
     /tmp/ccZnaynb.s:2521   .debug_str:0000000000000204 .LASF79
     /tmp/ccZnaynb.s:2609   .debug_str:000000000000045c .LASF81
     /tmp/ccZnaynb.s:2761   .debug_str:000000000000092c .LASF83
GAS LISTING /tmp/ccZnaynb.s 			page 13


     /tmp/ccZnaynb.s:2501   .debug_str:0000000000000154 .LASF84
     /tmp/ccZnaynb.s:2637   .debug_str:00000000000005d2 .LASF85
     /tmp/ccZnaynb.s:2703   .debug_str:00000000000007c2 .LASF86
     /tmp/ccZnaynb.s:2769   .debug_str:0000000000000978 .LASF87
     /tmp/ccZnaynb.s:2505   .debug_str:0000000000000173 .LASF88
     /tmp/ccZnaynb.s:2587   .debug_str:00000000000003bf .LASF89
     /tmp/ccZnaynb.s:2693   .debug_str:000000000000077c .LASF90
     /tmp/ccZnaynb.s:2469   .debug_str:0000000000000055 .LASF91
     /tmp/ccZnaynb.s:2645   .debug_str:00000000000005fe .LASF174
     /tmp/ccZnaynb.s:2541   .debug_str:00000000000002b0 .LASF92
     /tmp/ccZnaynb.s:2633   .debug_str:00000000000005bf .LASF93
     /tmp/ccZnaynb.s:2729   .debug_str:0000000000000876 .LASF94
     /tmp/ccZnaynb.s:2631   .debug_str:00000000000005b9 .LASF95
     /tmp/ccZnaynb.s:2623   .debug_str:000000000000058d .LASF96
     /tmp/ccZnaynb.s:2549   .debug_str:00000000000002eb .LASF97
     /tmp/ccZnaynb.s:2675   .debug_str:0000000000000703 .LASF98
     /tmp/ccZnaynb.s:2569   .debug_str:000000000000033b .LASF99
     /tmp/ccZnaynb.s:2677   .debug_str:000000000000070a .LASF100
     /tmp/ccZnaynb.s:2575   .debug_str:000000000000036d .LASF102
     /tmp/ccZnaynb.s:2525   .debug_str:0000000000000220 .LASF105
     /tmp/ccZnaynb.s:2589   .debug_str:00000000000003d7 .LASF110
     /tmp/ccZnaynb.s:2649   .debug_str:0000000000000631 .LASF112
     /tmp/ccZnaynb.s:2479   .debug_str:00000000000000a0 .LASF106
     /tmp/ccZnaynb.s:2647   .debug_str:000000000000060b .LASF107
     /tmp/ccZnaynb.s:2699   .debug_str:00000000000007a3 .LASF108
     /tmp/ccZnaynb.s:2679   .debug_str:0000000000000710 .LASF109
     /tmp/ccZnaynb.s:2731   .debug_str:000000000000087b .LASF111
     /tmp/ccZnaynb.s:2487   .debug_str:00000000000000e1 .LASF113
     /tmp/ccZnaynb.s:2807   .debug_str:0000000000000aa6 .LASF114
     /tmp/ccZnaynb.s:2483   .debug_str:00000000000000c2 .LASF115
     /tmp/ccZnaynb.s:2691   .debug_str:0000000000000776 .LASF116
     /tmp/ccZnaynb.s:2813   .debug_str:0000000000000ad8 .LASF117
     /tmp/ccZnaynb.s:2543   .debug_str:00000000000002b6 .LASF118
     /tmp/ccZnaynb.s:2709   .debug_str:00000000000007e4 .LASF119
     /tmp/ccZnaynb.s:2599   .debug_str:0000000000000407 .LASF175
     /tmp/ccZnaynb.s:2619   .debug_str:000000000000057a .LASF120
     /tmp/ccZnaynb.s:2539   .debug_str:00000000000002a6 .LASF121
     /tmp/ccZnaynb.s:2797   .debug_str:0000000000000a53 .LASF122
     /tmp/ccZnaynb.s:2581   .debug_str:000000000000038e .LASF123
     /tmp/ccZnaynb.s:2533   .debug_str:000000000000026e .LASF124
     /tmp/ccZnaynb.s:2465   .debug_str:000000000000002b .LASF125
     /tmp/ccZnaynb.s:2635   .debug_str:00000000000005c5 .LASF126
     /tmp/ccZnaynb.s:2481   .debug_str:00000000000000aa .LASF127
     /tmp/ccZnaynb.s:2751   .debug_str:00000000000008f7 .LASF128
     /tmp/ccZnaynb.s:2681   .debug_str:0000000000000739 .LASF129
     /tmp/ccZnaynb.s:2799   .debug_str:0000000000000a69 .LASF130
     /tmp/ccZnaynb.s:2673   .debug_str:00000000000006f6 .LASF131
     /tmp/ccZnaynb.s:2545   .debug_str:00000000000002c5 .LASF132
     /tmp/ccZnaynb.s:2463   .debug_str:000000000000001b .LASF133
     /tmp/ccZnaynb.s:2663   .debug_str:00000000000006a8 .LASF134
     /tmp/ccZnaynb.s:2671   .debug_str:00000000000006e6 .LASF135
     /tmp/ccZnaynb.s:2749   .debug_str:00000000000008e8 .LASF137
     /tmp/ccZnaynb.s:2529   .debug_str:000000000000024b .LASF136
     /tmp/ccZnaynb.s:2715   .debug_str:0000000000000803 .LASF138
     /tmp/ccZnaynb.s:2617   .debug_str:000000000000056e .LASF139
     /tmp/ccZnaynb.s:2767   .debug_str:000000000000095f .LASF140
     /tmp/ccZnaynb.s:2513   .debug_str:00000000000001b5 .LASF176
GAS LISTING /tmp/ccZnaynb.s 			page 14


     /tmp/ccZnaynb.s:2523   .debug_str:0000000000000215 .LASF141
     /tmp/ccZnaynb.s:2547   .debug_str:00000000000002d3 .LASF142
     /tmp/ccZnaynb.s:2711   .debug_str:00000000000007ee .LASF143
     /tmp/ccZnaynb.s:2611   .debug_str:0000000000000469 .LASF144
     /tmp/ccZnaynb.s:2685   .debug_str:000000000000074e .LASF145
     /tmp/ccZnaynb.s:2655   .debug_str:0000000000000669 .LASF146
     /tmp/ccZnaynb.s:2689   .debug_str:0000000000000769 .LASF147
     /tmp/ccZnaynb.s:2467   .debug_str:000000000000003b .LASF148
     /tmp/ccZnaynb.s:2775   .debug_str:00000000000009b0 .LASF149
     /tmp/ccZnaynb.s:2765   .debug_str:0000000000000954 .LASF150
     /tmp/ccZnaynb.s:2737   .debug_str:0000000000000893 .LASF151
     /tmp/ccZnaynb.s:2627   .debug_str:00000000000005a6 .LASF152
     /tmp/ccZnaynb.s:2669   .debug_str:00000000000006d4 .LASF153
     /tmp/ccZnaynb.s:2771   .debug_str:0000000000000990 .LASF154
     /tmp/ccZnaynb.s:2721   .debug_str:0000000000000823 .LASF155
     /tmp/ccZnaynb.s:2713   .debug_str:00000000000007f5 .LASF156
     /tmp/ccZnaynb.s:2683   .debug_str:000000000000073f .LASF157
     /tmp/ccZnaynb.s:2651   .debug_str:0000000000000657 .LASF158
     /tmp/ccZnaynb.s:2531   .debug_str:000000000000025e .LASF159
     /tmp/ccZnaynb.s:2763   .debug_str:0000000000000946 .LASF160
     /tmp/ccZnaynb.s:2791   .debug_str:0000000000000a16 .LASF161
     /tmp/ccZnaynb.s:2507   .debug_str:000000000000017e .LASF162
     /tmp/ccZnaynb.s:2577   .debug_str:0000000000000376 .LASF163
     /tmp/ccZnaynb.s:2697   .debug_str:0000000000000792 .LASF164
     /tmp/ccZnaynb.s:13     .text:0000000000000000 .LFB113
     /tmp/ccZnaynb.s:162    .text:0000000000000140 .LFE113
     /tmp/ccZnaynb.s:2621   .debug_str:0000000000000587 .LASF165
     /tmp/ccZnaynb.s:2394   .debug_loc:0000000000000000 .LLST0
     /tmp/ccZnaynb.s:2405   .debug_loc:0000000000000036 .LLST1
     /tmp/ccZnaynb.s:87     .text:0000000000000094 .LBB7
     /tmp/ccZnaynb.s:115    .text:00000000000000dc .LBE7
     /tmp/ccZnaynb.s:2418   .debug_loc:000000000000006f .LLST3
     /tmp/ccZnaynb.s:98     .text:00000000000000b0 .LVL12
     /tmp/ccZnaynb.s:104    .text:00000000000000c4 .LVL13
     /tmp/ccZnaynb.s:108    .text:00000000000000d4 .LVL14
     /tmp/ccZnaynb.s:62     .text:0000000000000070 .LBB5
     /tmp/ccZnaynb.s:75     .text:0000000000000078 .LBE5
     /tmp/ccZnaynb.s:2434   .debug_loc:00000000000000b9 .LLST2
     /tmp/ccZnaynb.s:33     .text:0000000000000028 .LVL0
     /tmp/ccZnaynb.s:38     .text:0000000000000038 .LVL1
     /tmp/ccZnaynb.s:42     .text:0000000000000040 .LVL2
     /tmp/ccZnaynb.s:50     .text:0000000000000054 .LVL5
     /tmp/ccZnaynb.s:55     .text:0000000000000060 .LVL6
     /tmp/ccZnaynb.s:60     .text:0000000000000070 .LVL7
     /tmp/ccZnaynb.s:80     .text:0000000000000088 .LVL9
     /tmp/ccZnaynb.s:85     .text:0000000000000094 .LVL10
     /tmp/ccZnaynb.s:131    .text:0000000000000104 .LVL19
     /tmp/ccZnaynb.s:136    .text:0000000000000110 .LVL20
     /tmp/ccZnaynb.s:145    .text:0000000000000128 .LVL21
     /tmp/ccZnaynb.s:2659   .debug_str:0000000000000690 .LASF177
     /tmp/ccZnaynb.s:2803   .debug_str:0000000000000a89 .LASF166
     /tmp/ccZnaynb.s:2667   .debug_str:00000000000006c7 .LASF168
     /tmp/ccZnaynb.s:2773   .debug_str:00000000000009a0 .LASF167
     /tmp/ccZnaynb.s:2585   .debug_str:00000000000003b5 .LASF169
     /tmp/ccZnaynb.s:44     .text:0000000000000044 .LVL3
     /tmp/ccZnaynb.s:48     .text:000000000000004c .LVL4
     /tmp/ccZnaynb.s:157    .text:0000000000000138 .LVL23
GAS LISTING /tmp/ccZnaynb.s 			page 15


     /tmp/ccZnaynb.s:123    .text:00000000000000ec .LVL18
     /tmp/ccZnaynb.s:154    .text:0000000000000134 .LVL22
     /tmp/ccZnaynb.s:90     .text:0000000000000098 .LVL11
     /tmp/ccZnaynb.s:111    .text:00000000000000d8 .LVL15
     /tmp/ccZnaynb.s:113    .text:00000000000000dc .LVL16
     /tmp/ccZnaynb.s:120    .text:00000000000000e8 .LVL17
     /tmp/ccZnaynb.s:72     .text:0000000000000078 .LVL8
     /tmp/ccZnaynb.s:197    .debug_info:0000000000000000 .Ldebug_info0

UNDEFINED SYMBOLS
_Z12kprintStringPKc
_ZN5Pager11getInstanceEv
_ZN5Pager10map_kernelEv
_ZN5Pager12start_pagingEv
_Z9kprintIntmib
HEAP_END_ADDR
_ZN5Pager3mapEPvS0_12PMTEntryBits
_ZN5Pager5printEv
