GAS LISTING /tmp/ccPu3Im8.s 			page 1


   1              		.file	"slab_test.cpp"
   2              		.option nopic
   3              		.option norelax
   4              		.attribute arch, "rv64i2p0_m2p0_a2p0"
   5              		.attribute unaligned_access, 0
   6              		.attribute stack_align, 16
   7              		.text
   8              	.Ltext0:
   9              		.align	2
  10              		.globl	_Z4ctorPv
  12              	_Z4ctorPv:
  13              	.LFB120:
  14              		.file 1 "src/kernel/testing/slab_test.cpp"
   1:src/kernel/testing/slab_test.cpp **** #include"../../../h/kernel_lib.h"
   2:src/kernel/testing/slab_test.cpp **** #include"../../../h/kernel_test.h"
   3:src/kernel/testing/slab_test.cpp **** 
   4:src/kernel/testing/slab_test.cpp **** void cache_alloc_test(ObjectCache** oc_arr,int size, size_t objsize = 32, char flags = Slab::pb_mas
   5:src/kernel/testing/slab_test.cpp ****     kprintString("\n\n=============Object Cache Allocating=============\n\n");
   6:src/kernel/testing/slab_test.cpp ****     
   7:src/kernel/testing/slab_test.cpp ****     kprintString("Allocating "); kprintInt(size); kprintString(" caches!!\n");
   8:src/kernel/testing/slab_test.cpp ****     for(int i = 0; i < size; i++){
   9:src/kernel/testing/slab_test.cpp ****         oc_arr[i] = new ObjectCache("oc", objsize, nullptr, nullptr);
  10:src/kernel/testing/slab_test.cpp ****         KPRINTARR(oc_arr, i, oc_arr[i]);
  11:src/kernel/testing/slab_test.cpp ****         if(oc_arr == nullptr){
  12:src/kernel/testing/slab_test.cpp ****             kprintString("Not enough memory left!\n");
  13:src/kernel/testing/slab_test.cpp ****             return;
  14:src/kernel/testing/slab_test.cpp ****         }
  15:src/kernel/testing/slab_test.cpp ****         oc_arr[i]->printInfo(flags);
  16:src/kernel/testing/slab_test.cpp ****         kprintString("\n");
  17:src/kernel/testing/slab_test.cpp ****     
  18:src/kernel/testing/slab_test.cpp ****     }
  19:src/kernel/testing/slab_test.cpp ****     SlabAl::getInstance().print_state(flags);
  20:src/kernel/testing/slab_test.cpp **** 
  21:src/kernel/testing/slab_test.cpp ****     kprintString("\n\n===========Object Cache Allocating End===========\n\n");
  22:src/kernel/testing/slab_test.cpp ****     
  23:src/kernel/testing/slab_test.cpp **** }
  24:src/kernel/testing/slab_test.cpp **** 
  25:src/kernel/testing/slab_test.cpp **** 
  26:src/kernel/testing/slab_test.cpp **** 
  27:src/kernel/testing/slab_test.cpp **** 
  28:src/kernel/testing/slab_test.cpp **** void cache_dealloc_test(ObjectCache** oc_arr, int size, char flags = Slab::pb_mask::FREE){
  29:src/kernel/testing/slab_test.cpp ****     kprintString("\n\n=============Object Cache Deallocating=============\n\n");
  30:src/kernel/testing/slab_test.cpp ****     
  31:src/kernel/testing/slab_test.cpp ****     for(int i = 0; i < size; i++){
  32:src/kernel/testing/slab_test.cpp ****         KPRINTARR(oc_arr, i, oc_arr[i]);
  33:src/kernel/testing/slab_test.cpp ****         if(oc_arr[i]){
  34:src/kernel/testing/slab_test.cpp ****             delete oc_arr[i];
  35:src/kernel/testing/slab_test.cpp ****             oc_arr[i] = 0;
  36:src/kernel/testing/slab_test.cpp ****         }
  37:src/kernel/testing/slab_test.cpp ****         else{
  38:src/kernel/testing/slab_test.cpp ****             kprintString("Given address not valid!\n");
  39:src/kernel/testing/slab_test.cpp ****             return;
  40:src/kernel/testing/slab_test.cpp ****         }
  41:src/kernel/testing/slab_test.cpp ****     }
  42:src/kernel/testing/slab_test.cpp ****     SlabAl::getInstance().print_state(flags);
  43:src/kernel/testing/slab_test.cpp **** 
  44:src/kernel/testing/slab_test.cpp ****     kprintString("\n\n===========Object Cache Dellocating End===========\n\n");
GAS LISTING /tmp/ccPu3Im8.s 			page 2


  45:src/kernel/testing/slab_test.cpp ****     
  46:src/kernel/testing/slab_test.cpp **** }
  47:src/kernel/testing/slab_test.cpp **** 
  48:src/kernel/testing/slab_test.cpp **** 
  49:src/kernel/testing/slab_test.cpp **** 
  50:src/kernel/testing/slab_test.cpp **** 
  51:src/kernel/testing/slab_test.cpp **** void kmalloc_test(void** buff_arr, int size, size_t objsize = 32, char flags = Slab::pb_mask::FREE)
  52:src/kernel/testing/slab_test.cpp ****     kprintString("\n\n=============SMALL MEMORY BUFFER ALLOC=============\n\n");
  53:src/kernel/testing/slab_test.cpp ****     
  54:src/kernel/testing/slab_test.cpp ****     for(int i = 0 ; i < size; i++){
  55:src/kernel/testing/slab_test.cpp ****         buff_arr[i] = SlabAllocator::getInstance().kmalloc(objsize);
  56:src/kernel/testing/slab_test.cpp ****         KPRINTARR(buff_arr, i, buff_arr[i]);
  57:src/kernel/testing/slab_test.cpp ****         if(buff_arr[i] == nullptr){
  58:src/kernel/testing/slab_test.cpp ****             kprintString("Not enough memory left!\n");
  59:src/kernel/testing/slab_test.cpp ****             return;
  60:src/kernel/testing/slab_test.cpp ****         }
  61:src/kernel/testing/slab_test.cpp ****     }
  62:src/kernel/testing/slab_test.cpp ****     SlabAl::getInstance().print_state(flags);
  63:src/kernel/testing/slab_test.cpp ****     kprintString("\n\n===========SMALL MEMORY BUFFER ALLOC END===========\n\n");
  64:src/kernel/testing/slab_test.cpp ****     
  65:src/kernel/testing/slab_test.cpp **** }
  66:src/kernel/testing/slab_test.cpp **** 
  67:src/kernel/testing/slab_test.cpp **** 
  68:src/kernel/testing/slab_test.cpp **** 
  69:src/kernel/testing/slab_test.cpp **** void kfree_test(void** buff_arr, int size, char flags = Slab::pb_mask::FREE){
  70:src/kernel/testing/slab_test.cpp ****     kprintString("\n\n=============SMALL MEMORY BUFFER DEALLOC=============\n\n");
  71:src/kernel/testing/slab_test.cpp ****     
  72:src/kernel/testing/slab_test.cpp ****     for(int i = 0; i < size; i++){
  73:src/kernel/testing/slab_test.cpp ****         if(!buff_arr[i]){
  74:src/kernel/testing/slab_test.cpp ****             kprintString("Invalid free address given!!");
  75:src/kernel/testing/slab_test.cpp ****             return;
  76:src/kernel/testing/slab_test.cpp ****         }
  77:src/kernel/testing/slab_test.cpp ****         KPRINTARR(buff_arr, i, buff_arr[i]);
  78:src/kernel/testing/slab_test.cpp ****         SlabAl::getInstance().kfree(buff_arr[i]);
  79:src/kernel/testing/slab_test.cpp ****     }
  80:src/kernel/testing/slab_test.cpp ****     SlabAl::getInstance().print_state(flags); 
  81:src/kernel/testing/slab_test.cpp **** 
  82:src/kernel/testing/slab_test.cpp ****     kprintString("\n\n===========SMALL MEMORY BUFFER DEALLOC END===========\n\n");
  83:src/kernel/testing/slab_test.cpp ****     
  84:src/kernel/testing/slab_test.cpp **** }
  85:src/kernel/testing/slab_test.cpp **** 
  86:src/kernel/testing/slab_test.cpp **** 
  87:src/kernel/testing/slab_test.cpp **** 
  88:src/kernel/testing/slab_test.cpp **** void slab_allocator_state_ceck(char flags = Slab::pb_mask::FREE){
  89:src/kernel/testing/slab_test.cpp ****     kprintString("\n\n=============Slab Allocator State Check=============\n\n");
  90:src/kernel/testing/slab_test.cpp ****     
  91:src/kernel/testing/slab_test.cpp ****     SlabAl::getInstance().print_state(flags);
  92:src/kernel/testing/slab_test.cpp ****     
  93:src/kernel/testing/slab_test.cpp ****     kprintString("\n\n===========Slab Allocator State Check End===========\n\n");
  94:src/kernel/testing/slab_test.cpp **** }
  95:src/kernel/testing/slab_test.cpp **** 
  96:src/kernel/testing/slab_test.cpp **** 
  97:src/kernel/testing/slab_test.cpp **** 
  98:src/kernel/testing/slab_test.cpp **** void cache_obj_alloc_test(void** object, int size, ObjectCache* cache, char flags){
  99:src/kernel/testing/slab_test.cpp ****     kprintString("\n\n=============Object Allocate Test=============\n\n");
 100:src/kernel/testing/slab_test.cpp ****     
 101:src/kernel/testing/slab_test.cpp ****     for(int i = 0; i < size; i++){
GAS LISTING /tmp/ccPu3Im8.s 			page 3


 102:src/kernel/testing/slab_test.cpp ****         object[i] = cache->alloc_obj();
 103:src/kernel/testing/slab_test.cpp ****         if(!object[i]){
 104:src/kernel/testing/slab_test.cpp ****             kprintString("Object not corresctly allocated!!\n");   
 105:src/kernel/testing/slab_test.cpp ****             return;
 106:src/kernel/testing/slab_test.cpp ****         }
 107:src/kernel/testing/slab_test.cpp ****         KPRINTARR(object, i, object[i]);
 108:src/kernel/testing/slab_test.cpp ****     }
 109:src/kernel/testing/slab_test.cpp ****     cache->printInfo(flags);
 110:src/kernel/testing/slab_test.cpp ****     slab_allocator_state_ceck(flags);
 111:src/kernel/testing/slab_test.cpp **** 
 112:src/kernel/testing/slab_test.cpp ****     kprintString("\n\n===========Object Allocate Test End===========\n\n");
 113:src/kernel/testing/slab_test.cpp ****     
 114:src/kernel/testing/slab_test.cpp **** }
 115:src/kernel/testing/slab_test.cpp **** 
 116:src/kernel/testing/slab_test.cpp **** 
 117:src/kernel/testing/slab_test.cpp **** 
 118:src/kernel/testing/slab_test.cpp **** void cache_obj_dealloca_test(void** object, int size, ObjectCache* cache, char flags){
 119:src/kernel/testing/slab_test.cpp **** 
 120:src/kernel/testing/slab_test.cpp ****     kprintString("\n\n=============Object Deallocate Test=============\n\n");
 121:src/kernel/testing/slab_test.cpp ****     
 122:src/kernel/testing/slab_test.cpp ****     for(int i = 0; i < size; i++){
 123:src/kernel/testing/slab_test.cpp ****         KPRINTARR(object, i, object[i]);
 124:src/kernel/testing/slab_test.cpp ****         
 125:src/kernel/testing/slab_test.cpp ****         if(!object[i]){
 126:src/kernel/testing/slab_test.cpp ****             kprintString("Invalid object address!\n");   
 127:src/kernel/testing/slab_test.cpp ****             return;
 128:src/kernel/testing/slab_test.cpp ****         }
 129:src/kernel/testing/slab_test.cpp ****         
 130:src/kernel/testing/slab_test.cpp ****         cache->free_obj(object[i]);
 131:src/kernel/testing/slab_test.cpp ****         
 132:src/kernel/testing/slab_test.cpp ****     }
 133:src/kernel/testing/slab_test.cpp ****     cache->printInfo(flags);
 134:src/kernel/testing/slab_test.cpp ****     slab_allocator_state_ceck(flags);
 135:src/kernel/testing/slab_test.cpp **** 
 136:src/kernel/testing/slab_test.cpp ****     kprintString("\n\n=============Object Dellocate Test End=============\n\n");
 137:src/kernel/testing/slab_test.cpp ****     
 138:src/kernel/testing/slab_test.cpp **** }
 139:src/kernel/testing/slab_test.cpp **** 
 140:src/kernel/testing/slab_test.cpp **** 
 141:src/kernel/testing/slab_test.cpp **** void ctor(void* ptr){
  15              		.loc 1 141 21
  16              		.cfi_startproc
  17              	.LVL0:
  18 0000 130101FC 		addi	sp,sp,-64
  19              		.cfi_def_cfa_offset 64
  20 0004 233C1102 		sd	ra,56(sp)
  21 0008 23388102 		sd	s0,48(sp)
  22              		.cfi_offset 1, -8
  23              		.cfi_offset 8, -16
  24 000c 13040104 		addi	s0,sp,64
  25              		.cfi_def_cfa 8, 0
  26 0010 93070500 		mv	a5,a0
 142:src/kernel/testing/slab_test.cpp ****    
 143:src/kernel/testing/slab_test.cpp ****     *(KSemaphore*)ptr = KSemaphore(1);
  27              		.loc 1 143 5
  28              	.LVL1:
  29              	.LBB16:
GAS LISTING /tmp/ccPu3Im8.s 			page 4


  30              	.LBB17:
  31              	.LBB18:
  32              		.file 2 "src/kernel/testing/../../../h/../h/ksemaphore.hpp"
   1:src/kernel/testing/../../../h/../h/ksemaphore.hpp **** #ifndef __semaphore__
   2:src/kernel/testing/../../../h/../h/ksemaphore.hpp **** #define __semaphore__
   3:src/kernel/testing/../../../h/../h/ksemaphore.hpp **** 
   4:src/kernel/testing/../../../h/../h/ksemaphore.hpp **** #include"../h/ptr_queue.hpp"
   5:src/kernel/testing/../../../h/../h/ksemaphore.hpp **** #include "slab_allocator.h"
   6:src/kernel/testing/../../../h/../h/ksemaphore.hpp **** 
   7:src/kernel/testing/../../../h/../h/ksemaphore.hpp **** /* Class used to describe semaphore in kernel code */
   8:src/kernel/testing/../../../h/../h/ksemaphore.hpp **** 
   9:src/kernel/testing/../../../h/../h/ksemaphore.hpp **** class KSemaphore
  10:src/kernel/testing/../../../h/../h/ksemaphore.hpp **** {
  11:src/kernel/testing/../../../h/../h/ksemaphore.hpp ****     static ObjectCache* cache; 
  12:src/kernel/testing/../../../h/../h/ksemaphore.hpp **** public:
  13:src/kernel/testing/../../../h/../h/ksemaphore.hpp ****     //#include"../h/kernel_operators.hpp" /* allocation and deallocation */
  14:src/kernel/testing/../../../h/../h/ksemaphore.hpp ****     
  15:src/kernel/testing/../../../h/../h/ksemaphore.hpp ****     __SLAB_ALLOCATION__(KSemaphore, nullptr, nullptr)
  16:src/kernel/testing/../../../h/../h/ksemaphore.hpp **** 
  17:src/kernel/testing/../../../h/../h/ksemaphore.hpp ****     KSemaphore(unsigned val):val(val)
  33              		.loc 2 17 37 is_stmt 0
  34 0014 13071000 		li	a4,1
  35 0018 2328E4FC 		sw	a4,-48(s0)
  36              	.LVL2:
  37              	.LBB19:
  38              	.LBB20:
  39              	.LBB21:
  40              		.file 3 "src/kernel/testing/../../../h/../h/ptr_queue.hpp"
   1:src/kernel/testing/../../../h/../h/ptr_queue.hpp **** #ifndef _queue_h
   2:src/kernel/testing/../../../h/../h/ptr_queue.hpp **** #define _queue_h
   3:src/kernel/testing/../../../h/../h/ptr_queue.hpp **** 
   4:src/kernel/testing/../../../h/../h/ptr_queue.hpp **** //#include"../h/tcb.hpp"
   5:src/kernel/testing/../../../h/../h/ptr_queue.hpp **** //#include"../h/testing.hpp"
   6:src/kernel/testing/../../../h/../h/ptr_queue.hpp **** #include"../lib/hw.h"
   7:src/kernel/testing/../../../h/../h/ptr_queue.hpp **** #include"../h/memory_allocator.hpp"
   8:src/kernel/testing/../../../h/../h/ptr_queue.hpp **** #include "object_cache.h"
   9:src/kernel/testing/../../../h/../h/ptr_queue.hpp **** #include "slab_allocator.h"
  10:src/kernel/testing/../../../h/../h/ptr_queue.hpp **** 
  11:src/kernel/testing/../../../h/../h/ptr_queue.hpp **** class TCB;
  12:src/kernel/testing/../../../h/../h/ptr_queue.hpp **** 
  13:src/kernel/testing/../../../h/../h/ptr_queue.hpp **** class TcbQueue{
  14:src/kernel/testing/../../../h/../h/ptr_queue.hpp ****        
  15:src/kernel/testing/../../../h/../h/ptr_queue.hpp ****     TCB *head, *tail;
  16:src/kernel/testing/../../../h/../h/ptr_queue.hpp ****     int tmpNum;
  17:src/kernel/testing/../../../h/../h/ptr_queue.hpp ****     void brisi(){
  18:src/kernel/testing/../../../h/../h/ptr_queue.hpp ****         while(!isEmpty())
  19:src/kernel/testing/../../../h/../h/ptr_queue.hpp ****             remove();
  20:src/kernel/testing/../../../h/../h/ptr_queue.hpp ****     }
  21:src/kernel/testing/../../../h/../h/ptr_queue.hpp ****     static ObjectCache* cache;
  22:src/kernel/testing/../../../h/../h/ptr_queue.hpp **** public:
  23:src/kernel/testing/../../../h/../h/ptr_queue.hpp ****     //#include"../h/kernel_operators.hpp"
  24:src/kernel/testing/../../../h/../h/ptr_queue.hpp **** 
  25:src/kernel/testing/../../../h/../h/ptr_queue.hpp ****     __SLAB_ALLOCATION__(TcbQueue, nullptr, nullptr);
  26:src/kernel/testing/../../../h/../h/ptr_queue.hpp ****     TcbQueue():head(nullptr), tail(nullptr), tmpNum(0){}
  41              		.loc 3 26 54
  42 001c 233C04FC 		sd	zero,-40(s0)
  43 0020 233004FE 		sd	zero,-32(s0)
GAS LISTING /tmp/ccPu3Im8.s 			page 5


  44 0024 232404FE 		sw	zero,-24(s0)
  45              	.LVL3:
  46              	.LBE21:
  47              	.LBE20:
  48              	.LBE19:
  18:src/kernel/testing/../../../h/../h/ksemaphore.hpp ****     {
  19:src/kernel/testing/../../../h/../h/ksemaphore.hpp ****         /* 
  20:src/kernel/testing/../../../h/../h/ksemaphore.hpp ****         *  Put semaphore on front 
  21:src/kernel/testing/../../../h/../h/ksemaphore.hpp ****         *  of the list of active semaphores
  22:src/kernel/testing/../../../h/../h/ksemaphore.hpp ****         */
  23:src/kernel/testing/../../../h/../h/ksemaphore.hpp ****         next = activeSemaphores; 
  49              		.loc 2 23 9 is_stmt 1
  50              		.loc 2 23 14 is_stmt 0
  51 0028 97060000 		lla	a3,_ZN10KSemaphore16activeSemaphoresE
  51      93860600 
  52 0030 03B70600 		ld	a4,0(a3)
  53 0034 2334E4FC 		sd	a4,-56(s0)
  24:src/kernel/testing/../../../h/../h/ksemaphore.hpp ****         activeSemaphores = this;
  54              		.loc 2 24 9 is_stmt 1
  55              		.loc 2 24 26 is_stmt 0
  56 0038 130584FC 		addi	a0,s0,-56
  57              	.LVL4:
  58 003c 23B0A600 		sd	a0,0(a3)
  59              	.LVL5:
  60              	.LBE18:
  61              	.LBE17:
  62              	.LBE16:
  63              		.loc 1 143 23
  64 0040 23B0E700 		sd	a4,0(a5)
  65 0044 033704FD 		ld	a4,-48(s0)
  66 0048 23B4E700 		sd	a4,8(a5)
  67 004c 23B80700 		sd	zero,16(a5)
  68 0050 23BC0700 		sd	zero,24(a5)
  69 0054 033784FE 		ld	a4,-24(s0)
  70 0058 23B0E702 		sd	a4,32(a5)
  71              		.loc 1 143 25
  72 005c 97000000 		call	_ZN10KSemaphoreD1Ev
  72      E7800000 
  73              	.LVL6:
 144:src/kernel/testing/slab_test.cpp **** }
  74              		.loc 1 144 1
  75 0064 83308103 		ld	ra,56(sp)
  76              		.cfi_restore 1
  77 0068 03340103 		ld	s0,48(sp)
  78              		.cfi_restore 8
  79              		.cfi_def_cfa 2, 64
  80 006c 13010104 		addi	sp,sp,64
  81              		.cfi_def_cfa_offset 0
  82 0070 67800000 		jr	ra
  83              		.cfi_endproc
  84              	.LFE120:
  86              		.align	2
  87              		.globl	_Z16cache_alloc_testPP11ObjectCacheimc
  89              	_Z16cache_alloc_testPP11ObjectCacheimc:
  90              	.LFB113:
   4:src/kernel/testing/slab_test.cpp ****     kprintString("\n\n=============Object Cache Allocating=============\n\n");
  91              		.loc 1 4 108 is_stmt 1
GAS LISTING /tmp/ccPu3Im8.s 			page 6


  92              		.cfi_startproc
  93              		.cfi_personality 0x9b,DW.ref.__gxx_personality_v0
  94              		.cfi_lsda 0x1b,.LLSDA113
  95              	.LVL7:
  96 0074 130101FB 		addi	sp,sp,-80
  97              		.cfi_def_cfa_offset 80
  98 0078 23341104 		sd	ra,72(sp)
  99 007c 23308104 		sd	s0,64(sp)
 100 0080 233C9102 		sd	s1,56(sp)
 101 0084 23382103 		sd	s2,48(sp)
 102 0088 23343103 		sd	s3,40(sp)
 103 008c 23304103 		sd	s4,32(sp)
 104 0090 233C5101 		sd	s5,24(sp)
 105 0094 23386101 		sd	s6,16(sp)
 106 0098 23347101 		sd	s7,8(sp)
 107              		.cfi_offset 1, -8
 108              		.cfi_offset 8, -16
 109              		.cfi_offset 9, -24
 110              		.cfi_offset 18, -32
 111              		.cfi_offset 19, -40
 112              		.cfi_offset 20, -48
 113              		.cfi_offset 21, -56
 114              		.cfi_offset 22, -64
 115              		.cfi_offset 23, -72
 116 009c 13040105 		addi	s0,sp,80
 117              		.cfi_def_cfa 8, 0
 118 00a0 93090500 		mv	s3,a0
 119 00a4 938A0500 		mv	s5,a1
 120 00a8 930B0600 		mv	s7,a2
 121 00ac 138B0600 		mv	s6,a3
   5:src/kernel/testing/slab_test.cpp ****     
 122              		.loc 1 5 5
   5:src/kernel/testing/slab_test.cpp ****     
 123              		.loc 1 5 17 is_stmt 0
 124 00b0 17050000 		lla	a0,.LC0
 124      13050500 
 125              	.LVL8:
 126              	.LEHB0:
 127 00b8 97000000 		call	_Z12kprintStringPKc
 127      E7800000 
 128              	.LVL9:
   7:src/kernel/testing/slab_test.cpp ****     for(int i = 0; i < size; i++){
 129              		.loc 1 7 5 is_stmt 1
   7:src/kernel/testing/slab_test.cpp ****     for(int i = 0; i < size; i++){
 130              		.loc 1 7 17 is_stmt 0
 131 00c0 17050000 		lla	a0,.LC1
 131      13050500 
 132 00c8 97000000 		call	_Z12kprintStringPKc
 132      E7800000 
 133              	.LVL10:
   7:src/kernel/testing/slab_test.cpp ****     for(int i = 0; i < size; i++){
 134              		.loc 1 7 34 is_stmt 1
   7:src/kernel/testing/slab_test.cpp ****     for(int i = 0; i < size; i++){
 135              		.loc 1 7 43 is_stmt 0
 136 00d0 13060000 		li	a2,0
 137 00d4 9305A000 		li	a1,10
 138 00d8 13850A00 		mv	a0,s5
GAS LISTING /tmp/ccPu3Im8.s 			page 7


 139 00dc 97000000 		call	_Z9kprintIntmib
 139      E7800000 
 140              	.LVL11:
   7:src/kernel/testing/slab_test.cpp ****     for(int i = 0; i < size; i++){
 141              		.loc 1 7 51 is_stmt 1
   7:src/kernel/testing/slab_test.cpp ****     for(int i = 0; i < size; i++){
 142              		.loc 1 7 63 is_stmt 0
 143 00e4 17050000 		lla	a0,.LC2
 143      13050500 
 144 00ec 97000000 		call	_Z12kprintStringPKc
 144      E7800000 
 145              	.LVL12:
   8:src/kernel/testing/slab_test.cpp ****         oc_arr[i] = new ObjectCache("oc", objsize, nullptr, nullptr);
 146              		.loc 1 8 5 is_stmt 1
 147              	.LBB22:
   8:src/kernel/testing/slab_test.cpp ****         oc_arr[i] = new ObjectCache("oc", objsize, nullptr, nullptr);
 148              		.loc 1 8 13 is_stmt 0
 149 00f4 13090000 		li	s2,0
 150 00f8 6F000009 		j	.L7
 151              	.LVL13:
 152              	.L12:
   9:src/kernel/testing/slab_test.cpp ****         KPRINTARR(oc_arr, i, oc_arr[i]);
 153              		.loc 1 9 17 discriminator 2
 154 00fc 93143900 		slli	s1,s2,3
 155 0100 B3849900 		add	s1,s3,s1
   9:src/kernel/testing/slab_test.cpp ****         KPRINTARR(oc_arr, i, oc_arr[i]);
 156              		.loc 1 9 19 discriminator 2
 157 0104 23B04401 		sd	s4,0(s1)
  10:src/kernel/testing/slab_test.cpp ****         if(oc_arr == nullptr){
 158              		.loc 1 10 9 is_stmt 1 discriminator 2
 159 0108 17050000 		lla	a0,.LC4
 159      13050500 
 160 0110 97000000 		call	_Z12kprintStringPKc
 160      E7800000 
 161              	.LVL14:
  10:src/kernel/testing/slab_test.cpp ****         if(oc_arr == nullptr){
 162              		.loc 1 10 9 discriminator 2
 163 0118 13060000 		li	a2,0
 164 011c 9305A000 		li	a1,10
 165 0120 13050900 		mv	a0,s2
 166 0124 97000000 		call	_Z9kprintIntmib
 166      E7800000 
 167              	.LVL15:
  10:src/kernel/testing/slab_test.cpp ****         if(oc_arr == nullptr){
 168              		.loc 1 10 9 discriminator 2
 169 012c 17050000 		lla	a0,.LC5
 169      13050500 
 170 0134 97000000 		call	_Z12kprintStringPKc
 170      E7800000 
 171              	.LVL16:
  10:src/kernel/testing/slab_test.cpp ****         if(oc_arr == nullptr){
 172              		.loc 1 10 9 discriminator 2
 173 013c 13060000 		li	a2,0
 174 0140 93050001 		li	a1,16
 175 0144 03B50400 		ld	a0,0(s1)
 176 0148 97000000 		call	_Z9kprintIntmib
 176      E7800000 
GAS LISTING /tmp/ccPu3Im8.s 			page 8


 177              	.LVL17:
  10:src/kernel/testing/slab_test.cpp ****         if(oc_arr == nullptr){
 178              		.loc 1 10 9 discriminator 2
 179 0150 17050000 		lla	a0,.LC6
 179      13050500 
 180 0158 97000000 		call	_Z12kprintStringPKc
 180      E7800000 
 181              	.LVL18:
  11:src/kernel/testing/slab_test.cpp ****             kprintString("Not enough memory left!\n");
 182              		.loc 1 11 9 discriminator 2
 183 0160 63800906 		beq	s3,zero,.L11
  15:src/kernel/testing/slab_test.cpp ****         kprintString("\n");
 184              		.loc 1 15 9 discriminator 2
  15:src/kernel/testing/slab_test.cpp ****         kprintString("\n");
 185              		.loc 1 15 29 is_stmt 0 discriminator 2
 186 0164 93050B00 		mv	a1,s6
 187 0168 03B50400 		ld	a0,0(s1)
 188 016c 97000000 		call	_ZN11ObjectCache9printInfoEc
 188      E7800000 
 189              	.LVL19:
  16:src/kernel/testing/slab_test.cpp ****     
 190              		.loc 1 16 9 is_stmt 1 discriminator 2
  16:src/kernel/testing/slab_test.cpp ****     
 191              		.loc 1 16 21 is_stmt 0 discriminator 2
 192 0174 17050000 		lla	a0,.LC6
 192      13050500 
 193 017c 97000000 		call	_Z12kprintStringPKc
 193      E7800000 
 194              	.LVL20:
   8:src/kernel/testing/slab_test.cpp ****         oc_arr[i] = new ObjectCache("oc", objsize, nullptr, nullptr);
 195              		.loc 1 8 5 discriminator 2
 196 0184 1B091900 		addiw	s2,s2,1
 197              	.LVL21:
 198              	.L7:
   8:src/kernel/testing/slab_test.cpp ****         oc_arr[i] = new ObjectCache("oc", objsize, nullptr, nullptr);
 199              		.loc 1 8 22 discriminator 1
 200 0188 63565905 		bge	s2,s5,.L4
   9:src/kernel/testing/slab_test.cpp ****         KPRINTARR(oc_arr, i, oc_arr[i]);
 201              		.loc 1 9 9 is_stmt 1
   9:src/kernel/testing/slab_test.cpp ****         KPRINTARR(oc_arr, i, oc_arr[i]);
 202              		.loc 1 9 68 is_stmt 0
 203 018c 13058005 		li	a0,88
 204 0190 97000000 		call	_ZN11ObjectCachenwEm
 204      E7800000 
 205              	.LVL22:
 206              	.LEHE0:
 207 0198 130A0500 		mv	s4,a0
 208 019c 93070000 		li	a5,0
 209 01a0 13070000 		li	a4,0
 210 01a4 93060000 		li	a3,0
 211 01a8 13860B00 		mv	a2,s7
 212 01ac 97050000 		lla	a1,.LC3
 212      93850500 
 213              	.LEHB1:
 214 01b4 97000000 		call	_ZN11ObjectCacheC1EPKcmPFvPvES4_NS_12SlabMetaTypeE
 214      E7800000 
 215              	.LVL23:
GAS LISTING /tmp/ccPu3Im8.s 			page 9


 216              	.LEHE1:
 217 01bc 6FF01FF4 		j	.L12
 218              	.L11:
  12:src/kernel/testing/slab_test.cpp ****             return;
 219              		.loc 1 12 13 is_stmt 1
  12:src/kernel/testing/slab_test.cpp ****             return;
 220              		.loc 1 12 25 is_stmt 0
 221 01c0 17050000 		lla	a0,.LC7
 221      13050500 
 222              	.LEHB2:
 223 01c8 97000000 		call	_Z12kprintStringPKc
 223      E7800000 
 224              	.LVL24:
  13:src/kernel/testing/slab_test.cpp ****         }
 225              		.loc 1 13 13 is_stmt 1
 226 01d0 6F008002 		j	.L3
 227              	.L4:
 228              	.LBE22:
  19:src/kernel/testing/slab_test.cpp **** 
 229              		.loc 1 19 5
  19:src/kernel/testing/slab_test.cpp **** 
 230              		.loc 1 19 25 is_stmt 0
 231 01d4 97000000 		call	_ZN13SlabAllocator11getInstanceEv
 231      E7800000 
 232              	.LVL25:
  19:src/kernel/testing/slab_test.cpp **** 
 233              		.loc 1 19 38
 234 01dc 93050B00 		mv	a1,s6
 235 01e0 97000000 		call	_ZN13SlabAllocator11print_stateEc
 235      E7800000 
 236              	.LVL26:
  21:src/kernel/testing/slab_test.cpp ****     
 237              		.loc 1 21 5 is_stmt 1
  21:src/kernel/testing/slab_test.cpp ****     
 238              		.loc 1 21 17 is_stmt 0
 239 01e8 17050000 		lla	a0,.LC8
 239      13050500 
 240 01f0 97000000 		call	_Z12kprintStringPKc
 240      E7800000 
 241              	.LVL27:
 242              	.LEHE2:
 243              	.L3:
  23:src/kernel/testing/slab_test.cpp **** 
 244              		.loc 1 23 1
 245 01f8 83308104 		ld	ra,72(sp)
 246              		.cfi_remember_state
 247              		.cfi_restore 1
 248 01fc 03340104 		ld	s0,64(sp)
 249              		.cfi_restore 8
 250              		.cfi_def_cfa 2, 80
 251 0200 83348103 		ld	s1,56(sp)
 252              		.cfi_restore 9
 253 0204 03390103 		ld	s2,48(sp)
 254              		.cfi_restore 18
 255              	.LVL28:
 256 0208 83398102 		ld	s3,40(sp)
 257              		.cfi_restore 19
GAS LISTING /tmp/ccPu3Im8.s 			page 10


 258              	.LVL29:
 259 020c 033A0102 		ld	s4,32(sp)
 260              		.cfi_restore 20
 261 0210 833A8101 		ld	s5,24(sp)
 262              		.cfi_restore 21
 263 0214 033B0101 		ld	s6,16(sp)
 264              		.cfi_restore 22
 265 0218 833B8100 		ld	s7,8(sp)
 266              		.cfi_restore 23
 267              	.LVL30:
 268 021c 13010105 		addi	sp,sp,80
 269              		.cfi_def_cfa_offset 0
 270 0220 67800000 		jr	ra
 271              	.LVL31:
 272              	.L9:
 273              		.cfi_restore_state
 274 0224 93040500 		mv	s1,a0
 275              	.LBB23:
   9:src/kernel/testing/slab_test.cpp ****         KPRINTARR(oc_arr, i, oc_arr[i]);
 276              		.loc 1 9 68
 277 0228 13050A00 		mv	a0,s4
 278 022c 97000000 		call	_ZN11ObjectCachedlEPv
 278      E7800000 
 279              	.LVL32:
 280 0234 13850400 		mv	a0,s1
 281              	.LEHB3:
 282 0238 97000000 		call	_Unwind_Resume
 282      E7800000 
 283              	.LVL33:
 284              	.LEHE3:
 285              	.LBE23:
 286              		.cfi_endproc
 287              	.LFE113:
 288              		.globl	__gxx_personality_v0
 289              		.section	.gcc_except_table,"aw",@progbits
 290              	.LLSDA113:
 291 0000 FF       		.byte	0xff
 292 0001 FF       		.byte	0xff
 293 0002 03       		.byte	0x3
 294 0003 34       		.byte	0x34
 295 0004 00000000 		.4byte	.LEHB0-.LFB113
 296 0008 00000000 		.4byte	.LEHE0-.LEHB0
 297 000c 00000000 		.4byte	0
 298 0010 00       		.byte	0
 299 0011 00000000 		.4byte	.LEHB1-.LFB113
 300 0015 00000000 		.4byte	.LEHE1-.LEHB1
 301 0019 00000000 		.4byte	.L9-.LFB113
 302 001d 00       		.byte	0
 303 001e 00000000 		.4byte	.LEHB2-.LFB113
 304 0022 00000000 		.4byte	.LEHE2-.LEHB2
 305 0026 00000000 		.4byte	0
 306 002a 00       		.byte	0
 307 002b 00000000 		.4byte	.LEHB3-.LFB113
 308 002f 00000000 		.4byte	.LEHE3-.LEHB3
 309 0033 00000000 		.4byte	0
 310 0037 00       		.byte	0
 311              		.text
GAS LISTING /tmp/ccPu3Im8.s 			page 11


 313              		.align	2
 314              		.globl	_Z18cache_dealloc_testPP11ObjectCacheic
 316              	_Z18cache_dealloc_testPP11ObjectCacheic:
 317              	.LFB114:
  28:src/kernel/testing/slab_test.cpp ****     kprintString("\n\n=============Object Cache Deallocating=============\n\n");
 318              		.loc 1 28 90 is_stmt 1
 319              		.cfi_startproc
 320              	.LVL34:
 321 0240 130101FC 		addi	sp,sp,-64
 322              		.cfi_def_cfa_offset 64
 323 0244 233C1102 		sd	ra,56(sp)
 324 0248 23388102 		sd	s0,48(sp)
 325 024c 23349102 		sd	s1,40(sp)
 326 0250 23302103 		sd	s2,32(sp)
 327 0254 233C3101 		sd	s3,24(sp)
 328 0258 23384101 		sd	s4,16(sp)
 329 025c 23345101 		sd	s5,8(sp)
 330              		.cfi_offset 1, -8
 331              		.cfi_offset 8, -16
 332              		.cfi_offset 9, -24
 333              		.cfi_offset 18, -32
 334              		.cfi_offset 19, -40
 335              		.cfi_offset 20, -48
 336              		.cfi_offset 21, -56
 337 0260 13040104 		addi	s0,sp,64
 338              		.cfi_def_cfa 8, 0
 339 0264 130A0500 		mv	s4,a0
 340 0268 93890500 		mv	s3,a1
 341 026c 930A0600 		mv	s5,a2
  29:src/kernel/testing/slab_test.cpp ****     
 342              		.loc 1 29 5
  29:src/kernel/testing/slab_test.cpp ****     
 343              		.loc 1 29 17 is_stmt 0
 344 0270 17050000 		lla	a0,.LC9
 344      13050500 
 345              	.LVL35:
 346 0278 97000000 		call	_Z12kprintStringPKc
 346      E7800000 
 347              	.LVL36:
  31:src/kernel/testing/slab_test.cpp ****         KPRINTARR(oc_arr, i, oc_arr[i]);
 348              		.loc 1 31 5 is_stmt 1
 349              	.LBB24:
  31:src/kernel/testing/slab_test.cpp ****         KPRINTARR(oc_arr, i, oc_arr[i]);
 350              		.loc 1 31 13 is_stmt 0
 351 0280 13090000 		li	s2,0
 352              	.LVL37:
 353              	.L16:
  31:src/kernel/testing/slab_test.cpp ****         KPRINTARR(oc_arr, i, oc_arr[i]);
 354              		.loc 1 31 22 discriminator 1
 355 0284 635A3909 		bge	s2,s3,.L14
  32:src/kernel/testing/slab_test.cpp ****         if(oc_arr[i]){
 356              		.loc 1 32 9 is_stmt 1
 357 0288 17050000 		lla	a0,.LC4
 357      13050500 
 358 0290 97000000 		call	_Z12kprintStringPKc
 358      E7800000 
 359              	.LVL38:
GAS LISTING /tmp/ccPu3Im8.s 			page 12


  32:src/kernel/testing/slab_test.cpp ****         if(oc_arr[i]){
 360              		.loc 1 32 9
 361 0298 13060000 		li	a2,0
 362 029c 9305A000 		li	a1,10
 363 02a0 13050900 		mv	a0,s2
 364 02a4 97000000 		call	_Z9kprintIntmib
 364      E7800000 
 365              	.LVL39:
  32:src/kernel/testing/slab_test.cpp ****         if(oc_arr[i]){
 366              		.loc 1 32 9
 367 02ac 17050000 		lla	a0,.LC5
 367      13050500 
 368 02b4 97000000 		call	_Z12kprintStringPKc
 368      E7800000 
 369              	.LVL40:
  32:src/kernel/testing/slab_test.cpp ****         if(oc_arr[i]){
 370              		.loc 1 32 9
 371 02bc 93143900 		slli	s1,s2,3
 372 02c0 B3049A00 		add	s1,s4,s1
 373 02c4 13060000 		li	a2,0
 374 02c8 93050001 		li	a1,16
 375 02cc 03B50400 		ld	a0,0(s1)
 376 02d0 97000000 		call	_Z9kprintIntmib
 376      E7800000 
 377              	.LVL41:
  32:src/kernel/testing/slab_test.cpp ****         if(oc_arr[i]){
 378              		.loc 1 32 9
 379 02d8 17050000 		lla	a0,.LC6
 379      13050500 
 380 02e0 97000000 		call	_Z12kprintStringPKc
 380      E7800000 
 381              	.LVL42:
  33:src/kernel/testing/slab_test.cpp ****             delete oc_arr[i];
 382              		.loc 1 33 9
  33:src/kernel/testing/slab_test.cpp ****             delete oc_arr[i];
 383              		.loc 1 33 20 is_stmt 0
 384 02e8 03B50400 		ld	a0,0(s1)
  33:src/kernel/testing/slab_test.cpp ****             delete oc_arr[i];
 385              		.loc 1 33 9
 386 02ec 630C0500 		beq	a0,zero,.L15
  34:src/kernel/testing/slab_test.cpp ****             oc_arr[i] = 0;
 387              		.loc 1 34 13 is_stmt 1
  34:src/kernel/testing/slab_test.cpp ****             oc_arr[i] = 0;
 388              		.loc 1 34 28 is_stmt 0
 389 02f0 97000000 		call	_ZN11ObjectCachedlEPv
 389      E7800000 
 390              	.LVL43:
  35:src/kernel/testing/slab_test.cpp ****         }
 391              		.loc 1 35 13 is_stmt 1
  35:src/kernel/testing/slab_test.cpp ****         }
 392              		.loc 1 35 23 is_stmt 0
 393 02f8 23B00400 		sd	zero,0(s1)
  31:src/kernel/testing/slab_test.cpp ****         KPRINTARR(oc_arr, i, oc_arr[i]);
 394              		.loc 1 31 5
 395 02fc 1B091900 		addiw	s2,s2,1
 396              	.LVL44:
 397 0300 6FF05FF8 		j	.L16
GAS LISTING /tmp/ccPu3Im8.s 			page 13


 398              	.LVL45:
 399              	.L15:
  38:src/kernel/testing/slab_test.cpp ****             return;
 400              		.loc 1 38 13 is_stmt 1
  38:src/kernel/testing/slab_test.cpp ****             return;
 401              		.loc 1 38 25 is_stmt 0
 402 0304 17050000 		lla	a0,.LC10
 402      13050500 
 403 030c 97000000 		call	_Z12kprintStringPKc
 403      E7800000 
 404              	.LVL46:
  39:src/kernel/testing/slab_test.cpp ****         }
 405              		.loc 1 39 13 is_stmt 1
 406 0314 6F008002 		j	.L13
 407              	.L14:
 408              	.LBE24:
  42:src/kernel/testing/slab_test.cpp **** 
 409              		.loc 1 42 5
  42:src/kernel/testing/slab_test.cpp **** 
 410              		.loc 1 42 25 is_stmt 0
 411 0318 97000000 		call	_ZN13SlabAllocator11getInstanceEv
 411      E7800000 
 412              	.LVL47:
  42:src/kernel/testing/slab_test.cpp **** 
 413              		.loc 1 42 38
 414 0320 93850A00 		mv	a1,s5
 415 0324 97000000 		call	_ZN13SlabAllocator11print_stateEc
 415      E7800000 
 416              	.LVL48:
  44:src/kernel/testing/slab_test.cpp ****     
 417              		.loc 1 44 5 is_stmt 1
  44:src/kernel/testing/slab_test.cpp ****     
 418              		.loc 1 44 17 is_stmt 0
 419 032c 17050000 		lla	a0,.LC11
 419      13050500 
 420 0334 97000000 		call	_Z12kprintStringPKc
 420      E7800000 
 421              	.LVL49:
 422              	.L13:
  46:src/kernel/testing/slab_test.cpp **** 
 423              		.loc 1 46 1
 424 033c 83308103 		ld	ra,56(sp)
 425              		.cfi_restore 1
 426 0340 03340103 		ld	s0,48(sp)
 427              		.cfi_restore 8
 428              		.cfi_def_cfa 2, 64
 429 0344 83348102 		ld	s1,40(sp)
 430              		.cfi_restore 9
 431 0348 03390102 		ld	s2,32(sp)
 432              		.cfi_restore 18
 433              	.LVL50:
 434 034c 83398101 		ld	s3,24(sp)
 435              		.cfi_restore 19
 436 0350 033A0101 		ld	s4,16(sp)
 437              		.cfi_restore 20
 438              	.LVL51:
 439 0354 833A8100 		ld	s5,8(sp)
GAS LISTING /tmp/ccPu3Im8.s 			page 14


 440              		.cfi_restore 21
 441 0358 13010104 		addi	sp,sp,64
 442              		.cfi_def_cfa_offset 0
 443 035c 67800000 		jr	ra
 444              		.cfi_endproc
 445              	.LFE114:
 447              		.align	2
 448              		.globl	_Z12kmalloc_testPPvimc
 450              	_Z12kmalloc_testPPvimc:
 451              	.LFB115:
  51:src/kernel/testing/slab_test.cpp ****     kprintString("\n\n=============SMALL MEMORY BUFFER ALLOC=============\n\n");
 452              		.loc 1 51 100 is_stmt 1
 453              		.cfi_startproc
 454              	.LVL52:
 455 0360 130101FC 		addi	sp,sp,-64
 456              		.cfi_def_cfa_offset 64
 457 0364 233C1102 		sd	ra,56(sp)
 458 0368 23388102 		sd	s0,48(sp)
 459 036c 23349102 		sd	s1,40(sp)
 460 0370 23302103 		sd	s2,32(sp)
 461 0374 233C3101 		sd	s3,24(sp)
 462 0378 23384101 		sd	s4,16(sp)
 463 037c 23345101 		sd	s5,8(sp)
 464 0380 23306101 		sd	s6,0(sp)
 465              		.cfi_offset 1, -8
 466              		.cfi_offset 8, -16
 467              		.cfi_offset 9, -24
 468              		.cfi_offset 18, -32
 469              		.cfi_offset 19, -40
 470              		.cfi_offset 20, -48
 471              		.cfi_offset 21, -56
 472              		.cfi_offset 22, -64
 473 0384 13040104 		addi	s0,sp,64
 474              		.cfi_def_cfa 8, 0
 475 0388 930A0500 		mv	s5,a0
 476 038c 93890500 		mv	s3,a1
 477 0390 130A0600 		mv	s4,a2
 478 0394 138B0600 		mv	s6,a3
  52:src/kernel/testing/slab_test.cpp ****     
 479              		.loc 1 52 5
  52:src/kernel/testing/slab_test.cpp ****     
 480              		.loc 1 52 17 is_stmt 0
 481 0398 17050000 		lla	a0,.LC12
 481      13050500 
 482              	.LVL53:
 483 03a0 97000000 		call	_Z12kprintStringPKc
 483      E7800000 
 484              	.LVL54:
  54:src/kernel/testing/slab_test.cpp ****         buff_arr[i] = SlabAllocator::getInstance().kmalloc(objsize);
 485              		.loc 1 54 5 is_stmt 1
 486              	.LBB25:
  54:src/kernel/testing/slab_test.cpp ****         buff_arr[i] = SlabAllocator::getInstance().kmalloc(objsize);
 487              		.loc 1 54 13 is_stmt 0
 488 03a8 13090000 		li	s2,0
 489              	.LVL55:
 490              	.L23:
  54:src/kernel/testing/slab_test.cpp ****         buff_arr[i] = SlabAllocator::getInstance().kmalloc(objsize);
GAS LISTING /tmp/ccPu3Im8.s 			page 15


 491              		.loc 1 54 23 discriminator 1
 492 03ac 6350390B 		bge	s2,s3,.L20
  55:src/kernel/testing/slab_test.cpp ****         KPRINTARR(buff_arr, i, buff_arr[i]);
 493              		.loc 1 55 9 is_stmt 1
  55:src/kernel/testing/slab_test.cpp ****         KPRINTARR(buff_arr, i, buff_arr[i]);
 494              		.loc 1 55 50 is_stmt 0
 495 03b0 97000000 		call	_ZN13SlabAllocator11getInstanceEv
 495      E7800000 
 496              	.LVL56:
  55:src/kernel/testing/slab_test.cpp ****         KPRINTARR(buff_arr, i, buff_arr[i]);
 497              		.loc 1 55 19
 498 03b8 93143900 		slli	s1,s2,3
 499 03bc B3849A00 		add	s1,s5,s1
  55:src/kernel/testing/slab_test.cpp ****         KPRINTARR(buff_arr, i, buff_arr[i]);
 500              		.loc 1 55 59
 501 03c0 93050A00 		mv	a1,s4
 502 03c4 97000000 		call	_ZN13SlabAllocator7kmallocEm
 502      E7800000 
 503              	.LVL57:
  55:src/kernel/testing/slab_test.cpp ****         KPRINTARR(buff_arr, i, buff_arr[i]);
 504              		.loc 1 55 21
 505 03cc 23B0A400 		sd	a0,0(s1)
  56:src/kernel/testing/slab_test.cpp ****         if(buff_arr[i] == nullptr){
 506              		.loc 1 56 9 is_stmt 1
 507 03d0 17050000 		lla	a0,.LC13
 507      13050500 
 508 03d8 97000000 		call	_Z12kprintStringPKc
 508      E7800000 
 509              	.LVL58:
  56:src/kernel/testing/slab_test.cpp ****         if(buff_arr[i] == nullptr){
 510              		.loc 1 56 9
 511 03e0 13060000 		li	a2,0
 512 03e4 9305A000 		li	a1,10
 513 03e8 13050900 		mv	a0,s2
 514 03ec 97000000 		call	_Z9kprintIntmib
 514      E7800000 
 515              	.LVL59:
  56:src/kernel/testing/slab_test.cpp ****         if(buff_arr[i] == nullptr){
 516              		.loc 1 56 9
 517 03f4 17050000 		lla	a0,.LC5
 517      13050500 
 518 03fc 97000000 		call	_Z12kprintStringPKc
 518      E7800000 
 519              	.LVL60:
  56:src/kernel/testing/slab_test.cpp ****         if(buff_arr[i] == nullptr){
 520              		.loc 1 56 9
 521 0404 13060000 		li	a2,0
 522 0408 93050001 		li	a1,16
 523 040c 03B50400 		ld	a0,0(s1)
 524 0410 97000000 		call	_Z9kprintIntmib
 524      E7800000 
 525              	.LVL61:
  56:src/kernel/testing/slab_test.cpp ****         if(buff_arr[i] == nullptr){
 526              		.loc 1 56 9
 527 0418 17050000 		lla	a0,.LC6
 527      13050500 
 528 0420 97000000 		call	_Z12kprintStringPKc
GAS LISTING /tmp/ccPu3Im8.s 			page 16


 528      E7800000 
 529              	.LVL62:
  57:src/kernel/testing/slab_test.cpp ****             kprintString("Not enough memory left!\n");
 530              		.loc 1 57 9
  57:src/kernel/testing/slab_test.cpp ****             kprintString("Not enough memory left!\n");
 531              		.loc 1 57 22 is_stmt 0
 532 0428 83B70400 		ld	a5,0(s1)
  57:src/kernel/testing/slab_test.cpp ****             kprintString("Not enough memory left!\n");
 533              		.loc 1 57 9
 534 042c 63860700 		beq	a5,zero,.L25
  54:src/kernel/testing/slab_test.cpp ****         buff_arr[i] = SlabAllocator::getInstance().kmalloc(objsize);
 535              		.loc 1 54 5 discriminator 2
 536 0430 1B091900 		addiw	s2,s2,1
 537              	.LVL63:
 538 0434 6FF09FF7 		j	.L23
 539              	.LVL64:
 540              	.L25:
  58:src/kernel/testing/slab_test.cpp ****             return;
 541              		.loc 1 58 13 is_stmt 1
  58:src/kernel/testing/slab_test.cpp ****             return;
 542              		.loc 1 58 25 is_stmt 0
 543 0438 17050000 		lla	a0,.LC7
 543      13050500 
 544 0440 97000000 		call	_Z12kprintStringPKc
 544      E7800000 
 545              	.LVL65:
  59:src/kernel/testing/slab_test.cpp ****         }
 546              		.loc 1 59 13 is_stmt 1
 547 0448 6F008002 		j	.L19
 548              	.L20:
 549              	.LBE25:
  62:src/kernel/testing/slab_test.cpp ****     kprintString("\n\n===========SMALL MEMORY BUFFER ALLOC END===========\n\n");
 550              		.loc 1 62 5
  62:src/kernel/testing/slab_test.cpp ****     kprintString("\n\n===========SMALL MEMORY BUFFER ALLOC END===========\n\n");
 551              		.loc 1 62 25 is_stmt 0
 552 044c 97000000 		call	_ZN13SlabAllocator11getInstanceEv
 552      E7800000 
 553              	.LVL66:
  62:src/kernel/testing/slab_test.cpp ****     kprintString("\n\n===========SMALL MEMORY BUFFER ALLOC END===========\n\n");
 554              		.loc 1 62 38
 555 0454 93050B00 		mv	a1,s6
 556 0458 97000000 		call	_ZN13SlabAllocator11print_stateEc
 556      E7800000 
 557              	.LVL67:
  63:src/kernel/testing/slab_test.cpp ****     
 558              		.loc 1 63 5 is_stmt 1
  63:src/kernel/testing/slab_test.cpp ****     
 559              		.loc 1 63 17 is_stmt 0
 560 0460 17050000 		lla	a0,.LC14
 560      13050500 
 561 0468 97000000 		call	_Z12kprintStringPKc
 561      E7800000 
 562              	.LVL68:
 563              	.L19:
  65:src/kernel/testing/slab_test.cpp **** 
 564              		.loc 1 65 1
 565 0470 83308103 		ld	ra,56(sp)
GAS LISTING /tmp/ccPu3Im8.s 			page 17


 566              		.cfi_restore 1
 567 0474 03340103 		ld	s0,48(sp)
 568              		.cfi_restore 8
 569              		.cfi_def_cfa 2, 64
 570 0478 83348102 		ld	s1,40(sp)
 571              		.cfi_restore 9
 572 047c 03390102 		ld	s2,32(sp)
 573              		.cfi_restore 18
 574              	.LVL69:
 575 0480 83398101 		ld	s3,24(sp)
 576              		.cfi_restore 19
 577 0484 033A0101 		ld	s4,16(sp)
 578              		.cfi_restore 20
 579              	.LVL70:
 580 0488 833A8100 		ld	s5,8(sp)
 581              		.cfi_restore 21
 582              	.LVL71:
 583 048c 033B0100 		ld	s6,0(sp)
 584              		.cfi_restore 22
 585 0490 13010104 		addi	sp,sp,64
 586              		.cfi_def_cfa_offset 0
 587 0494 67800000 		jr	ra
 588              		.cfi_endproc
 589              	.LFE115:
 591              		.align	2
 592              		.globl	_Z10kfree_testPPvic
 594              	_Z10kfree_testPPvic:
 595              	.LFB116:
  69:src/kernel/testing/slab_test.cpp ****     kprintString("\n\n=============SMALL MEMORY BUFFER DEALLOC=============\n\n");
 596              		.loc 1 69 77 is_stmt 1
 597              		.cfi_startproc
 598              	.LVL72:
 599 0498 130101FC 		addi	sp,sp,-64
 600              		.cfi_def_cfa_offset 64
 601 049c 233C1102 		sd	ra,56(sp)
 602 04a0 23388102 		sd	s0,48(sp)
 603 04a4 23349102 		sd	s1,40(sp)
 604 04a8 23302103 		sd	s2,32(sp)
 605 04ac 233C3101 		sd	s3,24(sp)
 606 04b0 23384101 		sd	s4,16(sp)
 607 04b4 23345101 		sd	s5,8(sp)
 608              		.cfi_offset 1, -8
 609              		.cfi_offset 8, -16
 610              		.cfi_offset 9, -24
 611              		.cfi_offset 18, -32
 612              		.cfi_offset 19, -40
 613              		.cfi_offset 20, -48
 614              		.cfi_offset 21, -56
 615 04b8 13040104 		addi	s0,sp,64
 616              		.cfi_def_cfa 8, 0
 617 04bc 130A0500 		mv	s4,a0
 618 04c0 93890500 		mv	s3,a1
 619 04c4 930A0600 		mv	s5,a2
  70:src/kernel/testing/slab_test.cpp ****     
 620              		.loc 1 70 5
  70:src/kernel/testing/slab_test.cpp ****     
 621              		.loc 1 70 17 is_stmt 0
GAS LISTING /tmp/ccPu3Im8.s 			page 18


 622 04c8 17050000 		lla	a0,.LC15
 622      13050500 
 623              	.LVL73:
 624 04d0 97000000 		call	_Z12kprintStringPKc
 624      E7800000 
 625              	.LVL74:
  72:src/kernel/testing/slab_test.cpp ****         if(!buff_arr[i]){
 626              		.loc 1 72 5 is_stmt 1
 627              	.LBB26:
  72:src/kernel/testing/slab_test.cpp ****         if(!buff_arr[i]){
 628              		.loc 1 72 13 is_stmt 0
 629 04d8 13090000 		li	s2,0
 630              	.LVL75:
 631              	.L30:
  72:src/kernel/testing/slab_test.cpp ****         if(!buff_arr[i]){
 632              		.loc 1 72 22 discriminator 1
 633 04dc 635E3909 		bge	s2,s3,.L27
  73:src/kernel/testing/slab_test.cpp ****             kprintString("Invalid free address given!!");
 634              		.loc 1 73 9 is_stmt 1
  73:src/kernel/testing/slab_test.cpp ****             kprintString("Invalid free address given!!");
 635              		.loc 1 73 23 is_stmt 0
 636 04e0 93143900 		slli	s1,s2,3
 637 04e4 B3049A00 		add	s1,s4,s1
 638 04e8 83B70400 		ld	a5,0(s1)
  73:src/kernel/testing/slab_test.cpp ****             kprintString("Invalid free address given!!");
 639              		.loc 1 73 9
 640 04ec 638C0706 		beq	a5,zero,.L32
  77:src/kernel/testing/slab_test.cpp ****         SlabAl::getInstance().kfree(buff_arr[i]);
 641              		.loc 1 77 9 is_stmt 1 discriminator 2
 642 04f0 17050000 		lla	a0,.LC13
 642      13050500 
 643 04f8 97000000 		call	_Z12kprintStringPKc
 643      E7800000 
 644              	.LVL76:
  77:src/kernel/testing/slab_test.cpp ****         SlabAl::getInstance().kfree(buff_arr[i]);
 645              		.loc 1 77 9 discriminator 2
 646 0500 13060000 		li	a2,0
 647 0504 9305A000 		li	a1,10
 648 0508 13050900 		mv	a0,s2
 649 050c 97000000 		call	_Z9kprintIntmib
 649      E7800000 
 650              	.LVL77:
  77:src/kernel/testing/slab_test.cpp ****         SlabAl::getInstance().kfree(buff_arr[i]);
 651              		.loc 1 77 9 discriminator 2
 652 0514 17050000 		lla	a0,.LC5
 652      13050500 
 653 051c 97000000 		call	_Z12kprintStringPKc
 653      E7800000 
 654              	.LVL78:
  77:src/kernel/testing/slab_test.cpp ****         SlabAl::getInstance().kfree(buff_arr[i]);
 655              		.loc 1 77 9 discriminator 2
 656 0524 13060000 		li	a2,0
 657 0528 93050001 		li	a1,16
 658 052c 03B50400 		ld	a0,0(s1)
 659 0530 97000000 		call	_Z9kprintIntmib
 659      E7800000 
 660              	.LVL79:
GAS LISTING /tmp/ccPu3Im8.s 			page 19


  77:src/kernel/testing/slab_test.cpp ****         SlabAl::getInstance().kfree(buff_arr[i]);
 661              		.loc 1 77 9 discriminator 2
 662 0538 17050000 		lla	a0,.LC6
 662      13050500 
 663 0540 97000000 		call	_Z12kprintStringPKc
 663      E7800000 
 664              	.LVL80:
  78:src/kernel/testing/slab_test.cpp ****     }
 665              		.loc 1 78 9 discriminator 2
  78:src/kernel/testing/slab_test.cpp ****     }
 666              		.loc 1 78 29 is_stmt 0 discriminator 2
 667 0548 97000000 		call	_ZN13SlabAllocator11getInstanceEv
 667      E7800000 
 668              	.LVL81:
  78:src/kernel/testing/slab_test.cpp ****     }
 669              		.loc 1 78 36 discriminator 2
 670 0550 83B50400 		ld	a1,0(s1)
 671 0554 97000000 		call	_ZN13SlabAllocator5kfreeEPv
 671      E7800000 
 672              	.LVL82:
  72:src/kernel/testing/slab_test.cpp ****         if(!buff_arr[i]){
 673              		.loc 1 72 5 discriminator 2
 674 055c 1B091900 		addiw	s2,s2,1
 675              	.LVL83:
 676 0560 6FF0DFF7 		j	.L30
 677              	.LVL84:
 678              	.L32:
  74:src/kernel/testing/slab_test.cpp ****             return;
 679              		.loc 1 74 13 is_stmt 1
  74:src/kernel/testing/slab_test.cpp ****             return;
 680              		.loc 1 74 25 is_stmt 0
 681 0564 17050000 		lla	a0,.LC16
 681      13050500 
 682 056c 97000000 		call	_Z12kprintStringPKc
 682      E7800000 
 683              	.LVL85:
  75:src/kernel/testing/slab_test.cpp ****         }
 684              		.loc 1 75 13 is_stmt 1
 685 0574 6F008002 		j	.L26
 686              	.L27:
 687              	.LBE26:
  80:src/kernel/testing/slab_test.cpp **** 
 688              		.loc 1 80 5
  80:src/kernel/testing/slab_test.cpp **** 
 689              		.loc 1 80 25 is_stmt 0
 690 0578 97000000 		call	_ZN13SlabAllocator11getInstanceEv
 690      E7800000 
 691              	.LVL86:
  80:src/kernel/testing/slab_test.cpp **** 
 692              		.loc 1 80 38
 693 0580 93850A00 		mv	a1,s5
 694 0584 97000000 		call	_ZN13SlabAllocator11print_stateEc
 694      E7800000 
 695              	.LVL87:
  82:src/kernel/testing/slab_test.cpp ****     
 696              		.loc 1 82 5 is_stmt 1
  82:src/kernel/testing/slab_test.cpp ****     
GAS LISTING /tmp/ccPu3Im8.s 			page 20


 697              		.loc 1 82 17 is_stmt 0
 698 058c 17050000 		lla	a0,.LC17
 698      13050500 
 699 0594 97000000 		call	_Z12kprintStringPKc
 699      E7800000 
 700              	.LVL88:
 701              	.L26:
  84:src/kernel/testing/slab_test.cpp **** 
 702              		.loc 1 84 1
 703 059c 83308103 		ld	ra,56(sp)
 704              		.cfi_restore 1
 705 05a0 03340103 		ld	s0,48(sp)
 706              		.cfi_restore 8
 707              		.cfi_def_cfa 2, 64
 708 05a4 83348102 		ld	s1,40(sp)
 709              		.cfi_restore 9
 710 05a8 03390102 		ld	s2,32(sp)
 711              		.cfi_restore 18
 712              	.LVL89:
 713 05ac 83398101 		ld	s3,24(sp)
 714              		.cfi_restore 19
 715 05b0 033A0101 		ld	s4,16(sp)
 716              		.cfi_restore 20
 717              	.LVL90:
 718 05b4 833A8100 		ld	s5,8(sp)
 719              		.cfi_restore 21
 720 05b8 13010104 		addi	sp,sp,64
 721              		.cfi_def_cfa_offset 0
 722 05bc 67800000 		jr	ra
 723              		.cfi_endproc
 724              	.LFE116:
 726              		.align	2
 727              		.globl	_Z25slab_allocator_state_ceckc
 729              	_Z25slab_allocator_state_ceckc:
 730              	.LFB117:
  88:src/kernel/testing/slab_test.cpp ****     kprintString("\n\n=============Slab Allocator State Check=============\n\n");
 731              		.loc 1 88 65 is_stmt 1
 732              		.cfi_startproc
 733              	.LVL91:
 734 05c0 130101FE 		addi	sp,sp,-32
 735              		.cfi_def_cfa_offset 32
 736 05c4 233C1100 		sd	ra,24(sp)
 737 05c8 23388100 		sd	s0,16(sp)
 738 05cc 23349100 		sd	s1,8(sp)
 739              		.cfi_offset 1, -8
 740              		.cfi_offset 8, -16
 741              		.cfi_offset 9, -24
 742 05d0 13040102 		addi	s0,sp,32
 743              		.cfi_def_cfa 8, 0
 744 05d4 93040500 		mv	s1,a0
  89:src/kernel/testing/slab_test.cpp ****     
 745              		.loc 1 89 5
  89:src/kernel/testing/slab_test.cpp ****     
 746              		.loc 1 89 17 is_stmt 0
 747 05d8 17050000 		lla	a0,.LC18
 747      13050500 
 748              	.LVL92:
GAS LISTING /tmp/ccPu3Im8.s 			page 21


 749 05e0 97000000 		call	_Z12kprintStringPKc
 749      E7800000 
 750              	.LVL93:
  91:src/kernel/testing/slab_test.cpp ****     
 751              		.loc 1 91 5 is_stmt 1
  91:src/kernel/testing/slab_test.cpp ****     
 752              		.loc 1 91 25 is_stmt 0
 753 05e8 97000000 		call	_ZN13SlabAllocator11getInstanceEv
 753      E7800000 
 754              	.LVL94:
  91:src/kernel/testing/slab_test.cpp ****     
 755              		.loc 1 91 38
 756 05f0 93850400 		mv	a1,s1
 757 05f4 97000000 		call	_ZN13SlabAllocator11print_stateEc
 757      E7800000 
 758              	.LVL95:
  93:src/kernel/testing/slab_test.cpp **** }
 759              		.loc 1 93 5 is_stmt 1
  93:src/kernel/testing/slab_test.cpp **** }
 760              		.loc 1 93 17 is_stmt 0
 761 05fc 17050000 		lla	a0,.LC19
 761      13050500 
 762 0604 97000000 		call	_Z12kprintStringPKc
 762      E7800000 
 763              	.LVL96:
  94:src/kernel/testing/slab_test.cpp **** 
 764              		.loc 1 94 1
 765 060c 83308101 		ld	ra,24(sp)
 766              		.cfi_restore 1
 767 0610 03340101 		ld	s0,16(sp)
 768              		.cfi_restore 8
 769              		.cfi_def_cfa 2, 32
 770 0614 83348100 		ld	s1,8(sp)
 771              		.cfi_restore 9
 772 0618 13010102 		addi	sp,sp,32
 773              		.cfi_def_cfa_offset 0
 774 061c 67800000 		jr	ra
 775              		.cfi_endproc
 776              	.LFE117:
 778              		.align	2
 779              		.globl	_Z20cache_obj_alloc_testPPviP11ObjectCachec
 781              	_Z20cache_obj_alloc_testPPviP11ObjectCachec:
 782              	.LFB118:
  98:src/kernel/testing/slab_test.cpp ****     kprintString("\n\n=============Object Allocate Test=============\n\n");
 783              		.loc 1 98 83 is_stmt 1
 784              		.cfi_startproc
 785              	.LVL97:
 786 0620 130101FC 		addi	sp,sp,-64
 787              		.cfi_def_cfa_offset 64
 788 0624 233C1102 		sd	ra,56(sp)
 789 0628 23388102 		sd	s0,48(sp)
 790 062c 23349102 		sd	s1,40(sp)
 791 0630 23302103 		sd	s2,32(sp)
 792 0634 233C3101 		sd	s3,24(sp)
 793 0638 23384101 		sd	s4,16(sp)
 794 063c 23345101 		sd	s5,8(sp)
 795 0640 23306101 		sd	s6,0(sp)
GAS LISTING /tmp/ccPu3Im8.s 			page 22


 796              		.cfi_offset 1, -8
 797              		.cfi_offset 8, -16
 798              		.cfi_offset 9, -24
 799              		.cfi_offset 18, -32
 800              		.cfi_offset 19, -40
 801              		.cfi_offset 20, -48
 802              		.cfi_offset 21, -56
 803              		.cfi_offset 22, -64
 804 0644 13040104 		addi	s0,sp,64
 805              		.cfi_def_cfa 8, 0
 806 0648 930A0500 		mv	s5,a0
 807 064c 138A0500 		mv	s4,a1
 808 0650 93090600 		mv	s3,a2
 809 0654 138B0600 		mv	s6,a3
  99:src/kernel/testing/slab_test.cpp ****     
 810              		.loc 1 99 5
  99:src/kernel/testing/slab_test.cpp ****     
 811              		.loc 1 99 17 is_stmt 0
 812 0658 17050000 		lla	a0,.LC20
 812      13050500 
 813              	.LVL98:
 814 0660 97000000 		call	_Z12kprintStringPKc
 814      E7800000 
 815              	.LVL99:
 101:src/kernel/testing/slab_test.cpp ****         object[i] = cache->alloc_obj();
 816              		.loc 1 101 5 is_stmt 1
 817              	.LBB27:
 101:src/kernel/testing/slab_test.cpp ****         object[i] = cache->alloc_obj();
 818              		.loc 1 101 13 is_stmt 0
 819 0668 93040000 		li	s1,0
 820              	.LVL100:
 821              	.L39:
 101:src/kernel/testing/slab_test.cpp ****         object[i] = cache->alloc_obj();
 822              		.loc 1 101 22 discriminator 1
 823 066c 63DA4409 		bge	s1,s4,.L36
 102:src/kernel/testing/slab_test.cpp ****         if(!object[i]){
 824              		.loc 1 102 9 is_stmt 1
 102:src/kernel/testing/slab_test.cpp ****         if(!object[i]){
 825              		.loc 1 102 17 is_stmt 0
 826 0670 13993400 		slli	s2,s1,3
 827 0674 33892A01 		add	s2,s5,s2
 102:src/kernel/testing/slab_test.cpp ****         if(!object[i]){
 828              		.loc 1 102 37
 829 0678 13850900 		mv	a0,s3
 830 067c 97000000 		call	_ZN11ObjectCache9alloc_objEv
 830      E7800000 
 831              	.LVL101:
 102:src/kernel/testing/slab_test.cpp ****         if(!object[i]){
 832              		.loc 1 102 19
 833 0684 2330A900 		sd	a0,0(s2)
 103:src/kernel/testing/slab_test.cpp ****             kprintString("Object not corresctly allocated!!\n");   
 834              		.loc 1 103 9 is_stmt 1
 835 0688 63020506 		beq	a0,zero,.L41
 107:src/kernel/testing/slab_test.cpp ****     }
 836              		.loc 1 107 9 discriminator 2
 837 068c 17050000 		lla	a0,.LC22
 837      13050500 
GAS LISTING /tmp/ccPu3Im8.s 			page 23


 838 0694 97000000 		call	_Z12kprintStringPKc
 838      E7800000 
 839              	.LVL102:
 107:src/kernel/testing/slab_test.cpp ****     }
 840              		.loc 1 107 9 discriminator 2
 841 069c 13060000 		li	a2,0
 842 06a0 9305A000 		li	a1,10
 843 06a4 13850400 		mv	a0,s1
 844 06a8 97000000 		call	_Z9kprintIntmib
 844      E7800000 
 845              	.LVL103:
 107:src/kernel/testing/slab_test.cpp ****     }
 846              		.loc 1 107 9 discriminator 2
 847 06b0 17050000 		lla	a0,.LC5
 847      13050500 
 848 06b8 97000000 		call	_Z12kprintStringPKc
 848      E7800000 
 849              	.LVL104:
 107:src/kernel/testing/slab_test.cpp ****     }
 850              		.loc 1 107 9 discriminator 2
 851 06c0 13060000 		li	a2,0
 852 06c4 93050001 		li	a1,16
 853 06c8 03350900 		ld	a0,0(s2)
 854 06cc 97000000 		call	_Z9kprintIntmib
 854      E7800000 
 855              	.LVL105:
 107:src/kernel/testing/slab_test.cpp ****     }
 856              		.loc 1 107 9 discriminator 2
 857 06d4 17050000 		lla	a0,.LC6
 857      13050500 
 858 06dc 97000000 		call	_Z12kprintStringPKc
 858      E7800000 
 859              	.LVL106:
 101:src/kernel/testing/slab_test.cpp ****         object[i] = cache->alloc_obj();
 860              		.loc 1 101 5 is_stmt 0 discriminator 2
 861 06e4 9B841400 		addiw	s1,s1,1
 862              	.LVL107:
 863 06e8 6FF05FF8 		j	.L39
 864              	.LVL108:
 865              	.L41:
 104:src/kernel/testing/slab_test.cpp ****             return;
 866              		.loc 1 104 13 is_stmt 1
 104:src/kernel/testing/slab_test.cpp ****             return;
 867              		.loc 1 104 25 is_stmt 0
 868 06ec 17050000 		lla	a0,.LC21
 868      13050500 
 869 06f4 97000000 		call	_Z12kprintStringPKc
 869      E7800000 
 870              	.LVL109:
 105:src/kernel/testing/slab_test.cpp ****         }
 871              		.loc 1 105 13 is_stmt 1
 872 06fc 6F000003 		j	.L35
 873              	.L36:
 874              	.LBE27:
 109:src/kernel/testing/slab_test.cpp ****     slab_allocator_state_ceck(flags);
 875              		.loc 1 109 5
 109:src/kernel/testing/slab_test.cpp ****     slab_allocator_state_ceck(flags);
GAS LISTING /tmp/ccPu3Im8.s 			page 24


 876              		.loc 1 109 21 is_stmt 0
 877 0700 93050B00 		mv	a1,s6
 878 0704 13850900 		mv	a0,s3
 879 0708 97000000 		call	_ZN11ObjectCache9printInfoEc
 879      E7800000 
 880              	.LVL110:
 110:src/kernel/testing/slab_test.cpp **** 
 881              		.loc 1 110 5 is_stmt 1
 110:src/kernel/testing/slab_test.cpp **** 
 882              		.loc 1 110 30 is_stmt 0
 883 0710 13050B00 		mv	a0,s6
 884 0714 97000000 		call	_Z25slab_allocator_state_ceckc
 884      E7800000 
 885              	.LVL111:
 112:src/kernel/testing/slab_test.cpp ****     
 886              		.loc 1 112 5 is_stmt 1
 112:src/kernel/testing/slab_test.cpp ****     
 887              		.loc 1 112 17 is_stmt 0
 888 071c 17050000 		lla	a0,.LC23
 888      13050500 
 889 0724 97000000 		call	_Z12kprintStringPKc
 889      E7800000 
 890              	.LVL112:
 891              	.L35:
 114:src/kernel/testing/slab_test.cpp **** 
 892              		.loc 1 114 1
 893 072c 83308103 		ld	ra,56(sp)
 894              		.cfi_restore 1
 895 0730 03340103 		ld	s0,48(sp)
 896              		.cfi_restore 8
 897              		.cfi_def_cfa 2, 64
 898 0734 83348102 		ld	s1,40(sp)
 899              		.cfi_restore 9
 900              	.LVL113:
 901 0738 03390102 		ld	s2,32(sp)
 902              		.cfi_restore 18
 903 073c 83398101 		ld	s3,24(sp)
 904              		.cfi_restore 19
 905              	.LVL114:
 906 0740 033A0101 		ld	s4,16(sp)
 907              		.cfi_restore 20
 908 0744 833A8100 		ld	s5,8(sp)
 909              		.cfi_restore 21
 910              	.LVL115:
 911 0748 033B0100 		ld	s6,0(sp)
 912              		.cfi_restore 22
 913 074c 13010104 		addi	sp,sp,64
 914              		.cfi_def_cfa_offset 0
 915 0750 67800000 		jr	ra
 916              		.cfi_endproc
 917              	.LFE118:
 919              		.align	2
 920              		.globl	_Z23cache_obj_dealloca_testPPviP11ObjectCachec
 922              	_Z23cache_obj_dealloca_testPPviP11ObjectCachec:
 923              	.LFB119:
 118:src/kernel/testing/slab_test.cpp **** 
 924              		.loc 1 118 86 is_stmt 1
GAS LISTING /tmp/ccPu3Im8.s 			page 25


 925              		.cfi_startproc
 926              	.LVL116:
 927 0754 130101FC 		addi	sp,sp,-64
 928              		.cfi_def_cfa_offset 64
 929 0758 233C1102 		sd	ra,56(sp)
 930 075c 23388102 		sd	s0,48(sp)
 931 0760 23349102 		sd	s1,40(sp)
 932 0764 23302103 		sd	s2,32(sp)
 933 0768 233C3101 		sd	s3,24(sp)
 934 076c 23384101 		sd	s4,16(sp)
 935 0770 23345101 		sd	s5,8(sp)
 936 0774 23306101 		sd	s6,0(sp)
 937              		.cfi_offset 1, -8
 938              		.cfi_offset 8, -16
 939              		.cfi_offset 9, -24
 940              		.cfi_offset 18, -32
 941              		.cfi_offset 19, -40
 942              		.cfi_offset 20, -48
 943              		.cfi_offset 21, -56
 944              		.cfi_offset 22, -64
 945 0778 13040104 		addi	s0,sp,64
 946              		.cfi_def_cfa 8, 0
 947 077c 930A0500 		mv	s5,a0
 948 0780 93890500 		mv	s3,a1
 949 0784 130A0600 		mv	s4,a2
 950 0788 138B0600 		mv	s6,a3
 120:src/kernel/testing/slab_test.cpp ****     
 951              		.loc 1 120 5
 120:src/kernel/testing/slab_test.cpp ****     
 952              		.loc 1 120 17 is_stmt 0
 953 078c 17050000 		lla	a0,.LC24
 953      13050500 
 954              	.LVL117:
 955 0794 97000000 		call	_Z12kprintStringPKc
 955      E7800000 
 956              	.LVL118:
 122:src/kernel/testing/slab_test.cpp ****         KPRINTARR(object, i, object[i]);
 957              		.loc 1 122 5 is_stmt 1
 958              	.LBB28:
 122:src/kernel/testing/slab_test.cpp ****         KPRINTARR(object, i, object[i]);
 959              		.loc 1 122 13 is_stmt 0
 960 079c 93040000 		li	s1,0
 961              	.LVL119:
 962              	.L46:
 122:src/kernel/testing/slab_test.cpp ****         KPRINTARR(object, i, object[i]);
 963              		.loc 1 122 22 discriminator 1
 964 07a0 63DA3409 		bge	s1,s3,.L43
 123:src/kernel/testing/slab_test.cpp ****         
 965              		.loc 1 123 9 is_stmt 1
 966 07a4 17050000 		lla	a0,.LC22
 966      13050500 
 967 07ac 97000000 		call	_Z12kprintStringPKc
 967      E7800000 
 968              	.LVL120:
 123:src/kernel/testing/slab_test.cpp ****         
 969              		.loc 1 123 9
 970 07b4 13060000 		li	a2,0
GAS LISTING /tmp/ccPu3Im8.s 			page 26


 971 07b8 9305A000 		li	a1,10
 972 07bc 13850400 		mv	a0,s1
 973 07c0 97000000 		call	_Z9kprintIntmib
 973      E7800000 
 974              	.LVL121:
 123:src/kernel/testing/slab_test.cpp ****         
 975              		.loc 1 123 9
 976 07c8 17050000 		lla	a0,.LC5
 976      13050500 
 977 07d0 97000000 		call	_Z12kprintStringPKc
 977      E7800000 
 978              	.LVL122:
 123:src/kernel/testing/slab_test.cpp ****         
 979              		.loc 1 123 9
 980 07d8 13993400 		slli	s2,s1,3
 981 07dc 33892A01 		add	s2,s5,s2
 982 07e0 13060000 		li	a2,0
 983 07e4 93050001 		li	a1,16
 984 07e8 03350900 		ld	a0,0(s2)
 985 07ec 97000000 		call	_Z9kprintIntmib
 985      E7800000 
 986              	.LVL123:
 123:src/kernel/testing/slab_test.cpp ****         
 987              		.loc 1 123 9
 988 07f4 17050000 		lla	a0,.LC6
 988      13050500 
 989 07fc 97000000 		call	_Z12kprintStringPKc
 989      E7800000 
 990              	.LVL124:
 125:src/kernel/testing/slab_test.cpp ****             kprintString("Invalid object address!\n");   
 991              		.loc 1 125 9
 125:src/kernel/testing/slab_test.cpp ****             kprintString("Invalid object address!\n");   
 992              		.loc 1 125 21 is_stmt 0
 993 0804 83350900 		ld	a1,0(s2)
 125:src/kernel/testing/slab_test.cpp ****             kprintString("Invalid object address!\n");   
 994              		.loc 1 125 9
 995 0808 638C0500 		beq	a1,zero,.L48
 130:src/kernel/testing/slab_test.cpp ****         
 996              		.loc 1 130 9 is_stmt 1 discriminator 2
 130:src/kernel/testing/slab_test.cpp ****         
 997              		.loc 1 130 24 is_stmt 0 discriminator 2
 998 080c 13050A00 		mv	a0,s4
 999 0810 97000000 		call	_ZN11ObjectCache8free_objEPv
 999      E7800000 
 1000              	.LVL125:
 122:src/kernel/testing/slab_test.cpp ****         KPRINTARR(object, i, object[i]);
 1001              		.loc 1 122 5 discriminator 2
 1002 0818 9B841400 		addiw	s1,s1,1
 1003              	.LVL126:
 1004 081c 6FF05FF8 		j	.L46
 1005              	.LVL127:
 1006              	.L48:
 126:src/kernel/testing/slab_test.cpp ****             return;
 1007              		.loc 1 126 13 is_stmt 1
 126:src/kernel/testing/slab_test.cpp ****             return;
 1008              		.loc 1 126 25 is_stmt 0
 1009 0820 17050000 		lla	a0,.LC25
GAS LISTING /tmp/ccPu3Im8.s 			page 27


 1009      13050500 
 1010 0828 97000000 		call	_Z12kprintStringPKc
 1010      E7800000 
 1011              	.LVL128:
 127:src/kernel/testing/slab_test.cpp ****         }
 1012              		.loc 1 127 13 is_stmt 1
 1013 0830 6F000003 		j	.L42
 1014              	.L43:
 1015              	.LBE28:
 133:src/kernel/testing/slab_test.cpp ****     slab_allocator_state_ceck(flags);
 1016              		.loc 1 133 5
 133:src/kernel/testing/slab_test.cpp ****     slab_allocator_state_ceck(flags);
 1017              		.loc 1 133 21 is_stmt 0
 1018 0834 93050B00 		mv	a1,s6
 1019 0838 13050A00 		mv	a0,s4
 1020 083c 97000000 		call	_ZN11ObjectCache9printInfoEc
 1020      E7800000 
 1021              	.LVL129:
 134:src/kernel/testing/slab_test.cpp **** 
 1022              		.loc 1 134 5 is_stmt 1
 134:src/kernel/testing/slab_test.cpp **** 
 1023              		.loc 1 134 30 is_stmt 0
 1024 0844 13050B00 		mv	a0,s6
 1025 0848 97000000 		call	_Z25slab_allocator_state_ceckc
 1025      E7800000 
 1026              	.LVL130:
 136:src/kernel/testing/slab_test.cpp ****     
 1027              		.loc 1 136 5 is_stmt 1
 136:src/kernel/testing/slab_test.cpp ****     
 1028              		.loc 1 136 17 is_stmt 0
 1029 0850 17050000 		lla	a0,.LC26
 1029      13050500 
 1030 0858 97000000 		call	_Z12kprintStringPKc
 1030      E7800000 
 1031              	.LVL131:
 1032              	.L42:
 138:src/kernel/testing/slab_test.cpp **** 
 1033              		.loc 1 138 1
 1034 0860 83308103 		ld	ra,56(sp)
 1035              		.cfi_restore 1
 1036 0864 03340103 		ld	s0,48(sp)
 1037              		.cfi_restore 8
 1038              		.cfi_def_cfa 2, 64
 1039 0868 83348102 		ld	s1,40(sp)
 1040              		.cfi_restore 9
 1041              	.LVL132:
 1042 086c 03390102 		ld	s2,32(sp)
 1043              		.cfi_restore 18
 1044 0870 83398101 		ld	s3,24(sp)
 1045              		.cfi_restore 19
 1046 0874 033A0101 		ld	s4,16(sp)
 1047              		.cfi_restore 20
 1048              	.LVL133:
 1049 0878 833A8100 		ld	s5,8(sp)
 1050              		.cfi_restore 21
 1051              	.LVL134:
 1052 087c 033B0100 		ld	s6,0(sp)
GAS LISTING /tmp/ccPu3Im8.s 			page 28


 1053              		.cfi_restore 22
 1054 0880 13010104 		addi	sp,sp,64
 1055              		.cfi_def_cfa_offset 0
 1056 0884 67800000 		jr	ra
 1057              		.cfi_endproc
 1058              	.LFE119:
 1060              		.align	2
 1061              		.globl	_Z9slab_testv
 1063              	_Z9slab_testv:
 1064              	.LFB121:
 145:src/kernel/testing/slab_test.cpp **** 
 146:src/kernel/testing/slab_test.cpp **** 
 147:src/kernel/testing/slab_test.cpp **** void slab_test(){
 1065              		.loc 1 147 17 is_stmt 1
 1066              		.cfi_startproc
 1067              		.cfi_personality 0x9b,DW.ref.__gxx_personality_v0
 1068              		.cfi_lsda 0x1b,.LLSDA121
 1069 0888 130101F4 		addi	sp,sp,-192
 1070              		.cfi_def_cfa_offset 192
 1071 088c 233C110A 		sd	ra,184(sp)
 1072 0890 2338810A 		sd	s0,176(sp)
 1073 0894 2334910A 		sd	s1,168(sp)
 1074 0898 2330210B 		sd	s2,160(sp)
 1075              		.cfi_offset 1, -8
 1076              		.cfi_offset 8, -16
 1077              		.cfi_offset 9, -24
 1078              		.cfi_offset 18, -32
 1079 089c 1304010C 		addi	s0,sp,192
 1080              		.cfi_def_cfa 8, 0
 148:src/kernel/testing/slab_test.cpp ****     kprintString("\n\n--------SLAB TEST--------\n\n");
 1081              		.loc 1 148 5
 1082              		.loc 1 148 17 is_stmt 0
 1083 08a0 17050000 		lla	a0,.LC27
 1083      13050500 
 1084              	.LEHB4:
 1085 08a8 97000000 		call	_Z12kprintStringPKc
 1085      E7800000 
 1086              	.LVL135:
 149:src/kernel/testing/slab_test.cpp ****     
 150:src/kernel/testing/slab_test.cpp ****     kprintString("Slab Allocator init!\n");
 1087              		.loc 1 150 5 is_stmt 1
 1088              		.loc 1 150 17 is_stmt 0
 1089 08b0 17050000 		lla	a0,.LC28
 1089      13050500 
 1090 08b8 97000000 		call	_Z12kprintStringPKc
 1090      E7800000 
 1091              	.LVL136:
 151:src/kernel/testing/slab_test.cpp ****     SlabAl::getInstance();
 1092              		.loc 1 151 5 is_stmt 1
 1093              		.loc 1 151 25 is_stmt 0
 1094 08c0 97000000 		call	_ZN13SlabAllocator11getInstanceEv
 1094      E7800000 
 1095              	.LVL137:
 152:src/kernel/testing/slab_test.cpp ****     
 153:src/kernel/testing/slab_test.cpp ****     // slab_allocator_state_ceck(Slab::pb_mask::ALLOC);
 154:src/kernel/testing/slab_test.cpp ****     
 155:src/kernel/testing/slab_test.cpp ****     char flagAllocFree = Slab::pb_mask::ALLOC | Slab::pb_mask::FREE;
GAS LISTING /tmp/ccPu3Im8.s 			page 29


 1096              		.loc 1 155 5 is_stmt 1
 156:src/kernel/testing/slab_test.cpp **** 
 157:src/kernel/testing/slab_test.cpp ****      int size = 10;
 1097              		.loc 1 157 6
 158:src/kernel/testing/slab_test.cpp ****      ObjectCache** oc = (ObjectCache**)NoAlloc::mem_alloc(size*sizeof(ObjectCache*));
 1098              		.loc 1 158 6
 1099              		.loc 1 158 58 is_stmt 0
 1100 08c8 13050005 		li	a0,80
 1101 08cc 97000000 		call	_ZN7NoAlloc9mem_allocEm
 1101      E7800000 
 1102              	.LVL138:
 1103 08d4 13090500 		mv	s2,a0
 1104              	.LVL139:
 159:src/kernel/testing/slab_test.cpp ****      cache_alloc_test(oc, size, 32, flagAllocFree);
 1105              		.loc 1 159 6 is_stmt 1
 1106              		.loc 1 159 22 is_stmt 0
 1107 08d8 93063000 		li	a3,3
 1108 08dc 13060002 		li	a2,32
 1109 08e0 9305A000 		li	a1,10
 1110 08e4 97000000 		call	_Z16cache_alloc_testPP11ObjectCacheimc
 1110      E7800000 
 1111              	.LVL140:
 160:src/kernel/testing/slab_test.cpp **** 
 161:src/kernel/testing/slab_test.cpp ****     //int obj_num = 20;
 162:src/kernel/testing/slab_test.cpp ****     KSemaphore* x[20];
 1112              		.loc 1 162 5 is_stmt 1
 163:src/kernel/testing/slab_test.cpp ****     ObjectCache* semaphore_cache = new ObjectCache("ksemaphore_cache", sizeof(KSemaphore), ctor, nu
 1113              		.loc 1 163 5
 1114              		.loc 1 163 105 is_stmt 0
 1115 08ec 13058005 		li	a0,88
 1116 08f0 97000000 		call	_ZN11ObjectCachenwEm
 1116      E7800000 
 1117              	.LVL141:
 1118              	.LEHE4:
 1119 08f8 93040500 		mv	s1,a0
 1120 08fc 93070000 		li	a5,0
 1121 0900 13070000 		li	a4,0
 1122 0904 97060000 		lla	a3,_Z4ctorPv
 1122      93860600 
 1123 090c 13068002 		li	a2,40
 1124 0910 97050000 		lla	a1,.LC29
 1124      93850500 
 1125              	.LEHB5:
 1126 0918 97000000 		call	_ZN11ObjectCacheC1EPKcmPFvPvES4_NS_12SlabMetaTypeE
 1126      E7800000 
 1127              	.LVL142:
 1128              	.LEHE5:
 164:src/kernel/testing/slab_test.cpp **** 
 165:src/kernel/testing/slab_test.cpp ****     cache_obj_alloc_test((void**)x, 10, semaphore_cache, flagAllocFree);
 1129              		.loc 1 165 5 is_stmt 1 discriminator 3
 1130              		.loc 1 165 25 is_stmt 0 discriminator 3
 1131 0920 93063000 		li	a3,3
 1132 0924 13860400 		mv	a2,s1
 1133 0928 9305A000 		li	a1,10
 1134 092c 130504F4 		addi	a0,s0,-192
 1135              	.LEHB6:
 1136 0930 97000000 		call	_Z20cache_obj_alloc_testPPviP11ObjectCachec
GAS LISTING /tmp/ccPu3Im8.s 			page 30


 1136      E7800000 
 1137              	.LVL143:
 166:src/kernel/testing/slab_test.cpp **** 
 167:src/kernel/testing/slab_test.cpp ****     KCHECKPRINT(x[1]->get_val());
 1138              		.loc 1 167 5 is_stmt 1 discriminator 3
 1139 0938 17050000 		lla	a0,.LC30
 1139      13050500 
 1140 0940 97000000 		call	_Z12kprintStringPKc
 1140      E7800000 
 1141              	.LVL144:
 1142              		.loc 1 167 5 discriminator 3
 1143              	.LBB29:
 1144              	.LBB30:
  25:src/kernel/testing/../../../h/../h/ksemaphore.hpp ****         
  26:src/kernel/testing/../../../h/../h/ksemaphore.hpp ****     }
  27:src/kernel/testing/../../../h/../h/ksemaphore.hpp ****     
  28:src/kernel/testing/../../../h/../h/ksemaphore.hpp ****     int wait(); /* classic wait method */
  29:src/kernel/testing/../../../h/../h/ksemaphore.hpp ****     
  30:src/kernel/testing/../../../h/../h/ksemaphore.hpp ****     int signal(); /* classic signal method */
  31:src/kernel/testing/../../../h/../h/ksemaphore.hpp **** 
  32:src/kernel/testing/../../../h/../h/ksemaphore.hpp ****     unsigned get_val() { return val; } 
 1145              		.loc 2 32 26 discriminator 3
 1146              	.LBE30:
 1147              	.LBE29:
 1148              		.loc 1 167 5 is_stmt 0 discriminator 3
 1149 0948 13060000 		li	a2,0
 1150 094c 93050001 		li	a1,16
 1151 0950 833784F4 		ld	a5,-184(s0)
 1152 0954 03E58700 		lwu	a0,8(a5)
 1153 0958 97000000 		call	_Z9kprintIntmib
 1153      E7800000 
 1154              	.LVL145:
 1155              		.loc 1 167 5 is_stmt 1 discriminator 3
 1156 0960 17050000 		lla	a0,.LC6
 1156      13050500 
 1157 0968 97000000 		call	_Z12kprintStringPKc
 1157      E7800000 
 1158              	.LVL146:
 168:src/kernel/testing/slab_test.cpp ****     KCHECKPRINT(x[8]->get_val());
 1159              		.loc 1 168 5 discriminator 3
 1160 0970 17050000 		lla	a0,.LC31
 1160      13050500 
 1161 0978 97000000 		call	_Z12kprintStringPKc
 1161      E7800000 
 1162              	.LVL147:
 1163              		.loc 1 168 5 discriminator 3
 1164              	.LBB31:
 1165              	.LBB32:
 1166              		.loc 2 32 26 discriminator 3
 1167              	.LBE32:
 1168              	.LBE31:
 1169              		.loc 1 168 5 is_stmt 0 discriminator 3
 1170 0980 13060000 		li	a2,0
 1171 0984 93050001 		li	a1,16
 1172 0988 833704F8 		ld	a5,-128(s0)
 1173 098c 03E58700 		lwu	a0,8(a5)
 1174 0990 97000000 		call	_Z9kprintIntmib
GAS LISTING /tmp/ccPu3Im8.s 			page 31


 1174      E7800000 
 1175              	.LVL148:
 1176              		.loc 1 168 5 is_stmt 1 discriminator 3
 1177 0998 17050000 		lla	a0,.LC6
 1177      13050500 
 1178 09a0 97000000 		call	_Z12kprintStringPKc
 1178      E7800000 
 1179              	.LVL149:
 169:src/kernel/testing/slab_test.cpp **** 
 170:src/kernel/testing/slab_test.cpp ****     cache_dealloc_test(oc, size, flagAllocFree);
 1180              		.loc 1 170 5 discriminator 3
 1181              		.loc 1 170 23 is_stmt 0 discriminator 3
 1182 09a8 13063000 		li	a2,3
 1183 09ac 9305A000 		li	a1,10
 1184 09b0 13050900 		mv	a0,s2
 1185 09b4 97000000 		call	_Z18cache_dealloc_testPP11ObjectCacheic
 1185      E7800000 
 1186              	.LVL150:
 171:src/kernel/testing/slab_test.cpp **** 
 172:src/kernel/testing/slab_test.cpp ****     // void* buff_arr[18];
 173:src/kernel/testing/slab_test.cpp ****     // kmalloc_test(buff_arr, 18, 256, flagAllocFree);
 174:src/kernel/testing/slab_test.cpp ****     // kfree_test(buff_arr, 17, flagAllocFree);
 175:src/kernel/testing/slab_test.cpp **** 
 176:src/kernel/testing/slab_test.cpp ****     
 177:src/kernel/testing/slab_test.cpp ****     
 178:src/kernel/testing/slab_test.cpp ****    
 179:src/kernel/testing/slab_test.cpp ****    
 180:src/kernel/testing/slab_test.cpp ****     kprintString("\n\n------SLAB TEST END------\n\n");
 1187              		.loc 1 180 5 is_stmt 1 discriminator 3
 1188              		.loc 1 180 17 is_stmt 0 discriminator 3
 1189 09bc 17050000 		lla	a0,.LC32
 1189      13050500 
 1190 09c4 97000000 		call	_Z12kprintStringPKc
 1190      E7800000 
 1191              	.LVL151:
 1192              	.LEHE6:
 181:src/kernel/testing/slab_test.cpp **** 
 182:src/kernel/testing/slab_test.cpp **** 
 183:src/kernel/testing/slab_test.cpp **** }...
 1193              		.loc 1 183 1 discriminator 3
 1194 09cc 8330810B 		ld	ra,184(sp)
 1195              		.cfi_remember_state
 1196              		.cfi_restore 1
 1197 09d0 0334010B 		ld	s0,176(sp)
 1198              		.cfi_restore 8
 1199              		.cfi_def_cfa 2, 192
 1200 09d4 8334810A 		ld	s1,168(sp)
 1201              		.cfi_restore 9
 1202              	.LVL152:
 1203 09d8 0339010A 		ld	s2,160(sp)
 1204              		.cfi_restore 18
 1205              	.LVL153:
 1206 09dc 1301010C 		addi	sp,sp,192
 1207              		.cfi_def_cfa_offset 0
 1208 09e0 67800000 		jr	ra
 1209              	.LVL154:
 1210              	.L51:
GAS LISTING /tmp/ccPu3Im8.s 			page 32


 1211              		.cfi_restore_state
 1212 09e4 13090500 		mv	s2,a0
 1213              	.LVL155:
 163:src/kernel/testing/slab_test.cpp ****     ObjectCache* semaphore_cache = new ObjectCache("ksemaphore_cache", sizeof(KSemaphore), ctor, nu
 1214              		.loc 1 163 105
 1215 09e8 13850400 		mv	a0,s1
 1216 09ec 97000000 		call	_ZN11ObjectCachedlEPv
 1216      E7800000 
 1217              	.LVL156:
 1218 09f4 13050900 		mv	a0,s2
 1219              	.LEHB7:
 1220 09f8 97000000 		call	_Unwind_Resume
 1220      E7800000 
 1221              	.LVL157:
 1222              	.LEHE7:
 1223              		.cfi_endproc
 1224              	.LFE121:
 1225              		.section	.gcc_except_table
 1226              	.LLSDA121:
 1227 0038 FF       		.byte	0xff
 1228 0039 FF       		.byte	0xff
 1229 003a 03       		.byte	0x3
 1230 003b 34       		.byte	0x34
 1231 003c 00000000 		.4byte	.LEHB4-.LFB121
 1232 0040 00000000 		.4byte	.LEHE4-.LEHB4
 1233 0044 00000000 		.4byte	0
 1234 0048 00       		.byte	0
 1235 0049 00000000 		.4byte	.LEHB5-.LFB121
 1236 004d 00000000 		.4byte	.LEHE5-.LEHB5
 1237 0051 00000000 		.4byte	.L51-.LFB121
 1238 0055 00       		.byte	0
 1239 0056 00000000 		.4byte	.LEHB6-.LFB121
 1240 005a 00000000 		.4byte	.LEHE6-.LEHB6
 1241 005e 00000000 		.4byte	0
 1242 0062 00       		.byte	0
 1243 0063 00000000 		.4byte	.LEHB7-.LFB121
 1244 0067 00000000 		.4byte	.LEHE7-.LEHB7
 1245 006b 00000000 		.4byte	0
 1246 006f 00       		.byte	0
 1247              		.text
 1249              		.section	.rodata.str1.8,"aMS",@progbits,1
 1250              		.align	3
 1251              	.LC0:
 1252 0000 0A0A3D3D 		.string	"\n\n=============Object Cache Allocating=============\n\n"
 1252      3D3D3D3D 
 1252      3D3D3D3D 
 1252      3D3D3D4F 
 1252      626A6563 
 1253 0036 0000     		.zero	2
 1254              	.LC1:
 1255 0038 416C6C6F 		.string	"Allocating "
 1255      63617469 
 1255      6E672000 
 1256 0044 00000000 		.zero	4
 1257              	.LC2:
 1258 0048 20636163 		.string	" caches!!\n"
 1258      68657321 
GAS LISTING /tmp/ccPu3Im8.s 			page 33


 1258      210A00
 1259 0053 00000000 		.zero	5
 1259      00
 1260              	.LC3:
 1261 0058 6F6300   		.string	"oc"
 1262 005b 00000000 		.zero	5
 1262      00
 1263              	.LC4:
 1264 0060 6F635F61 		.string	"oc_arr["
 1264      72725B00 
 1265              	.LC5:
 1266 0068 5D3A2000 		.string	"]: "
 1267 006c 00000000 		.zero	4
 1268              	.LC6:
 1269 0070 0A00     		.string	"\n"
 1270 0072 00000000 		.zero	6
 1270      0000
 1271              	.LC7:
 1272 0078 4E6F7420 		.string	"Not enough memory left!\n"
 1272      656E6F75 
 1272      6768206D 
 1272      656D6F72 
 1272      79206C65 
 1273 0091 00000000 		.zero	7
 1273      000000
 1274              	.LC8:
 1275 0098 0A0A3D3D 		.string	"\n\n===========Object Cache Allocating End===========\n\n"
 1275      3D3D3D3D 
 1275      3D3D3D3D 
 1275      3D4F626A 
 1275      65637420 
 1276 00ce 0000     		.zero	2
 1277              	.LC9:
 1278 00d0 0A0A3D3D 		.string	"\n\n=============Object Cache Deallocating=============\n\n"
 1278      3D3D3D3D 
 1278      3D3D3D3D 
 1278      3D3D3D4F 
 1278      626A6563 
 1279              	.LC10:
 1280 0108 47697665 		.string	"Given address not valid!\n"
 1280      6E206164 
 1280      64726573 
 1280      73206E6F 
 1280      74207661 
 1281 0122 00000000 		.zero	6
 1281      0000
 1282              	.LC11:
 1283 0128 0A0A3D3D 		.string	"\n\n===========Object Cache Dellocating End===========\n\n"
 1283      3D3D3D3D 
 1283      3D3D3D3D 
 1283      3D4F626A 
 1283      65637420 
 1284 015f 00       		.zero	1
 1285              	.LC12:
 1286 0160 0A0A3D3D 		.string	"\n\n=============SMALL MEMORY BUFFER ALLOC=============\n\n"
 1286      3D3D3D3D 
 1286      3D3D3D3D 
GAS LISTING /tmp/ccPu3Im8.s 			page 34


 1286      3D3D3D53 
 1286      4D414C4C 
 1287              	.LC13:
 1288 0198 62756666 		.string	"buff_arr["
 1288      5F617272 
 1288      5B00
 1289 01a2 00000000 		.zero	6
 1289      0000
 1290              	.LC14:
 1291 01a8 0A0A3D3D 		.string	"\n\n===========SMALL MEMORY BUFFER ALLOC END===========\n\n"
 1291      3D3D3D3D 
 1291      3D3D3D3D 
 1291      3D534D41 
 1291      4C4C204D 
 1292              	.LC15:
 1293 01e0 0A0A3D3D 		.string	"\n\n=============SMALL MEMORY BUFFER DEALLOC=============\n\n"
 1293      3D3D3D3D 
 1293      3D3D3D3D 
 1293      3D3D3D53 
 1293      4D414C4C 
 1294 021a 00000000 		.zero	6
 1294      0000
 1295              	.LC16:
 1296 0220 496E7661 		.string	"Invalid free address given!!"
 1296      6C696420 
 1296      66726565 
 1296      20616464 
 1296      72657373 
 1297 023d 000000   		.zero	3
 1298              	.LC17:
 1299 0240 0A0A3D3D 		.string	"\n\n===========SMALL MEMORY BUFFER DEALLOC END===========\n\n"
 1299      3D3D3D3D 
 1299      3D3D3D3D 
 1299      3D534D41 
 1299      4C4C204D 
 1300 027a 00000000 		.zero	6
 1300      0000
 1301              	.LC18:
 1302 0280 0A0A3D3D 		.string	"\n\n=============Slab Allocator State Check=============\n\n"
 1302      3D3D3D3D 
 1302      3D3D3D3D 
 1302      3D3D3D53 
 1302      6C616220 
 1303 02b9 00000000 		.zero	7
 1303      000000
 1304              	.LC19:
 1305 02c0 0A0A3D3D 		.string	"\n\n===========Slab Allocator State Check End===========\n\n"
 1305      3D3D3D3D 
 1305      3D3D3D3D 
 1305      3D536C61 
 1305      6220416C 
 1306 02f9 00000000 		.zero	7
 1306      000000
 1307              	.LC20:
 1308 0300 0A0A3D3D 		.string	"\n\n=============Object Allocate Test=============\n\n"
 1308      3D3D3D3D 
 1308      3D3D3D3D 
GAS LISTING /tmp/ccPu3Im8.s 			page 35


 1308      3D3D3D4F 
 1308      626A6563 
 1309 0333 00000000 		.zero	5
 1309      00
 1310              	.LC21:
 1311 0338 4F626A65 		.string	"Object not corresctly allocated!!\n"
 1311      6374206E 
 1311      6F742063 
 1311      6F727265 
 1311      7363746C 
 1312 035b 00000000 		.zero	5
 1312      00
 1313              	.LC22:
 1314 0360 6F626A65 		.string	"object["
 1314      63745B00 
 1315              	.LC23:
 1316 0368 0A0A3D3D 		.string	"\n\n===========Object Allocate Test End===========\n\n"
 1316      3D3D3D3D 
 1316      3D3D3D3D 
 1316      3D4F626A 
 1316      65637420 
 1317 039b 00000000 		.zero	5
 1317      00
 1318              	.LC24:
 1319 03a0 0A0A3D3D 		.string	"\n\n=============Object Deallocate Test=============\n\n"
 1319      3D3D3D3D 
 1319      3D3D3D3D 
 1319      3D3D3D4F 
 1319      626A6563 
 1320 03d5 000000   		.zero	3
 1321              	.LC25:
 1322 03d8 496E7661 		.string	"Invalid object address!\n"
 1322      6C696420 
 1322      6F626A65 
 1322      63742061 
 1322      64647265 
 1323 03f1 00000000 		.zero	7
 1323      000000
 1324              	.LC26:
 1325 03f8 0A0A3D3D 		.string	"\n\n=============Object Dellocate Test End=============\n\n"
 1325      3D3D3D3D 
 1325      3D3D3D3D 
 1325      3D3D3D4F 
 1325      626A6563 
 1326              	.LC27:
 1327 0430 0A0A2D2D 		.string	"\n\n--------SLAB TEST--------\n\n"
 1327      2D2D2D2D 
 1327      2D2D534C 
 1327      41422054 
 1327      4553542D 
 1328 044e 0000     		.zero	2
 1329              	.LC28:
 1330 0450 536C6162 		.string	"Slab Allocator init!\n"
 1330      20416C6C 
 1330      6F636174 
 1330      6F722069 
 1330      6E697421 
GAS LISTING /tmp/ccPu3Im8.s 			page 36


 1331 0466 0000     		.zero	2
 1332              	.LC29:
 1333 0468 6B73656D 		.string	"ksemaphore_cache"
 1333      6170686F 
 1333      72655F63 
 1333      61636865 
 1333      00
 1334 0479 00000000 		.zero	7
 1334      000000
 1335              	.LC30:
 1336 0480 785B315D 		.string	"x[1]->get_val(): "
 1336      2D3E6765 
 1336      745F7661 
 1336      6C28293A 
 1336      2000
 1337 0492 00000000 		.zero	6
 1337      0000
 1338              	.LC31:
 1339 0498 785B385D 		.string	"x[8]->get_val(): "
 1339      2D3E6765 
 1339      745F7661 
 1339      6C28293A 
 1339      2000
 1340 04aa 00000000 		.zero	6
 1340      0000
 1341              	.LC32:
 1342 04b0 0A0A2D2D 		.string	"\n\n------SLAB TEST END------\n\n"
 1342      2D2D2D2D 
 1342      534C4142 
 1342      20544553 
 1342      5420454E 
 1343              		.text
 1344              	.Letext0:
 1345              		.file 4 "src/kernel/testing/../../../h/../h/../lib/hw.h"
 1346              		.file 5 "src/kernel/testing/../../../h/../h/../h/../h/list.h"
 1347              		.file 6 "src/kernel/testing/../../../h/../h/../h/object_cache.h"
 1348              		.file 7 "src/kernel/testing/../../../h/../h/slab_allocator.h"
 1349              		.file 8 "src/kernel/testing/../../../h/../h/noalloc_allocator.hpp"
 1350              		.file 9 "src/kernel/testing/../../../h/../h/tcb.hpp"
 1351              		.file 10 "src/kernel/testing/../../../h/kernel_lib.h"
 1352              		.file 11 "src/kernel/testing/../../../h/../h/kernel_funs.h"
 7662              		.align	3
 7665              	DW.ref.__gxx_personality_v0:
 7666 0000 00000000 		.dword	__gxx_personality_v0
 7666      00000000 
 7667              		.ident	"GCC: () 8.3.0"
GAS LISTING /tmp/ccPu3Im8.s 			page 37

