GAS LISTING /tmp/ccKeSChK.s 			page 1


   1              		.file	"kernel_lib.cpp"
   2              		.option nopic
   3              		.option norelax
   4              		.attribute arch, "rv64i2p0_m2p0_a2p0"
   5              		.attribute unaligned_access, 0
   6              		.attribute stack_align, 16
   7              		.text
   8              	.Ltext0:
   9              		.align	2
  10              		.globl	_Z15userMainWrapperPv
  12              	_Z15userMainWrapperPv:
  13              	.LFB91:
  14              		.file 1 "src/kernel_lib.cpp"
   1:src/kernel_lib.cpp **** #include"../h/kernel_lib.h"
   2:src/kernel_lib.cpp **** 
   3:src/kernel_lib.cpp **** void userMainWrapper(void*)
   4:src/kernel_lib.cpp **** {
  15              		.loc 1 4 1
  16              		.cfi_startproc
  17 0000 130101FF 		addi	sp,sp,-16
  18              		.cfi_def_cfa_offset 16
  19 0004 23341100 		sd	ra,8(sp)
  20 0008 23308100 		sd	s0,0(sp)
  21              		.cfi_offset 1, -8
  22              		.cfi_offset 8, -16
  23 000c 13040101 		addi	s0,sp,16
  24              		.cfi_def_cfa 8, 0
   5:src/kernel_lib.cpp ****     userMain();
  25              		.loc 1 5 5
  26              		.loc 1 5 13 is_stmt 0
  27 0010 97000000 		call	_Z8userMainv
  27      E7800000 
  28              	.LVL0:
   6:src/kernel_lib.cpp **** }
  29              		.loc 1 6 1
  30 0018 83308100 		ld	ra,8(sp)
  31              		.cfi_restore 1
  32 001c 03340100 		ld	s0,0(sp)
  33              		.cfi_restore 8
  34              		.cfi_def_cfa 2, 16
  35 0020 13010101 		addi	sp,sp,16
  36              		.cfi_def_cfa_offset 0
  37 0024 67800000 		jr	ra
  38              		.cfi_endproc
  39              	.LFE91:
  41              		.align	2
  42              		.globl	_Z12idleFunctionPv
  44              	_Z12idleFunctionPv:
  45              	.LFB92:
   7:src/kernel_lib.cpp **** 
   8:src/kernel_lib.cpp **** void idleFunction(void*)
   9:src/kernel_lib.cpp **** {
  46              		.loc 1 9 1 is_stmt 1
  47              		.cfi_startproc
  48 0028 130101FF 		addi	sp,sp,-16
  49              		.cfi_def_cfa_offset 16
  50 002c 23341100 		sd	ra,8(sp)
GAS LISTING /tmp/ccKeSChK.s 			page 2


  51 0030 23308100 		sd	s0,0(sp)
  52              		.cfi_offset 1, -8
  53              		.cfi_offset 8, -16
  54 0034 13040101 		addi	s0,sp,16
  55              		.cfi_def_cfa 8, 0
  56              	.L4:
  10:src/kernel_lib.cpp ****     while(1){
  57              		.loc 1 10 5 discriminator 1
  11:src/kernel_lib.cpp ****         thread_dispatch();
  58              		.loc 1 11 9 discriminator 1
  59              		.loc 1 11 24 is_stmt 0 discriminator 1
  60 0038 97000000 		call	thread_dispatch
  60      E7800000 
  61              	.LVL1:
  62 0040 6FF09FFF 		j	.L4
  63              		.cfi_endproc
  64              	.LFE92:
  66              		.align	2
  67              		.globl	_Z7kmallocm
  69              	_Z7kmallocm:
  70              	.LFB93:
  12:src/kernel_lib.cpp ****     }
  13:src/kernel_lib.cpp **** }
  14:src/kernel_lib.cpp **** 
  15:src/kernel_lib.cpp **** void* kmalloc(size_t size)
  16:src/kernel_lib.cpp **** {
  71              		.loc 1 16 1 is_stmt 1
  72              		.cfi_startproc
  73              	.LVL2:
  74 0044 130101FE 		addi	sp,sp,-32
  75              		.cfi_def_cfa_offset 32
  76 0048 233C1100 		sd	ra,24(sp)
  77 004c 23388100 		sd	s0,16(sp)
  78 0050 23349100 		sd	s1,8(sp)
  79              		.cfi_offset 1, -8
  80              		.cfi_offset 8, -16
  81              		.cfi_offset 9, -24
  82 0054 13040102 		addi	s0,sp,32
  83              		.cfi_def_cfa 8, 0
  17:src/kernel_lib.cpp ****     size = (size-1)/MEM_BLOCK_SIZE + 1;
  84              		.loc 1 17 5
  85              		.loc 1 17 17 is_stmt 0
  86 0058 9304F5FF 		addi	s1,a0,-1
  87              		.loc 1 17 20
  88 005c 93D46400 		srli	s1,s1,6
  89              		.loc 1 17 10
  90 0060 93841400 		addi	s1,s1,1
  91              	.LVL3:
  18:src/kernel_lib.cpp ****     return MemoryAllocator::getInstance().mem_alloc(size);
  92              		.loc 1 18 5 is_stmt 1
  93              		.loc 1 18 41 is_stmt 0
  94 0064 97000000 		call	_ZN15MemoryAllocator11getInstanceEv
  94      E7800000 
  95              	.LVL4:
  96              		.loc 1 18 52
  97 006c 93850400 		mv	a1,s1
  98 0070 97000000 		call	_ZN15MemoryAllocator9mem_allocEm
GAS LISTING /tmp/ccKeSChK.s 			page 3


  98      E7800000 
  99              	.LVL5:
  19:src/kernel_lib.cpp **** }
 100              		.loc 1 19 1
 101 0078 83308101 		ld	ra,24(sp)
 102              		.cfi_restore 1
 103 007c 03340101 		ld	s0,16(sp)
 104              		.cfi_restore 8
 105              		.cfi_def_cfa 2, 32
 106 0080 83348100 		ld	s1,8(sp)
 107              		.cfi_restore 9
 108              	.LVL6:
 109 0084 13010102 		addi	sp,sp,32
 110              		.cfi_def_cfa_offset 0
 111 0088 67800000 		jr	ra
 112              		.cfi_endproc
 113              	.LFE93:
 115              		.align	2
 116              		.globl	_Z5kputcc
 118              	_Z5kputcc:
 119              	.LFB94:
  20:src/kernel_lib.cpp **** 
  21:src/kernel_lib.cpp **** void kputc(char c){
 120              		.loc 1 21 19 is_stmt 1
 121              		.cfi_startproc
 122              	.LVL7:
 123 008c 130101FF 		addi	sp,sp,-16
 124              		.cfi_def_cfa_offset 16
 125 0090 23348100 		sd	s0,8(sp)
 126              		.cfi_offset 8, -8
 127 0094 13040101 		addi	s0,sp,16
 128              		.cfi_def_cfa 8, 0
  22:src/kernel_lib.cpp ****     char* odata = (char*)CONSOLE_TX_DATA, 
 129              		.loc 1 22 5
 130              		.loc 1 22 11 is_stmt 0
 131 0098 97070000 		lla	a5,CONSOLE_TX_DATA
 131      93870700 
 132 00a0 83B60700 		ld	a3,0(a5)
 133              	.LVL8:
  23:src/kernel_lib.cpp ****     *iostatus = (char*)CONSOLE_STATUS;
 134              		.loc 1 23 6
 135 00a4 97070000 		lla	a5,CONSOLE_STATUS
 135      93870700 
 136 00ac 03B70700 		ld	a4,0(a5)
 137              	.LVL9:
 138              	.L9:
  24:src/kernel_lib.cpp ****     while(!(*iostatus & CONSOLE_TX_STATUS_BIT));
 139              		.loc 1 24 5 is_stmt 1
 140              		.loc 1 24 13 is_stmt 0
 141 00b0 83470700 		lbu	a5,0(a4)
 142              		.loc 1 24 11
 143 00b4 93F70702 		andi	a5,a5,32
 144 00b8 E38C07FE 		beq	a5,zero,.L9
  25:src/kernel_lib.cpp ****     *odata = c;
 145              		.loc 1 25 5 is_stmt 1
 146              		.loc 1 25 12 is_stmt 0
 147 00bc 2380A600 		sb	a0,0(a3)
GAS LISTING /tmp/ccKeSChK.s 			page 4


  26:src/kernel_lib.cpp **** }
 148              		.loc 1 26 1
 149 00c0 03348100 		ld	s0,8(sp)
 150              		.cfi_restore 8
 151              		.cfi_def_cfa 2, 16
 152 00c4 13010101 		addi	sp,sp,16
 153              		.cfi_def_cfa_offset 0
 154 00c8 67800000 		jr	ra
 155              		.cfi_endproc
 156              	.LFE94:
 158              		.align	2
 159              		.globl	_Z12kprintStringPKc
 161              	_Z12kprintStringPKc:
 162              	.LFB95:
  27:src/kernel_lib.cpp **** 
  28:src/kernel_lib.cpp **** void kprintString(const char* string)
  29:src/kernel_lib.cpp **** {
 163              		.loc 1 29 1 is_stmt 1
 164              		.cfi_startproc
 165              	.LVL10:
 166 00cc 130101FE 		addi	sp,sp,-32
 167              		.cfi_def_cfa_offset 32
 168 00d0 233C1100 		sd	ra,24(sp)
 169 00d4 23388100 		sd	s0,16(sp)
 170 00d8 23349100 		sd	s1,8(sp)
 171              		.cfi_offset 1, -8
 172              		.cfi_offset 8, -16
 173              		.cfi_offset 9, -24
 174 00dc 13040102 		addi	s0,sp,32
 175              		.cfi_def_cfa 8, 0
 176 00e0 93040500 		mv	s1,a0
  30:src/kernel_lib.cpp ****     if(!string) return;
 177              		.loc 1 30 5
 178 00e4 630E0500 		beq	a0,zero,.L11
 179              	.LVL11:
 180              	.L13:
  31:src/kernel_lib.cpp ****     while(*string)
 181              		.loc 1 31 5
 182              		.loc 1 31 11 is_stmt 0
 183 00e8 03C50400 		lbu	a0,0(s1)
 184              		.loc 1 31 12
 185 00ec 630A0500 		beq	a0,zero,.L11
  32:src/kernel_lib.cpp ****     {
  33:src/kernel_lib.cpp ****         kputc(*string);
 186              		.loc 1 33 9 is_stmt 1
 187              		.loc 1 33 14 is_stmt 0
 188 00f0 97000000 		call	_Z5kputcc
 188      E7800000 
 189              	.LVL12:
  34:src/kernel_lib.cpp ****         string++;
 190              		.loc 1 34 9 is_stmt 1
 191              		.loc 1 34 15 is_stmt 0
 192 00f8 93841400 		addi	s1,s1,1
 193              	.LVL13:
  31:src/kernel_lib.cpp ****     while(*string)
 194              		.loc 1 31 5
 195 00fc 6FF0DFFE 		j	.L13
GAS LISTING /tmp/ccKeSChK.s 			page 5


 196              	.L11:
  35:src/kernel_lib.cpp ****     }
  36:src/kernel_lib.cpp **** }
 197              		.loc 1 36 1
 198 0100 83308101 		ld	ra,24(sp)
 199              		.cfi_restore 1
 200 0104 03340101 		ld	s0,16(sp)
 201              		.cfi_restore 8
 202              		.cfi_def_cfa 2, 32
 203 0108 83348100 		ld	s1,8(sp)
 204              		.cfi_restore 9
 205              	.LVL14:
 206 010c 13010102 		addi	sp,sp,32
 207              		.cfi_def_cfa_offset 0
 208 0110 67800000 		jr	ra
 209              		.cfi_endproc
 210              	.LFE95:
 212              		.align	2
 213              		.globl	_Z9kprintIntmi
 215              	_Z9kprintIntmi:
 216              	.LFB97:
  37:src/kernel_lib.cpp **** 
  38:src/kernel_lib.cpp **** int kernelInit()
  39:src/kernel_lib.cpp **** {
  40:src/kernel_lib.cpp ****     kprintString("--------------KERNEL INIT--------------\n");
  41:src/kernel_lib.cpp ****     kprintString("HEAP_START_ADDR: "); kprintInt((uint64)HEAP_START_ADDR,16); kprintString("\n");
  42:src/kernel_lib.cpp ****     kprintString("HEAP_END_ADDR: "); kprintInt((uint64)HEAP_END_ADDR,16); kprintString("\n");
  43:src/kernel_lib.cpp ****     
  44:src/kernel_lib.cpp ****     Riscv::w_stvec((uint64)interruptvec);
  45:src/kernel_lib.cpp ****     kprintString("stvec initalized!\n");
  46:src/kernel_lib.cpp ****     MemoryAllocator::getInstance();
  47:src/kernel_lib.cpp ****     kprintString("MemoryAllocator initalized!\n");
  48:src/kernel_lib.cpp ****     Scheduler::initalize();
  49:src/kernel_lib.cpp ****     kprintString("Scheduler initalized!\n");
  50:src/kernel_lib.cpp ****     StdIO::initalize();
  51:src/kernel_lib.cpp ****     kprintString("StdIO initalized!\n");
  52:src/kernel_lib.cpp ****     TCB::createMainKernelThread();
  53:src/kernel_lib.cpp ****     kprintString("Main kenrel thread initalized!\n");
  54:src/kernel_lib.cpp **** 
  55:src/kernel_lib.cpp ****     kprintString("Initalizing user thread and idle thread...\n");
  56:src/kernel_lib.cpp ****     uint64* userMainStack = (uint64*)kmalloc(DEFAULT_STACK_SIZE);
  57:src/kernel_lib.cpp ****     TCB* userMainThread = TCB::createThread(userMainWrapper, nullptr, userMainStack);
  58:src/kernel_lib.cpp **** 
  59:src/kernel_lib.cpp ****     uint64* idleThreadStack = (uint64*)kmalloc(DEFAULT_STACK_SIZE);
  60:src/kernel_lib.cpp ****     TCB* idleThread = TCB::createThread(idleFunction, nullptr, idleThreadStack);
  61:src/kernel_lib.cpp ****     if(userMainStack && idleThreadStack && idleThread && userMainThread)
  62:src/kernel_lib.cpp ****         kprintString("Threads successfully initalized!\n");
  63:src/kernel_lib.cpp ****     else
  64:src/kernel_lib.cpp ****         return -1;
  65:src/kernel_lib.cpp ****     kprintString("-----------KERNEL INITALIZED-----------\n\n");
  66:src/kernel_lib.cpp **** 
  67:src/kernel_lib.cpp ****     return 0;
  68:src/kernel_lib.cpp **** }
  69:src/kernel_lib.cpp **** 
  70:src/kernel_lib.cpp **** char kdigits[] = "0123456789ABCDEF";
  71:src/kernel_lib.cpp **** void kprintInt(uint64 xx, int base){
 217              		.loc 1 71 36 is_stmt 1
GAS LISTING /tmp/ccKeSChK.s 			page 6


 218              		.cfi_startproc
 219              	.LVL15:
 220 0114 130101FD 		addi	sp,sp,-48
 221              		.cfi_def_cfa_offset 48
 222 0118 23341102 		sd	ra,40(sp)
 223 011c 23308102 		sd	s0,32(sp)
 224 0120 233C9100 		sd	s1,24(sp)
 225              		.cfi_offset 1, -8
 226              		.cfi_offset 8, -16
 227              		.cfi_offset 9, -24
 228 0124 13040103 		addi	s0,sp,48
 229              		.cfi_def_cfa 8, 0
  72:src/kernel_lib.cpp ****     char buf[16];
 230              		.loc 1 72 5
  73:src/kernel_lib.cpp ****     int i;
 231              		.loc 1 73 5
  74:src/kernel_lib.cpp **** 
  75:src/kernel_lib.cpp ****     i = 0;
 232              		.loc 1 75 5
 233              	.LVL16:
 234              		.loc 1 75 7 is_stmt 0
 235 0128 93070000 		li	a5,0
 236 012c 6F008000 		j	.L16
 237              	.LVL17:
 238              	.L19:
  76:src/kernel_lib.cpp ****     do{
  77:src/kernel_lib.cpp ****         buf[i++] = kdigits[xx % base];
  78:src/kernel_lib.cpp ****     }while((xx /= base) != 0);
 239              		.loc 1 78 16
 240 0130 13050700 		mv	a0,a4
 241              	.LVL18:
 242              	.L16:
  76:src/kernel_lib.cpp ****     do{
 243              		.loc 1 76 5 is_stmt 1
  77:src/kernel_lib.cpp ****     }while((xx /= base) != 0);
 244              		.loc 1 77 9
  77:src/kernel_lib.cpp ****     }while((xx /= base) != 0);
 245              		.loc 1 77 31 is_stmt 0
 246 0134 B376B502 		remu	a3,a0,a1
  77:src/kernel_lib.cpp ****     }while((xx /= base) != 0);
 247              		.loc 1 77 14
 248 0138 9B841700 		addiw	s1,a5,1
 249              	.LVL19:
  77:src/kernel_lib.cpp ****     }while((xx /= base) != 0);
 250              		.loc 1 77 37
 251 013c 17070000 		lla	a4,.LANCHOR0
 251      13070700 
 252 0144 3307D700 		add	a4,a4,a3
 253 0148 03470700 		lbu	a4,0(a4)
  77:src/kernel_lib.cpp ****     }while((xx /= base) != 0);
 254              		.loc 1 77 18
 255 014c 930604FE 		addi	a3,s0,-32
 256 0150 B387F600 		add	a5,a3,a5
 257              	.LVL20:
 258 0154 2388E7FE 		sb	a4,-16(a5)
 259              		.loc 1 78 16
 260 0158 3357B502 		divu	a4,a0,a1
GAS LISTING /tmp/ccKeSChK.s 			page 7


 261              	.LVL21:
  77:src/kernel_lib.cpp ****     }while((xx /= base) != 0);
 262              		.loc 1 77 14
 263 015c 93870400 		mv	a5,s1
 264              		.loc 1 78 25
 265 0160 E378B5FC 		bleu	a1,a0,.L19
 266              	.LVL22:
 267              	.L18:
  79:src/kernel_lib.cpp **** 
  80:src/kernel_lib.cpp **** 
  81:src/kernel_lib.cpp ****     while(--i >= 0)
 268              		.loc 1 81 5 is_stmt 1
 269              		.loc 1 81 15 is_stmt 0
 270 0164 9B84F4FF 		addiw	s1,s1,-1
 271              	.LVL23:
 272 0168 63CE0400 		blt	s1,zero,.L15
  82:src/kernel_lib.cpp ****         kputc(buf[i]);
 273              		.loc 1 82 9 is_stmt 1
 274              		.loc 1 82 14 is_stmt 0
 275 016c 930704FE 		addi	a5,s0,-32
 276 0170 B3879700 		add	a5,a5,s1
 277 0174 03C507FF 		lbu	a0,-16(a5)
 278 0178 97000000 		call	_Z5kputcc
 278      E7800000 
 279              	.LVL24:
  81:src/kernel_lib.cpp ****         kputc(buf[i]);
 280              		.loc 1 81 5
 281 0180 6FF05FFE 		j	.L18
 282              	.L15:
  83:src/kernel_lib.cpp **** }...
 283              		.loc 1 83 1
 284 0184 83308102 		ld	ra,40(sp)
 285              		.cfi_restore 1
 286 0188 03340102 		ld	s0,32(sp)
 287              		.cfi_restore 8
 288              		.cfi_def_cfa 2, 48
 289 018c 83348101 		ld	s1,24(sp)
 290              		.cfi_restore 9
 291 0190 13010103 		addi	sp,sp,48
 292              		.cfi_def_cfa_offset 0
 293 0194 67800000 		jr	ra
 294              		.cfi_endproc
 295              	.LFE97:
 297              		.align	2
 298              		.globl	_Z10kernelInitv
 300              	_Z10kernelInitv:
 301              	.LFB96:
  39:src/kernel_lib.cpp **** {
 302              		.loc 1 39 1 is_stmt 1
 303              		.cfi_startproc
 304 0198 130101FD 		addi	sp,sp,-48
 305              		.cfi_def_cfa_offset 48
 306 019c 23341102 		sd	ra,40(sp)
 307 01a0 23308102 		sd	s0,32(sp)
 308 01a4 233C9100 		sd	s1,24(sp)
 309 01a8 23382101 		sd	s2,16(sp)
 310 01ac 23343101 		sd	s3,8(sp)
GAS LISTING /tmp/ccKeSChK.s 			page 8


 311              		.cfi_offset 1, -8
 312              		.cfi_offset 8, -16
 313              		.cfi_offset 9, -24
 314              		.cfi_offset 18, -32
 315              		.cfi_offset 19, -40
 316 01b0 13040103 		addi	s0,sp,48
 317              		.cfi_def_cfa 8, 0
  40:src/kernel_lib.cpp ****     kprintString("--------------KERNEL INIT--------------\n");
 318              		.loc 1 40 5
  40:src/kernel_lib.cpp ****     kprintString("--------------KERNEL INIT--------------\n");
 319              		.loc 1 40 17 is_stmt 0
 320 01b4 17050000 		lla	a0,.LC0
 320      13050500 
 321 01bc 97000000 		call	_Z12kprintStringPKc
 321      E7800000 
 322              	.LVL25:
  41:src/kernel_lib.cpp ****     kprintString("HEAP_START_ADDR: "); kprintInt((uint64)HEAP_START_ADDR,16); kprintString("\n");
 323              		.loc 1 41 5 is_stmt 1
  41:src/kernel_lib.cpp ****     kprintString("HEAP_START_ADDR: "); kprintInt((uint64)HEAP_START_ADDR,16); kprintString("\n");
 324              		.loc 1 41 17 is_stmt 0
 325 01c4 17050000 		lla	a0,.LC1
 325      13050500 
 326 01cc 97000000 		call	_Z12kprintStringPKc
 326      E7800000 
 327              	.LVL26:
  41:src/kernel_lib.cpp ****     kprintString("HEAP_START_ADDR: "); kprintInt((uint64)HEAP_START_ADDR,16); kprintString("\n");
 328              		.loc 1 41 40 is_stmt 1
  41:src/kernel_lib.cpp ****     kprintString("HEAP_START_ADDR: "); kprintInt((uint64)HEAP_START_ADDR,16); kprintString("\n");
 329              		.loc 1 41 49 is_stmt 0
 330 01d4 93050001 		li	a1,16
 331 01d8 97070000 		lla	a5,HEAP_START_ADDR
 331      93870700 
 332 01e0 03B50700 		ld	a0,0(a5)
 333 01e4 97000000 		call	_Z9kprintIntmi
 333      E7800000 
 334              	.LVL27:
  41:src/kernel_lib.cpp ****     kprintString("HEAP_START_ADDR: "); kprintInt((uint64)HEAP_START_ADDR,16); kprintString("\n");
 335              		.loc 1 41 79 is_stmt 1
  41:src/kernel_lib.cpp ****     kprintString("HEAP_START_ADDR: "); kprintInt((uint64)HEAP_START_ADDR,16); kprintString("\n");
 336              		.loc 1 41 91 is_stmt 0
 337 01ec 17050000 		lla	a0,.LC2
 337      13050500 
 338 01f4 97000000 		call	_Z12kprintStringPKc
 338      E7800000 
 339              	.LVL28:
  42:src/kernel_lib.cpp ****     kprintString("HEAP_END_ADDR: "); kprintInt((uint64)HEAP_END_ADDR,16); kprintString("\n");
 340              		.loc 1 42 5 is_stmt 1
  42:src/kernel_lib.cpp ****     kprintString("HEAP_END_ADDR: "); kprintInt((uint64)HEAP_END_ADDR,16); kprintString("\n");
 341              		.loc 1 42 17 is_stmt 0
 342 01fc 17050000 		lla	a0,.LC3
 342      13050500 
 343 0204 97000000 		call	_Z12kprintStringPKc
 343      E7800000 
 344              	.LVL29:
  42:src/kernel_lib.cpp ****     kprintString("HEAP_END_ADDR: "); kprintInt((uint64)HEAP_END_ADDR,16); kprintString("\n");
 345              		.loc 1 42 38 is_stmt 1
  42:src/kernel_lib.cpp ****     kprintString("HEAP_END_ADDR: "); kprintInt((uint64)HEAP_END_ADDR,16); kprintString("\n");
GAS LISTING /tmp/ccKeSChK.s 			page 9


 346              		.loc 1 42 47 is_stmt 0
 347 020c 93050001 		li	a1,16
 348 0210 97070000 		lla	a5,HEAP_END_ADDR
 348      93870700 
 349 0218 03B50700 		ld	a0,0(a5)
 350 021c 97000000 		call	_Z9kprintIntmi
 350      E7800000 
 351              	.LVL30:
  42:src/kernel_lib.cpp ****     kprintString("HEAP_END_ADDR: "); kprintInt((uint64)HEAP_END_ADDR,16); kprintString("\n");
 352              		.loc 1 42 75 is_stmt 1
  42:src/kernel_lib.cpp ****     kprintString("HEAP_END_ADDR: "); kprintInt((uint64)HEAP_END_ADDR,16); kprintString("\n");
 353              		.loc 1 42 87 is_stmt 0
 354 0224 17050000 		lla	a0,.LC2
 354      13050500 
 355 022c 97000000 		call	_Z12kprintStringPKc
 355      E7800000 
 356              	.LVL31:
  44:src/kernel_lib.cpp ****     Riscv::w_stvec((uint64)interruptvec);
 357              		.loc 1 44 5 is_stmt 1
  44:src/kernel_lib.cpp ****     Riscv::w_stvec((uint64)interruptvec);
 358              		.loc 1 44 19 is_stmt 0
 359 0234 97070000 		lla	a5,interruptvec
 359      93870700 
 360              	.LVL32:
 361              	.LBB4:
 362              	.LBB5:
 363              		.file 2 "src/../h/../h/riscv.hpp"
   1:src/../h/../h/riscv.hpp **** #ifndef __riscv__
   2:src/../h/../h/riscv.hpp **** #define __riscv__
   3:src/../h/../h/riscv.hpp **** 
   4:src/../h/../h/riscv.hpp **** #include"../lib/hw.h"
   5:src/../h/../h/riscv.hpp **** 
   6:src/../h/../h/riscv.hpp **** class Riscv{
   7:src/../h/../h/riscv.hpp **** public:
   8:src/../h/../h/riscv.hpp ****     
   9:src/../h/../h/riscv.hpp ****     static void w_scause(uint64);
  10:src/../h/../h/riscv.hpp ****     static uint64 r_scause(); 
  11:src/../h/../h/riscv.hpp **** 
  12:src/../h/../h/riscv.hpp ****     static void w_sepc(uint64);
  13:src/../h/../h/riscv.hpp ****     static uint64 r_sepc();
  14:src/../h/../h/riscv.hpp ****     static void ni_sepc();
  15:src/../h/../h/riscv.hpp **** 
  16:src/../h/../h/riscv.hpp ****     static void w_stvec(uint64);
  17:src/../h/../h/riscv.hpp ****     static uint64 r_stvec();
  18:src/../h/../h/riscv.hpp ****      
  19:src/../h/../h/riscv.hpp ****     static void w_stval(uint64);
  20:src/../h/../h/riscv.hpp ****     static uint64 r_stval();
  21:src/../h/../h/riscv.hpp ****     
  22:src/../h/../h/riscv.hpp ****     enum BitMaskSip{
  23:src/../h/../h/riscv.hpp ****         SIP_SSIE = (1<<1),
  24:src/../h/../h/riscv.hpp ****         SIP_STIE = (1<<5),
  25:src/../h/../h/riscv.hpp ****         SIP_SEIE = (1<<9),
  26:src/../h/../h/riscv.hpp ****     };
  27:src/../h/../h/riscv.hpp **** 
  28:src/../h/../h/riscv.hpp ****     static void ms_sip(uint64);
  29:src/../h/../h/riscv.hpp ****     static void mc_sip(uint64);
  30:src/../h/../h/riscv.hpp **** 
GAS LISTING /tmp/ccKeSChK.s 			page 10


  31:src/../h/../h/riscv.hpp ****     static void w_sip(uint64);
  32:src/../h/../h/riscv.hpp ****     static uint64 r_sip();
  33:src/../h/../h/riscv.hpp **** 
  34:src/../h/../h/riscv.hpp ****     enum BitMaskSstatus{
  35:src/../h/../h/riscv.hpp ****         SSTATUS_SIE = (1<<1),
  36:src/../h/../h/riscv.hpp ****         SSTATUS_SPIE = (1<<5),
  37:src/../h/../h/riscv.hpp ****         SSTATUS_SPP = (1<<8),
  38:src/../h/../h/riscv.hpp ****     };
  39:src/../h/../h/riscv.hpp **** 
  40:src/../h/../h/riscv.hpp ****     static void ms_sstatus(uint64);
  41:src/../h/../h/riscv.hpp ****     static void mc_sstatus(uint64);
  42:src/../h/../h/riscv.hpp **** 
  43:src/../h/../h/riscv.hpp ****     static void w_sstatus(uint64);
  44:src/../h/../h/riscv.hpp ****     static uint64 r_sstatus();
  45:src/../h/../h/riscv.hpp **** 
  46:src/../h/../h/riscv.hpp ****     static uint64 r_a0();
  47:src/../h/../h/riscv.hpp ****     static uint64 s_a0(uint64 a0);
  48:src/../h/../h/riscv.hpp ****     static uint64 r_a1();
  49:src/../h/../h/riscv.hpp ****     static uint64 r_a2();
  50:src/../h/../h/riscv.hpp ****     static uint64 r_a3();
  51:src/../h/../h/riscv.hpp ****     static uint64 r_a4();
  52:src/../h/../h/riscv.hpp **** 
  53:src/../h/../h/riscv.hpp ****     static void popRegisters();
  54:src/../h/../h/riscv.hpp ****     static void pushRegisters();
  55:src/../h/../h/riscv.hpp **** 
  56:src/../h/../h/riscv.hpp ****     static void popSppSpie();
  57:src/../h/../h/riscv.hpp **** 
  58:src/../h/../h/riscv.hpp ****     static void mc_cstatus(uint64 mask);
  59:src/../h/../h/riscv.hpp ****     static bool cstatus_ready(uint64 mask);
  60:src/../h/../h/riscv.hpp **** };
  61:src/../h/../h/riscv.hpp **** 
  62:src/../h/../h/riscv.hpp **** inline uint64 Riscv::r_a0(){
  63:src/../h/../h/riscv.hpp ****     uint64 a0;
  64:src/../h/../h/riscv.hpp ****     asm volatile("mv %0, a0" : "=r" (a0));
  65:src/../h/../h/riscv.hpp ****     return a0;
  66:src/../h/../h/riscv.hpp **** }
  67:src/../h/../h/riscv.hpp **** 
  68:src/../h/../h/riscv.hpp **** inline uint64 Riscv::r_a1(){
  69:src/../h/../h/riscv.hpp ****     uint64 a0;
  70:src/../h/../h/riscv.hpp ****     asm volatile("mv %0, a1" : "=r" (a0));
  71:src/../h/../h/riscv.hpp ****     return a0;
  72:src/../h/../h/riscv.hpp **** }
  73:src/../h/../h/riscv.hpp **** 
  74:src/../h/../h/riscv.hpp **** inline uint64 Riscv::r_a2(){
  75:src/../h/../h/riscv.hpp ****     uint64 a0;
  76:src/../h/../h/riscv.hpp ****     asm volatile("mv %0, a2" : "=r" (a0));
  77:src/../h/../h/riscv.hpp ****     return a0;
  78:src/../h/../h/riscv.hpp **** }
  79:src/../h/../h/riscv.hpp **** 
  80:src/../h/../h/riscv.hpp **** inline uint64 Riscv::r_a3(){
  81:src/../h/../h/riscv.hpp ****     uint64 a0;
  82:src/../h/../h/riscv.hpp ****     asm volatile("mv %0, a3" : "=r" (a0));
  83:src/../h/../h/riscv.hpp ****     return a0;
  84:src/../h/../h/riscv.hpp **** }
  85:src/../h/../h/riscv.hpp **** 
  86:src/../h/../h/riscv.hpp **** inline uint64 Riscv::r_a4(){
  87:src/../h/../h/riscv.hpp ****     uint64 a0;
GAS LISTING /tmp/ccKeSChK.s 			page 11


  88:src/../h/../h/riscv.hpp ****     asm volatile("mv %0, a4" : "=r" (a0));
  89:src/../h/../h/riscv.hpp ****     return a0;
  90:src/../h/../h/riscv.hpp **** }
  91:src/../h/../h/riscv.hpp **** 
  92:src/../h/../h/riscv.hpp **** 
  93:src/../h/../h/riscv.hpp **** inline uint64 Riscv::s_a0(uint64 a0){
  94:src/../h/../h/riscv.hpp ****     return a0;
  95:src/../h/../h/riscv.hpp **** }
  96:src/../h/../h/riscv.hpp **** 
  97:src/../h/../h/riscv.hpp **** inline void Riscv::w_scause(uint64 scause){
  98:src/../h/../h/riscv.hpp ****     asm volatile("csrw scause, %0" : : "r" (scause));
  99:src/../h/../h/riscv.hpp **** }
 100:src/../h/../h/riscv.hpp **** 
 101:src/../h/../h/riscv.hpp **** inline uint64 Riscv::r_scause(){
 102:src/../h/../h/riscv.hpp ****     uint64 volatile scause;
 103:src/../h/../h/riscv.hpp ****     asm volatile("csrr %0, scause" : "=r" (scause));
 104:src/../h/../h/riscv.hpp ****     return scause;
 105:src/../h/../h/riscv.hpp **** } 
 106:src/../h/../h/riscv.hpp **** 
 107:src/../h/../h/riscv.hpp **** inline void Riscv::w_sepc(uint64 sepc){
 108:src/../h/../h/riscv.hpp ****     asm volatile("csrw sepc, %0" : : "r" (sepc));
 109:src/../h/../h/riscv.hpp **** }
 110:src/../h/../h/riscv.hpp **** 
 111:src/../h/../h/riscv.hpp **** inline uint64 Riscv::r_sepc(){
 112:src/../h/../h/riscv.hpp ****     uint64 volatile sepc;
 113:src/../h/../h/riscv.hpp ****     asm volatile("csrr %0, sepc" : "=r" (sepc));
 114:src/../h/../h/riscv.hpp ****     return sepc;
 115:src/../h/../h/riscv.hpp **** } 
 116:src/../h/../h/riscv.hpp **** 
 117:src/../h/../h/riscv.hpp **** inline void Riscv::w_stvec(uint64 stvec){
 118:src/../h/../h/riscv.hpp ****     asm volatile("csrw stvec, %0" : : "r" (stvec));
 364              		.loc 2 118 5 is_stmt 1
 365              		.loc 2 118 51 is_stmt 0
 366              	 #APP
 367              	# 118 "src/../h/../h/riscv.hpp" 1
 119              	}
 368              		csrw stvec, a5
 369              	# 0 "" 2
 370              	.LVL33:
 371              	 #NO_APP
 372              	.LBE5:
 373              	.LBE4:
  45:src/kernel_lib.cpp ****     kprintString("stvec initalized!\n");
 374              		.loc 1 45 5 is_stmt 1
  45:src/kernel_lib.cpp ****     kprintString("stvec initalized!\n");
 375              		.loc 1 45 17 is_stmt 0
 376 0240 17050000 		lla	a0,.LC4
 376      13050500 
 377 0248 97000000 		call	_Z12kprintStringPKc
 377      E7800000 
 378              	.LVL34:
  46:src/kernel_lib.cpp ****     MemoryAllocator::getInstance();
 379              		.loc 1 46 5 is_stmt 1
  46:src/kernel_lib.cpp ****     MemoryAllocator::getInstance();
 380              		.loc 1 46 34 is_stmt 0
 381 0250 97000000 		call	_ZN15MemoryAllocator11getInstanceEv
 381      E7800000 
GAS LISTING /tmp/ccKeSChK.s 			page 12


 382              	.LVL35:
  47:src/kernel_lib.cpp ****     kprintString("MemoryAllocator initalized!\n");
 383              		.loc 1 47 5 is_stmt 1
  47:src/kernel_lib.cpp ****     kprintString("MemoryAllocator initalized!\n");
 384              		.loc 1 47 17 is_stmt 0
 385 0258 17050000 		lla	a0,.LC5
 385      13050500 
 386 0260 97000000 		call	_Z12kprintStringPKc
 386      E7800000 
 387              	.LVL36:
  48:src/kernel_lib.cpp ****     Scheduler::initalize();
 388              		.loc 1 48 5 is_stmt 1
  48:src/kernel_lib.cpp ****     Scheduler::initalize();
 389              		.loc 1 48 25 is_stmt 0
 390 0268 97000000 		call	_ZN9Scheduler9initalizeEv
 390      E7800000 
 391              	.LVL37:
  49:src/kernel_lib.cpp ****     kprintString("Scheduler initalized!\n");
 392              		.loc 1 49 5 is_stmt 1
  49:src/kernel_lib.cpp ****     kprintString("Scheduler initalized!\n");
 393              		.loc 1 49 17 is_stmt 0
 394 0270 17050000 		lla	a0,.LC6
 394      13050500 
 395 0278 97000000 		call	_Z12kprintStringPKc
 395      E7800000 
 396              	.LVL38:
  50:src/kernel_lib.cpp ****     StdIO::initalize();
 397              		.loc 1 50 5 is_stmt 1
  50:src/kernel_lib.cpp ****     StdIO::initalize();
 398              		.loc 1 50 21 is_stmt 0
 399 0280 97000000 		call	_ZN5StdIO9initalizeEv
 399      E7800000 
 400              	.LVL39:
  51:src/kernel_lib.cpp ****     kprintString("StdIO initalized!\n");
 401              		.loc 1 51 5 is_stmt 1
  51:src/kernel_lib.cpp ****     kprintString("StdIO initalized!\n");
 402              		.loc 1 51 17 is_stmt 0
 403 0288 17050000 		lla	a0,.LC7
 403      13050500 
 404 0290 97000000 		call	_Z12kprintStringPKc
 404      E7800000 
 405              	.LVL40:
  52:src/kernel_lib.cpp ****     TCB::createMainKernelThread();
 406              		.loc 1 52 5 is_stmt 1
  52:src/kernel_lib.cpp ****     TCB::createMainKernelThread();
 407              		.loc 1 52 32 is_stmt 0
 408 0298 97000000 		call	_ZN3TCB22createMainKernelThreadEv
 408      E7800000 
 409              	.LVL41:
  53:src/kernel_lib.cpp ****     kprintString("Main kenrel thread initalized!\n");
 410              		.loc 1 53 5 is_stmt 1
  53:src/kernel_lib.cpp ****     kprintString("Main kenrel thread initalized!\n");
 411              		.loc 1 53 17 is_stmt 0
 412 02a0 17050000 		lla	a0,.LC8
 412      13050500 
 413 02a8 97000000 		call	_Z12kprintStringPKc
 413      E7800000 
GAS LISTING /tmp/ccKeSChK.s 			page 13


 414              	.LVL42:
  55:src/kernel_lib.cpp ****     kprintString("Initalizing user thread and idle thread...\n");
 415              		.loc 1 55 5 is_stmt 1
  55:src/kernel_lib.cpp ****     kprintString("Initalizing user thread and idle thread...\n");
 416              		.loc 1 55 17 is_stmt 0
 417 02b0 17050000 		lla	a0,.LC9
 417      13050500 
 418 02b8 97000000 		call	_Z12kprintStringPKc
 418      E7800000 
 419              	.LVL43:
  56:src/kernel_lib.cpp ****     uint64* userMainStack = (uint64*)kmalloc(DEFAULT_STACK_SIZE);
 420              		.loc 1 56 5 is_stmt 1
  56:src/kernel_lib.cpp ****     uint64* userMainStack = (uint64*)kmalloc(DEFAULT_STACK_SIZE);
 421              		.loc 1 56 45 is_stmt 0
 422 02c0 37150000 		li	a0,4096
 423 02c4 97000000 		call	_Z7kmallocm
 423      E7800000 
 424              	.LVL44:
 425 02cc 93040500 		mv	s1,a0
 426              	.LVL45:
  57:src/kernel_lib.cpp ****     TCB* userMainThread = TCB::createThread(userMainWrapper, nullptr, userMainStack);
 427              		.loc 1 57 5 is_stmt 1
  57:src/kernel_lib.cpp ****     TCB* userMainThread = TCB::createThread(userMainWrapper, nullptr, userMainStack);
 428              		.loc 1 57 44 is_stmt 0
 429 02d0 13060500 		mv	a2,a0
 430 02d4 93050000 		li	a1,0
 431 02d8 17050000 		lla	a0,_Z15userMainWrapperPv
 431      13050500 
 432 02e0 97000000 		call	_ZN3TCB12createThreadEPFvPvES0_Pm
 432      E7800000 
 433              	.LVL46:
 434 02e8 93090500 		mv	s3,a0
 435              	.LVL47:
  59:src/kernel_lib.cpp ****     uint64* idleThreadStack = (uint64*)kmalloc(DEFAULT_STACK_SIZE);
 436              		.loc 1 59 5 is_stmt 1
  59:src/kernel_lib.cpp ****     uint64* idleThreadStack = (uint64*)kmalloc(DEFAULT_STACK_SIZE);
 437              		.loc 1 59 47 is_stmt 0
 438 02ec 37150000 		li	a0,4096
 439              	.LVL48:
 440 02f0 97000000 		call	_Z7kmallocm
 440      E7800000 
 441              	.LVL49:
 442 02f8 13090500 		mv	s2,a0
 443              	.LVL50:
  60:src/kernel_lib.cpp ****     TCB* idleThread = TCB::createThread(idleFunction, nullptr, idleThreadStack);
 444              		.loc 1 60 5 is_stmt 1
  60:src/kernel_lib.cpp ****     TCB* idleThread = TCB::createThread(idleFunction, nullptr, idleThreadStack);
 445              		.loc 1 60 40 is_stmt 0
 446 02fc 13060500 		mv	a2,a0
 447 0300 93050000 		li	a1,0
 448 0304 17050000 		lla	a0,_Z12idleFunctionPv
 448      13050500 
 449              	.LVL51:
 450 030c 97000000 		call	_ZN3TCB12createThreadEPFvPvES0_Pm
 450      E7800000 
 451              	.LVL52:
  61:src/kernel_lib.cpp ****     if(userMainStack && idleThreadStack && idleThread && userMainThread)
GAS LISTING /tmp/ccKeSChK.s 			page 14


 452              		.loc 1 61 5 is_stmt 1
 453 0314 63880404 		beq	s1,zero,.L23
  61:src/kernel_lib.cpp ****     if(userMainStack && idleThreadStack && idleThread && userMainThread)
 454              		.loc 1 61 22 is_stmt 0 discriminator 1
 455 0318 630A0904 		beq	s2,zero,.L24
  61:src/kernel_lib.cpp ****     if(userMainStack && idleThreadStack && idleThread && userMainThread)
 456              		.loc 1 61 41 discriminator 2
 457 031c 630C0504 		beq	a0,zero,.L25
  61:src/kernel_lib.cpp ****     if(userMainStack && idleThreadStack && idleThread && userMainThread)
 458              		.loc 1 61 55 discriminator 3
 459 0320 638E0904 		beq	s3,zero,.L26
  62:src/kernel_lib.cpp ****         kprintString("Threads successfully initalized!\n");
 460              		.loc 1 62 9 is_stmt 1
  62:src/kernel_lib.cpp ****         kprintString("Threads successfully initalized!\n");
 461              		.loc 1 62 21 is_stmt 0
 462 0324 17050000 		lla	a0,.LC10
 462      13050500 
 463              	.LVL53:
 464 032c 97000000 		call	_Z12kprintStringPKc
 464      E7800000 
 465              	.LVL54:
  65:src/kernel_lib.cpp ****     kprintString("-----------KERNEL INITALIZED-----------\n\n");
 466              		.loc 1 65 5 is_stmt 1
  65:src/kernel_lib.cpp ****     kprintString("-----------KERNEL INITALIZED-----------\n\n");
 467              		.loc 1 65 17 is_stmt 0
 468 0334 17050000 		lla	a0,.LC11
 468      13050500 
 469 033c 97000000 		call	_Z12kprintStringPKc
 469      E7800000 
 470              	.LVL55:
  67:src/kernel_lib.cpp ****     return 0;
 471              		.loc 1 67 5 is_stmt 1
  67:src/kernel_lib.cpp ****     return 0;
 472              		.loc 1 67 12 is_stmt 0
 473 0344 13050000 		li	a0,0
 474              	.L22:
  68:src/kernel_lib.cpp **** }
 475              		.loc 1 68 1
 476 0348 83308102 		ld	ra,40(sp)
 477              		.cfi_remember_state
 478              		.cfi_restore 1
 479 034c 03340102 		ld	s0,32(sp)
 480              		.cfi_restore 8
 481              		.cfi_def_cfa 2, 48
 482 0350 83348101 		ld	s1,24(sp)
 483              		.cfi_restore 9
 484              	.LVL56:
 485 0354 03390101 		ld	s2,16(sp)
 486              		.cfi_restore 18
 487              	.LVL57:
 488 0358 83398100 		ld	s3,8(sp)
 489              		.cfi_restore 19
 490              	.LVL58:
 491 035c 13010103 		addi	sp,sp,48
 492              		.cfi_def_cfa_offset 0
 493 0360 67800000 		jr	ra
 494              	.LVL59:
GAS LISTING /tmp/ccKeSChK.s 			page 15


 495              	.L23:
 496              		.cfi_restore_state
  64:src/kernel_lib.cpp ****         return -1;
 497              		.loc 1 64 17
 498 0364 1305F0FF 		li	a0,-1
 499              	.LVL60:
 500 0368 6FF01FFE 		j	.L22
 501              	.LVL61:
 502              	.L24:
 503 036c 1305F0FF 		li	a0,-1
 504              	.LVL62:
 505 0370 6FF09FFD 		j	.L22
 506              	.LVL63:
 507              	.L25:
 508 0374 1305F0FF 		li	a0,-1
 509              	.LVL64:
 510 0378 6FF01FFD 		j	.L22
 511              	.LVL65:
 512              	.L26:
 513 037c 1305F0FF 		li	a0,-1
 514              	.LVL66:
 515 0380 6FF09FFC 		j	.L22
 516              		.cfi_endproc
 517              	.LFE96:
 519              		.globl	kdigits
 520              		.data
 521              		.align	3
 522              		.set	.LANCHOR0,. + 0
 525              	kdigits:
 526 0000 30313233 		.string	"0123456789ABCDEF"
 526      34353637 
 526      38394142 
 526      43444546 
 526      00
 527              		.section	.rodata.str1.8,"aMS",@progbits,1
 528              		.align	3
 529              	.LC0:
 530 0000 2D2D2D2D 		.string	"--------------KERNEL INIT--------------\n"
 530      2D2D2D2D 
 530      2D2D2D2D 
 530      2D2D4B45 
 530      524E454C 
 531 0029 00000000 		.zero	7
 531      000000
 532              	.LC1:
 533 0030 48454150 		.string	"HEAP_START_ADDR: "
 533      5F535441 
 533      52545F41 
 533      4444523A 
 533      2000
 534 0042 00000000 		.zero	6
 534      0000
 535              	.LC2:
 536 0048 0A00     		.string	"\n"
 537 004a 00000000 		.zero	6
 537      0000
 538              	.LC3:
GAS LISTING /tmp/ccKeSChK.s 			page 16


 539 0050 48454150 		.string	"HEAP_END_ADDR: "
 539      5F454E44 
 539      5F414444 
 539      523A2000 
 540              	.LC4:
 541 0060 73747665 		.string	"stvec initalized!\n"
 541      6320696E 
 541      6974616C 
 541      697A6564 
 541      210A00
 542 0073 00000000 		.zero	5
 542      00
 543              	.LC5:
 544 0078 4D656D6F 		.string	"MemoryAllocator initalized!\n"
 544      7279416C 
 544      6C6F6361 
 544      746F7220 
 544      696E6974 
 545 0095 000000   		.zero	3
 546              	.LC6:
 547 0098 53636865 		.string	"Scheduler initalized!\n"
 547      64756C65 
 547      7220696E 
 547      6974616C 
 547      697A6564 
 548 00af 00       		.zero	1
 549              	.LC7:
 550 00b0 53746449 		.string	"StdIO initalized!\n"
 550      4F20696E 
 550      6974616C 
 550      697A6564 
 550      210A00
 551 00c3 00000000 		.zero	5
 551      00
 552              	.LC8:
 553 00c8 4D61696E 		.string	"Main kenrel thread initalized!\n"
 553      206B656E 
 553      72656C20 
 553      74687265 
 553      61642069 
 554              	.LC9:
 555 00e8 496E6974 		.string	"Initalizing user thread and idle thread...\n"
 555      616C697A 
 555      696E6720 
 555      75736572 
 555      20746872 
 556 0114 00000000 		.zero	4
 557              	.LC10:
 558 0118 54687265 		.string	"Threads successfully initalized!\n"
 558      61647320 
 558      73756363 
 558      65737366 
 558      756C6C79 
 559 013a 00000000 		.zero	6
 559      0000
 560              	.LC11:
 561 0140 2D2D2D2D 		.string	"-----------KERNEL INITALIZED-----------\n\n"
GAS LISTING /tmp/ccKeSChK.s 			page 17


 561      2D2D2D2D 
 561      2D2D2D4B 
 561      45524E45 
 561      4C20494E 
 562              		.text
 563              	.Letext0:
 564              		.file 3 "src/../h/../h/../lib/hw.h"
 565              		.file 4 "src/../h/../h/../h/memory_allocator.hpp"
 566              		.file 5 "src/../h/../h/ptr_queue.hpp"
 567              		.file 6 "src/../h/../h/../h/kernel_operators.hpp"
 568              		.file 7 "src/../h/../h/tcb.hpp"
 569              		.file 8 "src/../h/../h/ksemaphore.hpp"
 570              		.file 9 "src/../h/../h/stdio.hpp"
 571              		.file 10 "src/../h/../h/scheduler.hpp"
 572              		.file 11 "src/../h/../h/syscall_c.h"
 573              		.file 12 "src/../h/../h/kernel_funs.h"
GAS LISTING /tmp/ccKeSChK.s 			page 18

