GAS LISTING /tmp/ccNCgygC.s 			page 1


   1              		.file	"main.cpp"
   2              		.option nopic
   3              		.option norelax
   4              		.attribute arch, "rv64i2p0_m2p0_a2p0"
   5              		.attribute unaligned_access, 0
   6              		.attribute stack_align, 16
   7              		.text
   8              	.Ltext0:
   9              		.align	2
  10              		.globl	main
  12              	main:
  13              	.LFB91:
  14              		.file 1 "src/main.cpp"
   1:src/main.cpp  **** #include"../h/kernel_lib.h"
   2:src/main.cpp  **** 
   3:src/main.cpp  **** int main(){
  15              		.loc 1 3 11
  16              		.cfi_startproc
  17 0000 130101FD 		addi	sp,sp,-48
  18              		.cfi_def_cfa_offset 48
  19 0004 23341102 		sd	ra,40(sp)
  20 0008 23308102 		sd	s0,32(sp)
  21 000c 233C9100 		sd	s1,24(sp)
  22              		.cfi_offset 1, -8
  23              		.cfi_offset 8, -16
  24              		.cfi_offset 9, -24
  25 0010 13040103 		addi	s0,sp,48
  26              		.cfi_def_cfa 8, 0
   4:src/main.cpp  ****     uint64 ra, sp;
  27              		.loc 1 4 5
   5:src/main.cpp  ****     asm volatile("mv %0, ra" : "=r" (ra));
  28              		.loc 1 5 5
  29              		.loc 1 5 42 is_stmt 0
  30              	 #APP
  31              	# 5 "src/main.cpp" 1
   6              	    asm volatile("mv %0, sp" : "=r" (sp));
  32              		mv a0, ra
  33              	# 0 "" 2
  34              	.LVL0:
  35              		.loc 1 6 5 is_stmt 1
  36              		.loc 1 6 42 is_stmt 0
  37              	# 6 "src/main.cpp" 1
   7              	    TCB::setPanicContext(ra,sp);
  38              		mv a1, sp
  39              	# 0 "" 2
  40              	.LVL1:
  41              		.loc 1 7 5 is_stmt 1
  42              		.loc 1 7 25 is_stmt 0
  43              	 #NO_APP
  44 001c 97000000 		call	_ZN3TCB15setPanicContextEmm
  44      E7800000 
  45              	.LVL2:
   8:src/main.cpp  **** 
   9:src/main.cpp  ****     int panic = kernelInit();
  46              		.loc 1 9 5 is_stmt 1
  47              		.loc 1 9 27 is_stmt 0
  48 0024 97000000 		call	_Z10kernelInitv
GAS LISTING /tmp/ccNCgygC.s 			page 2


  48      E7800000 
  49              	.LVL3:
  10:src/main.cpp  ****     if(panic < 0){
  50              		.loc 1 10 5 is_stmt 1
  51 002c 63420504 		blt	a0,zero,.L5
  11:src/main.cpp  ****         kprintString("\nKERNEL FAILED TO INITALIZE!!!!\n\n");
  12:src/main.cpp  ****         return -1;
  13:src/main.cpp  ****     }
  14:src/main.cpp  ****    
  15:src/main.cpp  ****     uint64 sstatus = Riscv::r_sstatus();
  52              		.loc 1 15 5
  53              	.LBB6:
  54              	.LBB7:
  55              		.file 2 "src/../h/../h/riscv.hpp"
   1:src/../h/../h/riscv.hpp **** #ifndef __riscv__
   2:src/../h/../h/riscv.hpp **** #define __riscv__
   3:src/../h/../h/riscv.hpp **** 
   4:src/../h/../h/riscv.hpp **** #include"../lib/hw.h"
   5:src/../h/../h/riscv.hpp **** 
   6:src/../h/../h/riscv.hpp **** class Riscv{
   7:src/../h/../h/riscv.hpp **** public:
   8:src/../h/../h/riscv.hpp ****     
   9:src/../h/../h/riscv.hpp ****     static void w_scause(uint64);
  10:src/../h/../h/riscv.hpp ****     static uint64 r_scause(); 
  11:src/../h/../h/riscv.hpp **** 
  12:src/../h/../h/riscv.hpp ****     static void w_sepc(uint64);
  13:src/../h/../h/riscv.hpp ****     static uint64 r_sepc();
  14:src/../h/../h/riscv.hpp ****     static void ni_sepc();
  15:src/../h/../h/riscv.hpp **** 
  16:src/../h/../h/riscv.hpp ****     static void w_stvec(uint64);
  17:src/../h/../h/riscv.hpp ****     static uint64 r_stvec();
  18:src/../h/../h/riscv.hpp ****      
  19:src/../h/../h/riscv.hpp ****     static void w_stval(uint64);
  20:src/../h/../h/riscv.hpp ****     static uint64 r_stval();
  21:src/../h/../h/riscv.hpp ****     
  22:src/../h/../h/riscv.hpp ****     enum BitMaskSip{
  23:src/../h/../h/riscv.hpp ****         SIP_SSIE = (1<<1),
  24:src/../h/../h/riscv.hpp ****         SIP_STIE = (1<<5),
  25:src/../h/../h/riscv.hpp ****         SIP_SEIE = (1<<9),
  26:src/../h/../h/riscv.hpp ****     };
  27:src/../h/../h/riscv.hpp **** 
  28:src/../h/../h/riscv.hpp ****     static void ms_sip(uint64);
  29:src/../h/../h/riscv.hpp ****     static void mc_sip(uint64);
  30:src/../h/../h/riscv.hpp **** 
  31:src/../h/../h/riscv.hpp ****     static void w_sip(uint64);
  32:src/../h/../h/riscv.hpp ****     static uint64 r_sip();
  33:src/../h/../h/riscv.hpp **** 
  34:src/../h/../h/riscv.hpp ****     enum BitMaskSstatus{
  35:src/../h/../h/riscv.hpp ****         SSTATUS_SIE = (1<<1),
  36:src/../h/../h/riscv.hpp ****         SSTATUS_SPIE = (1<<5),
  37:src/../h/../h/riscv.hpp ****         SSTATUS_SPP = (1<<8),
  38:src/../h/../h/riscv.hpp ****     };
  39:src/../h/../h/riscv.hpp **** 
  40:src/../h/../h/riscv.hpp ****     static void ms_sstatus(uint64);
  41:src/../h/../h/riscv.hpp ****     static void mc_sstatus(uint64);
  42:src/../h/../h/riscv.hpp **** 
  43:src/../h/../h/riscv.hpp ****     static void w_sstatus(uint64);
GAS LISTING /tmp/ccNCgygC.s 			page 3


  44:src/../h/../h/riscv.hpp ****     static uint64 r_sstatus();
  45:src/../h/../h/riscv.hpp **** 
  46:src/../h/../h/riscv.hpp ****     static uint64 r_a0();
  47:src/../h/../h/riscv.hpp ****     static uint64 s_a0(uint64 a0);
  48:src/../h/../h/riscv.hpp ****     static uint64 r_a1();
  49:src/../h/../h/riscv.hpp ****     static uint64 r_a2();
  50:src/../h/../h/riscv.hpp ****     static uint64 r_a3();
  51:src/../h/../h/riscv.hpp ****     static uint64 r_a4();
  52:src/../h/../h/riscv.hpp **** 
  53:src/../h/../h/riscv.hpp ****     static void popRegisters();
  54:src/../h/../h/riscv.hpp ****     static void pushRegisters();
  55:src/../h/../h/riscv.hpp **** 
  56:src/../h/../h/riscv.hpp ****     static void popSppSpie();
  57:src/../h/../h/riscv.hpp **** 
  58:src/../h/../h/riscv.hpp ****     static void mc_cstatus(uint64 mask);
  59:src/../h/../h/riscv.hpp ****     static bool cstatus_ready(uint64 mask);
  60:src/../h/../h/riscv.hpp **** };
  61:src/../h/../h/riscv.hpp **** 
  62:src/../h/../h/riscv.hpp **** inline uint64 Riscv::r_a0(){
  63:src/../h/../h/riscv.hpp ****     uint64 a0;
  64:src/../h/../h/riscv.hpp ****     asm volatile("mv %0, a0" : "=r" (a0));
  65:src/../h/../h/riscv.hpp ****     return a0;
  66:src/../h/../h/riscv.hpp **** }
  67:src/../h/../h/riscv.hpp **** 
  68:src/../h/../h/riscv.hpp **** inline uint64 Riscv::r_a1(){
  69:src/../h/../h/riscv.hpp ****     uint64 a0;
  70:src/../h/../h/riscv.hpp ****     asm volatile("mv %0, a1" : "=r" (a0));
  71:src/../h/../h/riscv.hpp ****     return a0;
  72:src/../h/../h/riscv.hpp **** }
  73:src/../h/../h/riscv.hpp **** 
  74:src/../h/../h/riscv.hpp **** inline uint64 Riscv::r_a2(){
  75:src/../h/../h/riscv.hpp ****     uint64 a0;
  76:src/../h/../h/riscv.hpp ****     asm volatile("mv %0, a2" : "=r" (a0));
  77:src/../h/../h/riscv.hpp ****     return a0;
  78:src/../h/../h/riscv.hpp **** }
  79:src/../h/../h/riscv.hpp **** 
  80:src/../h/../h/riscv.hpp **** inline uint64 Riscv::r_a3(){
  81:src/../h/../h/riscv.hpp ****     uint64 a0;
  82:src/../h/../h/riscv.hpp ****     asm volatile("mv %0, a3" : "=r" (a0));
  83:src/../h/../h/riscv.hpp ****     return a0;
  84:src/../h/../h/riscv.hpp **** }
  85:src/../h/../h/riscv.hpp **** 
  86:src/../h/../h/riscv.hpp **** inline uint64 Riscv::r_a4(){
  87:src/../h/../h/riscv.hpp ****     uint64 a0;
  88:src/../h/../h/riscv.hpp ****     asm volatile("mv %0, a4" : "=r" (a0));
  89:src/../h/../h/riscv.hpp ****     return a0;
  90:src/../h/../h/riscv.hpp **** }
  91:src/../h/../h/riscv.hpp **** 
  92:src/../h/../h/riscv.hpp **** 
  93:src/../h/../h/riscv.hpp **** inline uint64 Riscv::s_a0(uint64 a0){
  94:src/../h/../h/riscv.hpp ****     return a0;
  95:src/../h/../h/riscv.hpp **** }
  96:src/../h/../h/riscv.hpp **** 
  97:src/../h/../h/riscv.hpp **** inline void Riscv::w_scause(uint64 scause){
  98:src/../h/../h/riscv.hpp ****     asm volatile("csrw scause, %0" : : "r" (scause));
  99:src/../h/../h/riscv.hpp **** }
 100:src/../h/../h/riscv.hpp **** 
GAS LISTING /tmp/ccNCgygC.s 			page 4


 101:src/../h/../h/riscv.hpp **** inline uint64 Riscv::r_scause(){
 102:src/../h/../h/riscv.hpp ****     uint64 volatile scause;
 103:src/../h/../h/riscv.hpp ****     asm volatile("csrr %0, scause" : "=r" (scause));
 104:src/../h/../h/riscv.hpp ****     return scause;
 105:src/../h/../h/riscv.hpp **** } 
 106:src/../h/../h/riscv.hpp **** 
 107:src/../h/../h/riscv.hpp **** inline void Riscv::w_sepc(uint64 sepc){
 108:src/../h/../h/riscv.hpp ****     asm volatile("csrw sepc, %0" : : "r" (sepc));
 109:src/../h/../h/riscv.hpp **** }
 110:src/../h/../h/riscv.hpp **** 
 111:src/../h/../h/riscv.hpp **** inline uint64 Riscv::r_sepc(){
 112:src/../h/../h/riscv.hpp ****     uint64 volatile sepc;
 113:src/../h/../h/riscv.hpp ****     asm volatile("csrr %0, sepc" : "=r" (sepc));
 114:src/../h/../h/riscv.hpp ****     return sepc;
 115:src/../h/../h/riscv.hpp **** } 
 116:src/../h/../h/riscv.hpp **** 
 117:src/../h/../h/riscv.hpp **** inline void Riscv::w_stvec(uint64 stvec){
 118:src/../h/../h/riscv.hpp ****     asm volatile("csrw stvec, %0" : : "r" (stvec));
 119:src/../h/../h/riscv.hpp **** }
 120:src/../h/../h/riscv.hpp **** 
 121:src/../h/../h/riscv.hpp **** inline uint64 Riscv::r_stvec(){
 122:src/../h/../h/riscv.hpp ****     uint64 volatile stvec;
 123:src/../h/../h/riscv.hpp ****     asm volatile("csrr %0, stvec" : "=r" (stvec));
 124:src/../h/../h/riscv.hpp ****     return stvec;
 125:src/../h/../h/riscv.hpp **** } 
 126:src/../h/../h/riscv.hpp **** 
 127:src/../h/../h/riscv.hpp **** inline void Riscv::w_stval(uint64 stval){
 128:src/../h/../h/riscv.hpp ****     asm volatile("csrw stval, %0" : : "r" (stval));
 129:src/../h/../h/riscv.hpp **** }
 130:src/../h/../h/riscv.hpp **** 
 131:src/../h/../h/riscv.hpp **** inline uint64 Riscv::r_stval(){
 132:src/../h/../h/riscv.hpp ****     uint64 volatile stval;
 133:src/../h/../h/riscv.hpp ****     asm volatile("csrr %0, stval" : "=r" (stval));
 134:src/../h/../h/riscv.hpp ****     return stval;
 135:src/../h/../h/riscv.hpp **** } 
 136:src/../h/../h/riscv.hpp **** 
 137:src/../h/../h/riscv.hpp **** inline void Riscv::ms_sip(uint64 mask){
 138:src/../h/../h/riscv.hpp ****     asm volatile ("csrs sip, %0" : : "r" (mask));
 139:src/../h/../h/riscv.hpp **** }
 140:src/../h/../h/riscv.hpp **** 
 141:src/../h/../h/riscv.hpp **** inline void Riscv::mc_sip(uint64 mask){
 142:src/../h/../h/riscv.hpp ****     asm volatile ("csrc sip, %0" : : "r" (mask));
 143:src/../h/../h/riscv.hpp **** }
 144:src/../h/../h/riscv.hpp **** 
 145:src/../h/../h/riscv.hpp **** inline void Riscv::w_sip(uint64 sip){
 146:src/../h/../h/riscv.hpp ****     asm volatile("csrw sip, %0" : : "r" (sip));
 147:src/../h/../h/riscv.hpp **** }
 148:src/../h/../h/riscv.hpp **** 
 149:src/../h/../h/riscv.hpp **** inline uint64 Riscv::r_sip(){
 150:src/../h/../h/riscv.hpp ****     uint64 volatile sip;
 151:src/../h/../h/riscv.hpp ****     asm volatile("csrr %0, sip" : "=r" (sip));
 152:src/../h/../h/riscv.hpp ****     return sip;
 153:src/../h/../h/riscv.hpp **** } 
 154:src/../h/../h/riscv.hpp **** 
 155:src/../h/../h/riscv.hpp **** inline void Riscv::ms_sstatus(uint64 mask){
 156:src/../h/../h/riscv.hpp ****     asm volatile ("csrs sstatus, %0" : : "r" (mask));
 157:src/../h/../h/riscv.hpp **** }
GAS LISTING /tmp/ccNCgygC.s 			page 5


 158:src/../h/../h/riscv.hpp **** 
 159:src/../h/../h/riscv.hpp **** inline void Riscv::mc_sstatus(uint64 mask){
 160:src/../h/../h/riscv.hpp ****     asm volatile ("csrc sstatus, %0" : : "r" (mask));
 161:src/../h/../h/riscv.hpp **** }
 162:src/../h/../h/riscv.hpp **** 
 163:src/../h/../h/riscv.hpp **** inline void Riscv::w_sstatus(uint64 sstatus){
 164:src/../h/../h/riscv.hpp ****     asm volatile("csrw sstatus, %0" : : "r" (sstatus));
 165:src/../h/../h/riscv.hpp **** }
 166:src/../h/../h/riscv.hpp **** 
 167:src/../h/../h/riscv.hpp **** inline uint64 Riscv::r_sstatus(){
 168:src/../h/../h/riscv.hpp ****     uint64 volatile sstatus;
  56              		.loc 2 168 5
 169:src/../h/../h/riscv.hpp ****     asm volatile("csrr %0, sstatus" : "=r" (sstatus));
  57              		.loc 2 169 5
  58              		.loc 2 169 54 is_stmt 0
  59              	 #APP
  60              	# 169 "src/../h/../h/riscv.hpp" 1
 170              	    return sstatus;
  61              		csrr a5, sstatus
  62              	# 0 "" 2
  63              	 #NO_APP
  64 0034 233CF4FC 		sd	a5,-40(s0)
  65              		.loc 2 170 5 is_stmt 1
  66              		.loc 2 170 12 is_stmt 0
  67 0038 833484FD 		ld	s1,-40(s0)
  68              	.LVL4:
  69              	.LBE7:
  70              	.LBE6:
  16:src/main.cpp  ****     TCB::yield();
  71              		.loc 1 16 5 is_stmt 1
  72              		.loc 1 16 15 is_stmt 0
  73 003c 97000000 		call	_ZN3TCB5yieldEv
  73      E7800000 
  74              	.LVL5:
  17:src/main.cpp  ****     Riscv::w_sstatus(sstatus);
  75              		.loc 1 17 5 is_stmt 1
  76              	.LBB8:
  77              	.LBB9:
 164:src/../h/../h/riscv.hpp **** }
  78              		.loc 2 164 5
 164:src/../h/../h/riscv.hpp **** }
  79              		.loc 2 164 55 is_stmt 0
  80              	 #APP
  81              	# 164 "src/../h/../h/riscv.hpp" 1
  82              		csrw sstatus, s1
  83              	# 0 "" 2
  84              	.LVL6:
  85              	 #NO_APP
  86              	.LBE9:
  87              	.LBE8:
  18:src/main.cpp  ****     
  19:src/main.cpp  **** 
  20:src/main.cpp  ****     kprintString("\n\nKERNEL ENDED SUCCESSFULLY!\n\n");
  88              		.loc 1 20 5 is_stmt 1
  89              		.loc 1 20 17 is_stmt 0
  90 0048 17050000 		lla	a0,.LC1
  90      13050500 
GAS LISTING /tmp/ccNCgygC.s 			page 6


  91 0050 97000000 		call	_Z12kprintStringPKc
  91      E7800000 
  92              	.LVL7:
  21:src/main.cpp  ****     return 0;
  93              		.loc 1 21 5 is_stmt 1
  94              		.loc 1 21 12 is_stmt 0
  95 0058 13050000 		li	a0,0
  96              	.LVL8:
  97              	.L3:
  22:src/main.cpp  **** }   ...
  98              		.loc 1 22 1
  99 005c 83308102 		ld	ra,40(sp)
 100              		.cfi_remember_state
 101              		.cfi_restore 1
 102 0060 03340102 		ld	s0,32(sp)
 103              		.cfi_restore 8
 104              		.cfi_def_cfa 2, 48
 105 0064 83348101 		ld	s1,24(sp)
 106              		.cfi_restore 9
 107 0068 13010103 		addi	sp,sp,48
 108              		.cfi_def_cfa_offset 0
 109 006c 67800000 		jr	ra
 110              	.LVL9:
 111              	.L5:
 112              		.cfi_restore_state
  11:src/main.cpp  ****         kprintString("\nKERNEL FAILED TO INITALIZE!!!!\n\n");
 113              		.loc 1 11 9 is_stmt 1
  11:src/main.cpp  ****         kprintString("\nKERNEL FAILED TO INITALIZE!!!!\n\n");
 114              		.loc 1 11 21 is_stmt 0
 115 0070 17050000 		lla	a0,.LC0
 115      13050500 
 116              	.LVL10:
 117 0078 97000000 		call	_Z12kprintStringPKc
 117      E7800000 
 118              	.LVL11:
  12:src/main.cpp  ****         return -1;
 119              		.loc 1 12 9 is_stmt 1
  12:src/main.cpp  ****         return -1;
 120              		.loc 1 12 17 is_stmt 0
 121 0080 1305F0FF 		li	a0,-1
 122 0084 6FF09FFD 		j	.L3
 123              		.cfi_endproc
 124              	.LFE91:
 126              		.section	.rodata.str1.8,"aMS",@progbits,1
 127              		.align	3
 128              	.LC0:
 129 0000 0A4B4552 		.string	"\nKERNEL FAILED TO INITALIZE!!!!\n\n"
 129      4E454C20 
 129      4641494C 
 129      45442054 
 129      4F20494E 
 130 0022 00000000 		.zero	6
 130      0000
 131              	.LC1:
 132 0028 0A0A4B45 		.string	"\n\nKERNEL ENDED SUCCESSFULLY!\n\n"
 132      524E454C 
 132      20454E44 
GAS LISTING /tmp/ccNCgygC.s 			page 7


 132      45442053 
 132      55434345 
 133              		.text
 134              	.Letext0:
 135              		.file 3 "src/../h/../h/../lib/hw.h"
 136              		.file 4 "src/../h/../h/tcb.hpp"
 137              		.file 5 "src/../h/../h/../h/kernel_operators.hpp"
 138              		.file 6 "src/../h/../h/kernel_funs.h"
GAS LISTING /tmp/ccNCgygC.s 			page 8


DEFINED SYMBOLS
                            *ABS*:0000000000000000 main.cpp
     /tmp/ccNCgygC.s:12     .text:0000000000000000 main
     /tmp/ccNCgygC.s:16     .text:0000000000000000 .L0 
     /tmp/ccNCgygC.s:17     .text:0000000000000000 .L0 
     /tmp/ccNCgygC.s:18     .text:0000000000000004 .L0 
     /tmp/ccNCgygC.s:22     .text:0000000000000010 .L0 
     /tmp/ccNCgygC.s:23     .text:0000000000000010 .L0 
     /tmp/ccNCgygC.s:24     .text:0000000000000010 .L0 
     /tmp/ccNCgygC.s:26     .text:0000000000000014 .L0 
     /tmp/ccNCgygC.s:28     .text:0000000000000014 .L0 
     /tmp/ccNCgygC.s:29     .text:0000000000000014 .L0 
        src/main.cpp:5      .text:0000000000000014 .L0 
     /tmp/ccNCgygC.s:36     .text:0000000000000018 .L0 
        src/main.cpp:6      .text:0000000000000018 .L0 
     /tmp/ccNCgygC.s:42     .text:000000000000001c .L0 
     /tmp/ccNCgygC.s:44     .text:000000000000001c .L0 
     /tmp/ccNCgygC.s:47     .text:0000000000000024 .L0 
     /tmp/ccNCgygC.s:48     .text:0000000000000024 .L0 
     /tmp/ccNCgygC.s:51     .text:000000000000002c .L0 
     /tmp/ccNCgygC.s:56     .text:0000000000000030 .L0 
     /tmp/ccNCgygC.s:57     .text:0000000000000030 .L0 
     /tmp/ccNCgygC.s:58     .text:0000000000000030 .L0 
src/../h/../h/riscv.hpp:169    .text:0000000000000030 .L0 
     /tmp/ccNCgygC.s:66     .text:0000000000000038 .L0 
     /tmp/ccNCgygC.s:67     .text:0000000000000038 .L0 
     /tmp/ccNCgygC.s:72     .text:000000000000003c .L0 
     /tmp/ccNCgygC.s:73     .text:000000000000003c .L0 
     /tmp/ccNCgygC.s:78     .text:0000000000000044 .L0 
     /tmp/ccNCgygC.s:79     .text:0000000000000044 .L0 
src/../h/../h/riscv.hpp:164    .text:0000000000000044 .L0 
     /tmp/ccNCgygC.s:89     .text:0000000000000048 .L0 
     /tmp/ccNCgygC.s:90     .text:0000000000000048 .L0 
     /tmp/ccNCgygC.s:94     .text:0000000000000058 .L0 
     /tmp/ccNCgygC.s:95     .text:0000000000000058 .L0 
     /tmp/ccNCgygC.s:99     .text:000000000000005c .L0 
     /tmp/ccNCgygC.s:100    .text:0000000000000060 .L0 
     /tmp/ccNCgygC.s:101    .text:0000000000000060 .L0 
     /tmp/ccNCgygC.s:103    .text:0000000000000064 .L0 
     /tmp/ccNCgygC.s:104    .text:0000000000000064 .L0 
     /tmp/ccNCgygC.s:106    .text:0000000000000068 .L0 
     /tmp/ccNCgygC.s:108    .text:000000000000006c .L0 
     /tmp/ccNCgygC.s:112    .text:0000000000000070 .L0 
     /tmp/ccNCgygC.s:114    .text:0000000000000070 .L0 
     /tmp/ccNCgygC.s:115    .text:0000000000000070 .L0 
     /tmp/ccNCgygC.s:120    .text:0000000000000080 .L0 
     /tmp/ccNCgygC.s:121    .text:0000000000000080 .L0 
     /tmp/ccNCgygC.s:123    .text:0000000000000088 .L0 
     /tmp/ccNCgygC.s:139    .text:0000000000000088 .L0 
     /tmp/ccNCgygC.s:131    .rodata.str1.8:0000000000000028 .LC1
     /tmp/ccNCgygC.s:90     .text:0000000000000048 .L0 
     /tmp/ccNCgygC.s:128    .rodata.str1.8:0000000000000000 .LC0
     /tmp/ccNCgygC.s:115    .text:0000000000000070 .L0 
     /tmp/ccNCgygC.s:111    .text:0000000000000070 .L5
     /tmp/ccNCgygC.s:97     .text:000000000000005c .L3
     /tmp/ccNCgygC.s:1191   .debug_abbrev:0000000000000000 .Ldebug_abbrev0
     /tmp/ccNCgygC.s:2172   .debug_str:0000000000000354 .LASF154
GAS LISTING /tmp/ccNCgygC.s 			page 9


     /tmp/ccNCgygC.s:2132   .debug_str:0000000000000246 .LASF155
     /tmp/ccNCgygC.s:2242   .debug_str:0000000000000620 .LASF156
     /tmp/ccNCgygC.s:8      .text:0000000000000000 .Ltext0
     /tmp/ccNCgygC.s:134    .text:0000000000000088 .Letext0
     /tmp/ccNCgygC.s:2048   .debug_line:0000000000000000 .Ldebug_line0
     /tmp/ccNCgygC.s:2158   .debug_str:00000000000002f4 .LASF0
     /tmp/ccNCgygC.s:2180   .debug_str:000000000000044b .LASF1
     /tmp/ccNCgygC.s:2252   .debug_str:0000000000000685 .LASF2
     /tmp/ccNCgygC.s:2262   .debug_str:00000000000006d8 .LASF4
     /tmp/ccNCgygC.s:2166   .debug_str:0000000000000328 .LASF3
     /tmp/ccNCgygC.s:2066   .debug_str:000000000000008a .LASF5
     /tmp/ccNCgygC.s:2230   .debug_str:00000000000005b8 .LASF6
     /tmp/ccNCgygC.s:2228   .debug_str:00000000000005a5 .LASF7
     /tmp/ccNCgygC.s:2174   .debug_str:0000000000000418 .LASF8
     /tmp/ccNCgygC.s:2138   .debug_str:0000000000000264 .LASF9
     /tmp/ccNCgygC.s:2144   .debug_str:000000000000028c .LASF10
     /tmp/ccNCgygC.s:2098   .debug_str:0000000000000149 .LASF11
     /tmp/ccNCgygC.s:2130   .debug_str:0000000000000237 .LASF12
     /tmp/ccNCgygC.s:2108   .debug_str:000000000000017e .LASF13
     /tmp/ccNCgygC.s:2096   .debug_str:0000000000000139 .LASF14
     /tmp/ccNCgygC.s:2294   .debug_str:00000000000007b0 .LASF15
     /tmp/ccNCgygC.s:2124   .debug_str:00000000000001f5 .LASF16
     /tmp/ccNCgygC.s:2282   .debug_str:0000000000000753 .LASF17
     /tmp/ccNCgygC.s:2194   .debug_str:00000000000004aa .LASF18
     /tmp/ccNCgygC.s:2310   .debug_str:000000000000081e .LASF157
     /tmp/ccNCgygC.s:2054   .debug_str:0000000000000028 .LASF19
     /tmp/ccNCgygC.s:2094   .debug_str:0000000000000133 .LASF20
     /tmp/ccNCgygC.s:2082   .debug_str:00000000000000d9 .LASF21
     /tmp/ccNCgygC.s:2102   .debug_str:000000000000015d .LASF22
     /tmp/ccNCgygC.s:2298   .debug_str:00000000000007d2 .LASF158
     /tmp/ccNCgygC.s:2370   .debug_str:00000000000009ba .LASF23
     /tmp/ccNCgygC.s:2142   .debug_str:0000000000000280 .LASF25
     /tmp/ccNCgygC.s:2086   .debug_str:00000000000000f0 .LASF24
     /tmp/ccNCgygC.s:2136   .debug_str:0000000000000258 .LASF26
     /tmp/ccNCgygC.s:2058   .debug_str:0000000000000035 .LASF27
     /tmp/ccNCgygC.s:2212   .debug_str:0000000000000537 .LASF29
     /tmp/ccNCgygC.s:2280   .debug_str:0000000000000740 .LASF28
     /tmp/ccNCgygC.s:2254   .debug_str:0000000000000693 .LASF30
     /tmp/ccNCgygC.s:2264   .debug_str:00000000000006df .LASF31
     /tmp/ccNCgygC.s:2064   .debug_str:000000000000007e .LASF32
     /tmp/ccNCgygC.s:2258   .debug_str:00000000000006b8 .LASF33
     /tmp/ccNCgygC.s:2110   .debug_str:000000000000018e .LASF34
     /tmp/ccNCgygC.s:2274   .debug_str:000000000000071d .LASF37
     /tmp/ccNCgygC.s:2278   .debug_str:000000000000072c .LASF39
     /tmp/ccNCgygC.s:2196   .debug_str:00000000000004af .LASF35
     /tmp/ccNCgygC.s:2128   .debug_str:0000000000000226 .LASF36
     /tmp/ccNCgygC.s:2300   .debug_str:00000000000007da .LASF38
     /tmp/ccNCgygC.s:2296   .debug_str:00000000000007bc .LASF40
     /tmp/ccNCgygC.s:2184   .debug_str:0000000000000464 .LASF41
     /tmp/ccNCgygC.s:2330   .debug_str:0000000000000892 .LASF42
     /tmp/ccNCgygC.s:2140   .debug_str:0000000000000274 .LASF43
     /tmp/ccNCgygC.s:2260   .debug_str:00000000000006c1 .LASF44
     /tmp/ccNCgygC.s:2226   .debug_str:0000000000000597 .LASF45
     /tmp/ccNCgygC.s:2372   .debug_str:00000000000009c7 .LASF46
     /tmp/ccNCgygC.s:2312   .debug_str:0000000000000827 .LASF47
     /tmp/ccNCgygC.s:2332   .debug_str:00000000000008ab .LASF48
     /tmp/ccNCgygC.s:2150   .debug_str:00000000000002b0 .LASF49
GAS LISTING /tmp/ccNCgygC.s 			page 10


     /tmp/ccNCgygC.s:2050   .debug_str:0000000000000000 .LASF50
     /tmp/ccNCgygC.s:2292   .debug_str:00000000000007a3 .LASF51
     /tmp/ccNCgygC.s:2352   .debug_str:0000000000000925 .LASF52
     /tmp/ccNCgygC.s:2218   .debug_str:000000000000056d .LASF159
     /tmp/ccNCgygC.s:2182   .debug_str:000000000000045e .LASF53
     /tmp/ccNCgygC.s:2244   .debug_str:0000000000000643 .LASF55
     /tmp/ccNCgygC.s:2116   .debug_str:00000000000001cd .LASF54
     /tmp/ccNCgygC.s:2104   .debug_str:0000000000000166 .LASF56
     /tmp/ccNCgygC.s:2178   .debug_str:000000000000043e .LASF57
     /tmp/ccNCgygC.s:2200   .debug_str:00000000000004c2 .LASF58
     /tmp/ccNCgygC.s:2078   .debug_str:00000000000000c9 .LASF59
     /tmp/ccNCgygC.s:2306   .debug_str:0000000000000806 .LASF60
     /tmp/ccNCgygC.s:2358   .debug_str:0000000000000954 .LASF61
     /tmp/ccNCgygC.s:2206   .debug_str:0000000000000506 .LASF63
     /tmp/ccNCgygC.s:2328   .debug_str:0000000000000888 .LASF62
     /tmp/ccNCgygC.s:2092   .debug_str:000000000000011f .LASF64
     /tmp/ccNCgygC.s:2248   .debug_str:000000000000065c .LASF65
     /tmp/ccNCgygC.s:2304   .debug_str:00000000000007ea .LASF66
     /tmp/ccNCgygC.s:2052   .debug_str:000000000000001a .LASF67
     /tmp/ccNCgygC.s:2250   .debug_str:000000000000066c .LASF68
     /tmp/ccNCgygC.s:2272   .debug_str:000000000000070c .LASF69
     /tmp/ccNCgygC.s:2308   .debug_str:0000000000000816 .LASF70
     /tmp/ccNCgygC.s:2100   .debug_str:0000000000000158 .LASF71
     /tmp/ccNCgygC.s:2360   .debug_str:000000000000096b .LASF72
     /tmp/ccNCgygC.s:2192   .debug_str:000000000000049d .LASF73
     /tmp/ccNCgygC.s:2222   .debug_str:0000000000000583 .LASF74
     /tmp/ccNCgygC.s:2070   .debug_str:000000000000009c .LASF75
     /tmp/ccNCgygC.s:2056   .debug_str:0000000000000030 .LASF76
     /tmp/ccNCgygC.s:2366   .debug_str:000000000000099d .LASF77
     /tmp/ccNCgygC.s:2276   .debug_str:0000000000000726 .LASF78
     /tmp/ccNCgygC.s:2316   .debug_str:000000000000083c .LASF79
     /tmp/ccNCgygC.s:2118   .debug_str:00000000000001d6 .LASF80
     /tmp/ccNCgygC.s:2198   .debug_str:00000000000004b6 .LASF81
     /tmp/ccNCgygC.s:2170   .debug_str:000000000000034b .LASF82
     /tmp/ccNCgygC.s:2224   .debug_str:0000000000000590 .LASF83
     /tmp/ccNCgygC.s:2320   .debug_str:0000000000000857 .LASF84
     /tmp/ccNCgygC.s:2286   .debug_str:0000000000000771 .LASF160
     /tmp/ccNCgygC.s:2084   .debug_str:00000000000000e2 .LASF85
     /tmp/ccNCgygC.s:2186   .debug_str:0000000000000471 .LASF87
     /tmp/ccNCgygC.s:2112   .debug_str:00000000000001ad .LASF161
     /tmp/ccNCgygC.s:2062   .debug_str:0000000000000056 .LASF162
     /tmp/ccNCgygC.s:2080   .debug_str:00000000000000cf .LASF86
     /tmp/ccNCgygC.s:2204   .debug_str:00000000000004f2 .LASF88
     /tmp/ccNCgygC.s:2340   .debug_str:00000000000008fe .LASF89
     /tmp/ccNCgygC.s:2246   .debug_str:0000000000000653 .LASF90
     /tmp/ccNCgygC.s:2216   .debug_str:0000000000000558 .LASF91
     /tmp/ccNCgygC.s:2326   .debug_str:000000000000087f .LASF92
     /tmp/ccNCgygC.s:2322   .debug_str:000000000000085f .LASF93
     /tmp/ccNCgygC.s:2210   .debug_str:0000000000000530 .LASF94
     /tmp/ccNCgygC.s:2176   .debug_str:000000000000042b .LASF95
     /tmp/ccNCgygC.s:2232   .debug_str:00000000000005bf .LASF96
     /tmp/ccNCgygC.s:2234   .debug_str:00000000000005c6 .LASF97
     /tmp/ccNCgygC.s:2074   .debug_str:00000000000000b4 .LASF98
     /tmp/ccNCgygC.s:2334   .debug_str:00000000000008c6 .LASF99
     /tmp/ccNCgygC.s:2208   .debug_str:0000000000000528 .LASF100
     /tmp/ccNCgygC.s:2214   .debug_str:0000000000000544 .LASF101
     /tmp/ccNCgygC.s:2356   .debug_str:000000000000094c .LASF102
GAS LISTING /tmp/ccNCgygC.s 			page 11


     /tmp/ccNCgygC.s:2290   .debug_str:000000000000078f .LASF103
     /tmp/ccNCgygC.s:2284   .debug_str:0000000000000769 .LASF104
     /tmp/ccNCgygC.s:2164   .debug_str:0000000000000314 .LASF105
     /tmp/ccNCgygC.s:2188   .debug_str:000000000000048a .LASF106
     /tmp/ccNCgygC.s:2236   .debug_str:00000000000005d9 .LASF107
     /tmp/ccNCgygC.s:2288   .debug_str:0000000000000788 .LASF108
     /tmp/ccNCgygC.s:2266   .debug_str:00000000000006e4 .LASF109
     /tmp/ccNCgygC.s:2268   .debug_str:00000000000006f7 .LASF110
     /tmp/ccNCgygC.s:2122   .debug_str:00000000000001e2 .LASF111
     /tmp/ccNCgygC.s:2162   .debug_str:000000000000030e .LASF112
     /tmp/ccNCgygC.s:2114   .debug_str:00000000000001bb .LASF113
     /tmp/ccNCgygC.s:2120   .debug_str:00000000000001dc .LASF114
     /tmp/ccNCgygC.s:2154   .debug_str:00000000000002ca .LASF115
     /tmp/ccNCgygC.s:2068   .debug_str:0000000000000091 .LASF116
     /tmp/ccNCgygC.s:2256   .debug_str:00000000000006a0 .LASF117
     /tmp/ccNCgygC.s:2324   .debug_str:0000000000000874 .LASF118
     /tmp/ccNCgygC.s:2368   .debug_str:00000000000009a2 .LASF119
     /tmp/ccNCgygC.s:2338   .debug_str:00000000000008f4 .LASF120
     /tmp/ccNCgygC.s:2202   .debug_str:00000000000004dc .LASF121
     /tmp/ccNCgygC.s:2342   .debug_str:0000000000000904 .LASF122
     /tmp/ccNCgygC.s:2362   .debug_str:0000000000000976 .LASF123
     /tmp/ccNCgygC.s:2346   .debug_str:0000000000000916 .LASF124
     /tmp/ccNCgygC.s:2220   .debug_str:0000000000000572 .LASF125
     /tmp/ccNCgygC.s:2314   .debug_str:0000000000000837 .LASF126
     /tmp/ccNCgygC.s:2364   .debug_str:000000000000098c .LASF127
     /tmp/ccNCgygC.s:2348   .debug_str:000000000000091b .LASF128
     /tmp/ccNCgygC.s:2168   .debug_str:000000000000033a .LASF129
     /tmp/ccNCgygC.s:2350   .debug_str:0000000000000920 .LASF130
     /tmp/ccNCgygC.s:2060   .debug_str:0000000000000045 .LASF131
     /tmp/ccNCgygC.s:2106   .debug_str:0000000000000179 .LASF132
     /tmp/ccNCgygC.s:2374   .debug_str:00000000000009e0 .LASF133
     /tmp/ccNCgygC.s:2354   .debug_str:0000000000000947 .LASF134
     /tmp/ccNCgygC.s:2318   .debug_str:0000000000000846 .LASF135
     /tmp/ccNCgygC.s:2160   .debug_str:0000000000000301 .LASF136
     /tmp/ccNCgygC.s:2336   .debug_str:00000000000008da .LASF137
     /tmp/ccNCgygC.s:2270   .debug_str:00000000000006fe .LASF138
     /tmp/ccNCgygC.s:2126   .debug_str:000000000000020b .LASF139
     /tmp/ccNCgygC.s:2152   .debug_str:00000000000002bf .LASF140
     /tmp/ccNCgygC.s:2156   .debug_str:00000000000002dc .LASF141
     /tmp/ccNCgygC.s:2090   .debug_str:0000000000000114 .LASF142
     /tmp/ccNCgygC.s:2238   .debug_str:00000000000005ed .LASF143
     /tmp/ccNCgygC.s:2072   .debug_str:00000000000000a6 .LASF144
     /tmp/ccNCgygC.s:2240   .debug_str:0000000000000605 .LASF145
     /tmp/ccNCgygC.s:2302   .debug_str:00000000000007e5 .LASF146
     /tmp/ccNCgygC.s:2134   .debug_str:0000000000000253 .LASF147
     /tmp/ccNCgygC.s:13     .text:0000000000000000 .LFB91
     /tmp/ccNCgygC.s:124    .text:0000000000000088 .LFE91
     /tmp/ccNCgygC.s:1996   .debug_loc:0000000000000000 .LLST0
     /tmp/ccNCgygC.s:2003   .debug_loc:0000000000000023 .LLST1
     /tmp/ccNCgygC.s:2148   .debug_str:00000000000002aa .LASF148
     /tmp/ccNCgygC.s:2010   .debug_loc:0000000000000046 .LLST2
     /tmp/ccNCgygC.s:2344   .debug_str:000000000000090e .LASF149
     /tmp/ccNCgygC.s:2021   .debug_loc:000000000000007c .LLST3
     /tmp/ccNCgygC.s:53     .text:0000000000000030 .LBB6
     /tmp/ccNCgygC.s:70     .text:000000000000003c .LBE6
     /tmp/ccNCgygC.s:54     .text:0000000000000030 .LBB7
     /tmp/ccNCgygC.s:69     .text:000000000000003c .LBE7
GAS LISTING /tmp/ccNCgygC.s 			page 12


     /tmp/ccNCgygC.s:76     .text:0000000000000044 .LBB8
     /tmp/ccNCgygC.s:87     .text:0000000000000048 .LBE8
     /tmp/ccNCgygC.s:2028   .debug_loc:000000000000009f .LLST4
     /tmp/ccNCgygC.s:45     .text:0000000000000024 .LVL2
     /tmp/ccNCgygC.s:49     .text:000000000000002c .LVL3
     /tmp/ccNCgygC.s:74     .text:0000000000000044 .LVL5
     /tmp/ccNCgygC.s:92     .text:0000000000000058 .LVL7
     /tmp/ccNCgygC.s:118    .text:0000000000000080 .LVL11
     /tmp/ccNCgygC.s:2146   .debug_str:000000000000029a .LASF150
     /tmp/ccNCgygC.s:2190   .debug_str:0000000000000492 .LASF152
     /tmp/ccNCgygC.s:2088   .debug_str:0000000000000100 .LASF151
     /tmp/ccNCgygC.s:2076   .debug_str:00000000000000bc .LASF153
     /tmp/ccNCgygC.s:34     .text:0000000000000018 .LVL0
     /tmp/ccNCgygC.s:40     .text:000000000000001c .LVL1
     /tmp/ccNCgygC.s:110    .text:0000000000000070 .LVL9
     /tmp/ccNCgygC.s:116    .text:0000000000000078 .LVL10
     /tmp/ccNCgygC.s:68     .text:000000000000003c .LVL4
     /tmp/ccNCgygC.s:96     .text:000000000000005c .LVL8
     /tmp/ccNCgygC.s:84     .text:0000000000000048 .LVL6
     /tmp/ccNCgygC.s:140    .debug_info:0000000000000000 .Ldebug_info0

UNDEFINED SYMBOLS
_ZN3TCB15setPanicContextEmm
_Z10kernelInitv
_ZN3TCB5yieldEv
_Z12kprintStringPKc
