GAS LISTING /tmp/ccNCgygC.s 			page 1


   1              		.file	"main.cpp"
   2              		.option nopic
   3              		.option norelax
   4              		.attribute arch, "rv64i2p0_m2p0_a2p0"
   5              		.attribute unaligned_access, 0
   6              		.attribute stack_align, 16
   7              		.text
   8              	.Ltext0:
   9              		.align	2
  10              		.globl	main
  12              	main:
  13              	.LFB91:
  14              		.file 1 "src/main.cpp"
   1:src/main.cpp  **** #include"../h/kernel_lib.h"
   2:src/main.cpp  **** 
   3:src/main.cpp  **** int main(){
  15              		.loc 1 3 11
  16              		.cfi_startproc
  17 0000 130101FD 		addi	sp,sp,-48
  18              		.cfi_def_cfa_offset 48
  19 0004 23341102 		sd	ra,40(sp)
  20 0008 23308102 		sd	s0,32(sp)
  21 000c 233C9100 		sd	s1,24(sp)
  22              		.cfi_offset 1, -8
  23              		.cfi_offset 8, -16
  24              		.cfi_offset 9, -24
  25 0010 13040103 		addi	s0,sp,48
  26              		.cfi_def_cfa 8, 0
   4:src/main.cpp  ****     uint64 ra, sp;
  27              		.loc 1 4 5
   5:src/main.cpp  ****     asm volatile("mv %0, ra" : "=r" (ra));
  28              		.loc 1 5 5
  29              		.loc 1 5 42 is_stmt 0
  30              	 #APP
  31              	# 5 "src/main.cpp" 1
   6              	    asm volatile("mv %0, sp" : "=r" (sp));
  32              		mv a0, ra
  33              	# 0 "" 2
  34              	.LVL0:
  35              		.loc 1 6 5 is_stmt 1
  36              		.loc 1 6 42 is_stmt 0
  37              	# 6 "src/main.cpp" 1
   7              	    TCB::setPanicContext(ra,sp);
  38              		mv a1, sp
  39              	# 0 "" 2
  40              	.LVL1:
  41              		.loc 1 7 5 is_stmt 1
  42              		.loc 1 7 25 is_stmt 0
  43              	 #NO_APP
  44 001c 97000000 		call	_ZN3TCB15setPanicContextEmm
  44      E7800000 
  45              	.LVL2:
   8:src/main.cpp  **** 
   9:src/main.cpp  ****     int panic = kernelInit();
  46              		.loc 1 9 5 is_stmt 1
  47              		.loc 1 9 27 is_stmt 0
  48 0024 97000000 		call	_Z10kernelInitv
GAS LISTING /tmp/ccNCgygC.s 			page 2


  48      E7800000 
  49              	.LVL3:
  10:src/main.cpp  ****     if(panic < 0){
  50              		.loc 1 10 5 is_stmt 1
  51 002c 63420504 		blt	a0,zero,.L5
  11:src/main.cpp  ****         kprintString("\nKERNEL FAILED TO INITALIZE!!!!\n\n");
  12:src/main.cpp  ****         return -1;
  13:src/main.cpp  ****     }
  14:src/main.cpp  ****    
  15:src/main.cpp  ****     uint64 sstatus = Riscv::r_sstatus();
  52              		.loc 1 15 5
  53              	.LBB6:
  54              	.LBB7:
  55              		.file 2 "src/../h/../h/riscv.hpp"
   1:src/../h/../h/riscv.hpp **** #ifndef __riscv__
   2:src/../h/../h/riscv.hpp **** #define __riscv__
   3:src/../h/../h/riscv.hpp **** 
   4:src/../h/../h/riscv.hpp **** #include"../lib/hw.h"
   5:src/../h/../h/riscv.hpp **** 
   6:src/../h/../h/riscv.hpp **** class Riscv{
   7:src/../h/../h/riscv.hpp **** public:
   8:src/../h/../h/riscv.hpp ****     
   9:src/../h/../h/riscv.hpp ****     static void w_scause(uint64);
  10:src/../h/../h/riscv.hpp ****     static uint64 r_scause(); 
  11:src/../h/../h/riscv.hpp **** 
  12:src/../h/../h/riscv.hpp ****     static void w_sepc(uint64);
  13:src/../h/../h/riscv.hpp ****     static uint64 r_sepc();
  14:src/../h/../h/riscv.hpp ****     static void ni_sepc();
  15:src/../h/../h/riscv.hpp **** 
  16:src/../h/../h/riscv.hpp ****     static void w_stvec(uint64);
  17:src/../h/../h/riscv.hpp ****     static uint64 r_stvec();
  18:src/../h/../h/riscv.hpp ****      
  19:src/../h/../h/riscv.hpp ****     static void w_stval(uint64);
  20:src/../h/../h/riscv.hpp ****     static uint64 r_stval();
  21:src/../h/../h/riscv.hpp ****     
  22:src/../h/../h/riscv.hpp ****     enum BitMaskSip{
  23:src/../h/../h/riscv.hpp ****         SIP_SSIE = (1<<1),
  24:src/../h/../h/riscv.hpp ****         SIP_STIE = (1<<5),
  25:src/../h/../h/riscv.hpp ****         SIP_SEIE = (1<<9),
  26:src/../h/../h/riscv.hpp ****     };
  27:src/../h/../h/riscv.hpp **** 
  28:src/../h/../h/riscv.hpp ****     static void ms_sip(uint64);
  29:src/../h/../h/riscv.hpp ****     static void mc_sip(uint64);
  30:src/../h/../h/riscv.hpp **** 
  31:src/../h/../h/riscv.hpp ****     static void w_sip(uint64);
  32:src/../h/../h/riscv.hpp ****     static uint64 r_sip();
  33:src/../h/../h/riscv.hpp **** 
  34:src/../h/../h/riscv.hpp ****     enum BitMaskSstatus{
  35:src/../h/../h/riscv.hpp ****         SSTATUS_SIE = (1<<1),
  36:src/../h/../h/riscv.hpp ****         SSTATUS_SPIE = (1<<5),
  37:src/../h/../h/riscv.hpp ****         SSTATUS_SPP = (1<<8),
  38:src/../h/../h/riscv.hpp ****     };
  39:src/../h/../h/riscv.hpp **** 
  40:src/../h/../h/riscv.hpp ****     static void ms_sstatus(uint64);
  41:src/../h/../h/riscv.hpp ****     static void mc_sstatus(uint64);
  42:src/../h/../h/riscv.hpp **** 
  43:src/../h/../h/riscv.hpp ****     static void w_sstatus(uint64);
GAS LISTING /tmp/ccNCgygC.s 			page 3


  44:src/../h/../h/riscv.hpp ****     static uint64 r_sstatus();
  45:src/../h/../h/riscv.hpp **** 
  46:src/../h/../h/riscv.hpp ****     static uint64 r_a0();
  47:src/../h/../h/riscv.hpp ****     static uint64 s_a0(uint64 a0);
  48:src/../h/../h/riscv.hpp ****     static uint64 r_a1();
  49:src/../h/../h/riscv.hpp ****     static uint64 r_a2();
  50:src/../h/../h/riscv.hpp ****     static uint64 r_a3();
  51:src/../h/../h/riscv.hpp ****     static uint64 r_a4();
  52:src/../h/../h/riscv.hpp **** 
  53:src/../h/../h/riscv.hpp ****     static void popRegisters();
  54:src/../h/../h/riscv.hpp ****     static void pushRegisters();
  55:src/../h/../h/riscv.hpp **** 
  56:src/../h/../h/riscv.hpp ****     static void popSppSpie();
  57:src/../h/../h/riscv.hpp **** 
  58:src/../h/../h/riscv.hpp ****     static void mc_cstatus(uint64 mask);
  59:src/../h/../h/riscv.hpp ****     static bool cstatus_ready(uint64 mask);
  60:src/../h/../h/riscv.hpp **** };
  61:src/../h/../h/riscv.hpp **** 
  62:src/../h/../h/riscv.hpp **** inline uint64 Riscv::r_a0(){
  63:src/../h/../h/riscv.hpp ****     uint64 a0;
  64:src/../h/../h/riscv.hpp ****     asm volatile("mv %0, a0" : "=r" (a0));
  65:src/../h/../h/riscv.hpp ****     return a0;
  66:src/../h/../h/riscv.hpp **** }
  67:src/../h/../h/riscv.hpp **** 
  68:src/../h/../h/riscv.hpp **** inline uint64 Riscv::r_a1(){
  69:src/../h/../h/riscv.hpp ****     uint64 a0;
  70:src/../h/../h/riscv.hpp ****     asm volatile("mv %0, a1" : "=r" (a0));
  71:src/../h/../h/riscv.hpp ****     return a0;
  72:src/../h/../h/riscv.hpp **** }
  73:src/../h/../h/riscv.hpp **** 
  74:src/../h/../h/riscv.hpp **** inline uint64 Riscv::r_a2(){
  75:src/../h/../h/riscv.hpp ****     uint64 a0;
  76:src/../h/../h/riscv.hpp ****     asm volatile("mv %0, a2" : "=r" (a0));
  77:src/../h/../h/riscv.hpp ****     return a0;
  78:src/../h/../h/riscv.hpp **** }
  79:src/../h/../h/riscv.hpp **** 
  80:src/../h/../h/riscv.hpp **** inline uint64 Riscv::r_a3(){
  81:src/../h/../h/riscv.hpp ****     uint64 a0;
  82:src/../h/../h/riscv.hpp ****     asm volatile("mv %0, a3" : "=r" (a0));
  83:src/../h/../h/riscv.hpp ****     return a0;
  84:src/../h/../h/riscv.hpp **** }
  85:src/../h/../h/riscv.hpp **** 
  86:src/../h/../h/riscv.hpp **** inline uint64 Riscv::r_a4(){
  87:src/../h/../h/riscv.hpp ****     uint64 a0;
  88:src/../h/../h/riscv.hpp ****     asm volatile("mv %0, a4" : "=r" (a0));
  89:src/../h/../h/riscv.hpp ****     return a0;
  90:src/../h/../h/riscv.hpp **** }
  91:src/../h/../h/riscv.hpp **** 
  92:src/../h/../h/riscv.hpp **** 
  93:src/../h/../h/riscv.hpp **** inline uint64 Riscv::s_a0(uint64 a0){
  94:src/../h/../h/riscv.hpp ****     return a0;
  95:src/../h/../h/riscv.hpp **** }
  96:src/../h/../h/riscv.hpp **** 
  97:src/../h/../h/riscv.hpp **** inline void Riscv::w_scause(uint64 scause){
  98:src/../h/../h/riscv.hpp ****     asm volatile("csrw scause, %0" : : "r" (scause));
  99:src/../h/../h/riscv.hpp **** }
 100:src/../h/../h/riscv.hpp **** 
GAS LISTING /tmp/ccNCgygC.s 			page 4


 101:src/../h/../h/riscv.hpp **** inline uint64 Riscv::r_scause(){
 102:src/../h/../h/riscv.hpp ****     uint64 volatile scause;
 103:src/../h/../h/riscv.hpp ****     asm volatile("csrr %0, scause" : "=r" (scause));
 104:src/../h/../h/riscv.hpp ****     return scause;
 105:src/../h/../h/riscv.hpp **** } 
 106:src/../h/../h/riscv.hpp **** 
 107:src/../h/../h/riscv.hpp **** inline void Riscv::w_sepc(uint64 sepc){
 108:src/../h/../h/riscv.hpp ****     asm volatile("csrw sepc, %0" : : "r" (sepc));
 109:src/../h/../h/riscv.hpp **** }
 110:src/../h/../h/riscv.hpp **** 
 111:src/../h/../h/riscv.hpp **** inline uint64 Riscv::r_sepc(){
 112:src/../h/../h/riscv.hpp ****     uint64 volatile sepc;
 113:src/../h/../h/riscv.hpp ****     asm volatile("csrr %0, sepc" : "=r" (sepc));
 114:src/../h/../h/riscv.hpp ****     return sepc;
 115:src/../h/../h/riscv.hpp **** } 
 116:src/../h/../h/riscv.hpp **** 
 117:src/../h/../h/riscv.hpp **** inline void Riscv::w_stvec(uint64 stvec){
 118:src/../h/../h/riscv.hpp ****     asm volatile("csrw stvec, %0" : : "r" (stvec));
 119:src/../h/../h/riscv.hpp **** }
 120:src/../h/../h/riscv.hpp **** 
 121:src/../h/../h/riscv.hpp **** inline uint64 Riscv::r_stvec(){
 122:src/../h/../h/riscv.hpp ****     uint64 volatile stvec;
 123:src/../h/../h/riscv.hpp ****     asm volatile("csrr %0, stvec" : "=r" (stvec));
 124:src/../h/../h/riscv.hpp ****     return stvec;
 125:src/../h/../h/riscv.hpp **** } 
 126:src/../h/../h/riscv.hpp **** 
 127:src/../h/../h/riscv.hpp **** inline void Riscv::w_stval(uint64 stval){
 128:src/../h/../h/riscv.hpp ****     asm volatile("csrw stval, %0" : : "r" (stval));
 129:src/../h/../h/riscv.hpp **** }
 130:src/../h/../h/riscv.hpp **** 
 131:src/../h/../h/riscv.hpp **** inline uint64 Riscv::r_stval(){
 132:src/../h/../h/riscv.hpp ****     uint64 volatile stval;
 133:src/../h/../h/riscv.hpp ****     asm volatile("csrr %0, stval" : "=r" (stval));
 134:src/../h/../h/riscv.hpp ****     return stval;
 135:src/../h/../h/riscv.hpp **** } 
 136:src/../h/../h/riscv.hpp **** 
 137:src/../h/../h/riscv.hpp **** inline void Riscv::ms_sip(uint64 mask){
 138:src/../h/../h/riscv.hpp ****     asm volatile ("csrs sip, %0" : : "r" (mask));
 139:src/../h/../h/riscv.hpp **** }
 140:src/../h/../h/riscv.hpp **** 
 141:src/../h/../h/riscv.hpp **** inline void Riscv::mc_sip(uint64 mask){
 142:src/../h/../h/riscv.hpp ****     asm volatile ("csrc sip, %0" : : "r" (mask));
 143:src/../h/../h/riscv.hpp **** }
 144:src/../h/../h/riscv.hpp **** 
 145:src/../h/../h/riscv.hpp **** inline void Riscv::w_sip(uint64 sip){
 146:src/../h/../h/riscv.hpp ****     asm volatile("csrw sip, %0" : : "r" (sip));
 147:src/../h/../h/riscv.hpp **** }
 148:src/../h/../h/riscv.hpp **** 
 149:src/../h/../h/riscv.hpp **** inline uint64 Riscv::r_sip(){
 150:src/../h/../h/riscv.hpp ****     uint64 volatile sip;
 151:src/../h/../h/riscv.hpp ****     asm volatile("csrr %0, sip" : "=r" (sip));
 152:src/../h/../h/riscv.hpp ****     return sip;
 153:src/../h/../h/riscv.hpp **** } 
 154:src/../h/../h/riscv.hpp **** 
 155:src/../h/../h/riscv.hpp **** inline void Riscv::ms_sstatus(uint64 mask){
 156:src/../h/../h/riscv.hpp ****     asm volatile ("csrs sstatus, %0" : : "r" (mask));
 157:src/../h/../h/riscv.hpp **** }
GAS LISTING /tmp/ccNCgygC.s 			page 5


 158:src/../h/../h/riscv.hpp **** 
 159:src/../h/../h/riscv.hpp **** inline void Riscv::mc_sstatus(uint64 mask){
 160:src/../h/../h/riscv.hpp ****     asm volatile ("csrc sstatus, %0" : : "r" (mask));
 161:src/../h/../h/riscv.hpp **** }
 162:src/../h/../h/riscv.hpp **** 
 163:src/../h/../h/riscv.hpp **** inline void Riscv::w_sstatus(uint64 sstatus){
 164:src/../h/../h/riscv.hpp ****     asm volatile("csrw sstatus, %0" : : "r" (sstatus));
 165:src/../h/../h/riscv.hpp **** }
 166:src/../h/../h/riscv.hpp **** 
 167:src/../h/../h/riscv.hpp **** inline uint64 Riscv::r_sstatus(){
 168:src/../h/../h/riscv.hpp ****     uint64 volatile sstatus;
  56              		.loc 2 168 5
 169:src/../h/../h/riscv.hpp ****     asm volatile("csrr %0, sstatus" : "=r" (sstatus));
  57              		.loc 2 169 5
  58              		.loc 2 169 54 is_stmt 0
  59              	 #APP
  60              	# 169 "src/../h/../h/riscv.hpp" 1
 170              	    return sstatus;
  61              		csrr a5, sstatus
  62              	# 0 "" 2
  63              	 #NO_APP
  64 0034 233CF4FC 		sd	a5,-40(s0)
  65              		.loc 2 170 5 is_stmt 1
  66              		.loc 2 170 12 is_stmt 0
  67 0038 833484FD 		ld	s1,-40(s0)
  68              	.LVL4:
  69              	.LBE7:
  70              	.LBE6:
  16:src/main.cpp  ****     TCB::yield();
  71              		.loc 1 16 5 is_stmt 1
  72              		.loc 1 16 15 is_stmt 0
  73 003c 97000000 		call	_ZN3TCB5yieldEv
  73      E7800000 
  74              	.LVL5:
  17:src/main.cpp  ****     Riscv::w_sstatus(sstatus);
  75              		.loc 1 17 5 is_stmt 1
  76              	.LBB8:
  77              	.LBB9:
 164:src/../h/../h/riscv.hpp **** }
  78              		.loc 2 164 5
 164:src/../h/../h/riscv.hpp **** }
  79              		.loc 2 164 55 is_stmt 0
  80              	 #APP
  81              	# 164 "src/../h/../h/riscv.hpp" 1
  82              		csrw sstatus, s1
  83              	# 0 "" 2
  84              	.LVL6:
  85              	 #NO_APP
  86              	.LBE9:
  87              	.LBE8:
  18:src/main.cpp  ****     
  19:src/main.cpp  **** 
  20:src/main.cpp  ****     kprintString("\n\nKERNEL ENDED SUCCESSFULLY!\n\n");
  88              		.loc 1 20 5 is_stmt 1
  89              		.loc 1 20 17 is_stmt 0
  90 0048 17050000 		lla	a0,.LC1
  90      13050500 
GAS LISTING /tmp/ccNCgygC.s 			page 6


  91 0050 97000000 		call	_Z12kprintStringPKc
  91      E7800000 
  92              	.LVL7:
  21:src/main.cpp  ****     return 0;
  93              		.loc 1 21 5 is_stmt 1
  94              		.loc 1 21 12 is_stmt 0
  95 0058 13050000 		li	a0,0
  96              	.LVL8:
  97              	.L3:
  22:src/main.cpp  **** }   ...
  98              		.loc 1 22 1
  99 005c 83308102 		ld	ra,40(sp)
 100              		.cfi_remember_state
 101              		.cfi_restore 1
 102 0060 03340102 		ld	s0,32(sp)
 103              		.cfi_restore 8
 104              		.cfi_def_cfa 2, 48
 105 0064 83348101 		ld	s1,24(sp)
 106              		.cfi_restore 9
 107 0068 13010103 		addi	sp,sp,48
 108              		.cfi_def_cfa_offset 0
 109 006c 67800000 		jr	ra
 110              	.LVL9:
 111              	.L5:
 112              		.cfi_restore_state
  11:src/main.cpp  ****         kprintString("\nKERNEL FAILED TO INITALIZE!!!!\n\n");
 113              		.loc 1 11 9 is_stmt 1
  11:src/main.cpp  ****         kprintString("\nKERNEL FAILED TO INITALIZE!!!!\n\n");
 114              		.loc 1 11 21 is_stmt 0
 115 0070 17050000 		lla	a0,.LC0
 115      13050500 
 116              	.LVL10:
 117 0078 97000000 		call	_Z12kprintStringPKc
 117      E7800000 
 118              	.LVL11:
  12:src/main.cpp  ****         return -1;
 119              		.loc 1 12 9 is_stmt 1
  12:src/main.cpp  ****         return -1;
 120              		.loc 1 12 17 is_stmt 0
 121 0080 1305F0FF 		li	a0,-1
 122 0084 6FF09FFD 		j	.L3
 123              		.cfi_endproc
 124              	.LFE91:
 126              		.section	.rodata.str1.8,"aMS",@progbits,1
 127              		.align	3
 128              	.LC0:
 129 0000 0A4B4552 		.string	"\nKERNEL FAILED TO INITALIZE!!!!\n\n"
 129      4E454C20 
 129      4641494C 
 129      45442054 
 129      4F20494E 
 130 0022 00000000 		.zero	6
 130      0000
 131              	.LC1:
 132 0028 0A0A4B45 		.string	"\n\nKERNEL ENDED SUCCESSFULLY!\n\n"
 132      524E454C 
 132      20454E44 
GAS LISTING /tmp/ccNCgygC.s 			page 7


 132      45442053 
 132      55434345 
 133              		.text
 134              	.Letext0:
 135              		.file 3 "src/../h/../h/../lib/hw.h"
 136              		.file 4 "src/../h/../h/tcb.hpp"
 137              		.file 5 "src/../h/../h/../h/kernel_operators.hpp"
 138              		.file 6 "src/../h/../h/kernel_funs.h"
GAS LISTING /tmp/ccNCgygC.s 			page 8

