GAS LISTING /tmp/ccoXalwe.s 			page 1


   1              		.file	"scheduler.cpp"
   2              		.option nopic
   3              		.option norelax
   4              		.attribute arch, "rv64i2p0_m2p0_a2p0"
   5              		.attribute unaligned_access, 0
   6              		.attribute stack_align, 16
   7              		.text
   8              	.Ltext0:
   9              		.align	2
  10              		.globl	_ZN9Scheduler3cmpEP3TCBS1_
  12              	_ZN9Scheduler3cmpEP3TCBS1_:
  13              	.LFB35:
  14              		.file 1 "src/scheduler.cpp"
   1:src/scheduler.cpp **** #include"../h/ptr_queue.hpp"
   2:src/scheduler.cpp **** #include"../h/tcb.hpp"
   3:src/scheduler.cpp **** #include"../h/scheduler.hpp"
   4:src/scheduler.cpp **** 
   5:src/scheduler.cpp **** TcbQueue Scheduler::queue;
   6:src/scheduler.cpp **** TcbQueue Scheduler::sleeping;
   7:src/scheduler.cpp **** 
   8:src/scheduler.cpp **** 
   9:src/scheduler.cpp **** TCB* Scheduler::get() { return queue.remove(); }
  10:src/scheduler.cpp **** 
  11:src/scheduler.cpp **** void Scheduler::put(TCB* ptr) { queue.insert(ptr); }
  12:src/scheduler.cpp **** 
  13:src/scheduler.cpp **** void Scheduler::initalize(){}
  14:src/scheduler.cpp **** 
  15:src/scheduler.cpp **** void Scheduler::finalize(){}
  16:src/scheduler.cpp **** 
  17:src/scheduler.cpp **** void Scheduler::print_queue() { queue.printQueue(); }
  18:src/scheduler.cpp **** 
  19:src/scheduler.cpp **** int Scheduler::cmp(TCB* x1, TCB* x2)
  20:src/scheduler.cpp **** {
  15              		.loc 1 20 1
  16              		.cfi_startproc
  17              	.LVL0:
  18 0000 130101FF 		addi	sp,sp,-16
  19              		.cfi_def_cfa_offset 16
  20 0004 23348100 		sd	s0,8(sp)
  21              		.cfi_offset 8, -8
  22 0008 13040101 		addi	s0,sp,16
  23              		.cfi_def_cfa 8, 0
  21:src/scheduler.cpp ****     int diff = (int)x1->sleep_time-(int)x2->sleep_time;
  24              		.loc 1 21 5
  25              		.loc 1 21 35 is_stmt 0
  26 000c 83268500 		lw	a3,8(a0)
  27 0010 03A78500 		lw	a4,8(a1)
  28              		.loc 1 21 9
  29 0014 BB87E640 		subw	a5,a3,a4
  30              	.LVL1:
  22:src/scheduler.cpp ****     if(diff>=0)
  31              		.loc 1 22 5 is_stmt 1
  32 0018 63CC0700 		blt	a5,zero,.L2
  23:src/scheduler.cpp ****         x1->sleep_time = diff;
  33              		.loc 1 23 9
  34              		.loc 1 23 24 is_stmt 0
  35 001c 2334F500 		sd	a5,8(a0)
GAS LISTING /tmp/ccoXalwe.s 			page 2


  36              	.LVL2:
  37              	.L3:
  24:src/scheduler.cpp ****     else
  25:src/scheduler.cpp ****         x2->sleep_time = -diff;
  26:src/scheduler.cpp ****     return diff;
  38              		.loc 1 26 5 is_stmt 1
  27:src/scheduler.cpp **** }
  39              		.loc 1 27 1 is_stmt 0
  40 0020 13850700 		mv	a0,a5
  41              	.LVL3:
  42 0024 03348100 		ld	s0,8(sp)
  43              		.cfi_remember_state
  44              		.cfi_restore 8
  45              		.cfi_def_cfa 2, 16
  46 0028 13010101 		addi	sp,sp,16
  47              		.cfi_def_cfa_offset 0
  48 002c 67800000 		jr	ra
  49              	.LVL4:
  50              	.L2:
  51              		.cfi_restore_state
  25:src/scheduler.cpp ****     return diff;
  52              		.loc 1 25 9 is_stmt 1
  25:src/scheduler.cpp ****     return diff;
  53              		.loc 1 25 26 is_stmt 0
  54 0030 3B07D740 		subw	a4,a4,a3
  55              	.LVL5:
  25:src/scheduler.cpp ****     return diff;
  56              		.loc 1 25 24
  57 0034 23B4E500 		sd	a4,8(a1)
  58              	.LVL6:
  59 0038 6FF09FFE 		j	.L3
  60              		.cfi_endproc
  61              	.LFE35:
  63              		.align	2
  65              	_Z41__static_initialization_and_destruction_0ii:
  66              	.LFB38:
  28:src/scheduler.cpp **** 
  29:src/scheduler.cpp **** void Scheduler::put_sleeper(TCB* t, time_t time)
  30:src/scheduler.cpp **** {
  31:src/scheduler.cpp ****     t->sleep_time = time;
  32:src/scheduler.cpp ****     sleeping.insertSorted(t, cmp);  
  33:src/scheduler.cpp **** }
  34:src/scheduler.cpp **** 
  35:src/scheduler.cpp **** void Scheduler::update_sleep()
  36:src/scheduler.cpp **** {
  37:src/scheduler.cpp ****     TCB* t = sleeping.top();
  38:src/scheduler.cpp ****     if(t == nullptr) return;
  39:src/scheduler.cpp ****     t->sleep_time--;
  40:src/scheduler.cpp ****     while(t && t->sleep_time == 0){
  41:src/scheduler.cpp ****         sleeping.remove();
  42:src/scheduler.cpp ****         
  43:src/scheduler.cpp ****         t->setState(TCB::READY);
  44:src/scheduler.cpp ****         put(t);
  45:src/scheduler.cpp ****         
  46:src/scheduler.cpp ****         t = sleeping.top();
  47:src/scheduler.cpp ****     }
  48:src/scheduler.cpp **** }...
GAS LISTING /tmp/ccoXalwe.s 			page 3


  67              		.loc 1 48 1 is_stmt 1
  68              		.cfi_startproc
  69              	.LVL7:
  70 003c 130101FF 		addi	sp,sp,-16
  71              		.cfi_def_cfa_offset 16
  72 0040 23348100 		sd	s0,8(sp)
  73              		.cfi_offset 8, -8
  74 0044 13040101 		addi	s0,sp,16
  75              		.cfi_def_cfa 8, 0
  76              		.loc 1 48 1 is_stmt 0
  77 0048 93071000 		li	a5,1
  78 004c 6308F500 		beq	a0,a5,.L8
  79              	.L5:
  80 0050 03348100 		ld	s0,8(sp)
  81              		.cfi_remember_state
  82              		.cfi_restore 8
  83              		.cfi_def_cfa 2, 16
  84 0054 13010101 		addi	sp,sp,16
  85              		.cfi_def_cfa_offset 0
  86 0058 67800000 		jr	ra
  87              	.L8:
  88              		.cfi_restore_state
  89              		.loc 1 48 1 discriminator 1
  90 005c B7070100 		li	a5,65536
  91 0060 9387F7FF 		addi	a5,a5,-1
  92 0064 E396F5FE 		bne	a1,a5,.L5
  93              	.LVL8:
  94              	.LBB10:
  95              	.LBB11:
  96              	.LBB12:
  97              		.file 2 "src/../h/ptr_queue.hpp"
   1:src/../h/ptr_queue.hpp **** #ifndef _queue_h
   2:src/../h/ptr_queue.hpp **** #define _queue_h
   3:src/../h/ptr_queue.hpp **** 
   4:src/../h/ptr_queue.hpp **** //#include"../h/tcb.hpp"
   5:src/../h/ptr_queue.hpp **** //#include"../h/testing.hpp"
   6:src/../h/ptr_queue.hpp **** #include"../lib/hw.h"
   7:src/../h/ptr_queue.hpp **** #include"../h/memory_allocator.hpp"
   8:src/../h/ptr_queue.hpp **** 
   9:src/../h/ptr_queue.hpp **** class TCB;
  10:src/../h/ptr_queue.hpp **** 
  11:src/../h/ptr_queue.hpp **** class TcbQueue{
  12:src/../h/ptr_queue.hpp ****        
  13:src/../h/ptr_queue.hpp ****     TCB *head, *tail;
  14:src/../h/ptr_queue.hpp ****     int tmpNum;
  15:src/../h/ptr_queue.hpp ****     void brisi(){
  16:src/../h/ptr_queue.hpp ****         while(!isEmpty())
  17:src/../h/ptr_queue.hpp ****             remove();
  18:src/../h/ptr_queue.hpp ****     }
  19:src/../h/ptr_queue.hpp **** 
  20:src/../h/ptr_queue.hpp **** public:
  21:src/../h/ptr_queue.hpp ****     #include"../h/kernel_operators.hpp"
  22:src/../h/ptr_queue.hpp ****     TcbQueue():head(nullptr), tail(nullptr), tmpNum(0){}
  98              		.loc 2 22 54
  99 0068 97070000 		lla	a5,.LANCHOR0
  99      93870700 
 100 0070 23B00700 		sd	zero,0(a5)
GAS LISTING /tmp/ccoXalwe.s 			page 4


 101 0074 23B40700 		sd	zero,8(a5)
 102 0078 23A80700 		sw	zero,16(a5)
 103              	.LVL9:
 104              	.LBE12:
 105              	.LBE11:
 106              	.LBE10:
 107              	.LBB13:
 108              	.LBB14:
 109              	.LBB15:
 110 007c 23BC0700 		sd	zero,24(a5)
 111 0080 23B00702 		sd	zero,32(a5)
 112 0084 23A40702 		sw	zero,40(a5)
 113              	.LBE15:
 114              	.LBE14:
 115              	.LBE13:
 116              		.loc 1 48 1
 117 0088 6FF09FFC 		j	.L5
 118              		.cfi_endproc
 119              	.LFE38:
 121              		.align	2
 122              		.globl	_ZN9Scheduler3getEv
 124              	_ZN9Scheduler3getEv:
 125              	.LFB30:
   9:src/scheduler.cpp **** TCB* Scheduler::get() { return queue.remove(); }
 126              		.loc 1 9 23 is_stmt 1
 127              		.cfi_startproc
 128 008c 130101FF 		addi	sp,sp,-16
 129              		.cfi_def_cfa_offset 16
 130 0090 23341100 		sd	ra,8(sp)
 131 0094 23308100 		sd	s0,0(sp)
 132              		.cfi_offset 1, -8
 133              		.cfi_offset 8, -16
 134 0098 13040101 		addi	s0,sp,16
 135              		.cfi_def_cfa 8, 0
   9:src/scheduler.cpp **** TCB* Scheduler::get() { return queue.remove(); }
 136              		.loc 1 9 25
   9:src/scheduler.cpp **** TCB* Scheduler::get() { return queue.remove(); }
 137              		.loc 1 9 44 is_stmt 0
 138 009c 17050000 		lla	a0,.LANCHOR0
 138      13050500 
 139 00a4 97000000 		call	_ZN8TcbQueue6removeEv
 139      E7800000 
 140              	.LVL10:
   9:src/scheduler.cpp **** TCB* Scheduler::get() { return queue.remove(); }
 141              		.loc 1 9 48
 142 00ac 83308100 		ld	ra,8(sp)
 143              		.cfi_restore 1
 144 00b0 03340100 		ld	s0,0(sp)
 145              		.cfi_restore 8
 146              		.cfi_def_cfa 2, 16
 147 00b4 13010101 		addi	sp,sp,16
 148              		.cfi_def_cfa_offset 0
 149 00b8 67800000 		jr	ra
 150              		.cfi_endproc
 151              	.LFE30:
 153              		.align	2
 154              		.globl	_ZN9Scheduler3putEP3TCB
GAS LISTING /tmp/ccoXalwe.s 			page 5


 156              	_ZN9Scheduler3putEP3TCB:
 157              	.LFB31:
  11:src/scheduler.cpp **** void Scheduler::put(TCB* ptr) { queue.insert(ptr); }
 158              		.loc 1 11 31 is_stmt 1
 159              		.cfi_startproc
 160              	.LVL11:
 161 00bc 130101FF 		addi	sp,sp,-16
 162              		.cfi_def_cfa_offset 16
 163 00c0 23341100 		sd	ra,8(sp)
 164 00c4 23308100 		sd	s0,0(sp)
 165              		.cfi_offset 1, -8
 166              		.cfi_offset 8, -16
 167 00c8 13040101 		addi	s0,sp,16
 168              		.cfi_def_cfa 8, 0
  11:src/scheduler.cpp **** void Scheduler::put(TCB* ptr) { queue.insert(ptr); }
 169              		.loc 1 11 33
  11:src/scheduler.cpp **** void Scheduler::put(TCB* ptr) { queue.insert(ptr); }
 170              		.loc 1 11 49 is_stmt 0
 171 00cc 93050500 		mv	a1,a0
 172 00d0 17050000 		lla	a0,.LANCHOR0
 172      13050500 
 173              	.LVL12:
 174 00d8 97000000 		call	_ZN8TcbQueue6insertEP3TCB
 174      E7800000 
 175              	.LVL13:
  11:src/scheduler.cpp **** void Scheduler::put(TCB* ptr) { queue.insert(ptr); }
 176              		.loc 1 11 52
 177 00e0 83308100 		ld	ra,8(sp)
 178              		.cfi_restore 1
 179 00e4 03340100 		ld	s0,0(sp)
 180              		.cfi_restore 8
 181              		.cfi_def_cfa 2, 16
 182 00e8 13010101 		addi	sp,sp,16
 183              		.cfi_def_cfa_offset 0
 184 00ec 67800000 		jr	ra
 185              		.cfi_endproc
 186              	.LFE31:
 188              		.align	2
 189              		.globl	_ZN9Scheduler9initalizeEv
 191              	_ZN9Scheduler9initalizeEv:
 192              	.LFB32:
  13:src/scheduler.cpp **** void Scheduler::initalize(){}
 193              		.loc 1 13 28 is_stmt 1
 194              		.cfi_startproc
 195 00f0 130101FF 		addi	sp,sp,-16
 196              		.cfi_def_cfa_offset 16
 197 00f4 23348100 		sd	s0,8(sp)
 198              		.cfi_offset 8, -8
 199 00f8 13040101 		addi	s0,sp,16
 200              		.cfi_def_cfa 8, 0
  13:src/scheduler.cpp **** void Scheduler::initalize(){}
 201              		.loc 1 13 29 is_stmt 0
 202 00fc 03348100 		ld	s0,8(sp)
 203              		.cfi_restore 8
 204              		.cfi_def_cfa 2, 16
 205 0100 13010101 		addi	sp,sp,16
 206              		.cfi_def_cfa_offset 0
GAS LISTING /tmp/ccoXalwe.s 			page 6


 207 0104 67800000 		jr	ra
 208              		.cfi_endproc
 209              	.LFE32:
 211              		.align	2
 212              		.globl	_ZN9Scheduler8finalizeEv
 214              	_ZN9Scheduler8finalizeEv:
 215              	.LFB33:
  15:src/scheduler.cpp **** void Scheduler::finalize(){}
 216              		.loc 1 15 27 is_stmt 1
 217              		.cfi_startproc
 218 0108 130101FF 		addi	sp,sp,-16
 219              		.cfi_def_cfa_offset 16
 220 010c 23348100 		sd	s0,8(sp)
 221              		.cfi_offset 8, -8
 222 0110 13040101 		addi	s0,sp,16
 223              		.cfi_def_cfa 8, 0
  15:src/scheduler.cpp **** void Scheduler::finalize(){}
 224              		.loc 1 15 28 is_stmt 0
 225 0114 03348100 		ld	s0,8(sp)
 226              		.cfi_restore 8
 227              		.cfi_def_cfa 2, 16
 228 0118 13010101 		addi	sp,sp,16
 229              		.cfi_def_cfa_offset 0
 230 011c 67800000 		jr	ra
 231              		.cfi_endproc
 232              	.LFE33:
 234              		.align	2
 235              		.globl	_ZN9Scheduler11print_queueEv
 237              	_ZN9Scheduler11print_queueEv:
 238              	.LFB34:
  17:src/scheduler.cpp **** void Scheduler::print_queue() { queue.printQueue(); }
 239              		.loc 1 17 31 is_stmt 1
 240              		.cfi_startproc
 241 0120 130101FF 		addi	sp,sp,-16
 242              		.cfi_def_cfa_offset 16
 243 0124 23341100 		sd	ra,8(sp)
 244 0128 23308100 		sd	s0,0(sp)
 245              		.cfi_offset 1, -8
 246              		.cfi_offset 8, -16
 247 012c 13040101 		addi	s0,sp,16
 248              		.cfi_def_cfa 8, 0
  17:src/scheduler.cpp **** void Scheduler::print_queue() { queue.printQueue(); }
 249              		.loc 1 17 33
  17:src/scheduler.cpp **** void Scheduler::print_queue() { queue.printQueue(); }
 250              		.loc 1 17 49 is_stmt 0
 251 0130 17050000 		lla	a0,.LANCHOR0
 251      13050500 
 252 0138 97000000 		call	_ZN8TcbQueue10printQueueEv
 252      E7800000 
 253              	.LVL14:
  17:src/scheduler.cpp **** void Scheduler::print_queue() { queue.printQueue(); }
 254              		.loc 1 17 53
 255 0140 83308100 		ld	ra,8(sp)
 256              		.cfi_restore 1
 257 0144 03340100 		ld	s0,0(sp)
 258              		.cfi_restore 8
 259              		.cfi_def_cfa 2, 16
GAS LISTING /tmp/ccoXalwe.s 			page 7


 260 0148 13010101 		addi	sp,sp,16
 261              		.cfi_def_cfa_offset 0
 262 014c 67800000 		jr	ra
 263              		.cfi_endproc
 264              	.LFE34:
 266              		.align	2
 267              		.globl	_ZN9Scheduler11put_sleeperEP3TCBm
 269              	_ZN9Scheduler11put_sleeperEP3TCBm:
 270              	.LFB36:
  30:src/scheduler.cpp **** {
 271              		.loc 1 30 1 is_stmt 1
 272              		.cfi_startproc
 273              	.LVL15:
 274 0150 130101FF 		addi	sp,sp,-16
 275              		.cfi_def_cfa_offset 16
 276 0154 23341100 		sd	ra,8(sp)
 277 0158 23308100 		sd	s0,0(sp)
 278              		.cfi_offset 1, -8
 279              		.cfi_offset 8, -16
 280 015c 13040101 		addi	s0,sp,16
 281              		.cfi_def_cfa 8, 0
  31:src/scheduler.cpp ****     t->sleep_time = time;
 282              		.loc 1 31 5
  31:src/scheduler.cpp ****     t->sleep_time = time;
 283              		.loc 1 31 19 is_stmt 0
 284 0160 2334B500 		sd	a1,8(a0)
  32:src/scheduler.cpp ****     sleeping.insertSorted(t, cmp);  
 285              		.loc 1 32 5 is_stmt 1
  32:src/scheduler.cpp ****     sleeping.insertSorted(t, cmp);  
 286              		.loc 1 32 26 is_stmt 0
 287 0164 17060000 		lla	a2,_ZN9Scheduler3cmpEP3TCBS1_
 287      13060600 
 288 016c 93050500 		mv	a1,a0
 289              	.LVL16:
 290 0170 17050000 		lla	a0,.LANCHOR0+24
 290      13050500 
 291              	.LVL17:
 292 0178 97000000 		call	_ZN8TcbQueue12insertSortedEP3TCBPFiS1_S1_E
 292      E7800000 
 293              	.LVL18:
  33:src/scheduler.cpp **** }
 294              		.loc 1 33 1
 295 0180 83308100 		ld	ra,8(sp)
 296              		.cfi_restore 1
 297 0184 03340100 		ld	s0,0(sp)
 298              		.cfi_restore 8
 299              		.cfi_def_cfa 2, 16
 300 0188 13010101 		addi	sp,sp,16
 301              		.cfi_def_cfa_offset 0
 302 018c 67800000 		jr	ra
 303              		.cfi_endproc
 304              	.LFE36:
 306              		.align	2
 307              		.globl	_ZN9Scheduler12update_sleepEv
 309              	_ZN9Scheduler12update_sleepEv:
 310              	.LFB37:
  36:src/scheduler.cpp **** {
GAS LISTING /tmp/ccoXalwe.s 			page 8


 311              		.loc 1 36 1 is_stmt 1
 312              		.cfi_startproc
 313 0190 130101FE 		addi	sp,sp,-32
 314              		.cfi_def_cfa_offset 32
 315 0194 233C1100 		sd	ra,24(sp)
 316 0198 23388100 		sd	s0,16(sp)
 317 019c 23349100 		sd	s1,8(sp)
 318 01a0 23302101 		sd	s2,0(sp)
 319              		.cfi_offset 1, -8
 320              		.cfi_offset 8, -16
 321              		.cfi_offset 9, -24
 322              		.cfi_offset 18, -32
 323 01a4 13040102 		addi	s0,sp,32
 324              		.cfi_def_cfa 8, 0
  37:src/scheduler.cpp ****     TCB* t = sleeping.top();
 325              		.loc 1 37 5
  37:src/scheduler.cpp ****     TCB* t = sleeping.top();
 326              		.loc 1 37 26 is_stmt 0
 327 01a8 17050000 		lla	a0,.LANCHOR0+24
 327      13050500 
 328 01b0 97000000 		call	_ZN8TcbQueue3topEv
 328      E7800000 
 329              	.LVL19:
  38:src/scheduler.cpp ****     if(t == nullptr) return;
 330              		.loc 1 38 5 is_stmt 1
 331 01b8 630E0504 		beq	a0,zero,.L21
 332 01bc 93040500 		mv	s1,a0
  39:src/scheduler.cpp ****     t->sleep_time--;
 333              		.loc 1 39 5
  39:src/scheduler.cpp ****     t->sleep_time--;
 334              		.loc 1 39 8 is_stmt 0
 335 01c0 83378500 		ld	a5,8(a0)
  39:src/scheduler.cpp ****     t->sleep_time--;
 336              		.loc 1 39 18
 337 01c4 9387F7FF 		addi	a5,a5,-1
 338 01c8 2334F500 		sd	a5,8(a0)
 339              	.LVL20:
 340              	.L23:
  40:src/scheduler.cpp ****     while(t && t->sleep_time == 0){
 341              		.loc 1 40 5 is_stmt 1
  40:src/scheduler.cpp ****     while(t && t->sleep_time == 0){
 342              		.loc 1 40 13 is_stmt 0
 343 01cc 63840404 		beq	s1,zero,.L21
  40:src/scheduler.cpp ****     while(t && t->sleep_time == 0){
 344              		.loc 1 40 19 discriminator 1
 345 01d0 83B78400 		ld	a5,8(s1)
  40:src/scheduler.cpp ****     while(t && t->sleep_time == 0){
 346              		.loc 1 40 13 discriminator 1
 347 01d4 63900704 		bne	a5,zero,.L21
  41:src/scheduler.cpp ****         sleeping.remove();
 348              		.loc 1 41 9 is_stmt 1
  41:src/scheduler.cpp ****         sleeping.remove();
 349              		.loc 1 41 24 is_stmt 0
 350 01d8 17090000 		lla	s2,.LANCHOR0+24
 350      13090900 
 351 01e0 13050900 		mv	a0,s2
 352 01e4 97000000 		call	_ZN8TcbQueue6removeEv
GAS LISTING /tmp/ccoXalwe.s 			page 9


 352      E7800000 
 353              	.LVL21:
  43:src/scheduler.cpp ****         t->setState(TCB::READY);
 354              		.loc 1 43 9 is_stmt 1
 355              	.LBB16:
 356              	.LBB17:
 357              		.file 3 "src/../h/tcb.hpp"
   1:src/../h/tcb.hpp **** #ifndef __tcb__h
   2:src/../h/tcb.hpp **** #define __tcb__h
   3:src/../h/tcb.hpp **** 
   4:src/../h/tcb.hpp **** #include"../h/memory_allocator.hpp"
   5:src/../h/tcb.hpp **** 
   6:src/../h/tcb.hpp **** class KSemaphore;
   7:src/../h/tcb.hpp **** 
   8:src/../h/tcb.hpp **** class TCB{
   9:src/../h/tcb.hpp ****     
  10:src/../h/tcb.hpp **** public:
  11:src/../h/tcb.hpp ****     //alokacija
  12:src/../h/tcb.hpp ****     #include"../h/kernel_operators.hpp"
  13:src/../h/tcb.hpp ****     
  14:src/../h/tcb.hpp ****     using Body = void (*)(void*);
  15:src/../h/tcb.hpp ****     enum TCBState{
  16:src/../h/tcb.hpp ****         BLOCKED,
  17:src/../h/tcb.hpp ****         READY,
  18:src/../h/tcb.hpp ****         FINISHED,
  19:src/../h/tcb.hpp ****         SLEEPING
  20:src/../h/tcb.hpp ****     };
  21:src/../h/tcb.hpp ****     
  22:src/../h/tcb.hpp ****     ~TCB(){ 
  23:src/../h/tcb.hpp ****         MemoryAllocator& allocator = MemoryAllocator::getInstance(); 
  24:src/../h/tcb.hpp ****         allocator.mem_free(this->stack);
  25:src/../h/tcb.hpp ****     }
  26:src/../h/tcb.hpp ****     
  27:src/../h/tcb.hpp ****     //nestaticki metodi
  28:src/../h/tcb.hpp ****     void setState(TCBState s) {state = s;}
 358              		.loc 3 28 32
 359              		.loc 3 28 38 is_stmt 0
 360 01ec 93071000 		li	a5,1
 361 01f0 23A8F402 		sw	a5,48(s1)
 362              	.LVL22:
 363              	.LBE17:
 364              	.LBE16:
  44:src/scheduler.cpp ****         put(t);
 365              		.loc 1 44 9 is_stmt 1
  44:src/scheduler.cpp ****         put(t);
 366              		.loc 1 44 12 is_stmt 0
 367 01f4 13850400 		mv	a0,s1
 368 01f8 97000000 		call	_ZN9Scheduler3putEP3TCB
 368      E7800000 
 369              	.LVL23:
  46:src/scheduler.cpp ****         t = sleeping.top();
 370              		.loc 1 46 9 is_stmt 1
  46:src/scheduler.cpp ****         t = sleeping.top();
 371              		.loc 1 46 25 is_stmt 0
 372 0200 13050900 		mv	a0,s2
 373 0204 97000000 		call	_ZN8TcbQueue3topEv
 373      E7800000 
GAS LISTING /tmp/ccoXalwe.s 			page 10


 374              	.LVL24:
 375 020c 93040500 		mv	s1,a0
 376              	.LVL25:
  40:src/scheduler.cpp ****     while(t && t->sleep_time == 0){
 377              		.loc 1 40 5
 378 0210 6FF0DFFB 		j	.L23
 379              	.LVL26:
 380              	.L21:
 381              		.loc 1 48 1
 382 0214 83308101 		ld	ra,24(sp)
 383              		.cfi_restore 1
 384 0218 03340101 		ld	s0,16(sp)
 385              		.cfi_restore 8
 386              		.cfi_def_cfa 2, 32
 387 021c 83348100 		ld	s1,8(sp)
 388              		.cfi_restore 9
 389 0220 03390100 		ld	s2,0(sp)
 390              		.cfi_restore 18
 391 0224 13010102 		addi	sp,sp,32
 392              		.cfi_def_cfa_offset 0
 393 0228 67800000 		jr	ra
 394              		.cfi_endproc
 395              	.LFE37:
 397              		.align	2
 399              	_GLOBAL__sub_I__ZN9Scheduler5queueE:
 400              	.LFB39:
 401              		.loc 1 48 1 is_stmt 1
 402              		.cfi_startproc
 403 022c 130101FF 		addi	sp,sp,-16
 404              		.cfi_def_cfa_offset 16
 405 0230 23341100 		sd	ra,8(sp)
 406 0234 23308100 		sd	s0,0(sp)
 407              		.cfi_offset 1, -8
 408              		.cfi_offset 8, -16
 409 0238 13040101 		addi	s0,sp,16
 410              		.cfi_def_cfa 8, 0
 411              		.loc 1 48 1 is_stmt 0
 412 023c B7050100 		li	a1,65536
 413 0240 9385F5FF 		addi	a1,a1,-1
 414 0244 13051000 		li	a0,1
 415 0248 97000000 		call	_Z41__static_initialization_and_destruction_0ii
 415      E7800000 
 416              	.LVL27:
 417 0250 83308100 		ld	ra,8(sp)
 418              		.cfi_restore 1
 419 0254 03340100 		ld	s0,0(sp)
 420              		.cfi_restore 8
 421              		.cfi_def_cfa 2, 16
 422 0258 13010101 		addi	sp,sp,16
 423              		.cfi_def_cfa_offset 0
 424 025c 67800000 		jr	ra
 425              		.cfi_endproc
 426              	.LFE39:
 428              		.section	.init_array,"aw"
 429              		.align	3
 430 0000 00000000 		.dword	_GLOBAL__sub_I__ZN9Scheduler5queueE
 430      00000000 
GAS LISTING /tmp/ccoXalwe.s 			page 11


 431              		.globl	_ZN9Scheduler8sleepingE
 432              		.globl	_ZN9Scheduler5queueE
 433              		.bss
 434              		.align	3
 435              		.set	.LANCHOR0,. + 0
 438              	_ZN9Scheduler5queueE:
 439 0000 00000000 		.zero	24
 439      00000000 
 439      00000000 
 439      00000000 
 439      00000000 
 442              	_ZN9Scheduler8sleepingE:
 443 0018 00000000 		.zero	24
 443      00000000 
 443      00000000 
 443      00000000 
 443      00000000 
 444              		.text
 445              	.Letext0:
 446              		.file 4 "src/../h/../lib/hw.h"
 447              		.file 5 "src/../h/../h/kernel_operators.hpp"
 448              		.file 6 "src/../h/scheduler.hpp"
GAS LISTING /tmp/ccoXalwe.s 			page 12

