GAS LISTING /tmp/ccO06hI1.s 			page 1


   1              		.file	"stdio.cpp"
   2              		.option nopic
   3              		.option norelax
   4              		.attribute arch, "rv64i2p0_m2p0_a2p0"
   5              		.attribute unaligned_access, 0
   6              		.attribute stack_align, 16
   7              		.text
   8              	.Ltext0:
   9              		.align	2
  11              	_Z41__static_initialization_and_destruction_0ii:
  12              	.LFB82:
  13              		.file 1 "src/stdio.cpp"
   1:src/stdio.cpp **** #include"../h/stdio.hpp"
   2:src/stdio.cpp **** #include"../h/scheduler.hpp"
   3:src/stdio.cpp **** #include"../h/riscv.hpp"
   4:src/stdio.cpp **** 
   5:src/stdio.cpp **** #define KLOCK() Riscv::mc_sstatus(Riscv::SSTATUS_SIE)
   6:src/stdio.cpp **** #define KUNLOCK() Riscv::ms_sstatus(Riscv::SSTATUS_SIE)
   7:src/stdio.cpp **** 
   8:src/stdio.cpp **** unsigned char* StdIO::iostatus = (unsigned char*)CONSOLE_STATUS;
   9:src/stdio.cpp **** char* StdIO::idata = (char*)CONSOLE_RX_DATA;
  10:src/stdio.cpp **** char* StdIO::odata = (char*)CONSOLE_TX_DATA;
  11:src/stdio.cpp **** SharedBuffer<char>* StdIO::ibuffer = nullptr;
  12:src/stdio.cpp **** SharedBuffer<char>* StdIO::obuffer = nullptr;
  13:src/stdio.cpp **** KSemaphore* StdIO::blockSem = nullptr;
  14:src/stdio.cpp **** TCB* StdIO::out_thread = nullptr;
  15:src/stdio.cpp **** 
  16:src/stdio.cpp **** void StdIO::initalize()
  17:src/stdio.cpp **** {
  18:src/stdio.cpp ****     ibuffer = new SharedBuffer<char>();
  19:src/stdio.cpp ****     obuffer = new SharedBuffer<char>();
  20:src/stdio.cpp ****     blockSem = new KSemaphore(0);
  21:src/stdio.cpp ****     iostatus = (unsigned char*)CONSOLE_STATUS;
  22:src/stdio.cpp ****     idata = (char*)CONSOLE_RX_DATA;
  23:src/stdio.cpp ****     odata = (char*)CONSOLE_TX_DATA;
  24:src/stdio.cpp ****     uint64* stack = (uint64*)MemoryAllocator::getInstance().mem_alloc((DEFAULT_STACK_SIZE-1)/MEM_BL
  25:src/stdio.cpp ****     out_thread = TCB::createThread(outputWorker, nullptr, stack);
  26:src/stdio.cpp ****     out_thread->setKernelMode();
  27:src/stdio.cpp ****     out_thread->setKernelLocked();
  28:src/stdio.cpp **** }
  29:src/stdio.cpp **** 
  30:src/stdio.cpp **** void StdIO::outputWorker(void *)
  31:src/stdio.cpp **** {
  32:src/stdio.cpp ****     
  33:src/stdio.cpp ****     out_thread = nullptr;
  34:src/stdio.cpp **** 
  35:src/stdio.cpp ****     while(true)
  36:src/stdio.cpp ****     {
  37:src/stdio.cpp ****         if(output_ready())
  38:src/stdio.cpp ****         {
  39:src/stdio.cpp ****             *odata = obuffer->get();
  40:src/stdio.cpp ****         }
  41:src/stdio.cpp ****         else
  42:src/stdio.cpp ****         {
  43:src/stdio.cpp **** 
  44:src/stdio.cpp ****             uint64 sstatus = Riscv::r_sstatus(), sepc = Riscv::r_sepc();
  45:src/stdio.cpp ****             out_thread = TCB::running;
GAS LISTING /tmp/ccO06hI1.s 			page 2


  46:src/stdio.cpp **** 
  47:src/stdio.cpp ****             TCB::yield();
  48:src/stdio.cpp **** 
  49:src/stdio.cpp ****             Riscv::w_sstatus(sstatus);
  50:src/stdio.cpp ****             Riscv::w_sepc(sepc);
  51:src/stdio.cpp ****         }
  52:src/stdio.cpp **** 
  53:src/stdio.cpp ****     }
  54:src/stdio.cpp ****     
  55:src/stdio.cpp **** }
  56:src/stdio.cpp **** 
  57:src/stdio.cpp **** void StdIO::inputWorker()
  58:src/stdio.cpp **** {
  59:src/stdio.cpp **** 
  60:src/stdio.cpp **** }
  61:src/stdio.cpp **** 
  62:src/stdio.cpp **** void StdIO::console_handler(){
  63:src/stdio.cpp ****     uint64 t = plic_claim();
  64:src/stdio.cpp ****     if(t == CONSOLE_IRQ)
  65:src/stdio.cpp ****     {
  66:src/stdio.cpp ****         
  67:src/stdio.cpp ****         if(input_ready())
  68:src/stdio.cpp ****         {
  69:src/stdio.cpp ****             char c = *idata;
  70:src/stdio.cpp ****             plic_complete(CONSOLE_IRQ);
  71:src/stdio.cpp ****             //__putc(c);
  72:src/stdio.cpp ****             if(ibuffer->tmpLen < SharedBuffer<char>::BUFFER_SIZE){
  73:src/stdio.cpp ****                 ibuffer->put(c); 
  74:src/stdio.cpp ****             }
  75:src/stdio.cpp **** 
  76:src/stdio.cpp ****         }
  77:src/stdio.cpp ****         else
  78:src/stdio.cpp ****         {
  79:src/stdio.cpp ****             plic_complete(CONSOLE_IRQ);
  80:src/stdio.cpp ****             if(out_thread != nullptr)
  81:src/stdio.cpp ****             {
  82:src/stdio.cpp ****                 uint64 sstatus = Riscv::r_sstatus(), sepc = Riscv::r_sepc();
  83:src/stdio.cpp ****                 Scheduler::put_front(out_thread);
  84:src/stdio.cpp **** 
  85:src/stdio.cpp ****                 TCB::yield();
  86:src/stdio.cpp **** 
  87:src/stdio.cpp ****                 Riscv::w_sstatus(sstatus);
  88:src/stdio.cpp ****                 Riscv::w_sepc(sepc);
  89:src/stdio.cpp ****             }
  90:src/stdio.cpp ****                 
  91:src/stdio.cpp ****         }    
  92:src/stdio.cpp ****     }
  93:src/stdio.cpp ****     else
  94:src/stdio.cpp ****         plic_complete(t);
  95:src/stdio.cpp ****         
  96:src/stdio.cpp **** }...
  14              		.loc 1 96 1
  15              		.cfi_startproc
  16              	.LVL0:
  17 0000 130101FF 		addi	sp,sp,-16
  18              		.cfi_def_cfa_offset 16
  19 0004 23348100 		sd	s0,8(sp)
GAS LISTING /tmp/ccO06hI1.s 			page 3


  20              		.cfi_offset 8, -8
  21 0008 13040101 		addi	s0,sp,16
  22              		.cfi_def_cfa 8, 0
  23              		.loc 1 96 1 is_stmt 0
  24 000c 93071000 		li	a5,1
  25 0010 6308F500 		beq	a0,a5,.L4
  26              	.L1:
  27 0014 03348100 		ld	s0,8(sp)
  28              		.cfi_remember_state
  29              		.cfi_restore 8
  30              		.cfi_def_cfa 2, 16
  31 0018 13010101 		addi	sp,sp,16
  32              		.cfi_def_cfa_offset 0
  33 001c 67800000 		jr	ra
  34              	.L4:
  35              		.cfi_restore_state
  36              		.loc 1 96 1 discriminator 1
  37 0020 B7070100 		li	a5,65536
  38 0024 9387F7FF 		addi	a5,a5,-1
  39 0028 E396F5FE 		bne	a1,a5,.L1
   8:src/stdio.cpp **** unsigned char* StdIO::iostatus = (unsigned char*)CONSOLE_STATUS;
  40              		.loc 1 8 16
  41 002c 97070000 		lla	a5,CONSOLE_STATUS
  41      93870700 
  42 0034 83B70700 		ld	a5,0(a5)
  43 0038 17070000 		sd	a5,_ZN5StdIO8iostatusE,a4
  43      2330F700 
   9:src/stdio.cpp **** char* StdIO::idata = (char*)CONSOLE_RX_DATA;
  44              		.loc 1 9 7
  45 0040 97070000 		lla	a5,CONSOLE_RX_DATA
  45      93870700 
  46 0048 83B70700 		ld	a5,0(a5)
  47 004c 17070000 		sd	a5,_ZN5StdIO5idataE,a4
  47      2330F700 
  10:src/stdio.cpp **** char* StdIO::odata = (char*)CONSOLE_TX_DATA;
  48              		.loc 1 10 7
  49 0054 97070000 		lla	a5,CONSOLE_TX_DATA
  49      93870700 
  50 005c 83B70700 		ld	a5,0(a5)
  51 0060 17070000 		sd	a5,_ZN5StdIO5odataE,a4
  51      2330F700 
  52              		.loc 1 96 1
  53 0068 6FF0DFFA 		j	.L1
  54              		.cfi_endproc
  55              	.LFE82:
  57              		.align	2
  58              		.globl	_ZN5StdIO12outputWorkerEPv
  60              	_ZN5StdIO12outputWorkerEPv:
  61              	.LFB72:
  31:src/stdio.cpp **** {
  62              		.loc 1 31 1 is_stmt 1
  63              		.cfi_startproc
  64 006c 130101FC 		addi	sp,sp,-64
  65              		.cfi_def_cfa_offset 64
  66 0070 233C1102 		sd	ra,56(sp)
  67 0074 23388102 		sd	s0,48(sp)
  68 0078 23349102 		sd	s1,40(sp)
GAS LISTING /tmp/ccO06hI1.s 			page 4


  69 007c 23302103 		sd	s2,32(sp)
  70 0080 233C3101 		sd	s3,24(sp)
  71 0084 23384101 		sd	s4,16(sp)
  72              		.cfi_offset 1, -8
  73              		.cfi_offset 8, -16
  74              		.cfi_offset 9, -24
  75              		.cfi_offset 18, -32
  76              		.cfi_offset 19, -40
  77              		.cfi_offset 20, -48
  78 0088 13040104 		addi	s0,sp,64
  79              		.cfi_def_cfa 8, 0
  33:src/stdio.cpp ****     out_thread = nullptr;
  80              		.loc 1 33 5
  33:src/stdio.cpp ****     out_thread = nullptr;
  81              		.loc 1 33 16 is_stmt 0
  82 008c 97070000 		sd	zero,_ZN5StdIO10out_threadE,a5
  82      23B00700 
  83 0094 6F000004 		j	.L6
  84              	.L7:
  85              	.LBB127:
  86              	.LBB128:
  44:src/stdio.cpp ****             uint64 sstatus = Riscv::r_sstatus(), sepc = Riscv::r_sepc();
  87              		.loc 1 44 13 is_stmt 1
  88              	.LBB129:
  89              	.LBB130:
  90              		.file 2 "src/../h/riscv.hpp"
   1:src/../h/riscv.hpp **** #ifndef __riscv__
   2:src/../h/riscv.hpp **** #define __riscv__
   3:src/../h/riscv.hpp **** 
   4:src/../h/riscv.hpp **** #include"../lib/hw.h"
   5:src/../h/riscv.hpp **** 
   6:src/../h/riscv.hpp **** class Riscv{
   7:src/../h/riscv.hpp **** public:
   8:src/../h/riscv.hpp ****     
   9:src/../h/riscv.hpp ****     static void w_scause(uint64);
  10:src/../h/riscv.hpp ****     static uint64 r_scause(); 
  11:src/../h/riscv.hpp **** 
  12:src/../h/riscv.hpp ****     static void w_sepc(uint64);
  13:src/../h/riscv.hpp ****     static uint64 r_sepc();
  14:src/../h/riscv.hpp ****     static void ni_sepc();
  15:src/../h/riscv.hpp **** 
  16:src/../h/riscv.hpp ****     static void w_stvec(uint64);
  17:src/../h/riscv.hpp ****     static uint64 r_stvec();
  18:src/../h/riscv.hpp ****      
  19:src/../h/riscv.hpp ****     static void w_stval(uint64);
  20:src/../h/riscv.hpp ****     static uint64 r_stval();
  21:src/../h/riscv.hpp ****     
  22:src/../h/riscv.hpp ****     enum BitMaskSip{
  23:src/../h/riscv.hpp ****         SIP_SSIE = (1<<1),
  24:src/../h/riscv.hpp ****         SIP_STIE = (1<<5),
  25:src/../h/riscv.hpp ****         SIP_SEIE = (1<<9),
  26:src/../h/riscv.hpp ****     };
  27:src/../h/riscv.hpp **** 
  28:src/../h/riscv.hpp ****     static void ms_sip(uint64);
  29:src/../h/riscv.hpp ****     static void mc_sip(uint64);
  30:src/../h/riscv.hpp **** 
  31:src/../h/riscv.hpp ****     static void w_sip(uint64);
GAS LISTING /tmp/ccO06hI1.s 			page 5


  32:src/../h/riscv.hpp ****     static uint64 r_sip();
  33:src/../h/riscv.hpp **** 
  34:src/../h/riscv.hpp ****     enum BitMaskSstatus{
  35:src/../h/riscv.hpp ****         SSTATUS_SIE = (1<<1),
  36:src/../h/riscv.hpp ****         SSTATUS_SPIE = (1<<5),
  37:src/../h/riscv.hpp ****         SSTATUS_SPP = (1<<8),
  38:src/../h/riscv.hpp ****     };
  39:src/../h/riscv.hpp **** 
  40:src/../h/riscv.hpp ****     static void ms_sstatus(uint64);
  41:src/../h/riscv.hpp ****     static void mc_sstatus(uint64);
  42:src/../h/riscv.hpp **** 
  43:src/../h/riscv.hpp ****     static void w_sstatus(uint64);
  44:src/../h/riscv.hpp ****     static uint64 r_sstatus();
  45:src/../h/riscv.hpp **** 
  46:src/../h/riscv.hpp ****     static uint64 r_a0();
  47:src/../h/riscv.hpp ****     static uint64 s_a0(uint64 a0);
  48:src/../h/riscv.hpp ****     static uint64 r_a1();
  49:src/../h/riscv.hpp ****     static uint64 r_a2();
  50:src/../h/riscv.hpp ****     static uint64 r_a3();
  51:src/../h/riscv.hpp ****     static uint64 r_a4();
  52:src/../h/riscv.hpp **** 
  53:src/../h/riscv.hpp ****     static void popRegisters();
  54:src/../h/riscv.hpp ****     static void pushRegisters();
  55:src/../h/riscv.hpp **** 
  56:src/../h/riscv.hpp ****     static void popSppSpie();
  57:src/../h/riscv.hpp **** 
  58:src/../h/riscv.hpp ****     static void mc_cstatus(uint64 mask);
  59:src/../h/riscv.hpp ****     static bool cstatus_ready(uint64 mask);
  60:src/../h/riscv.hpp **** };
  61:src/../h/riscv.hpp **** 
  62:src/../h/riscv.hpp **** inline uint64 Riscv::r_a0(){
  63:src/../h/riscv.hpp ****     uint64 a0;
  64:src/../h/riscv.hpp ****     asm volatile("mv %0, a0" : "=r" (a0));
  65:src/../h/riscv.hpp ****     return a0;
  66:src/../h/riscv.hpp **** }
  67:src/../h/riscv.hpp **** 
  68:src/../h/riscv.hpp **** inline uint64 Riscv::r_a1(){
  69:src/../h/riscv.hpp ****     uint64 a0;
  70:src/../h/riscv.hpp ****     asm volatile("mv %0, a1" : "=r" (a0));
  71:src/../h/riscv.hpp ****     return a0;
  72:src/../h/riscv.hpp **** }
  73:src/../h/riscv.hpp **** 
  74:src/../h/riscv.hpp **** inline uint64 Riscv::r_a2(){
  75:src/../h/riscv.hpp ****     uint64 a0;
  76:src/../h/riscv.hpp ****     asm volatile("mv %0, a2" : "=r" (a0));
  77:src/../h/riscv.hpp ****     return a0;
  78:src/../h/riscv.hpp **** }
  79:src/../h/riscv.hpp **** 
  80:src/../h/riscv.hpp **** inline uint64 Riscv::r_a3(){
  81:src/../h/riscv.hpp ****     uint64 a0;
  82:src/../h/riscv.hpp ****     asm volatile("mv %0, a3" : "=r" (a0));
  83:src/../h/riscv.hpp ****     return a0;
  84:src/../h/riscv.hpp **** }
  85:src/../h/riscv.hpp **** 
  86:src/../h/riscv.hpp **** inline uint64 Riscv::r_a4(){
  87:src/../h/riscv.hpp ****     uint64 a0;
  88:src/../h/riscv.hpp ****     asm volatile("mv %0, a4" : "=r" (a0));
GAS LISTING /tmp/ccO06hI1.s 			page 6


  89:src/../h/riscv.hpp ****     return a0;
  90:src/../h/riscv.hpp **** }
  91:src/../h/riscv.hpp **** 
  92:src/../h/riscv.hpp **** 
  93:src/../h/riscv.hpp **** inline uint64 Riscv::s_a0(uint64 a0){
  94:src/../h/riscv.hpp ****     return a0;
  95:src/../h/riscv.hpp **** }
  96:src/../h/riscv.hpp **** 
  97:src/../h/riscv.hpp **** inline void Riscv::w_scause(uint64 scause){
  98:src/../h/riscv.hpp ****     asm volatile("csrw scause, %0" : : "r" (scause));
  99:src/../h/riscv.hpp **** }
 100:src/../h/riscv.hpp **** 
 101:src/../h/riscv.hpp **** inline uint64 Riscv::r_scause(){
 102:src/../h/riscv.hpp ****     uint64 volatile scause;
 103:src/../h/riscv.hpp ****     asm volatile("csrr %0, scause" : "=r" (scause));
 104:src/../h/riscv.hpp ****     return scause;
 105:src/../h/riscv.hpp **** } 
 106:src/../h/riscv.hpp **** 
 107:src/../h/riscv.hpp **** inline void Riscv::w_sepc(uint64 sepc){
 108:src/../h/riscv.hpp ****     asm volatile("csrw sepc, %0" : : "r" (sepc));
 109:src/../h/riscv.hpp **** }
 110:src/../h/riscv.hpp **** 
 111:src/../h/riscv.hpp **** inline uint64 Riscv::r_sepc(){
 112:src/../h/riscv.hpp ****     uint64 volatile sepc;
 113:src/../h/riscv.hpp ****     asm volatile("csrr %0, sepc" : "=r" (sepc));
 114:src/../h/riscv.hpp ****     return sepc;
 115:src/../h/riscv.hpp **** } 
 116:src/../h/riscv.hpp **** 
 117:src/../h/riscv.hpp **** inline void Riscv::w_stvec(uint64 stvec){
 118:src/../h/riscv.hpp ****     asm volatile("csrw stvec, %0" : : "r" (stvec));
 119:src/../h/riscv.hpp **** }
 120:src/../h/riscv.hpp **** 
 121:src/../h/riscv.hpp **** inline uint64 Riscv::r_stvec(){
 122:src/../h/riscv.hpp ****     uint64 volatile stvec;
 123:src/../h/riscv.hpp ****     asm volatile("csrr %0, stvec" : "=r" (stvec));
 124:src/../h/riscv.hpp ****     return stvec;
 125:src/../h/riscv.hpp **** } 
 126:src/../h/riscv.hpp **** 
 127:src/../h/riscv.hpp **** inline void Riscv::w_stval(uint64 stval){
 128:src/../h/riscv.hpp ****     asm volatile("csrw stval, %0" : : "r" (stval));
 129:src/../h/riscv.hpp **** }
 130:src/../h/riscv.hpp **** 
 131:src/../h/riscv.hpp **** inline uint64 Riscv::r_stval(){
 132:src/../h/riscv.hpp ****     uint64 volatile stval;
 133:src/../h/riscv.hpp ****     asm volatile("csrr %0, stval" : "=r" (stval));
 134:src/../h/riscv.hpp ****     return stval;
 135:src/../h/riscv.hpp **** } 
 136:src/../h/riscv.hpp **** 
 137:src/../h/riscv.hpp **** inline void Riscv::ms_sip(uint64 mask){
 138:src/../h/riscv.hpp ****     asm volatile ("csrs sip, %0" : : "r" (mask));
 139:src/../h/riscv.hpp **** }
 140:src/../h/riscv.hpp **** 
 141:src/../h/riscv.hpp **** inline void Riscv::mc_sip(uint64 mask){
 142:src/../h/riscv.hpp ****     asm volatile ("csrc sip, %0" : : "r" (mask));
 143:src/../h/riscv.hpp **** }
 144:src/../h/riscv.hpp **** 
 145:src/../h/riscv.hpp **** inline void Riscv::w_sip(uint64 sip){
GAS LISTING /tmp/ccO06hI1.s 			page 7


 146:src/../h/riscv.hpp ****     asm volatile("csrw sip, %0" : : "r" (sip));
 147:src/../h/riscv.hpp **** }
 148:src/../h/riscv.hpp **** 
 149:src/../h/riscv.hpp **** inline uint64 Riscv::r_sip(){
 150:src/../h/riscv.hpp ****     uint64 volatile sip;
 151:src/../h/riscv.hpp ****     asm volatile("csrr %0, sip" : "=r" (sip));
 152:src/../h/riscv.hpp ****     return sip;
 153:src/../h/riscv.hpp **** } 
 154:src/../h/riscv.hpp **** 
 155:src/../h/riscv.hpp **** inline void Riscv::ms_sstatus(uint64 mask){
 156:src/../h/riscv.hpp ****     asm volatile ("csrs sstatus, %0" : : "r" (mask));
 157:src/../h/riscv.hpp **** }
 158:src/../h/riscv.hpp **** 
 159:src/../h/riscv.hpp **** inline void Riscv::mc_sstatus(uint64 mask){
 160:src/../h/riscv.hpp ****     asm volatile ("csrc sstatus, %0" : : "r" (mask));
 161:src/../h/riscv.hpp **** }
 162:src/../h/riscv.hpp **** 
 163:src/../h/riscv.hpp **** inline void Riscv::w_sstatus(uint64 sstatus){
 164:src/../h/riscv.hpp ****     asm volatile("csrw sstatus, %0" : : "r" (sstatus));
 165:src/../h/riscv.hpp **** }
 166:src/../h/riscv.hpp **** 
 167:src/../h/riscv.hpp **** inline uint64 Riscv::r_sstatus(){
 168:src/../h/riscv.hpp ****     uint64 volatile sstatus;
  91              		.loc 2 168 5
 169:src/../h/riscv.hpp ****     asm volatile("csrr %0, sstatus" : "=r" (sstatus));
  92              		.loc 2 169 5
  93              		.loc 2 169 54 is_stmt 0
  94              	 #APP
  95              	# 169 "src/../h/riscv.hpp" 1
 170              	    return sstatus;
  96              		csrr a5, sstatus
  97              	# 0 "" 2
  98              	 #NO_APP
  99 009c 2334F4FC 		sd	a5,-56(s0)
 100              		.loc 2 170 5 is_stmt 1
 101              		.loc 2 170 12 is_stmt 0
 102 00a0 033984FC 		ld	s2,-56(s0)
 103              	.LVL1:
 104              	.LBE130:
 105              	.LBE129:
 106              	.LBB131:
 107              	.LBB132:
 112:src/../h/riscv.hpp ****     asm volatile("csrr %0, sepc" : "=r" (sepc));
 108              		.loc 2 112 5 is_stmt 1
 113:src/../h/riscv.hpp ****     return sepc;
 109              		.loc 2 113 5
 113:src/../h/riscv.hpp ****     return sepc;
 110              		.loc 2 113 48 is_stmt 0
 111              	 #APP
 112              	# 113 "src/../h/riscv.hpp" 1
 113              		csrr a5, sepc
 114              	# 0 "" 2
 115              	 #NO_APP
 116 00a8 2330F4FC 		sd	a5,-64(s0)
 114:src/../h/riscv.hpp **** } 
 117              		.loc 2 114 5 is_stmt 1
 114:src/../h/riscv.hpp **** } 
GAS LISTING /tmp/ccO06hI1.s 			page 8


 118              		.loc 2 114 12 is_stmt 0
 119 00ac 833404FC 		ld	s1,-64(s0)
 120              	.LVL2:
 121              	.LBE132:
 122              	.LBE131:
  45:src/stdio.cpp ****             out_thread = TCB::running;
 123              		.loc 1 45 13 is_stmt 1
  45:src/stdio.cpp ****             out_thread = TCB::running;
 124              		.loc 1 45 24 is_stmt 0
 125 00b0 97070000 		lla	a5,_ZN3TCB7runningE
 125      93870700 
 126 00b8 83B70700 		ld	a5,0(a5)
 127 00bc 17070000 		sd	a5,_ZN5StdIO10out_threadE,a4
 127      2330F700 
  47:src/stdio.cpp ****             TCB::yield();
 128              		.loc 1 47 13 is_stmt 1
  47:src/stdio.cpp ****             TCB::yield();
 129              		.loc 1 47 23 is_stmt 0
 130 00c4 97000000 		call	_ZN3TCB5yieldEv
 130      E7800000 
 131              	.LVL3:
  49:src/stdio.cpp ****             Riscv::w_sstatus(sstatus);
 132              		.loc 1 49 13 is_stmt 1
 133              	.LBB133:
 134              	.LBB134:
 164:src/../h/riscv.hpp **** }
 135              		.loc 2 164 5
 164:src/../h/riscv.hpp **** }
 136              		.loc 2 164 55 is_stmt 0
 137              	 #APP
 138              	# 164 "src/../h/riscv.hpp" 1
 139              		csrw sstatus, s2
 140              	# 0 "" 2
 141              	.LVL4:
 142              	 #NO_APP
 143              	.LBE134:
 144              	.LBE133:
  50:src/stdio.cpp ****             Riscv::w_sepc(sepc);
 145              		.loc 1 50 13 is_stmt 1
 146              	.LBB135:
 147              	.LBB136:
 108:src/../h/riscv.hpp **** }
 148              		.loc 2 108 5
 108:src/../h/riscv.hpp **** }
 149              		.loc 2 108 49 is_stmt 0
 150              	 #APP
 151              	# 108 "src/../h/riscv.hpp" 1
 152              		csrw sepc, s1
 153              	# 0 "" 2
 154              	.LVL5:
 155              	 #NO_APP
 156              	.L6:
 157              	.LBE136:
 158              	.LBE135:
 159              	.LBE128:
 160              	.LBE127:
  35:src/stdio.cpp ****     while(true)
GAS LISTING /tmp/ccO06hI1.s 			page 9


 161              		.loc 1 35 5 is_stmt 1
  37:src/stdio.cpp ****         if(output_ready())
 162              		.loc 1 37 9
 163              	.LBB141:
 164              	.LBB137:
 165              	.LBB138:
 166              		.file 3 "src/../h/stdio.hpp"
   1:src/../h/stdio.hpp **** #ifndef __stdio_hpp__
   2:src/../h/stdio.hpp **** #define __stdio_hpp__
   3:src/../h/stdio.hpp **** 
   4:src/../h/stdio.hpp **** #include"../h/shared_buffer.hpp"
   5:src/../h/stdio.hpp **** #include "tcb.hpp"
   6:src/../h/stdio.hpp **** 
   7:src/../h/stdio.hpp **** struct ORequest{
   8:src/../h/stdio.hpp ****     char c;
   9:src/../h/stdio.hpp ****     KSemaphore* s;   
  10:src/../h/stdio.hpp **** };
  11:src/../h/stdio.hpp **** 
  12:src/../h/stdio.hpp **** class StdIO{
  13:src/../h/stdio.hpp **** 
  14:src/../h/stdio.hpp **** private:
  15:src/../h/stdio.hpp ****     static unsigned char* iostatus;
  16:src/../h/stdio.hpp ****     static char* idata, *odata;
  17:src/../h/stdio.hpp ****     static KSemaphore* blockSem;
  18:src/../h/stdio.hpp **** public:
  19:src/../h/stdio.hpp ****     
  20:src/../h/stdio.hpp **** 
  21:src/../h/stdio.hpp ****     static void initalize();
  22:src/../h/stdio.hpp ****     static void outputWorker(void*);
  23:src/../h/stdio.hpp ****     static void inputWorker();
  24:src/../h/stdio.hpp ****     static void console_handler();
  25:src/../h/stdio.hpp ****     static bool input_ready(){ return *iostatus & CONSOLE_RX_STATUS_BIT; } 
  26:src/../h/stdio.hpp ****     static bool output_ready() { return *iostatus & CONSOLE_TX_STATUS_BIT; }
 167              		.loc 3 26 34
 168              		.loc 3 26 41 is_stmt 0
 169 00d4 97070000 		lla	a5,_ZN5StdIO8iostatusE
 169      93870700 
 170 00dc 83B70700 		ld	a5,0(a5)
 171 00e0 83C70700 		lbu	a5,0(a5)
 172              	.LBE138:
 173              	.LBE137:
  37:src/stdio.cpp ****         if(output_ready())
 174              		.loc 1 37 9
 175 00e4 93F70702 		andi	a5,a5,32
 176 00e8 E38807FA 		beq	a5,zero,.L7
  39:src/stdio.cpp ****             *odata = obuffer->get();
 177              		.loc 1 39 13 is_stmt 1
  39:src/stdio.cpp ****             *odata = obuffer->get();
 178              		.loc 1 39 34 is_stmt 0
 179 00ec 97070000 		lla	a5,_ZN5StdIO7obufferE
 179      93870700 
 180 00f4 83B40700 		ld	s1,0(a5)
  39:src/stdio.cpp ****             *odata = obuffer->get();
 181              		.loc 1 39 13
 182 00f8 97070000 		lla	a5,_ZN5StdIO5odataE
 182      93870700 
 183 0100 83B90700 		ld	s3,0(a5)
GAS LISTING /tmp/ccO06hI1.s 			page 10


 184              	.LVL6:
 185              	.LBB139:
 186              	.LBB140:
 187              		.file 4 "src/../h/../h/shared_buffer.hpp"
   1:src/../h/../h/shared_buffer.hpp **** #ifndef __shared_buffer__hpp
   2:src/../h/../h/shared_buffer.hpp **** #define __shared_buffer__hpp
   3:src/../h/../h/shared_buffer.hpp **** 
   4:src/../h/../h/shared_buffer.hpp **** #include"../h/ksemaphore.hpp"
   5:src/../h/../h/shared_buffer.hpp **** 
   6:src/../h/../h/shared_buffer.hpp **** template<typename T>
   7:src/../h/../h/shared_buffer.hpp **** class SharedBuffer{
   8:src/../h/../h/shared_buffer.hpp **** public:
   9:src/../h/../h/shared_buffer.hpp ****     static const int BUFFER_SIZE = 1024;
  10:src/../h/../h/shared_buffer.hpp **** private:
  11:src/../h/../h/shared_buffer.hpp ****     T buffer[BUFFER_SIZE];
  12:src/../h/../h/shared_buffer.hpp ****     KSemaphore mutex, itemAvailable, spaceAvailable; 
  13:src/../h/../h/shared_buffer.hpp ****     int head, tail;
  14:src/../h/../h/shared_buffer.hpp **** 
  15:src/../h/../h/shared_buffer.hpp **** public: 
  16:src/../h/../h/shared_buffer.hpp ****     int tmpLen;
  17:src/../h/../h/shared_buffer.hpp ****     #include"../h/kernel_operators.hpp"
  18:src/../h/../h/shared_buffer.hpp ****     SharedBuffer():mutex(1), itemAvailable(0), 
  19:src/../h/../h/shared_buffer.hpp ****     spaceAvailable(BUFFER_SIZE), head(0), tail(0), tmpLen(0){}
  20:src/../h/../h/shared_buffer.hpp **** 
  21:src/../h/../h/shared_buffer.hpp ****     void put(T c){
  22:src/../h/../h/shared_buffer.hpp ****         spaceAvailable.wait();
  23:src/../h/../h/shared_buffer.hpp ****         mutex.wait();
  24:src/../h/../h/shared_buffer.hpp **** 
  25:src/../h/../h/shared_buffer.hpp ****         tmpLen++;
  26:src/../h/../h/shared_buffer.hpp ****         buffer[tail]=c;
  27:src/../h/../h/shared_buffer.hpp ****         tail=(tail+1)%BUFFER_SIZE;
  28:src/../h/../h/shared_buffer.hpp ****     
  29:src/../h/../h/shared_buffer.hpp ****         itemAvailable.signal();
  30:src/../h/../h/shared_buffer.hpp ****         mutex.signal();
  31:src/../h/../h/shared_buffer.hpp ****     }
  32:src/../h/../h/shared_buffer.hpp **** 
  33:src/../h/../h/shared_buffer.hpp ****     T get(){
  34:src/../h/../h/shared_buffer.hpp ****         itemAvailable.wait();
 188              		.loc 4 34 27
 189 0104 13858442 		addi	a0,s1,1064
 190 0108 97000000 		call	_ZN10KSemaphore4waitEv
 190      E7800000 
 191              	.LVL7:
  35:src/../h/../h/shared_buffer.hpp ****         mutex.wait();
 192              		.loc 4 35 19
 193 0110 13890440 		addi	s2,s1,1024
 194 0114 13050900 		mv	a0,s2
 195 0118 97000000 		call	_ZN10KSemaphore4waitEv
 195      E7800000 
 196              	.LVL8:
  36:src/../h/../h/shared_buffer.hpp **** 
  37:src/../h/../h/shared_buffer.hpp ****         tmpLen--;
 197              		.loc 4 37 9
 198 0120 83A70448 		lw	a5,1152(s1)
 199 0124 9B87F7FF 		addiw	a5,a5,-1
 200 0128 23A0F448 		sw	a5,1152(s1)
  38:src/../h/../h/shared_buffer.hpp ****         T r = buffer[head];
GAS LISTING /tmp/ccO06hI1.s 			page 11


 201              		.loc 4 38 22
 202 012c 83A78447 		lw	a5,1144(s1)
 203              		.loc 4 38 11
 204 0130 3387F400 		add	a4,s1,a5
 205 0134 034A0700 		lbu	s4,0(a4)
 206              	.LVL9:
  39:src/../h/../h/shared_buffer.hpp ****         head = (head+1)%BUFFER_SIZE;
 207              		.loc 4 39 21
 208 0138 9B871700 		addiw	a5,a5,1
 209              		.loc 4 39 24
 210 013c 1BD7F741 		sraiw	a4,a5,31
 211 0140 1B576701 		srliw	a4,a4,22
 212 0144 BB87E700 		addw	a5,a5,a4
 213 0148 93F7F73F 		andi	a5,a5,1023
 214 014c BB87E740 		subw	a5,a5,a4
 215              		.loc 4 39 9
 216 0150 23ACF446 		sw	a5,1144(s1)
  40:src/../h/../h/shared_buffer.hpp **** 
  41:src/../h/../h/shared_buffer.hpp ****         spaceAvailable.signal();
 217              		.loc 4 41 30
 218 0154 13850445 		addi	a0,s1,1104
 219 0158 97000000 		call	_ZN10KSemaphore6signalEv
 219      E7800000 
 220              	.LVL10:
  42:src/../h/../h/shared_buffer.hpp ****         mutex.signal();
 221              		.loc 4 42 21
 222 0160 13050900 		mv	a0,s2
 223 0164 97000000 		call	_ZN10KSemaphore6signalEv
 223      E7800000 
 224              	.LVL11:
 225              	.LBE140:
 226              	.LBE139:
  39:src/stdio.cpp ****             *odata = obuffer->get();
 227              		.loc 1 39 20
 228 016c 23804901 		sb	s4,0(s3)
 229 0170 6FF05FF6 		j	.L6
 230              	.LBE141:
 231              		.cfi_endproc
 232              	.LFE72:
 234              		.align	2
 235              		.globl	_ZN5StdIO9initalizeEv
 237              	_ZN5StdIO9initalizeEv:
 238              	.LFB71:
  17:src/stdio.cpp **** {
 239              		.loc 1 17 1 is_stmt 1
 240              		.cfi_startproc
 241 0174 130101FD 		addi	sp,sp,-48
 242              		.cfi_def_cfa_offset 48
 243 0178 23341102 		sd	ra,40(sp)
 244 017c 23308102 		sd	s0,32(sp)
 245 0180 233C9100 		sd	s1,24(sp)
 246 0184 23382101 		sd	s2,16(sp)
 247 0188 23343101 		sd	s3,8(sp)
 248              		.cfi_offset 1, -8
 249              		.cfi_offset 8, -16
 250              		.cfi_offset 9, -24
 251              		.cfi_offset 18, -32
GAS LISTING /tmp/ccO06hI1.s 			page 12


 252              		.cfi_offset 19, -40
 253 018c 13040103 		addi	s0,sp,48
 254              		.cfi_def_cfa 8, 0
  18:src/stdio.cpp ****     ibuffer = new SharedBuffer<char>();
 255              		.loc 1 18 5
 256              	.LVL12:
 257              	.LBB142:
 258              	.LBB143:
 259              		.file 5 "src/../h/../h/../h/kernel_operators.hpp"
   1:src/../h/../h/../h/kernel_operators.hpp **** void* operator new(size_t sz){return MemoryAllocator::getInstance().mem_alloc((sz-1)/MEM_BLOCK_SIZE
 260              		.loc 5 1 67 is_stmt 0
 261 0190 97000000 		call	_ZN15MemoryAllocator11getInstanceEv
 261      E7800000 
 262              	.LVL13:
 263              		.loc 5 1 78
 264 0198 93053001 		li	a1,19
 265 019c 97000000 		call	_ZN15MemoryAllocator9mem_allocEm
 265      E7800000 
 266              	.LVL14:
 267              	.LBE143:
 268              	.LBE142:
 269              	.LBB144:
 270              	.LBB145:
  19:src/../h/../h/shared_buffer.hpp **** 
 271              		.loc 4 19 60
 272 01a4 93070540 		addi	a5,a0,1024
 273              	.LVL15:
 274              	.LBB146:
 275              	.LBB147:
 276              		.file 6 "src/../h/../h/../h/ksemaphore.hpp"
   1:src/../h/../h/../h/ksemaphore.hpp **** #ifndef __semaphore__
   2:src/../h/../h/../h/ksemaphore.hpp **** #define __semaphore__
   3:src/../h/../h/../h/ksemaphore.hpp **** 
   4:src/../h/../h/../h/ksemaphore.hpp **** #include"../h/ptr_queue.hpp"
   5:src/../h/../h/../h/ksemaphore.hpp **** class KSemaphore
   6:src/../h/../h/../h/ksemaphore.hpp **** {
   7:src/../h/../h/../h/ksemaphore.hpp **** public:
   8:src/../h/../h/../h/ksemaphore.hpp ****     #include"../h/kernel_operators.hpp"
   9:src/../h/../h/../h/ksemaphore.hpp ****     KSemaphore(unsigned val):val(val)
 277              		.loc 6 9 37
 278 01a8 13091000 		li	s2,1
 279 01ac 23242541 		sw	s2,1032(a0)
 280              	.LVL16:
 281              	.LBB148:
 282              	.LBB149:
 283              		.file 7 "src/../h/../h/../h/../h/ptr_queue.hpp"
   1:src/../h/../h/../h/../h/ptr_queue.hpp **** #ifndef _queue_h
   2:src/../h/../h/../h/../h/ptr_queue.hpp **** #define _queue_h
   3:src/../h/../h/../h/../h/ptr_queue.hpp **** 
   4:src/../h/../h/../h/../h/ptr_queue.hpp **** //#include"../h/tcb.hpp"
   5:src/../h/../h/../h/../h/ptr_queue.hpp **** //#include"../h/testing.hpp"
   6:src/../h/../h/../h/../h/ptr_queue.hpp **** #include"../lib/hw.h"
   7:src/../h/../h/../h/../h/ptr_queue.hpp **** #include"../h/memory_allocator.hpp"
   8:src/../h/../h/../h/../h/ptr_queue.hpp **** 
   9:src/../h/../h/../h/../h/ptr_queue.hpp **** class TCB;
  10:src/../h/../h/../h/../h/ptr_queue.hpp **** 
  11:src/../h/../h/../h/../h/ptr_queue.hpp **** class TcbQueue{
GAS LISTING /tmp/ccO06hI1.s 			page 13


  12:src/../h/../h/../h/../h/ptr_queue.hpp ****        
  13:src/../h/../h/../h/../h/ptr_queue.hpp ****     TCB *head, *tail;
  14:src/../h/../h/../h/../h/ptr_queue.hpp ****     int tmpNum;
  15:src/../h/../h/../h/../h/ptr_queue.hpp ****     void brisi(){
  16:src/../h/../h/../h/../h/ptr_queue.hpp ****         while(!isEmpty())
  17:src/../h/../h/../h/../h/ptr_queue.hpp ****             remove();
  18:src/../h/../h/../h/../h/ptr_queue.hpp ****     }
  19:src/../h/../h/../h/../h/ptr_queue.hpp **** 
  20:src/../h/../h/../h/../h/ptr_queue.hpp **** public:
  21:src/../h/../h/../h/../h/ptr_queue.hpp ****     #include"../h/kernel_operators.hpp"
  22:src/../h/../h/../h/../h/ptr_queue.hpp ****     TcbQueue():head(nullptr), tail(nullptr), tmpNum(0){}
 284              		.loc 7 22 54
 285 01b0 23380540 		sd	zero,1040(a0)
 286 01b4 233C0540 		sd	zero,1048(a0)
 287 01b8 23200542 		sw	zero,1056(a0)
 288              	.LVL17:
 289              	.LBE149:
 290              	.LBE148:
  10:src/../h/../h/../h/ksemaphore.hpp ****     {
  11:src/../h/../h/../h/ksemaphore.hpp ****         next = activeSemaphores;
 291              		.loc 6 11 9 is_stmt 1
 292              		.loc 6 11 14 is_stmt 0
 293 01bc 97040000 		lla	s1,_ZN10KSemaphore16activeSemaphoresE
 293      93840400 
 294 01c4 03B70400 		ld	a4,0(s1)
 295 01c8 2330E540 		sd	a4,1024(a0)
  12:src/../h/../h/../h/ksemaphore.hpp ****         activeSemaphores = this;
 296              		.loc 6 12 9 is_stmt 1
 297              	.LVL18:
 298              	.LBE147:
 299              	.LBE146:
  19:src/../h/../h/shared_buffer.hpp **** 
 300              		.loc 4 19 60 is_stmt 0
 301 01cc 13078542 		addi	a4,a0,1064
 302              	.LVL19:
 303              	.LBB150:
 304              	.LBB151:
   9:src/../h/../h/../h/ksemaphore.hpp ****     {
 305              		.loc 6 9 37
 306 01d0 23280542 		sw	zero,1072(a0)
 307              	.LVL20:
 308              	.LBB152:
 309              	.LBB153:
 310              		.loc 7 22 54
 311 01d4 233C0542 		sd	zero,1080(a0)
 312 01d8 23300544 		sd	zero,1088(a0)
 313 01dc 23240544 		sw	zero,1096(a0)
 314              	.LVL21:
 315              	.LBE153:
 316              	.LBE152:
  11:src/../h/../h/../h/ksemaphore.hpp ****         activeSemaphores = this;
 317              		.loc 6 11 9 is_stmt 1
  11:src/../h/../h/../h/ksemaphore.hpp ****         activeSemaphores = this;
 318              		.loc 6 11 14 is_stmt 0
 319 01e0 2334F542 		sd	a5,1064(a0)
 320              		.loc 6 12 9 is_stmt 1
 321              	.LVL22:
GAS LISTING /tmp/ccO06hI1.s 			page 14


 322              	.LBE151:
 323              	.LBE150:
  19:src/../h/../h/shared_buffer.hpp **** 
 324              		.loc 4 19 60 is_stmt 0
 325 01e4 93070545 		addi	a5,a0,1104
 326              	.LVL23:
 327              	.LBB154:
 328              	.LBB155:
   9:src/../h/../h/../h/ksemaphore.hpp ****     {
 329              		.loc 6 9 37
 330 01e8 93090040 		li	s3,1024
 331 01ec 232C3545 		sw	s3,1112(a0)
 332              	.LVL24:
 333              	.LBB156:
 334              	.LBB157:
 335              		.loc 7 22 54
 336 01f0 23300546 		sd	zero,1120(a0)
 337 01f4 23340546 		sd	zero,1128(a0)
 338 01f8 23280546 		sw	zero,1136(a0)
 339              	.LVL25:
 340              	.LBE157:
 341              	.LBE156:
  11:src/../h/../h/../h/ksemaphore.hpp ****         activeSemaphores = this;
 342              		.loc 6 11 9 is_stmt 1
  11:src/../h/../h/../h/ksemaphore.hpp ****         activeSemaphores = this;
 343              		.loc 6 11 14 is_stmt 0
 344 01fc 2338E544 		sd	a4,1104(a0)
 345              		.loc 6 12 9 is_stmt 1
 346              		.loc 6 12 26 is_stmt 0
 347 0200 23B0F400 		sd	a5,0(s1)
 348              	.LVL26:
 349              	.LBE155:
 350              	.LBE154:
  19:src/../h/../h/shared_buffer.hpp **** 
 351              		.loc 4 19 60
 352 0204 232C0546 		sw	zero,1144(a0)
 353 0208 232E0546 		sw	zero,1148(a0)
 354 020c 23200548 		sw	zero,1152(a0)
 355              	.LVL27:
 356              	.LBE145:
 357              	.LBE144:
  18:src/stdio.cpp ****     ibuffer = new SharedBuffer<char>();
 358              		.loc 1 18 13
 359 0210 97070000 		sd	a0,_ZN5StdIO7ibufferE,a5
 359      23B0A700 
  19:src/stdio.cpp ****     obuffer = new SharedBuffer<char>();
 360              		.loc 1 19 5 is_stmt 1
 361              	.LVL28:
 362              	.LBB158:
 363              	.LBB159:
 364              		.loc 5 1 67 is_stmt 0
 365 0218 97000000 		call	_ZN15MemoryAllocator11getInstanceEv
 365      E7800000 
 366              	.LVL29:
 367              		.loc 5 1 78
 368 0220 93053001 		li	a1,19
 369 0224 97000000 		call	_ZN15MemoryAllocator9mem_allocEm
GAS LISTING /tmp/ccO06hI1.s 			page 15


 369      E7800000 
 370              	.LVL30:
 371              	.LBE159:
 372              	.LBE158:
 373              	.LBB160:
 374              	.LBB161:
  19:src/../h/../h/shared_buffer.hpp **** 
 375              		.loc 4 19 60
 376 022c 93070540 		addi	a5,a0,1024
 377              	.LVL31:
 378              	.LBB162:
 379              	.LBB163:
   9:src/../h/../h/../h/ksemaphore.hpp ****     {
 380              		.loc 6 9 37
 381 0230 23242541 		sw	s2,1032(a0)
 382              	.LVL32:
 383              	.LBB164:
 384              	.LBB165:
 385              		.loc 7 22 54
 386 0234 23380540 		sd	zero,1040(a0)
 387 0238 233C0540 		sd	zero,1048(a0)
 388 023c 23200542 		sw	zero,1056(a0)
 389              	.LVL33:
 390              	.LBE165:
 391              	.LBE164:
  11:src/../h/../h/../h/ksemaphore.hpp ****         activeSemaphores = this;
 392              		.loc 6 11 9 is_stmt 1
  11:src/../h/../h/../h/ksemaphore.hpp ****         activeSemaphores = this;
 393              		.loc 6 11 14 is_stmt 0
 394 0240 03B70400 		ld	a4,0(s1)
 395 0244 2330E540 		sd	a4,1024(a0)
 396              		.loc 6 12 9 is_stmt 1
 397              	.LVL34:
 398              	.LBE163:
 399              	.LBE162:
  19:src/../h/../h/shared_buffer.hpp **** 
 400              		.loc 4 19 60 is_stmt 0
 401 0248 13078542 		addi	a4,a0,1064
 402              	.LVL35:
 403              	.LBB166:
 404              	.LBB167:
   9:src/../h/../h/../h/ksemaphore.hpp ****     {
 405              		.loc 6 9 37
 406 024c 23280542 		sw	zero,1072(a0)
 407              	.LVL36:
 408              	.LBB168:
 409              	.LBB169:
 410              		.loc 7 22 54
 411 0250 233C0542 		sd	zero,1080(a0)
 412 0254 23300544 		sd	zero,1088(a0)
 413 0258 23240544 		sw	zero,1096(a0)
 414              	.LVL37:
 415              	.LBE169:
 416              	.LBE168:
  11:src/../h/../h/../h/ksemaphore.hpp ****         activeSemaphores = this;
 417              		.loc 6 11 9 is_stmt 1
  11:src/../h/../h/../h/ksemaphore.hpp ****         activeSemaphores = this;
GAS LISTING /tmp/ccO06hI1.s 			page 16


 418              		.loc 6 11 14 is_stmt 0
 419 025c 2334F542 		sd	a5,1064(a0)
 420              		.loc 6 12 9 is_stmt 1
 421              	.LVL38:
 422              	.LBE167:
 423              	.LBE166:
  19:src/../h/../h/shared_buffer.hpp **** 
 424              		.loc 4 19 60 is_stmt 0
 425 0260 93070545 		addi	a5,a0,1104
 426              	.LVL39:
 427              	.LBB170:
 428              	.LBB171:
   9:src/../h/../h/../h/ksemaphore.hpp ****     {
 429              		.loc 6 9 37
 430 0264 232C3545 		sw	s3,1112(a0)
 431              	.LVL40:
 432              	.LBB172:
 433              	.LBB173:
 434              		.loc 7 22 54
 435 0268 23300546 		sd	zero,1120(a0)
 436 026c 23340546 		sd	zero,1128(a0)
 437 0270 23280546 		sw	zero,1136(a0)
 438              	.LVL41:
 439              	.LBE173:
 440              	.LBE172:
  11:src/../h/../h/../h/ksemaphore.hpp ****         activeSemaphores = this;
 441              		.loc 6 11 9 is_stmt 1
  11:src/../h/../h/../h/ksemaphore.hpp ****         activeSemaphores = this;
 442              		.loc 6 11 14 is_stmt 0
 443 0274 2338E544 		sd	a4,1104(a0)
 444              		.loc 6 12 9 is_stmt 1
 445              		.loc 6 12 26 is_stmt 0
 446 0278 23B0F400 		sd	a5,0(s1)
 447              	.LVL42:
 448              	.LBE171:
 449              	.LBE170:
  19:src/../h/../h/shared_buffer.hpp **** 
 450              		.loc 4 19 60
 451 027c 232C0546 		sw	zero,1144(a0)
 452 0280 232E0546 		sw	zero,1148(a0)
 453 0284 23200548 		sw	zero,1152(a0)
 454              	.LVL43:
 455              	.LBE161:
 456              	.LBE160:
  19:src/stdio.cpp ****     obuffer = new SharedBuffer<char>();
 457              		.loc 1 19 13
 458 0288 97070000 		sd	a0,_ZN5StdIO7obufferE,a5
 458      23B0A700 
  20:src/stdio.cpp ****     blockSem = new KSemaphore(0);
 459              		.loc 1 20 5 is_stmt 1
 460              	.LVL44:
 461              	.LBB174:
 462              	.LBB175:
 463              		.file 8 "src/../h/../h/../h/../h/kernel_operators.hpp"
   1:src/../h/../h/../h/../h/kernel_operators.hpp **** void* operator new(size_t sz){return MemoryAllocator::getInstance().mem_alloc((sz-1)/MEM_BLOCK_SIZE
 464              		.loc 8 1 31
 465              		.loc 8 1 67 is_stmt 0
GAS LISTING /tmp/ccO06hI1.s 			page 17


 466 0290 97000000 		call	_ZN15MemoryAllocator11getInstanceEv
 466      E7800000 
 467              	.LVL45:
 468              		.loc 8 1 78
 469 0298 93051000 		li	a1,1
 470 029c 97000000 		call	_ZN15MemoryAllocator9mem_allocEm
 470      E7800000 
 471              	.LVL46:
 472              	.LBE175:
 473              	.LBE174:
 474              	.LBB176:
 475              	.LBB177:
   9:src/../h/../h/../h/ksemaphore.hpp ****     {
 476              		.loc 6 9 37
 477 02a4 23240500 		sw	zero,8(a0)
 478              	.LVL47:
 479              	.LBB178:
 480              	.LBB179:
 481              		.loc 7 22 54
 482 02a8 23380500 		sd	zero,16(a0)
 483 02ac 233C0500 		sd	zero,24(a0)
 484 02b0 23200502 		sw	zero,32(a0)
 485              	.LVL48:
 486              	.LBE179:
 487              	.LBE178:
  11:src/../h/../h/../h/ksemaphore.hpp ****         activeSemaphores = this;
 488              		.loc 6 11 9 is_stmt 1
  11:src/../h/../h/../h/ksemaphore.hpp ****         activeSemaphores = this;
 489              		.loc 6 11 14 is_stmt 0
 490 02b4 83B70400 		ld	a5,0(s1)
 491 02b8 2330F500 		sd	a5,0(a0)
 492              		.loc 6 12 9 is_stmt 1
 493              		.loc 6 12 26 is_stmt 0
 494 02bc 23B0A400 		sd	a0,0(s1)
 495              	.LVL49:
 496              	.LBE177:
 497              	.LBE176:
  20:src/stdio.cpp ****     blockSem = new KSemaphore(0);
 498              		.loc 1 20 14
 499 02c0 97070000 		sd	a0,_ZN5StdIO8blockSemE,a5
 499      23B0A700 
  21:src/stdio.cpp ****     iostatus = (unsigned char*)CONSOLE_STATUS;
 500              		.loc 1 21 5 is_stmt 1
  21:src/stdio.cpp ****     iostatus = (unsigned char*)CONSOLE_STATUS;
 501              		.loc 1 21 14 is_stmt 0
 502 02c8 97070000 		lla	a5,CONSOLE_STATUS
 502      93870700 
 503 02d0 83B70700 		ld	a5,0(a5)
 504 02d4 17070000 		sd	a5,_ZN5StdIO8iostatusE,a4
 504      2330F700 
  22:src/stdio.cpp ****     idata = (char*)CONSOLE_RX_DATA;
 505              		.loc 1 22 5 is_stmt 1
  22:src/stdio.cpp ****     idata = (char*)CONSOLE_RX_DATA;
 506              		.loc 1 22 11 is_stmt 0
 507 02dc 97070000 		lla	a5,CONSOLE_RX_DATA
 507      93870700 
 508 02e4 83B70700 		ld	a5,0(a5)
GAS LISTING /tmp/ccO06hI1.s 			page 18


 509 02e8 17070000 		sd	a5,_ZN5StdIO5idataE,a4
 509      2330F700 
  23:src/stdio.cpp ****     odata = (char*)CONSOLE_TX_DATA;
 510              		.loc 1 23 5 is_stmt 1
  23:src/stdio.cpp ****     odata = (char*)CONSOLE_TX_DATA;
 511              		.loc 1 23 11 is_stmt 0
 512 02f0 97070000 		lla	a5,CONSOLE_TX_DATA
 512      93870700 
 513 02f8 83B70700 		ld	a5,0(a5)
 514 02fc 17070000 		sd	a5,_ZN5StdIO5odataE,a4
 514      2330F700 
  24:src/stdio.cpp ****     uint64* stack = (uint64*)MemoryAllocator::getInstance().mem_alloc((DEFAULT_STACK_SIZE-1)/MEM_BL
 515              		.loc 1 24 5 is_stmt 1
  24:src/stdio.cpp ****     uint64* stack = (uint64*)MemoryAllocator::getInstance().mem_alloc((DEFAULT_STACK_SIZE-1)/MEM_BL
 516              		.loc 1 24 59 is_stmt 0
 517 0304 97000000 		call	_ZN15MemoryAllocator11getInstanceEv
 517      E7800000 
 518              	.LVL50:
  24:src/stdio.cpp ****     uint64* stack = (uint64*)MemoryAllocator::getInstance().mem_alloc((DEFAULT_STACK_SIZE-1)/MEM_BL
 519              		.loc 1 24 70
 520 030c 93050004 		li	a1,64
 521 0310 97000000 		call	_ZN15MemoryAllocator9mem_allocEm
 521      E7800000 
 522              	.LVL51:
  25:src/stdio.cpp ****     out_thread = TCB::createThread(outputWorker, nullptr, stack);
 523              		.loc 1 25 5 is_stmt 1
  25:src/stdio.cpp ****     out_thread = TCB::createThread(outputWorker, nullptr, stack);
 524              		.loc 1 25 35 is_stmt 0
 525 0318 13060500 		mv	a2,a0
 526 031c 93050000 		li	a1,0
 527 0320 17050000 		lla	a0,_ZN5StdIO12outputWorkerEPv
 527      13050500 
 528              	.LVL52:
 529 0328 97000000 		call	_ZN3TCB12createThreadEPFvPvES0_Pm
 529      E7800000 
 530              	.LVL53:
  25:src/stdio.cpp ****     out_thread = TCB::createThread(outputWorker, nullptr, stack);
 531              		.loc 1 25 16
 532 0330 97070000 		sd	a0,_ZN5StdIO10out_threadE,a5
 532      23B0A700 
  26:src/stdio.cpp ****     out_thread->setKernelMode();
 533              		.loc 1 26 5 is_stmt 1
 534              	.LVL54:
 535              	.LBB180:
 536              	.LBB181:
 537              		.file 9 "src/../h/tcb.hpp"
   1:src/../h/tcb.hpp **** #ifndef __tcb__h
   2:src/../h/tcb.hpp **** #define __tcb__h
   3:src/../h/tcb.hpp **** 
   4:src/../h/tcb.hpp **** #include"../h/memory_allocator.hpp"
   5:src/../h/tcb.hpp **** 
   6:src/../h/tcb.hpp **** class KSemaphore;
   7:src/../h/tcb.hpp **** 
   8:src/../h/tcb.hpp **** class TCB{
   9:src/../h/tcb.hpp ****     
  10:src/../h/tcb.hpp **** public:
  11:src/../h/tcb.hpp ****     //alokacija
GAS LISTING /tmp/ccO06hI1.s 			page 19


  12:src/../h/tcb.hpp ****     #include"../h/kernel_operators.hpp"
  13:src/../h/tcb.hpp ****     
  14:src/../h/tcb.hpp ****     using Body = void (*)(void*);
  15:src/../h/tcb.hpp ****     enum TCBState{
  16:src/../h/tcb.hpp ****         BLOCKED,
  17:src/../h/tcb.hpp ****         READY,
  18:src/../h/tcb.hpp ****         FINISHED,
  19:src/../h/tcb.hpp ****         SLEEPING
  20:src/../h/tcb.hpp ****     };
  21:src/../h/tcb.hpp ****     
  22:src/../h/tcb.hpp ****     ~TCB(){ 
  23:src/../h/tcb.hpp ****         MemoryAllocator& allocator = MemoryAllocator::getInstance(); 
  24:src/../h/tcb.hpp ****         allocator.mem_free(this->stack);
  25:src/../h/tcb.hpp ****     }
  26:src/../h/tcb.hpp ****     
  27:src/../h/tcb.hpp ****     //nestaticki metodi
  28:src/../h/tcb.hpp ****     void setState(TCBState s) {state = s;}
  29:src/../h/tcb.hpp ****     TCBState getState() const{ return state; }
  30:src/../h/tcb.hpp ****     void finish() { state = FINISHED; }
  31:src/../h/tcb.hpp ****     bool isFinished(){ return state == FINISHED; }
  32:src/../h/tcb.hpp ****     uint64 getTimeSlice() const { return timeSlice; }
  33:src/../h/tcb.hpp ****     bool isSuspended(){return state == BLOCKED || state == SLEEPING;}
  34:src/../h/tcb.hpp ****     void setKernelMode() { userMode = false; }
 538              		.loc 9 34 28
 539              		.loc 9 34 37 is_stmt 0
 540 0338 A30A0502 		sb	zero,53(a0)
 541              	.LVL55:
 542              	.LBE181:
 543              	.LBE180:
  27:src/stdio.cpp ****     out_thread->setKernelLocked();
 544              		.loc 1 27 5 is_stmt 1
 545              	.LBB182:
 546              	.LBB183:
  35:src/../h/tcb.hpp ****     void setKernelLocked() { locked = true; }
 547              		.loc 9 35 30
 548              		.loc 9 35 37 is_stmt 0
 549 033c 230B2503 		sb	s2,54(a0)
 550              	.LVL56:
 551              	.LBE183:
 552              	.LBE182:
  28:src/stdio.cpp **** }
 553              		.loc 1 28 1
 554 0340 83308102 		ld	ra,40(sp)
 555              		.cfi_restore 1
 556 0344 03340102 		ld	s0,32(sp)
 557              		.cfi_restore 8
 558              		.cfi_def_cfa 2, 48
 559 0348 83348101 		ld	s1,24(sp)
 560              		.cfi_restore 9
 561 034c 03390101 		ld	s2,16(sp)
 562              		.cfi_restore 18
 563 0350 83398100 		ld	s3,8(sp)
 564              		.cfi_restore 19
 565 0354 13010103 		addi	sp,sp,48
 566              		.cfi_def_cfa_offset 0
 567 0358 67800000 		jr	ra
 568              		.cfi_endproc
GAS LISTING /tmp/ccO06hI1.s 			page 20


 569              	.LFE71:
 571              		.align	2
 572              		.globl	_ZN5StdIO11inputWorkerEv
 574              	_ZN5StdIO11inputWorkerEv:
 575              	.LFB73:
  58:src/stdio.cpp **** {
 576              		.loc 1 58 1 is_stmt 1
 577              		.cfi_startproc
 578 035c 130101FF 		addi	sp,sp,-16
 579              		.cfi_def_cfa_offset 16
 580 0360 23348100 		sd	s0,8(sp)
 581              		.cfi_offset 8, -8
 582 0364 13040101 		addi	s0,sp,16
 583              		.cfi_def_cfa 8, 0
  60:src/stdio.cpp **** }
 584              		.loc 1 60 1 is_stmt 0
 585 0368 03348100 		ld	s0,8(sp)
 586              		.cfi_restore 8
 587              		.cfi_def_cfa 2, 16
 588 036c 13010101 		addi	sp,sp,16
 589              		.cfi_def_cfa_offset 0
 590 0370 67800000 		jr	ra
 591              		.cfi_endproc
 592              	.LFE73:
 594              		.align	2
 595              		.globl	_ZN5StdIO15console_handlerEv
 597              	_ZN5StdIO15console_handlerEv:
 598              	.LFB74:
  62:src/stdio.cpp **** void StdIO::console_handler(){
 599              		.loc 1 62 30 is_stmt 1
 600              		.cfi_startproc
 601 0374 130101FC 		addi	sp,sp,-64
 602              		.cfi_def_cfa_offset 64
 603 0378 233C1102 		sd	ra,56(sp)
 604 037c 23388102 		sd	s0,48(sp)
 605 0380 23349102 		sd	s1,40(sp)
 606 0384 23302103 		sd	s2,32(sp)
 607 0388 233C3101 		sd	s3,24(sp)
 608              		.cfi_offset 1, -8
 609              		.cfi_offset 8, -16
 610              		.cfi_offset 9, -24
 611              		.cfi_offset 18, -32
 612              		.cfi_offset 19, -40
 613 038c 13040104 		addi	s0,sp,64
 614              		.cfi_def_cfa 8, 0
  63:src/stdio.cpp ****     uint64 t = plic_claim();
 615              		.loc 1 63 5
  63:src/stdio.cpp ****     uint64 t = plic_claim();
 616              		.loc 1 63 26 is_stmt 0
 617 0390 97000000 		call	plic_claim
 617      E7800000 
 618              	.LVL57:
  64:src/stdio.cpp ****     if(t == CONSOLE_IRQ)
 619              		.loc 1 64 5 is_stmt 1
 620              	.LBB204:
 621 0398 9307A000 		li	a5,10
 622 039c 6310F512 		bne	a0,a5,.L15
GAS LISTING /tmp/ccO06hI1.s 			page 21


 623              	.LBE204:
  67:src/stdio.cpp ****         if(input_ready())
 624              		.loc 1 67 9
 625              	.LBB224:
 626              	.LBB205:
 627              	.LBB206:
 628              	.LBB207:
  25:src/../h/stdio.hpp ****     static bool output_ready() { return *iostatus & CONSOLE_TX_STATUS_BIT; }
 629              		.loc 3 25 32
  25:src/../h/stdio.hpp ****     static bool output_ready() { return *iostatus & CONSOLE_TX_STATUS_BIT; }
 630              		.loc 3 25 39 is_stmt 0
 631 03a0 97070000 		lla	a5,_ZN5StdIO8iostatusE
 631      93870700 
 632 03a8 83B70700 		ld	a5,0(a5)
 633 03ac 83C70700 		lbu	a5,0(a5)
 634              	.LBE207:
 635              	.LBE206:
  67:src/stdio.cpp ****         if(input_ready())
 636              		.loc 1 67 9
 637 03b0 93F71700 		andi	a5,a5,1
 638 03b4 6382070A 		beq	a5,zero,.L16
 639              	.LBB208:
  69:src/stdio.cpp ****             char c = *idata;
 640              		.loc 1 69 13 is_stmt 1
  69:src/stdio.cpp ****             char c = *idata;
 641              		.loc 1 69 22 is_stmt 0
 642 03b8 97070000 		lla	a5,_ZN5StdIO5idataE
 642      93870700 
 643 03c0 83B70700 		ld	a5,0(a5)
  69:src/stdio.cpp ****             char c = *idata;
 644              		.loc 1 69 18
 645 03c4 03C90700 		lbu	s2,0(a5)
 646              	.LVL58:
  70:src/stdio.cpp ****             plic_complete(CONSOLE_IRQ);
 647              		.loc 1 70 13 is_stmt 1
  70:src/stdio.cpp ****             plic_complete(CONSOLE_IRQ);
 648              		.loc 1 70 26 is_stmt 0
 649 03c8 1305A000 		li	a0,10
 650              	.LVL59:
 651 03cc 97000000 		call	plic_complete
 651      E7800000 
 652              	.LVL60:
  72:src/stdio.cpp ****             if(ibuffer->tmpLen < SharedBuffer<char>::BUFFER_SIZE){
 653              		.loc 1 72 13 is_stmt 1
  72:src/stdio.cpp ****             if(ibuffer->tmpLen < SharedBuffer<char>::BUFFER_SIZE){
 654              		.loc 1 72 25 is_stmt 0
 655 03d4 97070000 		lla	a5,_ZN5StdIO7ibufferE
 655      93870700 
 656 03dc 83B40700 		ld	s1,0(a5)
 657 03e0 03A70448 		lw	a4,1152(s1)
  72:src/stdio.cpp ****             if(ibuffer->tmpLen < SharedBuffer<char>::BUFFER_SIZE){
 658              		.loc 1 72 13
 659 03e4 9307F03F 		li	a5,1023
 660 03e8 63CEE70C 		bgt	a4,a5,.L14
  73:src/stdio.cpp ****                 ibuffer->put(c); 
 661              		.loc 1 73 17 is_stmt 1
 662              	.LVL61:
GAS LISTING /tmp/ccO06hI1.s 			page 22


 663              	.LBB209:
 664              	.LBB210:
  22:src/../h/../h/shared_buffer.hpp ****         mutex.wait();
 665              		.loc 4 22 28 is_stmt 0
 666 03ec 13850445 		addi	a0,s1,1104
 667 03f0 97000000 		call	_ZN10KSemaphore4waitEv
 667      E7800000 
 668              	.LVL62:
  23:src/../h/../h/shared_buffer.hpp **** 
 669              		.loc 4 23 19
 670 03f8 93890440 		addi	s3,s1,1024
 671 03fc 13850900 		mv	a0,s3
 672 0400 97000000 		call	_ZN10KSemaphore4waitEv
 672      E7800000 
 673              	.LVL63:
  25:src/../h/../h/shared_buffer.hpp ****         buffer[tail]=c;
 674              		.loc 4 25 9
 675 0408 83A70448 		lw	a5,1152(s1)
 676 040c 9B871700 		addiw	a5,a5,1
 677 0410 23A0F448 		sw	a5,1152(s1)
  26:src/../h/../h/shared_buffer.hpp ****         tail=(tail+1)%BUFFER_SIZE;
 678              		.loc 4 26 16
 679 0414 83A7C447 		lw	a5,1148(s1)
  26:src/../h/../h/shared_buffer.hpp ****         tail=(tail+1)%BUFFER_SIZE;
 680              		.loc 4 26 9
 681 0418 3387F400 		add	a4,s1,a5
 682 041c 23002701 		sb	s2,0(a4)
  27:src/../h/../h/shared_buffer.hpp ****     
 683              		.loc 4 27 19
 684 0420 9B871700 		addiw	a5,a5,1
  27:src/../h/../h/shared_buffer.hpp ****     
 685              		.loc 4 27 22
 686 0424 1BD7F741 		sraiw	a4,a5,31
 687 0428 1B576701 		srliw	a4,a4,22
 688 042c BB87E700 		addw	a5,a5,a4
 689 0430 93F7F73F 		andi	a5,a5,1023
 690 0434 BB87E740 		subw	a5,a5,a4
  27:src/../h/../h/shared_buffer.hpp ****     
 691              		.loc 4 27 9
 692 0438 23AEF446 		sw	a5,1148(s1)
  29:src/../h/../h/shared_buffer.hpp ****         mutex.signal();
 693              		.loc 4 29 29
 694 043c 13858442 		addi	a0,s1,1064
 695 0440 97000000 		call	_ZN10KSemaphore6signalEv
 695      E7800000 
 696              	.LVL64:
  30:src/../h/../h/shared_buffer.hpp ****     }
 697              		.loc 4 30 21
 698 0448 13850900 		mv	a0,s3
 699 044c 97000000 		call	_ZN10KSemaphore6signalEv
 699      E7800000 
 700              	.LVL65:
 701 0454 6F000007 		j	.L14
 702              	.LVL66:
 703              	.L16:
 704              	.LBE210:
 705              	.LBE209:
GAS LISTING /tmp/ccO06hI1.s 			page 23


 706              	.LBE208:
 707              	.LBB211:
  79:src/stdio.cpp ****             plic_complete(CONSOLE_IRQ);
 708              		.loc 1 79 13 is_stmt 1
  79:src/stdio.cpp ****             plic_complete(CONSOLE_IRQ);
 709              		.loc 1 79 26 is_stmt 0
 710 0458 1305A000 		li	a0,10
 711              	.LVL67:
 712 045c 97000000 		call	plic_complete
 712      E7800000 
 713              	.LVL68:
  80:src/stdio.cpp ****             if(out_thread != nullptr)
 714              		.loc 1 80 13 is_stmt 1
 715              	.LBB212:
  80:src/stdio.cpp ****             if(out_thread != nullptr)
 716              		.loc 1 80 27 is_stmt 0
 717 0464 97070000 		lla	a5,_ZN5StdIO10out_threadE
 717      93870700 
 718 046c 83B70700 		ld	a5,0(a5)
  80:src/stdio.cpp ****             if(out_thread != nullptr)
 719              		.loc 1 80 13
 720 0470 638A0704 		beq	a5,zero,.L14
 721              	.LBB213:
  82:src/stdio.cpp ****                 uint64 sstatus = Riscv::r_sstatus(), sepc = Riscv::r_sepc();
 722              		.loc 1 82 17 is_stmt 1
 723              	.LBB214:
 724              	.LBB215:
 168:src/../h/riscv.hpp ****     asm volatile("csrr %0, sstatus" : "=r" (sstatus));
 725              		.loc 2 168 5
 169:src/../h/riscv.hpp ****     return sstatus;
 726              		.loc 2 169 5
 169:src/../h/riscv.hpp ****     return sstatus;
 727              		.loc 2 169 54 is_stmt 0
 728              	 #APP
 729              	# 169 "src/../h/riscv.hpp" 1
 730              		csrr a5, sstatus
 731              	# 0 "" 2
 732              	 #NO_APP
 733 0478 2334F4FC 		sd	a5,-56(s0)
 734              		.loc 2 170 5 is_stmt 1
 735              		.loc 2 170 12 is_stmt 0
 736 047c 033984FC 		ld	s2,-56(s0)
 737              	.LVL69:
 738              	.LBE215:
 739              	.LBE214:
 740              	.LBB216:
 741              	.LBB217:
 112:src/../h/riscv.hpp ****     asm volatile("csrr %0, sepc" : "=r" (sepc));
 742              		.loc 2 112 5 is_stmt 1
 113:src/../h/riscv.hpp ****     return sepc;
 743              		.loc 2 113 5
 113:src/../h/riscv.hpp ****     return sepc;
 744              		.loc 2 113 48 is_stmt 0
 745              	 #APP
 746              	# 113 "src/../h/riscv.hpp" 1
 747              		csrr a5, sepc
 748              	# 0 "" 2
GAS LISTING /tmp/ccO06hI1.s 			page 24


 749              	 #NO_APP
 750 0484 2330F4FC 		sd	a5,-64(s0)
 114:src/../h/riscv.hpp **** } 
 751              		.loc 2 114 5 is_stmt 1
 114:src/../h/riscv.hpp **** } 
 752              		.loc 2 114 12 is_stmt 0
 753 0488 833404FC 		ld	s1,-64(s0)
 754              	.LVL70:
 755              	.LBE217:
 756              	.LBE216:
  83:src/stdio.cpp ****                 Scheduler::put_front(out_thread);
 757              		.loc 1 83 17 is_stmt 1
 758              	.LBB218:
 759              	.LBB219:
 760              		.file 10 "src/../h/scheduler.hpp"
   1:src/../h/scheduler.hpp **** #ifndef _scheduler_
   2:src/../h/scheduler.hpp **** #define _scheduler_
   3:src/../h/scheduler.hpp **** 
   4:src/../h/scheduler.hpp **** #include"../lib/hw.h"
   5:src/../h/scheduler.hpp **** #include"../h/ptr_queue.hpp"
   6:src/../h/scheduler.hpp **** 
   7:src/../h/scheduler.hpp **** class Scheduler
   8:src/../h/scheduler.hpp **** {
   9:src/../h/scheduler.hpp **** public:  
  10:src/../h/scheduler.hpp ****     static void initalize();
  11:src/../h/scheduler.hpp ****     static TCB* get();
  12:src/../h/scheduler.hpp ****     static void put(TCB*);
  13:src/../h/scheduler.hpp ****     static void finalize();
  14:src/../h/scheduler.hpp ****     static void put_sleeper(TCB*, time_t);
  15:src/../h/scheduler.hpp ****     static void update_sleep();
  16:src/../h/scheduler.hpp ****     static void put_front(TCB* t) { queue.insertFront(t); }
 761              		.loc 10 16 37
 762              		.loc 10 16 54 is_stmt 0
 763 048c 97070000 		lla	a5,_ZN5StdIO10out_threadE
 763      93870700 
 764 0494 83B50700 		ld	a1,0(a5)
 765 0498 17050000 		lla	a0,_ZN9Scheduler5queueE
 765      13050500 
 766 04a0 97000000 		call	_ZN8TcbQueue11insertFrontEP3TCB
 766      E7800000 
 767              	.LVL71:
 768              	.LBE219:
 769              	.LBE218:
  85:src/stdio.cpp ****                 TCB::yield();
 770              		.loc 1 85 17 is_stmt 1
  85:src/stdio.cpp ****                 TCB::yield();
 771              		.loc 1 85 27 is_stmt 0
 772 04a8 97000000 		call	_ZN3TCB5yieldEv
 772      E7800000 
 773              	.LVL72:
  87:src/stdio.cpp ****                 Riscv::w_sstatus(sstatus);
 774              		.loc 1 87 17 is_stmt 1
 775              	.LBB220:
 776              	.LBB221:
 164:src/../h/riscv.hpp **** }
 777              		.loc 2 164 5
 164:src/../h/riscv.hpp **** }
GAS LISTING /tmp/ccO06hI1.s 			page 25


 778              		.loc 2 164 55 is_stmt 0
 779              	 #APP
 780              	# 164 "src/../h/riscv.hpp" 1
 781              		csrw sstatus, s2
 782              	# 0 "" 2
 783              	.LVL73:
 784              	 #NO_APP
 785              	.LBE221:
 786              	.LBE220:
  88:src/stdio.cpp ****                 Riscv::w_sepc(sepc);
 787              		.loc 1 88 17 is_stmt 1
 788              	.LBB222:
 789              	.LBB223:
 108:src/../h/riscv.hpp **** }
 790              		.loc 2 108 5
 108:src/../h/riscv.hpp **** }
 791              		.loc 2 108 49 is_stmt 0
 792              	 #APP
 793              	# 108 "src/../h/riscv.hpp" 1
 794              		csrw sepc, s1
 795              	# 0 "" 2
 796              	 #NO_APP
 797 04b8 6F00C000 		j	.L14
 798              	.LVL74:
 799              	.L15:
 800              	.LBE223:
 801              	.LBE222:
 802              	.LBE213:
 803              	.LBE212:
 804              	.LBE211:
 805              	.LBE205:
  94:src/stdio.cpp ****         plic_complete(t);
 806              		.loc 1 94 9 is_stmt 1
  94:src/stdio.cpp ****         plic_complete(t);
 807              		.loc 1 94 22 is_stmt 0
 808 04bc 97000000 		call	plic_complete
 808      E7800000 
 809              	.LVL75:
 810              	.L14:
 811              	.LBE224:
 812              		.loc 1 96 1
 813 04c4 83308103 		ld	ra,56(sp)
 814              		.cfi_restore 1
 815 04c8 03340103 		ld	s0,48(sp)
 816              		.cfi_restore 8
 817              		.cfi_def_cfa 2, 64
 818 04cc 83348102 		ld	s1,40(sp)
 819              		.cfi_restore 9
 820 04d0 03390102 		ld	s2,32(sp)
 821              		.cfi_restore 18
 822 04d4 83398101 		ld	s3,24(sp)
 823              		.cfi_restore 19
 824 04d8 13010104 		addi	sp,sp,64
 825              		.cfi_def_cfa_offset 0
 826 04dc 67800000 		jr	ra
 827              		.cfi_endproc
 828              	.LFE74:
GAS LISTING /tmp/ccO06hI1.s 			page 26


 830              		.align	2
 832              	_GLOBAL__sub_I__ZN5StdIO8iostatusE:
 833              	.LFB83:
 834              		.loc 1 96 1 is_stmt 1
 835              		.cfi_startproc
 836 04e0 130101FF 		addi	sp,sp,-16
 837              		.cfi_def_cfa_offset 16
 838 04e4 23341100 		sd	ra,8(sp)
 839 04e8 23308100 		sd	s0,0(sp)
 840              		.cfi_offset 1, -8
 841              		.cfi_offset 8, -16
 842 04ec 13040101 		addi	s0,sp,16
 843              		.cfi_def_cfa 8, 0
 844              		.loc 1 96 1 is_stmt 0
 845 04f0 B7050100 		li	a1,65536
 846 04f4 9385F5FF 		addi	a1,a1,-1
 847 04f8 13051000 		li	a0,1
 848 04fc 97000000 		call	_Z41__static_initialization_and_destruction_0ii
 848      E7800000 
 849              	.LVL76:
 850 0504 83308100 		ld	ra,8(sp)
 851              		.cfi_restore 1
 852 0508 03340100 		ld	s0,0(sp)
 853              		.cfi_restore 8
 854              		.cfi_def_cfa 2, 16
 855 050c 13010101 		addi	sp,sp,16
 856              		.cfi_def_cfa_offset 0
 857 0510 67800000 		jr	ra
 858              		.cfi_endproc
 859              	.LFE83:
 861              		.section	.init_array,"aw"
 862              		.align	3
 863 0000 00000000 		.dword	_GLOBAL__sub_I__ZN5StdIO8iostatusE
 863      00000000 
 864              		.globl	_ZN5StdIO10out_threadE
 865              		.globl	_ZN5StdIO8blockSemE
 866              		.globl	_ZN5StdIO7obufferE
 867              		.globl	_ZN5StdIO7ibufferE
 868              		.globl	_ZN5StdIO5odataE
 869              		.globl	_ZN5StdIO5idataE
 870              		.globl	_ZN5StdIO8iostatusE
 871              		.section	.sbss,"aw",@nobits
 872              		.align	3
 875              	_ZN5StdIO10out_threadE:
 876 0000 00000000 		.zero	8
 876      00000000 
 879              	_ZN5StdIO8blockSemE:
 880 0008 00000000 		.zero	8
 880      00000000 
 883              	_ZN5StdIO7obufferE:
 884 0010 00000000 		.zero	8
 884      00000000 
 887              	_ZN5StdIO7ibufferE:
 888 0018 00000000 		.zero	8
 888      00000000 
 891              	_ZN5StdIO5odataE:
 892 0020 00000000 		.zero	8
GAS LISTING /tmp/ccO06hI1.s 			page 27


 892      00000000 
 895              	_ZN5StdIO5idataE:
 896 0028 00000000 		.zero	8
 896      00000000 
 899              	_ZN5StdIO8iostatusE:
 900 0030 00000000 		.zero	8
 900      00000000 
 901              		.text
 902              	.Letext0:
 903              		.file 11 "src/../h/../h/../h/../h/../lib/hw.h"
 904              		.file 12 "src/../h/../h/../h/../h/../h/memory_allocator.hpp"
 905              		.file 13 "src/../h/../h/../h/../h/../h/kernel_operators.hpp"
 906              		.file 14 "src/../h/../h/kernel_operators.hpp"
GAS LISTING /tmp/ccO06hI1.s 			page 28


DEFINED SYMBOLS
                            *ABS*:0000000000000000 stdio.cpp
     /tmp/ccO06hI1.s:11     .text:0000000000000000 _Z41__static_initialization_and_destruction_0ii
     /tmp/ccO06hI1.s:15     .text:0000000000000000 .L0 
     /tmp/ccO06hI1.s:17     .text:0000000000000000 .L0 
     /tmp/ccO06hI1.s:18     .text:0000000000000004 .L0 
     /tmp/ccO06hI1.s:20     .text:0000000000000008 .L0 
     /tmp/ccO06hI1.s:22     .text:000000000000000c .L0 
     /tmp/ccO06hI1.s:24     .text:000000000000000c .L0 
     /tmp/ccO06hI1.s:28     .text:0000000000000018 .L0 
     /tmp/ccO06hI1.s:29     .text:0000000000000018 .L0 
     /tmp/ccO06hI1.s:30     .text:0000000000000018 .L0 
     /tmp/ccO06hI1.s:32     .text:000000000000001c .L0 
     /tmp/ccO06hI1.s:35     .text:0000000000000020 .L0 
     /tmp/ccO06hI1.s:37     .text:0000000000000020 .L0 
     /tmp/ccO06hI1.s:41     .text:000000000000002c .L0 
     /tmp/ccO06hI1.s:899    .sbss:0000000000000030 _ZN5StdIO8iostatusE
     /tmp/ccO06hI1.s:45     .text:0000000000000040 .L0 
     /tmp/ccO06hI1.s:895    .sbss:0000000000000028 _ZN5StdIO5idataE
     /tmp/ccO06hI1.s:49     .text:0000000000000054 .L0 
     /tmp/ccO06hI1.s:891    .sbss:0000000000000020 _ZN5StdIO5odataE
     /tmp/ccO06hI1.s:53     .text:0000000000000068 .L0 
     /tmp/ccO06hI1.s:54     .text:000000000000006c .L0 
     /tmp/ccO06hI1.s:60     .text:000000000000006c _ZN5StdIO12outputWorkerEPv
     /tmp/ccO06hI1.s:63     .text:000000000000006c .L0 
     /tmp/ccO06hI1.s:64     .text:000000000000006c .L0 
     /tmp/ccO06hI1.s:65     .text:0000000000000070 .L0 
     /tmp/ccO06hI1.s:72     .text:0000000000000088 .L0 
     /tmp/ccO06hI1.s:73     .text:0000000000000088 .L0 
     /tmp/ccO06hI1.s:74     .text:0000000000000088 .L0 
     /tmp/ccO06hI1.s:75     .text:0000000000000088 .L0 
     /tmp/ccO06hI1.s:76     .text:0000000000000088 .L0 
     /tmp/ccO06hI1.s:77     .text:0000000000000088 .L0 
     /tmp/ccO06hI1.s:79     .text:000000000000008c .L0 
     /tmp/ccO06hI1.s:81     .text:000000000000008c .L0 
     /tmp/ccO06hI1.s:875    .sbss:0000000000000000 _ZN5StdIO10out_threadE
     /tmp/ccO06hI1.s:82     .text:000000000000008c .L0 
     /tmp/ccO06hI1.s:91     .text:0000000000000098 .L0 
     /tmp/ccO06hI1.s:92     .text:0000000000000098 .L0 
     /tmp/ccO06hI1.s:93     .text:0000000000000098 .L0 
  src/../h/riscv.hpp:169    .text:0000000000000098 .L0 
     /tmp/ccO06hI1.s:101    .text:00000000000000a0 .L0 
     /tmp/ccO06hI1.s:102    .text:00000000000000a0 .L0 
     /tmp/ccO06hI1.s:109    .text:00000000000000a4 .L0 
     /tmp/ccO06hI1.s:110    .text:00000000000000a4 .L0 
  src/../h/riscv.hpp:113    .text:00000000000000a4 .L0 
     /tmp/ccO06hI1.s:118    .text:00000000000000ac .L0 
     /tmp/ccO06hI1.s:119    .text:00000000000000ac .L0 
     /tmp/ccO06hI1.s:124    .text:00000000000000b0 .L0 
     /tmp/ccO06hI1.s:125    .text:00000000000000b0 .L0 
     /tmp/ccO06hI1.s:129    .text:00000000000000c4 .L0 
     /tmp/ccO06hI1.s:130    .text:00000000000000c4 .L0 
     /tmp/ccO06hI1.s:135    .text:00000000000000cc .L0 
     /tmp/ccO06hI1.s:136    .text:00000000000000cc .L0 
  src/../h/riscv.hpp:164    .text:00000000000000cc .L0 
     /tmp/ccO06hI1.s:148    .text:00000000000000d0 .L0 
     /tmp/ccO06hI1.s:149    .text:00000000000000d0 .L0 
GAS LISTING /tmp/ccO06hI1.s 			page 29


  src/../h/riscv.hpp:108    .text:00000000000000d0 .L0 
     /tmp/ccO06hI1.s:162    .text:00000000000000d4 .L0 
     /tmp/ccO06hI1.s:167    .text:00000000000000d4 .L0 
     /tmp/ccO06hI1.s:168    .text:00000000000000d4 .L0 
     /tmp/ccO06hI1.s:169    .text:00000000000000d4 .L0 
     /tmp/ccO06hI1.s:175    .text:00000000000000e4 .L0 
     /tmp/ccO06hI1.s:178    .text:00000000000000ec .L0 
     /tmp/ccO06hI1.s:883    .sbss:0000000000000010 _ZN5StdIO7obufferE
     /tmp/ccO06hI1.s:179    .text:00000000000000ec .L0 
     /tmp/ccO06hI1.s:182    .text:00000000000000f8 .L0 
     /tmp/ccO06hI1.s:189    .text:0000000000000104 .L0 
     /tmp/ccO06hI1.s:193    .text:0000000000000110 .L0 
     /tmp/ccO06hI1.s:198    .text:0000000000000120 .L0 
     /tmp/ccO06hI1.s:202    .text:000000000000012c .L0 
     /tmp/ccO06hI1.s:204    .text:0000000000000130 .L0 
     /tmp/ccO06hI1.s:208    .text:0000000000000138 .L0 
     /tmp/ccO06hI1.s:210    .text:000000000000013c .L0 
     /tmp/ccO06hI1.s:216    .text:0000000000000150 .L0 
     /tmp/ccO06hI1.s:218    .text:0000000000000154 .L0 
     /tmp/ccO06hI1.s:222    .text:0000000000000160 .L0 
     /tmp/ccO06hI1.s:228    .text:000000000000016c .L0 
     /tmp/ccO06hI1.s:231    .text:0000000000000174 .L0 
     /tmp/ccO06hI1.s:237    .text:0000000000000174 _ZN5StdIO9initalizeEv
     /tmp/ccO06hI1.s:240    .text:0000000000000174 .L0 
     /tmp/ccO06hI1.s:241    .text:0000000000000174 .L0 
     /tmp/ccO06hI1.s:242    .text:0000000000000178 .L0 
     /tmp/ccO06hI1.s:248    .text:000000000000018c .L0 
     /tmp/ccO06hI1.s:249    .text:000000000000018c .L0 
     /tmp/ccO06hI1.s:250    .text:000000000000018c .L0 
     /tmp/ccO06hI1.s:251    .text:000000000000018c .L0 
     /tmp/ccO06hI1.s:252    .text:000000000000018c .L0 
     /tmp/ccO06hI1.s:254    .text:0000000000000190 .L0 
     /tmp/ccO06hI1.s:260    .text:0000000000000190 .L0 
     /tmp/ccO06hI1.s:261    .text:0000000000000190 .L0 
     /tmp/ccO06hI1.s:264    .text:0000000000000198 .L0 
     /tmp/ccO06hI1.s:272    .text:00000000000001a4 .L0 
     /tmp/ccO06hI1.s:278    .text:00000000000001a8 .L0 
     /tmp/ccO06hI1.s:285    .text:00000000000001b0 .L0 
     /tmp/ccO06hI1.s:292    .text:00000000000001bc .L0 
     /tmp/ccO06hI1.s:293    .text:00000000000001bc .L0 
     /tmp/ccO06hI1.s:300    .text:00000000000001cc .L0 
     /tmp/ccO06hI1.s:301    .text:00000000000001cc .L0 
     /tmp/ccO06hI1.s:306    .text:00000000000001d0 .L0 
     /tmp/ccO06hI1.s:311    .text:00000000000001d4 .L0 
     /tmp/ccO06hI1.s:318    .text:00000000000001e0 .L0 
     /tmp/ccO06hI1.s:319    .text:00000000000001e0 .L0 
     /tmp/ccO06hI1.s:324    .text:00000000000001e4 .L0 
     /tmp/ccO06hI1.s:325    .text:00000000000001e4 .L0 
     /tmp/ccO06hI1.s:330    .text:00000000000001e8 .L0 
     /tmp/ccO06hI1.s:336    .text:00000000000001f0 .L0 
     /tmp/ccO06hI1.s:343    .text:00000000000001fc .L0 
     /tmp/ccO06hI1.s:344    .text:00000000000001fc .L0 
     /tmp/ccO06hI1.s:346    .text:0000000000000200 .L0 
     /tmp/ccO06hI1.s:347    .text:0000000000000200 .L0 
     /tmp/ccO06hI1.s:352    .text:0000000000000204 .L0 
     /tmp/ccO06hI1.s:887    .sbss:0000000000000018 _ZN5StdIO7ibufferE
     /tmp/ccO06hI1.s:359    .text:0000000000000210 .L0 
GAS LISTING /tmp/ccO06hI1.s 			page 30


     /tmp/ccO06hI1.s:364    .text:0000000000000218 .L0 
     /tmp/ccO06hI1.s:365    .text:0000000000000218 .L0 
     /tmp/ccO06hI1.s:368    .text:0000000000000220 .L0 
     /tmp/ccO06hI1.s:376    .text:000000000000022c .L0 
     /tmp/ccO06hI1.s:381    .text:0000000000000230 .L0 
     /tmp/ccO06hI1.s:386    .text:0000000000000234 .L0 
     /tmp/ccO06hI1.s:393    .text:0000000000000240 .L0 
     /tmp/ccO06hI1.s:394    .text:0000000000000240 .L0 
     /tmp/ccO06hI1.s:400    .text:0000000000000248 .L0 
     /tmp/ccO06hI1.s:401    .text:0000000000000248 .L0 
     /tmp/ccO06hI1.s:406    .text:000000000000024c .L0 
     /tmp/ccO06hI1.s:411    .text:0000000000000250 .L0 
     /tmp/ccO06hI1.s:418    .text:000000000000025c .L0 
     /tmp/ccO06hI1.s:419    .text:000000000000025c .L0 
     /tmp/ccO06hI1.s:424    .text:0000000000000260 .L0 
     /tmp/ccO06hI1.s:425    .text:0000000000000260 .L0 
     /tmp/ccO06hI1.s:430    .text:0000000000000264 .L0 
     /tmp/ccO06hI1.s:435    .text:0000000000000268 .L0 
     /tmp/ccO06hI1.s:442    .text:0000000000000274 .L0 
     /tmp/ccO06hI1.s:443    .text:0000000000000274 .L0 
     /tmp/ccO06hI1.s:445    .text:0000000000000278 .L0 
     /tmp/ccO06hI1.s:446    .text:0000000000000278 .L0 
     /tmp/ccO06hI1.s:451    .text:000000000000027c .L0 
     /tmp/ccO06hI1.s:458    .text:0000000000000288 .L0 
     /tmp/ccO06hI1.s:464    .text:0000000000000290 .L0 
     /tmp/ccO06hI1.s:465    .text:0000000000000290 .L0 
     /tmp/ccO06hI1.s:466    .text:0000000000000290 .L0 
     /tmp/ccO06hI1.s:469    .text:0000000000000298 .L0 
     /tmp/ccO06hI1.s:477    .text:00000000000002a4 .L0 
     /tmp/ccO06hI1.s:482    .text:00000000000002a8 .L0 
     /tmp/ccO06hI1.s:489    .text:00000000000002b4 .L0 
     /tmp/ccO06hI1.s:490    .text:00000000000002b4 .L0 
     /tmp/ccO06hI1.s:493    .text:00000000000002bc .L0 
     /tmp/ccO06hI1.s:494    .text:00000000000002bc .L0 
     /tmp/ccO06hI1.s:879    .sbss:0000000000000008 _ZN5StdIO8blockSemE
     /tmp/ccO06hI1.s:499    .text:00000000000002c0 .L0 
     /tmp/ccO06hI1.s:501    .text:00000000000002c8 .L0 
     /tmp/ccO06hI1.s:502    .text:00000000000002c8 .L0 
     /tmp/ccO06hI1.s:506    .text:00000000000002dc .L0 
     /tmp/ccO06hI1.s:507    .text:00000000000002dc .L0 
     /tmp/ccO06hI1.s:511    .text:00000000000002f0 .L0 
     /tmp/ccO06hI1.s:512    .text:00000000000002f0 .L0 
     /tmp/ccO06hI1.s:516    .text:0000000000000304 .L0 
     /tmp/ccO06hI1.s:517    .text:0000000000000304 .L0 
     /tmp/ccO06hI1.s:520    .text:000000000000030c .L0 
     /tmp/ccO06hI1.s:524    .text:0000000000000318 .L0 
     /tmp/ccO06hI1.s:525    .text:0000000000000318 .L0 
     /tmp/ccO06hI1.s:532    .text:0000000000000330 .L0 
     /tmp/ccO06hI1.s:538    .text:0000000000000338 .L0 
     /tmp/ccO06hI1.s:539    .text:0000000000000338 .L0 
     /tmp/ccO06hI1.s:540    .text:0000000000000338 .L0 
     /tmp/ccO06hI1.s:547    .text:000000000000033c .L0 
     /tmp/ccO06hI1.s:548    .text:000000000000033c .L0 
     /tmp/ccO06hI1.s:549    .text:000000000000033c .L0 
     /tmp/ccO06hI1.s:554    .text:0000000000000340 .L0 
     /tmp/ccO06hI1.s:555    .text:0000000000000344 .L0 
     /tmp/ccO06hI1.s:557    .text:0000000000000348 .L0 
GAS LISTING /tmp/ccO06hI1.s 			page 31


     /tmp/ccO06hI1.s:558    .text:0000000000000348 .L0 
     /tmp/ccO06hI1.s:560    .text:000000000000034c .L0 
     /tmp/ccO06hI1.s:562    .text:0000000000000350 .L0 
     /tmp/ccO06hI1.s:564    .text:0000000000000354 .L0 
     /tmp/ccO06hI1.s:566    .text:0000000000000358 .L0 
     /tmp/ccO06hI1.s:568    .text:000000000000035c .L0 
     /tmp/ccO06hI1.s:574    .text:000000000000035c _ZN5StdIO11inputWorkerEv
     /tmp/ccO06hI1.s:577    .text:000000000000035c .L0 
     /tmp/ccO06hI1.s:578    .text:000000000000035c .L0 
     /tmp/ccO06hI1.s:579    .text:0000000000000360 .L0 
     /tmp/ccO06hI1.s:581    .text:0000000000000364 .L0 
     /tmp/ccO06hI1.s:583    .text:0000000000000368 .L0 
     /tmp/ccO06hI1.s:585    .text:0000000000000368 .L0 
     /tmp/ccO06hI1.s:586    .text:000000000000036c .L0 
     /tmp/ccO06hI1.s:587    .text:000000000000036c .L0 
     /tmp/ccO06hI1.s:589    .text:0000000000000370 .L0 
     /tmp/ccO06hI1.s:591    .text:0000000000000374 .L0 
     /tmp/ccO06hI1.s:597    .text:0000000000000374 _ZN5StdIO15console_handlerEv
     /tmp/ccO06hI1.s:600    .text:0000000000000374 .L0 
     /tmp/ccO06hI1.s:601    .text:0000000000000374 .L0 
     /tmp/ccO06hI1.s:602    .text:0000000000000378 .L0 
     /tmp/ccO06hI1.s:608    .text:000000000000038c .L0 
     /tmp/ccO06hI1.s:609    .text:000000000000038c .L0 
     /tmp/ccO06hI1.s:610    .text:000000000000038c .L0 
     /tmp/ccO06hI1.s:611    .text:000000000000038c .L0 
     /tmp/ccO06hI1.s:612    .text:000000000000038c .L0 
     /tmp/ccO06hI1.s:614    .text:0000000000000390 .L0 
     /tmp/ccO06hI1.s:616    .text:0000000000000390 .L0 
     /tmp/ccO06hI1.s:617    .text:0000000000000390 .L0 
     /tmp/ccO06hI1.s:621    .text:0000000000000398 .L0 
     /tmp/ccO06hI1.s:629    .text:00000000000003a0 .L0 
     /tmp/ccO06hI1.s:630    .text:00000000000003a0 .L0 
     /tmp/ccO06hI1.s:631    .text:00000000000003a0 .L0 
     /tmp/ccO06hI1.s:637    .text:00000000000003b0 .L0 
     /tmp/ccO06hI1.s:641    .text:00000000000003b8 .L0 
     /tmp/ccO06hI1.s:642    .text:00000000000003b8 .L0 
     /tmp/ccO06hI1.s:645    .text:00000000000003c4 .L0 
     /tmp/ccO06hI1.s:648    .text:00000000000003c8 .L0 
     /tmp/ccO06hI1.s:649    .text:00000000000003c8 .L0 
     /tmp/ccO06hI1.s:654    .text:00000000000003d4 .L0 
     /tmp/ccO06hI1.s:655    .text:00000000000003d4 .L0 
     /tmp/ccO06hI1.s:659    .text:00000000000003e4 .L0 
     /tmp/ccO06hI1.s:665    .text:00000000000003ec .L0 
     /tmp/ccO06hI1.s:666    .text:00000000000003ec .L0 
     /tmp/ccO06hI1.s:670    .text:00000000000003f8 .L0 
     /tmp/ccO06hI1.s:675    .text:0000000000000408 .L0 
     /tmp/ccO06hI1.s:679    .text:0000000000000414 .L0 
     /tmp/ccO06hI1.s:681    .text:0000000000000418 .L0 
     /tmp/ccO06hI1.s:684    .text:0000000000000420 .L0 
     /tmp/ccO06hI1.s:686    .text:0000000000000424 .L0 
     /tmp/ccO06hI1.s:692    .text:0000000000000438 .L0 
     /tmp/ccO06hI1.s:694    .text:000000000000043c .L0 
     /tmp/ccO06hI1.s:698    .text:0000000000000448 .L0 
     /tmp/ccO06hI1.s:709    .text:0000000000000458 .L0 
     /tmp/ccO06hI1.s:710    .text:0000000000000458 .L0 
     /tmp/ccO06hI1.s:716    .text:0000000000000464 .L0 
     /tmp/ccO06hI1.s:717    .text:0000000000000464 .L0 
GAS LISTING /tmp/ccO06hI1.s 			page 32


     /tmp/ccO06hI1.s:720    .text:0000000000000470 .L0 
     /tmp/ccO06hI1.s:725    .text:0000000000000474 .L0 
     /tmp/ccO06hI1.s:726    .text:0000000000000474 .L0 
     /tmp/ccO06hI1.s:727    .text:0000000000000474 .L0 
  src/../h/riscv.hpp:169    .text:0000000000000474 .L0 
     /tmp/ccO06hI1.s:735    .text:000000000000047c .L0 
     /tmp/ccO06hI1.s:736    .text:000000000000047c .L0 
     /tmp/ccO06hI1.s:743    .text:0000000000000480 .L0 
     /tmp/ccO06hI1.s:744    .text:0000000000000480 .L0 
  src/../h/riscv.hpp:113    .text:0000000000000480 .L0 
     /tmp/ccO06hI1.s:752    .text:0000000000000488 .L0 
     /tmp/ccO06hI1.s:753    .text:0000000000000488 .L0 
     /tmp/ccO06hI1.s:761    .text:000000000000048c .L0 
     /tmp/ccO06hI1.s:762    .text:000000000000048c .L0 
     /tmp/ccO06hI1.s:763    .text:000000000000048c .L0 
     /tmp/ccO06hI1.s:771    .text:00000000000004a8 .L0 
     /tmp/ccO06hI1.s:772    .text:00000000000004a8 .L0 
     /tmp/ccO06hI1.s:777    .text:00000000000004b0 .L0 
     /tmp/ccO06hI1.s:778    .text:00000000000004b0 .L0 
  src/../h/riscv.hpp:164    .text:00000000000004b0 .L0 
     /tmp/ccO06hI1.s:790    .text:00000000000004b4 .L0 
     /tmp/ccO06hI1.s:791    .text:00000000000004b4 .L0 
  src/../h/riscv.hpp:108    .text:00000000000004b4 .L0 
     /tmp/ccO06hI1.s:807    .text:00000000000004bc .L0 
     /tmp/ccO06hI1.s:808    .text:00000000000004bc .L0 
     /tmp/ccO06hI1.s:813    .text:00000000000004c4 .L0 
     /tmp/ccO06hI1.s:814    .text:00000000000004c8 .L0 
     /tmp/ccO06hI1.s:816    .text:00000000000004cc .L0 
     /tmp/ccO06hI1.s:817    .text:00000000000004cc .L0 
     /tmp/ccO06hI1.s:819    .text:00000000000004d0 .L0 
     /tmp/ccO06hI1.s:821    .text:00000000000004d4 .L0 
     /tmp/ccO06hI1.s:823    .text:00000000000004d8 .L0 
     /tmp/ccO06hI1.s:825    .text:00000000000004dc .L0 
     /tmp/ccO06hI1.s:827    .text:00000000000004e0 .L0 
     /tmp/ccO06hI1.s:832    .text:00000000000004e0 _GLOBAL__sub_I__ZN5StdIO8iostatusE
     /tmp/ccO06hI1.s:835    .text:00000000000004e0 .L0 
     /tmp/ccO06hI1.s:836    .text:00000000000004e0 .L0 
     /tmp/ccO06hI1.s:837    .text:00000000000004e4 .L0 
     /tmp/ccO06hI1.s:840    .text:00000000000004ec .L0 
     /tmp/ccO06hI1.s:841    .text:00000000000004ec .L0 
     /tmp/ccO06hI1.s:843    .text:00000000000004f0 .L0 
     /tmp/ccO06hI1.s:845    .text:00000000000004f0 .L0 
     /tmp/ccO06hI1.s:851    .text:0000000000000508 .L0 
     /tmp/ccO06hI1.s:853    .text:000000000000050c .L0 
     /tmp/ccO06hI1.s:854    .text:000000000000050c .L0 
     /tmp/ccO06hI1.s:856    .text:0000000000000510 .L0 
     /tmp/ccO06hI1.s:858    .text:0000000000000514 .L0 
     /tmp/ccO06hI1.s:907    .text:0000000000000514 .L0 
     /tmp/ccO06hI1.s:41     .text:000000000000002c .L0 
     /tmp/ccO06hI1.s:43     .text:0000000000000038 .L0 
     /tmp/ccO06hI1.s:45     .text:0000000000000040 .L0 
     /tmp/ccO06hI1.s:47     .text:000000000000004c .L0 
     /tmp/ccO06hI1.s:49     .text:0000000000000054 .L0 
     /tmp/ccO06hI1.s:51     .text:0000000000000060 .L0 
     /tmp/ccO06hI1.s:82     .text:000000000000008c .L0 
     /tmp/ccO06hI1.s:125    .text:00000000000000b0 .L0 
     /tmp/ccO06hI1.s:127    .text:00000000000000bc .L0 
GAS LISTING /tmp/ccO06hI1.s 			page 33


     /tmp/ccO06hI1.s:169    .text:00000000000000d4 .L0 
     /tmp/ccO06hI1.s:179    .text:00000000000000ec .L0 
     /tmp/ccO06hI1.s:182    .text:00000000000000f8 .L0 
     /tmp/ccO06hI1.s:293    .text:00000000000001bc .L0 
     /tmp/ccO06hI1.s:359    .text:0000000000000210 .L0 
     /tmp/ccO06hI1.s:458    .text:0000000000000288 .L0 
     /tmp/ccO06hI1.s:499    .text:00000000000002c0 .L0 
     /tmp/ccO06hI1.s:502    .text:00000000000002c8 .L0 
     /tmp/ccO06hI1.s:504    .text:00000000000002d4 .L0 
     /tmp/ccO06hI1.s:507    .text:00000000000002dc .L0 
     /tmp/ccO06hI1.s:509    .text:00000000000002e8 .L0 
     /tmp/ccO06hI1.s:512    .text:00000000000002f0 .L0 
     /tmp/ccO06hI1.s:514    .text:00000000000002fc .L0 
     /tmp/ccO06hI1.s:527    .text:0000000000000320 .L0 
     /tmp/ccO06hI1.s:532    .text:0000000000000330 .L0 
     /tmp/ccO06hI1.s:631    .text:00000000000003a0 .L0 
     /tmp/ccO06hI1.s:642    .text:00000000000003b8 .L0 
     /tmp/ccO06hI1.s:655    .text:00000000000003d4 .L0 
     /tmp/ccO06hI1.s:717    .text:0000000000000464 .L0 
     /tmp/ccO06hI1.s:763    .text:000000000000048c .L0 
     /tmp/ccO06hI1.s:765    .text:0000000000000498 .L0 
     /tmp/ccO06hI1.s:34     .text:0000000000000020 .L4
     /tmp/ccO06hI1.s:26     .text:0000000000000014 .L1
     /tmp/ccO06hI1.s:156    .text:00000000000000d4 .L6
     /tmp/ccO06hI1.s:84     .text:0000000000000098 .L7
     /tmp/ccO06hI1.s:799    .text:00000000000004bc .L15
     /tmp/ccO06hI1.s:703    .text:0000000000000458 .L16
     /tmp/ccO06hI1.s:810    .text:00000000000004c4 .L14
     /tmp/ccO06hI1.s:3915   .debug_abbrev:0000000000000000 .Ldebug_abbrev0
     /tmp/ccO06hI1.s:5994   .debug_str:00000000000006c5 .LASF292
     /tmp/ccO06hI1.s:6354   .debug_str:0000000000001335 .LASF293
     /tmp/ccO06hI1.s:6142   .debug_str:0000000000000c6a .LASF294
     /tmp/ccO06hI1.s:8      .text:0000000000000000 .Ltext0
     /tmp/ccO06hI1.s:902    .text:0000000000000514 .Letext0
     /tmp/ccO06hI1.s:5770   .debug_line:0000000000000000 .Ldebug_line0
     /tmp/ccO06hI1.s:5964   .debug_str:00000000000005ee .LASF0
     /tmp/ccO06hI1.s:6008   .debug_str:00000000000007df .LASF1
     /tmp/ccO06hI1.s:6156   .debug_str:0000000000000cfa .LASF2
     /tmp/ccO06hI1.s:6168   .debug_str:0000000000000d42 .LASF4
     /tmp/ccO06hI1.s:5982   .debug_str:000000000000066d .LASF3
     /tmp/ccO06hI1.s:5794   .debug_str:00000000000000da .LASF5
     /tmp/ccO06hI1.s:6120   .debug_str:0000000000000ba2 .LASF6
     /tmp/ccO06hI1.s:6108   .debug_str:0000000000000b3e .LASF7
     /tmp/ccO06hI1.s:5998   .debug_str:0000000000000791 .LASF8
     /tmp/ccO06hI1.s:5924   .debug_str:0000000000000496 .LASF9
     /tmp/ccO06hI1.s:5938   .debug_str:0000000000000502 .LASF10
     /tmp/ccO06hI1.s:5848   .debug_str:000000000000025d .LASF11
     /tmp/ccO06hI1.s:5910   .debug_str:000000000000044d .LASF12
     /tmp/ccO06hI1.s:5864   .debug_str:00000000000002ac .LASF13
     /tmp/ccO06hI1.s:5846   .debug_str:000000000000024d .LASF14
     /tmp/ccO06hI1.s:6216   .debug_str:0000000000000eb7 .LASF15
     /tmp/ccO06hI1.s:5896   .debug_str:00000000000003bb .LASF16
     /tmp/ccO06hI1.s:6198   .debug_str:0000000000000e1e .LASF17
     /tmp/ccO06hI1.s:5922   .debug_str:000000000000048a .LASF295
     /tmp/ccO06hI1.s:5850   .debug_str:000000000000026c .LASF18
     /tmp/ccO06hI1.s:6006   .debug_str:00000000000007da .LASF19
     /tmp/ccO06hI1.s:6100   .debug_str:0000000000000b07 .LASF23
GAS LISTING /tmp/ccO06hI1.s 			page 34


     /tmp/ccO06hI1.s:5822   .debug_str:00000000000001a2 .LASF20
     /tmp/ccO06hI1.s:6194   .debug_str:0000000000000e01 .LASF21
     /tmp/ccO06hI1.s:6082   .debug_str:0000000000000a92 .LASF22
     /tmp/ccO06hI1.s:6292   .debug_str:000000000000113a .LASF126
     /tmp/ccO06hI1.s:5812   .debug_str:0000000000000151 .LASF25
     /tmp/ccO06hI1.s:6104   .debug_str:0000000000000b1e .LASF24
     /tmp/ccO06hI1.s:6016   .debug_str:0000000000000834 .LASF26
     /tmp/ccO06hI1.s:5978   .debug_str:000000000000064b .LASF27
     /tmp/ccO06hI1.s:6240   .debug_str:0000000000000f8a .LASF28
     /tmp/ccO06hI1.s:5988   .debug_str:0000000000000696 .LASF34
     /tmp/ccO06hI1.s:6316   .debug_str:0000000000001207 .LASF29
     /tmp/ccO06hI1.s:6348   .debug_str:00000000000012fb .LASF31
     /tmp/ccO06hI1.s:6160   .debug_str:0000000000000d0f .LASF30
     /tmp/ccO06hI1.s:6296   .debug_str:000000000000114e .LASF32
     /tmp/ccO06hI1.s:5900   .debug_str:00000000000003ec .LASF33
     /tmp/ccO06hI1.s:5954   .debug_str:0000000000000589 .LASF35
     /tmp/ccO06hI1.s:6340   .debug_str:00000000000012b1 .LASF114
     /tmp/ccO06hI1.s:6054   .debug_str:0000000000000983 .LASF116
     /tmp/ccO06hI1.s:6052   .debug_str:0000000000000979 .LASF36
     /tmp/ccO06hI1.s:5798   .debug_str:00000000000000ec .LASF37
     /tmp/ccO06hI1.s:6224   .debug_str:0000000000000f0b .LASF38
     /tmp/ccO06hI1.s:5906   .debug_str:000000000000041b .LASF39
     /tmp/ccO06hI1.s:6326   .debug_str:0000000000001244 .LASF40
     /tmp/ccO06hI1.s:5878   .debug_str:000000000000032f .LASF41
     /tmp/ccO06hI1.s:5872   .debug_str:0000000000000300 .LASF47
     /tmp/ccO06hI1.s:5828   .debug_str:00000000000001c0 .LASF49
     /tmp/ccO06hI1.s:6036   .debug_str:0000000000000905 .LASF42
     /tmp/ccO06hI1.s:6282   .debug_str:00000000000010ec .LASF43
     /tmp/ccO06hI1.s:6206   .debug_str:0000000000000e6f .LASF44
     /tmp/ccO06hI1.s:6072   .debug_str:0000000000000a53 .LASF45
     /tmp/ccO06hI1.s:6268   .debug_str:0000000000001092 .LASF46
     /tmp/ccO06hI1.s:6288   .debug_str:000000000000111d .LASF48
     /tmp/ccO06hI1.s:6022   .debug_str:0000000000000885 .LASF50
     /tmp/ccO06hI1.s:6366   .debug_str:0000000000001382 .LASF51
     /tmp/ccO06hI1.s:6050   .debug_str:0000000000000968 .LASF52
     /tmp/ccO06hI1.s:5834   .debug_str:00000000000001fe .LASF53
     /tmp/ccO06hI1.s:6038   .debug_str:000000000000090a .LASF54
     /tmp/ccO06hI1.s:5780   .debug_str:0000000000000049 .LASF55
     /tmp/ccO06hI1.s:6048   .debug_str:0000000000000956 .LASF56
     /tmp/ccO06hI1.s:6196   .debug_str:0000000000000e0b .LASF57
     /tmp/ccO06hI1.s:6110   .debug_str:0000000000000b51 .LASF58
     /tmp/ccO06hI1.s:5962   .debug_str:00000000000005dd .LASF59
     /tmp/ccO06hI1.s:6158   .debug_str:0000000000000d08 .LASF60
     /tmp/ccO06hI1.s:6208   .debug_str:0000000000000e74 .LASF61
     /tmp/ccO06hI1.s:5960   .debug_str:00000000000005d6 .LASF62
     /tmp/ccO06hI1.s:6014   .debug_str:000000000000081a .LASF63
     /tmp/ccO06hI1.s:5778   .debug_str:0000000000000042 .LASF64
     /tmp/ccO06hI1.s:6134   .debug_str:0000000000000c13 .LASF65
     /tmp/ccO06hI1.s:6166   .debug_str:0000000000000d2f .LASF193
     /tmp/ccO06hI1.s:5976   .debug_str:0000000000000643 .LASF66
     /tmp/ccO06hI1.s:6342   .debug_str:00000000000012bd .LASF67
     /tmp/ccO06hI1.s:5892   .debug_str:000000000000039a .LASF68
     /tmp/ccO06hI1.s:5952   .debug_str:000000000000056e .LASF69
     /tmp/ccO06hI1.s:5944   .debug_str:000000000000052e .LASF70
     /tmp/ccO06hI1.s:6222   .debug_str:0000000000000ee0 .LASF71
     /tmp/ccO06hI1.s:5860   .debug_str:000000000000029b .LASF72
     /tmp/ccO06hI1.s:5774   .debug_str:000000000000001a .LASF73
GAS LISTING /tmp/ccO06hI1.s 			page 35


     /tmp/ccO06hI1.s:6230   .debug_str:0000000000000f30 .LASF74
     /tmp/ccO06hI1.s:5894   .debug_str:00000000000003a5 .LASF75
     /tmp/ccO06hI1.s:6252   .debug_str:000000000000101d .LASF296
     /tmp/ccO06hI1.s:5776   .debug_str:000000000000003a .LASF76
     /tmp/ccO06hI1.s:5844   .debug_str:0000000000000247 .LASF77
     /tmp/ccO06hI1.s:5830   .debug_str:00000000000001e7 .LASF78
     /tmp/ccO06hI1.s:5854   .debug_str:0000000000000277 .LASF79
     /tmp/ccO06hI1.s:5856   .debug_str:0000000000000280 .LASF297
     /tmp/ccO06hI1.s:5934   .debug_str:00000000000004e2 .LASF80
     /tmp/ccO06hI1.s:5920   .debug_str:000000000000047e .LASF81
     /tmp/ccO06hI1.s:6086   .debug_str:0000000000000aa1 .LASF82
     /tmp/ccO06hI1.s:5946   .debug_str:000000000000053b .LASF83
     /tmp/ccO06hI1.s:6170   .debug_str:0000000000000d49 .LASF84
     /tmp/ccO06hI1.s:5788   .debug_str:00000000000000b5 .LASF85
     /tmp/ccO06hI1.s:6164   .debug_str:0000000000000d26 .LASF86
     /tmp/ccO06hI1.s:5870   .debug_str:00000000000002e1 .LASF87
     /tmp/ccO06hI1.s:6182   .debug_str:0000000000000d94 .LASF88
     /tmp/ccO06hI1.s:6138   .debug_str:0000000000000c41 .LASF89
     /tmp/ccO06hI1.s:6040   .debug_str:000000000000091b .LASF90
     /tmp/ccO06hI1.s:5908   .debug_str:000000000000043c .LASF91
     /tmp/ccO06hI1.s:6226   .debug_str:0000000000000f14 .LASF92
     /tmp/ccO06hI1.s:6220   .debug_str:0000000000000eca .LASF93
     /tmp/ccO06hI1.s:6018   .debug_str:000000000000085f .LASF94
     /tmp/ccO06hI1.s:6256   .debug_str:000000000000102b .LASF95
     /tmp/ccO06hI1.s:5926   .debug_str:00000000000004a6 .LASF96
     /tmp/ccO06hI1.s:6290   .debug_str:0000000000001123 .LASF97
     /tmp/ccO06hI1.s:6106   .debug_str:0000000000000b30 .LASF98
     /tmp/ccO06hI1.s:6372   .debug_str:00000000000013a9 .LASF99
     /tmp/ccO06hI1.s:6258   .debug_str:0000000000001044 .LASF100
     /tmp/ccO06hI1.s:6300   .debug_str:000000000000117e .LASF101
     /tmp/ccO06hI1.s:5942   .debug_str:000000000000051f .LASF102
     /tmp/ccO06hI1.s:5772   .debug_str:0000000000000000 .LASF103
     /tmp/ccO06hI1.s:6214   .debug_str:0000000000000eaa .LASF104
     /tmp/ccO06hI1.s:6330   .debug_str:0000000000001254 .LASF105
     /tmp/ccO06hI1.s:6094   .debug_str:0000000000000adb .LASF298
     /tmp/ccO06hI1.s:5836   .debug_str:000000000000020e .LASF106
     /tmp/ccO06hI1.s:6148   .debug_str:0000000000000cac .LASF108
     /tmp/ccO06hI1.s:5882   .debug_str:0000000000000357 .LASF107
     /tmp/ccO06hI1.s:5858   .debug_str:0000000000000288 .LASF109
     /tmp/ccO06hI1.s:6306   .debug_str:00000000000011cd .LASF110
     /tmp/ccO06hI1.s:6044   .debug_str:000000000000092e .LASF111
     /tmp/ccO06hI1.s:5810   .debug_str:000000000000014b .LASF112
     /tmp/ccO06hI1.s:6244   .debug_str:0000000000000fd6 .LASF113
     /tmp/ccO06hI1.s:6338   .debug_str:000000000000129a .LASF115
     /tmp/ccO06hI1.s:6064   .debug_str:00000000000009fa .LASF117
     /tmp/ccO06hI1.s:6294   .debug_str:0000000000001144 .LASF118
     /tmp/ccO06hI1.s:5842   .debug_str:0000000000000233 .LASF119
     /tmp/ccO06hI1.s:6152   .debug_str:0000000000000cd1 .LASF120
     /tmp/ccO06hI1.s:6238   .debug_str:0000000000000f6e .LASF121
     /tmp/ccO06hI1.s:6176   .debug_str:0000000000000d67 .LASF122
     /tmp/ccO06hI1.s:6154   .debug_str:0000000000000ce1 .LASF123
     /tmp/ccO06hI1.s:6180   .debug_str:0000000000000d83 .LASF124
     /tmp/ccO06hI1.s:6246   .debug_str:0000000000000fe6 .LASF125
     /tmp/ccO06hI1.s:6092   .debug_str:0000000000000ad0 .LASF127
     /tmp/ccO06hI1.s:6032   .debug_str:00000000000008df .LASF128
     /tmp/ccO06hI1.s:5966   .debug_str:00000000000005fb .LASF129
     /tmp/ccO06hI1.s:5820   .debug_str:0000000000000198 .LASF130
GAS LISTING /tmp/ccO06hI1.s 			page 36


     /tmp/ccO06hI1.s:5880   .debug_str:0000000000000352 .LASF131
     /tmp/ccO06hI1.s:6358   .debug_str:0000000000001351 .LASF132
     /tmp/ccO06hI1.s:6192   .debug_str:0000000000000dfb .LASF133
     /tmp/ccO06hI1.s:6264   .debug_str:000000000000106d .LASF134
     /tmp/ccO06hI1.s:5888   .debug_str:000000000000037e .LASF135
     /tmp/ccO06hI1.s:6042   .debug_str:0000000000000922 .LASF136
     /tmp/ccO06hI1.s:5990   .debug_str:00000000000006b2 .LASF137
     /tmp/ccO06hI1.s:6102   .debug_str:0000000000000b17 .LASF138
     /tmp/ccO06hI1.s:6278   .debug_str:00000000000010d5 .LASF139
     /tmp/ccO06hI1.s:6204   .debug_str:0000000000000e58 .LASF197
     /tmp/ccO06hI1.s:5832   .debug_str:00000000000001f0 .LASF140
     /tmp/ccO06hI1.s:6020   .debug_str:000000000000086c .LASF142
     /tmp/ccO06hI1.s:5874   .debug_str:000000000000030f .LASF299
     /tmp/ccO06hI1.s:5786   .debug_str:000000000000008d .LASF300
     /tmp/ccO06hI1.s:5814   .debug_str:000000000000016a .LASF141
     /tmp/ccO06hI1.s:6058   .debug_str:00000000000009b3 .LASF143
     /tmp/ccO06hI1.s:5918   .debug_str:0000000000000473 .LASF144
     /tmp/ccO06hI1.s:5980   .debug_str:0000000000000659 .LASF145
     /tmp/ccO06hI1.s:6026   .debug_str:00000000000008a2 .LASF146
     /tmp/ccO06hI1.s:6150   .debug_str:0000000000000cbc .LASF147
     /tmp/ccO06hI1.s:6286   .debug_str:0000000000001108 .LASF148
     /tmp/ccO06hI1.s:5936   .debug_str:00000000000004ee .LASF149
     /tmp/ccO06hI1.s:5884   .debug_str:0000000000000360 .LASF150
     /tmp/ccO06hI1.s:6190   .debug_str:0000000000000de4 .LASF151
     /tmp/ccO06hI1.s:6218   .debug_str:0000000000000ec3 .LASF152
     /tmp/ccO06hI1.s:6070   .debug_str:0000000000000a3a .LASF153
     /tmp/ccO06hI1.s:5806   .debug_str:000000000000013a .LASF154
     /tmp/ccO06hI1.s:6060   .debug_str:00000000000009c7 .LASF155
     /tmp/ccO06hI1.s:6186   .debug_str:0000000000000db1 .LASF156
     /tmp/ccO06hI1.s:6056   .debug_str:00000000000009a7 .LASF157
     /tmp/ccO06hI1.s:6132   .debug_str:0000000000000bff .LASF158
     /tmp/ccO06hI1.s:6320   .debug_str:0000000000001226 .LASF159
     /tmp/ccO06hI1.s:6088   .debug_str:0000000000000aae .LASF160
     /tmp/ccO06hI1.s:6232   .debug_str:0000000000000f37 .LASF161
     /tmp/ccO06hI1.s:6126   .debug_str:0000000000000bd2 .LASF162
     /tmp/ccO06hI1.s:6360   .debug_str:0000000000001356 .LASF163
     /tmp/ccO06hI1.s:5984   .debug_str:000000000000067f .LASF164
     /tmp/ccO06hI1.s:5852   .debug_str:0000000000000271 .LASF165
     /tmp/ccO06hI1.s:6074   .debug_str:0000000000000a58 .LASF166
     /tmp/ccO06hI1.s:5890   .debug_str:0000000000000384 .LASF167
     /tmp/ccO06hI1.s:5792   .debug_str:00000000000000cd .LASF168
     /tmp/ccO06hI1.s:6098   .debug_str:0000000000000aec .LASF169
     /tmp/ccO06hI1.s:6096   .debug_str:0000000000000ae0 .LASF170
     /tmp/ccO06hI1.s:6378   .debug_str:00000000000013ed .LASF171
     /tmp/ccO06hI1.s:5930   .debug_str:00000000000004bf .LASF172
     /tmp/ccO06hI1.s:5974   .debug_str:0000000000000626 .LASF173
     /tmp/ccO06hI1.s:5968   .debug_str:0000000000000608 .LASF174
     /tmp/ccO06hI1.s:5886   .debug_str:0000000000000365 .LASF175
     /tmp/ccO06hI1.s:5928   .debug_str:00000000000004b2 .LASF176
     /tmp/ccO06hI1.s:6248   .debug_str:0000000000000fee .LASF177
     /tmp/ccO06hI1.s:5808   .debug_str:0000000000000140 .LASF178
     /tmp/ccO06hI1.s:6000   .debug_str:00000000000007a4 .LASF179
     /tmp/ccO06hI1.s:6236   .debug_str:0000000000000f66 .LASF180
     /tmp/ccO06hI1.s:6080   .debug_str:0000000000000a7f .LASF181
     /tmp/ccO06hI1.s:5790   .debug_str:00000000000000c1 .LASF301
     /tmp/ccO06hI1.s:5914   .debug_str:0000000000000467 .LASF182
     /tmp/ccO06hI1.s:6146   .debug_str:0000000000000ca6 .LASF183
GAS LISTING /tmp/ccO06hI1.s 			page 37


     /tmp/ccO06hI1.s:6046   .debug_str:0000000000000948 .LASF184
     /tmp/ccO06hI1.s:6280   .debug_str:00000000000010dd .LASF185
     /tmp/ccO06hI1.s:5818   .debug_str:0000000000000191 .LASF186
     /tmp/ccO06hI1.s:6062   .debug_str:00000000000009e1 .LASF187
     /tmp/ccO06hI1.s:6144   .debug_str:0000000000000c8d .LASF188
     /tmp/ccO06hI1.s:6376   .debug_str:00000000000013d3 .LASF189
     /tmp/ccO06hI1.s:6302   .debug_str:0000000000001199 .LASF190
     /tmp/ccO06hI1.s:6076   .debug_str:0000000000000a61 .LASF191
     /tmp/ccO06hI1.s:6274   .debug_str:00000000000010a8 .LASF192
     /tmp/ccO06hI1.s:6116   .debug_str:0000000000000b7e .LASF302
     /tmp/ccO06hI1.s:5948   .debug_str:0000000000000548 .LASF194
     /tmp/ccO06hI1.s:5992   .debug_str:00000000000006bb .LASF195
     /tmp/ccO06hI1.s:6090   .debug_str:0000000000000ab6 .LASF196
     /tmp/ccO06hI1.s:6352   .debug_str:0000000000001321 .LASF303
     /tmp/ccO06hI1.s:5956   .debug_str:00000000000005ac .LASF198
     /tmp/ccO06hI1.s:5800   .debug_str:000000000000010d .LASF199
     /tmp/ccO06hI1.s:6034   .debug_str:00000000000008ec .LASF200
     /tmp/ccO06hI1.s:6202   .debug_str:0000000000000e4c .LASF201
     /tmp/ccO06hI1.s:6122   .debug_str:0000000000000ba9 .LASF202
     /tmp/ccO06hI1.s:6114   .debug_str:0000000000000b71 .LASF203
     /tmp/ccO06hI1.s:5866   .debug_str:00000000000002bc .LASF204
     /tmp/ccO06hI1.s:6350   .debug_str:0000000000001317 .LASF205
     /tmp/ccO06hI1.s:5902   .debug_str:00000000000003f7 .LASF206
     /tmp/ccO06hI1.s:5970   .debug_str:0000000000000614 .LASF207
     /tmp/ccO06hI1.s:5816   .debug_str:0000000000000174 .LASF208
     /tmp/ccO06hI1.s:6356   .debug_str:0000000000001343 .LASF209
     /tmp/ccO06hI1.s:6010   .debug_str:00000000000007f2 .LASF210
     /tmp/ccO06hI1.s:6162   .debug_str:0000000000000d19 .LASF211
     /tmp/ccO06hI1.s:6030   .debug_str:00000000000008c1 .LASF212
     /tmp/ccO06hI1.s:6004   .debug_str:00000000000007bf .LASF213
     /tmp/ccO06hI1.s:5904   .debug_str:0000000000000415 .LASF214
     /tmp/ccO06hI1.s:6118   .debug_str:0000000000000b99 .LASF215
     /tmp/ccO06hI1.s:6312   .debug_str:00000000000011f7 .LASF216
     /tmp/ccO06hI1.s:6370   .debug_str:00000000000013a0 .LASF217
     /tmp/ccO06hI1.s:6250   .debug_str:0000000000001008 .LASF218
     /tmp/ccO06hI1.s:6012   .debug_str:0000000000000811 .LASF219
     /tmp/ccO06hI1.s:6140   .debug_str:0000000000000c55 .LASF220
     /tmp/ccO06hI1.s:5868   .debug_str:00000000000002da .LASF221
     /tmp/ccO06hI1.s:6002   .debug_str:00000000000007ac .LASF222
     /tmp/ccO06hI1.s:6124   .debug_str:0000000000000bcb .LASF223
     /tmp/ccO06hI1.s:6128   .debug_str:0000000000000bd8 .LASF224
     /tmp/ccO06hI1.s:6270   .debug_str:0000000000001099 .LASF225
     /tmp/ccO06hI1.s:6260   .debug_str:0000000000001054 .LASF226
     /tmp/ccO06hI1.s:5996   .debug_str:0000000000000789 .LASF227
     /tmp/ccO06hI1.s:6184   .debug_str:0000000000000d9d .LASF228
     /tmp/ccO06hI1.s:6336   .debug_str:0000000000001292 .LASF229
     /tmp/ccO06hI1.s:6212   .debug_str:0000000000000e96 .LASF230
     /tmp/ccO06hI1.s:5826   .debug_str:00000000000001b8 .LASF231
     /tmp/ccO06hI1.s:6298   .debug_str:000000000000116a .LASF232
     /tmp/ccO06hI1.s:6024   .debug_str:000000000000089a .LASF233
     /tmp/ccO06hI1.s:6130   .debug_str:0000000000000beb .LASF234
     /tmp/ccO06hI1.s:6210   .debug_str:0000000000000e8f .LASF235
     /tmp/ccO06hI1.s:6174   .debug_str:0000000000000d54 .LASF236
     /tmp/ccO06hI1.s:6272   .debug_str:00000000000010a1 .LASF237
     /tmp/ccO06hI1.s:5932   .debug_str:00000000000004cf .LASF238
     /tmp/ccO06hI1.s:5972   .debug_str:0000000000000620 .LASF239
     /tmp/ccO06hI1.s:5876   .debug_str:000000000000031d .LASF240
GAS LISTING /tmp/ccO06hI1.s 			page 38


     /tmp/ccO06hI1.s:6172   .debug_str:0000000000000d4e .LASF241
     /tmp/ccO06hI1.s:5958   .debug_str:00000000000005c4 .LASF242
     /tmp/ccO06hI1.s:5796   .debug_str:00000000000000e1 .LASF243
     /tmp/ccO06hI1.s:6200   .debug_str:0000000000000e34 .LASF244
     /tmp/ccO06hI1.s:5912   .debug_str:000000000000045c .LASF245
     /tmp/ccO06hI1.s:6364   .debug_str:000000000000136a .LASF246
     /tmp/ccO06hI1.s:6308   .debug_str:00000000000011da .LASF247
     /tmp/ccO06hI1.s:5802   .debug_str:0000000000000116 .LASF248
     /tmp/ccO06hI1.s:6314   .debug_str:00000000000011fd .LASF249
     /tmp/ccO06hI1.s:6344   .debug_str:00000000000012d4 .LASF250
     /tmp/ccO06hI1.s:6324   .debug_str:000000000000123f .LASF251
     /tmp/ccO06hI1.s:6228   .debug_str:0000000000000f1f .LASF252
     /tmp/ccO06hI1.s:6262   .debug_str:0000000000001068 .LASF253
     /tmp/ccO06hI1.s:6346   .debug_str:00000000000012ea .LASF254
     /tmp/ccO06hI1.s:6084   .debug_str:0000000000000a9c .LASF255
     /tmp/ccO06hI1.s:5986   .debug_str:0000000000000685 .LASF256
     /tmp/ccO06hI1.s:6328   .debug_str:000000000000124f .LASF257
     /tmp/ccO06hI1.s:5782   .debug_str:0000000000000059 .LASF258
     /tmp/ccO06hI1.s:5862   .debug_str:00000000000002a7 .LASF259
     /tmp/ccO06hI1.s:6374   .debug_str:00000000000013c2 .LASF260
     /tmp/ccO06hI1.s:6332   .debug_str:0000000000001276 .LASF261
     /tmp/ccO06hI1.s:5824   .debug_str:00000000000001a7 .LASF262
     /tmp/ccO06hI1.s:6066   .debug_str:0000000000000a1c .LASF263
     /tmp/ccO06hI1.s:6304   .debug_str:00000000000011b3 .LASF264
     /tmp/ccO06hI1.s:6178   .debug_str:0000000000000d75 .LASF265
     /tmp/ccO06hI1.s:5898   .debug_str:00000000000003d1 .LASF266
     /tmp/ccO06hI1.s:5950   .debug_str:0000000000000563 .LASF267
     /tmp/ccO06hI1.s:6188   .debug_str:0000000000000dcc .LASF268
     /tmp/ccO06hI1.s:5838   .debug_str:0000000000000214 .LASF269
     /tmp/ccO06hI1.s:6136   .debug_str:0000000000000c29 .LASF270
     /tmp/ccO06hI1.s:5804   .debug_str:000000000000012c .LASF271
     /tmp/ccO06hI1.s:6266   .debug_str:0000000000001077 .LASF272
     /tmp/ccO06hI1.s:6276   .debug_str:00000000000010c1 .LASF273
     /tmp/ccO06hI1.s:6068   .debug_str:0000000000000a29 .LASF274
     /tmp/ccO06hI1.s:6368   .debug_str:000000000000138f .LASF275
     /tmp/ccO06hI1.s:6310   .debug_str:00000000000011e4 .LASF276
     /tmp/ccO06hI1.s:6284   .debug_str:00000000000010f5 .LASF277
     /tmp/ccO06hI1.s:6318   .debug_str:0000000000001212 .LASF278
     /tmp/ccO06hI1.s:6334   .debug_str:000000000000127b .LASF279
     /tmp/ccO06hI1.s:5784   .debug_str:000000000000006a .LASF280
     /tmp/ccO06hI1.s:833    .text:00000000000004e0 .LFB83
     /tmp/ccO06hI1.s:859    .text:0000000000000514 .LFE83
     /tmp/ccO06hI1.s:849    .text:0000000000000504 .LVL76
     /tmp/ccO06hI1.s:6234   .debug_str:0000000000000f3c .LASF281
     /tmp/ccO06hI1.s:12     .text:0000000000000000 .LFB82
     /tmp/ccO06hI1.s:55     .text:000000000000006c .LFE82
     /tmp/ccO06hI1.s:5940   .debug_str:0000000000000510 .LASF282
     /tmp/ccO06hI1.s:6362   .debug_str:000000000000135f .LASF283
     /tmp/ccO06hI1.s:5916   .debug_str:000000000000046e .LASF284
     /tmp/ccO06hI1.s:6242   .debug_str:0000000000000fbd .LASF287
     /tmp/ccO06hI1.s:598    .text:0000000000000374 .LFB74
     /tmp/ccO06hI1.s:828    .text:00000000000004e0 .LFE74
     /tmp/ccO06hI1.s:5383   .debug_loc:0000000000000000 .LLST35
     /tmp/ccO06hI1.s:639    .text:00000000000003b8 .LBB208
     /tmp/ccO06hI1.s:706    .text:0000000000000458 .LBE208
     /tmp/ccO06hI1.s:5422   .debug_loc:0000000000000061 .LLST36
     /tmp/ccO06hI1.s:663    .text:00000000000003ec .LBB209
GAS LISTING /tmp/ccO06hI1.s 			page 39


     /tmp/ccO06hI1.s:705    .text:0000000000000458 .LBE209
     /tmp/ccO06hI1.s:5429   .debug_loc:0000000000000084 .LLST37
     /tmp/ccO06hI1.s:5436   .debug_loc:00000000000000a7 .LLST38
     /tmp/ccO06hI1.s:668    .text:00000000000003f8 .LVL62
     /tmp/ccO06hI1.s:673    .text:0000000000000408 .LVL63
     /tmp/ccO06hI1.s:696    .text:0000000000000448 .LVL64
     /tmp/ccO06hI1.s:700    .text:0000000000000454 .LVL65
     /tmp/ccO06hI1.s:652    .text:00000000000003d4 .LVL60
     /tmp/ccO06hI1.s:721    .text:0000000000000474 .LBB213
     /tmp/ccO06hI1.s:802    .text:00000000000004bc .LBE213
     /tmp/ccO06hI1.s:6322   .debug_str:0000000000001237 .LASF285
     /tmp/ccO06hI1.s:5443   .debug_loc:00000000000000ca .LLST39
     /tmp/ccO06hI1.s:6254   .debug_str:0000000000001026 .LASF286
     /tmp/ccO06hI1.s:5450   .debug_loc:00000000000000ed .LLST40
     /tmp/ccO06hI1.s:723    .text:0000000000000474 .LBB214
     /tmp/ccO06hI1.s:739    .text:0000000000000480 .LBE214
     /tmp/ccO06hI1.s:724    .text:0000000000000474 .LBB215
     /tmp/ccO06hI1.s:738    .text:0000000000000480 .LBE215
     /tmp/ccO06hI1.s:740    .text:0000000000000480 .LBB216
     /tmp/ccO06hI1.s:756    .text:000000000000048c .LBE216
     /tmp/ccO06hI1.s:741    .text:0000000000000480 .LBB217
     /tmp/ccO06hI1.s:755    .text:000000000000048c .LBE217
     /tmp/ccO06hI1.s:758    .text:000000000000048c .LBB218
     /tmp/ccO06hI1.s:769    .text:00000000000004a8 .LBE218
     /tmp/ccO06hI1.s:5457   .debug_loc:0000000000000110 .LLST41
     /tmp/ccO06hI1.s:767    .text:00000000000004a8 .LVL71
     /tmp/ccO06hI1.s:775    .text:00000000000004b0 .LBB220
     /tmp/ccO06hI1.s:786    .text:00000000000004b4 .LBE220
     /tmp/ccO06hI1.s:5465   .debug_loc:000000000000013b .LLST42
     /tmp/ccO06hI1.s:788    .text:00000000000004b4 .LBB222
     /tmp/ccO06hI1.s:801    .text:00000000000004bc .LBE222
     /tmp/ccO06hI1.s:5472   .debug_loc:000000000000015e .LLST43
     /tmp/ccO06hI1.s:773    .text:00000000000004b0 .LVL72
     /tmp/ccO06hI1.s:627    .text:00000000000003a0 .LBB206
     /tmp/ccO06hI1.s:635    .text:00000000000003b0 .LBE206
     /tmp/ccO06hI1.s:618    .text:0000000000000398 .LVL57
     /tmp/ccO06hI1.s:713    .text:0000000000000464 .LVL68
     /tmp/ccO06hI1.s:809    .text:00000000000004c4 .LVL75
     /tmp/ccO06hI1.s:575    .text:000000000000035c .LFB73
     /tmp/ccO06hI1.s:592    .text:0000000000000374 .LFE73
     /tmp/ccO06hI1.s:61     .text:000000000000006c .LFB72
     /tmp/ccO06hI1.s:232    .text:0000000000000174 .LFE72
     /tmp/ccO06hI1.s:86     .text:0000000000000098 .LBB128
     /tmp/ccO06hI1.s:159    .text:00000000000000d4 .LBE128
     /tmp/ccO06hI1.s:5479   .debug_loc:0000000000000181 .LLST0
     /tmp/ccO06hI1.s:5486   .debug_loc:00000000000001a4 .LLST1
     /tmp/ccO06hI1.s:88     .text:0000000000000098 .LBB129
     /tmp/ccO06hI1.s:105    .text:00000000000000a4 .LBE129
     /tmp/ccO06hI1.s:89     .text:0000000000000098 .LBB130
     /tmp/ccO06hI1.s:104    .text:00000000000000a4 .LBE130
     /tmp/ccO06hI1.s:106    .text:00000000000000a4 .LBB131
     /tmp/ccO06hI1.s:122    .text:00000000000000b0 .LBE131
     /tmp/ccO06hI1.s:107    .text:00000000000000a4 .LBB132
     /tmp/ccO06hI1.s:121    .text:00000000000000b0 .LBE132
     /tmp/ccO06hI1.s:133    .text:00000000000000cc .LBB133
     /tmp/ccO06hI1.s:144    .text:00000000000000d0 .LBE133
     /tmp/ccO06hI1.s:5493   .debug_loc:00000000000001c7 .LLST2
GAS LISTING /tmp/ccO06hI1.s 			page 40


     /tmp/ccO06hI1.s:146    .text:00000000000000d0 .LBB135
     /tmp/ccO06hI1.s:158    .text:00000000000000d4 .LBE135
     /tmp/ccO06hI1.s:5500   .debug_loc:00000000000001ea .LLST3
     /tmp/ccO06hI1.s:131    .text:00000000000000cc .LVL3
     /tmp/ccO06hI1.s:164    .text:00000000000000d4 .LBB137
     /tmp/ccO06hI1.s:173    .text:00000000000000e4 .LBE137
     /tmp/ccO06hI1.s:185    .text:0000000000000104 .LBB139
     /tmp/ccO06hI1.s:226    .text:000000000000016c .LBE139
     /tmp/ccO06hI1.s:5507   .debug_loc:000000000000020d .LLST4
     /tmp/ccO06hI1.s:186    .text:0000000000000104 .LBB140
     /tmp/ccO06hI1.s:225    .text:000000000000016c .LBE140
     /tmp/ccO06hI1.s:5514   .debug_loc:0000000000000230 .LLST5
     /tmp/ccO06hI1.s:191    .text:0000000000000110 .LVL7
     /tmp/ccO06hI1.s:196    .text:0000000000000120 .LVL8
     /tmp/ccO06hI1.s:220    .text:0000000000000160 .LVL10
     /tmp/ccO06hI1.s:224    .text:000000000000016c .LVL11
     /tmp/ccO06hI1.s:238    .text:0000000000000174 .LFB71
     /tmp/ccO06hI1.s:569    .text:000000000000035c .LFE71
     /tmp/ccO06hI1.s:5521   .debug_loc:0000000000000253 .LLST6
     /tmp/ccO06hI1.s:257    .text:0000000000000190 .LBB142
     /tmp/ccO06hI1.s:268    .text:00000000000001a4 .LBE142
     /tmp/ccO06hI1.s:5532   .debug_loc:0000000000000289 .LLST7
     /tmp/ccO06hI1.s:262    .text:0000000000000198 .LVL13
     /tmp/ccO06hI1.s:266    .text:00000000000001a4 .LVL14
     /tmp/ccO06hI1.s:269    .text:00000000000001a4 .LBB144
     /tmp/ccO06hI1.s:357    .text:0000000000000210 .LBE144
     /tmp/ccO06hI1.s:5541   .debug_loc:00000000000002af .LLST8
     /tmp/ccO06hI1.s:274    .text:00000000000001a8 .LBB146
     /tmp/ccO06hI1.s:299    .text:00000000000001cc .LBE146
     /tmp/ccO06hI1.s:5548   .debug_loc:00000000000002d2 .LLST9
     /tmp/ccO06hI1.s:5556   .debug_loc:00000000000002f6 .LLST10
     /tmp/ccO06hI1.s:281    .text:00000000000001b0 .LBB148
     /tmp/ccO06hI1.s:290    .text:00000000000001bc .LBE148
     /tmp/ccO06hI1.s:5563   .debug_loc:0000000000000319 .LLST11
     /tmp/ccO06hI1.s:303    .text:00000000000001d0 .LBB150
     /tmp/ccO06hI1.s:323    .text:00000000000001e4 .LBE150
     /tmp/ccO06hI1.s:5572   .debug_loc:000000000000033e .LLST12
     /tmp/ccO06hI1.s:5580   .debug_loc:0000000000000362 .LLST13
     /tmp/ccO06hI1.s:308    .text:00000000000001d4 .LBB152
     /tmp/ccO06hI1.s:316    .text:00000000000001e0 .LBE152
     /tmp/ccO06hI1.s:5587   .debug_loc:0000000000000385 .LLST14
     /tmp/ccO06hI1.s:327    .text:00000000000001e8 .LBB154
     /tmp/ccO06hI1.s:350    .text:0000000000000204 .LBE154
     /tmp/ccO06hI1.s:5596   .debug_loc:00000000000003aa .LLST15
     /tmp/ccO06hI1.s:5605   .debug_loc:00000000000003d0 .LLST16
     /tmp/ccO06hI1.s:333    .text:00000000000001f0 .LBB156
     /tmp/ccO06hI1.s:341    .text:00000000000001fc .LBE156
     /tmp/ccO06hI1.s:5612   .debug_loc:00000000000003f3 .LLST17
     /tmp/ccO06hI1.s:362    .text:0000000000000218 .LBB158
     /tmp/ccO06hI1.s:372    .text:000000000000022c .LBE158
     /tmp/ccO06hI1.s:5621   .debug_loc:0000000000000418 .LLST18
     /tmp/ccO06hI1.s:366    .text:0000000000000220 .LVL29
     /tmp/ccO06hI1.s:370    .text:000000000000022c .LVL30
     /tmp/ccO06hI1.s:373    .text:000000000000022c .LBB160
     /tmp/ccO06hI1.s:456    .text:0000000000000288 .LBE160
     /tmp/ccO06hI1.s:5630   .debug_loc:000000000000043e .LLST19
     /tmp/ccO06hI1.s:378    .text:0000000000000230 .LBB162
GAS LISTING /tmp/ccO06hI1.s 			page 41


     /tmp/ccO06hI1.s:399    .text:0000000000000248 .LBE162
     /tmp/ccO06hI1.s:5637   .debug_loc:0000000000000461 .LLST20
     /tmp/ccO06hI1.s:5645   .debug_loc:0000000000000485 .LLST21
     /tmp/ccO06hI1.s:383    .text:0000000000000234 .LBB164
     /tmp/ccO06hI1.s:391    .text:0000000000000240 .LBE164
     /tmp/ccO06hI1.s:5652   .debug_loc:00000000000004a8 .LLST22
     /tmp/ccO06hI1.s:403    .text:000000000000024c .LBB166
     /tmp/ccO06hI1.s:423    .text:0000000000000260 .LBE166
     /tmp/ccO06hI1.s:5661   .debug_loc:00000000000004cd .LLST23
     /tmp/ccO06hI1.s:5669   .debug_loc:00000000000004f1 .LLST24
     /tmp/ccO06hI1.s:408    .text:0000000000000250 .LBB168
     /tmp/ccO06hI1.s:416    .text:000000000000025c .LBE168
     /tmp/ccO06hI1.s:5676   .debug_loc:0000000000000514 .LLST25
     /tmp/ccO06hI1.s:427    .text:0000000000000264 .LBB170
     /tmp/ccO06hI1.s:449    .text:000000000000027c .LBE170
     /tmp/ccO06hI1.s:5685   .debug_loc:0000000000000539 .LLST26
     /tmp/ccO06hI1.s:5694   .debug_loc:000000000000055f .LLST27
     /tmp/ccO06hI1.s:432    .text:0000000000000268 .LBB172
     /tmp/ccO06hI1.s:440    .text:0000000000000274 .LBE172
     /tmp/ccO06hI1.s:5701   .debug_loc:0000000000000582 .LLST28
     /tmp/ccO06hI1.s:461    .text:0000000000000290 .LBB174
     /tmp/ccO06hI1.s:473    .text:00000000000002a4 .LBE174
     /tmp/ccO06hI1.s:5710   .debug_loc:00000000000005a7 .LLST29
     /tmp/ccO06hI1.s:467    .text:0000000000000298 .LVL45
     /tmp/ccO06hI1.s:471    .text:00000000000002a4 .LVL46
     /tmp/ccO06hI1.s:474    .text:00000000000002a4 .LBB176
     /tmp/ccO06hI1.s:497    .text:00000000000002c0 .LBE176
     /tmp/ccO06hI1.s:5719   .debug_loc:00000000000005cc .LLST30
     /tmp/ccO06hI1.s:5727   .debug_loc:00000000000005f0 .LLST31
     /tmp/ccO06hI1.s:479    .text:00000000000002a8 .LBB178
     /tmp/ccO06hI1.s:487    .text:00000000000002b4 .LBE178
     /tmp/ccO06hI1.s:5734   .debug_loc:0000000000000613 .LLST32
     /tmp/ccO06hI1.s:535    .text:0000000000000338 .LBB180
     /tmp/ccO06hI1.s:543    .text:000000000000033c .LBE180
     /tmp/ccO06hI1.s:5743   .debug_loc:0000000000000638 .LLST33
     /tmp/ccO06hI1.s:545    .text:000000000000033c .LBB182
     /tmp/ccO06hI1.s:552    .text:0000000000000340 .LBE182
     /tmp/ccO06hI1.s:5750   .debug_loc:000000000000065b .LLST34
     /tmp/ccO06hI1.s:518    .text:000000000000030c .LVL50
     /tmp/ccO06hI1.s:522    .text:0000000000000318 .LVL51
     /tmp/ccO06hI1.s:530    .text:0000000000000330 .LVL53
     /tmp/ccO06hI1.s:5840   .debug_str:000000000000021f .LASF288
     /tmp/ccO06hI1.s:6078   .debug_str:0000000000000a6e .LASF289
     /tmp/ccO06hI1.s:6112   .debug_str:0000000000000b63 .LASF290
     /tmp/ccO06hI1.s:6028   .debug_str:00000000000008b6 .LASF291
     /tmp/ccO06hI1.s:650    .text:00000000000003cc .LVL59
     /tmp/ccO06hI1.s:702    .text:0000000000000458 .LVL66
     /tmp/ccO06hI1.s:711    .text:000000000000045c .LVL67
     /tmp/ccO06hI1.s:798    .text:00000000000004bc .LVL74
     /tmp/ccO06hI1.s:646    .text:00000000000003c8 .LVL58
     /tmp/ccO06hI1.s:662    .text:00000000000003ec .LVL61
     /tmp/ccO06hI1.s:737    .text:0000000000000480 .LVL69
     /tmp/ccO06hI1.s:754    .text:000000000000048c .LVL70
     /tmp/ccO06hI1.s:783    .text:00000000000004b4 .LVL73
     /tmp/ccO06hI1.s:103    .text:00000000000000a4 .LVL1
     /tmp/ccO06hI1.s:154    .text:00000000000000d4 .LVL5
     /tmp/ccO06hI1.s:120    .text:00000000000000b0 .LVL2
GAS LISTING /tmp/ccO06hI1.s 			page 42


     /tmp/ccO06hI1.s:141    .text:00000000000000d0 .LVL4
     /tmp/ccO06hI1.s:184    .text:0000000000000104 .LVL6
     /tmp/ccO06hI1.s:206    .text:0000000000000138 .LVL9
     /tmp/ccO06hI1.s:528    .text:0000000000000328 .LVL52
     /tmp/ccO06hI1.s:256    .text:0000000000000190 .LVL12
     /tmp/ccO06hI1.s:355    .text:0000000000000210 .LVL27
     /tmp/ccO06hI1.s:273    .text:00000000000001a8 .LVL15
     /tmp/ccO06hI1.s:297    .text:00000000000001cc .LVL18
     /tmp/ccO06hI1.s:280    .text:00000000000001b0 .LVL16
     /tmp/ccO06hI1.s:288    .text:00000000000001bc .LVL17
     /tmp/ccO06hI1.s:302    .text:00000000000001d0 .LVL19
     /tmp/ccO06hI1.s:321    .text:00000000000001e4 .LVL22
     /tmp/ccO06hI1.s:307    .text:00000000000001d4 .LVL20
     /tmp/ccO06hI1.s:314    .text:00000000000001e0 .LVL21
     /tmp/ccO06hI1.s:326    .text:00000000000001e8 .LVL23
     /tmp/ccO06hI1.s:348    .text:0000000000000204 .LVL26
     /tmp/ccO06hI1.s:332    .text:00000000000001f0 .LVL24
     /tmp/ccO06hI1.s:339    .text:00000000000001fc .LVL25
     /tmp/ccO06hI1.s:361    .text:0000000000000218 .LVL28
     /tmp/ccO06hI1.s:454    .text:0000000000000288 .LVL43
     /tmp/ccO06hI1.s:377    .text:0000000000000230 .LVL31
     /tmp/ccO06hI1.s:397    .text:0000000000000248 .LVL34
     /tmp/ccO06hI1.s:382    .text:0000000000000234 .LVL32
     /tmp/ccO06hI1.s:389    .text:0000000000000240 .LVL33
     /tmp/ccO06hI1.s:402    .text:000000000000024c .LVL35
     /tmp/ccO06hI1.s:421    .text:0000000000000260 .LVL38
     /tmp/ccO06hI1.s:407    .text:0000000000000250 .LVL36
     /tmp/ccO06hI1.s:414    .text:000000000000025c .LVL37
     /tmp/ccO06hI1.s:426    .text:0000000000000264 .LVL39
     /tmp/ccO06hI1.s:447    .text:000000000000027c .LVL42
     /tmp/ccO06hI1.s:431    .text:0000000000000268 .LVL40
     /tmp/ccO06hI1.s:438    .text:0000000000000274 .LVL41
     /tmp/ccO06hI1.s:460    .text:0000000000000290 .LVL44
     /tmp/ccO06hI1.s:495    .text:00000000000002c0 .LVL49
     /tmp/ccO06hI1.s:478    .text:00000000000002a8 .LVL47
     /tmp/ccO06hI1.s:485    .text:00000000000002b4 .LVL48
     /tmp/ccO06hI1.s:534    .text:0000000000000338 .LVL54
     /tmp/ccO06hI1.s:541    .text:000000000000033c .LVL55
     /tmp/ccO06hI1.s:550    .text:0000000000000340 .LVL56
     /tmp/ccO06hI1.s:908    .debug_info:0000000000000000 .Ldebug_info0

UNDEFINED SYMBOLS
CONSOLE_STATUS
CONSOLE_RX_DATA
CONSOLE_TX_DATA
_ZN3TCB7runningE
_ZN3TCB5yieldEv
_ZN10KSemaphore4waitEv
_ZN10KSemaphore6signalEv
_ZN15MemoryAllocator11getInstanceEv
_ZN15MemoryAllocator9mem_allocEm
_ZN10KSemaphore16activeSemaphoresE
_ZN3TCB12createThreadEPFvPvES0_Pm
plic_claim
plic_complete
_ZN9Scheduler5queueE
_ZN8TcbQueue11insertFrontEP3TCB
GAS LISTING /tmp/ccO06hI1.s 			page 43


