GAS LISTING /tmp/ccAINQcZ.s 			page 1


   1              		.file	"syscall_c.cpp"
   2              		.option nopic
   3              		.option norelax
   4              		.attribute arch, "rv64i2p0_m2p0_a2p0"
   5              		.attribute unaligned_access, 0
   6              		.attribute stack_align, 16
   7              		.text
   8              	.Ltext0:
   9              		.align	2
  10              		.globl	mem_alloc
  12              	mem_alloc:
  13              	.LFB1:
  14              		.file 1 "src/syscall_c.cpp"
   1:src/syscall_c.cpp **** #include"../lib/hw.h"
   2:src/syscall_c.cpp **** #include"../h/_thread.h"
   3:src/syscall_c.cpp **** #include"../h/_semaphore.h"
   4:src/syscall_c.cpp **** 
   5:src/syscall_c.cpp **** extern "C" void* mem_alloc(size_t size)
   6:src/syscall_c.cpp **** {
  15              		.loc 1 6 1
  16              		.cfi_startproc
  17              	.LVL0:
  18 0000 130101FF 		addi	sp,sp,-16
  19              		.cfi_def_cfa_offset 16
  20 0004 23348100 		sd	s0,8(sp)
  21              		.cfi_offset 8, -8
  22 0008 13040101 		addi	s0,sp,16
  23              		.cfi_def_cfa 8, 0
   7:src/syscall_c.cpp ****     size_t szblcks = (size-1)/MEM_BLOCK_SIZE + 1;
  24              		.loc 1 7 5
  25              		.loc 1 7 27 is_stmt 0
  26 000c 1305F5FF 		addi	a0,a0,-1
  27              	.LVL1:
  28              		.loc 1 7 30
  29 0010 13556500 		srli	a0,a0,6
  30              	.LVL2:
  31              		.loc 1 7 12
  32 0014 13051500 		addi	a0,a0,1
  33              	.LVL3:
   8:src/syscall_c.cpp ****     char* adr = 0;
  34              		.loc 1 8 5 is_stmt 1
   9:src/syscall_c.cpp **** 
  10:src/syscall_c.cpp ****     __asm__ volatile("mv a1, %0" : : "r" (szblcks));
  35              		.loc 1 10 5
  36              		.loc 1 10 52 is_stmt 0
  37              	 #APP
  38              	# 10 "src/syscall_c.cpp" 1
  11              	    __asm__ volatile("mv a0, %0" : : "r" (0x1));
  39              		mv a1, a0
  40              	# 0 "" 2
  41              		.loc 1 11 5 is_stmt 1
  42              		.loc 1 11 48 is_stmt 0
  43              	 #NO_APP
  44 001c 93071000 		li	a5,1
  45              	 #APP
  46              	# 11 "src/syscall_c.cpp" 1
  12              	    __asm__ volatile("ecall");
GAS LISTING /tmp/ccAINQcZ.s 			page 2


  47              		mv a0, a5
  48              	# 0 "" 2
  49              		.loc 1 12 5 is_stmt 1
  50              		.loc 1 12 30 is_stmt 0
  51              	# 12 "src/syscall_c.cpp" 1
  13              	    __asm__ volatile("mv %0, a0" : "=r" (adr));
  52              		ecall
  53              	# 0 "" 2
  54              		.loc 1 13 5 is_stmt 1
  55              		.loc 1 13 47 is_stmt 0
  56              	# 13 "src/syscall_c.cpp" 1
  14              	    
  57              		mv a0, a0
  58              	# 0 "" 2
  59              	.LVL4:
  15:src/syscall_c.cpp ****     return adr;  
  60              		.loc 1 15 5 is_stmt 1
  16:src/syscall_c.cpp **** }
  61              		.loc 1 16 1 is_stmt 0
  62              	 #NO_APP
  63 002c 03348100 		ld	s0,8(sp)
  64              		.cfi_restore 8
  65              		.cfi_def_cfa 2, 16
  66 0030 13010101 		addi	sp,sp,16
  67              		.cfi_def_cfa_offset 0
  68 0034 67800000 		jr	ra
  69              		.cfi_endproc
  70              	.LFE1:
  72              		.align	2
  73              		.globl	mem_free
  75              	mem_free:
  76              	.LFB2:
  17:src/syscall_c.cpp **** 
  18:src/syscall_c.cpp **** extern "C" int mem_free (void* adr)
  19:src/syscall_c.cpp **** {
  77              		.loc 1 19 1 is_stmt 1
  78              		.cfi_startproc
  79              	.LVL5:
  80 0038 130101FF 		addi	sp,sp,-16
  81              		.cfi_def_cfa_offset 16
  82 003c 23348100 		sd	s0,8(sp)
  83              		.cfi_offset 8, -8
  84 0040 13040101 		addi	s0,sp,16
  85              		.cfi_def_cfa 8, 0
  20:src/syscall_c.cpp ****     int ret;
  86              		.loc 1 20 5
  21:src/syscall_c.cpp **** 
  22:src/syscall_c.cpp ****     __asm__ volatile("mv a1, %0" : : "r" ((uint64)adr));
  87              		.loc 1 22 5
  88              		.loc 1 22 56 is_stmt 0
  89              	 #APP
  90              	# 22 "src/syscall_c.cpp" 1
  23              	    __asm__ volatile("mv a0, %0" : : "r" (0x2));
  91              		mv a1, a0
  92              	# 0 "" 2
  93              		.loc 1 23 5 is_stmt 1
  94              		.loc 1 23 48 is_stmt 0
GAS LISTING /tmp/ccAINQcZ.s 			page 3


  95              	 #NO_APP
  96 0048 93072000 		li	a5,2
  97              	 #APP
  98              	# 23 "src/syscall_c.cpp" 1
  24              	    __asm__ volatile("ecall");
  99              		mv a0, a5
 100              	# 0 "" 2
 101              		.loc 1 24 5 is_stmt 1
 102              		.loc 1 24 30 is_stmt 0
 103              	# 24 "src/syscall_c.cpp" 1
  25              	    __asm__ volatile("mv %0, a0" : "=r" (ret));
 104              		ecall
 105              	# 0 "" 2
 106              		.loc 1 25 5 is_stmt 1
 107              		.loc 1 25 47 is_stmt 0
 108              	# 25 "src/syscall_c.cpp" 1
  26              	    
 109              		mv a0, a0
 110              	# 0 "" 2
 111              	.LVL6:
  27:src/syscall_c.cpp ****     return ret;
 112              		.loc 1 27 5 is_stmt 1
  28:src/syscall_c.cpp **** }
 113              		.loc 1 28 1 is_stmt 0
 114              	 #NO_APP
 115 0058 1B050500 		sext.w	a0,a0
 116 005c 03348100 		ld	s0,8(sp)
 117              		.cfi_restore 8
 118              		.cfi_def_cfa 2, 16
 119 0060 13010101 		addi	sp,sp,16
 120              		.cfi_def_cfa_offset 0
 121 0064 67800000 		jr	ra
 122              		.cfi_endproc
 123              	.LFE2:
 125              		.align	2
 126              		.globl	thread_dispatch
 128              	thread_dispatch:
 129              	.LFB3:
  29:src/syscall_c.cpp **** 
  30:src/syscall_c.cpp **** extern "C" void thread_dispatch()
  31:src/syscall_c.cpp **** {
 130              		.loc 1 31 1 is_stmt 1
 131              		.cfi_startproc
 132 0068 130101FF 		addi	sp,sp,-16
 133              		.cfi_def_cfa_offset 16
 134 006c 23348100 		sd	s0,8(sp)
 135              		.cfi_offset 8, -8
 136 0070 13040101 		addi	s0,sp,16
 137              		.cfi_def_cfa 8, 0
  32:src/syscall_c.cpp ****     __asm__ volatile("mv a0, %0" : : "r" (0x13));
 138              		.loc 1 32 5
 139              		.loc 1 32 49 is_stmt 0
 140 0074 93073001 		li	a5,19
 141              	 #APP
 142              	# 32 "src/syscall_c.cpp" 1
  33              	    __asm__ volatile("ecall");
 143              		mv a0, a5
GAS LISTING /tmp/ccAINQcZ.s 			page 4


 144              	# 0 "" 2
 145              		.loc 1 33 5 is_stmt 1
 146              		.loc 1 33 30 is_stmt 0
 147              	# 33 "src/syscall_c.cpp" 1
  34              	}
 148              		ecall
 149              	# 0 "" 2
 150              		.loc 1 34 1
 151              	 #NO_APP
 152 0080 03348100 		ld	s0,8(sp)
 153              		.cfi_restore 8
 154              		.cfi_def_cfa 2, 16
 155 0084 13010101 		addi	sp,sp,16
 156              		.cfi_def_cfa_offset 0
 157 0088 67800000 		jr	ra
 158              		.cfi_endproc
 159              	.LFE3:
 161              		.align	2
 162              		.globl	thread_create
 164              	thread_create:
 165              	.LFB4:
  35:src/syscall_c.cpp **** 
  36:src/syscall_c.cpp **** extern "C" int thread_create(thread_t* handle, 
  37:src/syscall_c.cpp ****     void(*start_routine)(void*), void* arg)
  38:src/syscall_c.cpp **** {
 166              		.loc 1 38 1 is_stmt 1
 167              		.cfi_startproc
 168              	.LVL7:
  39:src/syscall_c.cpp ****    
  40:src/syscall_c.cpp ****     if(handle == nullptr) return -1;
 169              		.loc 1 40 5
 170 008c 630E0506 		beq	a0,zero,.L9
  41:src/syscall_c.cpp ****     if(start_routine == nullptr) return -2;
 171              		.loc 1 41 5
 172 0090 63800508 		beq	a1,zero,.L10
  38:src/syscall_c.cpp ****    
 173              		.loc 1 38 1 is_stmt 0
 174 0094 130101FD 		addi	sp,sp,-48
 175              		.cfi_def_cfa_offset 48
 176 0098 23341102 		sd	ra,40(sp)
 177 009c 23308102 		sd	s0,32(sp)
 178 00a0 233C9100 		sd	s1,24(sp)
 179 00a4 23382101 		sd	s2,16(sp)
 180 00a8 23343101 		sd	s3,8(sp)
 181              		.cfi_offset 1, -8
 182              		.cfi_offset 8, -16
 183              		.cfi_offset 9, -24
 184              		.cfi_offset 18, -32
 185              		.cfi_offset 19, -40
 186 00ac 13040103 		addi	s0,sp,48
 187              		.cfi_def_cfa 8, 0
 188 00b0 93090600 		mv	s3,a2
 189 00b4 13890500 		mv	s2,a1
 190 00b8 93040500 		mv	s1,a0
  42:src/syscall_c.cpp **** 
  43:src/syscall_c.cpp ****     void* stack_space = mem_alloc(DEFAULT_STACK_SIZE);
 191              		.loc 1 43 5 is_stmt 1
GAS LISTING /tmp/ccAINQcZ.s 			page 5


 192              		.loc 1 43 34 is_stmt 0
 193 00bc 37150000 		li	a0,4096
 194              	.LVL8:
 195 00c0 97000000 		call	mem_alloc
 195      E7800000 
 196              	.LVL9:
  44:src/syscall_c.cpp ****     if(stack_space == nullptr) return -3;
 197              		.loc 1 44 5 is_stmt 1
 198 00c8 63080504 		beq	a0,zero,.L11
  45:src/syscall_c.cpp ****     //print("stack_space:", (uint64)stack_space, 0);
  46:src/syscall_c.cpp **** 
  47:src/syscall_c.cpp ****     int ret = 0;
 199              		.loc 1 47 5
 200              	.LVL10:
  48:src/syscall_c.cpp **** 
  49:src/syscall_c.cpp ****     asm volatile("mv a4, %0" : : "r" ((uint64)stack_space));
 201              		.loc 1 49 5
 202              		.loc 1 49 60 is_stmt 0
 203              	 #APP
 204              	# 49 "src/syscall_c.cpp" 1
  50              	    asm volatile("mv a3, %0" : : "r" ((uint64)arg));
 205              		mv a4, a0
 206              	# 0 "" 2
 207              		.loc 1 50 5 is_stmt 1
 208              		.loc 1 50 52 is_stmt 0
 209              	# 50 "src/syscall_c.cpp" 1
  51              	    asm volatile("mv a2, %0" : : "r" ((uint64)start_routine));
 210              		mv a3, s3
 211              	# 0 "" 2
 212              		.loc 1 51 5 is_stmt 1
 213              		.loc 1 51 62 is_stmt 0
 214              	# 51 "src/syscall_c.cpp" 1
  52              	    asm volatile("mv a1, %0" : : "r" ((uint64)handle));
 215              		mv a2, s2
 216              	# 0 "" 2
 217              		.loc 1 52 5 is_stmt 1
 218              		.loc 1 52 55 is_stmt 0
 219              	# 52 "src/syscall_c.cpp" 1
  53              	    asm volatile("li a0, 0x11");
 220              		mv a1, s1
 221              	# 0 "" 2
 222              		.loc 1 53 5 is_stmt 1
 223              		.loc 1 53 32 is_stmt 0
 224              	# 53 "src/syscall_c.cpp" 1
  54              	    
  55:src/syscall_c.cpp ****     asm volatile("ecall");   
 225              		li a0, 0x11
 226              	# 0 "" 2
 227              		.loc 1 55 5 is_stmt 1
 228              		.loc 1 55 26 is_stmt 0
 229              	# 55 "src/syscall_c.cpp" 1
  56              	
  57:src/syscall_c.cpp ****     asm volatile("mv %0, a0" : "=r" (ret));
 230              		ecall
 231              	# 0 "" 2
 232              		.loc 1 57 5 is_stmt 1
 233              		.loc 1 57 43 is_stmt 0
GAS LISTING /tmp/ccAINQcZ.s 			page 6


 234              	# 57 "src/syscall_c.cpp" 1
  58              	    return ret;
 235              		mv a0, a0
 236              	# 0 "" 2
 237              	.LVL11:
 238              	 #NO_APP
 239 00e8 1B050500 		sext.w	a0,a0
 240              	.LVL12:
 241              		.loc 1 58 5 is_stmt 1
 242              	.L8:
  59:src/syscall_c.cpp **** }
 243              		.loc 1 59 1 is_stmt 0
 244 00ec 83308102 		ld	ra,40(sp)
 245              		.cfi_restore 1
 246 00f0 03340102 		ld	s0,32(sp)
 247              		.cfi_restore 8
 248              		.cfi_def_cfa 2, 48
 249 00f4 83348101 		ld	s1,24(sp)
 250              		.cfi_restore 9
 251              	.LVL13:
 252 00f8 03390101 		ld	s2,16(sp)
 253              		.cfi_restore 18
 254              	.LVL14:
 255 00fc 83398100 		ld	s3,8(sp)
 256              		.cfi_restore 19
 257              	.LVL15:
 258 0100 13010103 		addi	sp,sp,48
 259              		.cfi_def_cfa_offset 0
 260 0104 67800000 		jr	ra
 261              	.LVL16:
 262              	.L9:
  40:src/syscall_c.cpp ****     if(start_routine == nullptr) return -2;
 263              		.loc 1 40 35
 264 0108 1305F0FF 		li	a0,-1
 265              	.LVL17:
 266 010c 67800000 		ret
 267              	.LVL18:
 268              	.L10:
  41:src/syscall_c.cpp **** 
 269              		.loc 1 41 42
 270 0110 1305E0FF 		li	a0,-2
 271              	.LVL19:
 272              		.loc 1 59 1
 273 0114 67800000 		ret
 274              	.LVL20:
 275              	.L11:
 276              		.cfi_def_cfa_register 8
 277              		.cfi_offset 1, -8
 278              		.cfi_offset 8, -16
 279              		.cfi_offset 9, -24
 280              		.cfi_offset 18, -32
 281              		.cfi_offset 19, -40
  44:src/syscall_c.cpp ****     //print("stack_space:", (uint64)stack_space, 0);
 282              		.loc 1 44 40
 283 0118 1305D0FF 		li	a0,-3
 284              	.LVL21:
 285 011c 6FF01FFD 		j	.L8
GAS LISTING /tmp/ccAINQcZ.s 			page 7


 286              		.cfi_endproc
 287              	.LFE4:
 289              		.align	2
 290              		.globl	thread_exit
 292              	thread_exit:
 293              	.LFB5:
  60:src/syscall_c.cpp **** 
  61:src/syscall_c.cpp **** extern "C" int thread_exit()
  62:src/syscall_c.cpp **** {
 294              		.loc 1 62 1 is_stmt 1
 295              		.cfi_startproc
 296 0120 130101FF 		addi	sp,sp,-16
 297              		.cfi_def_cfa_offset 16
 298 0124 23348100 		sd	s0,8(sp)
 299              		.cfi_offset 8, -8
 300 0128 13040101 		addi	s0,sp,16
 301              		.cfi_def_cfa 8, 0
  63:src/syscall_c.cpp ****     int ret = 0;
 302              		.loc 1 63 5
 303              	.LVL22:
  64:src/syscall_c.cpp **** 
  65:src/syscall_c.cpp ****     asm volatile("li a0, 0x12");
 304              		.loc 1 65 5
 305              		.loc 1 65 32 is_stmt 0
 306              	 #APP
 307              	# 65 "src/syscall_c.cpp" 1
  66              	    asm volatile("ecall");
 308              		li a0, 0x12
 309              	# 0 "" 2
 310              		.loc 1 66 5 is_stmt 1
 311              		.loc 1 66 26 is_stmt 0
 312              	# 66 "src/syscall_c.cpp" 1
  67              	
  68:src/syscall_c.cpp ****     return ret;
 313              		ecall
 314              	# 0 "" 2
 315              		.loc 1 68 5 is_stmt 1
  69:src/syscall_c.cpp **** }
 316              		.loc 1 69 1 is_stmt 0
 317              	 #NO_APP
 318 0134 13050000 		li	a0,0
 319 0138 03348100 		ld	s0,8(sp)
 320              		.cfi_restore 8
 321              		.cfi_def_cfa 2, 16
 322 013c 13010101 		addi	sp,sp,16
 323              		.cfi_def_cfa_offset 0
 324 0140 67800000 		jr	ra
 325              		.cfi_endproc
 326              	.LFE5:
 328              		.align	2
 329              		.globl	sem_open
 331              	sem_open:
 332              	.LFB6:
  70:src/syscall_c.cpp **** 
  71:src/syscall_c.cpp **** extern "C" int sem_open(sem_t* handle, unsigned val)
  72:src/syscall_c.cpp **** {
 333              		.loc 1 72 1 is_stmt 1
GAS LISTING /tmp/ccAINQcZ.s 			page 8


 334              		.cfi_startproc
 335              	.LVL23:
 336 0144 130101FF 		addi	sp,sp,-16
 337              		.cfi_def_cfa_offset 16
 338 0148 23348100 		sd	s0,8(sp)
 339              		.cfi_offset 8, -8
 340 014c 13040101 		addi	s0,sp,16
 341              		.cfi_def_cfa 8, 0
  73:src/syscall_c.cpp ****     int ret = 0;
 342              		.loc 1 73 5
 343              	.LVL24:
  74:src/syscall_c.cpp ****     if(handle == nullptr) return -1;
 344              		.loc 1 74 5
 345 0150 63040502 		beq	a0,zero,.L20
  75:src/syscall_c.cpp **** 
  76:src/syscall_c.cpp ****     asm volatile("mv a2, %0" : : "r" (val));
 346              		.loc 1 76 5
 347              		.loc 1 76 44 is_stmt 0
 348              	 #APP
 349              	# 76 "src/syscall_c.cpp" 1
  77              	    asm volatile("mv a1, %0" : : "r" (handle));
 350              		mv a2, a1
 351              	# 0 "" 2
 352              		.loc 1 77 5 is_stmt 1
 353              		.loc 1 77 47 is_stmt 0
 354              	# 77 "src/syscall_c.cpp" 1
  78              	    asm volatile("li a0, 0x21");
 355              		mv a1, a0
 356              	# 0 "" 2
 357              		.loc 1 78 5 is_stmt 1
 358              		.loc 1 78 32 is_stmt 0
 359              	# 78 "src/syscall_c.cpp" 1
  79              	    asm volatile("ecall");
 360              		li a0, 0x21
 361              	# 0 "" 2
 362              		.loc 1 79 5 is_stmt 1
 363              		.loc 1 79 26 is_stmt 0
 364              	# 79 "src/syscall_c.cpp" 1
  80              	
  81:src/syscall_c.cpp ****     asm volatile("mv %0, a0" : "=r" (ret));
 365              		ecall
 366              	# 0 "" 2
 367              		.loc 1 81 5 is_stmt 1
 368              		.loc 1 81 43 is_stmt 0
 369              	# 81 "src/syscall_c.cpp" 1
  82              	    return ret;
 370              		mv a0, a0
 371              	# 0 "" 2
 372              	.LVL25:
 373              	 #NO_APP
 374 0168 1B050500 		sext.w	a0,a0
 375              	.LVL26:
 376              		.loc 1 82 5 is_stmt 1
 377              	.L19:
  83:src/syscall_c.cpp **** }
 378              		.loc 1 83 1 is_stmt 0
 379 016c 03348100 		ld	s0,8(sp)
GAS LISTING /tmp/ccAINQcZ.s 			page 9


 380              		.cfi_remember_state
 381              		.cfi_restore 8
 382              		.cfi_def_cfa 2, 16
 383 0170 13010101 		addi	sp,sp,16
 384              		.cfi_def_cfa_offset 0
 385 0174 67800000 		jr	ra
 386              	.LVL27:
 387              	.L20:
 388              		.cfi_restore_state
  74:src/syscall_c.cpp **** 
 389              		.loc 1 74 35
 390 0178 1305F0FF 		li	a0,-1
 391              	.LVL28:
 392 017c 6FF01FFF 		j	.L19
 393              		.cfi_endproc
 394              	.LFE6:
 396              		.align	2
 397              		.globl	sem_close
 399              	sem_close:
 400              	.LFB7:
  84:src/syscall_c.cpp **** 
  85:src/syscall_c.cpp **** extern "C" int sem_close(sem_t handle)
  86:src/syscall_c.cpp **** {
 401              		.loc 1 86 1 is_stmt 1
 402              		.cfi_startproc
 403              	.LVL29:
 404 0180 130101FF 		addi	sp,sp,-16
 405              		.cfi_def_cfa_offset 16
 406 0184 23348100 		sd	s0,8(sp)
 407              		.cfi_offset 8, -8
 408 0188 13040101 		addi	s0,sp,16
 409              		.cfi_def_cfa 8, 0
  87:src/syscall_c.cpp ****     int ret = 0;
 410              		.loc 1 87 5
 411              	.LVL30:
  88:src/syscall_c.cpp ****     if(handle == nullptr) return -1;
 412              		.loc 1 88 5
 413 018c 63020502 		beq	a0,zero,.L24
  89:src/syscall_c.cpp **** 
  90:src/syscall_c.cpp ****     asm volatile("mv a1, %0" : : "r" (handle));
 414              		.loc 1 90 5
 415              		.loc 1 90 47 is_stmt 0
 416              	 #APP
 417              	# 90 "src/syscall_c.cpp" 1
  91              	    asm volatile("li a0, 0x22");
 418              		mv a1, a0
 419              	# 0 "" 2
 420              		.loc 1 91 5 is_stmt 1
 421              		.loc 1 91 32 is_stmt 0
 422              	# 91 "src/syscall_c.cpp" 1
  92              	    asm volatile("ecall");
 423              		li a0, 0x22
 424              	# 0 "" 2
 425              		.loc 1 92 5 is_stmt 1
 426              		.loc 1 92 26 is_stmt 0
 427              	# 92 "src/syscall_c.cpp" 1
  93              	
GAS LISTING /tmp/ccAINQcZ.s 			page 10


  94:src/syscall_c.cpp ****     asm volatile("mv %0, a0" : "=r" (ret));
 428              		ecall
 429              	# 0 "" 2
 430              		.loc 1 94 5 is_stmt 1
 431              		.loc 1 94 43 is_stmt 0
 432              	# 94 "src/syscall_c.cpp" 1
  95              	    return ret;
 433              		mv a0, a0
 434              	# 0 "" 2
 435              	.LVL31:
 436              	 #NO_APP
 437 01a0 1B050500 		sext.w	a0,a0
 438              	.LVL32:
 439              		.loc 1 95 5 is_stmt 1
 440              	.L23:
  96:src/syscall_c.cpp **** }
 441              		.loc 1 96 1 is_stmt 0
 442 01a4 03348100 		ld	s0,8(sp)
 443              		.cfi_remember_state
 444              		.cfi_restore 8
 445              		.cfi_def_cfa 2, 16
 446 01a8 13010101 		addi	sp,sp,16
 447              		.cfi_def_cfa_offset 0
 448 01ac 67800000 		jr	ra
 449              	.LVL33:
 450              	.L24:
 451              		.cfi_restore_state
  88:src/syscall_c.cpp **** 
 452              		.loc 1 88 35
 453 01b0 1305F0FF 		li	a0,-1
 454              	.LVL34:
 455 01b4 6FF01FFF 		j	.L23
 456              		.cfi_endproc
 457              	.LFE7:
 459              		.align	2
 460              		.globl	sem_wait
 462              	sem_wait:
 463              	.LFB8:
  97:src/syscall_c.cpp **** 
  98:src/syscall_c.cpp **** extern "C" int sem_wait(sem_t id)
  99:src/syscall_c.cpp **** {
 464              		.loc 1 99 1 is_stmt 1
 465              		.cfi_startproc
 466              	.LVL35:
 467 01b8 130101FF 		addi	sp,sp,-16
 468              		.cfi_def_cfa_offset 16
 469 01bc 23348100 		sd	s0,8(sp)
 470              		.cfi_offset 8, -8
 471 01c0 13040101 		addi	s0,sp,16
 472              		.cfi_def_cfa 8, 0
 100:src/syscall_c.cpp ****     int ret = 0;
 473              		.loc 1 100 5
 474              	.LVL36:
 101:src/syscall_c.cpp ****     if(id == nullptr) return -1;
 475              		.loc 1 101 5
 476 01c4 63020502 		beq	a0,zero,.L28
 102:src/syscall_c.cpp ****     
GAS LISTING /tmp/ccAINQcZ.s 			page 11


 103:src/syscall_c.cpp ****     asm volatile("mv a1, %0" : : "r" (id));
 477              		.loc 1 103 5
 478              		.loc 1 103 43 is_stmt 0
 479              	 #APP
 480              	# 103 "src/syscall_c.cpp" 1
 104              	    asm volatile("li a0, 0x23");
 481              		mv a1, a0
 482              	# 0 "" 2
 483              		.loc 1 104 5 is_stmt 1
 484              		.loc 1 104 32 is_stmt 0
 485              	# 104 "src/syscall_c.cpp" 1
 105              	    asm volatile("ecall");
 486              		li a0, 0x23
 487              	# 0 "" 2
 488              		.loc 1 105 5 is_stmt 1
 489              		.loc 1 105 26 is_stmt 0
 490              	# 105 "src/syscall_c.cpp" 1
 106              	
 107:src/syscall_c.cpp ****     asm volatile("mv %0, a0" : "=r" (ret));
 491              		ecall
 492              	# 0 "" 2
 493              		.loc 1 107 5 is_stmt 1
 494              		.loc 1 107 43 is_stmt 0
 495              	# 107 "src/syscall_c.cpp" 1
 108              	    return ret;
 496              		mv a0, a0
 497              	# 0 "" 2
 498              	.LVL37:
 499              	 #NO_APP
 500 01d8 1B050500 		sext.w	a0,a0
 501              	.LVL38:
 502              		.loc 1 108 5 is_stmt 1
 503              	.L27:
 109:src/syscall_c.cpp **** }
 504              		.loc 1 109 1 is_stmt 0
 505 01dc 03348100 		ld	s0,8(sp)
 506              		.cfi_remember_state
 507              		.cfi_restore 8
 508              		.cfi_def_cfa 2, 16
 509 01e0 13010101 		addi	sp,sp,16
 510              		.cfi_def_cfa_offset 0
 511 01e4 67800000 		jr	ra
 512              	.LVL39:
 513              	.L28:
 514              		.cfi_restore_state
 101:src/syscall_c.cpp ****     
 515              		.loc 1 101 31
 516 01e8 1305F0FF 		li	a0,-1
 517              	.LVL40:
 518 01ec 6FF01FFF 		j	.L27
 519              		.cfi_endproc
 520              	.LFE8:
 522              		.align	2
 523              		.globl	sem_signal
 525              	sem_signal:
 526              	.LFB9:
 110:src/syscall_c.cpp **** 
GAS LISTING /tmp/ccAINQcZ.s 			page 12


 111:src/syscall_c.cpp **** extern "C" int sem_signal(sem_t id)
 112:src/syscall_c.cpp **** {
 527              		.loc 1 112 1 is_stmt 1
 528              		.cfi_startproc
 529              	.LVL41:
 530 01f0 130101FF 		addi	sp,sp,-16
 531              		.cfi_def_cfa_offset 16
 532 01f4 23348100 		sd	s0,8(sp)
 533              		.cfi_offset 8, -8
 534 01f8 13040101 		addi	s0,sp,16
 535              		.cfi_def_cfa 8, 0
 113:src/syscall_c.cpp ****     int ret = 0;
 536              		.loc 1 113 5
 537              	.LVL42:
 114:src/syscall_c.cpp ****     if(id == nullptr) return -1;
 538              		.loc 1 114 5
 539 01fc 63020502 		beq	a0,zero,.L32
 115:src/syscall_c.cpp **** 
 116:src/syscall_c.cpp ****     asm volatile("mv a1, %0" : :"r"(id));
 540              		.loc 1 116 5
 541              		.loc 1 116 41 is_stmt 0
 542              	 #APP
 543              	# 116 "src/syscall_c.cpp" 1
 117              	    asm volatile("li a0, 0x24");
 544              		mv a1, a0
 545              	# 0 "" 2
 546              		.loc 1 117 5 is_stmt 1
 547              		.loc 1 117 32 is_stmt 0
 548              	# 117 "src/syscall_c.cpp" 1
 118              	    asm volatile("ecall");
 549              		li a0, 0x24
 550              	# 0 "" 2
 551              		.loc 1 118 5 is_stmt 1
 552              		.loc 1 118 26 is_stmt 0
 553              	# 118 "src/syscall_c.cpp" 1
 119              	
 120:src/syscall_c.cpp ****     asm volatile("mv %0, a0" : "=r" (ret));
 554              		ecall
 555              	# 0 "" 2
 556              		.loc 1 120 5 is_stmt 1
 557              		.loc 1 120 43 is_stmt 0
 558              	# 120 "src/syscall_c.cpp" 1
 121              	    return ret;
 559              		mv a0, a0
 560              	# 0 "" 2
 561              	.LVL43:
 562              	 #NO_APP
 563 0210 1B050500 		sext.w	a0,a0
 564              	.LVL44:
 565              		.loc 1 121 5 is_stmt 1
 566              	.L31:
 122:src/syscall_c.cpp **** }
 567              		.loc 1 122 1 is_stmt 0
 568 0214 03348100 		ld	s0,8(sp)
 569              		.cfi_remember_state
 570              		.cfi_restore 8
 571              		.cfi_def_cfa 2, 16
GAS LISTING /tmp/ccAINQcZ.s 			page 13


 572 0218 13010101 		addi	sp,sp,16
 573              		.cfi_def_cfa_offset 0
 574 021c 67800000 		jr	ra
 575              	.LVL45:
 576              	.L32:
 577              		.cfi_restore_state
 114:src/syscall_c.cpp **** 
 578              		.loc 1 114 31
 579 0220 1305F0FF 		li	a0,-1
 580              	.LVL46:
 581 0224 6FF01FFF 		j	.L31
 582              		.cfi_endproc
 583              	.LFE9:
 585              		.align	2
 586              		.globl	time_sleep
 588              	time_sleep:
 589              	.LFB10:
 123:src/syscall_c.cpp **** 
 124:src/syscall_c.cpp **** extern "C" int time_sleep(time_t time){
 590              		.loc 1 124 39 is_stmt 1
 591              		.cfi_startproc
 592              	.LVL47:
 593 0228 130101FF 		addi	sp,sp,-16
 594              		.cfi_def_cfa_offset 16
 595 022c 23348100 		sd	s0,8(sp)
 596              		.cfi_offset 8, -8
 597 0230 13040101 		addi	s0,sp,16
 598              		.cfi_def_cfa 8, 0
 125:src/syscall_c.cpp ****     int ret = 0;
 599              		.loc 1 125 5
 600              	.LVL48:
 126:src/syscall_c.cpp ****     if(time == 0) return -1;
 601              		.loc 1 126 5
 602 0234 63020502 		beq	a0,zero,.L36
 127:src/syscall_c.cpp **** 
 128:src/syscall_c.cpp ****     asm volatile("mv a1, %0" : :"r"(time));
 603              		.loc 1 128 5
 604              		.loc 1 128 43 is_stmt 0
 605              	 #APP
 606              	# 128 "src/syscall_c.cpp" 1
 129              	    asm volatile("li a0, 0x31");
 607              		mv a1, a0
 608              	# 0 "" 2
 609              		.loc 1 129 5 is_stmt 1
 610              		.loc 1 129 32 is_stmt 0
 611              	# 129 "src/syscall_c.cpp" 1
 130              	    asm volatile("ecall");
 612              		li a0, 0x31
 613              	# 0 "" 2
 614              		.loc 1 130 5 is_stmt 1
 615              		.loc 1 130 26 is_stmt 0
 616              	# 130 "src/syscall_c.cpp" 1
 131              	
 132:src/syscall_c.cpp ****     asm volatile("mv %0, a0" : "=r" (ret));
 617              		ecall
 618              	# 0 "" 2
 619              		.loc 1 132 5 is_stmt 1
GAS LISTING /tmp/ccAINQcZ.s 			page 14


 620              		.loc 1 132 43 is_stmt 0
 621              	# 132 "src/syscall_c.cpp" 1
 133              	    return ret;
 622              		mv a0, a0
 623              	# 0 "" 2
 624              	.LVL49:
 625              	 #NO_APP
 626 0248 1B050500 		sext.w	a0,a0
 627              	.LVL50:
 628              		.loc 1 133 5 is_stmt 1
 629              	.L35:
 134:src/syscall_c.cpp **** }
 630              		.loc 1 134 1 is_stmt 0
 631 024c 03348100 		ld	s0,8(sp)
 632              		.cfi_remember_state
 633              		.cfi_restore 8
 634              		.cfi_def_cfa 2, 16
 635 0250 13010101 		addi	sp,sp,16
 636              		.cfi_def_cfa_offset 0
 637 0254 67800000 		jr	ra
 638              	.LVL51:
 639              	.L36:
 640              		.cfi_restore_state
 126:src/syscall_c.cpp **** 
 641              		.loc 1 126 27
 642 0258 1305F0FF 		li	a0,-1
 643              	.LVL52:
 644 025c 6FF01FFF 		j	.L35
 645              		.cfi_endproc
 646              	.LFE10:
 648              		.align	2
 649              		.globl	getc
 651              	getc:
 652              	.LFB11:
 135:src/syscall_c.cpp **** 
 136:src/syscall_c.cpp **** const int EOF = -1;
 137:src/syscall_c.cpp **** extern "C" char getc(){
 653              		.loc 1 137 23 is_stmt 1
 654              		.cfi_startproc
 655 0260 130101FF 		addi	sp,sp,-16
 656              		.cfi_def_cfa_offset 16
 657 0264 23348100 		sd	s0,8(sp)
 658              		.cfi_offset 8, -8
 659 0268 13040101 		addi	s0,sp,16
 660              		.cfi_def_cfa 8, 0
 138:src/syscall_c.cpp ****     unsigned ret;
 661              		.loc 1 138 5
 139:src/syscall_c.cpp **** 
 140:src/syscall_c.cpp ****     asm volatile("li a0, 0x41");
 662              		.loc 1 140 5
 663              		.loc 1 140 32 is_stmt 0
 664              	 #APP
 665              	# 140 "src/syscall_c.cpp" 1
 141              	    asm volatile("ecall");
 666              		li a0, 0x41
 667              	# 0 "" 2
 668              		.loc 1 141 5 is_stmt 1
GAS LISTING /tmp/ccAINQcZ.s 			page 15


 669              		.loc 1 141 26 is_stmt 0
 670              	# 141 "src/syscall_c.cpp" 1
 142              	
 143:src/syscall_c.cpp ****     asm volatile("mv %0, a0" : "=r" (ret));
 671              		ecall
 672              	# 0 "" 2
 673              		.loc 1 143 5 is_stmt 1
 674              		.loc 1 143 43 is_stmt 0
 675              	# 143 "src/syscall_c.cpp" 1
 144              	    if(ret < 256) return ret;
 676              		mv a0, a0
 677              	# 0 "" 2
 678              	 #NO_APP
 679 0278 1B050500 		sext.w	a0,a0
 680              	.LVL53:
 681              		.loc 1 144 5 is_stmt 1
 682 027c 9307F00F 		li	a5,255
 683 0280 63EAA700 		bgtu	a0,a5,.L40
 684              		.loc 1 144 19 discriminator 1
 685              		.loc 1 144 26 is_stmt 0 discriminator 1
 686 0284 1375F50F 		andi	a0,a0,0xff
 687              	.LVL54:
 688              	.L39:
 145:src/syscall_c.cpp ****     else return EOF;
 146:src/syscall_c.cpp **** }
 689              		.loc 1 146 1
 690 0288 03348100 		ld	s0,8(sp)
 691              		.cfi_remember_state
 692              		.cfi_restore 8
 693              		.cfi_def_cfa 2, 16
 694 028c 13010101 		addi	sp,sp,16
 695              		.cfi_def_cfa_offset 0
 696 0290 67800000 		jr	ra
 697              	.LVL55:
 698              	.L40:
 699              		.cfi_restore_state
 145:src/syscall_c.cpp ****     else return EOF;
 700              		.loc 1 145 17
 701 0294 1305F00F 		li	a0,255
 702              	.LVL56:
 703 0298 6FF01FFF 		j	.L39
 704              		.cfi_endproc
 705              	.LFE11:
 707              		.align	2
 708              		.globl	putc
 710              	putc:
 711              	.LFB12:
 147:src/syscall_c.cpp **** 
 148:src/syscall_c.cpp **** extern "C" void putc(char c){
 712              		.loc 1 148 29 is_stmt 1
 713              		.cfi_startproc
 714              	.LVL57:
 715 029c 130101FF 		addi	sp,sp,-16
 716              		.cfi_def_cfa_offset 16
 717 02a0 23348100 		sd	s0,8(sp)
 718              		.cfi_offset 8, -8
 719 02a4 13040101 		addi	s0,sp,16
GAS LISTING /tmp/ccAINQcZ.s 			page 16


 720              		.cfi_def_cfa 8, 0
 149:src/syscall_c.cpp ****     asm volatile("mv a1, a0");
 721              		.loc 1 149 5
 722              		.loc 1 149 30 is_stmt 0
 723              	 #APP
 724              	# 149 "src/syscall_c.cpp" 1
 150              	    asm volatile("li a0, 0x42");
 725              		mv a1, a0
 726              	# 0 "" 2
 727              		.loc 1 150 5 is_stmt 1
 728              		.loc 1 150 32 is_stmt 0
 729              	# 150 "src/syscall_c.cpp" 1
 151              	    asm volatile("ecall");
 730              		li a0, 0x42
 731              	# 0 "" 2
 732              		.loc 1 151 5 is_stmt 1
 733              		.loc 1 151 26 is_stmt 0
 734              	# 151 "src/syscall_c.cpp" 1
 152              	}...
 735              		ecall
 736              	# 0 "" 2
 737              		.loc 1 152 1
 738              	 #NO_APP
 739 02b4 03348100 		ld	s0,8(sp)
 740              		.cfi_restore 8
 741              		.cfi_def_cfa 2, 16
 742 02b8 13010101 		addi	sp,sp,16
 743              		.cfi_def_cfa_offset 0
 744 02bc 67800000 		jr	ra
 745              		.cfi_endproc
 746              	.LFE12:
 748              	.Letext0:
 749              		.file 2 "src/../lib/hw.h"
 750              		.file 3 "src/../h/_thread.h"
 751              		.file 4 "src/../h/_semaphore.h"
GAS LISTING /tmp/ccAINQcZ.s 			page 17

