GAS LISTING /tmp/cca4fSK0.s 			page 1


   1              		.file	"userMain.cpp"
   2              		.option nopic
   3              		.option norelax
   4              		.attribute arch, "rv64i2p0_m2p0_a2p0"
   5              		.attribute unaligned_access, 0
   6              		.attribute stack_align, 16
   7              		.text
   8              	.Ltext0:
   9              		.section	.text._ZN6ThreadD2Ev,"axG",@progbits,_ZN6ThreadD5Ev,comdat
  10              		.align	2
  11              		.weak	_ZN6ThreadD2Ev
  13              	_ZN6ThreadD2Ev:
  14              	.LFB2:
  15              		.file 1 "src/../test/../h/syscall_cpp.hpp"
   1:src/../test/../h/syscall_cpp.hpp **** #ifndef _syscall_cpp
   2:src/../test/../h/syscall_cpp.hpp **** #define _syscall_cpp
   3:src/../test/../h/syscall_cpp.hpp **** #include "syscall_c.h"
   4:src/../test/../h/syscall_cpp.hpp **** 
   5:src/../test/../h/syscall_cpp.hpp **** void* operator new (size_t);
   6:src/../test/../h/syscall_cpp.hpp **** void operator delete (void*);
   7:src/../test/../h/syscall_cpp.hpp **** struct Wrap;
   8:src/../test/../h/syscall_cpp.hpp **** 
   9:src/../test/../h/syscall_cpp.hpp **** class Thread {
  10:src/../test/../h/syscall_cpp.hpp **** public:
  11:src/../test/../h/syscall_cpp.hpp ****     Thread (void (*body)(void*), void* arg);
  12:src/../test/../h/syscall_cpp.hpp ****     virtual ~Thread (){ delete myHandle; }
  16              		.loc 1 12 13
  17              		.cfi_startproc
  18              	.LVL0:
  19 0000 130101FF 		addi	sp,sp,-16
  20              		.cfi_def_cfa_offset 16
  21 0004 23348100 		sd	s0,8(sp)
  22              		.cfi_offset 8, -8
  23 0008 13040101 		addi	s0,sp,16
  24              		.cfi_def_cfa 8, 0
  25              	.LBB108:
  26              		.loc 1 12 23 is_stmt 0
  27 000c 97070000 		lla	a5,_ZTV6Thread+16
  27      93870700 
  28 0014 2330F500 		sd	a5,0(a0)
  29              		.loc 1 12 25 is_stmt 1
  30              		.loc 1 12 32 is_stmt 0
  31 0018 83378500 		ld	a5,8(a0)
  32              	.LVL1:
  33              	.LBB109:
  34              	.LBB110:
  35              		.file 2 "src/../test/../h/../h/_thread.hpp"
   1:src/../test/../h/../h/_thread.hpp **** #ifndef ___thread___hpp
   2:src/../test/../h/../h/_thread.hpp **** #define ___thread___hpp
   3:src/../test/../h/../h/_thread.hpp **** 
   4:src/../test/../h/../h/_thread.hpp **** #include"../lib/hw.h"
   5:src/../test/../h/../h/_thread.hpp **** 
   6:src/../test/../h/../h/_thread.hpp **** class _thread{
   7:src/../test/../h/../h/_thread.hpp **** public:
   8:src/../test/../h/../h/_thread.hpp ****     void operator delete(void* ptr){
   9:src/../test/../h/../h/_thread.hpp ****         asm volatile("li a0, 0x69");
  36              		.loc 2 9 9 is_stmt 1
GAS LISTING /tmp/cca4fSK0.s 			page 2


  37              		.loc 2 9 36 is_stmt 0
  38              	 #APP
  39              	# 9 "src/../test/../h/../h/_thread.hpp" 1
  10              	        asm volatile("mv a1, %0" ::"r" ((uint64)ptr));
  40              		li a0, 0x69
  41              	# 0 "" 2
  42              		.loc 2 10 9 is_stmt 1
  43              		.loc 2 10 54 is_stmt 0
  44              	# 10 "src/../test/../h/../h/_thread.hpp" 1
  11              	        asm volatile("ecall");
  45              		mv a1, a5
  46              	# 0 "" 2
  47              		.loc 2 11 9 is_stmt 1
  48              		.loc 2 11 30 is_stmt 0
  49              	# 11 "src/../test/../h/../h/_thread.hpp" 1
  12              	    }
  50              		ecall
  51              	# 0 "" 2
  52              	.LVL2:
  53              	 #NO_APP
  54              	.LBE110:
  55              	.LBE109:
  56              	.LBE108:
  57              		.loc 1 12 42
  58 0028 03348100 		ld	s0,8(sp)
  59              		.cfi_restore 8
  60              		.cfi_def_cfa 2, 16
  61 002c 13010101 		addi	sp,sp,16
  62              		.cfi_def_cfa_offset 0
  63 0030 67800000 		jr	ra
  64              		.cfi_endproc
  65              	.LFE2:
  67              		.weak	_ZN6ThreadD1Ev
  68              		.set	_ZN6ThreadD1Ev,_ZN6ThreadD2Ev
  69              		.section	.text._ZN6Thread3runEv,"axG",@progbits,_ZN6Thread3runEv,comdat
  70              		.align	2
  71              		.weak	_ZN6Thread3runEv
  73              	_ZN6Thread3runEv:
  74              	.LFB10:
  13:src/../test/../h/syscall_cpp.hpp ****     void start ();
  14:src/../test/../h/syscall_cpp.hpp ****     static void dispatch () { thread_dispatch(); }
  15:src/../test/../h/syscall_cpp.hpp ****     static void sleep (time_t time){ time_sleep(time); }
  16:src/../test/../h/syscall_cpp.hpp **** protected:
  17:src/../test/../h/syscall_cpp.hpp ****     Thread (){ myHandle = nullptr; this->w = nullptr;}
  18:src/../test/../h/syscall_cpp.hpp ****     virtual void run () {}
  75              		.loc 1 18 18 is_stmt 1
  76              		.cfi_startproc
  77              	.LVL3:
  78 0000 130101FF 		addi	sp,sp,-16
  79              		.cfi_def_cfa_offset 16
  80 0004 23348100 		sd	s0,8(sp)
  81              		.cfi_offset 8, -8
  82 0008 13040101 		addi	s0,sp,16
  83              		.cfi_def_cfa 8, 0
  84              		.loc 1 18 26 is_stmt 0
  85 000c 03348100 		ld	s0,8(sp)
  86              		.cfi_restore 8
GAS LISTING /tmp/cca4fSK0.s 			page 3


  87              		.cfi_def_cfa 2, 16
  88 0010 13010101 		addi	sp,sp,16
  89              		.cfi_def_cfa_offset 0
  90 0014 67800000 		jr	ra
  91              		.cfi_endproc
  92              	.LFE10:
  94              		.section	.text._ZN19ConsumerProducerCPP8ConsumerD2Ev,"axG",@progbits,_ZN19ConsumerProducerCPP8Cons
  95              		.align	2
  96              		.weak	_ZN19ConsumerProducerCPP8ConsumerD2Ev
  98              	_ZN19ConsumerProducerCPP8ConsumerD2Ev:
  99              	.LFB38:
 100              		.file 3 "src/../test/ConsumerProducer_CPP_API_test.hpp"
   1:src/../test/ConsumerProducer_CPP_API_test.hpp **** //
   2:src/../test/ConsumerProducer_CPP_API_test.hpp **** // Created by os on 4/17/22.
   3:src/../test/ConsumerProducer_CPP_API_test.hpp **** //
   4:src/../test/ConsumerProducer_CPP_API_test.hpp **** 
   5:src/../test/ConsumerProducer_CPP_API_test.hpp **** #ifndef XV6_CONSUMERPRODUCER_CPP_API_TEST_HPP
   6:src/../test/ConsumerProducer_CPP_API_test.hpp **** #define XV6_CONSUMERPRODUCER_CPP_API_TEST_HPP
   7:src/../test/ConsumerProducer_CPP_API_test.hpp **** 
   8:src/../test/ConsumerProducer_CPP_API_test.hpp **** #include "../h/syscall_cpp.hpp"
   9:src/../test/ConsumerProducer_CPP_API_test.hpp **** 
  10:src/../test/ConsumerProducer_CPP_API_test.hpp **** #include "buffer_CPP_API.hpp"
  11:src/../test/ConsumerProducer_CPP_API_test.hpp **** #include "printing.hpp"
  12:src/../test/ConsumerProducer_CPP_API_test.hpp **** 
  13:src/../test/ConsumerProducer_CPP_API_test.hpp **** namespace ConsumerProducerCPP {
  14:src/../test/ConsumerProducer_CPP_API_test.hpp **** 
  15:src/../test/ConsumerProducer_CPP_API_test.hpp ****     Semaphore *waitForAll;
  16:src/../test/ConsumerProducer_CPP_API_test.hpp **** 
  17:src/../test/ConsumerProducer_CPP_API_test.hpp ****     struct thread_data {
  18:src/../test/ConsumerProducer_CPP_API_test.hpp ****         int id;
  19:src/../test/ConsumerProducer_CPP_API_test.hpp ****         BufferCPP *buffer;
  20:src/../test/ConsumerProducer_CPP_API_test.hpp ****         Semaphore *sem;
  21:src/../test/ConsumerProducer_CPP_API_test.hpp ****     };
  22:src/../test/ConsumerProducer_CPP_API_test.hpp **** 
  23:src/../test/ConsumerProducer_CPP_API_test.hpp ****     volatile int threadEnd = 0;
  24:src/../test/ConsumerProducer_CPP_API_test.hpp **** 
  25:src/../test/ConsumerProducer_CPP_API_test.hpp ****     class ProducerKeyborad : public Thread {
  26:src/../test/ConsumerProducer_CPP_API_test.hpp ****         thread_data *td;
  27:src/../test/ConsumerProducer_CPP_API_test.hpp ****     public:
  28:src/../test/ConsumerProducer_CPP_API_test.hpp ****         ProducerKeyborad(thread_data *_td) : Thread(), td(_td) {}
  29:src/../test/ConsumerProducer_CPP_API_test.hpp **** 
  30:src/../test/ConsumerProducer_CPP_API_test.hpp ****         void run() override {
  31:src/../test/ConsumerProducer_CPP_API_test.hpp ****             int key;
  32:src/../test/ConsumerProducer_CPP_API_test.hpp ****             int i = 0;
  33:src/../test/ConsumerProducer_CPP_API_test.hpp ****             while ((key = getc()) != 0x1b) {
  34:src/../test/ConsumerProducer_CPP_API_test.hpp ****                 td->buffer->put(key);
  35:src/../test/ConsumerProducer_CPP_API_test.hpp ****                 i++;
  36:src/../test/ConsumerProducer_CPP_API_test.hpp ****             }
  37:src/../test/ConsumerProducer_CPP_API_test.hpp **** 
  38:src/../test/ConsumerProducer_CPP_API_test.hpp ****             threadEnd = 1;
  39:src/../test/ConsumerProducer_CPP_API_test.hpp ****             td->buffer->put('!');
  40:src/../test/ConsumerProducer_CPP_API_test.hpp **** 
  41:src/../test/ConsumerProducer_CPP_API_test.hpp ****             td->sem->signal();
  42:src/../test/ConsumerProducer_CPP_API_test.hpp ****         }
  43:src/../test/ConsumerProducer_CPP_API_test.hpp ****     };
  44:src/../test/ConsumerProducer_CPP_API_test.hpp **** 
  45:src/../test/ConsumerProducer_CPP_API_test.hpp ****     class Producer : public Thread {
GAS LISTING /tmp/cca4fSK0.s 			page 4


  46:src/../test/ConsumerProducer_CPP_API_test.hpp ****         thread_data *td;
  47:src/../test/ConsumerProducer_CPP_API_test.hpp ****     public:
  48:src/../test/ConsumerProducer_CPP_API_test.hpp ****         Producer(thread_data *_td) : Thread(), td(_td) {}
  49:src/../test/ConsumerProducer_CPP_API_test.hpp **** 
  50:src/../test/ConsumerProducer_CPP_API_test.hpp ****         void run() override {
  51:src/../test/ConsumerProducer_CPP_API_test.hpp ****             int i = 0;
  52:src/../test/ConsumerProducer_CPP_API_test.hpp ****             while (!threadEnd) {
  53:src/../test/ConsumerProducer_CPP_API_test.hpp ****                 td->buffer->put(td->id + '0');
  54:src/../test/ConsumerProducer_CPP_API_test.hpp ****                 i++;
  55:src/../test/ConsumerProducer_CPP_API_test.hpp ****                 Thread::sleep((i+td->id)%5);
  56:src/../test/ConsumerProducer_CPP_API_test.hpp ****             }
  57:src/../test/ConsumerProducer_CPP_API_test.hpp **** 
  58:src/../test/ConsumerProducer_CPP_API_test.hpp ****             td->sem->signal();
  59:src/../test/ConsumerProducer_CPP_API_test.hpp ****         }
  60:src/../test/ConsumerProducer_CPP_API_test.hpp ****     };
  61:src/../test/ConsumerProducer_CPP_API_test.hpp **** 
  62:src/../test/ConsumerProducer_CPP_API_test.hpp ****     class Consumer : public Thread {
 101              		.loc 3 62 11 is_stmt 1
 102              		.cfi_startproc
 103              	.LVL4:
 104 0000 130101FF 		addi	sp,sp,-16
 105              		.cfi_def_cfa_offset 16
 106 0004 23348100 		sd	s0,8(sp)
 107              		.cfi_offset 8, -8
 108 0008 13040101 		addi	s0,sp,16
 109              		.cfi_def_cfa 8, 0
 110              	.LVL5:
 111              	.LBB111:
 112              	.LBB112:
  12:src/../test/../h/syscall_cpp.hpp ****     void start ();
 113              		.loc 1 12 23 is_stmt 0
 114 000c 97070000 		lla	a5,_ZTV6Thread+16
 114      93870700 
 115 0014 2330F500 		sd	a5,0(a0)
  12:src/../test/../h/syscall_cpp.hpp ****     void start ();
 116              		.loc 1 12 25 is_stmt 1
  12:src/../test/../h/syscall_cpp.hpp ****     void start ();
 117              		.loc 1 12 32 is_stmt 0
 118 0018 83378500 		ld	a5,8(a0)
 119              	.LVL6:
 120              	.LBB113:
 121              	.LBB114:
   9:src/../test/../h/../h/_thread.hpp ****         asm volatile("mv a1, %0" ::"r" ((uint64)ptr));
 122              		.loc 2 9 9 is_stmt 1
   9:src/../test/../h/../h/_thread.hpp ****         asm volatile("mv a1, %0" ::"r" ((uint64)ptr));
 123              		.loc 2 9 36 is_stmt 0
 124              	 #APP
 125              	# 9 "src/../test/../h/../h/_thread.hpp" 1
  10:src/../test/../h/../h/_thread.hpp ****         asm volatile("ecall");
 126              		li a0, 0x69
 127              	# 0 "" 2
 128              		.loc 2 10 9 is_stmt 1
  10:src/../test/../h/../h/_thread.hpp ****         asm volatile("ecall");
 129              		.loc 2 10 54 is_stmt 0
 130              	# 10 "src/../test/../h/../h/_thread.hpp" 1
  11:src/../test/../h/../h/_thread.hpp ****     }
 131              		mv a1, a5
GAS LISTING /tmp/cca4fSK0.s 			page 5


 132              	# 0 "" 2
 133              		.loc 2 11 9 is_stmt 1
  11:src/../test/../h/../h/_thread.hpp ****     }
 134              		.loc 2 11 30 is_stmt 0
 135              	# 11 "src/../test/../h/../h/_thread.hpp" 1
 136              		ecall
 137              	# 0 "" 2
 138              	.LVL7:
 139              	 #NO_APP
 140              	.LBE114:
 141              	.LBE113:
 142              	.LBE112:
 143              	.LBE111:
 144              		.loc 3 62 11
 145 0028 03348100 		ld	s0,8(sp)
 146              		.cfi_restore 8
 147              		.cfi_def_cfa 2, 16
 148 002c 13010101 		addi	sp,sp,16
 149              		.cfi_def_cfa_offset 0
 150 0030 67800000 		jr	ra
 151              		.cfi_endproc
 152              	.LFE38:
 154              		.weak	_ZN19ConsumerProducerCPP8ConsumerD1Ev
 155              		.set	_ZN19ConsumerProducerCPP8ConsumerD1Ev,_ZN19ConsumerProducerCPP8ConsumerD2Ev
 156              		.section	.text._ZN19ConsumerProducerCPP8ProducerD2Ev,"axG",@progbits,_ZN19ConsumerProducerCPP8Prod
 157              		.align	2
 158              		.weak	_ZN19ConsumerProducerCPP8ProducerD2Ev
 160              	_ZN19ConsumerProducerCPP8ProducerD2Ev:
 161              	.LFB42:
  45:src/../test/ConsumerProducer_CPP_API_test.hpp ****         thread_data *td;
 162              		.loc 3 45 11 is_stmt 1
 163              		.cfi_startproc
 164              	.LVL8:
 165 0000 130101FF 		addi	sp,sp,-16
 166              		.cfi_def_cfa_offset 16
 167 0004 23348100 		sd	s0,8(sp)
 168              		.cfi_offset 8, -8
 169 0008 13040101 		addi	s0,sp,16
 170              		.cfi_def_cfa 8, 0
 171              	.LVL9:
 172              	.LBB115:
 173              	.LBB116:
  12:src/../test/../h/syscall_cpp.hpp ****     void start ();
 174              		.loc 1 12 23 is_stmt 0
 175 000c 97070000 		lla	a5,_ZTV6Thread+16
 175      93870700 
 176 0014 2330F500 		sd	a5,0(a0)
  12:src/../test/../h/syscall_cpp.hpp ****     void start ();
 177              		.loc 1 12 25 is_stmt 1
  12:src/../test/../h/syscall_cpp.hpp ****     void start ();
 178              		.loc 1 12 32 is_stmt 0
 179 0018 83378500 		ld	a5,8(a0)
 180              	.LVL10:
 181              	.LBB117:
 182              	.LBB118:
   9:src/../test/../h/../h/_thread.hpp ****         asm volatile("mv a1, %0" ::"r" ((uint64)ptr));
 183              		.loc 2 9 9 is_stmt 1
GAS LISTING /tmp/cca4fSK0.s 			page 6


   9:src/../test/../h/../h/_thread.hpp ****         asm volatile("mv a1, %0" ::"r" ((uint64)ptr));
 184              		.loc 2 9 36 is_stmt 0
 185              	 #APP
 186              	# 9 "src/../test/../h/../h/_thread.hpp" 1
  10:src/../test/../h/../h/_thread.hpp ****         asm volatile("ecall");
 187              		li a0, 0x69
 188              	# 0 "" 2
 189              		.loc 2 10 9 is_stmt 1
  10:src/../test/../h/../h/_thread.hpp ****         asm volatile("ecall");
 190              		.loc 2 10 54 is_stmt 0
 191              	# 10 "src/../test/../h/../h/_thread.hpp" 1
  11:src/../test/../h/../h/_thread.hpp ****     }
 192              		mv a1, a5
 193              	# 0 "" 2
 194              		.loc 2 11 9 is_stmt 1
  11:src/../test/../h/../h/_thread.hpp ****     }
 195              		.loc 2 11 30 is_stmt 0
 196              	# 11 "src/../test/../h/../h/_thread.hpp" 1
 197              		ecall
 198              	# 0 "" 2
 199              	.LVL11:
 200              	 #NO_APP
 201              	.LBE118:
 202              	.LBE117:
 203              	.LBE116:
 204              	.LBE115:
  45:src/../test/ConsumerProducer_CPP_API_test.hpp ****         thread_data *td;
 205              		.loc 3 45 11
 206 0028 03348100 		ld	s0,8(sp)
 207              		.cfi_restore 8
 208              		.cfi_def_cfa 2, 16
 209 002c 13010101 		addi	sp,sp,16
 210              		.cfi_def_cfa_offset 0
 211 0030 67800000 		jr	ra
 212              		.cfi_endproc
 213              	.LFE42:
 215              		.weak	_ZN19ConsumerProducerCPP8ProducerD1Ev
 216              		.set	_ZN19ConsumerProducerCPP8ProducerD1Ev,_ZN19ConsumerProducerCPP8ProducerD2Ev
 217              		.section	.text._ZN19ConsumerProducerCPP16ProducerKeyboradD2Ev,"axG",@progbits,_ZN19ConsumerProduce
 218              		.align	2
 219              		.weak	_ZN19ConsumerProducerCPP16ProducerKeyboradD2Ev
 221              	_ZN19ConsumerProducerCPP16ProducerKeyboradD2Ev:
 222              	.LFB46:
  25:src/../test/ConsumerProducer_CPP_API_test.hpp ****         thread_data *td;
 223              		.loc 3 25 11 is_stmt 1
 224              		.cfi_startproc
 225              	.LVL12:
 226 0000 130101FF 		addi	sp,sp,-16
 227              		.cfi_def_cfa_offset 16
 228 0004 23348100 		sd	s0,8(sp)
 229              		.cfi_offset 8, -8
 230 0008 13040101 		addi	s0,sp,16
 231              		.cfi_def_cfa 8, 0
 232              	.LVL13:
 233              	.LBB119:
 234              	.LBB120:
  12:src/../test/../h/syscall_cpp.hpp ****     void start ();
GAS LISTING /tmp/cca4fSK0.s 			page 7


 235              		.loc 1 12 23 is_stmt 0
 236 000c 97070000 		lla	a5,_ZTV6Thread+16
 236      93870700 
 237 0014 2330F500 		sd	a5,0(a0)
  12:src/../test/../h/syscall_cpp.hpp ****     void start ();
 238              		.loc 1 12 25 is_stmt 1
  12:src/../test/../h/syscall_cpp.hpp ****     void start ();
 239              		.loc 1 12 32 is_stmt 0
 240 0018 83378500 		ld	a5,8(a0)
 241              	.LVL14:
 242              	.LBB121:
 243              	.LBB122:
   9:src/../test/../h/../h/_thread.hpp ****         asm volatile("mv a1, %0" ::"r" ((uint64)ptr));
 244              		.loc 2 9 9 is_stmt 1
   9:src/../test/../h/../h/_thread.hpp ****         asm volatile("mv a1, %0" ::"r" ((uint64)ptr));
 245              		.loc 2 9 36 is_stmt 0
 246              	 #APP
 247              	# 9 "src/../test/../h/../h/_thread.hpp" 1
  10:src/../test/../h/../h/_thread.hpp ****         asm volatile("ecall");
 248              		li a0, 0x69
 249              	# 0 "" 2
 250              		.loc 2 10 9 is_stmt 1
  10:src/../test/../h/../h/_thread.hpp ****         asm volatile("ecall");
 251              		.loc 2 10 54 is_stmt 0
 252              	# 10 "src/../test/../h/../h/_thread.hpp" 1
  11:src/../test/../h/../h/_thread.hpp ****     }
 253              		mv a1, a5
 254              	# 0 "" 2
 255              		.loc 2 11 9 is_stmt 1
  11:src/../test/../h/../h/_thread.hpp ****     }
 256              		.loc 2 11 30 is_stmt 0
 257              	# 11 "src/../test/../h/../h/_thread.hpp" 1
 258              		ecall
 259              	# 0 "" 2
 260              	.LVL15:
 261              	 #NO_APP
 262              	.LBE122:
 263              	.LBE121:
 264              	.LBE120:
 265              	.LBE119:
  25:src/../test/ConsumerProducer_CPP_API_test.hpp ****         thread_data *td;
 266              		.loc 3 25 11
 267 0028 03348100 		ld	s0,8(sp)
 268              		.cfi_restore 8
 269              		.cfi_def_cfa 2, 16
 270 002c 13010101 		addi	sp,sp,16
 271              		.cfi_def_cfa_offset 0
 272 0030 67800000 		jr	ra
 273              		.cfi_endproc
 274              	.LFE46:
 276              		.weak	_ZN19ConsumerProducerCPP16ProducerKeyboradD1Ev
 277              		.set	_ZN19ConsumerProducerCPP16ProducerKeyboradD1Ev,_ZN19ConsumerProducerCPP16ProducerKeyboradD2Ev
 278              		.section	.text._ZN6ThreadD0Ev,"axG",@progbits,_ZN6ThreadD5Ev,comdat
 279              		.align	2
 280              		.weak	_ZN6ThreadD0Ev
 282              	_ZN6ThreadD0Ev:
 283              	.LFB4:
GAS LISTING /tmp/cca4fSK0.s 			page 8


  12:src/../test/../h/syscall_cpp.hpp ****     void start ();
 284              		.loc 1 12 13 is_stmt 1
 285              		.cfi_startproc
 286              	.LVL16:
 287 0000 130101FF 		addi	sp,sp,-16
 288              		.cfi_def_cfa_offset 16
 289 0004 23341100 		sd	ra,8(sp)
 290 0008 23308100 		sd	s0,0(sp)
 291              		.cfi_offset 1, -8
 292              		.cfi_offset 8, -16
 293 000c 13040101 		addi	s0,sp,16
 294              		.cfi_def_cfa 8, 0
 295              	.LVL17:
 296              	.LBB123:
 297              	.LBB124:
  12:src/../test/../h/syscall_cpp.hpp ****     void start ();
 298              		.loc 1 12 23 is_stmt 0
 299 0010 17070000 		lla	a4,_ZTV6Thread+16
 299      13070700 
 300 0018 2330E500 		sd	a4,0(a0)
  12:src/../test/../h/syscall_cpp.hpp ****     void start ();
 301              		.loc 1 12 25 is_stmt 1
  12:src/../test/../h/syscall_cpp.hpp ****     void start ();
 302              		.loc 1 12 32 is_stmt 0
 303 001c 83378500 		ld	a5,8(a0)
 304              	.LVL18:
 305              	.LBB125:
 306              	.LBB126:
   9:src/../test/../h/../h/_thread.hpp ****         asm volatile("mv a1, %0" ::"r" ((uint64)ptr));
 307              		.loc 2 9 9 is_stmt 1
   9:src/../test/../h/../h/_thread.hpp ****         asm volatile("mv a1, %0" ::"r" ((uint64)ptr));
 308              		.loc 2 9 36 is_stmt 0
 309              	 #APP
 310              	# 9 "src/../test/../h/../h/_thread.hpp" 1
  10:src/../test/../h/../h/_thread.hpp ****         asm volatile("ecall");
 311              		li a0, 0x69
 312              	# 0 "" 2
 313              		.loc 2 10 9 is_stmt 1
  10:src/../test/../h/../h/_thread.hpp ****         asm volatile("ecall");
 314              		.loc 2 10 54 is_stmt 0
 315              	# 10 "src/../test/../h/../h/_thread.hpp" 1
  11:src/../test/../h/../h/_thread.hpp ****     }
 316              		mv a1, a5
 317              	# 0 "" 2
 318              		.loc 2 11 9 is_stmt 1
  11:src/../test/../h/../h/_thread.hpp ****     }
 319              		.loc 2 11 30 is_stmt 0
 320              	# 11 "src/../test/../h/../h/_thread.hpp" 1
 321              		ecall
 322              	# 0 "" 2
 323              	.LVL19:
 324              	 #NO_APP
 325              	.LBE126:
 326              	.LBE125:
 327              	.LBE124:
 328              	.LBE123:
  12:src/../test/../h/syscall_cpp.hpp ****     void start ();
GAS LISTING /tmp/cca4fSK0.s 			page 9


 329              		.loc 1 12 42
 330 002c 97000000 		call	_ZdlPv
 330      E7800000 
 331              	.LVL20:
 332 0034 83308100 		ld	ra,8(sp)
 333              		.cfi_restore 1
 334 0038 03340100 		ld	s0,0(sp)
 335              		.cfi_restore 8
 336              		.cfi_def_cfa 2, 16
 337 003c 13010101 		addi	sp,sp,16
 338              		.cfi_def_cfa_offset 0
 339 0040 67800000 		jr	ra
 340              		.cfi_endproc
 341              	.LFE4:
 343              		.section	.text._ZN19ConsumerProducerCPP8ConsumerD0Ev,"axG",@progbits,_ZN19ConsumerProducerCPP8Cons
 344              		.align	2
 345              		.weak	_ZN19ConsumerProducerCPP8ConsumerD0Ev
 347              	_ZN19ConsumerProducerCPP8ConsumerD0Ev:
 348              	.LFB40:
 349              		.loc 3 62 11 is_stmt 1
 350              		.cfi_startproc
 351              	.LVL21:
 352 0000 130101FF 		addi	sp,sp,-16
 353              		.cfi_def_cfa_offset 16
 354 0004 23341100 		sd	ra,8(sp)
 355 0008 23308100 		sd	s0,0(sp)
 356              		.cfi_offset 1, -8
 357              		.cfi_offset 8, -16
 358 000c 13040101 		addi	s0,sp,16
 359              		.cfi_def_cfa 8, 0
 360              	.LVL22:
 361              	.LBB127:
 362              	.LBB128:
 363              	.LBB129:
  12:src/../test/../h/syscall_cpp.hpp ****     void start ();
 364              		.loc 1 12 23 is_stmt 0
 365 0010 17070000 		lla	a4,_ZTV6Thread+16
 365      13070700 
 366 0018 2330E500 		sd	a4,0(a0)
  12:src/../test/../h/syscall_cpp.hpp ****     void start ();
 367              		.loc 1 12 25 is_stmt 1
  12:src/../test/../h/syscall_cpp.hpp ****     void start ();
 368              		.loc 1 12 32 is_stmt 0
 369 001c 83378500 		ld	a5,8(a0)
 370              	.LVL23:
 371              	.LBB130:
 372              	.LBB131:
   9:src/../test/../h/../h/_thread.hpp ****         asm volatile("mv a1, %0" ::"r" ((uint64)ptr));
 373              		.loc 2 9 9 is_stmt 1
   9:src/../test/../h/../h/_thread.hpp ****         asm volatile("mv a1, %0" ::"r" ((uint64)ptr));
 374              		.loc 2 9 36 is_stmt 0
 375              	 #APP
 376              	# 9 "src/../test/../h/../h/_thread.hpp" 1
  10:src/../test/../h/../h/_thread.hpp ****         asm volatile("ecall");
 377              		li a0, 0x69
 378              	# 0 "" 2
 379              		.loc 2 10 9 is_stmt 1
GAS LISTING /tmp/cca4fSK0.s 			page 10


  10:src/../test/../h/../h/_thread.hpp ****         asm volatile("ecall");
 380              		.loc 2 10 54 is_stmt 0
 381              	# 10 "src/../test/../h/../h/_thread.hpp" 1
  11:src/../test/../h/../h/_thread.hpp ****     }
 382              		mv a1, a5
 383              	# 0 "" 2
 384              		.loc 2 11 9 is_stmt 1
  11:src/../test/../h/../h/_thread.hpp ****     }
 385              		.loc 2 11 30 is_stmt 0
 386              	# 11 "src/../test/../h/../h/_thread.hpp" 1
 387              		ecall
 388              	# 0 "" 2
 389              	.LVL24:
 390              	 #NO_APP
 391              	.LBE131:
 392              	.LBE130:
 393              	.LBE129:
 394              	.LBE128:
 395              	.LBE127:
 396              		.loc 3 62 11
 397 002c 97000000 		call	_ZdlPv
 397      E7800000 
 398              	.LVL25:
 399 0034 83308100 		ld	ra,8(sp)
 400              		.cfi_restore 1
 401 0038 03340100 		ld	s0,0(sp)
 402              		.cfi_restore 8
 403              		.cfi_def_cfa 2, 16
 404 003c 13010101 		addi	sp,sp,16
 405              		.cfi_def_cfa_offset 0
 406 0040 67800000 		jr	ra
 407              		.cfi_endproc
 408              	.LFE40:
 410              		.section	.text._ZN19ConsumerProducerCPP16ProducerKeyboradD0Ev,"axG",@progbits,_ZN19ConsumerProduce
 411              		.align	2
 412              		.weak	_ZN19ConsumerProducerCPP16ProducerKeyboradD0Ev
 414              	_ZN19ConsumerProducerCPP16ProducerKeyboradD0Ev:
 415              	.LFB48:
  25:src/../test/ConsumerProducer_CPP_API_test.hpp ****         thread_data *td;
 416              		.loc 3 25 11 is_stmt 1
 417              		.cfi_startproc
 418              	.LVL26:
 419 0000 130101FF 		addi	sp,sp,-16
 420              		.cfi_def_cfa_offset 16
 421 0004 23341100 		sd	ra,8(sp)
 422 0008 23308100 		sd	s0,0(sp)
 423              		.cfi_offset 1, -8
 424              		.cfi_offset 8, -16
 425 000c 13040101 		addi	s0,sp,16
 426              		.cfi_def_cfa 8, 0
 427              	.LVL27:
 428              	.LBB132:
 429              	.LBB133:
 430              	.LBB134:
  12:src/../test/../h/syscall_cpp.hpp ****     void start ();
 431              		.loc 1 12 23 is_stmt 0
 432 0010 17070000 		lla	a4,_ZTV6Thread+16
GAS LISTING /tmp/cca4fSK0.s 			page 11


 432      13070700 
 433 0018 2330E500 		sd	a4,0(a0)
  12:src/../test/../h/syscall_cpp.hpp ****     void start ();
 434              		.loc 1 12 25 is_stmt 1
  12:src/../test/../h/syscall_cpp.hpp ****     void start ();
 435              		.loc 1 12 32 is_stmt 0
 436 001c 83378500 		ld	a5,8(a0)
 437              	.LVL28:
 438              	.LBB135:
 439              	.LBB136:
   9:src/../test/../h/../h/_thread.hpp ****         asm volatile("mv a1, %0" ::"r" ((uint64)ptr));
 440              		.loc 2 9 9 is_stmt 1
   9:src/../test/../h/../h/_thread.hpp ****         asm volatile("mv a1, %0" ::"r" ((uint64)ptr));
 441              		.loc 2 9 36 is_stmt 0
 442              	 #APP
 443              	# 9 "src/../test/../h/../h/_thread.hpp" 1
  10:src/../test/../h/../h/_thread.hpp ****         asm volatile("ecall");
 444              		li a0, 0x69
 445              	# 0 "" 2
 446              		.loc 2 10 9 is_stmt 1
  10:src/../test/../h/../h/_thread.hpp ****         asm volatile("ecall");
 447              		.loc 2 10 54 is_stmt 0
 448              	# 10 "src/../test/../h/../h/_thread.hpp" 1
  11:src/../test/../h/../h/_thread.hpp ****     }
 449              		mv a1, a5
 450              	# 0 "" 2
 451              		.loc 2 11 9 is_stmt 1
  11:src/../test/../h/../h/_thread.hpp ****     }
 452              		.loc 2 11 30 is_stmt 0
 453              	# 11 "src/../test/../h/../h/_thread.hpp" 1
 454              		ecall
 455              	# 0 "" 2
 456              	.LVL29:
 457              	 #NO_APP
 458              	.LBE136:
 459              	.LBE135:
 460              	.LBE134:
 461              	.LBE133:
 462              	.LBE132:
  25:src/../test/ConsumerProducer_CPP_API_test.hpp ****         thread_data *td;
 463              		.loc 3 25 11
 464 002c 97000000 		call	_ZdlPv
 464      E7800000 
 465              	.LVL30:
 466 0034 83308100 		ld	ra,8(sp)
 467              		.cfi_restore 1
 468 0038 03340100 		ld	s0,0(sp)
 469              		.cfi_restore 8
 470              		.cfi_def_cfa 2, 16
 471 003c 13010101 		addi	sp,sp,16
 472              		.cfi_def_cfa_offset 0
 473 0040 67800000 		jr	ra
 474              		.cfi_endproc
 475              	.LFE48:
 477              		.section	.text._ZN19ConsumerProducerCPP8ProducerD0Ev,"axG",@progbits,_ZN19ConsumerProducerCPP8Prod
 478              		.align	2
 479              		.weak	_ZN19ConsumerProducerCPP8ProducerD0Ev
GAS LISTING /tmp/cca4fSK0.s 			page 12


 481              	_ZN19ConsumerProducerCPP8ProducerD0Ev:
 482              	.LFB44:
  45:src/../test/ConsumerProducer_CPP_API_test.hpp ****         thread_data *td;
 483              		.loc 3 45 11 is_stmt 1
 484              		.cfi_startproc
 485              	.LVL31:
 486 0000 130101FF 		addi	sp,sp,-16
 487              		.cfi_def_cfa_offset 16
 488 0004 23341100 		sd	ra,8(sp)
 489 0008 23308100 		sd	s0,0(sp)
 490              		.cfi_offset 1, -8
 491              		.cfi_offset 8, -16
 492 000c 13040101 		addi	s0,sp,16
 493              		.cfi_def_cfa 8, 0
 494              	.LVL32:
 495              	.LBB137:
 496              	.LBB138:
 497              	.LBB139:
  12:src/../test/../h/syscall_cpp.hpp ****     void start ();
 498              		.loc 1 12 23 is_stmt 0
 499 0010 17070000 		lla	a4,_ZTV6Thread+16
 499      13070700 
 500 0018 2330E500 		sd	a4,0(a0)
  12:src/../test/../h/syscall_cpp.hpp ****     void start ();
 501              		.loc 1 12 25 is_stmt 1
  12:src/../test/../h/syscall_cpp.hpp ****     void start ();
 502              		.loc 1 12 32 is_stmt 0
 503 001c 83378500 		ld	a5,8(a0)
 504              	.LVL33:
 505              	.LBB140:
 506              	.LBB141:
   9:src/../test/../h/../h/_thread.hpp ****         asm volatile("mv a1, %0" ::"r" ((uint64)ptr));
 507              		.loc 2 9 9 is_stmt 1
   9:src/../test/../h/../h/_thread.hpp ****         asm volatile("mv a1, %0" ::"r" ((uint64)ptr));
 508              		.loc 2 9 36 is_stmt 0
 509              	 #APP
 510              	# 9 "src/../test/../h/../h/_thread.hpp" 1
  10:src/../test/../h/../h/_thread.hpp ****         asm volatile("ecall");
 511              		li a0, 0x69
 512              	# 0 "" 2
 513              		.loc 2 10 9 is_stmt 1
  10:src/../test/../h/../h/_thread.hpp ****         asm volatile("ecall");
 514              		.loc 2 10 54 is_stmt 0
 515              	# 10 "src/../test/../h/../h/_thread.hpp" 1
  11:src/../test/../h/../h/_thread.hpp ****     }
 516              		mv a1, a5
 517              	# 0 "" 2
 518              		.loc 2 11 9 is_stmt 1
  11:src/../test/../h/../h/_thread.hpp ****     }
 519              		.loc 2 11 30 is_stmt 0
 520              	# 11 "src/../test/../h/../h/_thread.hpp" 1
 521              		ecall
 522              	# 0 "" 2
 523              	.LVL34:
 524              	 #NO_APP
 525              	.LBE141:
 526              	.LBE140:
GAS LISTING /tmp/cca4fSK0.s 			page 13


 527              	.LBE139:
 528              	.LBE138:
 529              	.LBE137:
  45:src/../test/ConsumerProducer_CPP_API_test.hpp ****         thread_data *td;
 530              		.loc 3 45 11
 531 002c 97000000 		call	_ZdlPv
 531      E7800000 
 532              	.LVL35:
 533 0034 83308100 		ld	ra,8(sp)
 534              		.cfi_restore 1
 535 0038 03340100 		ld	s0,0(sp)
 536              		.cfi_restore 8
 537              		.cfi_def_cfa 2, 16
 538 003c 13010101 		addi	sp,sp,16
 539              		.cfi_def_cfa_offset 0
 540 0040 67800000 		jr	ra
 541              		.cfi_endproc
 542              	.LFE44:
 544              		.section	.text._ZN9SemaphoreD2Ev,"axG",@progbits,_ZN9SemaphoreD5Ev,comdat
 545              		.align	2
 546              		.weak	_ZN9SemaphoreD2Ev
 548              	_ZN9SemaphoreD2Ev:
 549              	.LFB15:
  19:src/../test/../h/syscall_cpp.hpp **** private:
  20:src/../test/../h/syscall_cpp.hpp ****     static void runWrapper(void*);
  21:src/../test/../h/syscall_cpp.hpp ****     thread_t myHandle;
  22:src/../test/../h/syscall_cpp.hpp ****     Wrap* w;
  23:src/../test/../h/syscall_cpp.hpp **** };
  24:src/../test/../h/syscall_cpp.hpp **** 
  25:src/../test/../h/syscall_cpp.hpp **** class Semaphore {
  26:src/../test/../h/syscall_cpp.hpp **** public:
  27:src/../test/../h/syscall_cpp.hpp ****     Semaphore (unsigned init = 1) { sem_open(&myHandle, init); } 
  28:src/../test/../h/syscall_cpp.hpp ****     virtual ~Semaphore (){ sem_close(myHandle); }
 550              		.loc 1 28 13 is_stmt 1
 551              		.cfi_startproc
 552              		.cfi_personality 0x9b,DW.ref.__gxx_personality_v0
 553              		.cfi_lsda 0x1b,.LLSDA15
 554              	.LVL36:
 555 0000 130101FF 		addi	sp,sp,-16
 556              		.cfi_def_cfa_offset 16
 557 0004 23341100 		sd	ra,8(sp)
 558 0008 23308100 		sd	s0,0(sp)
 559              		.cfi_offset 1, -8
 560              		.cfi_offset 8, -16
 561 000c 13040101 		addi	s0,sp,16
 562              		.cfi_def_cfa 8, 0
 563              	.LBB142:
 564              		.loc 1 28 26 is_stmt 0
 565 0010 97070000 		lla	a5,_ZTV9Semaphore+16
 565      93870700 
 566 0018 2330F500 		sd	a5,0(a0)
 567              		.loc 1 28 28 is_stmt 1
 568              		.loc 1 28 37 is_stmt 0
 569 001c 03358500 		ld	a0,8(a0)
 570              	.LVL37:
 571 0020 97000000 		call	sem_close
 571      E7800000 
GAS LISTING /tmp/cca4fSK0.s 			page 14


 572              	.LVL38:
 573              	.LBE142:
 574              		.loc 1 28 49
 575 0028 83308100 		ld	ra,8(sp)
 576              		.cfi_restore 1
 577 002c 03340100 		ld	s0,0(sp)
 578              		.cfi_restore 8
 579              		.cfi_def_cfa 2, 16
 580 0030 13010101 		addi	sp,sp,16
 581              		.cfi_def_cfa_offset 0
 582 0034 67800000 		jr	ra
 583              		.cfi_endproc
 584              	.LFE15:
 585              		.globl	__gxx_personality_v0
 586              		.section	.gcc_except_table._ZN9SemaphoreD2Ev,"awG",@progbits,_ZN9SemaphoreD5Ev,comdat
 587              	.LLSDA15:
 588 0000 FF       		.byte	0xff
 589 0001 FF       		.byte	0xff
 590 0002 03       		.byte	0x3
 591 0003 00       		.byte	0
 592              		.section	.text._ZN9SemaphoreD2Ev,"axG",@progbits,_ZN9SemaphoreD5Ev,comdat
 594              		.weak	_ZN9SemaphoreD1Ev
 595              		.set	_ZN9SemaphoreD1Ev,_ZN9SemaphoreD2Ev
 596              		.section	.text._ZN9SemaphoreD0Ev,"axG",@progbits,_ZN9SemaphoreD5Ev,comdat
 597              		.align	2
 598              		.weak	_ZN9SemaphoreD0Ev
 600              	_ZN9SemaphoreD0Ev:
 601              	.LFB17:
 602              		.loc 1 28 13 is_stmt 1
 603              		.cfi_startproc
 604              		.cfi_personality 0x9b,DW.ref.__gxx_personality_v0
 605              		.cfi_lsda 0x1b,.LLSDA17
 606              	.LVL39:
 607 0000 130101FE 		addi	sp,sp,-32
 608              		.cfi_def_cfa_offset 32
 609 0004 233C1100 		sd	ra,24(sp)
 610 0008 23388100 		sd	s0,16(sp)
 611 000c 23349100 		sd	s1,8(sp)
 612              		.cfi_offset 1, -8
 613              		.cfi_offset 8, -16
 614              		.cfi_offset 9, -24
 615 0010 13040102 		addi	s0,sp,32
 616              		.cfi_def_cfa 8, 0
 617 0014 93040500 		mv	s1,a0
 618              	.LVL40:
 619              	.LBB143:
 620              	.LBB144:
 621              		.loc 1 28 26 is_stmt 0
 622 0018 97070000 		lla	a5,_ZTV9Semaphore+16
 622      93870700 
 623 0020 2330F500 		sd	a5,0(a0)
 624              		.loc 1 28 28 is_stmt 1
 625              		.loc 1 28 37 is_stmt 0
 626 0024 03358500 		ld	a0,8(a0)
 627              	.LVL41:
 628 0028 97000000 		call	sem_close
 628      E7800000 
GAS LISTING /tmp/cca4fSK0.s 			page 15


 629              	.LVL42:
 630              	.LBE144:
 631              	.LBE143:
 632              		.loc 1 28 49
 633 0030 13850400 		mv	a0,s1
 634              	.LEHB0:
 635 0034 97000000 		call	_ZdlPv
 635      E7800000 
 636              	.LVL43:
 637              	.LEHE0:
 638 003c 83308101 		ld	ra,24(sp)
 639              		.cfi_restore 1
 640 0040 03340101 		ld	s0,16(sp)
 641              		.cfi_restore 8
 642              		.cfi_def_cfa 2, 32
 643 0044 83348100 		ld	s1,8(sp)
 644              		.cfi_restore 9
 645              	.LVL44:
 646 0048 13010102 		addi	sp,sp,32
 647              		.cfi_def_cfa_offset 0
 648 004c 67800000 		jr	ra
 649              		.cfi_endproc
 650              	.LFE17:
 651              		.section	.gcc_except_table._ZN9SemaphoreD0Ev,"awG",@progbits,_ZN9SemaphoreD5Ev,comdat
 652              	.LLSDA17:
 653 0000 FF       		.byte	0xff
 654 0001 FF       		.byte	0xff
 655 0002 03       		.byte	0x3
 656 0003 0D       		.byte	0xd
 657 0004 00000000 		.4byte	.LEHB0-.LFB17
 658 0008 00000000 		.4byte	.LEHE0-.LEHB0
 659 000c 00000000 		.4byte	0
 660 0010 00       		.byte	0
 661              		.section	.text._ZN9SemaphoreD0Ev,"axG",@progbits,_ZN9SemaphoreD5Ev,comdat
 663              		.section	.text._ZN19ConsumerProducerCPP8Consumer3runEv,"axG",@progbits,_ZN19ConsumerProducerCPP8Co
 664              		.align	2
 665              		.weak	_ZN19ConsumerProducerCPP8Consumer3runEv
 667              	_ZN19ConsumerProducerCPP8Consumer3runEv:
 668              	.LFB34:
  63:src/../test/ConsumerProducer_CPP_API_test.hpp ****         thread_data *td;
  64:src/../test/ConsumerProducer_CPP_API_test.hpp ****     public:
  65:src/../test/ConsumerProducer_CPP_API_test.hpp ****         Consumer(thread_data *_td) : Thread(), td(_td) {}
  66:src/../test/ConsumerProducer_CPP_API_test.hpp **** 
  67:src/../test/ConsumerProducer_CPP_API_test.hpp ****         void run() override {
 669              		.loc 3 67 14 is_stmt 1
 670              		.cfi_startproc
 671              	.LVL45:
 672 0000 130101FD 		addi	sp,sp,-48
 673              		.cfi_def_cfa_offset 48
 674 0004 23341102 		sd	ra,40(sp)
 675 0008 23308102 		sd	s0,32(sp)
 676 000c 233C9100 		sd	s1,24(sp)
 677 0010 23382101 		sd	s2,16(sp)
 678 0014 23343101 		sd	s3,8(sp)
 679              		.cfi_offset 1, -8
 680              		.cfi_offset 8, -16
 681              		.cfi_offset 9, -24
GAS LISTING /tmp/cca4fSK0.s 			page 16


 682              		.cfi_offset 18, -32
 683              		.cfi_offset 19, -40
 684 0018 13040103 		addi	s0,sp,48
 685              		.cfi_def_cfa 8, 0
 686 001c 13090500 		mv	s2,a0
  68:src/../test/ConsumerProducer_CPP_API_test.hpp ****             int i = 0;
 687              		.loc 3 68 13
 688              	.LVL46:
 689              		.loc 3 68 17 is_stmt 0
 690 0020 93090000 		li	s3,0
 691 0024 6F000001 		j	.L24
 692              	.LVL47:
 693              	.L29:
 694              	.LBB145:
  69:src/../test/ConsumerProducer_CPP_API_test.hpp ****             while (!threadEnd) {
  70:src/../test/ConsumerProducer_CPP_API_test.hpp ****                 int key = td->buffer->get();
  71:src/../test/ConsumerProducer_CPP_API_test.hpp ****                 i++;
  72:src/../test/ConsumerProducer_CPP_API_test.hpp **** 
  73:src/../test/ConsumerProducer_CPP_API_test.hpp ****                 Console::putc(key);
  74:src/../test/ConsumerProducer_CPP_API_test.hpp **** 
  75:src/../test/ConsumerProducer_CPP_API_test.hpp ****                 if (i % 80 == 0) {
  76:src/../test/ConsumerProducer_CPP_API_test.hpp ****                     Console::putc('\n');
 695              		.loc 3 76 21 is_stmt 1
 696              	.LBB146:
 697              	.LBB147:
  29:src/../test/../h/syscall_cpp.hpp ****     void wait (){ sem_wait(myHandle); }
  30:src/../test/../h/syscall_cpp.hpp ****     void signal (){ sem_signal(myHandle); }
  31:src/../test/../h/syscall_cpp.hpp **** private:
  32:src/../test/../h/syscall_cpp.hpp ****     sem_t myHandle;
  33:src/../test/../h/syscall_cpp.hpp **** };
  34:src/../test/../h/syscall_cpp.hpp **** 
  35:src/../test/../h/syscall_cpp.hpp **** class PeriodicThread : public Thread {
  36:src/../test/../h/syscall_cpp.hpp **** protected:
  37:src/../test/../h/syscall_cpp.hpp ****     PeriodicThread (time_t period);
  38:src/../test/../h/syscall_cpp.hpp ****     virtual void periodicActivation () {}
  39:src/../test/../h/syscall_cpp.hpp **** private:
  40:src/../test/../h/syscall_cpp.hpp ****     static void periodicWrapper(void*);
  41:src/../test/../h/syscall_cpp.hpp **** };
  42:src/../test/../h/syscall_cpp.hpp **** 
  43:src/../test/../h/syscall_cpp.hpp **** class Console {
  44:src/../test/../h/syscall_cpp.hpp **** public:
  45:src/../test/../h/syscall_cpp.hpp ****     static char getc (){ return ::getc(); }
  46:src/../test/../h/syscall_cpp.hpp ****     static void putc (char c){ ::putc(c); }
 698              		.loc 1 46 32
 699              		.loc 1 46 38 is_stmt 0
 700 0028 1305A000 		li	a0,10
 701 002c 97000000 		call	putc
 701      E7800000 
 702              	.LVL48:
 703              	.L24:
 704              	.LBE147:
 705              	.LBE146:
 706              	.LBE145:
  69:src/../test/ConsumerProducer_CPP_API_test.hpp ****             while (!threadEnd) {
 707              		.loc 3 69 13 is_stmt 1
  69:src/../test/ConsumerProducer_CPP_API_test.hpp ****             while (!threadEnd) {
 708              		.loc 3 69 20 is_stmt 0
GAS LISTING /tmp/cca4fSK0.s 			page 17


 709 0034 97070000 		lla	a5,_ZN19ConsumerProducerCPP9threadEndE
 709      93870700 
 710 003c 83A70700 		lw	a5,0(a5)
 711 0040 9B870700 		sext.w	a5,a5
 712 0044 639C0702 		bne	a5,zero,.L25
 713              	.LBB150:
  70:src/../test/ConsumerProducer_CPP_API_test.hpp ****                 i++;
 714              		.loc 3 70 17 is_stmt 1
  70:src/../test/ConsumerProducer_CPP_API_test.hpp ****                 i++;
 715              		.loc 3 70 27 is_stmt 0
 716 0048 83378901 		ld	a5,24(s2)
  70:src/../test/ConsumerProducer_CPP_API_test.hpp ****                 i++;
 717              		.loc 3 70 42
 718 004c 03B58700 		ld	a0,8(a5)
 719 0050 97000000 		call	_ZN9BufferCPP3getEv
 719      E7800000 
 720              	.LVL49:
  71:src/../test/ConsumerProducer_CPP_API_test.hpp **** 
 721              		.loc 3 71 17 is_stmt 1
  71:src/../test/ConsumerProducer_CPP_API_test.hpp **** 
 722              		.loc 3 71 18 is_stmt 0
 723 0058 9B841900 		addiw	s1,s3,1
 724 005c 9B890400 		sext.w	s3,s1
 725              	.LVL50:
  73:src/../test/ConsumerProducer_CPP_API_test.hpp **** 
 726              		.loc 3 73 17 is_stmt 1
 727              	.LBB148:
 728              	.LBB149:
 729              		.loc 1 46 32
 730              		.loc 1 46 38 is_stmt 0
 731 0060 1375F50F 		andi	a0,a0,0xff
 732              	.LVL51:
 733 0064 97000000 		call	putc
 733      E7800000 
 734              	.LVL52:
 735              	.LBE149:
 736              	.LBE148:
  75:src/../test/ConsumerProducer_CPP_API_test.hpp ****                     Console::putc('\n');
 737              		.loc 3 75 17 is_stmt 1
  75:src/../test/ConsumerProducer_CPP_API_test.hpp ****                     Console::putc('\n');
 738              		.loc 3 75 23 is_stmt 0
 739 006c 93070005 		li	a5,80
 740 0070 BBE4F402 		remw	s1,s1,a5
 741              	.LVL53:
  75:src/../test/ConsumerProducer_CPP_API_test.hpp ****                     Console::putc('\n');
 742              		.loc 3 75 17
 743 0074 E39004FC 		bne	s1,zero,.L24
 744 0078 6FF01FFB 		j	.L29
 745              	.L25:
 746              	.LBE150:
  77:src/../test/ConsumerProducer_CPP_API_test.hpp ****                 }
  78:src/../test/ConsumerProducer_CPP_API_test.hpp ****             }
  79:src/../test/ConsumerProducer_CPP_API_test.hpp **** 
  80:src/../test/ConsumerProducer_CPP_API_test.hpp ****             while (td->buffer->getCnt() > 0) {
 747              		.loc 3 80 13 is_stmt 1
 748              		.loc 3 80 20 is_stmt 0
 749 007c 83378901 		ld	a5,24(s2)
GAS LISTING /tmp/cca4fSK0.s 			page 18


 750              		.loc 3 80 38
 751 0080 03B58700 		ld	a0,8(a5)
 752 0084 97000000 		call	_ZN9BufferCPP6getCntEv
 752      E7800000 
 753              	.LVL54:
 754              		.loc 3 80 41
 755 008c 6352A002 		ble	a0,zero,.L27
 756              	.LBB151:
  81:src/../test/ConsumerProducer_CPP_API_test.hpp ****                 int key = td->buffer->get();
 757              		.loc 3 81 17 is_stmt 1
 758              		.loc 3 81 27 is_stmt 0
 759 0090 83378901 		ld	a5,24(s2)
 760              		.loc 3 81 42
 761 0094 03B58700 		ld	a0,8(a5)
 762 0098 97000000 		call	_ZN9BufferCPP3getEv
 762      E7800000 
 763              	.LVL55:
  82:src/../test/ConsumerProducer_CPP_API_test.hpp ****                 Console::putc(key);
 764              		.loc 3 82 17 is_stmt 1
 765              	.LBB152:
 766              	.LBB153:
 767              		.loc 1 46 32
 768              		.loc 1 46 38 is_stmt 0
 769 00a0 1375F50F 		andi	a0,a0,0xff
 770              	.LVL56:
 771 00a4 97000000 		call	putc
 771      E7800000 
 772              	.LVL57:
 773 00ac 6FF01FFD 		j	.L25
 774              	.L27:
 775              	.LBE153:
 776              	.LBE152:
 777              	.LBE151:
  83:src/../test/ConsumerProducer_CPP_API_test.hpp ****             }
  84:src/../test/ConsumerProducer_CPP_API_test.hpp **** 
  85:src/../test/ConsumerProducer_CPP_API_test.hpp ****             td->sem->signal();
 778              		.loc 3 85 13 is_stmt 1
 779 00b0 83378901 		ld	a5,24(s2)
 780              		.loc 3 85 17 is_stmt 0
 781 00b4 83B70701 		ld	a5,16(a5)
 782              	.LVL58:
 783              	.LBB154:
 784              	.LBB155:
  30:src/../test/../h/syscall_cpp.hpp **** private:
 785              		.loc 1 30 21 is_stmt 1
  30:src/../test/../h/syscall_cpp.hpp **** private:
 786              		.loc 1 30 31 is_stmt 0
 787 00b8 03B58700 		ld	a0,8(a5)
 788 00bc 97000000 		call	sem_signal
 788      E7800000 
 789              	.LVL59:
 790              	.LBE155:
 791              	.LBE154:
  86:src/../test/ConsumerProducer_CPP_API_test.hpp ****         }
 792              		.loc 3 86 9
 793 00c4 83308102 		ld	ra,40(sp)
 794              		.cfi_restore 1
GAS LISTING /tmp/cca4fSK0.s 			page 19


 795 00c8 03340102 		ld	s0,32(sp)
 796              		.cfi_restore 8
 797              		.cfi_def_cfa 2, 48
 798 00cc 83348101 		ld	s1,24(sp)
 799              		.cfi_restore 9
 800 00d0 03390101 		ld	s2,16(sp)
 801              		.cfi_restore 18
 802              	.LVL60:
 803 00d4 83398100 		ld	s3,8(sp)
 804              		.cfi_restore 19
 805              	.LVL61:
 806 00d8 13010103 		addi	sp,sp,48
 807              		.cfi_def_cfa_offset 0
 808 00dc 67800000 		jr	ra
 809              		.cfi_endproc
 810              	.LFE34:
 812              		.section	.text._ZN19ConsumerProducerCPP16ProducerKeyborad3runEv,"axG",@progbits,_ZN19ConsumerProdu
 813              		.align	2
 814              		.weak	_ZN19ConsumerProducerCPP16ProducerKeyborad3runEv
 816              	_ZN19ConsumerProducerCPP16ProducerKeyborad3runEv:
 817              	.LFB26:
  30:src/../test/ConsumerProducer_CPP_API_test.hpp ****             int key;
 818              		.loc 3 30 14 is_stmt 1
 819              		.cfi_startproc
 820              	.LVL62:
 821 0000 130101FE 		addi	sp,sp,-32
 822              		.cfi_def_cfa_offset 32
 823 0004 233C1100 		sd	ra,24(sp)
 824 0008 23388100 		sd	s0,16(sp)
 825 000c 23349100 		sd	s1,8(sp)
 826              		.cfi_offset 1, -8
 827              		.cfi_offset 8, -16
 828              		.cfi_offset 9, -24
 829 0010 13040102 		addi	s0,sp,32
 830              		.cfi_def_cfa 8, 0
 831 0014 93040500 		mv	s1,a0
  31:src/../test/ConsumerProducer_CPP_API_test.hpp ****             int i = 0;
 832              		.loc 3 31 13
  32:src/../test/ConsumerProducer_CPP_API_test.hpp ****             while ((key = getc()) != 0x1b) {
 833              		.loc 3 32 13
 834              	.LVL63:
 835              	.L32:
  33:src/../test/ConsumerProducer_CPP_API_test.hpp ****                 td->buffer->put(key);
 836              		.loc 3 33 13
  33:src/../test/ConsumerProducer_CPP_API_test.hpp ****                 td->buffer->put(key);
 837              		.loc 3 33 31 is_stmt 0
 838 0018 97000000 		call	getc
 838      E7800000 
 839              	.LVL64:
  33:src/../test/ConsumerProducer_CPP_API_test.hpp ****                 td->buffer->put(key);
 840              		.loc 3 33 25
 841 0020 9B050500 		sext.w	a1,a0
 842              	.LVL65:
  33:src/../test/ConsumerProducer_CPP_API_test.hpp ****                 td->buffer->put(key);
 843              		.loc 3 33 35
 844 0024 9307B001 		li	a5,27
 845 0028 638CF500 		beq	a1,a5,.L31
GAS LISTING /tmp/cca4fSK0.s 			page 20


  34:src/../test/ConsumerProducer_CPP_API_test.hpp ****                 i++;
 846              		.loc 3 34 17 is_stmt 1
 847 002c 83B78401 		ld	a5,24(s1)
  34:src/../test/ConsumerProducer_CPP_API_test.hpp ****                 i++;
 848              		.loc 3 34 32 is_stmt 0
 849 0030 03B58700 		ld	a0,8(a5)
 850 0034 97000000 		call	_ZN9BufferCPP3putEi
 850      E7800000 
 851              	.LVL66:
  35:src/../test/ConsumerProducer_CPP_API_test.hpp ****             }
 852              		.loc 3 35 17 is_stmt 1
  33:src/../test/ConsumerProducer_CPP_API_test.hpp ****                 td->buffer->put(key);
 853              		.loc 3 33 13 is_stmt 0
 854 003c 6FF0DFFD 		j	.L32
 855              	.LVL67:
 856              	.L31:
  38:src/../test/ConsumerProducer_CPP_API_test.hpp ****             td->buffer->put('!');
 857              		.loc 3 38 13 is_stmt 1
  38:src/../test/ConsumerProducer_CPP_API_test.hpp ****             td->buffer->put('!');
 858              		.loc 3 38 23 is_stmt 0
 859 0040 93071000 		li	a5,1
 860 0044 17070000 		sw	a5,_ZN19ConsumerProducerCPP9threadEndE,a4
 860      2320F700 
  39:src/../test/ConsumerProducer_CPP_API_test.hpp **** 
 861              		.loc 3 39 13 is_stmt 1
 862 004c 83B78401 		ld	a5,24(s1)
  39:src/../test/ConsumerProducer_CPP_API_test.hpp **** 
 863              		.loc 3 39 28 is_stmt 0
 864 0050 93051002 		li	a1,33
 865              	.LVL68:
 866 0054 03B58700 		ld	a0,8(a5)
 867              	.LVL69:
 868 0058 97000000 		call	_ZN9BufferCPP3putEi
 868      E7800000 
 869              	.LVL70:
  41:src/../test/ConsumerProducer_CPP_API_test.hpp ****         }
 870              		.loc 3 41 13 is_stmt 1
 871 0060 83B78401 		ld	a5,24(s1)
  41:src/../test/ConsumerProducer_CPP_API_test.hpp ****         }
 872              		.loc 3 41 17 is_stmt 0
 873 0064 83B70701 		ld	a5,16(a5)
 874              	.LVL71:
 875              	.LBB156:
 876              	.LBB157:
  30:src/../test/../h/syscall_cpp.hpp **** private:
 877              		.loc 1 30 21 is_stmt 1
  30:src/../test/../h/syscall_cpp.hpp **** private:
 878              		.loc 1 30 31 is_stmt 0
 879 0068 03B58700 		ld	a0,8(a5)
 880 006c 97000000 		call	sem_signal
 880      E7800000 
 881              	.LVL72:
 882              	.LBE157:
 883              	.LBE156:
  42:src/../test/ConsumerProducer_CPP_API_test.hpp ****     };
 884              		.loc 3 42 9
 885 0074 83308101 		ld	ra,24(sp)
GAS LISTING /tmp/cca4fSK0.s 			page 21


 886              		.cfi_restore 1
 887 0078 03340101 		ld	s0,16(sp)
 888              		.cfi_restore 8
 889              		.cfi_def_cfa 2, 32
 890 007c 83348100 		ld	s1,8(sp)
 891              		.cfi_restore 9
 892              	.LVL73:
 893 0080 13010102 		addi	sp,sp,32
 894              		.cfi_def_cfa_offset 0
 895 0084 67800000 		jr	ra
 896              		.cfi_endproc
 897              	.LFE26:
 899              		.section	.text._ZN19ConsumerProducerCPP8Producer3runEv,"axG",@progbits,_ZN19ConsumerProducerCPP8Pr
 900              		.align	2
 901              		.weak	_ZN19ConsumerProducerCPP8Producer3runEv
 903              	_ZN19ConsumerProducerCPP8Producer3runEv:
 904              	.LFB30:
  50:src/../test/ConsumerProducer_CPP_API_test.hpp ****             int i = 0;
 905              		.loc 3 50 14 is_stmt 1
 906              		.cfi_startproc
 907              	.LVL74:
 908 0000 130101FE 		addi	sp,sp,-32
 909              		.cfi_def_cfa_offset 32
 910 0004 233C1100 		sd	ra,24(sp)
 911 0008 23388100 		sd	s0,16(sp)
 912 000c 23349100 		sd	s1,8(sp)
 913 0010 23302101 		sd	s2,0(sp)
 914              		.cfi_offset 1, -8
 915              		.cfi_offset 8, -16
 916              		.cfi_offset 9, -24
 917              		.cfi_offset 18, -32
 918 0014 13040102 		addi	s0,sp,32
 919              		.cfi_def_cfa 8, 0
 920 0018 93040500 		mv	s1,a0
  51:src/../test/ConsumerProducer_CPP_API_test.hpp ****             while (!threadEnd) {
 921              		.loc 3 51 13
 922              	.LVL75:
  51:src/../test/ConsumerProducer_CPP_API_test.hpp ****             while (!threadEnd) {
 923              		.loc 3 51 17 is_stmt 0
 924 001c 13090000 		li	s2,0
 925              	.LVL76:
 926              	.L36:
  52:src/../test/ConsumerProducer_CPP_API_test.hpp ****                 td->buffer->put(td->id + '0');
 927              		.loc 3 52 13 is_stmt 1
  52:src/../test/ConsumerProducer_CPP_API_test.hpp ****                 td->buffer->put(td->id + '0');
 928              		.loc 3 52 20 is_stmt 0
 929 0020 97070000 		lla	a5,_ZN19ConsumerProducerCPP9threadEndE
 929      93870700 
 930 0028 83A70700 		lw	a5,0(a5)
 931 002c 9B870700 		sext.w	a5,a5
 932 0030 63920704 		bne	a5,zero,.L35
  53:src/../test/ConsumerProducer_CPP_API_test.hpp ****                 i++;
 933              		.loc 3 53 17 is_stmt 1
 934 0034 83B78401 		ld	a5,24(s1)
  53:src/../test/ConsumerProducer_CPP_API_test.hpp ****                 i++;
 935              		.loc 3 53 37 is_stmt 0
 936 0038 83A50700 		lw	a1,0(a5)
GAS LISTING /tmp/cca4fSK0.s 			page 22


  53:src/../test/ConsumerProducer_CPP_API_test.hpp ****                 i++;
 937              		.loc 3 53 32
 938 003c 9B850503 		addiw	a1,a1,48
 939 0040 03B58700 		ld	a0,8(a5)
 940 0044 97000000 		call	_ZN9BufferCPP3putEi
 940      E7800000 
 941              	.LVL77:
  54:src/../test/ConsumerProducer_CPP_API_test.hpp ****                 Thread::sleep((i+td->id)%5);
 942              		.loc 3 54 17 is_stmt 1
  54:src/../test/ConsumerProducer_CPP_API_test.hpp ****                 Thread::sleep((i+td->id)%5);
 943              		.loc 3 54 18 is_stmt 0
 944 004c 1B051900 		addiw	a0,s2,1
 945 0050 1B090500 		sext.w	s2,a0
 946              	.LVL78:
  55:src/../test/ConsumerProducer_CPP_API_test.hpp ****             }
 947              		.loc 3 55 17 is_stmt 1
  55:src/../test/ConsumerProducer_CPP_API_test.hpp ****             }
 948              		.loc 3 55 34 is_stmt 0
 949 0054 83B78401 		ld	a5,24(s1)
  55:src/../test/ConsumerProducer_CPP_API_test.hpp ****             }
 950              		.loc 3 55 38
 951 0058 83A70700 		lw	a5,0(a5)
  55:src/../test/ConsumerProducer_CPP_API_test.hpp ****             }
 952              		.loc 3 55 33
 953 005c BB87A700 		addw	a5,a5,a0
 954              	.LVL79:
 955              	.LBB158:
 956              	.LBB159:
  15:src/../test/../h/syscall_cpp.hpp **** protected:
 957              		.loc 1 15 38 is_stmt 1
  15:src/../test/../h/syscall_cpp.hpp **** protected:
 958              		.loc 1 15 48 is_stmt 0
 959 0060 13055000 		li	a0,5
 960              	.LVL80:
 961 0064 3BE5A702 		remw	a0,a5,a0
 962              	.LVL81:
 963 0068 97000000 		call	time_sleep
 963      E7800000 
 964              	.LVL82:
 965 0070 6FF01FFB 		j	.L36
 966              	.L35:
 967              	.LBE159:
 968              	.LBE158:
  58:src/../test/ConsumerProducer_CPP_API_test.hpp ****         }
 969              		.loc 3 58 13 is_stmt 1
 970 0074 83B78401 		ld	a5,24(s1)
  58:src/../test/ConsumerProducer_CPP_API_test.hpp ****         }
 971              		.loc 3 58 17 is_stmt 0
 972 0078 83B70701 		ld	a5,16(a5)
 973              	.LVL83:
 974              	.LBB160:
 975              	.LBB161:
  30:src/../test/../h/syscall_cpp.hpp **** private:
 976              		.loc 1 30 21 is_stmt 1
  30:src/../test/../h/syscall_cpp.hpp **** private:
 977              		.loc 1 30 31 is_stmt 0
 978 007c 03B58700 		ld	a0,8(a5)
GAS LISTING /tmp/cca4fSK0.s 			page 23


 979 0080 97000000 		call	sem_signal
 979      E7800000 
 980              	.LVL84:
 981              	.LBE161:
 982              	.LBE160:
  59:src/../test/ConsumerProducer_CPP_API_test.hpp ****     };
 983              		.loc 3 59 9
 984 0088 83308101 		ld	ra,24(sp)
 985              		.cfi_restore 1
 986 008c 03340101 		ld	s0,16(sp)
 987              		.cfi_restore 8
 988              		.cfi_def_cfa 2, 32
 989 0090 83348100 		ld	s1,8(sp)
 990              		.cfi_restore 9
 991              	.LVL85:
 992 0094 03390100 		ld	s2,0(sp)
 993              		.cfi_restore 18
 994              	.LVL86:
 995 0098 13010102 		addi	sp,sp,32
 996              		.cfi_def_cfa_offset 0
 997 009c 67800000 		jr	ra
 998              		.cfi_endproc
 999              	.LFE30:
 1001              		.text
 1002              		.align	2
 1003              		.globl	_ZN19ConsumerProducerCPP20testConsumerProducerEv
 1005              	_ZN19ConsumerProducerCPP20testConsumerProducerEv:
 1006              	.LFB35:
  87:src/../test/ConsumerProducer_CPP_API_test.hpp ****     };
  88:src/../test/ConsumerProducer_CPP_API_test.hpp **** 
  89:src/../test/ConsumerProducer_CPP_API_test.hpp ****     void testConsumerProducer() {
 1007              		.loc 3 89 33 is_stmt 1
 1008              		.cfi_startproc
 1009              		.cfi_personality 0x9b,DW.ref.__gxx_personality_v0
 1010              		.cfi_lsda 0x1b,.LLSDA35
 1011 0000 130101F9 		addi	sp,sp,-112
 1012              		.cfi_def_cfa_offset 112
 1013 0004 23341106 		sd	ra,104(sp)
 1014 0008 23308106 		sd	s0,96(sp)
 1015 000c 233C9104 		sd	s1,88(sp)
 1016 0010 23382105 		sd	s2,80(sp)
 1017 0014 23343105 		sd	s3,72(sp)
 1018 0018 23304105 		sd	s4,64(sp)
 1019 001c 233C5103 		sd	s5,56(sp)
 1020 0020 23386103 		sd	s6,48(sp)
 1021 0024 23347103 		sd	s7,40(sp)
 1022 0028 23308103 		sd	s8,32(sp)
 1023              		.cfi_offset 1, -8
 1024              		.cfi_offset 8, -16
 1025              		.cfi_offset 9, -24
 1026              		.cfi_offset 18, -32
 1027              		.cfi_offset 19, -40
 1028              		.cfi_offset 20, -48
 1029              		.cfi_offset 21, -56
 1030              		.cfi_offset 22, -64
 1031              		.cfi_offset 23, -72
 1032              		.cfi_offset 24, -80
GAS LISTING /tmp/cca4fSK0.s 			page 24


 1033 002c 13040107 		addi	s0,sp,112
 1034              		.cfi_def_cfa 8, 0
  90:src/../test/ConsumerProducer_CPP_API_test.hpp ****         char input[30];
  91:src/../test/ConsumerProducer_CPP_API_test.hpp ****         int n, threadNum;
  92:src/../test/ConsumerProducer_CPP_API_test.hpp **** 
  93:src/../test/ConsumerProducer_CPP_API_test.hpp ****         printString("Unesite broj proizvodjaca?\n");
  94:src/../test/ConsumerProducer_CPP_API_test.hpp ****         getString(input, 30);
  95:src/../test/ConsumerProducer_CPP_API_test.hpp ****         threadNum = stringToInt(input);
  96:src/../test/ConsumerProducer_CPP_API_test.hpp **** 
  97:src/../test/ConsumerProducer_CPP_API_test.hpp ****         printString("Unesite velicinu bafera?\n");
  98:src/../test/ConsumerProducer_CPP_API_test.hpp ****         getString(input, 30);
  99:src/../test/ConsumerProducer_CPP_API_test.hpp ****         n = stringToInt(input);
 100:src/../test/ConsumerProducer_CPP_API_test.hpp **** 
 101:src/../test/ConsumerProducer_CPP_API_test.hpp ****         printString("Broj proizvodjaca "); printInt(threadNum);
 102:src/../test/ConsumerProducer_CPP_API_test.hpp ****         printString(" i velicina bafera "); printInt(n);
 103:src/../test/ConsumerProducer_CPP_API_test.hpp ****         printString(".\n");
 104:src/../test/ConsumerProducer_CPP_API_test.hpp **** 
 105:src/../test/ConsumerProducer_CPP_API_test.hpp ****         if(threadNum > n) {
 106:src/../test/ConsumerProducer_CPP_API_test.hpp ****             printString("Broj proizvodjaca ne sme biti manji od velicine bafera!\n");
 107:src/../test/ConsumerProducer_CPP_API_test.hpp ****             return;
 108:src/../test/ConsumerProducer_CPP_API_test.hpp ****         } else if (threadNum < 1) {
 109:src/../test/ConsumerProducer_CPP_API_test.hpp ****             printString("Broj proizvodjaca mora biti veci od nula!\n");
 110:src/../test/ConsumerProducer_CPP_API_test.hpp ****             return;
 111:src/../test/ConsumerProducer_CPP_API_test.hpp ****         }
 112:src/../test/ConsumerProducer_CPP_API_test.hpp **** 
 113:src/../test/ConsumerProducer_CPP_API_test.hpp ****         BufferCPP *buffer = new BufferCPP(n);
 114:src/../test/ConsumerProducer_CPP_API_test.hpp **** 
 115:src/../test/ConsumerProducer_CPP_API_test.hpp ****         waitForAll = new Semaphore(0);
 116:src/../test/ConsumerProducer_CPP_API_test.hpp ****         Thread *producers[threadNum];
 117:src/../test/ConsumerProducer_CPP_API_test.hpp ****         thread_data threadData[threadNum + 1];
 118:src/../test/ConsumerProducer_CPP_API_test.hpp **** 
 119:src/../test/ConsumerProducer_CPP_API_test.hpp ****         threadData[threadNum].id = threadNum;
 120:src/../test/ConsumerProducer_CPP_API_test.hpp ****         threadData[threadNum].buffer = buffer;
 121:src/../test/ConsumerProducer_CPP_API_test.hpp ****         threadData[threadNum].sem = waitForAll;
 122:src/../test/ConsumerProducer_CPP_API_test.hpp ****         Thread *consumer = new Consumer(&threadData[threadNum]);
 123:src/../test/ConsumerProducer_CPP_API_test.hpp ****         consumer->start();
 124:src/../test/ConsumerProducer_CPP_API_test.hpp **** 
 125:src/../test/ConsumerProducer_CPP_API_test.hpp ****         threadData[0].id = 0;
 126:src/../test/ConsumerProducer_CPP_API_test.hpp ****         threadData[0].buffer = buffer;
 127:src/../test/ConsumerProducer_CPP_API_test.hpp ****         threadData[0].sem = waitForAll;
 128:src/../test/ConsumerProducer_CPP_API_test.hpp ****         producers[0] = new ProducerKeyborad(&threadData[0]);
 129:src/../test/ConsumerProducer_CPP_API_test.hpp ****         producers[0]->start();
 130:src/../test/ConsumerProducer_CPP_API_test.hpp **** 
 131:src/../test/ConsumerProducer_CPP_API_test.hpp ****         for (int i = 1; i < threadNum; i++) {
 132:src/../test/ConsumerProducer_CPP_API_test.hpp ****             threadData[i].id = i;
 133:src/../test/ConsumerProducer_CPP_API_test.hpp ****             threadData[i].buffer = buffer;
 134:src/../test/ConsumerProducer_CPP_API_test.hpp ****             threadData[i].sem = waitForAll;
 135:src/../test/ConsumerProducer_CPP_API_test.hpp **** 
 136:src/../test/ConsumerProducer_CPP_API_test.hpp ****             producers[i] = new Producer(&threadData[i]);
 137:src/../test/ConsumerProducer_CPP_API_test.hpp ****             producers[i]->start();
 138:src/../test/ConsumerProducer_CPP_API_test.hpp **** 
 139:src/../test/ConsumerProducer_CPP_API_test.hpp ****         }
 140:src/../test/ConsumerProducer_CPP_API_test.hpp **** 
 141:src/../test/ConsumerProducer_CPP_API_test.hpp ****         Thread::dispatch();
 142:src/../test/ConsumerProducer_CPP_API_test.hpp **** 
 143:src/../test/ConsumerProducer_CPP_API_test.hpp ****         for (int i = 0; i <= threadNum; i++) {
 144:src/../test/ConsumerProducer_CPP_API_test.hpp ****             waitForAll->wait();
GAS LISTING /tmp/cca4fSK0.s 			page 25


 145:src/../test/ConsumerProducer_CPP_API_test.hpp ****         }
 146:src/../test/ConsumerProducer_CPP_API_test.hpp **** 
 147:src/../test/ConsumerProducer_CPP_API_test.hpp ****         delete waitForAll;
 148:src/../test/ConsumerProducer_CPP_API_test.hpp ****         for (int i = 0; i < threadNum; i++) {
 149:src/../test/ConsumerProducer_CPP_API_test.hpp ****             delete producers[i];
 150:src/../test/ConsumerProducer_CPP_API_test.hpp ****         }
 151:src/../test/ConsumerProducer_CPP_API_test.hpp ****         delete consumer;
 152:src/../test/ConsumerProducer_CPP_API_test.hpp ****         delete buffer;
 1035              		.loc 3 152 22 is_stmt 0
 1036 0030 930B0100 		mv	s7,sp
  90:src/../test/ConsumerProducer_CPP_API_test.hpp ****         char input[30];
 1037              		.loc 3 90 9 is_stmt 1
  91:src/../test/ConsumerProducer_CPP_API_test.hpp **** 
 1038              		.loc 3 91 9
  93:src/../test/ConsumerProducer_CPP_API_test.hpp ****         getString(input, 30);
 1039              		.loc 3 93 9
  93:src/../test/ConsumerProducer_CPP_API_test.hpp ****         getString(input, 30);
 1040              		.loc 3 93 20 is_stmt 0
 1041 0034 17050000 		lla	a0,.LC0
 1041      13050500 
 1042              	.LEHB1:
 1043 003c 97000000 		call	_Z11printStringPKc
 1043      E7800000 
 1044              	.LVL87:
  94:src/../test/ConsumerProducer_CPP_API_test.hpp ****         threadNum = stringToInt(input);
 1045              		.loc 3 94 9 is_stmt 1
  94:src/../test/ConsumerProducer_CPP_API_test.hpp ****         threadNum = stringToInt(input);
 1046              		.loc 3 94 18 is_stmt 0
 1047 0044 9305E001 		li	a1,30
 1048 0048 130504F9 		addi	a0,s0,-112
 1049 004c 97000000 		call	_Z9getStringPci
 1049      E7800000 
 1050              	.LVL88:
  95:src/../test/ConsumerProducer_CPP_API_test.hpp **** 
 1051              		.loc 3 95 9 is_stmt 1
  95:src/../test/ConsumerProducer_CPP_API_test.hpp **** 
 1052              		.loc 3 95 32 is_stmt 0
 1053 0054 130504F9 		addi	a0,s0,-112
 1054 0058 97000000 		call	_Z11stringToIntPKc
 1054      E7800000 
 1055              	.LVL89:
 1056 0060 93090500 		mv	s3,a0
 1057              	.LVL90:
  97:src/../test/ConsumerProducer_CPP_API_test.hpp ****         getString(input, 30);
 1058              		.loc 3 97 9 is_stmt 1
  97:src/../test/ConsumerProducer_CPP_API_test.hpp ****         getString(input, 30);
 1059              		.loc 3 97 20 is_stmt 0
 1060 0064 17050000 		lla	a0,.LC1
 1060      13050500 
 1061 006c 97000000 		call	_Z11printStringPKc
 1061      E7800000 
 1062              	.LVL91:
  98:src/../test/ConsumerProducer_CPP_API_test.hpp ****         n = stringToInt(input);
 1063              		.loc 3 98 9 is_stmt 1
  98:src/../test/ConsumerProducer_CPP_API_test.hpp ****         n = stringToInt(input);
 1064              		.loc 3 98 18 is_stmt 0
 1065 0074 9305E001 		li	a1,30
GAS LISTING /tmp/cca4fSK0.s 			page 26


 1066 0078 130504F9 		addi	a0,s0,-112
 1067 007c 97000000 		call	_Z9getStringPci
 1067      E7800000 
 1068              	.LVL92:
  99:src/../test/ConsumerProducer_CPP_API_test.hpp **** 
 1069              		.loc 3 99 9 is_stmt 1
  99:src/../test/ConsumerProducer_CPP_API_test.hpp **** 
 1070              		.loc 3 99 24 is_stmt 0
 1071 0084 130504F9 		addi	a0,s0,-112
 1072 0088 97000000 		call	_Z11stringToIntPKc
 1072      E7800000 
 1073              	.LVL93:
 1074 0090 93040500 		mv	s1,a0
 1075              	.LVL94:
 101:src/../test/ConsumerProducer_CPP_API_test.hpp ****         printString(" i velicina bafera "); printInt(n);
 1076              		.loc 3 101 9 is_stmt 1
 101:src/../test/ConsumerProducer_CPP_API_test.hpp ****         printString(" i velicina bafera "); printInt(n);
 1077              		.loc 3 101 20 is_stmt 0
 1078 0094 17050000 		lla	a0,.LC2
 1078      13050500 
 1079 009c 97000000 		call	_Z11printStringPKc
 1079      E7800000 
 1080              	.LVL95:
 101:src/../test/ConsumerProducer_CPP_API_test.hpp ****         printString(" i velicina bafera "); printInt(n);
 1081              		.loc 3 101 44 is_stmt 1
 101:src/../test/ConsumerProducer_CPP_API_test.hpp ****         printString(" i velicina bafera "); printInt(n);
 1082              		.loc 3 101 52 is_stmt 0
 1083 00a4 13060000 		li	a2,0
 1084 00a8 9305A000 		li	a1,10
 1085 00ac 13850900 		mv	a0,s3
 1086 00b0 97000000 		call	_Z8printIntiii
 1086      E7800000 
 1087              	.LVL96:
 102:src/../test/ConsumerProducer_CPP_API_test.hpp ****         printString(".\n");
 1088              		.loc 3 102 9 is_stmt 1
 102:src/../test/ConsumerProducer_CPP_API_test.hpp ****         printString(".\n");
 1089              		.loc 3 102 20 is_stmt 0
 1090 00b8 17050000 		lla	a0,.LC3
 1090      13050500 
 1091 00c0 97000000 		call	_Z11printStringPKc
 1091      E7800000 
 1092              	.LVL97:
 102:src/../test/ConsumerProducer_CPP_API_test.hpp ****         printString(".\n");
 1093              		.loc 3 102 45 is_stmt 1
 102:src/../test/ConsumerProducer_CPP_API_test.hpp ****         printString(".\n");
 1094              		.loc 3 102 53 is_stmt 0
 1095 00c8 13060000 		li	a2,0
 1096 00cc 9305A000 		li	a1,10
 1097 00d0 13850400 		mv	a0,s1
 1098 00d4 97000000 		call	_Z8printIntiii
 1098      E7800000 
 1099              	.LVL98:
 103:src/../test/ConsumerProducer_CPP_API_test.hpp **** 
 1100              		.loc 3 103 9 is_stmt 1
 103:src/../test/ConsumerProducer_CPP_API_test.hpp **** 
 1101              		.loc 3 103 20 is_stmt 0
 1102 00dc 17050000 		lla	a0,.LC4
GAS LISTING /tmp/cca4fSK0.s 			page 27


 1102      13050500 
 1103 00e4 97000000 		call	_Z11printStringPKc
 1103      E7800000 
 1104              	.LVL99:
 105:src/../test/ConsumerProducer_CPP_API_test.hpp ****             printString("Broj proizvodjaca ne sme biti manji od velicine bafera!\n");
 1105              		.loc 3 105 9 is_stmt 1
 1106 00ec 63C43403 		bgt	s3,s1,.L58
 108:src/../test/ConsumerProducer_CPP_API_test.hpp ****             printString("Broj proizvodjaca mora biti veci od nula!\n");
 1107              		.loc 3 108 16
 1108 00f0 635C3003 		ble	s3,zero,.L59
 113:src/../test/ConsumerProducer_CPP_API_test.hpp **** 
 1109              		.loc 3 113 9
 113:src/../test/ConsumerProducer_CPP_API_test.hpp **** 
 1110              		.loc 3 113 44 is_stmt 0
 1111 00f4 13058003 		li	a0,56
 1112 00f8 97000000 		call	_Znwm
 1112      E7800000 
 1113              	.LVL100:
 1114              	.LEHE1:
 1115 0100 930A0500 		mv	s5,a0
 1116 0104 93850400 		mv	a1,s1
 1117              	.LEHB2:
 1118 0108 97000000 		call	_ZN9BufferCPPC1Ei
 1118      E7800000 
 1119              	.LVL101:
 1120              	.LEHE2:
 1121 0110 6F000003 		j	.L60
 1122              	.L58:
 106:src/../test/ConsumerProducer_CPP_API_test.hpp ****             return;
 1123              		.loc 3 106 13 is_stmt 1
 106:src/../test/ConsumerProducer_CPP_API_test.hpp ****             return;
 1124              		.loc 3 106 24 is_stmt 0
 1125 0114 17050000 		lla	a0,.LC5
 1125      13050500 
 1126              	.LEHB3:
 1127 011c 97000000 		call	_Z11printStringPKc
 1127      E7800000 
 1128              	.LVL102:
 107:src/../test/ConsumerProducer_CPP_API_test.hpp ****         } else if (threadNum < 1) {
 1129              		.loc 3 107 13 is_stmt 1
 1130 0124 6F004001 		j	.L40
 1131              	.L59:
 109:src/../test/ConsumerProducer_CPP_API_test.hpp ****             return;
 1132              		.loc 3 109 13
 109:src/../test/ConsumerProducer_CPP_API_test.hpp ****             return;
 1133              		.loc 3 109 24 is_stmt 0
 1134 0128 17050000 		lla	a0,.LC6
 1134      13050500 
 1135 0130 97000000 		call	_Z11printStringPKc
 1135      E7800000 
 1136              	.LVL103:
 110:src/../test/ConsumerProducer_CPP_API_test.hpp ****         }
 1137              		.loc 3 110 13 is_stmt 1
 1138              	.L40:
 1139 0138 13810B00 		mv	sp,s7
 1140 013c 6F000022 		j	.L38
 1141              	.L60:
GAS LISTING /tmp/cca4fSK0.s 			page 28


 1142              	.LVL104:
 115:src/../test/ConsumerProducer_CPP_API_test.hpp ****         Thread *producers[threadNum];
 1143              		.loc 3 115 9 discriminator 3
 115:src/../test/ConsumerProducer_CPP_API_test.hpp ****         Thread *producers[threadNum];
 1144              		.loc 3 115 37 is_stmt 0 discriminator 3
 1145 0140 13050001 		li	a0,16
 1146 0144 97000000 		call	_Znwm
 1146      E7800000 
 1147              	.LVL105:
 1148              	.LEHE3:
 1149 014c 93040500 		mv	s1,a0
 1150              	.LVL106:
 1151              	.LBB162:
 1152              	.LBB163:
  27:src/../test/../h/syscall_cpp.hpp ****     virtual ~Semaphore (){ sem_close(myHandle); }
 1153              		.loc 1 27 35 discriminator 3
 1154 0150 97070000 		lla	a5,_ZTV9Semaphore+16
 1154      93870700 
 1155 0158 2330F500 		sd	a5,0(a0)
  27:src/../test/../h/syscall_cpp.hpp ****     virtual ~Semaphore (){ sem_close(myHandle); }
 1156              		.loc 1 27 37 is_stmt 1 discriminator 3
  27:src/../test/../h/syscall_cpp.hpp ****     virtual ~Semaphore (){ sem_close(myHandle); }
 1157              		.loc 1 27 45 is_stmt 0 discriminator 3
 1158 015c 93050000 		li	a1,0
 1159 0160 13058500 		addi	a0,a0,8
 1160              	.LEHB4:
 1161 0164 97000000 		call	sem_open
 1161      E7800000 
 1162              	.LVL107:
 1163              	.LEHE4:
 1164              	.LBE163:
 1165              	.LBE162:
 115:src/../test/ConsumerProducer_CPP_API_test.hpp ****         Thread *producers[threadNum];
 1166              		.loc 3 115 20 discriminator 3
 1167 016c 17090000 		lla	s2,_ZN19ConsumerProducerCPP10waitForAllE
 1167      13090900 
 1168 0174 23309900 		sd	s1,0(s2)
 116:src/../test/ConsumerProducer_CPP_API_test.hpp ****         thread_data threadData[threadNum + 1];
 1169              		.loc 3 116 9 is_stmt 1 discriminator 3
 1170              	.LVL108:
 116:src/../test/ConsumerProducer_CPP_API_test.hpp ****         thread_data threadData[threadNum + 1];
 1171              		.loc 3 116 17 is_stmt 0 discriminator 3
 1172 0178 93973900 		slli	a5,s3,3
 1173 017c 9387F700 		addi	a5,a5,15
 1174 0180 93F707FF 		andi	a5,a5,-16
 1175 0184 3301F140 		sub	sp,sp,a5
 1176 0188 130A0100 		mv	s4,sp
 1177              	.LVL109:
 117:src/../test/ConsumerProducer_CPP_API_test.hpp **** 
 1178              		.loc 3 117 9 is_stmt 1 discriminator 3
 117:src/../test/ConsumerProducer_CPP_API_test.hpp **** 
 1179              		.loc 3 117 42 is_stmt 0 discriminator 3
 1180 018c 9B871900 		addiw	a5,s3,1
 1181              	.LVL110:
 117:src/../test/ConsumerProducer_CPP_API_test.hpp **** 
 1182              		.loc 3 117 21 discriminator 3
 1183 0190 13971700 		slli	a4,a5,1
GAS LISTING /tmp/cca4fSK0.s 			page 29


 1184 0194 3307F700 		add	a4,a4,a5
 1185 0198 93173700 		slli	a5,a4,3
 1186 019c 9387F700 		addi	a5,a5,15
 1187 01a0 93F707FF 		andi	a5,a5,-16
 1188 01a4 3301F140 		sub	sp,sp,a5
 1189              	.LVL111:
 1190 01a8 130C0100 		mv	s8,sp
 1191              	.LVL112:
 119:src/../test/ConsumerProducer_CPP_API_test.hpp ****         threadData[threadNum].buffer = buffer;
 1192              		.loc 3 119 9 is_stmt 1 discriminator 3
 119:src/../test/ConsumerProducer_CPP_API_test.hpp ****         threadData[threadNum].buffer = buffer;
 1193              		.loc 3 119 34 is_stmt 0 discriminator 3
 1194 01ac 93971900 		slli	a5,s3,1
 1195 01b0 B3873701 		add	a5,a5,s3
 1196 01b4 93943700 		slli	s1,a5,3
 1197 01b8 B3049C00 		add	s1,s8,s1
 1198 01bc 23A03401 		sw	s3,0(s1)
 120:src/../test/ConsumerProducer_CPP_API_test.hpp ****         threadData[threadNum].sem = waitForAll;
 1199              		.loc 3 120 9 is_stmt 1 discriminator 3
 120:src/../test/ConsumerProducer_CPP_API_test.hpp ****         threadData[threadNum].sem = waitForAll;
 1200              		.loc 3 120 38 is_stmt 0 discriminator 3
 1201 01c0 23B45401 		sd	s5,8(s1)
 121:src/../test/ConsumerProducer_CPP_API_test.hpp ****         Thread *consumer = new Consumer(&threadData[threadNum]);
 1202              		.loc 3 121 9 is_stmt 1 discriminator 3
 121:src/../test/ConsumerProducer_CPP_API_test.hpp ****         Thread *consumer = new Consumer(&threadData[threadNum]);
 1203              		.loc 3 121 35 is_stmt 0 discriminator 3
 1204 01c4 83370900 		ld	a5,0(s2)
 1205 01c8 23B8F400 		sd	a5,16(s1)
 122:src/../test/ConsumerProducer_CPP_API_test.hpp ****         consumer->start();
 1206              		.loc 3 122 9 is_stmt 1 discriminator 3
 122:src/../test/ConsumerProducer_CPP_API_test.hpp ****         consumer->start();
 1207              		.loc 3 122 63 is_stmt 0 discriminator 3
 1208 01cc 13050002 		li	a0,32
 1209              	.LEHB5:
 1210 01d0 97000000 		call	_Znwm
 1210      E7800000 
 1211              	.LVL113:
 1212 01d8 130B0500 		mv	s6,a0
 1213              	.LVL114:
 1214              	.LBB164:
 1215              	.LBB165:
 1216              	.LBB166:
 1217              	.LBB167:
  17:src/../test/../h/syscall_cpp.hpp ****     virtual void run () {}
 1218              		.loc 1 17 16 is_stmt 1 discriminator 3
  17:src/../test/../h/syscall_cpp.hpp ****     virtual void run () {}
 1219              		.loc 1 17 25 is_stmt 0 discriminator 3
 1220 01dc 23340500 		sd	zero,8(a0)
  17:src/../test/../h/syscall_cpp.hpp ****     virtual void run () {}
 1221              		.loc 1 17 36 is_stmt 1 discriminator 3
  17:src/../test/../h/syscall_cpp.hpp ****     virtual void run () {}
 1222              		.loc 1 17 44 is_stmt 0 discriminator 3
 1223 01e0 23380500 		sd	zero,16(a0)
 1224              	.LVL115:
 1225              	.LBE167:
 1226              	.LBE166:
  65:src/../test/ConsumerProducer_CPP_API_test.hpp **** 
GAS LISTING /tmp/cca4fSK0.s 			page 30


 1227              		.loc 3 65 54 discriminator 3
 1228 01e4 97070000 		lla	a5,_ZTVN19ConsumerProducerCPP8ConsumerE+16
 1228      93870700 
 1229 01ec 2330F500 		sd	a5,0(a0)
 1230 01f0 233C9500 		sd	s1,24(a0)
 1231              	.LVL116:
 1232              	.LBE165:
 1233              	.LBE164:
 123:src/../test/ConsumerProducer_CPP_API_test.hpp **** 
 1234              		.loc 3 123 9 is_stmt 1 discriminator 3
 123:src/../test/ConsumerProducer_CPP_API_test.hpp **** 
 1235              		.loc 3 123 24 is_stmt 0 discriminator 3
 1236 01f4 97000000 		call	_ZN6Thread5startEv
 1236      E7800000 
 1237              	.LVL117:
 125:src/../test/ConsumerProducer_CPP_API_test.hpp ****         threadData[0].buffer = buffer;
 1238              		.loc 3 125 9 is_stmt 1 discriminator 3
 125:src/../test/ConsumerProducer_CPP_API_test.hpp ****         threadData[0].buffer = buffer;
 1239              		.loc 3 125 26 is_stmt 0 discriminator 3
 1240 01fc 23200C00 		sw	zero,0(s8)
 126:src/../test/ConsumerProducer_CPP_API_test.hpp ****         threadData[0].sem = waitForAll;
 1241              		.loc 3 126 9 is_stmt 1 discriminator 3
 126:src/../test/ConsumerProducer_CPP_API_test.hpp ****         threadData[0].sem = waitForAll;
 1242              		.loc 3 126 30 is_stmt 0 discriminator 3
 1243 0200 23345C01 		sd	s5,8(s8)
 127:src/../test/ConsumerProducer_CPP_API_test.hpp ****         producers[0] = new ProducerKeyborad(&threadData[0]);
 1244              		.loc 3 127 9 is_stmt 1 discriminator 3
 127:src/../test/ConsumerProducer_CPP_API_test.hpp ****         producers[0] = new ProducerKeyborad(&threadData[0]);
 1245              		.loc 3 127 27 is_stmt 0 discriminator 3
 1246 0204 83370900 		ld	a5,0(s2)
 1247 0208 2338FC00 		sd	a5,16(s8)
 128:src/../test/ConsumerProducer_CPP_API_test.hpp ****         producers[0]->start();
 1248              		.loc 3 128 9 is_stmt 1 discriminator 3
 128:src/../test/ConsumerProducer_CPP_API_test.hpp ****         producers[0]->start();
 1249              		.loc 3 128 59 is_stmt 0 discriminator 3
 1250 020c 13050002 		li	a0,32
 1251 0210 97000000 		call	_Znwm
 1251      E7800000 
 1252              	.LVL118:
 1253              	.LBB168:
 1254              	.LBB169:
 1255              	.LBB170:
 1256              	.LBB171:
  17:src/../test/../h/syscall_cpp.hpp ****     virtual void run () {}
 1257              		.loc 1 17 16 is_stmt 1 discriminator 3
  17:src/../test/../h/syscall_cpp.hpp ****     virtual void run () {}
 1258              		.loc 1 17 25 is_stmt 0 discriminator 3
 1259 0218 23340500 		sd	zero,8(a0)
  17:src/../test/../h/syscall_cpp.hpp ****     virtual void run () {}
 1260              		.loc 1 17 36 is_stmt 1 discriminator 3
  17:src/../test/../h/syscall_cpp.hpp ****     virtual void run () {}
 1261              		.loc 1 17 44 is_stmt 0 discriminator 3
 1262 021c 23380500 		sd	zero,16(a0)
 1263              	.LVL119:
 1264              	.LBE171:
 1265              	.LBE170:
  28:src/../test/ConsumerProducer_CPP_API_test.hpp **** 
GAS LISTING /tmp/cca4fSK0.s 			page 31


 1266              		.loc 3 28 62 discriminator 3
 1267 0220 17070000 		lla	a4,_ZTVN19ConsumerProducerCPP16ProducerKeyboradE+16
 1267      13070700 
 1268 0228 2330E500 		sd	a4,0(a0)
 1269 022c 233C8501 		sd	s8,24(a0)
 1270              	.LVL120:
 1271              	.LBE169:
 1272              	.LBE168:
 128:src/../test/ConsumerProducer_CPP_API_test.hpp ****         producers[0]->start();
 1273              		.loc 3 128 22 discriminator 3
 1274 0230 2330AA00 		sd	a0,0(s4)
 129:src/../test/ConsumerProducer_CPP_API_test.hpp **** 
 1275              		.loc 3 129 9 is_stmt 1 discriminator 3
 129:src/../test/ConsumerProducer_CPP_API_test.hpp **** 
 1276              		.loc 3 129 28 is_stmt 0 discriminator 3
 1277 0234 97000000 		call	_ZN6Thread5startEv
 1277      E7800000 
 1278              	.LVL121:
 1279              	.LBB172:
 131:src/../test/ConsumerProducer_CPP_API_test.hpp ****             threadData[i].id = i;
 1280              		.loc 3 131 18 discriminator 3
 1281 023c 13091000 		li	s2,1
 1282              	.L43:
 1283              	.LVL122:
 131:src/../test/ConsumerProducer_CPP_API_test.hpp ****             threadData[i].id = i;
 1284              		.loc 3 131 27 discriminator 1
 1285 0240 63563907 		bge	s2,s3,.L42
 132:src/../test/ConsumerProducer_CPP_API_test.hpp ****             threadData[i].buffer = buffer;
 1286              		.loc 3 132 13 is_stmt 1
 132:src/../test/ConsumerProducer_CPP_API_test.hpp ****             threadData[i].buffer = buffer;
 1287              		.loc 3 132 30 is_stmt 0
 1288 0244 93171900 		slli	a5,s2,1
 1289 0248 B3872701 		add	a5,a5,s2
 1290 024c 93943700 		slli	s1,a5,3
 1291 0250 B3049C00 		add	s1,s8,s1
 1292 0254 23A02401 		sw	s2,0(s1)
 133:src/../test/ConsumerProducer_CPP_API_test.hpp ****             threadData[i].sem = waitForAll;
 1293              		.loc 3 133 13 is_stmt 1
 133:src/../test/ConsumerProducer_CPP_API_test.hpp ****             threadData[i].sem = waitForAll;
 1294              		.loc 3 133 34 is_stmt 0
 1295 0258 23B45401 		sd	s5,8(s1)
 134:src/../test/ConsumerProducer_CPP_API_test.hpp **** 
 1296              		.loc 3 134 13 is_stmt 1
 134:src/../test/ConsumerProducer_CPP_API_test.hpp **** 
 1297              		.loc 3 134 31 is_stmt 0
 1298 025c 97070000 		lla	a5,_ZN19ConsumerProducerCPP10waitForAllE
 1298      93870700 
 1299 0264 83B70700 		ld	a5,0(a5)
 1300 0268 23B8F400 		sd	a5,16(s1)
 136:src/../test/ConsumerProducer_CPP_API_test.hpp ****             producers[i]->start();
 1301              		.loc 3 136 13 is_stmt 1
 136:src/../test/ConsumerProducer_CPP_API_test.hpp ****             producers[i]->start();
 1302              		.loc 3 136 55 is_stmt 0
 1303 026c 13050002 		li	a0,32
 1304 0270 97000000 		call	_Znwm
 1304      E7800000 
 1305              	.LVL123:
GAS LISTING /tmp/cca4fSK0.s 			page 32


 1306              	.LBB173:
 1307              	.LBB174:
 1308              	.LBB175:
 1309              	.LBB176:
  17:src/../test/../h/syscall_cpp.hpp ****     virtual void run () {}
 1310              		.loc 1 17 16 is_stmt 1
  17:src/../test/../h/syscall_cpp.hpp ****     virtual void run () {}
 1311              		.loc 1 17 25 is_stmt 0
 1312 0278 23340500 		sd	zero,8(a0)
  17:src/../test/../h/syscall_cpp.hpp ****     virtual void run () {}
 1313              		.loc 1 17 36 is_stmt 1
  17:src/../test/../h/syscall_cpp.hpp ****     virtual void run () {}
 1314              		.loc 1 17 44 is_stmt 0
 1315 027c 23380500 		sd	zero,16(a0)
 1316              	.LVL124:
 1317              	.LBE176:
 1318              	.LBE175:
  48:src/../test/ConsumerProducer_CPP_API_test.hpp **** 
 1319              		.loc 3 48 54
 1320 0280 17070000 		lla	a4,_ZTVN19ConsumerProducerCPP8ProducerE+16
 1320      13070700 
 1321 0288 2330E500 		sd	a4,0(a0)
 1322 028c 233C9500 		sd	s1,24(a0)
 1323              	.LVL125:
 1324              	.LBE174:
 1325              	.LBE173:
 136:src/../test/ConsumerProducer_CPP_API_test.hpp ****             producers[i]->start();
 1326              		.loc 3 136 26
 1327 0290 13173900 		slli	a4,s2,3
 1328 0294 3307EA00 		add	a4,s4,a4
 1329 0298 2330A700 		sd	a0,0(a4)
 137:src/../test/ConsumerProducer_CPP_API_test.hpp **** 
 1330              		.loc 3 137 13 is_stmt 1
 137:src/../test/ConsumerProducer_CPP_API_test.hpp **** 
 1331              		.loc 3 137 32 is_stmt 0
 1332 029c 97000000 		call	_ZN6Thread5startEv
 1332      E7800000 
 1333              	.LVL126:
 131:src/../test/ConsumerProducer_CPP_API_test.hpp ****             threadData[i].id = i;
 1334              		.loc 3 131 9
 1335 02a4 1B091900 		addiw	s2,s2,1
 1336              	.LVL127:
 1337 02a8 6FF09FF9 		j	.L43
 1338              	.LVL128:
 1339              	.L42:
 1340              	.LBE172:
 141:src/../test/ConsumerProducer_CPP_API_test.hpp **** 
 1341              		.loc 3 141 9 is_stmt 1
 1342              	.LBB177:
 1343              	.LBB178:
  14:src/../test/../h/syscall_cpp.hpp ****     static void sleep (time_t time){ time_sleep(time); }
 1344              		.loc 1 14 31
  14:src/../test/../h/syscall_cpp.hpp ****     static void sleep (time_t time){ time_sleep(time); }
 1345              		.loc 1 14 46 is_stmt 0
 1346 02ac 97000000 		call	thread_dispatch
 1346      E7800000 
 1347              	.LVL129:
GAS LISTING /tmp/cca4fSK0.s 			page 33


 1348              	.LBE178:
 1349              	.LBE177:
 1350              	.LBB179:
 143:src/../test/ConsumerProducer_CPP_API_test.hpp ****             waitForAll->wait();
 1351              		.loc 3 143 18
 1352 02b4 93040000 		li	s1,0
 1353              	.L45:
 1354              	.LVL130:
 143:src/../test/ConsumerProducer_CPP_API_test.hpp ****             waitForAll->wait();
 1355              		.loc 3 143 27 discriminator 1
 1356 02b8 63C29902 		bgt	s1,s3,.L44
 144:src/../test/ConsumerProducer_CPP_API_test.hpp ****         }
 1357              		.loc 3 144 13 is_stmt 1
 144:src/../test/ConsumerProducer_CPP_API_test.hpp ****         }
 1358              		.loc 3 144 29 is_stmt 0
 1359 02bc 97070000 		lla	a5,_ZN19ConsumerProducerCPP10waitForAllE
 1359      93870700 
 1360 02c4 83B70700 		ld	a5,0(a5)
 1361              	.LVL131:
 1362              	.LBB180:
 1363              	.LBB181:
  29:src/../test/../h/syscall_cpp.hpp ****     void signal (){ sem_signal(myHandle); }
 1364              		.loc 1 29 19 is_stmt 1
  29:src/../test/../h/syscall_cpp.hpp ****     void signal (){ sem_signal(myHandle); }
 1365              		.loc 1 29 27 is_stmt 0
 1366 02c8 03B58700 		ld	a0,8(a5)
 1367 02cc 97000000 		call	sem_wait
 1367      E7800000 
 1368              	.LVL132:
 1369              	.LBE181:
 1370              	.LBE180:
 143:src/../test/ConsumerProducer_CPP_API_test.hpp ****             waitForAll->wait();
 1371              		.loc 3 143 9
 1372 02d4 9B841400 		addiw	s1,s1,1
 1373              	.LVL133:
 1374 02d8 6FF01FFE 		j	.L45
 1375              	.LVL134:
 1376              	.L44:
 1377              	.LBE179:
 147:src/../test/ConsumerProducer_CPP_API_test.hpp ****         for (int i = 0; i < threadNum; i++) {
 1378              		.loc 3 147 9 is_stmt 1
 147:src/../test/ConsumerProducer_CPP_API_test.hpp ****         for (int i = 0; i < threadNum; i++) {
 1379              		.loc 3 147 16 is_stmt 0
 1380 02dc 97070000 		lla	a5,_ZN19ConsumerProducerCPP10waitForAllE
 1380      93870700 
 1381 02e4 03B50700 		ld	a0,0(a5)
 147:src/../test/ConsumerProducer_CPP_API_test.hpp ****         for (int i = 0; i < threadNum; i++) {
 1382              		.loc 3 147 26
 1383 02e8 63080500 		beq	a0,zero,.L46
 147:src/../test/ConsumerProducer_CPP_API_test.hpp ****         for (int i = 0; i < threadNum; i++) {
 1384              		.loc 3 147 16 discriminator 1
 1385 02ec 83370500 		ld	a5,0(a0)
 1386 02f0 83B78700 		ld	a5,8(a5)
 1387 02f4 E7800700 		jalr	a5
 1388              	.LVL135:
 1389              	.L46:
 1390              	.LBB182:
GAS LISTING /tmp/cca4fSK0.s 			page 34


 143:src/../test/ConsumerProducer_CPP_API_test.hpp ****             waitForAll->wait();
 1391              		.loc 3 143 18 discriminator 1
 1392 02f8 93040000 		li	s1,0
 1393              	.LVL136:
 1394 02fc 6F008000 		j	.L49
 1395              	.LVL137:
 1396              	.L48:
 1397              	.LBE182:
 1398              	.LBB183:
 148:src/../test/ConsumerProducer_CPP_API_test.hpp ****             delete producers[i];
 1399              		.loc 3 148 9 discriminator 2
 1400 0300 9B841400 		addiw	s1,s1,1
 1401              	.LVL138:
 1402              	.L49:
 148:src/../test/ConsumerProducer_CPP_API_test.hpp ****             delete producers[i];
 1403              		.loc 3 148 27 discriminator 1
 1404 0304 63D23403 		bge	s1,s3,.L47
 149:src/../test/ConsumerProducer_CPP_API_test.hpp ****         }
 1405              		.loc 3 149 13 is_stmt 1
 149:src/../test/ConsumerProducer_CPP_API_test.hpp ****         }
 1406              		.loc 3 149 31 is_stmt 0
 1407 0308 93973400 		slli	a5,s1,3
 1408 030c B307FA00 		add	a5,s4,a5
 1409 0310 03B50700 		ld	a0,0(a5)
 149:src/../test/ConsumerProducer_CPP_API_test.hpp ****         }
 1410              		.loc 3 149 32
 1411 0314 E30605FE 		beq	a0,zero,.L48
 149:src/../test/ConsumerProducer_CPP_API_test.hpp ****         }
 1412              		.loc 3 149 31 discriminator 1
 1413 0318 83370500 		ld	a5,0(a0)
 1414 031c 83B78700 		ld	a5,8(a5)
 1415 0320 E7800700 		jalr	a5
 1416              	.LVL139:
 1417 0324 6FF0DFFD 		j	.L48
 1418              	.L47:
 1419              	.LBE183:
 151:src/../test/ConsumerProducer_CPP_API_test.hpp ****         delete buffer;
 1420              		.loc 3 151 9 is_stmt 1
 151:src/../test/ConsumerProducer_CPP_API_test.hpp ****         delete buffer;
 1421              		.loc 3 151 24 is_stmt 0
 1422 0328 630A0B00 		beq	s6,zero,.L50
 151:src/../test/ConsumerProducer_CPP_API_test.hpp ****         delete buffer;
 1423              		.loc 3 151 16 discriminator 1
 1424 032c 83370B00 		ld	a5,0(s6)
 1425 0330 83B78700 		ld	a5,8(a5)
 1426 0334 13050B00 		mv	a0,s6
 1427 0338 E7800700 		jalr	a5
 1428              	.LVL140:
 1429              	.L50:
 1430              		.loc 3 152 9 is_stmt 1
 1431              		.loc 3 152 22 is_stmt 0
 1432 033c 638E0A00 		beq	s5,zero,.L51
 1433              		.loc 3 152 16 discriminator 1
 1434 0340 13850A00 		mv	a0,s5
 1435 0344 97000000 		call	_ZN9BufferCPPD1Ev
 1435      E7800000 
 1436              	.LVL141:
GAS LISTING /tmp/cca4fSK0.s 			page 35


 1437 034c 13850A00 		mv	a0,s5
 1438 0350 97000000 		call	_ZdlPv
 1438      E7800000 
 1439              	.LVL142:
 1440              	.LEHE5:
 1441              	.L51:
 1442 0358 13810B00 		mv	sp,s7
 1443              	.LVL143:
 1444              	.L38:
 153:src/../test/ConsumerProducer_CPP_API_test.hpp ****     }
 1445              		.loc 3 153 5
 1446 035c 130104F9 		addi	sp,s0,-112
 1447              		.cfi_remember_state
 1448              		.cfi_def_cfa 2, 112
 1449 0360 83308106 		ld	ra,104(sp)
 1450              		.cfi_restore 1
 1451 0364 03340106 		ld	s0,96(sp)
 1452              		.cfi_restore 8
 1453 0368 83348105 		ld	s1,88(sp)
 1454              		.cfi_restore 9
 1455 036c 03390105 		ld	s2,80(sp)
 1456              		.cfi_restore 18
 1457 0370 83398104 		ld	s3,72(sp)
 1458              		.cfi_restore 19
 1459              	.LVL144:
 1460 0374 033A0104 		ld	s4,64(sp)
 1461              		.cfi_restore 20
 1462 0378 833A8103 		ld	s5,56(sp)
 1463              		.cfi_restore 21
 1464 037c 033B0103 		ld	s6,48(sp)
 1465              		.cfi_restore 22
 1466 0380 833B8102 		ld	s7,40(sp)
 1467              		.cfi_restore 23
 1468 0384 033C0102 		ld	s8,32(sp)
 1469              		.cfi_restore 24
 1470 0388 13010107 		addi	sp,sp,112
 1471              		.cfi_def_cfa_offset 0
 1472 038c 67800000 		jr	ra
 1473              	.LVL145:
 1474              	.L55:
 1475              		.cfi_restore_state
 1476 0390 93040500 		mv	s1,a0
 1477              	.LVL146:
 113:src/../test/ConsumerProducer_CPP_API_test.hpp **** 
 1478              		.loc 3 113 44
 1479 0394 13850A00 		mv	a0,s5
 1480 0398 97000000 		call	_ZdlPv
 1480      E7800000 
 1481              	.LVL147:
 1482 03a0 13850400 		mv	a0,s1
 1483              	.LEHB6:
 1484 03a4 97000000 		call	_Unwind_Resume
 1484      E7800000 
 1485              	.LVL148:
 1486              	.LEHE6:
 1487              	.L56:
 1488 03ac 13090500 		mv	s2,a0
GAS LISTING /tmp/cca4fSK0.s 			page 36


 115:src/../test/ConsumerProducer_CPP_API_test.hpp ****         Thread *producers[threadNum];
 1489              		.loc 3 115 37
 1490 03b0 13850400 		mv	a0,s1
 1491 03b4 97000000 		call	_ZdlPv
 1491      E7800000 
 1492              	.LVL149:
 1493 03bc 13050900 		mv	a0,s2
 1494              	.LEHB7:
 1495 03c0 97000000 		call	_Unwind_Resume
 1495      E7800000 
 1496              	.LVL150:
 1497              	.LEHE7:
 1498              		.cfi_endproc
 1499              	.LFE35:
 1500              		.section	.gcc_except_table,"aw",@progbits
 1501              	.LLSDA35:
 1502 0000 FF       		.byte	0xff
 1503 0001 FF       		.byte	0xff
 1504 0002 03       		.byte	0x3
 1505 0003 5B       		.byte	0x5b
 1506 0004 00000000 		.4byte	.LEHB1-.LFB35
 1507 0008 00000000 		.4byte	.LEHE1-.LEHB1
 1508 000c 00000000 		.4byte	0
 1509 0010 00       		.byte	0
 1510 0011 00000000 		.4byte	.LEHB2-.LFB35
 1511 0015 00000000 		.4byte	.LEHE2-.LEHB2
 1512 0019 00000000 		.4byte	.L55-.LFB35
 1513 001d 00       		.byte	0
 1514 001e 00000000 		.4byte	.LEHB3-.LFB35
 1515 0022 00000000 		.4byte	.LEHE3-.LEHB3
 1516 0026 00000000 		.4byte	0
 1517 002a 00       		.byte	0
 1518 002b 00000000 		.4byte	.LEHB4-.LFB35
 1519 002f 00000000 		.4byte	.LEHE4-.LEHB4
 1520 0033 00000000 		.4byte	.L56-.LFB35
 1521 0037 00       		.byte	0
 1522 0038 00000000 		.4byte	.LEHB5-.LFB35
 1523 003c 00000000 		.4byte	.LEHE5-.LEHB5
 1524 0040 00000000 		.4byte	0
 1525 0044 00       		.byte	0
 1526 0045 00000000 		.4byte	.LEHB6-.LFB35
 1527 0049 00000000 		.4byte	.LEHE6-.LEHB6
 1528 004d 00000000 		.4byte	0
 1529 0051 00       		.byte	0
 1530 0052 00000000 		.4byte	.LEHB7-.LFB35
 1531 0056 00000000 		.4byte	.LEHE7-.LEHB7
 1532 005a 00000000 		.4byte	0
 1533 005e 00       		.byte	0
 1534              		.text
 1536              		.align	2
 1537              		.globl	_Z8userMainv
 1539              	_Z8userMainv:
 1540              	.LFB36:
 1541              		.file 4 "src/userMain.cpp"
   1:src/userMain.cpp **** //RADI: #include "../test/Threads_C_API_test.hpp" // zadatak 2, niti C API i sinhrona promena konte
   2:src/userMain.cpp **** //#include "../test/Threads_CPP_API_test.hpp" // zadatak 2., niti CPP API i sinhrona promena kontek
   3:src/userMain.cpp **** 
GAS LISTING /tmp/cca4fSK0.s 			page 37


   4:src/userMain.cpp **** //#include "../test/ConsumerProducer_C_API_test.h" // zadatak 3., kompletan C API sa semaforima, si
   5:src/userMain.cpp **** //#include "../test/ConsumerProducer_CPP_Sync_API_test.hpp" // zadatak 3., kompletan CPP API sa sem
   6:src/userMain.cpp **** 
   7:src/userMain.cpp **** //RADI: #include "../test/ThreadSleep_C_API_test.hpp" // thread_sleep test C API
   8:src/userMain.cpp **** #include "../test/ConsumerProducer_CPP_API_test.hpp" // zadatak 4. CPP API i asinhrona promena kont
   9:src/userMain.cpp **** 
  10:src/userMain.cpp **** void userMain() {
 1542              		.loc 4 10 17 is_stmt 1
 1543              		.cfi_startproc
 1544 03c8 130101FF 		addi	sp,sp,-16
 1545              		.cfi_def_cfa_offset 16
 1546 03cc 23341100 		sd	ra,8(sp)
 1547 03d0 23308100 		sd	s0,0(sp)
 1548              		.cfi_offset 1, -8
 1549              		.cfi_offset 8, -16
 1550 03d4 13040101 		addi	s0,sp,16
 1551              		.cfi_def_cfa 8, 0
  11:src/userMain.cpp ****     //RADI: Threads_C_API_test(); // zadatak 2., niti C API i sinhrona promena konteksta
  12:src/userMain.cpp ****     //RADI: Threads_CPP_API_test(); // zadatak 2., niti CPP API i sinhrona promena konteksta
  13:src/userMain.cpp **** 
  14:src/userMain.cpp ****     //producerConsumer_C_API(); // zadatak 3., kompletan C API sa semaforima, sinhrona promena kont
  15:src/userMain.cpp ****     //producerConsumer_CPP_Sync_API(); // zadatak 3., kompletan CPP API sa semaforima, sinhrona pro
  16:src/userMain.cpp **** 
  17:src/userMain.cpp ****     //RADI: testSleeping(); // thread_sleep test C API
  18:src/userMain.cpp ****     ConsumerProducerCPP::testConsumerProducer(); // zadatak 4. CPP API i asinhrona promena kontekst
 1552              		.loc 4 18 5
 1553              		.loc 4 18 46 is_stmt 0
 1554 03d8 97000000 		call	_ZN19ConsumerProducerCPP20testConsumerProducerEv
 1554      E7800000 
 1555              	.LVL151:
  19:src/userMain.cpp **** 
  20:src/userMain.cpp **** }...
 1556              		.loc 4 20 1
 1557 03e0 83308100 		ld	ra,8(sp)
 1558              		.cfi_restore 1
 1559 03e4 03340100 		ld	s0,0(sp)
 1560              		.cfi_restore 8
 1561              		.cfi_def_cfa 2, 16
 1562 03e8 13010101 		addi	sp,sp,16
 1563              		.cfi_def_cfa_offset 0
 1564 03ec 67800000 		jr	ra
 1565              		.cfi_endproc
 1566              	.LFE36:
 1568              		.weak	_ZTV6Thread
 1569              		.section	.rodata._ZTV6Thread,"aG",@progbits,_ZTV6Thread,comdat
 1570              		.align	3
 1573              	_ZTV6Thread:
 1574 0000 00000000 		.dword	0
 1574      00000000 
 1575 0008 00000000 		.dword	0
 1575      00000000 
 1576 0010 00000000 		.dword	_ZN6ThreadD1Ev
 1576      00000000 
 1577 0018 00000000 		.dword	_ZN6ThreadD0Ev
 1577      00000000 
 1578 0020 00000000 		.dword	_ZN6Thread3runEv
 1578      00000000 
GAS LISTING /tmp/cca4fSK0.s 			page 38


 1579              		.weak	_ZTV9Semaphore
 1580              		.section	.rodata._ZTV9Semaphore,"aG",@progbits,_ZTV9Semaphore,comdat
 1581              		.align	3
 1584              	_ZTV9Semaphore:
 1585 0000 00000000 		.dword	0
 1585      00000000 
 1586 0008 00000000 		.dword	0
 1586      00000000 
 1587 0010 00000000 		.dword	_ZN9SemaphoreD1Ev
 1587      00000000 
 1588 0018 00000000 		.dword	_ZN9SemaphoreD0Ev
 1588      00000000 
 1589              		.weak	_ZTVN19ConsumerProducerCPP16ProducerKeyboradE
 1590              		.section	.rodata._ZTVN19ConsumerProducerCPP16ProducerKeyboradE,"aG",@progbits,_ZTVN19ConsumerProdu
 1591              		.align	3
 1594              	_ZTVN19ConsumerProducerCPP16ProducerKeyboradE:
 1595 0000 00000000 		.dword	0
 1595      00000000 
 1596 0008 00000000 		.dword	0
 1596      00000000 
 1597 0010 00000000 		.dword	_ZN19ConsumerProducerCPP16ProducerKeyboradD1Ev
 1597      00000000 
 1598 0018 00000000 		.dword	_ZN19ConsumerProducerCPP16ProducerKeyboradD0Ev
 1598      00000000 
 1599 0020 00000000 		.dword	_ZN19ConsumerProducerCPP16ProducerKeyborad3runEv
 1599      00000000 
 1600              		.weak	_ZTVN19ConsumerProducerCPP8ProducerE
 1601              		.section	.rodata._ZTVN19ConsumerProducerCPP8ProducerE,"aG",@progbits,_ZTVN19ConsumerProducerCPP8Pr
 1602              		.align	3
 1605              	_ZTVN19ConsumerProducerCPP8ProducerE:
 1606 0000 00000000 		.dword	0
 1606      00000000 
 1607 0008 00000000 		.dword	0
 1607      00000000 
 1608 0010 00000000 		.dword	_ZN19ConsumerProducerCPP8ProducerD1Ev
 1608      00000000 
 1609 0018 00000000 		.dword	_ZN19ConsumerProducerCPP8ProducerD0Ev
 1609      00000000 
 1610 0020 00000000 		.dword	_ZN19ConsumerProducerCPP8Producer3runEv
 1610      00000000 
 1611              		.weak	_ZTVN19ConsumerProducerCPP8ConsumerE
 1612              		.section	.rodata._ZTVN19ConsumerProducerCPP8ConsumerE,"aG",@progbits,_ZTVN19ConsumerProducerCPP8Co
 1613              		.align	3
 1616              	_ZTVN19ConsumerProducerCPP8ConsumerE:
 1617 0000 00000000 		.dword	0
 1617      00000000 
 1618 0008 00000000 		.dword	0
 1618      00000000 
 1619 0010 00000000 		.dword	_ZN19ConsumerProducerCPP8ConsumerD1Ev
 1619      00000000 
 1620 0018 00000000 		.dword	_ZN19ConsumerProducerCPP8ConsumerD0Ev
 1620      00000000 
 1621 0020 00000000 		.dword	_ZN19ConsumerProducerCPP8Consumer3runEv
 1621      00000000 
 1622              		.globl	_ZN19ConsumerProducerCPP9threadEndE
 1623              		.globl	_ZN19ConsumerProducerCPP10waitForAllE
 1624              		.section	.rodata.str1.8,"aMS",@progbits,1
GAS LISTING /tmp/cca4fSK0.s 			page 39


 1625              		.align	3
 1626              	.LC0:
 1627 0000 556E6573 		.string	"Unesite broj proizvodjaca?\n"
 1627      69746520 
 1627      62726F6A 
 1627      2070726F 
 1627      697A766F 
 1628 001c 00000000 		.zero	4
 1629              	.LC1:
 1630 0020 556E6573 		.string	"Unesite velicinu bafera?\n"
 1630      69746520 
 1630      76656C69 
 1630      63696E75 
 1630      20626166 
 1631 003a 00000000 		.zero	6
 1631      0000
 1632              	.LC2:
 1633 0040 42726F6A 		.string	"Broj proizvodjaca "
 1633      2070726F 
 1633      697A766F 
 1633      646A6163 
 1633      612000
 1634 0053 00000000 		.zero	5
 1634      00
 1635              	.LC3:
 1636 0058 20692076 		.string	" i velicina bafera "
 1636      656C6963 
 1636      696E6120 
 1636      62616665 
 1636      72612000 
 1637 006c 00000000 		.zero	4
 1638              	.LC4:
 1639 0070 2E0A00   		.string	".\n"
 1640 0073 00000000 		.zero	5
 1640      00
 1641              	.LC5:
 1642 0078 42726F6A 		.string	"Broj proizvodjaca ne sme biti manji od velicine bafera!\n"
 1642      2070726F 
 1642      697A766F 
 1642      646A6163 
 1642      61206E65 
 1643 00b1 00000000 		.zero	7
 1643      000000
 1644              	.LC6:
 1645 00b8 42726F6A 		.string	"Broj proizvodjaca mora biti veci od nula!\n"
 1645      2070726F 
 1645      697A766F 
 1645      646A6163 
 1645      61206D6F 
 1646              		.section	.sbss,"aw",@nobits
 1647              		.align	3
 1650              	_ZN19ConsumerProducerCPP9threadEndE:
 1651 0000 00000000 		.zero	4
 1652 0004 00000000 		.zero	4
 1655              	_ZN19ConsumerProducerCPP10waitForAllE:
 1656 0008 00000000 		.zero	8
 1656      00000000 
GAS LISTING /tmp/cca4fSK0.s 			page 40


 1657              		.text
 1658              	.Letext0:
 1659              		.file 5 "src/../test/../h/../lib/hw.h"
 1660              		.file 6 "src/../test/../h/../h/_semaphore.hpp"
 1661              		.file 7 "src/../test/buffer_CPP_API.hpp"
 1662              		.file 8 "src/../test/../h/syscall_c.h"
 1663              		.file 9 "src/../test/printing.hpp"
 6408              		.align	3
 6411              	DW.ref.__gxx_personality_v0:
 6412 0000 00000000 		.dword	__gxx_personality_v0
 6412      00000000 
 6413              		.ident	"GCC: () 8.3.0"
GAS LISTING /tmp/cca4fSK0.s 			page 41

