GAS LISTING /tmp/ccRsVzN4.s 			page 1


   1              		.file	"kernel_lib.cpp"
   2              		.option nopic
   3              		.option norelax
   4              		.attribute arch, "rv64i2p0_m2p0_a2p0"
   5              		.attribute unaligned_access, 0
   6              		.attribute stack_align, 16
   7              		.text
   8              	.Ltext0:
   9              		.align	2
  10              		.globl	_ZN8KSysCall15thread_dispatchEv
  12              	_ZN8KSysCall15thread_dispatchEv:
  13              	.LFB113:
  14              		.file 1 "src/kernel/core/kernel_lib.cpp"
   1:src/kernel/core/kernel_lib.cpp **** #include"../../../h/kernel_lib.h"
   2:src/kernel/core/kernel_lib.cpp **** 
   3:src/kernel/core/kernel_lib.cpp **** namespace KSysCall{
   4:src/kernel/core/kernel_lib.cpp ****     void thread_dispatch(){
  15              		.loc 1 4 27
  16              		.cfi_startproc
  17 0000 130101FF 		addi	sp,sp,-16
  18              		.cfi_def_cfa_offset 16
  19 0004 23348100 		sd	s0,8(sp)
  20              		.cfi_offset 8, -8
  21 0008 13040101 		addi	s0,sp,16
  22              		.cfi_def_cfa 8, 0
   5:src/kernel/core/kernel_lib.cpp ****         __asm__ volatile("mv a0, %0" : : "r" (0x13));
  23              		.loc 1 5 9
  24              		.loc 1 5 53 is_stmt 0
  25 000c 93073001 		li	a5,19
  26              	 #APP
  27              	# 5 "src/kernel/core/kernel_lib.cpp" 1
   6              	        __asm__ volatile("ecall");  
  28              		mv a0, a5
  29              	# 0 "" 2
  30              		.loc 1 6 9 is_stmt 1
  31              		.loc 1 6 34 is_stmt 0
  32              	# 6 "src/kernel/core/kernel_lib.cpp" 1
   7              	    }
  33              		ecall
  34              	# 0 "" 2
  35              		.loc 1 7 5
  36              	 #NO_APP
  37 0018 03348100 		ld	s0,8(sp)
  38              		.cfi_restore 8
  39              		.cfi_def_cfa 2, 16
  40 001c 13010101 		addi	sp,sp,16
  41              		.cfi_def_cfa_offset 0
  42 0020 67800000 		jr	ra
  43              		.cfi_endproc
  44              	.LFE113:
  46              		.align	2
  47              		.globl	_Z12idleFunctionPv
  49              	_Z12idleFunctionPv:
  50              	.LFB114:
   8:src/kernel/core/kernel_lib.cpp **** }
   9:src/kernel/core/kernel_lib.cpp **** 
  10:src/kernel/core/kernel_lib.cpp **** void idleFunction(void*)
GAS LISTING /tmp/ccRsVzN4.s 			page 2


  11:src/kernel/core/kernel_lib.cpp **** {
  51              		.loc 1 11 1 is_stmt 1
  52              		.cfi_startproc
  53 0024 130101FF 		addi	sp,sp,-16
  54              		.cfi_def_cfa_offset 16
  55 0028 23341100 		sd	ra,8(sp)
  56 002c 23308100 		sd	s0,0(sp)
  57              		.cfi_offset 1, -8
  58              		.cfi_offset 8, -16
  59 0030 13040101 		addi	s0,sp,16
  60              		.cfi_def_cfa 8, 0
  61              	.L4:
  12:src/kernel/core/kernel_lib.cpp ****     while(1){ 
  62              		.loc 1 12 5 discriminator 1
  13:src/kernel/core/kernel_lib.cpp ****         /* 
  14:src/kernel/core/kernel_lib.cpp ****         *   Cannot swap thread_dispatch() sys_call for TCB::yield() because
  15:src/kernel/core/kernel_lib.cpp ****         *   yeild must be atomic so we must call it in kernel locked mode
  16:src/kernel/core/kernel_lib.cpp ****         *   but if we make this thread kernel locked and it becomes alone in scheduler 
  17:src/kernel/core/kernel_lib.cpp ****         *   cpu will never get to the other threads because there will be no interruption. 
  18:src/kernel/core/kernel_lib.cpp ****         *
  19:src/kernel/core/kernel_lib.cpp ****         *   We could make preemptive kernel thread but that is a little bit harder.
  20:src/kernel/core/kernel_lib.cpp ****         *   We must make INTERRUPTION LOCK FUNCTION (function that disables interrupts)  
  21:src/kernel/core/kernel_lib.cpp ****         *   that will lock the thread when executing critical section code! TODO or NOT
  22:src/kernel/core/kernel_lib.cpp ****         *    
  23:src/kernel/core/kernel_lib.cpp ****         */
  24:src/kernel/core/kernel_lib.cpp ****         KSysCall::thread_dispatch();
  63              		.loc 1 24 9 discriminator 1
  64              		.loc 1 24 34 is_stmt 0 discriminator 1
  65 0034 97000000 		call	_ZN8KSysCall15thread_dispatchEv
  65      E7800000 
  66              	.LVL0:
  67 003c 6FF09FFF 		j	.L4
  68              		.cfi_endproc
  69              	.LFE114:
  71              		.align	2
  72              		.globl	_Z5kputcc
  74              	_Z5kputcc:
  75              	.LFB115:
  25:src/kernel/core/kernel_lib.cpp ****     }
  26:src/kernel/core/kernel_lib.cpp **** }
  27:src/kernel/core/kernel_lib.cpp **** 
  28:src/kernel/core/kernel_lib.cpp **** void kputc(char c){
  76              		.loc 1 28 19 is_stmt 1
  77              		.cfi_startproc
  78              	.LVL1:
  79 0040 130101FF 		addi	sp,sp,-16
  80              		.cfi_def_cfa_offset 16
  81 0044 23348100 		sd	s0,8(sp)
  82              		.cfi_offset 8, -8
  83 0048 13040101 		addi	s0,sp,16
  84              		.cfi_def_cfa 8, 0
  29:src/kernel/core/kernel_lib.cpp ****     char* odata = (char*)CONSOLE_TX_DATA, 
  85              		.loc 1 29 5
  86              		.loc 1 29 11 is_stmt 0
  87 004c 97070000 		lla	a5,CONSOLE_TX_DATA
  87      93870700 
  88 0054 83B60700 		ld	a3,0(a5)
GAS LISTING /tmp/ccRsVzN4.s 			page 3


  89              	.LVL2:
  30:src/kernel/core/kernel_lib.cpp ****     *iostatus = (char*)CONSOLE_STATUS;
  90              		.loc 1 30 6
  91 0058 97070000 		lla	a5,CONSOLE_STATUS
  91      93870700 
  92 0060 03B70700 		ld	a4,0(a5)
  93              	.LVL3:
  94              	.L7:
  31:src/kernel/core/kernel_lib.cpp ****     while(!(*iostatus & CONSOLE_TX_STATUS_BIT));
  95              		.loc 1 31 5 is_stmt 1
  96              		.loc 1 31 13 is_stmt 0
  97 0064 83470700 		lbu	a5,0(a4)
  98              		.loc 1 31 11
  99 0068 93F70702 		andi	a5,a5,32
 100 006c E38C07FE 		beq	a5,zero,.L7
  32:src/kernel/core/kernel_lib.cpp ****     *odata = c;
 101              		.loc 1 32 5 is_stmt 1
 102              		.loc 1 32 12 is_stmt 0
 103 0070 2380A600 		sb	a0,0(a3)
  33:src/kernel/core/kernel_lib.cpp **** }
 104              		.loc 1 33 1
 105 0074 03348100 		ld	s0,8(sp)
 106              		.cfi_restore 8
 107              		.cfi_def_cfa 2, 16
 108 0078 13010101 		addi	sp,sp,16
 109              		.cfi_def_cfa_offset 0
 110 007c 67800000 		jr	ra
 111              		.cfi_endproc
 112              	.LFE115:
 114              		.align	2
 115              		.globl	_Z12kprintStringPKc
 117              	_Z12kprintStringPKc:
 118              	.LFB116:
  34:src/kernel/core/kernel_lib.cpp **** 
  35:src/kernel/core/kernel_lib.cpp **** void kprintString(const char* string)
  36:src/kernel/core/kernel_lib.cpp **** {
 119              		.loc 1 36 1 is_stmt 1
 120              		.cfi_startproc
 121              	.LVL4:
 122 0080 130101FE 		addi	sp,sp,-32
 123              		.cfi_def_cfa_offset 32
 124 0084 233C1100 		sd	ra,24(sp)
 125 0088 23388100 		sd	s0,16(sp)
 126 008c 23349100 		sd	s1,8(sp)
 127              		.cfi_offset 1, -8
 128              		.cfi_offset 8, -16
 129              		.cfi_offset 9, -24
 130 0090 13040102 		addi	s0,sp,32
 131              		.cfi_def_cfa 8, 0
 132 0094 93040500 		mv	s1,a0
  37:src/kernel/core/kernel_lib.cpp ****     if(!string) return;
 133              		.loc 1 37 5
 134 0098 630E0500 		beq	a0,zero,.L9
 135              	.LVL5:
 136              	.L11:
  38:src/kernel/core/kernel_lib.cpp ****     while(*string)
 137              		.loc 1 38 5
GAS LISTING /tmp/ccRsVzN4.s 			page 4


 138              		.loc 1 38 11 is_stmt 0
 139 009c 03C50400 		lbu	a0,0(s1)
 140              		.loc 1 38 12
 141 00a0 630A0500 		beq	a0,zero,.L9
  39:src/kernel/core/kernel_lib.cpp ****     {
  40:src/kernel/core/kernel_lib.cpp ****         kputc(*string);
 142              		.loc 1 40 9 is_stmt 1
 143              		.loc 1 40 14 is_stmt 0
 144 00a4 97000000 		call	_Z5kputcc
 144      E7800000 
 145              	.LVL6:
  41:src/kernel/core/kernel_lib.cpp ****         string++;
 146              		.loc 1 41 9 is_stmt 1
 147              		.loc 1 41 15 is_stmt 0
 148 00ac 93841400 		addi	s1,s1,1
 149              	.LVL7:
  38:src/kernel/core/kernel_lib.cpp ****     while(*string)
 150              		.loc 1 38 5
 151 00b0 6FF0DFFE 		j	.L11
 152              	.L9:
  42:src/kernel/core/kernel_lib.cpp ****     }
  43:src/kernel/core/kernel_lib.cpp **** }
 153              		.loc 1 43 1
 154 00b4 83308101 		ld	ra,24(sp)
 155              		.cfi_restore 1
 156 00b8 03340101 		ld	s0,16(sp)
 157              		.cfi_restore 8
 158              		.cfi_def_cfa 2, 32
 159 00bc 83348100 		ld	s1,8(sp)
 160              		.cfi_restore 9
 161              	.LVL8:
 162 00c0 13010102 		addi	sp,sp,32
 163              		.cfi_def_cfa_offset 0
 164 00c4 67800000 		jr	ra
 165              		.cfi_endproc
 166              	.LFE116:
 168              		.align	2
 169              		.globl	_Z9kprintIntmib
 171              	_Z9kprintIntmib:
 172              	.LFB118:
  44:src/kernel/core/kernel_lib.cpp **** 
  45:src/kernel/core/kernel_lib.cpp **** int kernelInit()
  46:src/kernel/core/kernel_lib.cpp **** {
  47:src/kernel/core/kernel_lib.cpp ****     
  48:src/kernel/core/kernel_lib.cpp ****     kprintString("--------------KERNEL INIT--------------\n");
  49:src/kernel/core/kernel_lib.cpp ****     /* CHECKING VALUES OF KERNEL STATIC VARIABLES */
  50:src/kernel/core/kernel_lib.cpp ****     KCHECKPRINT(HEAP_START_ADDR);
  51:src/kernel/core/kernel_lib.cpp ****     KCHECKPRINT(HEAP_END_ADDR);
  52:src/kernel/core/kernel_lib.cpp ****     KCHECKPRINT(KERNEL_TEXT_START);
  53:src/kernel/core/kernel_lib.cpp ****     KCHECKPRINT(KERNEL_TEXT_END);
  54:src/kernel/core/kernel_lib.cpp ****     KCHECKPRINT(USER_TEXT_START);
  55:src/kernel/core/kernel_lib.cpp ****     KCHECKPRINT(USER_TEXT_END);
  56:src/kernel/core/kernel_lib.cpp ****     KCHECKPRINT(USER_BSS_START);
  57:src/kernel/core/kernel_lib.cpp ****     KCHECKPRINT(USER_BSS_END);
  58:src/kernel/core/kernel_lib.cpp ****     KCHECKPRINT(USER_DATA_START);
  59:src/kernel/core/kernel_lib.cpp ****     KCHECKPRINT(USER_DATA_END);
  60:src/kernel/core/kernel_lib.cpp ****     KCHECKPRINT(USER_RODATA_START);
GAS LISTING /tmp/ccRsVzN4.s 			page 5


  61:src/kernel/core/kernel_lib.cpp ****     KCHECKPRINT(USER_RODATA_END);
  62:src/kernel/core/kernel_lib.cpp ****     KCHECKPRINT(sizeof(PMT));
  63:src/kernel/core/kernel_lib.cpp ****     kprintString("\n\n");
  64:src/kernel/core/kernel_lib.cpp **** 
  65:src/kernel/core/kernel_lib.cpp ****     /* INITALIZING MAIN KERNEL OBJECTS */
  66:src/kernel/core/kernel_lib.cpp ****     NoAlloc::init();
  67:src/kernel/core/kernel_lib.cpp ****     kprintString("NoAlloc initalized: ");
  68:src/kernel/core/kernel_lib.cpp ****     KVALCHECKPRINT(NOALLOC_END_ADDR, NoAlloc::getEndAddress());
  69:src/kernel/core/kernel_lib.cpp **** 
  70:src/kernel/core/kernel_lib.cpp ****     kprintString("Initalizing kmem!!!\n");
  71:src/kernel/core/kernel_lib.cpp ****     if(kmi()){
  72:src/kernel/core/kernel_lib.cpp ****         kprintString("KMEM NOT SUCCESSFULLY INITALIZED!!!\n");
  73:src/kernel/core/kernel_lib.cpp ****         return 1;
  74:src/kernel/core/kernel_lib.cpp ****     }
  75:src/kernel/core/kernel_lib.cpp ****     kprintString("kmem initalized!!!\n");
  76:src/kernel/core/kernel_lib.cpp **** 
  77:src/kernel/core/kernel_lib.cpp **** 
  78:src/kernel/core/kernel_lib.cpp ****     kprintString("Paging init!\n");
  79:src/kernel/core/kernel_lib.cpp ****     Riscv::ms_sstatus(Riscv::BitMaskSstatus::SSTATUS_SUM);
  80:src/kernel/core/kernel_lib.cpp ****     Pager& pager = Pager::getInstance();
  81:src/kernel/core/kernel_lib.cpp ****     pager.map_kernel();
  82:src/kernel/core/kernel_lib.cpp ****     pager.map_user();
  83:src/kernel/core/kernel_lib.cpp ****     pager.start_paging();
  84:src/kernel/core/kernel_lib.cpp ****     kprintString("Paging initalized!\n");
  85:src/kernel/core/kernel_lib.cpp **** 
  86:src/kernel/core/kernel_lib.cpp ****     Riscv::w_stvec((uint64)interruptvec); 
  87:src/kernel/core/kernel_lib.cpp ****     kprintString("stvec initalized!\n");
  88:src/kernel/core/kernel_lib.cpp ****     
  89:src/kernel/core/kernel_lib.cpp ****     MemoryAllocator::getInstance().print_list();
  90:src/kernel/core/kernel_lib.cpp ****     kprintString("MemoryAllocator initalized!\n");
  91:src/kernel/core/kernel_lib.cpp ****     
  92:src/kernel/core/kernel_lib.cpp ****     Scheduler::initalize();
  93:src/kernel/core/kernel_lib.cpp ****     kprintString("Scheduler initalized!\n");
  94:src/kernel/core/kernel_lib.cpp ****     
  95:src/kernel/core/kernel_lib.cpp ****     StdIO::initalize();
  96:src/kernel/core/kernel_lib.cpp ****     kprintString("StdIO initalized!\n");
  97:src/kernel/core/kernel_lib.cpp ****     
  98:src/kernel/core/kernel_lib.cpp ****     TCB::createMainKernelThread();
  99:src/kernel/core/kernel_lib.cpp ****     kprintString("Main kenrel thread initalized!\n");
 100:src/kernel/core/kernel_lib.cpp **** 
 101:src/kernel/core/kernel_lib.cpp ****     kprintString("Initalizing user thread and idle thread...\n");
 102:src/kernel/core/kernel_lib.cpp ****     uint64* userMainStack = (uint64*)MemoryAllocator::getInstance().mem_alloc((DEFAULT_STACK_SIZE-1
 103:src/kernel/core/kernel_lib.cpp ****     TCB* userMainThread = TCB::createThread(userMainWrapper, nullptr, userMainStack);
 104:src/kernel/core/kernel_lib.cpp **** 
 105:src/kernel/core/kernel_lib.cpp ****     uint64* idleThreadStack = (uint64*)SlabAllocator::getInstance().kmalloc(DEFAULT_STACK_SIZE);
 106:src/kernel/core/kernel_lib.cpp ****     TCB* idleThread = TCB::createThread(idleFunction, nullptr, idleThreadStack);
 107:src/kernel/core/kernel_lib.cpp ****     idleThread->setKernelMode();
 108:src/kernel/core/kernel_lib.cpp ****     if(userMainStack && idleThreadStack && idleThread && userMainThread)
 109:src/kernel/core/kernel_lib.cpp ****         kprintString("Threads successfully initalized!\n");
 110:src/kernel/core/kernel_lib.cpp ****     else
 111:src/kernel/core/kernel_lib.cpp ****         return -1; /* EXCEPTION */
 112:src/kernel/core/kernel_lib.cpp ****     kprintString("-----------KERNEL INITALIZED-----------\n\n");
 113:src/kernel/core/kernel_lib.cpp **** 
 114:src/kernel/core/kernel_lib.cpp ****     return 0;
 115:src/kernel/core/kernel_lib.cpp **** }
 116:src/kernel/core/kernel_lib.cpp **** 
 117:src/kernel/core/kernel_lib.cpp **** char kdigits[] = "0123456789ABCDEF";
GAS LISTING /tmp/ccRsVzN4.s 			page 6


 118:src/kernel/core/kernel_lib.cpp **** void kprintInt(uint64 xx, int base, bool sgn){
 173              		.loc 1 118 46 is_stmt 1
 174              		.cfi_startproc
 175              	.LVL9:
 176 00c8 130101FC 		addi	sp,sp,-64
 177              		.cfi_def_cfa_offset 64
 178 00cc 233C1102 		sd	ra,56(sp)
 179 00d0 23388102 		sd	s0,48(sp)
 180 00d4 23349102 		sd	s1,40(sp)
 181 00d8 23302103 		sd	s2,32(sp)
 182 00dc 233C3101 		sd	s3,24(sp)
 183              		.cfi_offset 1, -8
 184              		.cfi_offset 8, -16
 185              		.cfi_offset 9, -24
 186              		.cfi_offset 18, -32
 187              		.cfi_offset 19, -40
 188 00e0 13040104 		addi	s0,sp,64
 189              		.cfi_def_cfa 8, 0
 190 00e4 13090500 		mv	s2,a0
 191 00e8 93890500 		mv	s3,a1
 119:src/kernel/core/kernel_lib.cpp ****     char buf[16];
 192              		.loc 1 119 5
 120:src/kernel/core/kernel_lib.cpp ****     int i;
 193              		.loc 1 120 5
 121:src/kernel/core/kernel_lib.cpp ****     if(sgn && base == 10){ 
 194              		.loc 1 121 5
 195 00ec 63060600 		beq	a2,zero,.L14
 196              		.loc 1 121 12 is_stmt 0 discriminator 1
 197 00f0 9307A000 		li	a5,10
 198 00f4 6386F500 		beq	a1,a5,.L20
 199              	.LVL10:
 200              	.L14:
 118:src/kernel/core/kernel_lib.cpp ****     char buf[16];
 201              		.loc 1 118 46
 202 00f8 93070000 		li	a5,0
 203 00fc 6F00C001 		j	.L15
 204              	.LVL11:
 205              	.L20:
 122:src/kernel/core/kernel_lib.cpp ****         kputc('-');
 206              		.loc 1 122 9 is_stmt 1
 207              		.loc 1 122 14 is_stmt 0
 208 0100 1305D002 		li	a0,45
 209              	.LVL12:
 210 0104 97000000 		call	_Z5kputcc
 210      E7800000 
 211              	.LVL13:
 123:src/kernel/core/kernel_lib.cpp ****         xx = -xx;
 212              		.loc 1 123 9 is_stmt 1
 213              		.loc 1 123 12 is_stmt 0
 214 010c 33092041 		neg	s2,s2
 215              	.LVL14:
 216 0110 6FF09FFE 		j	.L14
 217              	.LVL15:
 218              	.L18:
 124:src/kernel/core/kernel_lib.cpp ****     }
 125:src/kernel/core/kernel_lib.cpp **** 
 126:src/kernel/core/kernel_lib.cpp ****     i = 0;
GAS LISTING /tmp/ccRsVzN4.s 			page 7


 127:src/kernel/core/kernel_lib.cpp ****     do{
 128:src/kernel/core/kernel_lib.cpp ****         buf[i++] = kdigits[xx % base];
 129:src/kernel/core/kernel_lib.cpp ****     }while((xx /= base) != 0);
 219              		.loc 1 129 16
 220 0114 13090700 		mv	s2,a4
 221              	.LVL16:
 222              	.L15:
 127:src/kernel/core/kernel_lib.cpp ****         buf[i++] = kdigits[xx % base];
 223              		.loc 1 127 5 is_stmt 1
 128:src/kernel/core/kernel_lib.cpp ****     }while((xx /= base) != 0);
 224              		.loc 1 128 9
 128:src/kernel/core/kernel_lib.cpp ****     }while((xx /= base) != 0);
 225              		.loc 1 128 31 is_stmt 0
 226 0118 B3763903 		remu	a3,s2,s3
 128:src/kernel/core/kernel_lib.cpp ****     }while((xx /= base) != 0);
 227              		.loc 1 128 14
 228 011c 9B841700 		addiw	s1,a5,1
 229              	.LVL17:
 128:src/kernel/core/kernel_lib.cpp ****     }while((xx /= base) != 0);
 230              		.loc 1 128 37
 231 0120 17070000 		lla	a4,.LANCHOR0
 231      13070700 
 232 0128 3307D700 		add	a4,a4,a3
 233 012c 03470700 		lbu	a4,0(a4)
 128:src/kernel/core/kernel_lib.cpp ****     }while((xx /= base) != 0);
 234              		.loc 1 128 18
 235 0130 930604FD 		addi	a3,s0,-48
 236 0134 B387F600 		add	a5,a3,a5
 237              	.LVL18:
 238 0138 2388E7FE 		sb	a4,-16(a5)
 239              		.loc 1 129 16
 240 013c 33573903 		divu	a4,s2,s3
 241              	.LVL19:
 128:src/kernel/core/kernel_lib.cpp ****     }while((xx /= base) != 0);
 242              		.loc 1 128 14
 243 0140 93870400 		mv	a5,s1
 244              		.loc 1 129 25
 245 0144 E37839FD 		bleu	s3,s2,.L18
 246              	.LVL20:
 247              	.L17:
 130:src/kernel/core/kernel_lib.cpp ****     
 131:src/kernel/core/kernel_lib.cpp ****     while(--i >= 0)
 248              		.loc 1 131 5 is_stmt 1
 249              		.loc 1 131 15 is_stmt 0
 250 0148 9B84F4FF 		addiw	s1,s1,-1
 251              	.LVL21:
 252 014c 63CE0400 		blt	s1,zero,.L13
 132:src/kernel/core/kernel_lib.cpp ****         kputc(buf[i]);
 253              		.loc 1 132 9 is_stmt 1
 254              		.loc 1 132 14 is_stmt 0
 255 0150 930704FD 		addi	a5,s0,-48
 256 0154 B3879700 		add	a5,a5,s1
 257 0158 03C507FF 		lbu	a0,-16(a5)
 258 015c 97000000 		call	_Z5kputcc
 258      E7800000 
 259              	.LVL22:
 131:src/kernel/core/kernel_lib.cpp ****         kputc(buf[i]);
GAS LISTING /tmp/ccRsVzN4.s 			page 8


 260              		.loc 1 131 5
 261 0164 6FF05FFE 		j	.L17
 262              	.L13:
 133:src/kernel/core/kernel_lib.cpp **** }
 263              		.loc 1 133 1
 264 0168 83308103 		ld	ra,56(sp)
 265              		.cfi_restore 1
 266 016c 03340103 		ld	s0,48(sp)
 267              		.cfi_restore 8
 268              		.cfi_def_cfa 2, 64
 269 0170 83348102 		ld	s1,40(sp)
 270              		.cfi_restore 9
 271 0174 03390102 		ld	s2,32(sp)
 272              		.cfi_restore 18
 273              	.LVL23:
 274 0178 83398101 		ld	s3,24(sp)
 275              		.cfi_restore 19
 276 017c 13010104 		addi	sp,sp,64
 277              		.cfi_def_cfa_offset 0
 278 0180 67800000 		jr	ra
 279              		.cfi_endproc
 280              	.LFE118:
 282              		.align	2
 283              		.globl	_Z10kernelInitv
 285              	_Z10kernelInitv:
 286              	.LFB117:
  46:src/kernel/core/kernel_lib.cpp ****     
 287              		.loc 1 46 1 is_stmt 1
 288              		.cfi_startproc
 289 0184 130101FD 		addi	sp,sp,-48
 290              		.cfi_def_cfa_offset 48
 291 0188 23341102 		sd	ra,40(sp)
 292 018c 23308102 		sd	s0,32(sp)
 293 0190 233C9100 		sd	s1,24(sp)
 294 0194 23382101 		sd	s2,16(sp)
 295 0198 23343101 		sd	s3,8(sp)
 296 019c 23304101 		sd	s4,0(sp)
 297              		.cfi_offset 1, -8
 298              		.cfi_offset 8, -16
 299              		.cfi_offset 9, -24
 300              		.cfi_offset 18, -32
 301              		.cfi_offset 19, -40
 302              		.cfi_offset 20, -48
 303 01a0 13040103 		addi	s0,sp,48
 304              		.cfi_def_cfa 8, 0
  48:src/kernel/core/kernel_lib.cpp ****     /* CHECKING VALUES OF KERNEL STATIC VARIABLES */
 305              		.loc 1 48 5
  48:src/kernel/core/kernel_lib.cpp ****     /* CHECKING VALUES OF KERNEL STATIC VARIABLES */
 306              		.loc 1 48 17 is_stmt 0
 307 01a4 17050000 		lla	a0,.LC0
 307      13050500 
 308 01ac 97000000 		call	_Z12kprintStringPKc
 308      E7800000 
 309              	.LVL24:
  50:src/kernel/core/kernel_lib.cpp ****     KCHECKPRINT(HEAP_END_ADDR);
 310              		.loc 1 50 5 is_stmt 1
 311 01b4 17050000 		lla	a0,.LC1
GAS LISTING /tmp/ccRsVzN4.s 			page 9


 311      13050500 
 312 01bc 97000000 		call	_Z12kprintStringPKc
 312      E7800000 
 313              	.LVL25:
  50:src/kernel/core/kernel_lib.cpp ****     KCHECKPRINT(HEAP_END_ADDR);
 314              		.loc 1 50 5
 315 01c4 13060000 		li	a2,0
 316 01c8 93050001 		li	a1,16
 317 01cc 97070000 		lla	a5,HEAP_START_ADDR
 317      93870700 
 318 01d4 03B50700 		ld	a0,0(a5)
 319 01d8 97000000 		call	_Z9kprintIntmib
 319      E7800000 
 320              	.LVL26:
  50:src/kernel/core/kernel_lib.cpp ****     KCHECKPRINT(HEAP_END_ADDR);
 321              		.loc 1 50 5
 322 01e0 17050000 		lla	a0,.LC2
 322      13050500 
 323 01e8 97000000 		call	_Z12kprintStringPKc
 323      E7800000 
 324              	.LVL27:
  51:src/kernel/core/kernel_lib.cpp ****     KCHECKPRINT(KERNEL_TEXT_START);
 325              		.loc 1 51 5
 326 01f0 17050000 		lla	a0,.LC3
 326      13050500 
 327 01f8 97000000 		call	_Z12kprintStringPKc
 327      E7800000 
 328              	.LVL28:
  51:src/kernel/core/kernel_lib.cpp ****     KCHECKPRINT(KERNEL_TEXT_START);
 329              		.loc 1 51 5
 330 0200 13060000 		li	a2,0
 331 0204 93050001 		li	a1,16
 332 0208 97070000 		lla	a5,HEAP_END_ADDR
 332      93870700 
 333 0210 03B50700 		ld	a0,0(a5)
 334 0214 97000000 		call	_Z9kprintIntmib
 334      E7800000 
 335              	.LVL29:
  51:src/kernel/core/kernel_lib.cpp ****     KCHECKPRINT(KERNEL_TEXT_START);
 336              		.loc 1 51 5
 337 021c 17050000 		lla	a0,.LC2
 337      13050500 
 338 0224 97000000 		call	_Z12kprintStringPKc
 338      E7800000 
 339              	.LVL30:
  52:src/kernel/core/kernel_lib.cpp ****     KCHECKPRINT(KERNEL_TEXT_END);
 340              		.loc 1 52 5
 341 022c 17050000 		lla	a0,.LC4
 341      13050500 
 342 0234 97000000 		call	_Z12kprintStringPKc
 342      E7800000 
 343              	.LVL31:
  52:src/kernel/core/kernel_lib.cpp ****     KCHECKPRINT(KERNEL_TEXT_END);
 344              		.loc 1 52 5
 345 023c 13060000 		li	a2,0
 346 0240 93050001 		li	a1,16
 347 0244 97070000 		lla	a5,KERNEL_TEXT_START
GAS LISTING /tmp/ccRsVzN4.s 			page 10


 347      93870700 
 348 024c 03B50700 		ld	a0,0(a5)
 349 0250 97000000 		call	_Z9kprintIntmib
 349      E7800000 
 350              	.LVL32:
  52:src/kernel/core/kernel_lib.cpp ****     KCHECKPRINT(KERNEL_TEXT_END);
 351              		.loc 1 52 5
 352 0258 17050000 		lla	a0,.LC2
 352      13050500 
 353 0260 97000000 		call	_Z12kprintStringPKc
 353      E7800000 
 354              	.LVL33:
  53:src/kernel/core/kernel_lib.cpp ****     KCHECKPRINT(USER_TEXT_START);
 355              		.loc 1 53 5
 356 0268 17050000 		lla	a0,.LC5
 356      13050500 
 357 0270 97000000 		call	_Z12kprintStringPKc
 357      E7800000 
 358              	.LVL34:
  53:src/kernel/core/kernel_lib.cpp ****     KCHECKPRINT(USER_TEXT_START);
 359              		.loc 1 53 5
 360 0278 13060000 		li	a2,0
 361 027c 93050001 		li	a1,16
 362 0280 97070000 		lla	a5,KERNEL_TEXT_END
 362      93870700 
 363 0288 03B50700 		ld	a0,0(a5)
 364 028c 97000000 		call	_Z9kprintIntmib
 364      E7800000 
 365              	.LVL35:
  53:src/kernel/core/kernel_lib.cpp ****     KCHECKPRINT(USER_TEXT_START);
 366              		.loc 1 53 5
 367 0294 17050000 		lla	a0,.LC2
 367      13050500 
 368 029c 97000000 		call	_Z12kprintStringPKc
 368      E7800000 
 369              	.LVL36:
  54:src/kernel/core/kernel_lib.cpp ****     KCHECKPRINT(USER_TEXT_END);
 370              		.loc 1 54 5
 371 02a4 17050000 		lla	a0,.LC6
 371      13050500 
 372 02ac 97000000 		call	_Z12kprintStringPKc
 372      E7800000 
 373              	.LVL37:
  54:src/kernel/core/kernel_lib.cpp ****     KCHECKPRINT(USER_TEXT_END);
 374              		.loc 1 54 5
 375 02b4 13060000 		li	a2,0
 376 02b8 93050001 		li	a1,16
 377 02bc 97070000 		lla	a5,USER_TEXT_START
 377      93870700 
 378 02c4 03B50700 		ld	a0,0(a5)
 379 02c8 97000000 		call	_Z9kprintIntmib
 379      E7800000 
 380              	.LVL38:
  54:src/kernel/core/kernel_lib.cpp ****     KCHECKPRINT(USER_TEXT_END);
 381              		.loc 1 54 5
 382 02d0 17050000 		lla	a0,.LC2
 382      13050500 
GAS LISTING /tmp/ccRsVzN4.s 			page 11


 383 02d8 97000000 		call	_Z12kprintStringPKc
 383      E7800000 
 384              	.LVL39:
  55:src/kernel/core/kernel_lib.cpp ****     KCHECKPRINT(USER_BSS_START);
 385              		.loc 1 55 5
 386 02e0 17050000 		lla	a0,.LC7
 386      13050500 
 387 02e8 97000000 		call	_Z12kprintStringPKc
 387      E7800000 
 388              	.LVL40:
  55:src/kernel/core/kernel_lib.cpp ****     KCHECKPRINT(USER_BSS_START);
 389              		.loc 1 55 5
 390 02f0 13060000 		li	a2,0
 391 02f4 93050001 		li	a1,16
 392 02f8 97070000 		lla	a5,USER_TEXT_END
 392      93870700 
 393 0300 03B50700 		ld	a0,0(a5)
 394 0304 97000000 		call	_Z9kprintIntmib
 394      E7800000 
 395              	.LVL41:
  55:src/kernel/core/kernel_lib.cpp ****     KCHECKPRINT(USER_BSS_START);
 396              		.loc 1 55 5
 397 030c 17050000 		lla	a0,.LC2
 397      13050500 
 398 0314 97000000 		call	_Z12kprintStringPKc
 398      E7800000 
 399              	.LVL42:
  56:src/kernel/core/kernel_lib.cpp ****     KCHECKPRINT(USER_BSS_END);
 400              		.loc 1 56 5
 401 031c 17050000 		lla	a0,.LC8
 401      13050500 
 402 0324 97000000 		call	_Z12kprintStringPKc
 402      E7800000 
 403              	.LVL43:
  56:src/kernel/core/kernel_lib.cpp ****     KCHECKPRINT(USER_BSS_END);
 404              		.loc 1 56 5
 405 032c 13060000 		li	a2,0
 406 0330 93050001 		li	a1,16
 407 0334 97070000 		lla	a5,USER_BSS_START
 407      93870700 
 408 033c 03B50700 		ld	a0,0(a5)
 409 0340 97000000 		call	_Z9kprintIntmib
 409      E7800000 
 410              	.LVL44:
  56:src/kernel/core/kernel_lib.cpp ****     KCHECKPRINT(USER_BSS_END);
 411              		.loc 1 56 5
 412 0348 17050000 		lla	a0,.LC2
 412      13050500 
 413 0350 97000000 		call	_Z12kprintStringPKc
 413      E7800000 
 414              	.LVL45:
  57:src/kernel/core/kernel_lib.cpp ****     KCHECKPRINT(USER_DATA_START);
 415              		.loc 1 57 5
 416 0358 17050000 		lla	a0,.LC9
 416      13050500 
 417 0360 97000000 		call	_Z12kprintStringPKc
 417      E7800000 
GAS LISTING /tmp/ccRsVzN4.s 			page 12


 418              	.LVL46:
  57:src/kernel/core/kernel_lib.cpp ****     KCHECKPRINT(USER_DATA_START);
 419              		.loc 1 57 5
 420 0368 13060000 		li	a2,0
 421 036c 93050001 		li	a1,16
 422 0370 97070000 		lla	a5,USER_BSS_END
 422      93870700 
 423 0378 03B50700 		ld	a0,0(a5)
 424 037c 97000000 		call	_Z9kprintIntmib
 424      E7800000 
 425              	.LVL47:
  57:src/kernel/core/kernel_lib.cpp ****     KCHECKPRINT(USER_DATA_START);
 426              		.loc 1 57 5
 427 0384 17050000 		lla	a0,.LC2
 427      13050500 
 428 038c 97000000 		call	_Z12kprintStringPKc
 428      E7800000 
 429              	.LVL48:
  58:src/kernel/core/kernel_lib.cpp ****     KCHECKPRINT(USER_DATA_END);
 430              		.loc 1 58 5
 431 0394 17050000 		lla	a0,.LC10
 431      13050500 
 432 039c 97000000 		call	_Z12kprintStringPKc
 432      E7800000 
 433              	.LVL49:
  58:src/kernel/core/kernel_lib.cpp ****     KCHECKPRINT(USER_DATA_END);
 434              		.loc 1 58 5
 435 03a4 13060000 		li	a2,0
 436 03a8 93050001 		li	a1,16
 437 03ac 97070000 		lla	a5,USER_DATA_START
 437      93870700 
 438 03b4 03B50700 		ld	a0,0(a5)
 439 03b8 97000000 		call	_Z9kprintIntmib
 439      E7800000 
 440              	.LVL50:
  58:src/kernel/core/kernel_lib.cpp ****     KCHECKPRINT(USER_DATA_END);
 441              		.loc 1 58 5
 442 03c0 17050000 		lla	a0,.LC2
 442      13050500 
 443 03c8 97000000 		call	_Z12kprintStringPKc
 443      E7800000 
 444              	.LVL51:
  59:src/kernel/core/kernel_lib.cpp ****     KCHECKPRINT(USER_RODATA_START);
 445              		.loc 1 59 5
 446 03d0 17050000 		lla	a0,.LC11
 446      13050500 
 447 03d8 97000000 		call	_Z12kprintStringPKc
 447      E7800000 
 448              	.LVL52:
  59:src/kernel/core/kernel_lib.cpp ****     KCHECKPRINT(USER_RODATA_START);
 449              		.loc 1 59 5
 450 03e0 13060000 		li	a2,0
 451 03e4 93050001 		li	a1,16
 452 03e8 97070000 		lla	a5,USER_DATA_END
 452      93870700 
 453 03f0 03B50700 		ld	a0,0(a5)
 454 03f4 97000000 		call	_Z9kprintIntmib
GAS LISTING /tmp/ccRsVzN4.s 			page 13


 454      E7800000 
 455              	.LVL53:
  59:src/kernel/core/kernel_lib.cpp ****     KCHECKPRINT(USER_RODATA_START);
 456              		.loc 1 59 5
 457 03fc 17050000 		lla	a0,.LC2
 457      13050500 
 458 0404 97000000 		call	_Z12kprintStringPKc
 458      E7800000 
 459              	.LVL54:
  60:src/kernel/core/kernel_lib.cpp ****     KCHECKPRINT(USER_RODATA_END);
 460              		.loc 1 60 5
 461 040c 17050000 		lla	a0,.LC12
 461      13050500 
 462 0414 97000000 		call	_Z12kprintStringPKc
 462      E7800000 
 463              	.LVL55:
  60:src/kernel/core/kernel_lib.cpp ****     KCHECKPRINT(USER_RODATA_END);
 464              		.loc 1 60 5
 465 041c 13060000 		li	a2,0
 466 0420 93050001 		li	a1,16
 467 0424 97070000 		lla	a5,USER_RODATA_START
 467      93870700 
 468 042c 03B50700 		ld	a0,0(a5)
 469 0430 97000000 		call	_Z9kprintIntmib
 469      E7800000 
 470              	.LVL56:
  60:src/kernel/core/kernel_lib.cpp ****     KCHECKPRINT(USER_RODATA_END);
 471              		.loc 1 60 5
 472 0438 17050000 		lla	a0,.LC2
 472      13050500 
 473 0440 97000000 		call	_Z12kprintStringPKc
 473      E7800000 
 474              	.LVL57:
  61:src/kernel/core/kernel_lib.cpp ****     KCHECKPRINT(sizeof(PMT));
 475              		.loc 1 61 5
 476 0448 17050000 		lla	a0,.LC13
 476      13050500 
 477 0450 97000000 		call	_Z12kprintStringPKc
 477      E7800000 
 478              	.LVL58:
  61:src/kernel/core/kernel_lib.cpp ****     KCHECKPRINT(sizeof(PMT));
 479              		.loc 1 61 5
 480 0458 13060000 		li	a2,0
 481 045c 93050001 		li	a1,16
 482 0460 97070000 		lla	a5,USER_RODATA_END
 482      93870700 
 483 0468 03B50700 		ld	a0,0(a5)
 484 046c 97000000 		call	_Z9kprintIntmib
 484      E7800000 
 485              	.LVL59:
  61:src/kernel/core/kernel_lib.cpp ****     KCHECKPRINT(sizeof(PMT));
 486              		.loc 1 61 5
 487 0474 17050000 		lla	a0,.LC2
 487      13050500 
 488 047c 97000000 		call	_Z12kprintStringPKc
 488      E7800000 
 489              	.LVL60:
GAS LISTING /tmp/ccRsVzN4.s 			page 14


  62:src/kernel/core/kernel_lib.cpp ****     kprintString("\n\n");
 490              		.loc 1 62 5
 491 0484 17050000 		lla	a0,.LC14
 491      13050500 
 492 048c 97000000 		call	_Z12kprintStringPKc
 492      E7800000 
 493              	.LVL61:
  62:src/kernel/core/kernel_lib.cpp ****     kprintString("\n\n");
 494              		.loc 1 62 5
 495 0494 13060000 		li	a2,0
 496 0498 93050001 		li	a1,16
 497 049c 37150000 		li	a0,4096
 498 04a0 97000000 		call	_Z9kprintIntmib
 498      E7800000 
 499              	.LVL62:
  62:src/kernel/core/kernel_lib.cpp ****     kprintString("\n\n");
 500              		.loc 1 62 5
 501 04a8 17050000 		lla	a0,.LC2
 501      13050500 
 502 04b0 97000000 		call	_Z12kprintStringPKc
 502      E7800000 
 503              	.LVL63:
  63:src/kernel/core/kernel_lib.cpp **** 
 504              		.loc 1 63 5
  63:src/kernel/core/kernel_lib.cpp **** 
 505              		.loc 1 63 17 is_stmt 0
 506 04b8 17050000 		lla	a0,.LC15
 506      13050500 
 507 04c0 97000000 		call	_Z12kprintStringPKc
 507      E7800000 
 508              	.LVL64:
  66:src/kernel/core/kernel_lib.cpp ****     kprintString("NoAlloc initalized: ");
 509              		.loc 1 66 5 is_stmt 1
  66:src/kernel/core/kernel_lib.cpp ****     kprintString("NoAlloc initalized: ");
 510              		.loc 1 66 18 is_stmt 0
 511 04c8 97000000 		call	_ZN7NoAlloc4initEv
 511      E7800000 
 512              	.LVL65:
  67:src/kernel/core/kernel_lib.cpp ****     KVALCHECKPRINT(NOALLOC_END_ADDR, NoAlloc::getEndAddress());
 513              		.loc 1 67 5 is_stmt 1
  67:src/kernel/core/kernel_lib.cpp ****     KVALCHECKPRINT(NOALLOC_END_ADDR, NoAlloc::getEndAddress());
 514              		.loc 1 67 17 is_stmt 0
 515 04d0 17050000 		lla	a0,.LC16
 515      13050500 
 516 04d8 97000000 		call	_Z12kprintStringPKc
 516      E7800000 
 517              	.LVL66:
  68:src/kernel/core/kernel_lib.cpp **** 
 518              		.loc 1 68 5 is_stmt 1
 519 04e0 17050000 		lla	a0,.LC17
 519      13050500 
 520 04e8 97000000 		call	_Z12kprintStringPKc
 520      E7800000 
 521              	.LVL67:
  68:src/kernel/core/kernel_lib.cpp **** 
 522              		.loc 1 68 5
 523              	.LBB14:
GAS LISTING /tmp/ccRsVzN4.s 			page 15


 524              	.LBB15:
 525              		.file 2 "src/kernel/core/../../../h/../h/noalloc_allocator.hpp"
   1:src/kernel/core/../../../h/../h/noalloc_allocator.hpp **** #ifndef NOALLOC_ALLOCATOR_H
   2:src/kernel/core/../../../h/../h/noalloc_allocator.hpp **** #define NOALLOC_ALLOCATOR_H
   3:src/kernel/core/../../../h/../h/noalloc_allocator.hpp **** 
   4:src/kernel/core/../../../h/../h/noalloc_allocator.hpp **** #include"../lib/hw.h"
   5:src/kernel/core/../../../h/../h/noalloc_allocator.hpp **** 
   6:src/kernel/core/../../../h/../h/noalloc_allocator.hpp **** /* CHECK THIS !!!!!
   7:src/kernel/core/../../../h/../h/noalloc_allocator.hpp **** *
   8:src/kernel/core/../../../h/../h/noalloc_allocator.hpp **** * No existing allocator operator functions;
   9:src/kernel/core/../../../h/../h/noalloc_allocator.hpp **** * Used for allocating allocator objects;
  10:src/kernel/core/../../../h/../h/noalloc_allocator.hpp **** * Allocators are not deallocated so operator delete is not needed;
  11:src/kernel/core/../../../h/../h/noalloc_allocator.hpp **** *
  12:src/kernel/core/../../../h/../h/noalloc_allocator.hpp **** */
  13:src/kernel/core/../../../h/../h/noalloc_allocator.hpp **** #define __NOALLOC_OPERATORS__ \
  14:src/kernel/core/../../../h/../h/noalloc_allocator.hpp **** void* operator new(size_t sz){ return NoAlloc::mem_alloc(sz); } \
  15:src/kernel/core/../../../h/../h/noalloc_allocator.hpp **** void* operator new[](size_t sz){ return NoAlloc::mem_alloc(sz); } \
  16:src/kernel/core/../../../h/../h/noalloc_allocator.hpp **** void operator delete(void* ptr){  } \
  17:src/kernel/core/../../../h/../h/noalloc_allocator.hpp **** void operator delete[](void* ptr){  }
  18:src/kernel/core/../../../h/../h/noalloc_allocator.hpp **** 
  19:src/kernel/core/../../../h/../h/noalloc_allocator.hpp **** 
  20:src/kernel/core/../../../h/../h/noalloc_allocator.hpp **** /* 
  21:src/kernel/core/../../../h/../h/noalloc_allocator.hpp **** * Continual allocation used when there is no allocator;
  22:src/kernel/core/../../../h/../h/noalloc_allocator.hpp **** * -----USED FOR ALLOCATING ALLOCATOR OBJECTS-----
  23:src/kernel/core/../../../h/../h/noalloc_allocator.hpp **** */
  24:src/kernel/core/../../../h/../h/noalloc_allocator.hpp **** class NoAlloc{ /* singleton */ 
  25:src/kernel/core/../../../h/../h/noalloc_allocator.hpp ****     static bool working;
  26:src/kernel/core/../../../h/../h/noalloc_allocator.hpp ****     static void* NOALLOC_END_ADDR; 
  27:src/kernel/core/../../../h/../h/noalloc_allocator.hpp **** public:
  28:src/kernel/core/../../../h/../h/noalloc_allocator.hpp ****     static void init(); /* set NOALLOC END ADDR = HEAP START ADDR */
  29:src/kernel/core/../../../h/../h/noalloc_allocator.hpp ****     static void* getEndAddress(){ return NOALLOC_END_ADDR; } /* get end address of allocated object
 526              		.loc 2 29 35
 527              	.LBE15:
 528              	.LBE14:
  68:src/kernel/core/kernel_lib.cpp **** 
 529              		.loc 1 68 5 is_stmt 0
 530 04f0 13060000 		li	a2,0
 531 04f4 93050001 		li	a1,16
 532 04f8 97070000 		lla	a5,_ZN7NoAlloc16NOALLOC_END_ADDRE
 532      93870700 
 533 0500 03B50700 		ld	a0,0(a5)
 534 0504 97000000 		call	_Z9kprintIntmib
 534      E7800000 
 535              	.LVL68:
  68:src/kernel/core/kernel_lib.cpp **** 
 536              		.loc 1 68 5 is_stmt 1
 537 050c 17050000 		lla	a0,.LC2
 537      13050500 
 538 0514 97000000 		call	_Z12kprintStringPKc
 538      E7800000 
 539              	.LVL69:
  70:src/kernel/core/kernel_lib.cpp ****     if(kmi()){
 540              		.loc 1 70 5
  70:src/kernel/core/kernel_lib.cpp ****     if(kmi()){
 541              		.loc 1 70 17 is_stmt 0
 542 051c 17050000 		lla	a0,.LC18
 542      13050500 
GAS LISTING /tmp/ccRsVzN4.s 			page 16


 543 0524 97000000 		call	_Z12kprintStringPKc
 543      E7800000 
 544              	.LVL70:
  71:src/kernel/core/kernel_lib.cpp ****         kprintString("KMEM NOT SUCCESSFULLY INITALIZED!!!\n");
 545              		.loc 1 71 5 is_stmt 1
  71:src/kernel/core/kernel_lib.cpp ****         kprintString("KMEM NOT SUCCESSFULLY INITALIZED!!!\n");
 546              		.loc 1 71 11 is_stmt 0
 547 052c 97000000 		call	_Z3kmiv
 547      E7800000 
 548              	.LVL71:
  71:src/kernel/core/kernel_lib.cpp ****         kprintString("KMEM NOT SUCCESSFULLY INITALIZED!!!\n");
 549              		.loc 1 71 5
 550 0534 631E0518 		bne	a0,zero,.L29
 551 0538 93040500 		mv	s1,a0
  75:src/kernel/core/kernel_lib.cpp **** 
 552              		.loc 1 75 5 is_stmt 1
  75:src/kernel/core/kernel_lib.cpp **** 
 553              		.loc 1 75 17 is_stmt 0
 554 053c 17050000 		lla	a0,.LC20
 554      13050500 
 555 0544 97000000 		call	_Z12kprintStringPKc
 555      E7800000 
 556              	.LVL72:
  78:src/kernel/core/kernel_lib.cpp ****     Riscv::ms_sstatus(Riscv::BitMaskSstatus::SSTATUS_SUM);
 557              		.loc 1 78 5 is_stmt 1
  78:src/kernel/core/kernel_lib.cpp ****     Riscv::ms_sstatus(Riscv::BitMaskSstatus::SSTATUS_SUM);
 558              		.loc 1 78 17 is_stmt 0
 559 054c 17050000 		lla	a0,.LC21
 559      13050500 
 560 0554 97000000 		call	_Z12kprintStringPKc
 560      E7800000 
 561              	.LVL73:
  79:src/kernel/core/kernel_lib.cpp ****     Pager& pager = Pager::getInstance();
 562              		.loc 1 79 5 is_stmt 1
 563              	.LBB16:
 564              	.LBB17:
 565              		.file 3 "src/kernel/core/../../../h/../h/riscv.hpp"
   1:src/kernel/core/../../../h/../h/riscv.hpp **** #ifndef __riscv__
   2:src/kernel/core/../../../h/../h/riscv.hpp **** #define __riscv__
   3:src/kernel/core/../../../h/../h/riscv.hpp **** 
   4:src/kernel/core/../../../h/../h/riscv.hpp **** #include"../lib/hw.h"
   5:src/kernel/core/../../../h/../h/riscv.hpp **** 
   6:src/kernel/core/../../../h/../h/riscv.hpp **** class Riscv{
   7:src/kernel/core/../../../h/../h/riscv.hpp **** public:
   8:src/kernel/core/../../../h/../h/riscv.hpp **** /* 
   9:src/kernel/core/../../../h/../h/riscv.hpp **** --------------------SUPERVISOR REGISTERS--------------------    
  10:src/kernel/core/../../../h/../h/riscv.hpp **** */
  11:src/kernel/core/../../../h/../h/riscv.hpp ****     static void w_scause(uint64);
  12:src/kernel/core/../../../h/../h/riscv.hpp ****     static uint64 r_scause(); 
  13:src/kernel/core/../../../h/../h/riscv.hpp **** 
  14:src/kernel/core/../../../h/../h/riscv.hpp ****     static void w_sepc(uint64);
  15:src/kernel/core/../../../h/../h/riscv.hpp ****     static uint64 r_sepc();
  16:src/kernel/core/../../../h/../h/riscv.hpp ****     static void ni_sepc();
  17:src/kernel/core/../../../h/../h/riscv.hpp **** 
  18:src/kernel/core/../../../h/../h/riscv.hpp ****     static void w_stvec(uint64);
  19:src/kernel/core/../../../h/../h/riscv.hpp ****     static uint64 r_stvec();
  20:src/kernel/core/../../../h/../h/riscv.hpp ****      
GAS LISTING /tmp/ccRsVzN4.s 			page 17


  21:src/kernel/core/../../../h/../h/riscv.hpp ****     static void w_stval(uint64);
  22:src/kernel/core/../../../h/../h/riscv.hpp ****     static uint64 r_stval();
  23:src/kernel/core/../../../h/../h/riscv.hpp **** 
  24:src/kernel/core/../../../h/../h/riscv.hpp ****     static void w_satp(uint64);
  25:src/kernel/core/../../../h/../h/riscv.hpp ****     static uint64 r_satp();
  26:src/kernel/core/../../../h/../h/riscv.hpp ****     
  27:src/kernel/core/../../../h/../h/riscv.hpp ****     enum BitMaskSip{
  28:src/kernel/core/../../../h/../h/riscv.hpp ****         SIP_SSIE = (1<<1),
  29:src/kernel/core/../../../h/../h/riscv.hpp ****         SIP_STIE = (1<<5),
  30:src/kernel/core/../../../h/../h/riscv.hpp ****         SIP_SEIE = (1<<9),
  31:src/kernel/core/../../../h/../h/riscv.hpp ****     };
  32:src/kernel/core/../../../h/../h/riscv.hpp **** 
  33:src/kernel/core/../../../h/../h/riscv.hpp ****     static void ms_sip(uint64);
  34:src/kernel/core/../../../h/../h/riscv.hpp ****     static void mc_sip(uint64);
  35:src/kernel/core/../../../h/../h/riscv.hpp **** 
  36:src/kernel/core/../../../h/../h/riscv.hpp ****     static void w_sip(uint64);
  37:src/kernel/core/../../../h/../h/riscv.hpp ****     static uint64 r_sip();
  38:src/kernel/core/../../../h/../h/riscv.hpp **** 
  39:src/kernel/core/../../../h/../h/riscv.hpp ****     static void ms_sie(uint64);
  40:src/kernel/core/../../../h/../h/riscv.hpp ****     static void mc_sie(uint64);
  41:src/kernel/core/../../../h/../h/riscv.hpp **** 
  42:src/kernel/core/../../../h/../h/riscv.hpp ****     static void w_sie(uint64);
  43:src/kernel/core/../../../h/../h/riscv.hpp ****     static uint64 r_sie();
  44:src/kernel/core/../../../h/../h/riscv.hpp **** 
  45:src/kernel/core/../../../h/../h/riscv.hpp ****     enum BitMaskSstatus{
  46:src/kernel/core/../../../h/../h/riscv.hpp ****         SSTATUS_SIE = (1<<1),
  47:src/kernel/core/../../../h/../h/riscv.hpp ****         SSTATUS_SPIE = (1<<5),
  48:src/kernel/core/../../../h/../h/riscv.hpp ****         SSTATUS_SPP = (1<<8),
  49:src/kernel/core/../../../h/../h/riscv.hpp ****         SSTATUS_SUM = (1<<18),
  50:src/kernel/core/../../../h/../h/riscv.hpp ****     };
  51:src/kernel/core/../../../h/../h/riscv.hpp **** 
  52:src/kernel/core/../../../h/../h/riscv.hpp ****     static void ms_sstatus(uint64);
  53:src/kernel/core/../../../h/../h/riscv.hpp ****     static void mc_sstatus(uint64);
  54:src/kernel/core/../../../h/../h/riscv.hpp **** 
  55:src/kernel/core/../../../h/../h/riscv.hpp ****     static void w_sstatus(uint64);
  56:src/kernel/core/../../../h/../h/riscv.hpp ****     static uint64 r_sstatus();
  57:src/kernel/core/../../../h/../h/riscv.hpp **** 
  58:src/kernel/core/../../../h/../h/riscv.hpp **** /* 
  59:src/kernel/core/../../../h/../h/riscv.hpp **** --------------------CLASSIC REGISTERS--------------------    
  60:src/kernel/core/../../../h/../h/riscv.hpp **** */
  61:src/kernel/core/../../../h/../h/riscv.hpp ****     static uint64 r_sp();
  62:src/kernel/core/../../../h/../h/riscv.hpp ****     static uint64 r_a0(); /* parameter registers */
  63:src/kernel/core/../../../h/../h/riscv.hpp ****     static uint64 s_a0(uint64 a0);
  64:src/kernel/core/../../../h/../h/riscv.hpp ****     static uint64 r_a1();
  65:src/kernel/core/../../../h/../h/riscv.hpp ****     static uint64 r_a2();
  66:src/kernel/core/../../../h/../h/riscv.hpp ****     static uint64 r_a3();
  67:src/kernel/core/../../../h/../h/riscv.hpp ****     static uint64 r_a4();
  68:src/kernel/core/../../../h/../h/riscv.hpp **** 
  69:src/kernel/core/../../../h/../h/riscv.hpp ****     static void popRegisters(); /* pop all context registers */
  70:src/kernel/core/../../../h/../h/riscv.hpp ****     static void pushRegisters(); /* push all context registers */
  71:src/kernel/core/../../../h/../h/riscv.hpp ****  
  72:src/kernel/core/../../../h/../h/riscv.hpp ****     static void popSppSpie(); /* jump from kernel to start of thread */
  73:src/kernel/core/../../../h/../h/riscv.hpp **** 
  74:src/kernel/core/../../../h/../h/riscv.hpp **** /* 
  75:src/kernel/core/../../../h/../h/riscv.hpp **** --------------------CONSOLE REGISTERS--------------------    
  76:src/kernel/core/../../../h/../h/riscv.hpp **** */
  77:src/kernel/core/../../../h/../h/riscv.hpp ****     static void mc_cstatus(uint64 mask); 
GAS LISTING /tmp/ccRsVzN4.s 			page 18


  78:src/kernel/core/../../../h/../h/riscv.hpp ****     static bool cstatus_ready(uint64 mask);
  79:src/kernel/core/../../../h/../h/riscv.hpp **** };
  80:src/kernel/core/../../../h/../h/riscv.hpp **** 
  81:src/kernel/core/../../../h/../h/riscv.hpp **** /* 
  82:src/kernel/core/../../../h/../h/riscv.hpp **** --------------------CLASSIC REGISTERS--------------------    
  83:src/kernel/core/../../../h/../h/riscv.hpp **** */
  84:src/kernel/core/../../../h/../h/riscv.hpp **** 
  85:src/kernel/core/../../../h/../h/riscv.hpp **** inline uint64 Riscv::r_sp(){
  86:src/kernel/core/../../../h/../h/riscv.hpp ****     uint64 a0;
  87:src/kernel/core/../../../h/../h/riscv.hpp ****     asm volatile("mv %0, sp" : "=r" (a0));
  88:src/kernel/core/../../../h/../h/riscv.hpp ****     return a0;
  89:src/kernel/core/../../../h/../h/riscv.hpp **** }
  90:src/kernel/core/../../../h/../h/riscv.hpp **** 
  91:src/kernel/core/../../../h/../h/riscv.hpp **** inline uint64 Riscv::r_a0(){
  92:src/kernel/core/../../../h/../h/riscv.hpp ****     uint64 a0;
  93:src/kernel/core/../../../h/../h/riscv.hpp ****     asm volatile("mv %0, a0" : "=r" (a0));
  94:src/kernel/core/../../../h/../h/riscv.hpp ****     return a0;
  95:src/kernel/core/../../../h/../h/riscv.hpp **** }
  96:src/kernel/core/../../../h/../h/riscv.hpp **** 
  97:src/kernel/core/../../../h/../h/riscv.hpp **** inline uint64 Riscv::r_a1(){
  98:src/kernel/core/../../../h/../h/riscv.hpp ****     uint64 a0;
  99:src/kernel/core/../../../h/../h/riscv.hpp ****     asm volatile("mv %0, a1" : "=r" (a0));
 100:src/kernel/core/../../../h/../h/riscv.hpp ****     return a0;
 101:src/kernel/core/../../../h/../h/riscv.hpp **** }
 102:src/kernel/core/../../../h/../h/riscv.hpp **** 
 103:src/kernel/core/../../../h/../h/riscv.hpp **** inline uint64 Riscv::r_a2(){
 104:src/kernel/core/../../../h/../h/riscv.hpp ****     uint64 a0;
 105:src/kernel/core/../../../h/../h/riscv.hpp ****     asm volatile("mv %0, a2" : "=r" (a0));
 106:src/kernel/core/../../../h/../h/riscv.hpp ****     return a0;
 107:src/kernel/core/../../../h/../h/riscv.hpp **** }
 108:src/kernel/core/../../../h/../h/riscv.hpp **** 
 109:src/kernel/core/../../../h/../h/riscv.hpp **** inline uint64 Riscv::r_a3(){
 110:src/kernel/core/../../../h/../h/riscv.hpp ****     uint64 a0;
 111:src/kernel/core/../../../h/../h/riscv.hpp ****     asm volatile("mv %0, a3" : "=r" (a0));
 112:src/kernel/core/../../../h/../h/riscv.hpp ****     return a0;
 113:src/kernel/core/../../../h/../h/riscv.hpp **** }
 114:src/kernel/core/../../../h/../h/riscv.hpp **** 
 115:src/kernel/core/../../../h/../h/riscv.hpp **** inline uint64 Riscv::r_a4(){
 116:src/kernel/core/../../../h/../h/riscv.hpp ****     uint64 a0;
 117:src/kernel/core/../../../h/../h/riscv.hpp ****     asm volatile("mv %0, a4" : "=r" (a0));
 118:src/kernel/core/../../../h/../h/riscv.hpp ****     return a0;
 119:src/kernel/core/../../../h/../h/riscv.hpp **** }
 120:src/kernel/core/../../../h/../h/riscv.hpp **** 
 121:src/kernel/core/../../../h/../h/riscv.hpp **** 
 122:src/kernel/core/../../../h/../h/riscv.hpp **** inline uint64 Riscv::s_a0(uint64 a0){
 123:src/kernel/core/../../../h/../h/riscv.hpp ****     return a0;
 124:src/kernel/core/../../../h/../h/riscv.hpp **** }
 125:src/kernel/core/../../../h/../h/riscv.hpp **** 
 126:src/kernel/core/../../../h/../h/riscv.hpp **** /* 
 127:src/kernel/core/../../../h/../h/riscv.hpp **** --------------------SUPERVISOR REGISTERS--------------------    
 128:src/kernel/core/../../../h/../h/riscv.hpp **** */
 129:src/kernel/core/../../../h/../h/riscv.hpp **** 
 130:src/kernel/core/../../../h/../h/riscv.hpp **** inline void Riscv::w_scause(uint64 scause){
 131:src/kernel/core/../../../h/../h/riscv.hpp ****     asm volatile("csrw scause, %0" : : "r" (scause));
 132:src/kernel/core/../../../h/../h/riscv.hpp **** }
 133:src/kernel/core/../../../h/../h/riscv.hpp **** 
 134:src/kernel/core/../../../h/../h/riscv.hpp **** inline uint64 Riscv::r_scause(){
GAS LISTING /tmp/ccRsVzN4.s 			page 19


 135:src/kernel/core/../../../h/../h/riscv.hpp ****     uint64 volatile scause;
 136:src/kernel/core/../../../h/../h/riscv.hpp ****     asm volatile("csrr %0, scause" : "=r" (scause));
 137:src/kernel/core/../../../h/../h/riscv.hpp ****     return scause;
 138:src/kernel/core/../../../h/../h/riscv.hpp **** } 
 139:src/kernel/core/../../../h/../h/riscv.hpp **** 
 140:src/kernel/core/../../../h/../h/riscv.hpp **** inline void Riscv::w_sepc(uint64 sepc){
 141:src/kernel/core/../../../h/../h/riscv.hpp ****     asm volatile("csrw sepc, %0" : : "r" (sepc));
 142:src/kernel/core/../../../h/../h/riscv.hpp **** }
 143:src/kernel/core/../../../h/../h/riscv.hpp **** 
 144:src/kernel/core/../../../h/../h/riscv.hpp **** inline uint64 Riscv::r_sepc(){
 145:src/kernel/core/../../../h/../h/riscv.hpp ****     uint64 volatile sepc;
 146:src/kernel/core/../../../h/../h/riscv.hpp ****     asm volatile("csrr %0, sepc" : "=r" (sepc));
 147:src/kernel/core/../../../h/../h/riscv.hpp ****     return sepc;
 148:src/kernel/core/../../../h/../h/riscv.hpp **** } 
 149:src/kernel/core/../../../h/../h/riscv.hpp **** 
 150:src/kernel/core/../../../h/../h/riscv.hpp **** inline void Riscv::w_stvec(uint64 stvec){
 151:src/kernel/core/../../../h/../h/riscv.hpp ****     asm volatile("csrw stvec, %0" : : "r" (stvec));
 152:src/kernel/core/../../../h/../h/riscv.hpp **** }
 153:src/kernel/core/../../../h/../h/riscv.hpp **** 
 154:src/kernel/core/../../../h/../h/riscv.hpp **** inline uint64 Riscv::r_stvec(){
 155:src/kernel/core/../../../h/../h/riscv.hpp ****     uint64 volatile stvec;
 156:src/kernel/core/../../../h/../h/riscv.hpp ****     asm volatile("csrr %0, stvec" : "=r" (stvec));
 157:src/kernel/core/../../../h/../h/riscv.hpp ****     return stvec;
 158:src/kernel/core/../../../h/../h/riscv.hpp **** } 
 159:src/kernel/core/../../../h/../h/riscv.hpp **** 
 160:src/kernel/core/../../../h/../h/riscv.hpp **** inline void Riscv::w_stval(uint64 stval){
 161:src/kernel/core/../../../h/../h/riscv.hpp ****     asm volatile("csrw stval, %0" : : "r" (stval));
 162:src/kernel/core/../../../h/../h/riscv.hpp **** }
 163:src/kernel/core/../../../h/../h/riscv.hpp **** 
 164:src/kernel/core/../../../h/../h/riscv.hpp **** inline uint64 Riscv::r_stval(){
 165:src/kernel/core/../../../h/../h/riscv.hpp ****     uint64 volatile stval;
 166:src/kernel/core/../../../h/../h/riscv.hpp ****     asm volatile("csrr %0, stval" : "=r" (stval));
 167:src/kernel/core/../../../h/../h/riscv.hpp ****     return stval;
 168:src/kernel/core/../../../h/../h/riscv.hpp **** } 
 169:src/kernel/core/../../../h/../h/riscv.hpp **** 
 170:src/kernel/core/../../../h/../h/riscv.hpp **** inline void Riscv::ms_sip(uint64 mask){
 171:src/kernel/core/../../../h/../h/riscv.hpp ****     asm volatile ("csrs sip, %0" : : "r" (mask));
 172:src/kernel/core/../../../h/../h/riscv.hpp **** }
 173:src/kernel/core/../../../h/../h/riscv.hpp **** 
 174:src/kernel/core/../../../h/../h/riscv.hpp **** inline void Riscv::mc_sip(uint64 mask){
 175:src/kernel/core/../../../h/../h/riscv.hpp ****     asm volatile ("csrc sip, %0" : : "r" (mask));
 176:src/kernel/core/../../../h/../h/riscv.hpp **** }
 177:src/kernel/core/../../../h/../h/riscv.hpp **** 
 178:src/kernel/core/../../../h/../h/riscv.hpp **** inline void Riscv::w_sip(uint64 sip){
 179:src/kernel/core/../../../h/../h/riscv.hpp ****     asm volatile("csrw sip, %0" : : "r" (sip));
 180:src/kernel/core/../../../h/../h/riscv.hpp **** }
 181:src/kernel/core/../../../h/../h/riscv.hpp **** 
 182:src/kernel/core/../../../h/../h/riscv.hpp **** inline uint64 Riscv::r_sip(){
 183:src/kernel/core/../../../h/../h/riscv.hpp ****     uint64 volatile sip;
 184:src/kernel/core/../../../h/../h/riscv.hpp ****     asm volatile("csrr %0, sip" : "=r" (sip));
 185:src/kernel/core/../../../h/../h/riscv.hpp ****     return sip;
 186:src/kernel/core/../../../h/../h/riscv.hpp **** } 
 187:src/kernel/core/../../../h/../h/riscv.hpp **** 
 188:src/kernel/core/../../../h/../h/riscv.hpp **** inline void Riscv::ms_sie(uint64 mask){
 189:src/kernel/core/../../../h/../h/riscv.hpp ****     asm volatile ("csrs sie, %0" : : "r" (mask));
 190:src/kernel/core/../../../h/../h/riscv.hpp **** }
 191:src/kernel/core/../../../h/../h/riscv.hpp **** 
GAS LISTING /tmp/ccRsVzN4.s 			page 20


 192:src/kernel/core/../../../h/../h/riscv.hpp **** inline void Riscv::mc_sie(uint64 mask){
 193:src/kernel/core/../../../h/../h/riscv.hpp ****     asm volatile ("csrc sie, %0" : : "r" (mask));
 194:src/kernel/core/../../../h/../h/riscv.hpp **** }
 195:src/kernel/core/../../../h/../h/riscv.hpp **** 
 196:src/kernel/core/../../../h/../h/riscv.hpp **** inline void Riscv::w_sie(uint64 sie){
 197:src/kernel/core/../../../h/../h/riscv.hpp ****     asm volatile("csrw sie, %0" : : "r" (sie));
 198:src/kernel/core/../../../h/../h/riscv.hpp **** }
 199:src/kernel/core/../../../h/../h/riscv.hpp **** 
 200:src/kernel/core/../../../h/../h/riscv.hpp **** inline uint64 Riscv::r_sie(){
 201:src/kernel/core/../../../h/../h/riscv.hpp ****     uint64 volatile sie;
 202:src/kernel/core/../../../h/../h/riscv.hpp ****     asm volatile("csrr %0, sie" : "=r" (sie));
 203:src/kernel/core/../../../h/../h/riscv.hpp ****     return sie;
 204:src/kernel/core/../../../h/../h/riscv.hpp **** } 
 205:src/kernel/core/../../../h/../h/riscv.hpp **** 
 206:src/kernel/core/../../../h/../h/riscv.hpp **** inline void Riscv::ms_sstatus(uint64 mask){
 207:src/kernel/core/../../../h/../h/riscv.hpp ****     asm volatile ("csrs sstatus, %0" : : "r" (mask));
 566              		.loc 3 207 5
 567              		.loc 3 207 53 is_stmt 0
 568 055c B7070400 		li	a5,262144
 569              	 #APP
 570              	# 207 "src/kernel/core/../../../h/../h/riscv.hpp" 1
 208              	}
 571              		csrs sstatus, a5
 572              	# 0 "" 2
 573              	.LVL74:
 574              	 #NO_APP
 575              	.LBE17:
 576              	.LBE16:
  80:src/kernel/core/kernel_lib.cpp ****     pager.map_kernel();
 577              		.loc 1 80 5 is_stmt 1
  80:src/kernel/core/kernel_lib.cpp ****     pager.map_kernel();
 578              		.loc 1 80 39 is_stmt 0
 579 0564 97000000 		call	_ZN5Pager11getInstanceEv
 579      E7800000 
 580              	.LVL75:
 581 056c 13090500 		mv	s2,a0
 582              	.LVL76:
  81:src/kernel/core/kernel_lib.cpp ****     pager.map_user();
 583              		.loc 1 81 5 is_stmt 1
  81:src/kernel/core/kernel_lib.cpp ****     pager.map_user();
 584              		.loc 1 81 21 is_stmt 0
 585 0570 97000000 		call	_ZN5Pager10map_kernelEv
 585      E7800000 
 586              	.LVL77:
  82:src/kernel/core/kernel_lib.cpp ****     pager.start_paging();
 587              		.loc 1 82 5 is_stmt 1
  82:src/kernel/core/kernel_lib.cpp ****     pager.start_paging();
 588              		.loc 1 82 19 is_stmt 0
 589 0578 13050900 		mv	a0,s2
 590 057c 97000000 		call	_ZN5Pager8map_userEv
 590      E7800000 
 591              	.LVL78:
  83:src/kernel/core/kernel_lib.cpp ****     kprintString("Paging initalized!\n");
 592              		.loc 1 83 5 is_stmt 1
  83:src/kernel/core/kernel_lib.cpp ****     kprintString("Paging initalized!\n");
 593              		.loc 1 83 23 is_stmt 0
 594 0584 13050900 		mv	a0,s2
GAS LISTING /tmp/ccRsVzN4.s 			page 21


 595 0588 97000000 		call	_ZN5Pager12start_pagingEv
 595      E7800000 
 596              	.LVL79:
  84:src/kernel/core/kernel_lib.cpp **** 
 597              		.loc 1 84 5 is_stmt 1
  84:src/kernel/core/kernel_lib.cpp **** 
 598              		.loc 1 84 17 is_stmt 0
 599 0590 17050000 		lla	a0,.LC22
 599      13050500 
 600 0598 97000000 		call	_Z12kprintStringPKc
 600      E7800000 
 601              	.LVL80:
  86:src/kernel/core/kernel_lib.cpp ****     kprintString("stvec initalized!\n");
 602              		.loc 1 86 5 is_stmt 1
  86:src/kernel/core/kernel_lib.cpp ****     kprintString("stvec initalized!\n");
 603              		.loc 1 86 19 is_stmt 0
 604 05a0 97070000 		lla	a5,interruptvec
 604      93870700 
 605              	.LVL81:
 606              	.LBB18:
 607              	.LBB19:
 151:src/kernel/core/../../../h/../h/riscv.hpp **** }
 608              		.loc 3 151 5 is_stmt 1
 151:src/kernel/core/../../../h/../h/riscv.hpp **** }
 609              		.loc 3 151 51 is_stmt 0
 610              	 #APP
 611              	# 151 "src/kernel/core/../../../h/../h/riscv.hpp" 1
 612              		csrw stvec, a5
 613              	# 0 "" 2
 614              	.LVL82:
 615              	 #NO_APP
 616              	.LBE19:
 617              	.LBE18:
  87:src/kernel/core/kernel_lib.cpp ****     
 618              		.loc 1 87 5 is_stmt 1
  87:src/kernel/core/kernel_lib.cpp ****     
 619              		.loc 1 87 17 is_stmt 0
 620 05ac 17050000 		lla	a0,.LC23
 620      13050500 
 621 05b4 97000000 		call	_Z12kprintStringPKc
 621      E7800000 
 622              	.LVL83:
  89:src/kernel/core/kernel_lib.cpp ****     kprintString("MemoryAllocator initalized!\n");
 623              		.loc 1 89 5 is_stmt 1
  89:src/kernel/core/kernel_lib.cpp ****     kprintString("MemoryAllocator initalized!\n");
 624              		.loc 1 89 34 is_stmt 0
 625 05bc 97000000 		call	_ZN15MemoryAllocator11getInstanceEv
 625      E7800000 
 626              	.LVL84:
  89:src/kernel/core/kernel_lib.cpp ****     kprintString("MemoryAllocator initalized!\n");
 627              		.loc 1 89 46
 628 05c4 97000000 		call	_ZN15MemoryAllocator10print_listEv
 628      E7800000 
 629              	.LVL85:
  90:src/kernel/core/kernel_lib.cpp ****     
 630              		.loc 1 90 5 is_stmt 1
  90:src/kernel/core/kernel_lib.cpp ****     
GAS LISTING /tmp/ccRsVzN4.s 			page 22


 631              		.loc 1 90 17 is_stmt 0
 632 05cc 17050000 		lla	a0,.LC24
 632      13050500 
 633 05d4 97000000 		call	_Z12kprintStringPKc
 633      E7800000 
 634              	.LVL86:
  92:src/kernel/core/kernel_lib.cpp ****     kprintString("Scheduler initalized!\n");
 635              		.loc 1 92 5 is_stmt 1
  92:src/kernel/core/kernel_lib.cpp ****     kprintString("Scheduler initalized!\n");
 636              		.loc 1 92 25 is_stmt 0
 637 05dc 97000000 		call	_ZN9Scheduler9initalizeEv
 637      E7800000 
 638              	.LVL87:
  93:src/kernel/core/kernel_lib.cpp ****     
 639              		.loc 1 93 5 is_stmt 1
  93:src/kernel/core/kernel_lib.cpp ****     
 640              		.loc 1 93 17 is_stmt 0
 641 05e4 17050000 		lla	a0,.LC25
 641      13050500 
 642 05ec 97000000 		call	_Z12kprintStringPKc
 642      E7800000 
 643              	.LVL88:
  95:src/kernel/core/kernel_lib.cpp ****     kprintString("StdIO initalized!\n");
 644              		.loc 1 95 5 is_stmt 1
  95:src/kernel/core/kernel_lib.cpp ****     kprintString("StdIO initalized!\n");
 645              		.loc 1 95 21 is_stmt 0
 646 05f4 97000000 		call	_ZN5StdIO9initalizeEv
 646      E7800000 
 647              	.LVL89:
  96:src/kernel/core/kernel_lib.cpp ****     
 648              		.loc 1 96 5 is_stmt 1
  96:src/kernel/core/kernel_lib.cpp ****     
 649              		.loc 1 96 17 is_stmt 0
 650 05fc 17050000 		lla	a0,.LC26
 650      13050500 
 651 0604 97000000 		call	_Z12kprintStringPKc
 651      E7800000 
 652              	.LVL90:
  98:src/kernel/core/kernel_lib.cpp ****     kprintString("Main kenrel thread initalized!\n");
 653              		.loc 1 98 5 is_stmt 1
  98:src/kernel/core/kernel_lib.cpp ****     kprintString("Main kenrel thread initalized!\n");
 654              		.loc 1 98 32 is_stmt 0
 655 060c 97000000 		call	_ZN3TCB22createMainKernelThreadEv
 655      E7800000 
 656              	.LVL91:
  99:src/kernel/core/kernel_lib.cpp **** 
 657              		.loc 1 99 5 is_stmt 1
  99:src/kernel/core/kernel_lib.cpp **** 
 658              		.loc 1 99 17 is_stmt 0
 659 0614 17050000 		lla	a0,.LC27
 659      13050500 
 660 061c 97000000 		call	_Z12kprintStringPKc
 660      E7800000 
 661              	.LVL92:
 101:src/kernel/core/kernel_lib.cpp ****     uint64* userMainStack = (uint64*)MemoryAllocator::getInstance().mem_alloc((DEFAULT_STACK_SIZE-1
 662              		.loc 1 101 5 is_stmt 1
 101:src/kernel/core/kernel_lib.cpp ****     uint64* userMainStack = (uint64*)MemoryAllocator::getInstance().mem_alloc((DEFAULT_STACK_SIZE-1
GAS LISTING /tmp/ccRsVzN4.s 			page 23


 663              		.loc 1 101 17 is_stmt 0
 664 0624 17050000 		lla	a0,.LC28
 664      13050500 
 665 062c 97000000 		call	_Z12kprintStringPKc
 665      E7800000 
 666              	.LVL93:
 102:src/kernel/core/kernel_lib.cpp ****     TCB* userMainThread = TCB::createThread(userMainWrapper, nullptr, userMainStack);
 667              		.loc 1 102 5 is_stmt 1
 102:src/kernel/core/kernel_lib.cpp ****     TCB* userMainThread = TCB::createThread(userMainWrapper, nullptr, userMainStack);
 668              		.loc 1 102 67 is_stmt 0
 669 0634 97000000 		call	_ZN15MemoryAllocator11getInstanceEv
 669      E7800000 
 670              	.LVL94:
 102:src/kernel/core/kernel_lib.cpp ****     TCB* userMainThread = TCB::createThread(userMainWrapper, nullptr, userMainStack);
 671              		.loc 1 102 78
 672 063c 93050004 		li	a1,64
 673 0640 97000000 		call	_ZN15MemoryAllocator9mem_allocEm
 673      E7800000 
 674              	.LVL95:
 675 0648 13090500 		mv	s2,a0
 676              	.LVL96:
 103:src/kernel/core/kernel_lib.cpp **** 
 677              		.loc 1 103 5 is_stmt 1
 103:src/kernel/core/kernel_lib.cpp **** 
 678              		.loc 1 103 44 is_stmt 0
 679 064c 13060500 		mv	a2,a0
 680 0650 93050000 		li	a1,0
 681 0654 17050000 		lla	a0,_Z15userMainWrapperPv
 681      13050500 
 682              	.LVL97:
 683 065c 97000000 		call	_ZN3TCB12createThreadEPFvPvES0_Pm
 683      E7800000 
 684              	.LVL98:
 685 0664 130A0500 		mv	s4,a0
 686              	.LVL99:
 105:src/kernel/core/kernel_lib.cpp ****     TCB* idleThread = TCB::createThread(idleFunction, nullptr, idleThreadStack);
 687              		.loc 1 105 5 is_stmt 1
 105:src/kernel/core/kernel_lib.cpp ****     TCB* idleThread = TCB::createThread(idleFunction, nullptr, idleThreadStack);
 688              		.loc 1 105 67 is_stmt 0
 689 0668 97000000 		call	_ZN13SlabAllocator11getInstanceEv
 689      E7800000 
 690              	.LVL100:
 105:src/kernel/core/kernel_lib.cpp ****     TCB* idleThread = TCB::createThread(idleFunction, nullptr, idleThreadStack);
 691              		.loc 1 105 76
 692 0670 B7150000 		li	a1,4096
 693 0674 97000000 		call	_ZN13SlabAllocator7kmallocEm
 693      E7800000 
 694              	.LVL101:
 695 067c 93090500 		mv	s3,a0
 696              	.LVL102:
 106:src/kernel/core/kernel_lib.cpp ****     idleThread->setKernelMode();
 697              		.loc 1 106 5 is_stmt 1
 106:src/kernel/core/kernel_lib.cpp ****     idleThread->setKernelMode();
 698              		.loc 1 106 40 is_stmt 0
 699 0680 13060500 		mv	a2,a0
 700 0684 93050000 		li	a1,0
 701 0688 17050000 		lla	a0,_Z12idleFunctionPv
GAS LISTING /tmp/ccRsVzN4.s 			page 24


 701      13050500 
 702              	.LVL103:
 703 0690 97000000 		call	_ZN3TCB12createThreadEPFvPvES0_Pm
 703      E7800000 
 704              	.LVL104:
 107:src/kernel/core/kernel_lib.cpp ****     if(userMainStack && idleThreadStack && idleThread && userMainThread)
 705              		.loc 1 107 5 is_stmt 1
 706              	.LBB20:
 707              	.LBB21:
 708              		.file 4 "src/kernel/core/../../../h/../h/tcb.hpp"
   1:src/kernel/core/../../../h/../h/tcb.hpp **** #ifndef __tcb__h
   2:src/kernel/core/../../../h/../h/tcb.hpp **** #define __tcb__h
   3:src/kernel/core/../../../h/../h/tcb.hpp **** 
   4:src/kernel/core/../../../h/../h/tcb.hpp **** #include"../h/memory_allocator.hpp"
   5:src/kernel/core/../../../h/../h/tcb.hpp **** #include"../h/slab_allocator.h"
   6:src/kernel/core/../../../h/../h/tcb.hpp **** #include "object_cache.h"
   7:src/kernel/core/../../../h/../h/tcb.hpp **** 
   8:src/kernel/core/../../../h/../h/tcb.hpp **** class KSemaphore;
   9:src/kernel/core/../../../h/../h/tcb.hpp **** 
  10:src/kernel/core/../../../h/../h/tcb.hpp **** /* THREAD CONTROL BLOCK */
  11:src/kernel/core/../../../h/../h/tcb.hpp **** class TCB{ 
  12:src/kernel/core/../../../h/../h/tcb.hpp ****     
  13:src/kernel/core/../../../h/../h/tcb.hpp **** public:
  14:src/kernel/core/../../../h/../h/tcb.hpp ****     //alokacija
  15:src/kernel/core/../../../h/../h/tcb.hpp ****     //#include"../h/kernel_operators.hpp"
  16:src/kernel/core/../../../h/../h/tcb.hpp ****     
  17:src/kernel/core/../../../h/../h/tcb.hpp ****     void* operator new(size_t sz); 
  18:src/kernel/core/../../../h/../h/tcb.hpp ****     void* operator new[](size_t sz);
  19:src/kernel/core/../../../h/../h/tcb.hpp ****     void operator delete(void* ptr);
  20:src/kernel/core/../../../h/../h/tcb.hpp ****     void operator delete[](void* ptr);
  21:src/kernel/core/../../../h/../h/tcb.hpp **** 
  22:src/kernel/core/../../../h/../h/tcb.hpp ****     using Body = void (*)(void*);
  23:src/kernel/core/../../../h/../h/tcb.hpp ****     enum TCBState{
  24:src/kernel/core/../../../h/../h/tcb.hpp ****         BLOCKED,
  25:src/kernel/core/../../../h/../h/tcb.hpp ****         READY,
  26:src/kernel/core/../../../h/../h/tcb.hpp ****         FINISHED,
  27:src/kernel/core/../../../h/../h/tcb.hpp ****         SLEEPING,
  28:src/kernel/core/../../../h/../h/tcb.hpp ****         PREPARING
  29:src/kernel/core/../../../h/../h/tcb.hpp ****     };
  30:src/kernel/core/../../../h/../h/tcb.hpp ****     
  31:src/kernel/core/../../../h/../h/tcb.hpp ****     ~TCB(){ 
  32:src/kernel/core/../../../h/../h/tcb.hpp ****         if(isKernelThread()){
  33:src/kernel/core/../../../h/../h/tcb.hpp ****             SlabAllocator::getInstance().kfree(this->stack);
  34:src/kernel/core/../../../h/../h/tcb.hpp ****         }
  35:src/kernel/core/../../../h/../h/tcb.hpp ****         else{
  36:src/kernel/core/../../../h/../h/tcb.hpp ****             MemoryAllocator& allocator = MemoryAllocator::getInstance(); 
  37:src/kernel/core/../../../h/../h/tcb.hpp ****             allocator.mem_free(this->stack);
  38:src/kernel/core/../../../h/../h/tcb.hpp ****         }
  39:src/kernel/core/../../../h/../h/tcb.hpp ****     }
  40:src/kernel/core/../../../h/../h/tcb.hpp ****     
  41:src/kernel/core/../../../h/../h/tcb.hpp ****     //nestaticki metodi
  42:src/kernel/core/../../../h/../h/tcb.hpp ****     void setState(TCBState s) {state = s;}
  43:src/kernel/core/../../../h/../h/tcb.hpp ****     TCBState getState() const{ return state; }
  44:src/kernel/core/../../../h/../h/tcb.hpp ****     void finish() { state = FINISHED; }
  45:src/kernel/core/../../../h/../h/tcb.hpp ****     bool isFinished(){ return state == FINISHED; }
  46:src/kernel/core/../../../h/../h/tcb.hpp ****     uint64 getTimeSlice() const { return timeSlice; }
  47:src/kernel/core/../../../h/../h/tcb.hpp ****     bool isSuspended(){return state == BLOCKED || state == SLEEPING;}
GAS LISTING /tmp/ccRsVzN4.s 			page 25


  48:src/kernel/core/../../../h/../h/tcb.hpp ****     void setKernelMode() { userMode = false; }
 709              		.loc 4 48 28
 710              		.loc 4 48 37 is_stmt 0
 711 0698 A30A0502 		sb	zero,53(a0)
 712              	.LVL105:
 713              	.LBE21:
 714              	.LBE20:
 108:src/kernel/core/kernel_lib.cpp ****         kprintString("Threads successfully initalized!\n");
 715              		.loc 1 108 5 is_stmt 1
 716 069c 63060906 		beq	s2,zero,.L24
 108:src/kernel/core/kernel_lib.cpp ****         kprintString("Threads successfully initalized!\n");
 717              		.loc 1 108 22 is_stmt 0 discriminator 1
 718 06a0 63880906 		beq	s3,zero,.L25
 108:src/kernel/core/kernel_lib.cpp ****         kprintString("Threads successfully initalized!\n");
 719              		.loc 1 108 41 discriminator 2
 720 06a4 630A0506 		beq	a0,zero,.L26
 108:src/kernel/core/kernel_lib.cpp ****         kprintString("Threads successfully initalized!\n");
 721              		.loc 1 108 55 discriminator 3
 722 06a8 630C0A06 		beq	s4,zero,.L27
 109:src/kernel/core/kernel_lib.cpp ****     else
 723              		.loc 1 109 9 is_stmt 1
 109:src/kernel/core/kernel_lib.cpp ****     else
 724              		.loc 1 109 21 is_stmt 0
 725 06ac 17050000 		lla	a0,.LC29
 725      13050500 
 726              	.LVL106:
 727 06b4 97000000 		call	_Z12kprintStringPKc
 727      E7800000 
 728              	.LVL107:
 112:src/kernel/core/kernel_lib.cpp **** 
 729              		.loc 1 112 5 is_stmt 1
 112:src/kernel/core/kernel_lib.cpp **** 
 730              		.loc 1 112 17 is_stmt 0
 731 06bc 17050000 		lla	a0,.LC30
 731      13050500 
 732 06c4 97000000 		call	_Z12kprintStringPKc
 732      E7800000 
 733              	.LVL108:
 114:src/kernel/core/kernel_lib.cpp **** }
 734              		.loc 1 114 5 is_stmt 1
 114:src/kernel/core/kernel_lib.cpp **** }
 735              		.loc 1 114 12 is_stmt 0
 736 06cc 6F008001 		j	.L23
 737              	.LVL109:
 738              	.L29:
  72:src/kernel/core/kernel_lib.cpp ****         return 1;
 739              		.loc 1 72 9 is_stmt 1
  72:src/kernel/core/kernel_lib.cpp ****         return 1;
 740              		.loc 1 72 21 is_stmt 0
 741 06d0 17050000 		lla	a0,.LC19
 741      13050500 
 742 06d8 97000000 		call	_Z12kprintStringPKc
 742      E7800000 
 743              	.LVL110:
  73:src/kernel/core/kernel_lib.cpp ****     }
 744              		.loc 1 73 9 is_stmt 1
  73:src/kernel/core/kernel_lib.cpp ****     }
GAS LISTING /tmp/ccRsVzN4.s 			page 26


 745              		.loc 1 73 16 is_stmt 0
 746 06e0 93041000 		li	s1,1
 747              	.L23:
 115:src/kernel/core/kernel_lib.cpp **** 
 748              		.loc 1 115 1
 749 06e4 13850400 		mv	a0,s1
 750 06e8 83308102 		ld	ra,40(sp)
 751              		.cfi_remember_state
 752              		.cfi_restore 1
 753 06ec 03340102 		ld	s0,32(sp)
 754              		.cfi_restore 8
 755              		.cfi_def_cfa 2, 48
 756 06f0 83348101 		ld	s1,24(sp)
 757              		.cfi_restore 9
 758 06f4 03390101 		ld	s2,16(sp)
 759              		.cfi_restore 18
 760 06f8 83398100 		ld	s3,8(sp)
 761              		.cfi_restore 19
 762 06fc 033A0100 		ld	s4,0(sp)
 763              		.cfi_restore 20
 764 0700 13010103 		addi	sp,sp,48
 765              		.cfi_def_cfa_offset 0
 766 0704 67800000 		jr	ra
 767              	.LVL111:
 768              	.L24:
 769              		.cfi_restore_state
 111:src/kernel/core/kernel_lib.cpp ****     kprintString("-----------KERNEL INITALIZED-----------\n\n");
 770              		.loc 1 111 17
 771 0708 9304F0FF 		li	s1,-1
 772 070c 6FF09FFD 		j	.L23
 773              	.L25:
 774 0710 9304F0FF 		li	s1,-1
 775 0714 6FF01FFD 		j	.L23
 776              	.L26:
 777 0718 9304F0FF 		li	s1,-1
 778 071c 6FF09FFC 		j	.L23
 779              	.L27:
 780 0720 9304F0FF 		li	s1,-1
 781 0724 6FF01FFC 		j	.L23
 782              		.cfi_endproc
 783              	.LFE117:
 785              		.align	2
 786              		.globl	_Z13newKernelInitv
 788              	_Z13newKernelInitv:
 789              	.LFB119:
 134:src/kernel/core/kernel_lib.cpp **** 
 135:src/kernel/core/kernel_lib.cpp **** int newKernelInit(){
 790              		.loc 1 135 20 is_stmt 1
 791              		.cfi_startproc
 792 0728 130101FE 		addi	sp,sp,-32
 793              		.cfi_def_cfa_offset 32
 794 072c 233C1100 		sd	ra,24(sp)
 795 0730 23388100 		sd	s0,16(sp)
 796 0734 23349100 		sd	s1,8(sp)
 797              		.cfi_offset 1, -8
 798              		.cfi_offset 8, -16
 799              		.cfi_offset 9, -24
GAS LISTING /tmp/ccRsVzN4.s 			page 27


 800 0738 13040102 		addi	s0,sp,32
 801              		.cfi_def_cfa 8, 0
 136:src/kernel/core/kernel_lib.cpp ****     kprintString("--------------KERNEL INIT--------------\n");
 802              		.loc 1 136 5
 803              		.loc 1 136 17 is_stmt 0
 804 073c 17050000 		lla	a0,.LC0
 804      13050500 
 805 0744 97000000 		call	_Z12kprintStringPKc
 805      E7800000 
 806              	.LVL112:
 137:src/kernel/core/kernel_lib.cpp ****     /* CHECKING VALUES OF KERNEL STATIC VARIABLES */
 138:src/kernel/core/kernel_lib.cpp ****     KCHECKPRINT(HEAP_START_ADDR);
 807              		.loc 1 138 5 is_stmt 1
 808 074c 17050000 		lla	a0,.LC1
 808      13050500 
 809 0754 97000000 		call	_Z12kprintStringPKc
 809      E7800000 
 810              	.LVL113:
 811              		.loc 1 138 5
 812 075c 13060000 		li	a2,0
 813 0760 93050001 		li	a1,16
 814 0764 97070000 		lla	a5,HEAP_START_ADDR
 814      93870700 
 815 076c 03B50700 		ld	a0,0(a5)
 816 0770 97000000 		call	_Z9kprintIntmib
 816      E7800000 
 817              	.LVL114:
 818              		.loc 1 138 5
 819 0778 17050000 		lla	a0,.LC2
 819      13050500 
 820 0780 97000000 		call	_Z12kprintStringPKc
 820      E7800000 
 821              	.LVL115:
 139:src/kernel/core/kernel_lib.cpp ****     KCHECKPRINT(HEAP_END_ADDR);
 822              		.loc 1 139 5
 823 0788 17050000 		lla	a0,.LC3
 823      13050500 
 824 0790 97000000 		call	_Z12kprintStringPKc
 824      E7800000 
 825              	.LVL116:
 826              		.loc 1 139 5
 827 0798 13060000 		li	a2,0
 828 079c 93050001 		li	a1,16
 829 07a0 97070000 		lla	a5,HEAP_END_ADDR
 829      93870700 
 830 07a8 03B50700 		ld	a0,0(a5)
 831 07ac 97000000 		call	_Z9kprintIntmib
 831      E7800000 
 832              	.LVL117:
 833              		.loc 1 139 5
 834 07b4 17050000 		lla	a0,.LC2
 834      13050500 
 835 07bc 97000000 		call	_Z12kprintStringPKc
 835      E7800000 
 836              	.LVL118:
 140:src/kernel/core/kernel_lib.cpp ****     KCHECKPRINT(KERNEL_TEXT_START);
 837              		.loc 1 140 5
GAS LISTING /tmp/ccRsVzN4.s 			page 28


 838 07c4 17050000 		lla	a0,.LC4
 838      13050500 
 839 07cc 97000000 		call	_Z12kprintStringPKc
 839      E7800000 
 840              	.LVL119:
 841              		.loc 1 140 5
 842 07d4 13060000 		li	a2,0
 843 07d8 93050001 		li	a1,16
 844 07dc 97070000 		lla	a5,KERNEL_TEXT_START
 844      93870700 
 845 07e4 03B50700 		ld	a0,0(a5)
 846 07e8 97000000 		call	_Z9kprintIntmib
 846      E7800000 
 847              	.LVL120:
 848              		.loc 1 140 5
 849 07f0 17050000 		lla	a0,.LC2
 849      13050500 
 850 07f8 97000000 		call	_Z12kprintStringPKc
 850      E7800000 
 851              	.LVL121:
 141:src/kernel/core/kernel_lib.cpp ****     KCHECKPRINT(KERNEL_TEXT_END);
 852              		.loc 1 141 5
 853 0800 17050000 		lla	a0,.LC5
 853      13050500 
 854 0808 97000000 		call	_Z12kprintStringPKc
 854      E7800000 
 855              	.LVL122:
 856              		.loc 1 141 5
 857 0810 13060000 		li	a2,0
 858 0814 93050001 		li	a1,16
 859 0818 97070000 		lla	a5,KERNEL_TEXT_END
 859      93870700 
 860 0820 03B50700 		ld	a0,0(a5)
 861 0824 97000000 		call	_Z9kprintIntmib
 861      E7800000 
 862              	.LVL123:
 863              		.loc 1 141 5
 864 082c 17050000 		lla	a0,.LC2
 864      13050500 
 865 0834 97000000 		call	_Z12kprintStringPKc
 865      E7800000 
 866              	.LVL124:
 142:src/kernel/core/kernel_lib.cpp ****     KCHECKPRINT(USER_TEXT_START);
 867              		.loc 1 142 5
 868 083c 17050000 		lla	a0,.LC6
 868      13050500 
 869 0844 97000000 		call	_Z12kprintStringPKc
 869      E7800000 
 870              	.LVL125:
 871              		.loc 1 142 5
 872 084c 13060000 		li	a2,0
 873 0850 93050001 		li	a1,16
 874 0854 97070000 		lla	a5,USER_TEXT_START
 874      93870700 
 875 085c 03B50700 		ld	a0,0(a5)
 876 0860 97000000 		call	_Z9kprintIntmib
 876      E7800000 
GAS LISTING /tmp/ccRsVzN4.s 			page 29


 877              	.LVL126:
 878              		.loc 1 142 5
 879 0868 17050000 		lla	a0,.LC2
 879      13050500 
 880 0870 97000000 		call	_Z12kprintStringPKc
 880      E7800000 
 881              	.LVL127:
 143:src/kernel/core/kernel_lib.cpp ****     KCHECKPRINT(USER_TEXT_END);
 882              		.loc 1 143 5
 883 0878 17050000 		lla	a0,.LC7
 883      13050500 
 884 0880 97000000 		call	_Z12kprintStringPKc
 884      E7800000 
 885              	.LVL128:
 886              		.loc 1 143 5
 887 0888 13060000 		li	a2,0
 888 088c 93050001 		li	a1,16
 889 0890 97070000 		lla	a5,USER_TEXT_END
 889      93870700 
 890 0898 03B50700 		ld	a0,0(a5)
 891 089c 97000000 		call	_Z9kprintIntmib
 891      E7800000 
 892              	.LVL129:
 893              		.loc 1 143 5
 894 08a4 17050000 		lla	a0,.LC2
 894      13050500 
 895 08ac 97000000 		call	_Z12kprintStringPKc
 895      E7800000 
 896              	.LVL130:
 144:src/kernel/core/kernel_lib.cpp ****     KCHECKPRINT(sizeof(PMT));
 897              		.loc 1 144 5
 898 08b4 17050000 		lla	a0,.LC14
 898      13050500 
 899 08bc 97000000 		call	_Z12kprintStringPKc
 899      E7800000 
 900              	.LVL131:
 901              		.loc 1 144 5
 902 08c4 13060000 		li	a2,0
 903 08c8 93050001 		li	a1,16
 904 08cc 37150000 		li	a0,4096
 905 08d0 97000000 		call	_Z9kprintIntmib
 905      E7800000 
 906              	.LVL132:
 907              		.loc 1 144 5
 908 08d8 17050000 		lla	a0,.LC2
 908      13050500 
 909 08e0 97000000 		call	_Z12kprintStringPKc
 909      E7800000 
 910              	.LVL133:
 145:src/kernel/core/kernel_lib.cpp ****     kprintString("\n\n");
 911              		.loc 1 145 5
 912              		.loc 1 145 17 is_stmt 0
 913 08e8 17050000 		lla	a0,.LC15
 913      13050500 
 914 08f0 97000000 		call	_Z12kprintStringPKc
 914      E7800000 
 915              	.LVL134:
GAS LISTING /tmp/ccRsVzN4.s 			page 30


 146:src/kernel/core/kernel_lib.cpp **** 
 147:src/kernel/core/kernel_lib.cpp ****     /* INITALIZING MAIN KERNEL OBJECTS */
 148:src/kernel/core/kernel_lib.cpp ****     NoAlloc::init(); /* No Allocator init */ 
 916              		.loc 1 148 5 is_stmt 1
 917              		.loc 1 148 18 is_stmt 0
 918 08f8 97000000 		call	_ZN7NoAlloc4initEv
 918      E7800000 
 919              	.LVL135:
 149:src/kernel/core/kernel_lib.cpp ****     kprintString("NoAlloc initalized: ");
 920              		.loc 1 149 5 is_stmt 1
 921              		.loc 1 149 17 is_stmt 0
 922 0900 17050000 		lla	a0,.LC16
 922      13050500 
 923 0908 97000000 		call	_Z12kprintStringPKc
 923      E7800000 
 924              	.LVL136:
 150:src/kernel/core/kernel_lib.cpp ****     KVALCHECKPRINT(NOALLOC_END_ADDR, NoAlloc::getEndAddress());
 925              		.loc 1 150 5 is_stmt 1
 926 0910 17050000 		lla	a0,.LC17
 926      13050500 
 927 0918 97000000 		call	_Z12kprintStringPKc
 927      E7800000 
 928              	.LVL137:
 929              		.loc 1 150 5
 930              	.LBB22:
 931              	.LBB23:
 932              		.loc 2 29 35
 933              	.LBE23:
 934              	.LBE22:
 935              		.loc 1 150 5 is_stmt 0
 936 0920 13060000 		li	a2,0
 937 0924 93050001 		li	a1,16
 938 0928 97070000 		lla	a5,_ZN7NoAlloc16NOALLOC_END_ADDRE
 938      93870700 
 939 0930 03B50700 		ld	a0,0(a5)
 940 0934 97000000 		call	_Z9kprintIntmib
 940      E7800000 
 941              	.LVL138:
 942              		.loc 1 150 5 is_stmt 1
 943 093c 17050000 		lla	a0,.LC2
 943      13050500 
 944 0944 97000000 		call	_Z12kprintStringPKc
 944      E7800000 
 945              	.LVL139:
 151:src/kernel/core/kernel_lib.cpp ****     
 152:src/kernel/core/kernel_lib.cpp **** 
 153:src/kernel/core/kernel_lib.cpp ****     kprintString("Initalizing kmem!!!\n");
 946              		.loc 1 153 5
 947              		.loc 1 153 17 is_stmt 0
 948 094c 17050000 		lla	a0,.LC18
 948      13050500 
 949 0954 97000000 		call	_Z12kprintStringPKc
 949      E7800000 
 950              	.LVL140:
 154:src/kernel/core/kernel_lib.cpp ****     if(kmi()){
 951              		.loc 1 154 5 is_stmt 1
 952              		.loc 1 154 11 is_stmt 0
GAS LISTING /tmp/ccRsVzN4.s 			page 31


 953 095c 97000000 		call	_Z3kmiv
 953      E7800000 
 954              	.LVL141:
 955              		.loc 1 154 5
 956 0964 63160506 		bne	a0,zero,.L34
 957 0968 93040500 		mv	s1,a0
 155:src/kernel/core/kernel_lib.cpp ****         kprintString("KMEM NOT SUCCESSFULLY INITALIZED!!!\n");
 156:src/kernel/core/kernel_lib.cpp ****         return 1;
 157:src/kernel/core/kernel_lib.cpp ****     }
 158:src/kernel/core/kernel_lib.cpp ****     KVALCHECKPRINT(NOALLOC_END_ADDR, NoAlloc::getEndAddress());
 958              		.loc 1 158 5 is_stmt 1
 959 096c 17050000 		lla	a0,.LC17
 959      13050500 
 960 0974 97000000 		call	_Z12kprintStringPKc
 960      E7800000 
 961              	.LVL142:
 962              		.loc 1 158 5
 963              	.LBB24:
 964              	.LBB25:
 965              		.loc 2 29 35
 966              	.LBE25:
 967              	.LBE24:
 968              		.loc 1 158 5 is_stmt 0
 969 097c 13060000 		li	a2,0
 970 0980 93050001 		li	a1,16
 971 0984 97070000 		lla	a5,_ZN7NoAlloc16NOALLOC_END_ADDRE
 971      93870700 
 972 098c 03B50700 		ld	a0,0(a5)
 973 0990 97000000 		call	_Z9kprintIntmib
 973      E7800000 
 974              	.LVL143:
 975              		.loc 1 158 5 is_stmt 1
 976 0998 17050000 		lla	a0,.LC2
 976      13050500 
 977 09a0 97000000 		call	_Z12kprintStringPKc
 977      E7800000 
 978              	.LVL144:
 159:src/kernel/core/kernel_lib.cpp ****     /* Pager Init */
 160:src/kernel/core/kernel_lib.cpp ****     kprintString("-----------KERNEL INITALIZED-----------\n\n");
 979              		.loc 1 160 5
 980              		.loc 1 160 17 is_stmt 0
 981 09a8 17050000 		lla	a0,.LC30
 981      13050500 
 982 09b0 97000000 		call	_Z12kprintStringPKc
 982      E7800000 
 983              	.LVL145:
 161:src/kernel/core/kernel_lib.cpp ****     return 0;
 984              		.loc 1 161 5 is_stmt 1
 985              	.L32:
 162:src/kernel/core/kernel_lib.cpp **** }
 986              		.loc 1 162 1 is_stmt 0
 987 09b8 13850400 		mv	a0,s1
 988 09bc 83308101 		ld	ra,24(sp)
 989              		.cfi_remember_state
 990              		.cfi_restore 1
 991 09c0 03340101 		ld	s0,16(sp)
 992              		.cfi_restore 8
GAS LISTING /tmp/ccRsVzN4.s 			page 32


 993              		.cfi_def_cfa 2, 32
 994 09c4 83348100 		ld	s1,8(sp)
 995              		.cfi_restore 9
 996 09c8 13010102 		addi	sp,sp,32
 997              		.cfi_def_cfa_offset 0
 998 09cc 67800000 		jr	ra
 999              	.L34:
 1000              		.cfi_restore_state
 155:src/kernel/core/kernel_lib.cpp ****         return 1;
 1001              		.loc 1 155 9 is_stmt 1
 155:src/kernel/core/kernel_lib.cpp ****         return 1;
 1002              		.loc 1 155 21 is_stmt 0
 1003 09d0 17050000 		lla	a0,.LC19
 1003      13050500 
 1004 09d8 97000000 		call	_Z12kprintStringPKc
 1004      E7800000 
 1005              	.LVL146:
 156:src/kernel/core/kernel_lib.cpp ****     }
 1006              		.loc 1 156 9 is_stmt 1
 156:src/kernel/core/kernel_lib.cpp ****     }
 1007              		.loc 1 156 16 is_stmt 0
 1008 09e0 93041000 		li	s1,1
 1009 09e4 6FF05FFD 		j	.L32
 1010              		.cfi_endproc
 1011              	.LFE119:
 1013              		.align	2
 1014              		.globl	_Z8align4kbm
 1016              	_Z8align4kbm:
 1017              	.LFB120:
 163:src/kernel/core/kernel_lib.cpp **** 
 164:src/kernel/core/kernel_lib.cpp **** uint64 align4kb(uint64 input){
 1018              		.loc 1 164 30 is_stmt 1
 1019              		.cfi_startproc
 1020              	.LVL147:
 1021 09e8 130101FF 		addi	sp,sp,-16
 1022              		.cfi_def_cfa_offset 16
 1023 09ec 23348100 		sd	s0,8(sp)
 1024              		.cfi_offset 8, -8
 1025 09f0 13040101 		addi	s0,sp,16
 1026              		.cfi_def_cfa 8, 0
 165:src/kernel/core/kernel_lib.cpp ****     return  (input + 4095ULL) & ( (~0ULL) << 12);
 1027              		.loc 1 165 5
 1028              		.loc 1 165 20 is_stmt 0
 1029 09f4 B7170000 		li	a5,4096
 1030 09f8 9387F7FF 		addi	a5,a5,-1
 1031 09fc 3305F500 		add	a0,a0,a5
 1032              	.LVL148:
 166:src/kernel/core/kernel_lib.cpp **** }
 1033              		.loc 1 166 1
 1034 0a00 B7F7FFFF 		li	a5,-4096
 1035 0a04 3375F500 		and	a0,a0,a5
 1036              	.LVL149:
 1037 0a08 03348100 		ld	s0,8(sp)
 1038              		.cfi_restore 8
 1039              		.cfi_def_cfa 2, 16
 1040 0a0c 13010101 		addi	sp,sp,16
 1041              		.cfi_def_cfa_offset 0
GAS LISTING /tmp/ccRsVzN4.s 			page 33


 1042 0a10 67800000 		jr	ra
 1043              		.cfi_endproc
 1044              	.LFE120:
 1046              		.align	2
 1047              		.globl	_Z11closest2powm
 1049              	_Z11closest2powm:
 1050              	.LFB121:
 167:src/kernel/core/kernel_lib.cpp **** 
 168:src/kernel/core/kernel_lib.cpp **** 
 169:src/kernel/core/kernel_lib.cpp **** uint64 closest2pow(uint64 input){ 
 1051              		.loc 1 169 33 is_stmt 1
 1052              		.cfi_startproc
 1053              	.LVL150:
 1054 0a14 130101FF 		addi	sp,sp,-16
 1055              		.cfi_def_cfa_offset 16
 1056 0a18 23348100 		sd	s0,8(sp)
 1057              		.cfi_offset 8, -8
 1058 0a1c 13040101 		addi	s0,sp,16
 1059              		.cfi_def_cfa 8, 0
 170:src/kernel/core/kernel_lib.cpp ****     /* set start to 2^0 */
 171:src/kernel/core/kernel_lib.cpp ****     uint64 i = 1; 
 1060              		.loc 1 171 5
 1061              	.LVL151:
 1062              		.loc 1 171 12 is_stmt 0
 1063 0a20 93071000 		li	a5,1
 1064              	.LVL152:
 1065              	.L39:
 172:src/kernel/core/kernel_lib.cpp **** 
 173:src/kernel/core/kernel_lib.cpp ****     /* iterate till i >= input */
 174:src/kernel/core/kernel_lib.cpp ****     while ( i < input){ i <<= 1; }
 1066              		.loc 1 174 5 is_stmt 1 discriminator 2
 1067              		.loc 1 174 15 is_stmt 0 discriminator 2
 1068 0a24 63F6A700 		bgeu	a5,a0,.L37
 1069              		.loc 1 174 25 is_stmt 1 discriminator 1
 1070              		.loc 1 174 27 is_stmt 0 discriminator 1
 1071 0a28 93971700 		slli	a5,a5,1
 1072              	.LVL153:
 1073              		.loc 1 174 5 discriminator 1
 1074 0a2c 6FF09FFF 		j	.L39
 1075              	.L37:
 175:src/kernel/core/kernel_lib.cpp ****     
 176:src/kernel/core/kernel_lib.cpp ****     return i;
 177:src/kernel/core/kernel_lib.cpp **** }
 1076              		.loc 1 177 1
 1077 0a30 13850700 		mv	a0,a5
 1078              	.LVL154:
 1079 0a34 03348100 		ld	s0,8(sp)
 1080              		.cfi_restore 8
 1081              		.cfi_def_cfa 2, 16
 1082 0a38 13010101 		addi	sp,sp,16
 1083              		.cfi_def_cfa_offset 0
 1084 0a3c 67800000 		jr	ra
 1085              		.cfi_endproc
 1086              	.LFE121:
 1088              		.align	2
 1089              		.globl	_Z4log2m
 1091              	_Z4log2m:
GAS LISTING /tmp/ccRsVzN4.s 			page 34


 1092              	.LFB122:
 178:src/kernel/core/kernel_lib.cpp **** 
 179:src/kernel/core/kernel_lib.cpp **** char log2(uint64 input){
 1093              		.loc 1 179 24 is_stmt 1
 1094              		.cfi_startproc
 1095              	.LVL155:
 1096 0a40 130101FF 		addi	sp,sp,-16
 1097              		.cfi_def_cfa_offset 16
 1098 0a44 23348100 		sd	s0,8(sp)
 1099              		.cfi_offset 8, -8
 1100 0a48 13040101 		addi	s0,sp,16
 1101              		.cfi_def_cfa 8, 0
 180:src/kernel/core/kernel_lib.cpp ****     int t = 0;
 1102              		.loc 1 180 5
 1103              	.LVL156:
 1104              		.loc 1 180 9 is_stmt 0
 1105 0a4c 93070000 		li	a5,0
 1106              	.LVL157:
 1107              	.L43:
 181:src/kernel/core/kernel_lib.cpp ****     while(input > 1) {
 1108              		.loc 1 181 5 is_stmt 1
 1109              		.loc 1 181 17 is_stmt 0
 1110 0a50 13071000 		li	a4,1
 1111 0a54 6378A700 		bleu	a0,a4,.L42
 182:src/kernel/core/kernel_lib.cpp ****         input >>= 1;
 1112              		.loc 1 182 9 is_stmt 1
 1113              		.loc 1 182 15 is_stmt 0
 1114 0a58 13551500 		srli	a0,a0,1
 1115              	.LVL158:
 183:src/kernel/core/kernel_lib.cpp ****         t++;
 1116              		.loc 1 183 9 is_stmt 1
 1117              		.loc 1 183 10 is_stmt 0
 1118 0a5c 9B871700 		addiw	a5,a5,1
 1119              	.LVL159:
 181:src/kernel/core/kernel_lib.cpp ****     while(input > 1) {
 1120              		.loc 1 181 5
 1121 0a60 6FF01FFF 		j	.L43
 1122              	.LVL160:
 1123              	.L42:
 184:src/kernel/core/kernel_lib.cpp ****     }
 185:src/kernel/core/kernel_lib.cpp ****     return t;
 1124              		.loc 1 185 5 is_stmt 1
 186:src/kernel/core/kernel_lib.cpp **** }
 1125              		.loc 1 186 1 is_stmt 0
 1126 0a64 13F5F70F 		andi	a0,a5,0xff
 1127              	.LVL161:
 1128 0a68 03348100 		ld	s0,8(sp)
 1129              		.cfi_restore 8
 1130              		.cfi_def_cfa 2, 16
 1131 0a6c 13010101 		addi	sp,sp,16
 1132              		.cfi_def_cfa_offset 0
 1133 0a70 67800000 		jr	ra
 1134              		.cfi_endproc
 1135              	.LFE122:
 1137              		.align	2
 1138              		.globl	_Z3osbm
 1140              	_Z3osbm:
GAS LISTING /tmp/ccRsVzN4.s 			page 35


 1141              	.LFB123:
 187:src/kernel/core/kernel_lib.cpp **** 
 188:src/kernel/core/kernel_lib.cpp **** bool osb(uint64 input){
 1142              		.loc 1 188 23 is_stmt 1
 1143              		.cfi_startproc
 1144              	.LVL162:
 1145 0a74 130101FF 		addi	sp,sp,-16
 1146              		.cfi_def_cfa_offset 16
 1147 0a78 23348100 		sd	s0,8(sp)
 1148              		.cfi_offset 8, -8
 1149 0a7c 13040101 		addi	s0,sp,16
 1150              		.cfi_def_cfa 8, 0
 189:src/kernel/core/kernel_lib.cpp ****     if (!input) return 0;
 1151              		.loc 1 189 5
 1152 0a80 63000502 		beq	a0,zero,.L47
 190:src/kernel/core/kernel_lib.cpp ****     return (input & (-input)) == input;
 1153              		.loc 1 190 5
 1154              		.loc 1 190 22 is_stmt 0
 1155 0a84 B307A040 		neg	a5,a0
 1156              		.loc 1 190 19
 1157 0a88 B3F7A700 		and	a5,a5,a0
 1158              		.loc 1 190 34
 1159 0a8c 3385A740 		sub	a0,a5,a0
 1160              	.LVL163:
 1161 0a90 13351500 		seqz	a0,a0
 1162              	.L46:
 191:src/kernel/core/kernel_lib.cpp **** }
 1163              		.loc 1 191 1
 1164 0a94 03348100 		ld	s0,8(sp)
 1165              		.cfi_remember_state
 1166              		.cfi_restore 8
 1167              		.cfi_def_cfa 2, 16
 1168 0a98 13010101 		addi	sp,sp,16
 1169              		.cfi_def_cfa_offset 0
 1170 0a9c 67800000 		jr	ra
 1171              	.LVL164:
 1172              	.L47:
 1173              		.cfi_restore_state
 189:src/kernel/core/kernel_lib.cpp ****     if (!input) return 0;
 1174              		.loc 1 189 24
 1175 0aa0 13050000 		li	a0,0
 1176              	.LVL165:
 1177 0aa4 6FF01FFF 		j	.L46
 1178              		.cfi_endproc
 1179              	.LFE123:
 1181              		.globl	kdigits
 1182              		.data
 1183              		.align	3
 1184              		.set	.LANCHOR0,. + 0
 1187              	kdigits:
 1188 0000 30313233 		.string	"0123456789ABCDEF"
 1188      34353637 
 1188      38394142 
 1188      43444546 
 1188      00
 1189              		.section	.rodata.str1.8,"aMS",@progbits,1
 1190              		.align	3
GAS LISTING /tmp/ccRsVzN4.s 			page 36


 1191              	.LC0:
 1192 0000 2D2D2D2D 		.string	"--------------KERNEL INIT--------------\n"
 1192      2D2D2D2D 
 1192      2D2D2D2D 
 1192      2D2D4B45 
 1192      524E454C 
 1193 0029 00000000 		.zero	7
 1193      000000
 1194              	.LC1:
 1195 0030 48454150 		.string	"HEAP_START_ADDR: "
 1195      5F535441 
 1195      52545F41 
 1195      4444523A 
 1195      2000
 1196 0042 00000000 		.zero	6
 1196      0000
 1197              	.LC2:
 1198 0048 0A00     		.string	"\n"
 1199 004a 00000000 		.zero	6
 1199      0000
 1200              	.LC3:
 1201 0050 48454150 		.string	"HEAP_END_ADDR: "
 1201      5F454E44 
 1201      5F414444 
 1201      523A2000 
 1202              	.LC4:
 1203 0060 4B45524E 		.string	"KERNEL_TEXT_START: "
 1203      454C5F54 
 1203      4558545F 
 1203      53544152 
 1203      543A2000 
 1204 0074 00000000 		.zero	4
 1205              	.LC5:
 1206 0078 4B45524E 		.string	"KERNEL_TEXT_END: "
 1206      454C5F54 
 1206      4558545F 
 1206      454E443A 
 1206      2000
 1207 008a 00000000 		.zero	6
 1207      0000
 1208              	.LC6:
 1209 0090 55534552 		.string	"USER_TEXT_START: "
 1209      5F544558 
 1209      545F5354 
 1209      4152543A 
 1209      2000
 1210 00a2 00000000 		.zero	6
 1210      0000
 1211              	.LC7:
 1212 00a8 55534552 		.string	"USER_TEXT_END: "
 1212      5F544558 
 1212      545F454E 
 1212      443A2000 
 1213              	.LC8:
 1214 00b8 55534552 		.string	"USER_BSS_START: "
 1214      5F425353 
 1214      5F535441 
GAS LISTING /tmp/ccRsVzN4.s 			page 37


 1214      52543A20 
 1214      00
 1215 00c9 00000000 		.zero	7
 1215      000000
 1216              	.LC9:
 1217 00d0 55534552 		.string	"USER_BSS_END: "
 1217      5F425353 
 1217      5F454E44 
 1217      3A2000
 1218 00df 00       		.zero	1
 1219              	.LC10:
 1220 00e0 55534552 		.string	"USER_DATA_START: "
 1220      5F444154 
 1220      415F5354 
 1220      4152543A 
 1220      2000
 1221 00f2 00000000 		.zero	6
 1221      0000
 1222              	.LC11:
 1223 00f8 55534552 		.string	"USER_DATA_END: "
 1223      5F444154 
 1223      415F454E 
 1223      443A2000 
 1224              	.LC12:
 1225 0108 55534552 		.string	"USER_RODATA_START: "
 1225      5F524F44 
 1225      4154415F 
 1225      53544152 
 1225      543A2000 
 1226 011c 00000000 		.zero	4
 1227              	.LC13:
 1228 0120 55534552 		.string	"USER_RODATA_END: "
 1228      5F524F44 
 1228      4154415F 
 1228      454E443A 
 1228      2000
 1229 0132 00000000 		.zero	6
 1229      0000
 1230              	.LC14:
 1231 0138 73697A65 		.string	"sizeof(PMT): "
 1231      6F662850 
 1231      4D54293A 
 1231      2000
 1232 0146 0000     		.zero	2
 1233              	.LC15:
 1234 0148 0A0A00   		.string	"\n\n"
 1235 014b 00000000 		.zero	5
 1235      00
 1236              	.LC16:
 1237 0150 4E6F416C 		.string	"NoAlloc initalized: "
 1237      6C6F6320 
 1237      696E6974 
 1237      616C697A 
 1237      65643A20 
 1238 0165 000000   		.zero	3
 1239              	.LC17:
 1240 0168 4E4F414C 		.string	"NOALLOC_END_ADDR: "
GAS LISTING /tmp/ccRsVzN4.s 			page 38


 1240      4C4F435F 
 1240      454E445F 
 1240      41444452 
 1240      3A2000
 1241 017b 00000000 		.zero	5
 1241      00
 1242              	.LC18:
 1243 0180 496E6974 		.string	"Initalizing kmem!!!\n"
 1243      616C697A 
 1243      696E6720 
 1243      6B6D656D 
 1243      2121210A 
 1244 0195 000000   		.zero	3
 1245              	.LC19:
 1246 0198 4B4D454D 		.string	"KMEM NOT SUCCESSFULLY INITALIZED!!!\n"
 1246      204E4F54 
 1246      20535543 
 1246      43455353 
 1246      46554C4C 
 1247 01bd 000000   		.zero	3
 1248              	.LC20:
 1249 01c0 6B6D656D 		.string	"kmem initalized!!!\n"
 1249      20696E69 
 1249      74616C69 
 1249      7A656421 
 1249      21210A00 
 1250 01d4 00000000 		.zero	4
 1251              	.LC21:
 1252 01d8 50616769 		.string	"Paging init!\n"
 1252      6E672069 
 1252      6E697421 
 1252      0A00
 1253 01e6 0000     		.zero	2
 1254              	.LC22:
 1255 01e8 50616769 		.string	"Paging initalized!\n"
 1255      6E672069 
 1255      6E697461 
 1255      6C697A65 
 1255      64210A00 
 1256 01fc 00000000 		.zero	4
 1257              	.LC23:
 1258 0200 73747665 		.string	"stvec initalized!\n"
 1258      6320696E 
 1258      6974616C 
 1258      697A6564 
 1258      210A00
 1259 0213 00000000 		.zero	5
 1259      00
 1260              	.LC24:
 1261 0218 4D656D6F 		.string	"MemoryAllocator initalized!\n"
 1261      7279416C 
 1261      6C6F6361 
 1261      746F7220 
 1261      696E6974 
 1262 0235 000000   		.zero	3
 1263              	.LC25:
 1264 0238 53636865 		.string	"Scheduler initalized!\n"
GAS LISTING /tmp/ccRsVzN4.s 			page 39


 1264      64756C65 
 1264      7220696E 
 1264      6974616C 
 1264      697A6564 
 1265 024f 00       		.zero	1
 1266              	.LC26:
 1267 0250 53746449 		.string	"StdIO initalized!\n"
 1267      4F20696E 
 1267      6974616C 
 1267      697A6564 
 1267      210A00
 1268 0263 00000000 		.zero	5
 1268      00
 1269              	.LC27:
 1270 0268 4D61696E 		.string	"Main kenrel thread initalized!\n"
 1270      206B656E 
 1270      72656C20 
 1270      74687265 
 1270      61642069 
 1271              	.LC28:
 1272 0288 496E6974 		.string	"Initalizing user thread and idle thread...\n"
 1272      616C697A 
 1272      696E6720 
 1272      75736572 
 1272      20746872 
 1273 02b4 00000000 		.zero	4
 1274              	.LC29:
 1275 02b8 54687265 		.string	"Threads successfully initalized!\n"
 1275      61647320 
 1275      73756363 
 1275      65737366 
 1275      756C6C79 
 1276 02da 00000000 		.zero	6
 1276      0000
 1277              	.LC30:
 1278 02e0 2D2D2D2D 		.string	"-----------KERNEL INITALIZED-----------\n\n"
 1278      2D2D2D2D 
 1278      2D2D2D4B 
 1278      45524E45 
 1278      4C20494E 
 1279              		.text
 1280              	.Letext0:
 1281              		.file 5 "src/kernel/core/../../../h/../h/../lib/hw.h"
 1282              		.file 6 "src/kernel/core/../../../h/../h/../h/../h/list.h"
 1283              		.file 7 "src/kernel/core/../../../h/../h/../h/object_cache.h"
 1284              		.file 8 "src/kernel/core/../../../h/../h/slab_allocator.h"
 1285              		.file 9 "src/kernel/core/../../../h/../h/../h/memory_allocator.hpp"
 1286              		.file 10 "src/kernel/core/../../../h/../h/ptr_queue.hpp"
 1287              		.file 11 "src/kernel/core/../../../h/../h/ksemaphore.hpp"
 1288              		.file 12 "src/kernel/core/../../../h/../h/stdio.hpp"
 1289              		.file 13 "src/kernel/core/../../../h/../h/scheduler.hpp"
 1290              		.file 14 "src/kernel/core/../../../h/../h/pmt.h"
 1291              		.file 15 "src/kernel/core/../../../h/../h/pager.h"
 1292              		.file 16 "src/kernel/core/../../../h/../h/slab.h"
 1293              		.file 17 "src/kernel/core/../../../h/kernel_lib.h"
 1294              		.file 18 "src/kernel/core/../../../h/../h/buddy.h"
GAS LISTING /tmp/ccRsVzN4.s 			page 40


DEFINED SYMBOLS
                            *ABS*:0000000000000000 kernel_lib.cpp
     /tmp/ccRsVzN4.s:12     .text:0000000000000000 _ZN8KSysCall15thread_dispatchEv
     /tmp/ccRsVzN4.s:16     .text:0000000000000000 .L0 
     /tmp/ccRsVzN4.s:17     .text:0000000000000000 .L0 
     /tmp/ccRsVzN4.s:18     .text:0000000000000004 .L0 
     /tmp/ccRsVzN4.s:20     .text:0000000000000008 .L0 
     /tmp/ccRsVzN4.s:22     .text:000000000000000c .L0 
     /tmp/ccRsVzN4.s:24     .text:000000000000000c .L0 
     /tmp/ccRsVzN4.s:25     .text:000000000000000c .L0 
     /tmp/ccRsVzN4.s:31     .text:0000000000000014 .L0 
src/kernel/core/kernel_lib.cpp:6      .text:0000000000000014 .L0 
     /tmp/ccRsVzN4.s:37     .text:0000000000000018 .L0 
     /tmp/ccRsVzN4.s:38     .text:000000000000001c .L0 
     /tmp/ccRsVzN4.s:39     .text:000000000000001c .L0 
     /tmp/ccRsVzN4.s:41     .text:0000000000000020 .L0 
     /tmp/ccRsVzN4.s:43     .text:0000000000000024 .L0 
     /tmp/ccRsVzN4.s:49     .text:0000000000000024 _Z12idleFunctionPv
     /tmp/ccRsVzN4.s:52     .text:0000000000000024 .L0 
     /tmp/ccRsVzN4.s:53     .text:0000000000000024 .L0 
     /tmp/ccRsVzN4.s:54     .text:0000000000000028 .L0 
     /tmp/ccRsVzN4.s:57     .text:0000000000000030 .L0 
     /tmp/ccRsVzN4.s:58     .text:0000000000000030 .L0 
     /tmp/ccRsVzN4.s:60     .text:0000000000000034 .L0 
     /tmp/ccRsVzN4.s:63     .text:0000000000000034 .L0 
     /tmp/ccRsVzN4.s:64     .text:0000000000000034 .L0 
     /tmp/ccRsVzN4.s:65     .text:0000000000000034 .L0 
     /tmp/ccRsVzN4.s:68     .text:0000000000000040 .L0 
     /tmp/ccRsVzN4.s:74     .text:0000000000000040 _Z5kputcc
     /tmp/ccRsVzN4.s:77     .text:0000000000000040 .L0 
     /tmp/ccRsVzN4.s:79     .text:0000000000000040 .L0 
     /tmp/ccRsVzN4.s:80     .text:0000000000000044 .L0 
     /tmp/ccRsVzN4.s:82     .text:0000000000000048 .L0 
     /tmp/ccRsVzN4.s:84     .text:000000000000004c .L0 
     /tmp/ccRsVzN4.s:86     .text:000000000000004c .L0 
     /tmp/ccRsVzN4.s:87     .text:000000000000004c .L0 
     /tmp/ccRsVzN4.s:91     .text:0000000000000058 .L0 
     /tmp/ccRsVzN4.s:96     .text:0000000000000064 .L0 
     /tmp/ccRsVzN4.s:97     .text:0000000000000064 .L0 
     /tmp/ccRsVzN4.s:99     .text:0000000000000068 .L0 
     /tmp/ccRsVzN4.s:102    .text:0000000000000070 .L0 
     /tmp/ccRsVzN4.s:103    .text:0000000000000070 .L0 
     /tmp/ccRsVzN4.s:105    .text:0000000000000074 .L0 
     /tmp/ccRsVzN4.s:106    .text:0000000000000078 .L0 
     /tmp/ccRsVzN4.s:107    .text:0000000000000078 .L0 
     /tmp/ccRsVzN4.s:109    .text:000000000000007c .L0 
     /tmp/ccRsVzN4.s:111    .text:0000000000000080 .L0 
     /tmp/ccRsVzN4.s:117    .text:0000000000000080 _Z12kprintStringPKc
     /tmp/ccRsVzN4.s:120    .text:0000000000000080 .L0 
     /tmp/ccRsVzN4.s:122    .text:0000000000000080 .L0 
     /tmp/ccRsVzN4.s:123    .text:0000000000000084 .L0 
     /tmp/ccRsVzN4.s:127    .text:0000000000000090 .L0 
     /tmp/ccRsVzN4.s:128    .text:0000000000000090 .L0 
     /tmp/ccRsVzN4.s:129    .text:0000000000000090 .L0 
     /tmp/ccRsVzN4.s:131    .text:0000000000000094 .L0 
     /tmp/ccRsVzN4.s:134    .text:0000000000000098 .L0 
     /tmp/ccRsVzN4.s:138    .text:000000000000009c .L0 
GAS LISTING /tmp/ccRsVzN4.s 			page 41


     /tmp/ccRsVzN4.s:139    .text:000000000000009c .L0 
     /tmp/ccRsVzN4.s:141    .text:00000000000000a0 .L0 
     /tmp/ccRsVzN4.s:143    .text:00000000000000a4 .L0 
     /tmp/ccRsVzN4.s:144    .text:00000000000000a4 .L0 
     /tmp/ccRsVzN4.s:147    .text:00000000000000ac .L0 
     /tmp/ccRsVzN4.s:148    .text:00000000000000ac .L0 
     /tmp/ccRsVzN4.s:151    .text:00000000000000b0 .L0 
     /tmp/ccRsVzN4.s:154    .text:00000000000000b4 .L0 
     /tmp/ccRsVzN4.s:155    .text:00000000000000b8 .L0 
     /tmp/ccRsVzN4.s:157    .text:00000000000000bc .L0 
     /tmp/ccRsVzN4.s:158    .text:00000000000000bc .L0 
     /tmp/ccRsVzN4.s:160    .text:00000000000000c0 .L0 
     /tmp/ccRsVzN4.s:163    .text:00000000000000c4 .L0 
     /tmp/ccRsVzN4.s:165    .text:00000000000000c8 .L0 
     /tmp/ccRsVzN4.s:171    .text:00000000000000c8 _Z9kprintIntmib
     /tmp/ccRsVzN4.s:174    .text:00000000000000c8 .L0 
     /tmp/ccRsVzN4.s:176    .text:00000000000000c8 .L0 
     /tmp/ccRsVzN4.s:177    .text:00000000000000cc .L0 
     /tmp/ccRsVzN4.s:183    .text:00000000000000e0 .L0 
     /tmp/ccRsVzN4.s:184    .text:00000000000000e0 .L0 
     /tmp/ccRsVzN4.s:185    .text:00000000000000e0 .L0 
     /tmp/ccRsVzN4.s:186    .text:00000000000000e0 .L0 
     /tmp/ccRsVzN4.s:187    .text:00000000000000e0 .L0 
     /tmp/ccRsVzN4.s:189    .text:00000000000000e4 .L0 
     /tmp/ccRsVzN4.s:193    .text:00000000000000ec .L0 
     /tmp/ccRsVzN4.s:194    .text:00000000000000ec .L0 
     /tmp/ccRsVzN4.s:195    .text:00000000000000ec .L0 
     /tmp/ccRsVzN4.s:197    .text:00000000000000f0 .L0 
     /tmp/ccRsVzN4.s:202    .text:00000000000000f8 .L0 
     /tmp/ccRsVzN4.s:207    .text:0000000000000100 .L0 
     /tmp/ccRsVzN4.s:208    .text:0000000000000100 .L0 
     /tmp/ccRsVzN4.s:213    .text:000000000000010c .L0 
     /tmp/ccRsVzN4.s:214    .text:000000000000010c .L0 
     /tmp/ccRsVzN4.s:220    .text:0000000000000114 .L0 
     /tmp/ccRsVzN4.s:224    .text:0000000000000118 .L0 
     /tmp/ccRsVzN4.s:225    .text:0000000000000118 .L0 
     /tmp/ccRsVzN4.s:226    .text:0000000000000118 .L0 
     /tmp/ccRsVzN4.s:228    .text:000000000000011c .L0 
     /tmp/ccRsVzN4.s:231    .text:0000000000000120 .L0 
     /tmp/ccRsVzN4.s:235    .text:0000000000000130 .L0 
     /tmp/ccRsVzN4.s:240    .text:000000000000013c .L0 
     /tmp/ccRsVzN4.s:243    .text:0000000000000140 .L0 
     /tmp/ccRsVzN4.s:245    .text:0000000000000144 .L0 
     /tmp/ccRsVzN4.s:249    .text:0000000000000148 .L0 
     /tmp/ccRsVzN4.s:250    .text:0000000000000148 .L0 
     /tmp/ccRsVzN4.s:254    .text:0000000000000150 .L0 
     /tmp/ccRsVzN4.s:255    .text:0000000000000150 .L0 
     /tmp/ccRsVzN4.s:261    .text:0000000000000164 .L0 
     /tmp/ccRsVzN4.s:264    .text:0000000000000168 .L0 
     /tmp/ccRsVzN4.s:265    .text:000000000000016c .L0 
     /tmp/ccRsVzN4.s:267    .text:0000000000000170 .L0 
     /tmp/ccRsVzN4.s:268    .text:0000000000000170 .L0 
     /tmp/ccRsVzN4.s:270    .text:0000000000000174 .L0 
     /tmp/ccRsVzN4.s:272    .text:0000000000000178 .L0 
     /tmp/ccRsVzN4.s:275    .text:000000000000017c .L0 
     /tmp/ccRsVzN4.s:277    .text:0000000000000180 .L0 
     /tmp/ccRsVzN4.s:279    .text:0000000000000184 .L0 
GAS LISTING /tmp/ccRsVzN4.s 			page 42


     /tmp/ccRsVzN4.s:285    .text:0000000000000184 _Z10kernelInitv
     /tmp/ccRsVzN4.s:288    .text:0000000000000184 .L0 
     /tmp/ccRsVzN4.s:289    .text:0000000000000184 .L0 
     /tmp/ccRsVzN4.s:290    .text:0000000000000188 .L0 
     /tmp/ccRsVzN4.s:297    .text:00000000000001a0 .L0 
     /tmp/ccRsVzN4.s:298    .text:00000000000001a0 .L0 
     /tmp/ccRsVzN4.s:299    .text:00000000000001a0 .L0 
     /tmp/ccRsVzN4.s:300    .text:00000000000001a0 .L0 
     /tmp/ccRsVzN4.s:301    .text:00000000000001a0 .L0 
     /tmp/ccRsVzN4.s:302    .text:00000000000001a0 .L0 
     /tmp/ccRsVzN4.s:304    .text:00000000000001a4 .L0 
     /tmp/ccRsVzN4.s:306    .text:00000000000001a4 .L0 
     /tmp/ccRsVzN4.s:307    .text:00000000000001a4 .L0 
     /tmp/ccRsVzN4.s:311    .text:00000000000001b4 .L0 
     /tmp/ccRsVzN4.s:315    .text:00000000000001c4 .L0 
     /tmp/ccRsVzN4.s:322    .text:00000000000001e0 .L0 
     /tmp/ccRsVzN4.s:326    .text:00000000000001f0 .L0 
     /tmp/ccRsVzN4.s:330    .text:0000000000000200 .L0 
     /tmp/ccRsVzN4.s:337    .text:000000000000021c .L0 
     /tmp/ccRsVzN4.s:341    .text:000000000000022c .L0 
     /tmp/ccRsVzN4.s:345    .text:000000000000023c .L0 
     /tmp/ccRsVzN4.s:352    .text:0000000000000258 .L0 
     /tmp/ccRsVzN4.s:356    .text:0000000000000268 .L0 
     /tmp/ccRsVzN4.s:360    .text:0000000000000278 .L0 
     /tmp/ccRsVzN4.s:367    .text:0000000000000294 .L0 
     /tmp/ccRsVzN4.s:371    .text:00000000000002a4 .L0 
     /tmp/ccRsVzN4.s:375    .text:00000000000002b4 .L0 
     /tmp/ccRsVzN4.s:382    .text:00000000000002d0 .L0 
     /tmp/ccRsVzN4.s:386    .text:00000000000002e0 .L0 
     /tmp/ccRsVzN4.s:390    .text:00000000000002f0 .L0 
     /tmp/ccRsVzN4.s:397    .text:000000000000030c .L0 
     /tmp/ccRsVzN4.s:401    .text:000000000000031c .L0 
     /tmp/ccRsVzN4.s:405    .text:000000000000032c .L0 
     /tmp/ccRsVzN4.s:412    .text:0000000000000348 .L0 
     /tmp/ccRsVzN4.s:416    .text:0000000000000358 .L0 
     /tmp/ccRsVzN4.s:420    .text:0000000000000368 .L0 
     /tmp/ccRsVzN4.s:427    .text:0000000000000384 .L0 
     /tmp/ccRsVzN4.s:431    .text:0000000000000394 .L0 
     /tmp/ccRsVzN4.s:435    .text:00000000000003a4 .L0 
     /tmp/ccRsVzN4.s:442    .text:00000000000003c0 .L0 
     /tmp/ccRsVzN4.s:446    .text:00000000000003d0 .L0 
     /tmp/ccRsVzN4.s:450    .text:00000000000003e0 .L0 
     /tmp/ccRsVzN4.s:457    .text:00000000000003fc .L0 
     /tmp/ccRsVzN4.s:461    .text:000000000000040c .L0 
     /tmp/ccRsVzN4.s:465    .text:000000000000041c .L0 
     /tmp/ccRsVzN4.s:472    .text:0000000000000438 .L0 
     /tmp/ccRsVzN4.s:476    .text:0000000000000448 .L0 
     /tmp/ccRsVzN4.s:480    .text:0000000000000458 .L0 
     /tmp/ccRsVzN4.s:487    .text:0000000000000474 .L0 
     /tmp/ccRsVzN4.s:491    .text:0000000000000484 .L0 
     /tmp/ccRsVzN4.s:495    .text:0000000000000494 .L0 
     /tmp/ccRsVzN4.s:501    .text:00000000000004a8 .L0 
     /tmp/ccRsVzN4.s:505    .text:00000000000004b8 .L0 
     /tmp/ccRsVzN4.s:506    .text:00000000000004b8 .L0 
     /tmp/ccRsVzN4.s:510    .text:00000000000004c8 .L0 
     /tmp/ccRsVzN4.s:511    .text:00000000000004c8 .L0 
     /tmp/ccRsVzN4.s:514    .text:00000000000004d0 .L0 
GAS LISTING /tmp/ccRsVzN4.s 			page 43


     /tmp/ccRsVzN4.s:515    .text:00000000000004d0 .L0 
     /tmp/ccRsVzN4.s:519    .text:00000000000004e0 .L0 
     /tmp/ccRsVzN4.s:526    .text:00000000000004f0 .L0 
     /tmp/ccRsVzN4.s:529    .text:00000000000004f0 .L0 
     /tmp/ccRsVzN4.s:530    .text:00000000000004f0 .L0 
     /tmp/ccRsVzN4.s:537    .text:000000000000050c .L0 
     /tmp/ccRsVzN4.s:541    .text:000000000000051c .L0 
     /tmp/ccRsVzN4.s:542    .text:000000000000051c .L0 
     /tmp/ccRsVzN4.s:546    .text:000000000000052c .L0 
     /tmp/ccRsVzN4.s:547    .text:000000000000052c .L0 
     /tmp/ccRsVzN4.s:550    .text:0000000000000534 .L0 
     /tmp/ccRsVzN4.s:553    .text:000000000000053c .L0 
     /tmp/ccRsVzN4.s:554    .text:000000000000053c .L0 
     /tmp/ccRsVzN4.s:558    .text:000000000000054c .L0 
     /tmp/ccRsVzN4.s:559    .text:000000000000054c .L0 
     /tmp/ccRsVzN4.s:566    .text:000000000000055c .L0 
     /tmp/ccRsVzN4.s:567    .text:000000000000055c .L0 
     /tmp/ccRsVzN4.s:568    .text:000000000000055c .L0 
     /tmp/ccRsVzN4.s:578    .text:0000000000000564 .L0 
     /tmp/ccRsVzN4.s:579    .text:0000000000000564 .L0 
     /tmp/ccRsVzN4.s:584    .text:0000000000000570 .L0 
     /tmp/ccRsVzN4.s:585    .text:0000000000000570 .L0 
     /tmp/ccRsVzN4.s:588    .text:0000000000000578 .L0 
     /tmp/ccRsVzN4.s:589    .text:0000000000000578 .L0 
     /tmp/ccRsVzN4.s:593    .text:0000000000000584 .L0 
     /tmp/ccRsVzN4.s:594    .text:0000000000000584 .L0 
     /tmp/ccRsVzN4.s:598    .text:0000000000000590 .L0 
     /tmp/ccRsVzN4.s:599    .text:0000000000000590 .L0 
     /tmp/ccRsVzN4.s:603    .text:00000000000005a0 .L0 
     /tmp/ccRsVzN4.s:604    .text:00000000000005a0 .L0 
     /tmp/ccRsVzN4.s:609    .text:00000000000005a8 .L0 
src/kernel/core/../../../h/../h/riscv.hpp:151    .text:00000000000005a8 .L0 
     /tmp/ccRsVzN4.s:619    .text:00000000000005ac .L0 
     /tmp/ccRsVzN4.s:620    .text:00000000000005ac .L0 
     /tmp/ccRsVzN4.s:624    .text:00000000000005bc .L0 
     /tmp/ccRsVzN4.s:625    .text:00000000000005bc .L0 
     /tmp/ccRsVzN4.s:628    .text:00000000000005c4 .L0 
     /tmp/ccRsVzN4.s:631    .text:00000000000005cc .L0 
     /tmp/ccRsVzN4.s:632    .text:00000000000005cc .L0 
     /tmp/ccRsVzN4.s:636    .text:00000000000005dc .L0 
     /tmp/ccRsVzN4.s:637    .text:00000000000005dc .L0 
     /tmp/ccRsVzN4.s:640    .text:00000000000005e4 .L0 
     /tmp/ccRsVzN4.s:641    .text:00000000000005e4 .L0 
     /tmp/ccRsVzN4.s:645    .text:00000000000005f4 .L0 
     /tmp/ccRsVzN4.s:646    .text:00000000000005f4 .L0 
     /tmp/ccRsVzN4.s:649    .text:00000000000005fc .L0 
     /tmp/ccRsVzN4.s:650    .text:00000000000005fc .L0 
     /tmp/ccRsVzN4.s:654    .text:000000000000060c .L0 
     /tmp/ccRsVzN4.s:655    .text:000000000000060c .L0 
     /tmp/ccRsVzN4.s:658    .text:0000000000000614 .L0 
     /tmp/ccRsVzN4.s:659    .text:0000000000000614 .L0 
     /tmp/ccRsVzN4.s:663    .text:0000000000000624 .L0 
     /tmp/ccRsVzN4.s:664    .text:0000000000000624 .L0 
     /tmp/ccRsVzN4.s:668    .text:0000000000000634 .L0 
     /tmp/ccRsVzN4.s:669    .text:0000000000000634 .L0 
     /tmp/ccRsVzN4.s:672    .text:000000000000063c .L0 
     /tmp/ccRsVzN4.s:678    .text:000000000000064c .L0 
GAS LISTING /tmp/ccRsVzN4.s 			page 44


     /tmp/ccRsVzN4.s:679    .text:000000000000064c .L0 
     /tmp/ccRsVzN4.s:688    .text:0000000000000668 .L0 
     /tmp/ccRsVzN4.s:689    .text:0000000000000668 .L0 
     /tmp/ccRsVzN4.s:692    .text:0000000000000670 .L0 
     /tmp/ccRsVzN4.s:698    .text:0000000000000680 .L0 
     /tmp/ccRsVzN4.s:699    .text:0000000000000680 .L0 
     /tmp/ccRsVzN4.s:709    .text:0000000000000698 .L0 
     /tmp/ccRsVzN4.s:710    .text:0000000000000698 .L0 
     /tmp/ccRsVzN4.s:711    .text:0000000000000698 .L0 
     /tmp/ccRsVzN4.s:716    .text:000000000000069c .L0 
     /tmp/ccRsVzN4.s:718    .text:00000000000006a0 .L0 
     /tmp/ccRsVzN4.s:720    .text:00000000000006a4 .L0 
     /tmp/ccRsVzN4.s:722    .text:00000000000006a8 .L0 
     /tmp/ccRsVzN4.s:724    .text:00000000000006ac .L0 
     /tmp/ccRsVzN4.s:725    .text:00000000000006ac .L0 
     /tmp/ccRsVzN4.s:730    .text:00000000000006bc .L0 
     /tmp/ccRsVzN4.s:731    .text:00000000000006bc .L0 
     /tmp/ccRsVzN4.s:735    .text:00000000000006cc .L0 
     /tmp/ccRsVzN4.s:736    .text:00000000000006cc .L0 
     /tmp/ccRsVzN4.s:740    .text:00000000000006d0 .L0 
     /tmp/ccRsVzN4.s:741    .text:00000000000006d0 .L0 
     /tmp/ccRsVzN4.s:745    .text:00000000000006e0 .L0 
     /tmp/ccRsVzN4.s:746    .text:00000000000006e0 .L0 
     /tmp/ccRsVzN4.s:749    .text:00000000000006e4 .L0 
     /tmp/ccRsVzN4.s:751    .text:00000000000006ec .L0 
     /tmp/ccRsVzN4.s:752    .text:00000000000006ec .L0 
     /tmp/ccRsVzN4.s:754    .text:00000000000006f0 .L0 
     /tmp/ccRsVzN4.s:755    .text:00000000000006f0 .L0 
     /tmp/ccRsVzN4.s:757    .text:00000000000006f4 .L0 
     /tmp/ccRsVzN4.s:759    .text:00000000000006f8 .L0 
     /tmp/ccRsVzN4.s:761    .text:00000000000006fc .L0 
     /tmp/ccRsVzN4.s:763    .text:0000000000000700 .L0 
     /tmp/ccRsVzN4.s:765    .text:0000000000000704 .L0 
     /tmp/ccRsVzN4.s:769    .text:0000000000000708 .L0 
     /tmp/ccRsVzN4.s:771    .text:0000000000000708 .L0 
     /tmp/ccRsVzN4.s:782    .text:0000000000000728 .L0 
     /tmp/ccRsVzN4.s:788    .text:0000000000000728 _Z13newKernelInitv
     /tmp/ccRsVzN4.s:791    .text:0000000000000728 .L0 
     /tmp/ccRsVzN4.s:792    .text:0000000000000728 .L0 
     /tmp/ccRsVzN4.s:793    .text:000000000000072c .L0 
     /tmp/ccRsVzN4.s:797    .text:0000000000000738 .L0 
     /tmp/ccRsVzN4.s:798    .text:0000000000000738 .L0 
     /tmp/ccRsVzN4.s:799    .text:0000000000000738 .L0 
     /tmp/ccRsVzN4.s:801    .text:000000000000073c .L0 
     /tmp/ccRsVzN4.s:803    .text:000000000000073c .L0 
     /tmp/ccRsVzN4.s:804    .text:000000000000073c .L0 
     /tmp/ccRsVzN4.s:808    .text:000000000000074c .L0 
     /tmp/ccRsVzN4.s:812    .text:000000000000075c .L0 
     /tmp/ccRsVzN4.s:819    .text:0000000000000778 .L0 
     /tmp/ccRsVzN4.s:823    .text:0000000000000788 .L0 
     /tmp/ccRsVzN4.s:827    .text:0000000000000798 .L0 
     /tmp/ccRsVzN4.s:834    .text:00000000000007b4 .L0 
     /tmp/ccRsVzN4.s:838    .text:00000000000007c4 .L0 
     /tmp/ccRsVzN4.s:842    .text:00000000000007d4 .L0 
     /tmp/ccRsVzN4.s:849    .text:00000000000007f0 .L0 
     /tmp/ccRsVzN4.s:853    .text:0000000000000800 .L0 
     /tmp/ccRsVzN4.s:857    .text:0000000000000810 .L0 
GAS LISTING /tmp/ccRsVzN4.s 			page 45


     /tmp/ccRsVzN4.s:864    .text:000000000000082c .L0 
     /tmp/ccRsVzN4.s:868    .text:000000000000083c .L0 
     /tmp/ccRsVzN4.s:872    .text:000000000000084c .L0 
     /tmp/ccRsVzN4.s:879    .text:0000000000000868 .L0 
     /tmp/ccRsVzN4.s:883    .text:0000000000000878 .L0 
     /tmp/ccRsVzN4.s:887    .text:0000000000000888 .L0 
     /tmp/ccRsVzN4.s:894    .text:00000000000008a4 .L0 
     /tmp/ccRsVzN4.s:898    .text:00000000000008b4 .L0 
     /tmp/ccRsVzN4.s:902    .text:00000000000008c4 .L0 
     /tmp/ccRsVzN4.s:908    .text:00000000000008d8 .L0 
     /tmp/ccRsVzN4.s:912    .text:00000000000008e8 .L0 
     /tmp/ccRsVzN4.s:913    .text:00000000000008e8 .L0 
     /tmp/ccRsVzN4.s:917    .text:00000000000008f8 .L0 
     /tmp/ccRsVzN4.s:918    .text:00000000000008f8 .L0 
     /tmp/ccRsVzN4.s:921    .text:0000000000000900 .L0 
     /tmp/ccRsVzN4.s:922    .text:0000000000000900 .L0 
     /tmp/ccRsVzN4.s:926    .text:0000000000000910 .L0 
     /tmp/ccRsVzN4.s:932    .text:0000000000000920 .L0 
     /tmp/ccRsVzN4.s:935    .text:0000000000000920 .L0 
     /tmp/ccRsVzN4.s:936    .text:0000000000000920 .L0 
     /tmp/ccRsVzN4.s:943    .text:000000000000093c .L0 
     /tmp/ccRsVzN4.s:947    .text:000000000000094c .L0 
     /tmp/ccRsVzN4.s:948    .text:000000000000094c .L0 
     /tmp/ccRsVzN4.s:952    .text:000000000000095c .L0 
     /tmp/ccRsVzN4.s:953    .text:000000000000095c .L0 
     /tmp/ccRsVzN4.s:956    .text:0000000000000964 .L0 
     /tmp/ccRsVzN4.s:959    .text:000000000000096c .L0 
     /tmp/ccRsVzN4.s:965    .text:000000000000097c .L0 
     /tmp/ccRsVzN4.s:968    .text:000000000000097c .L0 
     /tmp/ccRsVzN4.s:969    .text:000000000000097c .L0 
     /tmp/ccRsVzN4.s:976    .text:0000000000000998 .L0 
     /tmp/ccRsVzN4.s:980    .text:00000000000009a8 .L0 
     /tmp/ccRsVzN4.s:981    .text:00000000000009a8 .L0 
     /tmp/ccRsVzN4.s:986    .text:00000000000009b8 .L0 
     /tmp/ccRsVzN4.s:987    .text:00000000000009b8 .L0 
     /tmp/ccRsVzN4.s:989    .text:00000000000009c0 .L0 
     /tmp/ccRsVzN4.s:990    .text:00000000000009c0 .L0 
     /tmp/ccRsVzN4.s:992    .text:00000000000009c4 .L0 
     /tmp/ccRsVzN4.s:993    .text:00000000000009c4 .L0 
     /tmp/ccRsVzN4.s:995    .text:00000000000009c8 .L0 
     /tmp/ccRsVzN4.s:997    .text:00000000000009cc .L0 
     /tmp/ccRsVzN4.s:1000   .text:00000000000009d0 .L0 
     /tmp/ccRsVzN4.s:1002   .text:00000000000009d0 .L0 
     /tmp/ccRsVzN4.s:1003   .text:00000000000009d0 .L0 
     /tmp/ccRsVzN4.s:1007   .text:00000000000009e0 .L0 
     /tmp/ccRsVzN4.s:1008   .text:00000000000009e0 .L0 
     /tmp/ccRsVzN4.s:1010   .text:00000000000009e8 .L0 
     /tmp/ccRsVzN4.s:1016   .text:00000000000009e8 _Z8align4kbm
     /tmp/ccRsVzN4.s:1019   .text:00000000000009e8 .L0 
     /tmp/ccRsVzN4.s:1021   .text:00000000000009e8 .L0 
     /tmp/ccRsVzN4.s:1022   .text:00000000000009ec .L0 
     /tmp/ccRsVzN4.s:1024   .text:00000000000009f0 .L0 
     /tmp/ccRsVzN4.s:1026   .text:00000000000009f4 .L0 
     /tmp/ccRsVzN4.s:1028   .text:00000000000009f4 .L0 
     /tmp/ccRsVzN4.s:1029   .text:00000000000009f4 .L0 
     /tmp/ccRsVzN4.s:1034   .text:0000000000000a00 .L0 
     /tmp/ccRsVzN4.s:1038   .text:0000000000000a0c .L0 
GAS LISTING /tmp/ccRsVzN4.s 			page 46


     /tmp/ccRsVzN4.s:1039   .text:0000000000000a0c .L0 
     /tmp/ccRsVzN4.s:1041   .text:0000000000000a10 .L0 
     /tmp/ccRsVzN4.s:1043   .text:0000000000000a14 .L0 
     /tmp/ccRsVzN4.s:1049   .text:0000000000000a14 _Z11closest2powm
     /tmp/ccRsVzN4.s:1052   .text:0000000000000a14 .L0 
     /tmp/ccRsVzN4.s:1054   .text:0000000000000a14 .L0 
     /tmp/ccRsVzN4.s:1055   .text:0000000000000a18 .L0 
     /tmp/ccRsVzN4.s:1057   .text:0000000000000a1c .L0 
     /tmp/ccRsVzN4.s:1059   .text:0000000000000a20 .L0 
     /tmp/ccRsVzN4.s:1062   .text:0000000000000a20 .L0 
     /tmp/ccRsVzN4.s:1063   .text:0000000000000a20 .L0 
     /tmp/ccRsVzN4.s:1067   .text:0000000000000a24 .L0 
     /tmp/ccRsVzN4.s:1068   .text:0000000000000a24 .L0 
     /tmp/ccRsVzN4.s:1070   .text:0000000000000a28 .L0 
     /tmp/ccRsVzN4.s:1071   .text:0000000000000a28 .L0 
     /tmp/ccRsVzN4.s:1074   .text:0000000000000a2c .L0 
     /tmp/ccRsVzN4.s:1077   .text:0000000000000a30 .L0 
     /tmp/ccRsVzN4.s:1080   .text:0000000000000a38 .L0 
     /tmp/ccRsVzN4.s:1081   .text:0000000000000a38 .L0 
     /tmp/ccRsVzN4.s:1083   .text:0000000000000a3c .L0 
     /tmp/ccRsVzN4.s:1085   .text:0000000000000a40 .L0 
     /tmp/ccRsVzN4.s:1091   .text:0000000000000a40 _Z4log2m
     /tmp/ccRsVzN4.s:1094   .text:0000000000000a40 .L0 
     /tmp/ccRsVzN4.s:1096   .text:0000000000000a40 .L0 
     /tmp/ccRsVzN4.s:1097   .text:0000000000000a44 .L0 
     /tmp/ccRsVzN4.s:1099   .text:0000000000000a48 .L0 
     /tmp/ccRsVzN4.s:1101   .text:0000000000000a4c .L0 
     /tmp/ccRsVzN4.s:1104   .text:0000000000000a4c .L0 
     /tmp/ccRsVzN4.s:1105   .text:0000000000000a4c .L0 
     /tmp/ccRsVzN4.s:1109   .text:0000000000000a50 .L0 
     /tmp/ccRsVzN4.s:1110   .text:0000000000000a50 .L0 
     /tmp/ccRsVzN4.s:1113   .text:0000000000000a58 .L0 
     /tmp/ccRsVzN4.s:1114   .text:0000000000000a58 .L0 
     /tmp/ccRsVzN4.s:1117   .text:0000000000000a5c .L0 
     /tmp/ccRsVzN4.s:1118   .text:0000000000000a5c .L0 
     /tmp/ccRsVzN4.s:1121   .text:0000000000000a60 .L0 
     /tmp/ccRsVzN4.s:1125   .text:0000000000000a64 .L0 
     /tmp/ccRsVzN4.s:1126   .text:0000000000000a64 .L0 
     /tmp/ccRsVzN4.s:1129   .text:0000000000000a6c .L0 
     /tmp/ccRsVzN4.s:1130   .text:0000000000000a6c .L0 
     /tmp/ccRsVzN4.s:1132   .text:0000000000000a70 .L0 
     /tmp/ccRsVzN4.s:1134   .text:0000000000000a74 .L0 
     /tmp/ccRsVzN4.s:1140   .text:0000000000000a74 _Z3osbm
     /tmp/ccRsVzN4.s:1143   .text:0000000000000a74 .L0 
     /tmp/ccRsVzN4.s:1145   .text:0000000000000a74 .L0 
     /tmp/ccRsVzN4.s:1146   .text:0000000000000a78 .L0 
     /tmp/ccRsVzN4.s:1148   .text:0000000000000a7c .L0 
     /tmp/ccRsVzN4.s:1150   .text:0000000000000a80 .L0 
     /tmp/ccRsVzN4.s:1152   .text:0000000000000a80 .L0 
     /tmp/ccRsVzN4.s:1154   .text:0000000000000a84 .L0 
     /tmp/ccRsVzN4.s:1155   .text:0000000000000a84 .L0 
     /tmp/ccRsVzN4.s:1157   .text:0000000000000a88 .L0 
     /tmp/ccRsVzN4.s:1159   .text:0000000000000a8c .L0 
     /tmp/ccRsVzN4.s:1164   .text:0000000000000a94 .L0 
     /tmp/ccRsVzN4.s:1165   .text:0000000000000a98 .L0 
     /tmp/ccRsVzN4.s:1166   .text:0000000000000a98 .L0 
     /tmp/ccRsVzN4.s:1167   .text:0000000000000a98 .L0 
GAS LISTING /tmp/ccRsVzN4.s 			page 47


     /tmp/ccRsVzN4.s:1169   .text:0000000000000a9c .L0 
     /tmp/ccRsVzN4.s:1173   .text:0000000000000aa0 .L0 
     /tmp/ccRsVzN4.s:1175   .text:0000000000000aa0 .L0 
     /tmp/ccRsVzN4.s:1178   .text:0000000000000aa8 .L0 
     /tmp/ccRsVzN4.s:1187   .data:0000000000000000 kdigits
     /tmp/ccRsVzN4.s:1184   .data:0000000000000000 .LANCHOR0
     /tmp/ccRsVzN4.s:1295   .text:0000000000000aa8 .L0 
     /tmp/ccRsVzN4.s:87     .text:000000000000004c .L0 
     /tmp/ccRsVzN4.s:91     .text:0000000000000058 .L0 
     /tmp/ccRsVzN4.s:231    .text:0000000000000120 .L0 
     /tmp/ccRsVzN4.s:1191   .rodata.str1.8:0000000000000000 .LC0
     /tmp/ccRsVzN4.s:307    .text:00000000000001a4 .L0 
     /tmp/ccRsVzN4.s:1194   .rodata.str1.8:0000000000000030 .LC1
     /tmp/ccRsVzN4.s:311    .text:00000000000001b4 .L0 
     /tmp/ccRsVzN4.s:317    .text:00000000000001cc .L0 
     /tmp/ccRsVzN4.s:1197   .rodata.str1.8:0000000000000048 .LC2
     /tmp/ccRsVzN4.s:322    .text:00000000000001e0 .L0 
     /tmp/ccRsVzN4.s:1200   .rodata.str1.8:0000000000000050 .LC3
     /tmp/ccRsVzN4.s:326    .text:00000000000001f0 .L0 
     /tmp/ccRsVzN4.s:332    .text:0000000000000208 .L0 
     /tmp/ccRsVzN4.s:337    .text:000000000000021c .L0 
     /tmp/ccRsVzN4.s:1202   .rodata.str1.8:0000000000000060 .LC4
     /tmp/ccRsVzN4.s:341    .text:000000000000022c .L0 
     /tmp/ccRsVzN4.s:347    .text:0000000000000244 .L0 
     /tmp/ccRsVzN4.s:352    .text:0000000000000258 .L0 
     /tmp/ccRsVzN4.s:1205   .rodata.str1.8:0000000000000078 .LC5
     /tmp/ccRsVzN4.s:356    .text:0000000000000268 .L0 
     /tmp/ccRsVzN4.s:362    .text:0000000000000280 .L0 
     /tmp/ccRsVzN4.s:367    .text:0000000000000294 .L0 
     /tmp/ccRsVzN4.s:1208   .rodata.str1.8:0000000000000090 .LC6
     /tmp/ccRsVzN4.s:371    .text:00000000000002a4 .L0 
     /tmp/ccRsVzN4.s:377    .text:00000000000002bc .L0 
     /tmp/ccRsVzN4.s:382    .text:00000000000002d0 .L0 
     /tmp/ccRsVzN4.s:1211   .rodata.str1.8:00000000000000a8 .LC7
     /tmp/ccRsVzN4.s:386    .text:00000000000002e0 .L0 
     /tmp/ccRsVzN4.s:392    .text:00000000000002f8 .L0 
     /tmp/ccRsVzN4.s:397    .text:000000000000030c .L0 
     /tmp/ccRsVzN4.s:1213   .rodata.str1.8:00000000000000b8 .LC8
     /tmp/ccRsVzN4.s:401    .text:000000000000031c .L0 
     /tmp/ccRsVzN4.s:407    .text:0000000000000334 .L0 
     /tmp/ccRsVzN4.s:412    .text:0000000000000348 .L0 
     /tmp/ccRsVzN4.s:1216   .rodata.str1.8:00000000000000d0 .LC9
     /tmp/ccRsVzN4.s:416    .text:0000000000000358 .L0 
     /tmp/ccRsVzN4.s:422    .text:0000000000000370 .L0 
     /tmp/ccRsVzN4.s:427    .text:0000000000000384 .L0 
     /tmp/ccRsVzN4.s:1219   .rodata.str1.8:00000000000000e0 .LC10
     /tmp/ccRsVzN4.s:431    .text:0000000000000394 .L0 
     /tmp/ccRsVzN4.s:437    .text:00000000000003ac .L0 
     /tmp/ccRsVzN4.s:442    .text:00000000000003c0 .L0 
     /tmp/ccRsVzN4.s:1222   .rodata.str1.8:00000000000000f8 .LC11
     /tmp/ccRsVzN4.s:446    .text:00000000000003d0 .L0 
     /tmp/ccRsVzN4.s:452    .text:00000000000003e8 .L0 
     /tmp/ccRsVzN4.s:457    .text:00000000000003fc .L0 
     /tmp/ccRsVzN4.s:1224   .rodata.str1.8:0000000000000108 .LC12
     /tmp/ccRsVzN4.s:461    .text:000000000000040c .L0 
     /tmp/ccRsVzN4.s:467    .text:0000000000000424 .L0 
     /tmp/ccRsVzN4.s:472    .text:0000000000000438 .L0 
GAS LISTING /tmp/ccRsVzN4.s 			page 48


     /tmp/ccRsVzN4.s:1227   .rodata.str1.8:0000000000000120 .LC13
     /tmp/ccRsVzN4.s:476    .text:0000000000000448 .L0 
     /tmp/ccRsVzN4.s:482    .text:0000000000000460 .L0 
     /tmp/ccRsVzN4.s:487    .text:0000000000000474 .L0 
     /tmp/ccRsVzN4.s:1230   .rodata.str1.8:0000000000000138 .LC14
     /tmp/ccRsVzN4.s:491    .text:0000000000000484 .L0 
     /tmp/ccRsVzN4.s:501    .text:00000000000004a8 .L0 
     /tmp/ccRsVzN4.s:1233   .rodata.str1.8:0000000000000148 .LC15
     /tmp/ccRsVzN4.s:506    .text:00000000000004b8 .L0 
     /tmp/ccRsVzN4.s:1236   .rodata.str1.8:0000000000000150 .LC16
     /tmp/ccRsVzN4.s:515    .text:00000000000004d0 .L0 
     /tmp/ccRsVzN4.s:1239   .rodata.str1.8:0000000000000168 .LC17
     /tmp/ccRsVzN4.s:519    .text:00000000000004e0 .L0 
     /tmp/ccRsVzN4.s:532    .text:00000000000004f8 .L0 
     /tmp/ccRsVzN4.s:537    .text:000000000000050c .L0 
     /tmp/ccRsVzN4.s:1242   .rodata.str1.8:0000000000000180 .LC18
     /tmp/ccRsVzN4.s:542    .text:000000000000051c .L0 
     /tmp/ccRsVzN4.s:1248   .rodata.str1.8:00000000000001c0 .LC20
     /tmp/ccRsVzN4.s:554    .text:000000000000053c .L0 
     /tmp/ccRsVzN4.s:1251   .rodata.str1.8:00000000000001d8 .LC21
     /tmp/ccRsVzN4.s:559    .text:000000000000054c .L0 
     /tmp/ccRsVzN4.s:1254   .rodata.str1.8:00000000000001e8 .LC22
     /tmp/ccRsVzN4.s:599    .text:0000000000000590 .L0 
     /tmp/ccRsVzN4.s:604    .text:00000000000005a0 .L0 
     /tmp/ccRsVzN4.s:1257   .rodata.str1.8:0000000000000200 .LC23
     /tmp/ccRsVzN4.s:620    .text:00000000000005ac .L0 
     /tmp/ccRsVzN4.s:1260   .rodata.str1.8:0000000000000218 .LC24
     /tmp/ccRsVzN4.s:632    .text:00000000000005cc .L0 
     /tmp/ccRsVzN4.s:1263   .rodata.str1.8:0000000000000238 .LC25
     /tmp/ccRsVzN4.s:641    .text:00000000000005e4 .L0 
     /tmp/ccRsVzN4.s:1266   .rodata.str1.8:0000000000000250 .LC26
     /tmp/ccRsVzN4.s:650    .text:00000000000005fc .L0 
     /tmp/ccRsVzN4.s:1269   .rodata.str1.8:0000000000000268 .LC27
     /tmp/ccRsVzN4.s:659    .text:0000000000000614 .L0 
     /tmp/ccRsVzN4.s:1271   .rodata.str1.8:0000000000000288 .LC28
     /tmp/ccRsVzN4.s:664    .text:0000000000000624 .L0 
     /tmp/ccRsVzN4.s:681    .text:0000000000000654 .L0 
     /tmp/ccRsVzN4.s:701    .text:0000000000000688 .L0 
     /tmp/ccRsVzN4.s:1274   .rodata.str1.8:00000000000002b8 .LC29
     /tmp/ccRsVzN4.s:725    .text:00000000000006ac .L0 
     /tmp/ccRsVzN4.s:1277   .rodata.str1.8:00000000000002e0 .LC30
     /tmp/ccRsVzN4.s:731    .text:00000000000006bc .L0 
     /tmp/ccRsVzN4.s:1245   .rodata.str1.8:0000000000000198 .LC19
     /tmp/ccRsVzN4.s:741    .text:00000000000006d0 .L0 
     /tmp/ccRsVzN4.s:804    .text:000000000000073c .L0 
     /tmp/ccRsVzN4.s:808    .text:000000000000074c .L0 
     /tmp/ccRsVzN4.s:814    .text:0000000000000764 .L0 
     /tmp/ccRsVzN4.s:819    .text:0000000000000778 .L0 
     /tmp/ccRsVzN4.s:823    .text:0000000000000788 .L0 
     /tmp/ccRsVzN4.s:829    .text:00000000000007a0 .L0 
     /tmp/ccRsVzN4.s:834    .text:00000000000007b4 .L0 
     /tmp/ccRsVzN4.s:838    .text:00000000000007c4 .L0 
     /tmp/ccRsVzN4.s:844    .text:00000000000007dc .L0 
     /tmp/ccRsVzN4.s:849    .text:00000000000007f0 .L0 
     /tmp/ccRsVzN4.s:853    .text:0000000000000800 .L0 
     /tmp/ccRsVzN4.s:859    .text:0000000000000818 .L0 
     /tmp/ccRsVzN4.s:864    .text:000000000000082c .L0 
GAS LISTING /tmp/ccRsVzN4.s 			page 49


     /tmp/ccRsVzN4.s:868    .text:000000000000083c .L0 
     /tmp/ccRsVzN4.s:874    .text:0000000000000854 .L0 
     /tmp/ccRsVzN4.s:879    .text:0000000000000868 .L0 
     /tmp/ccRsVzN4.s:883    .text:0000000000000878 .L0 
     /tmp/ccRsVzN4.s:889    .text:0000000000000890 .L0 
     /tmp/ccRsVzN4.s:894    .text:00000000000008a4 .L0 
     /tmp/ccRsVzN4.s:898    .text:00000000000008b4 .L0 
     /tmp/ccRsVzN4.s:908    .text:00000000000008d8 .L0 
     /tmp/ccRsVzN4.s:913    .text:00000000000008e8 .L0 
     /tmp/ccRsVzN4.s:922    .text:0000000000000900 .L0 
     /tmp/ccRsVzN4.s:926    .text:0000000000000910 .L0 
     /tmp/ccRsVzN4.s:938    .text:0000000000000928 .L0 
     /tmp/ccRsVzN4.s:943    .text:000000000000093c .L0 
     /tmp/ccRsVzN4.s:948    .text:000000000000094c .L0 
     /tmp/ccRsVzN4.s:959    .text:000000000000096c .L0 
     /tmp/ccRsVzN4.s:971    .text:0000000000000984 .L0 
     /tmp/ccRsVzN4.s:976    .text:0000000000000998 .L0 
     /tmp/ccRsVzN4.s:981    .text:00000000000009a8 .L0 
     /tmp/ccRsVzN4.s:1003   .text:00000000000009d0 .L0 
     /tmp/ccRsVzN4.s:61     .text:0000000000000034 .L4
     /tmp/ccRsVzN4.s:94     .text:0000000000000064 .L7
     /tmp/ccRsVzN4.s:152    .text:00000000000000b4 .L9
     /tmp/ccRsVzN4.s:136    .text:000000000000009c .L11
     /tmp/ccRsVzN4.s:200    .text:00000000000000f8 .L14
     /tmp/ccRsVzN4.s:205    .text:0000000000000100 .L20
     /tmp/ccRsVzN4.s:222    .text:0000000000000118 .L15
     /tmp/ccRsVzN4.s:218    .text:0000000000000114 .L18
     /tmp/ccRsVzN4.s:262    .text:0000000000000168 .L13
     /tmp/ccRsVzN4.s:247    .text:0000000000000148 .L17
     /tmp/ccRsVzN4.s:738    .text:00000000000006d0 .L29
     /tmp/ccRsVzN4.s:768    .text:0000000000000708 .L24
     /tmp/ccRsVzN4.s:773    .text:0000000000000710 .L25
     /tmp/ccRsVzN4.s:776    .text:0000000000000718 .L26
     /tmp/ccRsVzN4.s:779    .text:0000000000000720 .L27
     /tmp/ccRsVzN4.s:747    .text:00000000000006e4 .L23
     /tmp/ccRsVzN4.s:999    .text:00000000000009d0 .L34
     /tmp/ccRsVzN4.s:985    .text:00000000000009b8 .L32
     /tmp/ccRsVzN4.s:1075   .text:0000000000000a30 .L37
     /tmp/ccRsVzN4.s:1065   .text:0000000000000a24 .L39
     /tmp/ccRsVzN4.s:1123   .text:0000000000000a64 .L42
     /tmp/ccRsVzN4.s:1107   .text:0000000000000a50 .L43
     /tmp/ccRsVzN4.s:1172   .text:0000000000000aa0 .L47
     /tmp/ccRsVzN4.s:1162   .text:0000000000000a94 .L46
     /tmp/ccRsVzN4.s:6472   .debug_abbrev:0000000000000000 .Ldebug_abbrev0
     /tmp/ccRsVzN4.s:8985   .debug_str:0000000000000ee8 .LASF509
     /tmp/ccRsVzN4.s:9483   .debug_str:0000000000001e6c .LASF510
     /tmp/ccRsVzN4.s:9293   .debug_str:00000000000018f1 .LASF511
     /tmp/ccRsVzN4.s:8      .text:0000000000000000 .Ltext0
     /tmp/ccRsVzN4.s:1280   .text:0000000000000aa8 .Letext0
     /tmp/ccRsVzN4.s:8511   .debug_line:0000000000000000 .Ldebug_line0
     /tmp/ccRsVzN4.s:9323   .debug_str:00000000000019c6 .LASF0
     /tmp/ccRsVzN4.s:8585   .debug_str:00000000000001e2 .LASF1
     /tmp/ccRsVzN4.s:9471   .debug_str:0000000000001e1e .LASF2
     /tmp/ccRsVzN4.s:9461   .debug_str:0000000000001dc5 .LASF4
     /tmp/ccRsVzN4.s:9365   .debug_str:0000000000001af8 .LASF3
     /tmp/ccRsVzN4.s:9309   .debug_str:0000000000001962 .LASF5
     /tmp/ccRsVzN4.s:8825   .debug_str:00000000000009c4 .LASF6
GAS LISTING /tmp/ccRsVzN4.s 			page 50


     /tmp/ccRsVzN4.s:8979   .debug_str:0000000000000ebc .LASF7
     /tmp/ccRsVzN4.s:8939   .debug_str:0000000000000d52 .LASF8
     /tmp/ccRsVzN4.s:9223   .debug_str:000000000000170f .LASF9
     /tmp/ccRsVzN4.s:8633   .debug_str:0000000000000346 .LASF10
     /tmp/ccRsVzN4.s:9445   .debug_str:0000000000001d48 .LASF11
     /tmp/ccRsVzN4.s:8835   .debug_str:00000000000009f1 .LASF12
     /tmp/ccRsVzN4.s:8697   .debug_str:0000000000000554 .LASF13
     /tmp/ccRsVzN4.s:8983   .debug_str:0000000000000ed8 .LASF14
     /tmp/ccRsVzN4.s:8847   .debug_str:0000000000000a39 .LASF15
     /tmp/ccRsVzN4.s:9289   .debug_str:00000000000018e0 .LASF16
     /tmp/ccRsVzN4.s:8853   .debug_str:0000000000000a62 .LASF17
     /tmp/ccRsVzN4.s:8779   .debug_str:000000000000084a .LASF18
     /tmp/ccRsVzN4.s:9527   .debug_str:0000000000002048 .LASF73
     /tmp/ccRsVzN4.s:8587   .debug_str:00000000000001ef .LASF19
     /tmp/ccRsVzN4.s:8647   .debug_str:00000000000003ae .LASF20
     /tmp/ccRsVzN4.s:8897   .debug_str:0000000000000bc3 .LASF75
     /tmp/ccRsVzN4.s:9251   .debug_str:00000000000017df .LASF26
     /tmp/ccRsVzN4.s:8887   .debug_str:0000000000000b90 .LASF207
     /tmp/ccRsVzN4.s:8595   .debug_str:0000000000000220 .LASF21
     /tmp/ccRsVzN4.s:9383   .debug_str:0000000000001b8f .LASF22
     /tmp/ccRsVzN4.s:9505   .debug_str:0000000000001f62 .LASF23
     /tmp/ccRsVzN4.s:8555   .debug_str:000000000000012c .LASF24
     /tmp/ccRsVzN4.s:9025   .debug_str:00000000000010c9 .LASF25
     /tmp/ccRsVzN4.s:8763   .debug_str:00000000000007a2 .LASF33
     /tmp/ccRsVzN4.s:8653   .debug_str:00000000000003dc .LASF28
     /tmp/ccRsVzN4.s:8807   .debug_str:000000000000094f .LASF27
     /tmp/ccRsVzN4.s:9375   .debug_str:0000000000001b44 .LASF29
     /tmp/ccRsVzN4.s:9159   .debug_str:0000000000001546 .LASF30
     /tmp/ccRsVzN4.s:9177   .debug_str:00000000000015d6 .LASF31
     /tmp/ccRsVzN4.s:9153   .debug_str:000000000000151c .LASF43
     /tmp/ccRsVzN4.s:8863   .debug_str:0000000000000add .LASF45
     /tmp/ccRsVzN4.s:8877   .debug_str:0000000000000b4a .LASF32
     /tmp/ccRsVzN4.s:8917   .debug_str:0000000000000c9c .LASF34
     /tmp/ccRsVzN4.s:8947   .debug_str:0000000000000d93 .LASF35
     /tmp/ccRsVzN4.s:9129   .debug_str:0000000000001432 .LASF36
     /tmp/ccRsVzN4.s:9155   .debug_str:000000000000152c .LASF37
     /tmp/ccRsVzN4.s:9051   .debug_str:000000000000118a .LASF38
     /tmp/ccRsVzN4.s:9371   .debug_str:0000000000001b32 .LASF39
     /tmp/ccRsVzN4.s:9141   .debug_str:00000000000014a8 .LASF40
     /tmp/ccRsVzN4.s:9099   .debug_str:0000000000001339 .LASF41
     /tmp/ccRsVzN4.s:9049   .debug_str:000000000000116b .LASF42
     /tmp/ccRsVzN4.s:9439   .debug_str:0000000000001d2d .LASF44
     /tmp/ccRsVzN4.s:9133   .debug_str:0000000000001459 .LASF46
     /tmp/ccRsVzN4.s:8545   .debug_str:00000000000000df .LASF47
     /tmp/ccRsVzN4.s:9135   .debug_str:000000000000147b .LASF48
     /tmp/ccRsVzN4.s:9297   .debug_str:0000000000001924 .LASF49
     /tmp/ccRsVzN4.s:8637   .debug_str:0000000000000369 .LASF50
     /tmp/ccRsVzN4.s:9355   .debug_str:0000000000001acd .LASF51
     /tmp/ccRsVzN4.s:9363   .debug_str:0000000000001af3 .LASF52
     /tmp/ccRsVzN4.s:9103   .debug_str:0000000000001356 .LASF53
     /tmp/ccRsVzN4.s:9083   .debug_str:00000000000012bc .LASF54
     /tmp/ccRsVzN4.s:9335   .debug_str:0000000000001a1f .LASF55
     /tmp/ccRsVzN4.s:9257   .debug_str:00000000000017fd .LASF56
     /tmp/ccRsVzN4.s:8597   .debug_str:0000000000000225 .LASF57
     /tmp/ccRsVzN4.s:9213   .debug_str:00000000000016e7 .LASF58
     /tmp/ccRsVzN4.s:9407   .debug_str:0000000000001c4e .LASF59
     /tmp/ccRsVzN4.s:9127   .debug_str:000000000000140c .LASF60
GAS LISTING /tmp/ccRsVzN4.s 			page 51


     /tmp/ccRsVzN4.s:9109   .debug_str:0000000000001370 .LASF61
     /tmp/ccRsVzN4.s:9283   .debug_str:00000000000018a0 .LASF62
     /tmp/ccRsVzN4.s:8867   .debug_str:0000000000000b03 .LASF63
     /tmp/ccRsVzN4.s:8649   .debug_str:00000000000003b3 .LASF64
     /tmp/ccRsVzN4.s:9333   .debug_str:0000000000001a11 .LASF65
     /tmp/ccRsVzN4.s:8859   .debug_str:0000000000000aac .LASF66
     /tmp/ccRsVzN4.s:9457   .debug_str:0000000000001da7 .LASF67
     /tmp/ccRsVzN4.s:8771   .debug_str:00000000000007ea .LASF68
     /tmp/ccRsVzN4.s:9417   .debug_str:0000000000001c7b .LASF69
     /tmp/ccRsVzN4.s:8855   .debug_str:0000000000000a78 .LASF70
     /tmp/ccRsVzN4.s:8989   .debug_str:0000000000000fcc .LASF71
     /tmp/ccRsVzN4.s:9143   .debug_str:00000000000014c5 .LASF72
     /tmp/ccRsVzN4.s:9387   .debug_str:0000000000001ba9 .LASF74
     /tmp/ccRsVzN4.s:9489   .debug_str:0000000000001eb5 .LASF76
     /tmp/ccRsVzN4.s:8929   .debug_str:0000000000000cee .LASF77
     /tmp/ccRsVzN4.s:9291   .debug_str:00000000000018ec .LASF78
     /tmp/ccRsVzN4.s:9553   .debug_str:0000000000002129 .LASF152
     /tmp/ccRsVzN4.s:9215   .debug_str:00000000000016ec .LASF79
     /tmp/ccRsVzN4.s:8619   .debug_str:00000000000002d8 .LASF80
     /tmp/ccRsVzN4.s:9059   .debug_str:00000000000011df .LASF81
     /tmp/ccRsVzN4.s:9311   .debug_str:0000000000001969 .LASF82
     /tmp/ccRsVzN4.s:8713   .debug_str:00000000000005e0 .LASF83
     /tmp/ccRsVzN4.s:9065   .debug_str:00000000000011ff .LASF84
     /tmp/ccRsVzN4.s:9543   .debug_str:00000000000020d6 .LASF85
     /tmp/ccRsVzN4.s:9501   .debug_str:0000000000001f48 .LASF86
     /tmp/ccRsVzN4.s:9199   .debug_str:000000000000168f .LASF87
     /tmp/ccRsVzN4.s:8967   .debug_str:0000000000000e51 .LASF88
     /tmp/ccRsVzN4.s:8829   .debug_str:00000000000009d4 .LASF89
     /tmp/ccRsVzN4.s:9157   .debug_str:0000000000001533 .LASF90
     /tmp/ccRsVzN4.s:8741   .debug_str:00000000000006c2 .LASF91
     /tmp/ccRsVzN4.s:9081   .debug_str:00000000000012b2 .LASF121
     /tmp/ccRsVzN4.s:8695   .debug_str:0000000000000544 .LASF123
     /tmp/ccRsVzN4.s:8521   .debug_str:0000000000000037 .LASF92
     /tmp/ccRsVzN4.s:9531   .debug_str:000000000000205d .LASF93
     /tmp/ccRsVzN4.s:9217   .debug_str:00000000000016f3 .LASF94
     /tmp/ccRsVzN4.s:9171   .debug_str:00000000000015aa .LASF95
     /tmp/ccRsVzN4.s:8529   .debug_str:000000000000005f .LASF96
     /tmp/ccRsVzN4.s:9535   .debug_str:000000000000209b .LASF97
     /tmp/ccRsVzN4.s:8875   .debug_str:0000000000000b45 .LASF98
     /tmp/ccRsVzN4.s:8707   .debug_str:00000000000005a6 .LASF99
     /tmp/ccRsVzN4.s:8639   .debug_str:000000000000036f .LASF100
     /tmp/ccRsVzN4.s:8751   .debug_str:0000000000000731 .LASF101
     /tmp/ccRsVzN4.s:8893   .debug_str:0000000000000bb2 .LASF102
     /tmp/ccRsVzN4.s:8973   .debug_str:0000000000000e82 .LASF103
     /tmp/ccRsVzN4.s:9281   .debug_str:000000000000189b .LASF104
     /tmp/ccRsVzN4.s:8701   .debug_str:0000000000000585 .LASF105
     /tmp/ccRsVzN4.s:9085   .debug_str:00000000000012c6 .LASF106
     /tmp/ccRsVzN4.s:9409   .debug_str:0000000000001c58 .LASF107
     /tmp/ccRsVzN4.s:9521   .debug_str:0000000000002015 .LASF108
     /tmp/ccRsVzN4.s:9317   .debug_str:00000000000019a4 .LASF109
     /tmp/ccRsVzN4.s:9131   .debug_str:000000000000144f .LASF110
     /tmp/ccRsVzN4.s:9037   .debug_str:0000000000001125 .LASF111
     /tmp/ccRsVzN4.s:8513   .debug_str:0000000000000000 .LASF112
     /tmp/ccRsVzN4.s:8533   .debug_str:0000000000000075 .LASF139
     /tmp/ccRsVzN4.s:8659   .debug_str:000000000000042f .LASF113
     /tmp/ccRsVzN4.s:9151   .debug_str:000000000000150a .LASF114
     /tmp/ccRsVzN4.s:9533   .debug_str:0000000000002070 .LASF115
GAS LISTING /tmp/ccRsVzN4.s 			page 52


     /tmp/ccRsVzN4.s:9399   .debug_str:0000000000001c06 .LASF116
     /tmp/ccRsVzN4.s:8901   .debug_str:0000000000000be3 .LASF117
     /tmp/ccRsVzN4.s:8999   .debug_str:000000000000100a .LASF118
     /tmp/ccRsVzN4.s:9079   .debug_str:000000000000127f .LASF119
     /tmp/ccRsVzN4.s:9523   .debug_str:0000000000002025 .LASF120
     /tmp/ccRsVzN4.s:9107   .debug_str:0000000000001365 .LASF122
     /tmp/ccRsVzN4.s:9315   .debug_str:0000000000001988 .LASF124
     /tmp/ccRsVzN4.s:8941   .debug_str:0000000000000d65 .LASF125
     /tmp/ccRsVzN4.s:8679   .debug_str:00000000000004c8 .LASF126
     /tmp/ccRsVzN4.s:8607   .debug_str:000000000000025e .LASF127
     /tmp/ccRsVzN4.s:8841   .debug_str:0000000000000a12 .LASF128
     /tmp/ccRsVzN4.s:8963   .debug_str:0000000000000e21 .LASF129
     /tmp/ccRsVzN4.s:8627   .debug_str:000000000000031d .LASF142
     /tmp/ccRsVzN4.s:9513   .debug_str:0000000000001fa7 .LASF144
     /tmp/ccRsVzN4.s:8525   .debug_str:000000000000004f .LASF130
     /tmp/ccRsVzN4.s:9169   .debug_str:0000000000001589 .LASF131
     /tmp/ccRsVzN4.s:8537   .debug_str:0000000000000098 .LASF132
     /tmp/ccRsVzN4.s:8641   .debug_str:000000000000037a .LASF133
     /tmp/ccRsVzN4.s:9279   .debug_str:0000000000001890 .LASF134
     /tmp/ccRsVzN4.s:9193   .debug_str:000000000000165e .LASF135
     /tmp/ccRsVzN4.s:9057   .debug_str:00000000000011d0 .LASF136
     /tmp/ccRsVzN4.s:9337   .debug_str:0000000000001a29 .LASF137
     /tmp/ccRsVzN4.s:8631   .debug_str:000000000000033e .LASF138
     /tmp/ccRsVzN4.s:8539   .debug_str:00000000000000a1 .LASF140
     /tmp/ccRsVzN4.s:8531   .debug_str:0000000000000064 .LASF141
     /tmp/ccRsVzN4.s:8755   .debug_str:0000000000000760 .LASF148
     /tmp/ccRsVzN4.s:8843   .debug_str:0000000000000a1d .LASF143
     /tmp/ccRsVzN4.s:8873   .debug_str:0000000000000b28 .LASF145
     /tmp/ccRsVzN4.s:9515   .debug_str:0000000000001fcb .LASF146
     /tmp/ccRsVzN4.s:8657   .debug_str:0000000000000426 .LASF147
     /tmp/ccRsVzN4.s:8655   .debug_str:000000000000040f .LASF149
     /tmp/ccRsVzN4.s:9393   .debug_str:0000000000001bd4 .LASF150
     /tmp/ccRsVzN4.s:9385   .debug_str:0000000000001b98 .LASF151
     /tmp/ccRsVzN4.s:8721   .debug_str:0000000000000641 .LASF153
     /tmp/ccRsVzN4.s:9007   .debug_str:0000000000001040 .LASF154
     /tmp/ccRsVzN4.s:9119   .debug_str:00000000000013c0 .LASF155
     /tmp/ccRsVzN4.s:9029   .debug_str:00000000000010d9 .LASF156
     /tmp/ccRsVzN4.s:9271   .debug_str:0000000000001845 .LASF157
     /tmp/ccRsVzN4.s:8543   .debug_str:00000000000000d4 .LASF158
     /tmp/ccRsVzN4.s:9321   .debug_str:00000000000019af .LASF159
     /tmp/ccRsVzN4.s:8523   .debug_str:000000000000003f .LASF160
     /tmp/ccRsVzN4.s:8563   .debug_str:0000000000000152 .LASF161
     /tmp/ccRsVzN4.s:8673   .debug_str:000000000000049c .LASF162
     /tmp/ccRsVzN4.s:8769   .debug_str:00000000000007d7 .LASF163
     /tmp/ccRsVzN4.s:8753   .debug_str:0000000000000748 .LASF164
     /tmp/ccRsVzN4.s:8933   .debug_str:0000000000000cfa .LASF165
     /tmp/ccRsVzN4.s:9191   .debug_str:0000000000001645 .LASF166
     /tmp/ccRsVzN4.s:8715   .debug_str:00000000000005eb .LASF167
     /tmp/ccRsVzN4.s:8645   .debug_str:00000000000003a1 .LASF168
     /tmp/ccRsVzN4.s:8549   .debug_str:00000000000000ee .LASF169
     /tmp/ccRsVzN4.s:8861   .debug_str:0000000000000acf .LASF170
     /tmp/ccRsVzN4.s:9499   .debug_str:0000000000001f17 .LASF171
     /tmp/ccRsVzN4.s:8915   .debug_str:0000000000000c7a .LASF172
     /tmp/ccRsVzN4.s:9301   .debug_str:0000000000001933 .LASF173
     /tmp/ccRsVzN4.s:9455   .debug_str:0000000000001d85 .LASF174
     /tmp/ccRsVzN4.s:9373   .debug_str:0000000000001b3c .LASF175
     /tmp/ccRsVzN4.s:9405   .debug_str:0000000000001c31 .LASF176
GAS LISTING /tmp/ccRsVzN4.s 			page 53


     /tmp/ccRsVzN4.s:9093   .debug_str:0000000000001315 .LASF177
     /tmp/ccRsVzN4.s:8817   .debug_str:0000000000000992 .LASF178
     /tmp/ccRsVzN4.s:9205   .debug_str:00000000000016c0 .LASF179
     /tmp/ccRsVzN4.s:8601   .debug_str:0000000000000234 .LASF180
     /tmp/ccRsVzN4.s:9391   .debug_str:0000000000001bcf .LASF181
     /tmp/ccRsVzN4.s:8617   .debug_str:00000000000002d1 .LASF182
     /tmp/ccRsVzN4.s:9403   .debug_str:0000000000001c2b .LASF183
     /tmp/ccRsVzN4.s:8669   .debug_str:000000000000047a .LASF184
     /tmp/ccRsVzN4.s:9137   .debug_str:0000000000001498 .LASF185
     /tmp/ccRsVzN4.s:8589   .debug_str:00000000000001f4 .LASF186
     /tmp/ccRsVzN4.s:8869   .debug_str:0000000000000b12 .LASF187
     /tmp/ccRsVzN4.s:8971   .debug_str:0000000000000e70 .LASF188
     /tmp/ccRsVzN4.s:8613   .debug_str:00000000000002a9 .LASF189
     /tmp/ccRsVzN4.s:9243   .debug_str:00000000000017a4 .LASF190
     /tmp/ccRsVzN4.s:9235   .debug_str:000000000000175b .LASF191
     /tmp/ccRsVzN4.s:8731   .debug_str:0000000000000680 .LASF192
     /tmp/ccRsVzN4.s:8737   .debug_str:00000000000006af .LASF193
     /tmp/ccRsVzN4.s:8975   .debug_str:0000000000000e97 .LASF194
     /tmp/ccRsVzN4.s:8551   .debug_str:000000000000011d .LASF195
     /tmp/ccRsVzN4.s:9187   .debug_str:0000000000001622 .LASF196
     /tmp/ccRsVzN4.s:9231   .debug_str:0000000000001741 .LASF454
     /tmp/ccRsVzN4.s:9253   .debug_str:00000000000017eb .LASF197
     /tmp/ccRsVzN4.s:9493   .debug_str:0000000000001ee0 .LASF198
     /tmp/ccRsVzN4.s:8705   .debug_str:000000000000059b .LASF199
     /tmp/ccRsVzN4.s:9389   .debug_str:0000000000001bb4 .LASF200
     /tmp/ccRsVzN4.s:8839   .debug_str:0000000000000a05 .LASF201
     /tmp/ccRsVzN4.s:8541   .debug_str:00000000000000a9 .LASF202
     /tmp/ccRsVzN4.s:9449   .debug_str:0000000000001d63 .LASF203
     /tmp/ccRsVzN4.s:8801   .debug_str:000000000000091c .LASF204
     /tmp/ccRsVzN4.s:9233   .debug_str:0000000000001754 .LASF205
     /tmp/ccRsVzN4.s:9397   .debug_str:0000000000001bf0 .LASF206
     /tmp/ccRsVzN4.s:9039   .debug_str:000000000000112f .LASF208
     /tmp/ccRsVzN4.s:9479   .debug_str:0000000000001e52 .LASF209
     /tmp/ccRsVzN4.s:9043   .debug_str:000000000000113d .LASF210
     /tmp/ccRsVzN4.s:8927   .debug_str:0000000000000ce5 .LASF211
     /tmp/ccRsVzN4.s:9547   .debug_str:00000000000020f8 .LASF212
     /tmp/ccRsVzN4.s:8969   .debug_str:0000000000000e66 .LASF213
     /tmp/ccRsVzN4.s:9219   .debug_str:00000000000016fb .LASF512
     /tmp/ccRsVzN4.s:8899   .debug_str:0000000000000bd7 .LASF214
     /tmp/ccRsVzN4.s:9201   .debug_str:0000000000001699 .LASF215
     /tmp/ccRsVzN4.s:8603   .debug_str:0000000000000239 .LASF216
     /tmp/ccRsVzN4.s:9287   .debug_str:00000000000018d3 .LASF217
     /tmp/ccRsVzN4.s:9491   .debug_str:0000000000001edb .LASF218
     /tmp/ccRsVzN4.s:8565   .debug_str:0000000000000169 .LASF219
     /tmp/ccRsVzN4.s:9263   .debug_str:0000000000001812 .LASF220
     /tmp/ccRsVzN4.s:8935   .debug_str:0000000000000d11 .LASF221
     /tmp/ccRsVzN4.s:9175   .debug_str:00000000000015cd .LASF222
     /tmp/ccRsVzN4.s:9487   .debug_str:0000000000001ea1 .LASF223
     /tmp/ccRsVzN4.s:8925   .debug_str:0000000000000cde .LASF224
     /tmp/ccRsVzN4.s:8517   .debug_str:0000000000000012 .LASF225
     /tmp/ccRsVzN4.s:8923   .debug_str:0000000000000cd3 .LASF226
     /tmp/ccRsVzN4.s:8569   .debug_str:0000000000000190 .LASF227
     /tmp/ccRsVzN4.s:8661   .debug_str:0000000000000448 .LASF228
     /tmp/ccRsVzN4.s:9005   .debug_str:0000000000001027 .LASF229
     /tmp/ccRsVzN4.s:8995   .debug_str:0000000000000ff6 .LASF230
     /tmp/ccRsVzN4.s:9341   .debug_str:0000000000001a5d .LASF231
     /tmp/ccRsVzN4.s:9123   .debug_str:00000000000013e0 .LASF232
GAS LISTING /tmp/ccRsVzN4.s 			page 54


     /tmp/ccRsVzN4.s:9465   .debug_str:0000000000001de5 .LASF233
     /tmp/ccRsVzN4.s:9185   .debug_str:0000000000001612 .LASF234
     /tmp/ccRsVzN4.s:8799   .debug_str:0000000000000901 .LASF235
     /tmp/ccRsVzN4.s:9013   .debug_str:0000000000001069 .LASF236
     /tmp/ccRsVzN4.s:8681   .debug_str:00000000000004db .LASF237
     /tmp/ccRsVzN4.s:8795   .debug_str:00000000000008e6 .LASF238
     /tmp/ccRsVzN4.s:9089   .debug_str:00000000000012e1 .LASF239
     /tmp/ccRsVzN4.s:8871   .debug_str:0000000000000b23 .LASF513
     /tmp/ccRsVzN4.s:9017   .debug_str:0000000000001091 .LASF240
     /tmp/ccRsVzN4.s:8773   .debug_str:0000000000000815 .LASF241
     /tmp/ccRsVzN4.s:9001   .debug_str:0000000000001018 .LASF242
     /tmp/ccRsVzN4.s:9377   .debug_str:0000000000001b59 .LASF243
     /tmp/ccRsVzN4.s:9265   .debug_str:000000000000181b .LASF244
     /tmp/ccRsVzN4.s:9379   .debug_str:0000000000001b6c .LASF245
     /tmp/ccRsVzN4.s:9415   .debug_str:0000000000001c75 .LASF246
     /tmp/ccRsVzN4.s:9009   .debug_str:0000000000001051 .LASF247
     /tmp/ccRsVzN4.s:8959   .debug_str:0000000000000df4 .LASF248
     /tmp/ccRsVzN4.s:8937   .debug_str:0000000000000d30 .LASF249
     /tmp/ccRsVzN4.s:8599   .debug_str:000000000000022a .LASF250
     /tmp/ccRsVzN4.s:9467   .debug_str:0000000000001dfe .LASF251
     /tmp/ccRsVzN4.s:8831   .debug_str:00000000000009dc .LASF252
     /tmp/ccRsVzN4.s:9327   .debug_str:00000000000019de .LASF253
     /tmp/ccRsVzN4.s:8889   .debug_str:0000000000000b9d .LASF254
     /tmp/ccRsVzN4.s:8535   .debug_str:000000000000007f .LASF255
     /tmp/ccRsVzN4.s:8991   .debug_str:0000000000000fda .LASF256
     /tmp/ccRsVzN4.s:9259   .debug_str:0000000000001802 .LASF257
     /tmp/ccRsVzN4.s:8977   .debug_str:0000000000000eb1 .LASF258
     /tmp/ccRsVzN4.s:9447   .debug_str:0000000000001d56 .LASF259
     /tmp/ccRsVzN4.s:9339   .debug_str:0000000000001a50 .LASF260
     /tmp/ccRsVzN4.s:9507   .debug_str:0000000000001f6c .LASF261
     /tmp/ccRsVzN4.s:9349   .debug_str:0000000000001a95 .LASF262
     /tmp/ccRsVzN4.s:9441   .debug_str:0000000000001d3a .LASF263
     /tmp/ccRsVzN4.s:9305   .debug_str:0000000000001952 .LASF264
     /tmp/ccRsVzN4.s:8557   .debug_str:0000000000000134 .LASF265
     /tmp/ccRsVzN4.s:9419   .debug_str:0000000000001c8d .LASF266
     /tmp/ccRsVzN4.s:9149   .debug_str:00000000000014fe .LASF267
     /tmp/ccRsVzN4.s:8903   .debug_str:0000000000000c18 .LASF268
     /tmp/ccRsVzN4.s:8581   .debug_str:00000000000001d6 .LASF269
     /tmp/ccRsVzN4.s:9229   .debug_str:0000000000001739 .LASF270
     /tmp/ccRsVzN4.s:8711   .debug_str:00000000000005c9 .LASF393
     /tmp/ccRsVzN4.s:9529   .debug_str:000000000000204f .LASF273
     /tmp/ccRsVzN4.s:8767   .debug_str:00000000000007be .LASF275
     /tmp/ccRsVzN4.s:9429   .debug_str:0000000000001ce4 .LASF271
     /tmp/ccRsVzN4.s:8745   .debug_str:00000000000006db .LASF272
     /tmp/ccRsVzN4.s:8591   .debug_str:0000000000000205 .LASF274
     /tmp/ccRsVzN4.s:9277   .debug_str:000000000000187c .LASF276
     /tmp/ccRsVzN4.s:8675   .debug_str:00000000000004b4 .LASF277
     /tmp/ccRsVzN4.s:8951   .debug_str:0000000000000db7 .LASF278
     /tmp/ccRsVzN4.s:9437   .debug_str:0000000000001d21 .LASF279
     /tmp/ccRsVzN4.s:8571   .debug_str:00000000000001a6 .LASF280
     /tmp/ccRsVzN4.s:8879   .debug_str:0000000000000b54 .LASF281
     /tmp/ccRsVzN4.s:8743   .debug_str:00000000000006cf .LASF282
     /tmp/ccRsVzN4.s:8685   .debug_str:0000000000000506 .LASF283
     /tmp/ccRsVzN4.s:8629   .debug_str:0000000000000329 .LASF284
     /tmp/ccRsVzN4.s:9381   .debug_str:0000000000001b86 .LASF285
     /tmp/ccRsVzN4.s:9435   .debug_str:0000000000001d0c .LASF286
     /tmp/ccRsVzN4.s:8819   .debug_str:00000000000009ae .LASF287
GAS LISTING /tmp/ccRsVzN4.s 			page 55


     /tmp/ccRsVzN4.s:8621   .debug_str:00000000000002e5 .LASF288
     /tmp/ccRsVzN4.s:8723   .debug_str:0000000000000652 .LASF289
     /tmp/ccRsVzN4.s:8761   .debug_str:000000000000078f .LASF290
     /tmp/ccRsVzN4.s:8577   .debug_str:00000000000001c9 .LASF291
     /tmp/ccRsVzN4.s:9343   .debug_str:0000000000001a74 .LASF292
     /tmp/ccRsVzN4.s:9073   .debug_str:0000000000001254 .LASF293
     /tmp/ccRsVzN4.s:8667   .debug_str:0000000000000466 .LASF294
     /tmp/ccRsVzN4.s:9477   .debug_str:0000000000001e4a .LASF295
     /tmp/ccRsVzN4.s:9285   .debug_str:00000000000018bf .LASF296
     /tmp/ccRsVzN4.s:9011   .debug_str:0000000000001061 .LASF297
     /tmp/ccRsVzN4.s:8957   .debug_str:0000000000000de0 .LASF298
     /tmp/ccRsVzN4.s:8857   .debug_str:0000000000000aa4 .LASF299
     /tmp/ccRsVzN4.s:8519   .debug_str:0000000000000023 .LASF300
     /tmp/ccRsVzN4.s:8515   .debug_str:000000000000000b .LASF301
     /tmp/ccRsVzN4.s:9549   .debug_str:0000000000002101 .LASF302
     /tmp/ccRsVzN4.s:9473   .debug_str:0000000000001e31 .LASF303
     /tmp/ccRsVzN4.s:8709   .debug_str:00000000000005b6 .LASF304
     /tmp/ccRsVzN4.s:9503   .debug_str:0000000000001f5b .LASF305
     /tmp/ccRsVzN4.s:9113   .debug_str:0000000000001390 .LASF306
     /tmp/ccRsVzN4.s:8943   .debug_str:0000000000000d81 .LASF307
     /tmp/ccRsVzN4.s:9361   .debug_str:0000000000001ae0 .LASF308
     /tmp/ccRsVzN4.s:9325   .debug_str:00000000000019d8 .LASF309
     /tmp/ccRsVzN4.s:9183   .debug_str:0000000000001600 .LASF310
     /tmp/ccRsVzN4.s:9061   .debug_str:00000000000011e5 .LASF311
     /tmp/ccRsVzN4.s:9497   .debug_str:0000000000001f05 .LASF312
     /tmp/ccRsVzN4.s:9367   .debug_str:0000000000001b06 .LASF313
     /tmp/ccRsVzN4.s:9303   .debug_str:000000000000193f .LASF314
     /tmp/ccRsVzN4.s:8931   .debug_str:0000000000000cf3 .LASF315
     /tmp/ccRsVzN4.s:8717   .debug_str:0000000000000605 .LASF316
     /tmp/ccRsVzN4.s:9319   .debug_str:00000000000019a9 .LASF317
     /tmp/ccRsVzN4.s:8777   .debug_str:0000000000000838 .LASF318
     /tmp/ccRsVzN4.s:9053   .debug_str:00000000000011a4 .LASF319
     /tmp/ccRsVzN4.s:9101   .debug_str:0000000000001344 .LASF320
     /tmp/ccRsVzN4.s:9245   .debug_str:00000000000017b5 .LASF321
     /tmp/ccRsVzN4.s:9517   .debug_str:0000000000001fe3 .LASF322
     /tmp/ccRsVzN4.s:8623   .debug_str:00000000000002f8 .LASF323
     /tmp/ccRsVzN4.s:9239   .debug_str:0000000000001780 .LASF324
     /tmp/ccRsVzN4.s:9307   .debug_str:0000000000001958 .LASF325
     /tmp/ccRsVzN4.s:8961   .debug_str:0000000000000e0b .LASF326
     /tmp/ccRsVzN4.s:9299   .debug_str:0000000000001929 .LASF327
     /tmp/ccRsVzN4.s:8789   .debug_str:00000000000008a8 .LASF328
     /tmp/ccRsVzN4.s:9069   .debug_str:0000000000001229 .LASF329
     /tmp/ccRsVzN4.s:8909   .debug_str:0000000000000c3d .LASF330
     /tmp/ccRsVzN4.s:8573   .debug_str:00000000000001b3 .LASF331
     /tmp/ccRsVzN4.s:9329   .debug_str:00000000000019fa .LASF332
     /tmp/ccRsVzN4.s:9451   .debug_str:0000000000001d6f .LASF333
     /tmp/ccRsVzN4.s:8593   .debug_str:000000000000020f .LASF334
     /tmp/ccRsVzN4.s:8833   .debug_str:00000000000009ec .LASF335
     /tmp/ccRsVzN4.s:8683   .debug_str:00000000000004f5 .LASF336
     /tmp/ccRsVzN4.s:8579   .debug_str:00000000000001d1 .LASF337
     /tmp/ccRsVzN4.s:9121   .debug_str:00000000000013cf .LASF338
     /tmp/ccRsVzN4.s:8837   .debug_str:0000000000000a00 .LASF339
     /tmp/ccRsVzN4.s:8953   .debug_str:0000000000000dc6 .LASF340
     /tmp/ccRsVzN4.s:8583   .debug_str:00000000000001dd .LASF341
     /tmp/ccRsVzN4.s:8725   .debug_str:0000000000000659 .LASF342
     /tmp/ccRsVzN4.s:8965   .debug_str:0000000000000e44 .LASF343
     /tmp/ccRsVzN4.s:9313   .debug_str:000000000000196e .LASF344
GAS LISTING /tmp/ccRsVzN4.s 			page 56


     /tmp/ccRsVzN4.s:8677   .debug_str:00000000000004ba .LASF345
     /tmp/ccRsVzN4.s:9047   .debug_str:0000000000001150 .LASF346
     /tmp/ccRsVzN4.s:9227   .debug_str:000000000000172e .LASF347
     /tmp/ccRsVzN4.s:9423   .debug_str:0000000000001cac .LASF348
     /tmp/ccRsVzN4.s:8689   .debug_str:0000000000000523 .LASF349
     /tmp/ccRsVzN4.s:8913   .debug_str:0000000000000c62 .LASF350
     /tmp/ccRsVzN4.s:9211   .debug_str:00000000000016d9 .LASF351
     /tmp/ccRsVzN4.s:8567   .debug_str:0000000000000175 .LASF352
     /tmp/ccRsVzN4.s:9161   .debug_str:0000000000001553 .LASF353
     /tmp/ccRsVzN4.s:8987   .debug_str:0000000000000fb8 .LASF354
     /tmp/ccRsVzN4.s:8687   .debug_str:000000000000050f .LASF355
     /tmp/ccRsVzN4.s:8981   .debug_str:0000000000000ec3 .LASF356
     /tmp/ccRsVzN4.s:9111   .debug_str:000000000000137b .LASF357
     /tmp/ccRsVzN4.s:9063   .debug_str:00000000000011eb .LASF358
     /tmp/ccRsVzN4.s:9041   .debug_str:0000000000001138 .LASF359
     /tmp/ccRsVzN4.s:9033   .debug_str:0000000000001101 .LASF360
     /tmp/ccRsVzN4.s:8561   .debug_str:000000000000014b .LASF361
     /tmp/ccRsVzN4.s:8747   .debug_str:0000000000000703 .LASF362
     /tmp/ccRsVzN4.s:9261   .debug_str:000000000000180a .LASF363
     /tmp/ccRsVzN4.s:9463   .debug_str:0000000000001dcb .LASF364
     /tmp/ccRsVzN4.s:8527   .debug_str:0000000000000059 .LASF365
     /tmp/ccRsVzN4.s:9247   .debug_str:00000000000017c0 .LASF366
     /tmp/ccRsVzN4.s:9203   .debug_str:00000000000016a5 .LASF367
     /tmp/ccRsVzN4.s:8881   .debug_str:0000000000000b60 .LASF368
     /tmp/ccRsVzN4.s:9075   .debug_str:000000000000125c .LASF369
     /tmp/ccRsVzN4.s:9453   .debug_str:0000000000001d74 .LASF370
     /tmp/ccRsVzN4.s:8609   .debug_str:000000000000028a .LASF371
     /tmp/ccRsVzN4.s:9003   .debug_str:0000000000001021 .LASF372
     /tmp/ccRsVzN4.s:8955   .debug_str:0000000000000dd7 .LASF373
     /tmp/ccRsVzN4.s:8793   .debug_str:00000000000008e0 .LASF374
     /tmp/ccRsVzN4.s:8643   .debug_str:000000000000039b .LASF375
     /tmp/ccRsVzN4.s:8827   .debug_str:00000000000009cb .LASF376
     /tmp/ccRsVzN4.s:9087   .debug_str:00000000000012cb .LASF377
     /tmp/ccRsVzN4.s:9145   .debug_str:00000000000014e7 .LASF378
     /tmp/ccRsVzN4.s:9351   .debug_str:0000000000001a9a .LASF379
     /tmp/ccRsVzN4.s:9469   .debug_str:0000000000001e12 .LASF380
     /tmp/ccRsVzN4.s:9541   .debug_str:00000000000020bd .LASF381
     /tmp/ccRsVzN4.s:8851   .debug_str:0000000000000a52 .LASF382
     /tmp/ccRsVzN4.s:9511   .debug_str:0000000000001f8a .LASF383
     /tmp/ccRsVzN4.s:8739   .debug_str:00000000000006b6 .LASF384
     /tmp/ccRsVzN4.s:9019   .debug_str:0000000000001097 .LASF385
     /tmp/ccRsVzN4.s:9045   .debug_str:0000000000001143 .LASF386
     /tmp/ccRsVzN4.s:9545   .debug_str:00000000000020de .LASF387
     /tmp/ccRsVzN4.s:8993   .debug_str:0000000000000feb .LASF388
     /tmp/ccRsVzN4.s:9195   .debug_str:0000000000001681 .LASF389
     /tmp/ccRsVzN4.s:8553   .debug_str:0000000000000124 .LASF390
     /tmp/ccRsVzN4.s:8775   .debug_str:0000000000000825 .LASF514
     /tmp/ccRsVzN4.s:8703   .debug_str:0000000000000591 .LASF391
     /tmp/ccRsVzN4.s:8625   .debug_str:0000000000000303 .LASF392
     /tmp/ccRsVzN4.s:8911   .debug_str:0000000000000c4e .LASF515
     /tmp/ccRsVzN4.s:9353   .debug_str:0000000000001ab5 .LASF394
     /tmp/ccRsVzN4.s:9401   .debug_str:0000000000001c22 .LASF395
     /tmp/ccRsVzN4.s:9015   .debug_str:0000000000001078 .LASF396
     /tmp/ccRsVzN4.s:9241   .debug_str:0000000000001798 .LASF397
     /tmp/ccRsVzN4.s:8791   .debug_str:00000000000008be .LASF398
     /tmp/ccRsVzN4.s:9273   .debug_str:0000000000001850 .LASF399
     /tmp/ccRsVzN4.s:9167   .debug_str:000000000000156b .LASF400
GAS LISTING /tmp/ccRsVzN4.s 			page 57


     /tmp/ccRsVzN4.s:9139   .debug_str:000000000000149e .LASF401
     /tmp/ccRsVzN4.s:9237   .debug_str:0000000000001762 .LASF402
     /tmp/ccRsVzN4.s:9225   .debug_str:0000000000001722 .LASF403
     /tmp/ccRsVzN4.s:9031   .debug_str:00000000000010e4 .LASF404
     /tmp/ccRsVzN4.s:8845   .debug_str:0000000000000a2b .LASF405
     /tmp/ccRsVzN4.s:9275   .debug_str:000000000000185d .LASF406
     /tmp/ccRsVzN4.s:8759   .debug_str:0000000000000782 .LASF407
     /tmp/ccRsVzN4.s:9125   .debug_str:00000000000013ee .LASF408
     /tmp/ccRsVzN4.s:8949   .debug_str:0000000000000d9c .LASF409
     /tmp/ccRsVzN4.s:9331   .debug_str:0000000000001a0b .LASF410
     /tmp/ccRsVzN4.s:8803   .debug_str:000000000000093c .LASF411
     /tmp/ccRsVzN4.s:9067   .debug_str:000000000000121c .LASF516
     /tmp/ccRsVzN4.s:9197   .debug_str:0000000000001689 .LASF412
     /tmp/ccRsVzN4.s:9027   .debug_str:00000000000010d3 .LASF413
     /tmp/ccRsVzN4.s:9537   .debug_str:00000000000020ab .LASF414
     /tmp/ccRsVzN4.s:9021   .debug_str:00000000000010b0 .LASF415
     /tmp/ccRsVzN4.s:8997   .debug_str:0000000000001002 .LASF416
     /tmp/ccRsVzN4.s:8815   .debug_str:000000000000098d .LASF417
     /tmp/ccRsVzN4.s:9163   .debug_str:000000000000155e .LASF418
     /tmp/ccRsVzN4.s:8849   .debug_str:0000000000000a49 .LASF419
     /tmp/ccRsVzN4.s:9165   .debug_str:0000000000001565 .LASF420
     /tmp/ccRsVzN4.s:8823   .debug_str:00000000000009bb .LASF421
     /tmp/ccRsVzN4.s:8749   .debug_str:000000000000071c .LASF422
     /tmp/ccRsVzN4.s:8921   .debug_str:0000000000000cc9 .LASF423
     /tmp/ccRsVzN4.s:9055   .debug_str:00000000000011aa .LASF424
     /tmp/ccRsVzN4.s:9147   .debug_str:00000000000014f4 .LASF425
     /tmp/ccRsVzN4.s:9071   .debug_str:000000000000122e .LASF426
     /tmp/ccRsVzN4.s:9221   .debug_str:0000000000001703 .LASF427
     /tmp/ccRsVzN4.s:8719   .debug_str:0000000000000618 .LASF428
     /tmp/ccRsVzN4.s:9345   .debug_str:0000000000001a88 .LASF429
     /tmp/ccRsVzN4.s:8615   .debug_str:00000000000002bb .LASF430
     /tmp/ccRsVzN4.s:9525   .debug_str:0000000000002041 .LASF431
     /tmp/ccRsVzN4.s:8611   .debug_str:0000000000000292 .LASF432
     /tmp/ccRsVzN4.s:9209   .debug_str:00000000000016d3 .LASF433
     /tmp/ccRsVzN4.s:9551   .debug_str:0000000000002114 .LASF434
     /tmp/ccRsVzN4.s:9117   .debug_str:00000000000013b1 .LASF435
     /tmp/ccRsVzN4.s:9255   .debug_str:00000000000017f3 .LASF436
     /tmp/ccRsVzN4.s:8945   .debug_str:0000000000000d88 .LASF437
     /tmp/ccRsVzN4.s:8671   .debug_str:000000000000048f .LASF438
     /tmp/ccRsVzN4.s:8783   .debug_str:0000000000000870 .LASF439
     /tmp/ccRsVzN4.s:9485   .debug_str:0000000000001e8b .LASF440
     /tmp/ccRsVzN4.s:8885   .debug_str:0000000000000b7c .LASF441
     /tmp/ccRsVzN4.s:8865   .debug_str:0000000000000af3 .LASF442
     /tmp/ccRsVzN4.s:9295   .debug_str:0000000000001914 .LASF443
     /tmp/ccRsVzN4.s:9035   .debug_str:0000000000001118 .LASF444
     /tmp/ccRsVzN4.s:8605   .debug_str:0000000000000246 .LASF445
     /tmp/ccRsVzN4.s:9357   .debug_str:0000000000001ad5 .LASF446
     /tmp/ccRsVzN4.s:8821   .debug_str:00000000000009b5 .LASF447
     /tmp/ccRsVzN4.s:9495   .debug_str:0000000000001ef7 .LASF448
     /tmp/ccRsVzN4.s:8809   .debug_str:000000000000095c .LASF449
     /tmp/ccRsVzN4.s:9115   .debug_str:00000000000013a3 .LASF450
     /tmp/ccRsVzN4.s:9077   .debug_str:0000000000001270 .LASF451
     /tmp/ccRsVzN4.s:9269   .debug_str:0000000000001836 .LASF452
     /tmp/ccRsVzN4.s:9421   .debug_str:0000000000001c93 .LASF453
     /tmp/ccRsVzN4.s:8699   .debug_str:0000000000000563 .LASF455
     /tmp/ccRsVzN4.s:8729   .debug_str:0000000000000675 .LASF456
     /tmp/ccRsVzN4.s:8811   .debug_str:000000000000096a .LASF457
GAS LISTING /tmp/ccRsVzN4.s 			page 58


     /tmp/ccRsVzN4.s:8891   .debug_str:0000000000000bab .LASF458
     /tmp/ccRsVzN4.s:9369   .debug_str:0000000000001b0d .LASF459
     /tmp/ccRsVzN4.s:9443   .debug_str:0000000000001d3f .LASF460
     /tmp/ccRsVzN4.s:9095   .debug_str:000000000000131b .LASF461
     /tmp/ccRsVzN4.s:9189   .debug_str:0000000000001638 .LASF462
     /tmp/ccRsVzN4.s:9519   .debug_str:0000000000001ffb .LASF463
     /tmp/ccRsVzN4.s:9433   .debug_str:0000000000001cfa .LASF464
     /tmp/ccRsVzN4.s:9411   .debug_str:0000000000001c5d .LASF465
     /tmp/ccRsVzN4.s:9481   .debug_str:0000000000001e5a .LASF466
     /tmp/ccRsVzN4.s:8813   .debug_str:0000000000000982 .LASF467
     /tmp/ccRsVzN4.s:9091   .debug_str:0000000000001303 .LASF468
     /tmp/ccRsVzN4.s:9425   .debug_str:0000000000001cc4 .LASF469
     /tmp/ccRsVzN4.s:8907   .debug_str:0000000000000c2d .LASF470
     /tmp/ccRsVzN4.s:9267   .debug_str:0000000000001828 .LASF471
     /tmp/ccRsVzN4.s:9173   .debug_str:00000000000015be .LASF472
     /tmp/ccRsVzN4.s:9459   .debug_str:0000000000001db8 .LASF473
     /tmp/ccRsVzN4.s:8919   .debug_str:0000000000000cb9 .LASF474
     /tmp/ccRsVzN4.s:9395   .debug_str:0000000000001be2 .LASF475
     /tmp/ccRsVzN4.s:9475   .debug_str:0000000000001e38 .LASF476
     /tmp/ccRsVzN4.s:8691   .debug_str:000000000000052e .LASF477
     /tmp/ccRsVzN4.s:9431   .debug_str:0000000000001cf2 .LASF478
     /tmp/ccRsVzN4.s:8895   .debug_str:0000000000000bbb .LASF517
     /tmp/ccRsVzN4.s:1141   .text:0000000000000a74 .LFB123
     /tmp/ccRsVzN4.s:1179   .text:0000000000000aa8 .LFE123
     /tmp/ccRsVzN4.s:8547   .debug_str:00000000000000e8 .LASF481
     /tmp/ccRsVzN4.s:8184   .debug_loc:0000000000000000 .LLST17
     /tmp/ccRsVzN4.s:9249   .debug_str:00000000000017da .LASF479
     /tmp/ccRsVzN4.s:8733   .debug_str:000000000000069b .LASF480
     /tmp/ccRsVzN4.s:1092   .text:0000000000000a40 .LFB122
     /tmp/ccRsVzN4.s:1135   .text:0000000000000a74 .LFE122
     /tmp/ccRsVzN4.s:8209   .debug_loc:0000000000000062 .LLST15
     /tmp/ccRsVzN4.s:8220   .debug_loc:0000000000000098 .LLST16
     /tmp/ccRsVzN4.s:8905   .debug_str:0000000000000c21 .LASF482
     /tmp/ccRsVzN4.s:8575   .debug_str:00000000000001b8 .LASF483
     /tmp/ccRsVzN4.s:1050   .text:0000000000000a14 .LFB121
     /tmp/ccRsVzN4.s:1086   .text:0000000000000a40 .LFE121
     /tmp/ccRsVzN4.s:8236   .debug_loc:00000000000000e2 .LLST13
     /tmp/ccRsVzN4.s:8250   .debug_loc:000000000000011b .LLST14
     /tmp/ccRsVzN4.s:8665   .debug_str:000000000000045d .LASF484
     /tmp/ccRsVzN4.s:9413   .debug_str:0000000000001c68 .LASF485
     /tmp/ccRsVzN4.s:1017   .text:00000000000009e8 .LFB120
     /tmp/ccRsVzN4.s:1044   .text:0000000000000a14 .LFE120
     /tmp/ccRsVzN4.s:8262   .debug_loc:0000000000000152 .LLST12
     /tmp/ccRsVzN4.s:8797   .debug_str:00000000000008f3 .LASF486
     /tmp/ccRsVzN4.s:9023   .debug_str:00000000000010b6 .LASF487
     /tmp/ccRsVzN4.s:789    .text:0000000000000728 .LFB119
     /tmp/ccRsVzN4.s:1011   .text:00000000000009e8 .LFE119
     /tmp/ccRsVzN4.s:930    .text:0000000000000920 .LBB22
     /tmp/ccRsVzN4.s:934    .text:0000000000000920 .LBE22
     /tmp/ccRsVzN4.s:963    .text:000000000000097c .LBB24
     /tmp/ccRsVzN4.s:967    .text:000000000000097c .LBE24
     /tmp/ccRsVzN4.s:806    .text:000000000000074c .LVL112
     /tmp/ccRsVzN4.s:810    .text:000000000000075c .LVL113
     /tmp/ccRsVzN4.s:817    .text:0000000000000778 .LVL114
     /tmp/ccRsVzN4.s:821    .text:0000000000000788 .LVL115
     /tmp/ccRsVzN4.s:825    .text:0000000000000798 .LVL116
     /tmp/ccRsVzN4.s:832    .text:00000000000007b4 .LVL117
GAS LISTING /tmp/ccRsVzN4.s 			page 59


     /tmp/ccRsVzN4.s:836    .text:00000000000007c4 .LVL118
     /tmp/ccRsVzN4.s:840    .text:00000000000007d4 .LVL119
     /tmp/ccRsVzN4.s:847    .text:00000000000007f0 .LVL120
     /tmp/ccRsVzN4.s:851    .text:0000000000000800 .LVL121
     /tmp/ccRsVzN4.s:855    .text:0000000000000810 .LVL122
     /tmp/ccRsVzN4.s:862    .text:000000000000082c .LVL123
     /tmp/ccRsVzN4.s:866    .text:000000000000083c .LVL124
     /tmp/ccRsVzN4.s:870    .text:000000000000084c .LVL125
     /tmp/ccRsVzN4.s:877    .text:0000000000000868 .LVL126
     /tmp/ccRsVzN4.s:881    .text:0000000000000878 .LVL127
     /tmp/ccRsVzN4.s:885    .text:0000000000000888 .LVL128
     /tmp/ccRsVzN4.s:892    .text:00000000000008a4 .LVL129
     /tmp/ccRsVzN4.s:896    .text:00000000000008b4 .LVL130
     /tmp/ccRsVzN4.s:900    .text:00000000000008c4 .LVL131
     /tmp/ccRsVzN4.s:906    .text:00000000000008d8 .LVL132
     /tmp/ccRsVzN4.s:910    .text:00000000000008e8 .LVL133
     /tmp/ccRsVzN4.s:915    .text:00000000000008f8 .LVL134
     /tmp/ccRsVzN4.s:919    .text:0000000000000900 .LVL135
     /tmp/ccRsVzN4.s:924    .text:0000000000000910 .LVL136
     /tmp/ccRsVzN4.s:928    .text:0000000000000920 .LVL137
     /tmp/ccRsVzN4.s:941    .text:000000000000093c .LVL138
     /tmp/ccRsVzN4.s:945    .text:000000000000094c .LVL139
     /tmp/ccRsVzN4.s:950    .text:000000000000095c .LVL140
     /tmp/ccRsVzN4.s:954    .text:0000000000000964 .LVL141
     /tmp/ccRsVzN4.s:961    .text:000000000000097c .LVL142
     /tmp/ccRsVzN4.s:974    .text:0000000000000998 .LVL143
     /tmp/ccRsVzN4.s:978    .text:00000000000009a8 .LVL144
     /tmp/ccRsVzN4.s:983    .text:00000000000009b8 .LVL145
     /tmp/ccRsVzN4.s:1005   .text:00000000000009e0 .LVL146
     /tmp/ccRsVzN4.s:9207   .debug_str:00000000000016c9 .LASF488
     /tmp/ccRsVzN4.s:9427   .debug_str:0000000000001cd4 .LASF489
     /tmp/ccRsVzN4.s:172    .text:00000000000000c8 .LFB118
     /tmp/ccRsVzN4.s:280    .text:0000000000000184 .LFE118
     /tmp/ccRsVzN4.s:8282   .debug_loc:00000000000001a1 .LLST1
     /tmp/ccRsVzN4.s:9359   .debug_str:0000000000001adb .LASF490
     /tmp/ccRsVzN4.s:8328   .debug_loc:0000000000000254 .LLST2
     /tmp/ccRsVzN4.s:8353   .debug_loc:00000000000002b6 .LLST3
     /tmp/ccRsVzN4.s:8378   .debug_loc:0000000000000318 .LLST4
     /tmp/ccRsVzN4.s:211    .text:000000000000010c .LVL13
     /tmp/ccRsVzN4.s:259    .text:0000000000000164 .LVL22
     /tmp/ccRsVzN4.s:8727   .debug_str:000000000000066a .LASF491
     /tmp/ccRsVzN4.s:9181   .debug_str:00000000000015f0 .LASF492
     /tmp/ccRsVzN4.s:286    .text:0000000000000184 .LFB117
     /tmp/ccRsVzN4.s:783    .text:0000000000000728 .LFE117
     /tmp/ccRsVzN4.s:9347   .debug_str:0000000000001a8f .LASF493
     /tmp/ccRsVzN4.s:8395   .debug_loc:0000000000000363 .LLST5
     /tmp/ccRsVzN4.s:8785   .debug_str:000000000000087a .LASF494
     /tmp/ccRsVzN4.s:8406   .debug_loc:0000000000000399 .LLST6
     /tmp/ccRsVzN4.s:8757   .debug_str:0000000000000773 .LASF495
     /tmp/ccRsVzN4.s:8425   .debug_loc:00000000000003f5 .LLST7
     /tmp/ccRsVzN4.s:8883   .debug_str:0000000000000b6c .LASF496
     /tmp/ccRsVzN4.s:8440   .debug_loc:000000000000043e .LLST8
     /tmp/ccRsVzN4.s:8735   .debug_str:00000000000006a4 .LASF497
     /tmp/ccRsVzN4.s:8459   .debug_loc:000000000000049a .LLST9
     /tmp/ccRsVzN4.s:523    .text:00000000000004f0 .LBB14
     /tmp/ccRsVzN4.s:528    .text:00000000000004f0 .LBE14
     /tmp/ccRsVzN4.s:563    .text:000000000000055c .LBB16
GAS LISTING /tmp/ccRsVzN4.s 			page 60


     /tmp/ccRsVzN4.s:576    .text:0000000000000564 .LBE16
     /tmp/ccRsVzN4.s:8470   .debug_loc:00000000000004d0 .LLST10
     /tmp/ccRsVzN4.s:606    .text:00000000000005a8 .LBB18
     /tmp/ccRsVzN4.s:617    .text:00000000000005ac .LBE18
     /tmp/ccRsVzN4.s:706    .text:0000000000000698 .LBB20
     /tmp/ccRsVzN4.s:714    .text:000000000000069c .LBE20
     /tmp/ccRsVzN4.s:8480   .debug_loc:00000000000004f6 .LLST11
     /tmp/ccRsVzN4.s:309    .text:00000000000001b4 .LVL24
     /tmp/ccRsVzN4.s:313    .text:00000000000001c4 .LVL25
     /tmp/ccRsVzN4.s:320    .text:00000000000001e0 .LVL26
     /tmp/ccRsVzN4.s:324    .text:00000000000001f0 .LVL27
     /tmp/ccRsVzN4.s:328    .text:0000000000000200 .LVL28
     /tmp/ccRsVzN4.s:335    .text:000000000000021c .LVL29
     /tmp/ccRsVzN4.s:339    .text:000000000000022c .LVL30
     /tmp/ccRsVzN4.s:343    .text:000000000000023c .LVL31
     /tmp/ccRsVzN4.s:350    .text:0000000000000258 .LVL32
     /tmp/ccRsVzN4.s:354    .text:0000000000000268 .LVL33
     /tmp/ccRsVzN4.s:358    .text:0000000000000278 .LVL34
     /tmp/ccRsVzN4.s:365    .text:0000000000000294 .LVL35
     /tmp/ccRsVzN4.s:369    .text:00000000000002a4 .LVL36
     /tmp/ccRsVzN4.s:373    .text:00000000000002b4 .LVL37
     /tmp/ccRsVzN4.s:380    .text:00000000000002d0 .LVL38
     /tmp/ccRsVzN4.s:384    .text:00000000000002e0 .LVL39
     /tmp/ccRsVzN4.s:388    .text:00000000000002f0 .LVL40
     /tmp/ccRsVzN4.s:395    .text:000000000000030c .LVL41
     /tmp/ccRsVzN4.s:399    .text:000000000000031c .LVL42
     /tmp/ccRsVzN4.s:403    .text:000000000000032c .LVL43
     /tmp/ccRsVzN4.s:410    .text:0000000000000348 .LVL44
     /tmp/ccRsVzN4.s:414    .text:0000000000000358 .LVL45
     /tmp/ccRsVzN4.s:418    .text:0000000000000368 .LVL46
     /tmp/ccRsVzN4.s:425    .text:0000000000000384 .LVL47
     /tmp/ccRsVzN4.s:429    .text:0000000000000394 .LVL48
     /tmp/ccRsVzN4.s:433    .text:00000000000003a4 .LVL49
     /tmp/ccRsVzN4.s:440    .text:00000000000003c0 .LVL50
     /tmp/ccRsVzN4.s:444    .text:00000000000003d0 .LVL51
     /tmp/ccRsVzN4.s:448    .text:00000000000003e0 .LVL52
     /tmp/ccRsVzN4.s:455    .text:00000000000003fc .LVL53
     /tmp/ccRsVzN4.s:459    .text:000000000000040c .LVL54
     /tmp/ccRsVzN4.s:463    .text:000000000000041c .LVL55
     /tmp/ccRsVzN4.s:470    .text:0000000000000438 .LVL56
     /tmp/ccRsVzN4.s:474    .text:0000000000000448 .LVL57
     /tmp/ccRsVzN4.s:478    .text:0000000000000458 .LVL58
     /tmp/ccRsVzN4.s:485    .text:0000000000000474 .LVL59
     /tmp/ccRsVzN4.s:489    .text:0000000000000484 .LVL60
     /tmp/ccRsVzN4.s:493    .text:0000000000000494 .LVL61
     /tmp/ccRsVzN4.s:499    .text:00000000000004a8 .LVL62
     /tmp/ccRsVzN4.s:503    .text:00000000000004b8 .LVL63
     /tmp/ccRsVzN4.s:508    .text:00000000000004c8 .LVL64
     /tmp/ccRsVzN4.s:512    .text:00000000000004d0 .LVL65
     /tmp/ccRsVzN4.s:517    .text:00000000000004e0 .LVL66
     /tmp/ccRsVzN4.s:521    .text:00000000000004f0 .LVL67
     /tmp/ccRsVzN4.s:535    .text:000000000000050c .LVL68
     /tmp/ccRsVzN4.s:539    .text:000000000000051c .LVL69
     /tmp/ccRsVzN4.s:544    .text:000000000000052c .LVL70
     /tmp/ccRsVzN4.s:548    .text:0000000000000534 .LVL71
     /tmp/ccRsVzN4.s:556    .text:000000000000054c .LVL72
     /tmp/ccRsVzN4.s:561    .text:000000000000055c .LVL73
GAS LISTING /tmp/ccRsVzN4.s 			page 61


     /tmp/ccRsVzN4.s:580    .text:000000000000056c .LVL75
     /tmp/ccRsVzN4.s:586    .text:0000000000000578 .LVL77
     /tmp/ccRsVzN4.s:591    .text:0000000000000584 .LVL78
     /tmp/ccRsVzN4.s:596    .text:0000000000000590 .LVL79
     /tmp/ccRsVzN4.s:601    .text:00000000000005a0 .LVL80
     /tmp/ccRsVzN4.s:622    .text:00000000000005bc .LVL83
     /tmp/ccRsVzN4.s:626    .text:00000000000005c4 .LVL84
     /tmp/ccRsVzN4.s:629    .text:00000000000005cc .LVL85
     /tmp/ccRsVzN4.s:634    .text:00000000000005dc .LVL86
     /tmp/ccRsVzN4.s:638    .text:00000000000005e4 .LVL87
     /tmp/ccRsVzN4.s:643    .text:00000000000005f4 .LVL88
     /tmp/ccRsVzN4.s:647    .text:00000000000005fc .LVL89
     /tmp/ccRsVzN4.s:652    .text:000000000000060c .LVL90
     /tmp/ccRsVzN4.s:656    .text:0000000000000614 .LVL91
     /tmp/ccRsVzN4.s:661    .text:0000000000000624 .LVL92
     /tmp/ccRsVzN4.s:666    .text:0000000000000634 .LVL93
     /tmp/ccRsVzN4.s:670    .text:000000000000063c .LVL94
     /tmp/ccRsVzN4.s:674    .text:0000000000000648 .LVL95
     /tmp/ccRsVzN4.s:684    .text:0000000000000664 .LVL98
     /tmp/ccRsVzN4.s:690    .text:0000000000000670 .LVL100
     /tmp/ccRsVzN4.s:694    .text:000000000000067c .LVL101
     /tmp/ccRsVzN4.s:704    .text:0000000000000698 .LVL104
     /tmp/ccRsVzN4.s:728    .text:00000000000006bc .LVL107
     /tmp/ccRsVzN4.s:733    .text:00000000000006cc .LVL108
     /tmp/ccRsVzN4.s:743    .text:00000000000006e0 .LVL110
     /tmp/ccRsVzN4.s:8559   .debug_str:000000000000013e .LASF498
     /tmp/ccRsVzN4.s:9509   .debug_str:0000000000001f76 .LASF499
     /tmp/ccRsVzN4.s:118    .text:0000000000000080 .LFB116
     /tmp/ccRsVzN4.s:166    .text:00000000000000c8 .LFE116
     /tmp/ccRsVzN4.s:8765   .debug_str:00000000000007b7 .LASF500
     /tmp/ccRsVzN4.s:8487   .debug_loc:0000000000000519 .LLST0
     /tmp/ccRsVzN4.s:145    .text:00000000000000ac .LVL6
     /tmp/ccRsVzN4.s:8693   .debug_str:000000000000053e .LASF501
     /tmp/ccRsVzN4.s:8805   .debug_str:0000000000000945 .LASF502
     /tmp/ccRsVzN4.s:75     .text:0000000000000040 .LFB115
     /tmp/ccRsVzN4.s:112    .text:0000000000000080 .LFE115
     /tmp/ccRsVzN4.s:9539   .debug_str:00000000000020b0 .LASF503
     /tmp/ccRsVzN4.s:8635   .debug_str:0000000000000356 .LASF504
     /tmp/ccRsVzN4.s:50     .text:0000000000000024 .LFB114
     /tmp/ccRsVzN4.s:69     .text:0000000000000040 .LFE114
     /tmp/ccRsVzN4.s:66     .text:000000000000003c .LVL0
     /tmp/ccRsVzN4.s:9097   .debug_str:0000000000001330 .LASF518
     /tmp/ccRsVzN4.s:8781   .debug_str:0000000000000860 .LASF505
     /tmp/ccRsVzN4.s:8787   .debug_str:0000000000000888 .LASF506
     /tmp/ccRsVzN4.s:13     .text:0000000000000000 .LFB113
     /tmp/ccRsVzN4.s:44     .text:0000000000000024 .LFE113
     /tmp/ccRsVzN4.s:9179   .debug_str:00000000000015eb .LASF519
     /tmp/ccRsVzN4.s:9105   .debug_str:0000000000001360 .LASF507
     /tmp/ccRsVzN4.s:8651   .debug_str:00000000000003d6 .LASF508
     /tmp/ccRsVzN4.s:8663   .debug_str:0000000000000455 .LASF520
     /tmp/ccRsVzN4.s:1144   .text:0000000000000a74 .LVL162
     /tmp/ccRsVzN4.s:1160   .text:0000000000000a90 .LVL163
     /tmp/ccRsVzN4.s:1171   .text:0000000000000aa0 .LVL164
     /tmp/ccRsVzN4.s:1176   .text:0000000000000aa4 .LVL165
     /tmp/ccRsVzN4.s:1095   .text:0000000000000a40 .LVL155
     /tmp/ccRsVzN4.s:1115   .text:0000000000000a5c .LVL158
     /tmp/ccRsVzN4.s:1127   .text:0000000000000a68 .LVL161
GAS LISTING /tmp/ccRsVzN4.s 			page 62


     /tmp/ccRsVzN4.s:1103   .text:0000000000000a4c .LVL156
     /tmp/ccRsVzN4.s:1106   .text:0000000000000a50 .LVL157
     /tmp/ccRsVzN4.s:1119   .text:0000000000000a60 .LVL159
     /tmp/ccRsVzN4.s:1122   .text:0000000000000a64 .LVL160
     /tmp/ccRsVzN4.s:1053   .text:0000000000000a14 .LVL150
     /tmp/ccRsVzN4.s:1078   .text:0000000000000a34 .LVL154
     /tmp/ccRsVzN4.s:1061   .text:0000000000000a20 .LVL151
     /tmp/ccRsVzN4.s:1064   .text:0000000000000a24 .LVL152
     /tmp/ccRsVzN4.s:1020   .text:00000000000009e8 .LVL147
     /tmp/ccRsVzN4.s:1032   .text:0000000000000a00 .LVL148
     /tmp/ccRsVzN4.s:1036   .text:0000000000000a08 .LVL149
     /tmp/ccRsVzN4.s:175    .text:00000000000000c8 .LVL9
     /tmp/ccRsVzN4.s:199    .text:00000000000000f8 .LVL10
     /tmp/ccRsVzN4.s:204    .text:0000000000000100 .LVL11
     /tmp/ccRsVzN4.s:209    .text:0000000000000104 .LVL12
     /tmp/ccRsVzN4.s:217    .text:0000000000000114 .LVL15
     /tmp/ccRsVzN4.s:221    .text:0000000000000118 .LVL16
     /tmp/ccRsVzN4.s:241    .text:0000000000000140 .LVL19
     /tmp/ccRsVzN4.s:246    .text:0000000000000148 .LVL20
     /tmp/ccRsVzN4.s:273    .text:0000000000000178 .LVL23
     /tmp/ccRsVzN4.s:229    .text:0000000000000120 .LVL17
     /tmp/ccRsVzN4.s:237    .text:0000000000000138 .LVL18
     /tmp/ccRsVzN4.s:251    .text:000000000000014c .LVL21
     /tmp/ccRsVzN4.s:582    .text:0000000000000570 .LVL76
     /tmp/ccRsVzN4.s:676    .text:000000000000064c .LVL96
     /tmp/ccRsVzN4.s:682    .text:000000000000065c .LVL97
     /tmp/ccRsVzN4.s:737    .text:00000000000006d0 .LVL109
     /tmp/ccRsVzN4.s:767    .text:0000000000000708 .LVL111
     /tmp/ccRsVzN4.s:686    .text:0000000000000668 .LVL99
     /tmp/ccRsVzN4.s:696    .text:0000000000000680 .LVL102
     /tmp/ccRsVzN4.s:702    .text:0000000000000690 .LVL103
     /tmp/ccRsVzN4.s:726    .text:00000000000006b4 .LVL106
     /tmp/ccRsVzN4.s:573    .text:0000000000000564 .LVL74
     /tmp/ccRsVzN4.s:712    .text:000000000000069c .LVL105
     /tmp/ccRsVzN4.s:121    .text:0000000000000080 .LVL4
     /tmp/ccRsVzN4.s:135    .text:000000000000009c .LVL5
     /tmp/ccRsVzN4.s:161    .text:00000000000000c0 .LVL8
     /tmp/ccRsVzN4.s:1296   .debug_info:0000000000000000 .Ldebug_info0

UNDEFINED SYMBOLS
CONSOLE_TX_DATA
CONSOLE_STATUS
HEAP_START_ADDR
HEAP_END_ADDR
KERNEL_TEXT_START
KERNEL_TEXT_END
USER_TEXT_START
USER_TEXT_END
USER_BSS_START
USER_BSS_END
USER_DATA_START
USER_DATA_END
USER_RODATA_START
USER_RODATA_END
_ZN7NoAlloc4initEv
_ZN7NoAlloc16NOALLOC_END_ADDRE
_Z3kmiv
GAS LISTING /tmp/ccRsVzN4.s 			page 63


_ZN5Pager11getInstanceEv
_ZN5Pager10map_kernelEv
_ZN5Pager8map_userEv
_ZN5Pager12start_pagingEv
interruptvec
_ZN15MemoryAllocator11getInstanceEv
_ZN15MemoryAllocator10print_listEv
_ZN9Scheduler9initalizeEv
_ZN5StdIO9initalizeEv
_ZN3TCB22createMainKernelThreadEv
_ZN15MemoryAllocator9mem_allocEm
_Z15userMainWrapperPv
_ZN3TCB12createThreadEPFvPvES0_Pm
_ZN13SlabAllocator11getInstanceEv
_ZN13SlabAllocator7kmallocEm
