GAS LISTING /tmp/ccJnFhoZ.s 			page 1


   1              		.file	"main.cpp"
   2              		.option nopic
   3              		.option norelax
   4              		.attribute arch, "rv64i2p0_m2p0_a2p0"
   5              		.attribute unaligned_access, 0
   6              		.attribute stack_align, 16
   7              		.text
   8              	.Ltext0:
   9              		.align	2
  10              		.globl	_Z13oldKernelMainv
  12              	_Z13oldKernelMainv:
  13              	.LFB113:
  14              		.file 1 "src/kernel/core/main.cpp"
   1:src/kernel/core/main.cpp **** #include"../../../h/kernel_lib.h"
   2:src/kernel/core/main.cpp **** #include"../../../h/kernel_test.h"
   3:src/kernel/core/main.cpp **** 
   4:src/kernel/core/main.cpp **** int oldKernelMain(){
  15              		.loc 1 4 20
  16              		.cfi_startproc
  17 0000 130101FD 		addi	sp,sp,-48
  18              		.cfi_def_cfa_offset 48
  19 0004 23341102 		sd	ra,40(sp)
  20 0008 23308102 		sd	s0,32(sp)
  21 000c 233C9100 		sd	s1,24(sp)
  22              		.cfi_offset 1, -8
  23              		.cfi_offset 8, -16
  24              		.cfi_offset 9, -24
  25 0010 13040103 		addi	s0,sp,48
  26              		.cfi_def_cfa 8, 0
   5:src/kernel/core/main.cpp ****     uint64 ra, sp;
  27              		.loc 1 5 5
   6:src/kernel/core/main.cpp ****     asm volatile("mv %0, ra" : "=r" (ra));
  28              		.loc 1 6 5
  29              		.loc 1 6 42 is_stmt 0
  30              	 #APP
  31              	# 6 "src/kernel/core/main.cpp" 1
   7              	    asm volatile("mv %0, sp" : "=r" (sp));
  32              		mv a0, ra
  33              	# 0 "" 2
  34              	.LVL0:
  35              		.loc 1 7 5 is_stmt 1
  36              		.loc 1 7 42 is_stmt 0
  37              	# 7 "src/kernel/core/main.cpp" 1
   8              	    TCB::setPanicContext(ra,sp);
  38              		mv a1, sp
  39              	# 0 "" 2
  40              	.LVL1:
  41              		.loc 1 8 5 is_stmt 1
  42              		.loc 1 8 25 is_stmt 0
  43              	 #NO_APP
  44 001c 97000000 		call	_ZN3TCB15setPanicContextEmm
  44      E7800000 
  45              	.LVL2:
   9:src/kernel/core/main.cpp **** 
  10:src/kernel/core/main.cpp ****     int panic = kernelInit();
  46              		.loc 1 10 5 is_stmt 1
  47              		.loc 1 10 27 is_stmt 0
GAS LISTING /tmp/ccJnFhoZ.s 			page 2


  48 0024 97000000 		call	_Z10kernelInitv
  48      E7800000 
  49              	.LVL3:
  11:src/kernel/core/main.cpp ****     if(panic < 0){
  50              		.loc 1 11 5 is_stmt 1
  51 002c 634A0504 		blt	a0,zero,.L5
  12:src/kernel/core/main.cpp ****         kprintString("\nKERNEL FAILED TO INITALIZE!!!!\n\n");
  13:src/kernel/core/main.cpp ****         return -1;
  14:src/kernel/core/main.cpp ****     }
  15:src/kernel/core/main.cpp ****    
  16:src/kernel/core/main.cpp ****     uint64 sstatus = Riscv::r_sstatus();
  52              		.loc 1 16 5
  53              	.LBB12:
  54              	.LBB13:
  55              		.file 2 "src/kernel/core/../../../h/../h/riscv.hpp"
   1:src/kernel/core/../../../h/../h/riscv.hpp **** #ifndef __riscv__
   2:src/kernel/core/../../../h/../h/riscv.hpp **** #define __riscv__
   3:src/kernel/core/../../../h/../h/riscv.hpp **** 
   4:src/kernel/core/../../../h/../h/riscv.hpp **** #include"../lib/hw.h"
   5:src/kernel/core/../../../h/../h/riscv.hpp **** 
   6:src/kernel/core/../../../h/../h/riscv.hpp **** class Riscv{
   7:src/kernel/core/../../../h/../h/riscv.hpp **** public:
   8:src/kernel/core/../../../h/../h/riscv.hpp **** /* 
   9:src/kernel/core/../../../h/../h/riscv.hpp **** --------------------SUPERVISOR REGISTERS--------------------    
  10:src/kernel/core/../../../h/../h/riscv.hpp **** */
  11:src/kernel/core/../../../h/../h/riscv.hpp ****     static void w_scause(uint64);
  12:src/kernel/core/../../../h/../h/riscv.hpp ****     static uint64 r_scause(); 
  13:src/kernel/core/../../../h/../h/riscv.hpp **** 
  14:src/kernel/core/../../../h/../h/riscv.hpp ****     static void w_sepc(uint64);
  15:src/kernel/core/../../../h/../h/riscv.hpp ****     static uint64 r_sepc();
  16:src/kernel/core/../../../h/../h/riscv.hpp ****     static void ni_sepc();
  17:src/kernel/core/../../../h/../h/riscv.hpp **** 
  18:src/kernel/core/../../../h/../h/riscv.hpp ****     static void w_stvec(uint64);
  19:src/kernel/core/../../../h/../h/riscv.hpp ****     static uint64 r_stvec();
  20:src/kernel/core/../../../h/../h/riscv.hpp ****      
  21:src/kernel/core/../../../h/../h/riscv.hpp ****     static void w_stval(uint64);
  22:src/kernel/core/../../../h/../h/riscv.hpp ****     static uint64 r_stval();
  23:src/kernel/core/../../../h/../h/riscv.hpp **** 
  24:src/kernel/core/../../../h/../h/riscv.hpp ****     static void w_satp(uint64);
  25:src/kernel/core/../../../h/../h/riscv.hpp ****     static uint64 r_satp();
  26:src/kernel/core/../../../h/../h/riscv.hpp ****     
  27:src/kernel/core/../../../h/../h/riscv.hpp ****     enum BitMaskSip{
  28:src/kernel/core/../../../h/../h/riscv.hpp ****         SIP_SSIE = (1<<1),
  29:src/kernel/core/../../../h/../h/riscv.hpp ****         SIP_STIE = (1<<5),
  30:src/kernel/core/../../../h/../h/riscv.hpp ****         SIP_SEIE = (1<<9),
  31:src/kernel/core/../../../h/../h/riscv.hpp ****     };
  32:src/kernel/core/../../../h/../h/riscv.hpp **** 
  33:src/kernel/core/../../../h/../h/riscv.hpp ****     static void ms_sip(uint64);
  34:src/kernel/core/../../../h/../h/riscv.hpp ****     static void mc_sip(uint64);
  35:src/kernel/core/../../../h/../h/riscv.hpp **** 
  36:src/kernel/core/../../../h/../h/riscv.hpp ****     static void w_sip(uint64);
  37:src/kernel/core/../../../h/../h/riscv.hpp ****     static uint64 r_sip();
  38:src/kernel/core/../../../h/../h/riscv.hpp **** 
  39:src/kernel/core/../../../h/../h/riscv.hpp ****     static void ms_sie(uint64);
  40:src/kernel/core/../../../h/../h/riscv.hpp ****     static void mc_sie(uint64);
  41:src/kernel/core/../../../h/../h/riscv.hpp **** 
  42:src/kernel/core/../../../h/../h/riscv.hpp ****     static void w_sie(uint64);
GAS LISTING /tmp/ccJnFhoZ.s 			page 3


  43:src/kernel/core/../../../h/../h/riscv.hpp ****     static uint64 r_sie();
  44:src/kernel/core/../../../h/../h/riscv.hpp **** 
  45:src/kernel/core/../../../h/../h/riscv.hpp ****     enum BitMaskSstatus{
  46:src/kernel/core/../../../h/../h/riscv.hpp ****         SSTATUS_SIE = (1<<1),
  47:src/kernel/core/../../../h/../h/riscv.hpp ****         SSTATUS_SPIE = (1<<5),
  48:src/kernel/core/../../../h/../h/riscv.hpp ****         SSTATUS_SPP = (1<<8),
  49:src/kernel/core/../../../h/../h/riscv.hpp ****         SSTATUS_SUM = (1<<18),
  50:src/kernel/core/../../../h/../h/riscv.hpp ****     };
  51:src/kernel/core/../../../h/../h/riscv.hpp **** 
  52:src/kernel/core/../../../h/../h/riscv.hpp ****     static void ms_sstatus(uint64);
  53:src/kernel/core/../../../h/../h/riscv.hpp ****     static void mc_sstatus(uint64);
  54:src/kernel/core/../../../h/../h/riscv.hpp **** 
  55:src/kernel/core/../../../h/../h/riscv.hpp ****     static void w_sstatus(uint64);
  56:src/kernel/core/../../../h/../h/riscv.hpp ****     static uint64 r_sstatus();
  57:src/kernel/core/../../../h/../h/riscv.hpp **** 
  58:src/kernel/core/../../../h/../h/riscv.hpp **** /* 
  59:src/kernel/core/../../../h/../h/riscv.hpp **** --------------------CLASSIC REGISTERS--------------------    
  60:src/kernel/core/../../../h/../h/riscv.hpp **** */
  61:src/kernel/core/../../../h/../h/riscv.hpp ****     static uint64 r_sp();
  62:src/kernel/core/../../../h/../h/riscv.hpp ****     static uint64 r_a0(); /* parameter registers */
  63:src/kernel/core/../../../h/../h/riscv.hpp ****     static uint64 s_a0(uint64 a0);
  64:src/kernel/core/../../../h/../h/riscv.hpp ****     static uint64 r_a1();
  65:src/kernel/core/../../../h/../h/riscv.hpp ****     static uint64 r_a2();
  66:src/kernel/core/../../../h/../h/riscv.hpp ****     static uint64 r_a3();
  67:src/kernel/core/../../../h/../h/riscv.hpp ****     static uint64 r_a4();
  68:src/kernel/core/../../../h/../h/riscv.hpp **** 
  69:src/kernel/core/../../../h/../h/riscv.hpp ****     static void popRegisters(); /* pop all context registers */
  70:src/kernel/core/../../../h/../h/riscv.hpp ****     static void pushRegisters(); /* push all context registers */
  71:src/kernel/core/../../../h/../h/riscv.hpp ****  
  72:src/kernel/core/../../../h/../h/riscv.hpp ****     static void popSppSpie(); /* jump from kernel to start of thread */
  73:src/kernel/core/../../../h/../h/riscv.hpp **** 
  74:src/kernel/core/../../../h/../h/riscv.hpp **** /* 
  75:src/kernel/core/../../../h/../h/riscv.hpp **** --------------------CONSOLE REGISTERS--------------------    
  76:src/kernel/core/../../../h/../h/riscv.hpp **** */
  77:src/kernel/core/../../../h/../h/riscv.hpp ****     static void mc_cstatus(uint64 mask); 
  78:src/kernel/core/../../../h/../h/riscv.hpp ****     static bool cstatus_ready(uint64 mask);
  79:src/kernel/core/../../../h/../h/riscv.hpp **** };
  80:src/kernel/core/../../../h/../h/riscv.hpp **** 
  81:src/kernel/core/../../../h/../h/riscv.hpp **** /* 
  82:src/kernel/core/../../../h/../h/riscv.hpp **** --------------------CLASSIC REGISTERS--------------------    
  83:src/kernel/core/../../../h/../h/riscv.hpp **** */
  84:src/kernel/core/../../../h/../h/riscv.hpp **** 
  85:src/kernel/core/../../../h/../h/riscv.hpp **** inline uint64 Riscv::r_sp(){
  86:src/kernel/core/../../../h/../h/riscv.hpp ****     uint64 a0;
  87:src/kernel/core/../../../h/../h/riscv.hpp ****     asm volatile("mv %0, sp" : "=r" (a0));
  88:src/kernel/core/../../../h/../h/riscv.hpp ****     return a0;
  89:src/kernel/core/../../../h/../h/riscv.hpp **** }
  90:src/kernel/core/../../../h/../h/riscv.hpp **** 
  91:src/kernel/core/../../../h/../h/riscv.hpp **** inline uint64 Riscv::r_a0(){
  92:src/kernel/core/../../../h/../h/riscv.hpp ****     uint64 a0;
  93:src/kernel/core/../../../h/../h/riscv.hpp ****     asm volatile("mv %0, a0" : "=r" (a0));
  94:src/kernel/core/../../../h/../h/riscv.hpp ****     return a0;
  95:src/kernel/core/../../../h/../h/riscv.hpp **** }
  96:src/kernel/core/../../../h/../h/riscv.hpp **** 
  97:src/kernel/core/../../../h/../h/riscv.hpp **** inline uint64 Riscv::r_a1(){
  98:src/kernel/core/../../../h/../h/riscv.hpp ****     uint64 a0;
  99:src/kernel/core/../../../h/../h/riscv.hpp ****     asm volatile("mv %0, a1" : "=r" (a0));
GAS LISTING /tmp/ccJnFhoZ.s 			page 4


 100:src/kernel/core/../../../h/../h/riscv.hpp ****     return a0;
 101:src/kernel/core/../../../h/../h/riscv.hpp **** }
 102:src/kernel/core/../../../h/../h/riscv.hpp **** 
 103:src/kernel/core/../../../h/../h/riscv.hpp **** inline uint64 Riscv::r_a2(){
 104:src/kernel/core/../../../h/../h/riscv.hpp ****     uint64 a0;
 105:src/kernel/core/../../../h/../h/riscv.hpp ****     asm volatile("mv %0, a2" : "=r" (a0));
 106:src/kernel/core/../../../h/../h/riscv.hpp ****     return a0;
 107:src/kernel/core/../../../h/../h/riscv.hpp **** }
 108:src/kernel/core/../../../h/../h/riscv.hpp **** 
 109:src/kernel/core/../../../h/../h/riscv.hpp **** inline uint64 Riscv::r_a3(){
 110:src/kernel/core/../../../h/../h/riscv.hpp ****     uint64 a0;
 111:src/kernel/core/../../../h/../h/riscv.hpp ****     asm volatile("mv %0, a3" : "=r" (a0));
 112:src/kernel/core/../../../h/../h/riscv.hpp ****     return a0;
 113:src/kernel/core/../../../h/../h/riscv.hpp **** }
 114:src/kernel/core/../../../h/../h/riscv.hpp **** 
 115:src/kernel/core/../../../h/../h/riscv.hpp **** inline uint64 Riscv::r_a4(){
 116:src/kernel/core/../../../h/../h/riscv.hpp ****     uint64 a0;
 117:src/kernel/core/../../../h/../h/riscv.hpp ****     asm volatile("mv %0, a4" : "=r" (a0));
 118:src/kernel/core/../../../h/../h/riscv.hpp ****     return a0;
 119:src/kernel/core/../../../h/../h/riscv.hpp **** }
 120:src/kernel/core/../../../h/../h/riscv.hpp **** 
 121:src/kernel/core/../../../h/../h/riscv.hpp **** 
 122:src/kernel/core/../../../h/../h/riscv.hpp **** inline uint64 Riscv::s_a0(uint64 a0){
 123:src/kernel/core/../../../h/../h/riscv.hpp ****     return a0;
 124:src/kernel/core/../../../h/../h/riscv.hpp **** }
 125:src/kernel/core/../../../h/../h/riscv.hpp **** 
 126:src/kernel/core/../../../h/../h/riscv.hpp **** /* 
 127:src/kernel/core/../../../h/../h/riscv.hpp **** --------------------SUPERVISOR REGISTERS--------------------    
 128:src/kernel/core/../../../h/../h/riscv.hpp **** */
 129:src/kernel/core/../../../h/../h/riscv.hpp **** 
 130:src/kernel/core/../../../h/../h/riscv.hpp **** inline void Riscv::w_scause(uint64 scause){
 131:src/kernel/core/../../../h/../h/riscv.hpp ****     asm volatile("csrw scause, %0" : : "r" (scause));
 132:src/kernel/core/../../../h/../h/riscv.hpp **** }
 133:src/kernel/core/../../../h/../h/riscv.hpp **** 
 134:src/kernel/core/../../../h/../h/riscv.hpp **** inline uint64 Riscv::r_scause(){
 135:src/kernel/core/../../../h/../h/riscv.hpp ****     uint64 volatile scause;
 136:src/kernel/core/../../../h/../h/riscv.hpp ****     asm volatile("csrr %0, scause" : "=r" (scause));
 137:src/kernel/core/../../../h/../h/riscv.hpp ****     return scause;
 138:src/kernel/core/../../../h/../h/riscv.hpp **** } 
 139:src/kernel/core/../../../h/../h/riscv.hpp **** 
 140:src/kernel/core/../../../h/../h/riscv.hpp **** inline void Riscv::w_sepc(uint64 sepc){
 141:src/kernel/core/../../../h/../h/riscv.hpp ****     asm volatile("csrw sepc, %0" : : "r" (sepc));
 142:src/kernel/core/../../../h/../h/riscv.hpp **** }
 143:src/kernel/core/../../../h/../h/riscv.hpp **** 
 144:src/kernel/core/../../../h/../h/riscv.hpp **** inline uint64 Riscv::r_sepc(){
 145:src/kernel/core/../../../h/../h/riscv.hpp ****     uint64 volatile sepc;
 146:src/kernel/core/../../../h/../h/riscv.hpp ****     asm volatile("csrr %0, sepc" : "=r" (sepc));
 147:src/kernel/core/../../../h/../h/riscv.hpp ****     return sepc;
 148:src/kernel/core/../../../h/../h/riscv.hpp **** } 
 149:src/kernel/core/../../../h/../h/riscv.hpp **** 
 150:src/kernel/core/../../../h/../h/riscv.hpp **** inline void Riscv::w_stvec(uint64 stvec){
 151:src/kernel/core/../../../h/../h/riscv.hpp ****     asm volatile("csrw stvec, %0" : : "r" (stvec));
 152:src/kernel/core/../../../h/../h/riscv.hpp **** }
 153:src/kernel/core/../../../h/../h/riscv.hpp **** 
 154:src/kernel/core/../../../h/../h/riscv.hpp **** inline uint64 Riscv::r_stvec(){
 155:src/kernel/core/../../../h/../h/riscv.hpp ****     uint64 volatile stvec;
 156:src/kernel/core/../../../h/../h/riscv.hpp ****     asm volatile("csrr %0, stvec" : "=r" (stvec));
GAS LISTING /tmp/ccJnFhoZ.s 			page 5


 157:src/kernel/core/../../../h/../h/riscv.hpp ****     return stvec;
 158:src/kernel/core/../../../h/../h/riscv.hpp **** } 
 159:src/kernel/core/../../../h/../h/riscv.hpp **** 
 160:src/kernel/core/../../../h/../h/riscv.hpp **** inline void Riscv::w_stval(uint64 stval){
 161:src/kernel/core/../../../h/../h/riscv.hpp ****     asm volatile("csrw stval, %0" : : "r" (stval));
 162:src/kernel/core/../../../h/../h/riscv.hpp **** }
 163:src/kernel/core/../../../h/../h/riscv.hpp **** 
 164:src/kernel/core/../../../h/../h/riscv.hpp **** inline uint64 Riscv::r_stval(){
 165:src/kernel/core/../../../h/../h/riscv.hpp ****     uint64 volatile stval;
 166:src/kernel/core/../../../h/../h/riscv.hpp ****     asm volatile("csrr %0, stval" : "=r" (stval));
 167:src/kernel/core/../../../h/../h/riscv.hpp ****     return stval;
 168:src/kernel/core/../../../h/../h/riscv.hpp **** } 
 169:src/kernel/core/../../../h/../h/riscv.hpp **** 
 170:src/kernel/core/../../../h/../h/riscv.hpp **** inline void Riscv::ms_sip(uint64 mask){
 171:src/kernel/core/../../../h/../h/riscv.hpp ****     asm volatile ("csrs sip, %0" : : "r" (mask));
 172:src/kernel/core/../../../h/../h/riscv.hpp **** }
 173:src/kernel/core/../../../h/../h/riscv.hpp **** 
 174:src/kernel/core/../../../h/../h/riscv.hpp **** inline void Riscv::mc_sip(uint64 mask){
 175:src/kernel/core/../../../h/../h/riscv.hpp ****     asm volatile ("csrc sip, %0" : : "r" (mask));
 176:src/kernel/core/../../../h/../h/riscv.hpp **** }
 177:src/kernel/core/../../../h/../h/riscv.hpp **** 
 178:src/kernel/core/../../../h/../h/riscv.hpp **** inline void Riscv::w_sip(uint64 sip){
 179:src/kernel/core/../../../h/../h/riscv.hpp ****     asm volatile("csrw sip, %0" : : "r" (sip));
 180:src/kernel/core/../../../h/../h/riscv.hpp **** }
 181:src/kernel/core/../../../h/../h/riscv.hpp **** 
 182:src/kernel/core/../../../h/../h/riscv.hpp **** inline uint64 Riscv::r_sip(){
 183:src/kernel/core/../../../h/../h/riscv.hpp ****     uint64 volatile sip;
 184:src/kernel/core/../../../h/../h/riscv.hpp ****     asm volatile("csrr %0, sip" : "=r" (sip));
 185:src/kernel/core/../../../h/../h/riscv.hpp ****     return sip;
 186:src/kernel/core/../../../h/../h/riscv.hpp **** } 
 187:src/kernel/core/../../../h/../h/riscv.hpp **** 
 188:src/kernel/core/../../../h/../h/riscv.hpp **** inline void Riscv::ms_sie(uint64 mask){
 189:src/kernel/core/../../../h/../h/riscv.hpp ****     asm volatile ("csrs sie, %0" : : "r" (mask));
 190:src/kernel/core/../../../h/../h/riscv.hpp **** }
 191:src/kernel/core/../../../h/../h/riscv.hpp **** 
 192:src/kernel/core/../../../h/../h/riscv.hpp **** inline void Riscv::mc_sie(uint64 mask){
 193:src/kernel/core/../../../h/../h/riscv.hpp ****     asm volatile ("csrc sie, %0" : : "r" (mask));
 194:src/kernel/core/../../../h/../h/riscv.hpp **** }
 195:src/kernel/core/../../../h/../h/riscv.hpp **** 
 196:src/kernel/core/../../../h/../h/riscv.hpp **** inline void Riscv::w_sie(uint64 sie){
 197:src/kernel/core/../../../h/../h/riscv.hpp ****     asm volatile("csrw sie, %0" : : "r" (sie));
 198:src/kernel/core/../../../h/../h/riscv.hpp **** }
 199:src/kernel/core/../../../h/../h/riscv.hpp **** 
 200:src/kernel/core/../../../h/../h/riscv.hpp **** inline uint64 Riscv::r_sie(){
 201:src/kernel/core/../../../h/../h/riscv.hpp ****     uint64 volatile sie;
 202:src/kernel/core/../../../h/../h/riscv.hpp ****     asm volatile("csrr %0, sie" : "=r" (sie));
 203:src/kernel/core/../../../h/../h/riscv.hpp ****     return sie;
 204:src/kernel/core/../../../h/../h/riscv.hpp **** } 
 205:src/kernel/core/../../../h/../h/riscv.hpp **** 
 206:src/kernel/core/../../../h/../h/riscv.hpp **** inline void Riscv::ms_sstatus(uint64 mask){
 207:src/kernel/core/../../../h/../h/riscv.hpp ****     asm volatile ("csrs sstatus, %0" : : "r" (mask));
 208:src/kernel/core/../../../h/../h/riscv.hpp **** }
 209:src/kernel/core/../../../h/../h/riscv.hpp **** 
 210:src/kernel/core/../../../h/../h/riscv.hpp **** inline void Riscv::mc_sstatus(uint64 mask){
 211:src/kernel/core/../../../h/../h/riscv.hpp ****     asm volatile ("csrc sstatus, %0" : : "r" (mask));
 212:src/kernel/core/../../../h/../h/riscv.hpp **** }
 213:src/kernel/core/../../../h/../h/riscv.hpp **** 
GAS LISTING /tmp/ccJnFhoZ.s 			page 6


 214:src/kernel/core/../../../h/../h/riscv.hpp **** inline void Riscv::w_sstatus(uint64 sstatus){
 215:src/kernel/core/../../../h/../h/riscv.hpp ****     asm volatile("csrw sstatus, %0" : : "r" (sstatus));
 216:src/kernel/core/../../../h/../h/riscv.hpp **** }
 217:src/kernel/core/../../../h/../h/riscv.hpp **** 
 218:src/kernel/core/../../../h/../h/riscv.hpp **** inline uint64 Riscv::r_sstatus(){
 219:src/kernel/core/../../../h/../h/riscv.hpp ****     uint64 volatile sstatus;
  56              		.loc 2 219 5
 220:src/kernel/core/../../../h/../h/riscv.hpp ****     asm volatile("csrr %0, sstatus" : "=r" (sstatus));
  57              		.loc 2 220 5
  58              		.loc 2 220 54 is_stmt 0
  59              	 #APP
  60              	# 220 "src/kernel/core/../../../h/../h/riscv.hpp" 1
 221              	    return sstatus;
  61              		csrr a5, sstatus
  62              	# 0 "" 2
  63              	 #NO_APP
  64 0034 233CF4FC 		sd	a5,-40(s0)
  65              		.loc 2 221 5 is_stmt 1
  66              		.loc 2 221 12 is_stmt 0
  67 0038 833484FD 		ld	s1,-40(s0)
  68              	.LVL4:
  69              	.LBE13:
  70              	.LBE12:
  17:src/kernel/core/main.cpp ****     kprintString("Starting User Process\n");
  71              		.loc 1 17 5 is_stmt 1
  72              		.loc 1 17 17 is_stmt 0
  73 003c 17050000 		lla	a0,.LC1
  73      13050500 
  74              	.LVL5:
  75 0044 97000000 		call	_Z12kprintStringPKc
  75      E7800000 
  76              	.LVL6:
  18:src/kernel/core/main.cpp ****     TCB::yield();
  77              		.loc 1 18 5 is_stmt 1
  78              		.loc 1 18 15 is_stmt 0
  79 004c 97000000 		call	_ZN3TCB5yieldEv
  79      E7800000 
  80              	.LVL7:
  19:src/kernel/core/main.cpp ****     Riscv::w_sstatus(sstatus);
  81              		.loc 1 19 5 is_stmt 1
  82              	.LBB14:
  83              	.LBB15:
 215:src/kernel/core/../../../h/../h/riscv.hpp **** }
  84              		.loc 2 215 5
 215:src/kernel/core/../../../h/../h/riscv.hpp **** }
  85              		.loc 2 215 55 is_stmt 0
  86              	 #APP
  87              	# 215 "src/kernel/core/../../../h/../h/riscv.hpp" 1
  88              		csrw sstatus, s1
  89              	# 0 "" 2
  90              	.LVL8:
  91              	 #NO_APP
  92              	.LBE15:
  93              	.LBE14:
  20:src/kernel/core/main.cpp ****     
  21:src/kernel/core/main.cpp **** 
  22:src/kernel/core/main.cpp ****     kprintString("SRECNA NOVA GODINAAAA!!!!!");
GAS LISTING /tmp/ccJnFhoZ.s 			page 7


  94              		.loc 1 22 5 is_stmt 1
  95              		.loc 1 22 17 is_stmt 0
  96 0058 17050000 		lla	a0,.LC2
  96      13050500 
  97 0060 97000000 		call	_Z12kprintStringPKc
  97      E7800000 
  98              	.LVL9:
  23:src/kernel/core/main.cpp ****     //kprintString("\n\nKERNEL ENDED SUCCESSFULLY!\n\n");
  24:src/kernel/core/main.cpp ****     return 0;
  99              		.loc 1 24 5 is_stmt 1
 100              		.loc 1 24 12 is_stmt 0
 101 0068 13050000 		li	a0,0
 102              	.LVL10:
 103              	.L3:
  25:src/kernel/core/main.cpp **** }
 104              		.loc 1 25 1
 105 006c 83308102 		ld	ra,40(sp)
 106              		.cfi_remember_state
 107              		.cfi_restore 1
 108 0070 03340102 		ld	s0,32(sp)
 109              		.cfi_restore 8
 110              		.cfi_def_cfa 2, 48
 111 0074 83348101 		ld	s1,24(sp)
 112              		.cfi_restore 9
 113 0078 13010103 		addi	sp,sp,48
 114              		.cfi_def_cfa_offset 0
 115 007c 67800000 		jr	ra
 116              	.LVL11:
 117              	.L5:
 118              		.cfi_restore_state
  12:src/kernel/core/main.cpp ****         return -1;
 119              		.loc 1 12 9 is_stmt 1
  12:src/kernel/core/main.cpp ****         return -1;
 120              		.loc 1 12 21 is_stmt 0
 121 0080 17050000 		lla	a0,.LC0
 121      13050500 
 122              	.LVL12:
 123 0088 97000000 		call	_Z12kprintStringPKc
 123      E7800000 
 124              	.LVL13:
  13:src/kernel/core/main.cpp ****     }
 125              		.loc 1 13 9 is_stmt 1
  13:src/kernel/core/main.cpp ****     }
 126              		.loc 1 13 17 is_stmt 0
 127 0090 1305F0FF 		li	a0,-1
 128 0094 6FF09FFD 		j	.L3
 129              		.cfi_endproc
 130              	.LFE113:
 132              		.align	2
 133              		.globl	_Z13newKernelMainv
 135              	_Z13newKernelMainv:
 136              	.LFB114:
  26:src/kernel/core/main.cpp **** 
  27:src/kernel/core/main.cpp **** int newKernelMain(){
 137              		.loc 1 27 20 is_stmt 1
 138              		.cfi_startproc
 139 0098 130101FD 		addi	sp,sp,-48
GAS LISTING /tmp/ccJnFhoZ.s 			page 8


 140              		.cfi_def_cfa_offset 48
 141 009c 23341102 		sd	ra,40(sp)
 142 00a0 23308102 		sd	s0,32(sp)
 143 00a4 233C9100 		sd	s1,24(sp)
 144 00a8 23382101 		sd	s2,16(sp)
 145              		.cfi_offset 1, -8
 146              		.cfi_offset 8, -16
 147              		.cfi_offset 9, -24
 148              		.cfi_offset 18, -32
 149 00ac 13040103 		addi	s0,sp,48
 150              		.cfi_def_cfa 8, 0
  28:src/kernel/core/main.cpp ****     uint64 sp = Riscv::r_sp();
 151              		.loc 1 28 5
 152              	.LBB16:
 153              	.LBB17:
  86:src/kernel/core/../../../h/../h/riscv.hpp ****     asm volatile("mv %0, sp" : "=r" (a0));
 154              		.loc 2 86 5
  87:src/kernel/core/../../../h/../h/riscv.hpp ****     return a0;
 155              		.loc 2 87 5
  87:src/kernel/core/../../../h/../h/riscv.hpp ****     return a0;
 156              		.loc 2 87 42 is_stmt 0
 157              	 #APP
 158              	# 87 "src/kernel/core/../../../h/../h/riscv.hpp" 1
 159              		mv s1, sp
 160              	# 0 "" 2
 161              	.LVL14:
  88:src/kernel/core/../../../h/../h/riscv.hpp **** }
 162              		.loc 2 88 5 is_stmt 1
 163              	 #NO_APP
 164              	.LBE17:
 165              	.LBE16:
  29:src/kernel/core/main.cpp ****     KCHECKPRINT(sp);
 166              		.loc 1 29 5
 167 00b4 17050000 		lla	a0,.LC3
 167      13050500 
 168 00bc 97000000 		call	_Z12kprintStringPKc
 168      E7800000 
 169              	.LVL15:
 170              		.loc 1 29 5
 171 00c4 13060000 		li	a2,0
 172 00c8 93050001 		li	a1,16
 173 00cc 13850400 		mv	a0,s1
 174 00d0 97000000 		call	_Z9kprintIntmib
 174      E7800000 
 175              	.LVL16:
 176              		.loc 1 29 5
 177 00d8 17050000 		lla	a0,.LC4
 177      13050500 
 178 00e0 97000000 		call	_Z12kprintStringPKc
 178      E7800000 
 179              	.LVL17:
  30:src/kernel/core/main.cpp ****     if(newKernelInit()){
 180              		.loc 1 30 5
 181              		.loc 1 30 21 is_stmt 0
 182 00e8 97000000 		call	_Z13newKernelInitv
 182      E7800000 
 183              	.LVL18:
GAS LISTING /tmp/ccJnFhoZ.s 			page 9


 184              		.loc 1 30 5
 185 00f0 631E0502 		bne	a0,zero,.L10
 186 00f4 93040500 		mv	s1,a0
 187              	.LVL19:
  31:src/kernel/core/main.cpp ****         kprintString("KERNEL PANIC: KERNEL NOT SUCCESFULLY INITALIZED!!!\n");
  32:src/kernel/core/main.cpp ****         return 1;
  33:src/kernel/core/main.cpp ****     }   
  34:src/kernel/core/main.cpp **** 
  35:src/kernel/core/main.cpp ****     uint64 sstatus = Riscv::r_sstatus();
 188              		.loc 1 35 5 is_stmt 1
 189              	.LBB18:
 190              	.LBB19:
 219:src/kernel/core/../../../h/../h/riscv.hpp ****     asm volatile("csrr %0, sstatus" : "=r" (sstatus));
 191              		.loc 2 219 5
 220:src/kernel/core/../../../h/../h/riscv.hpp ****     return sstatus;
 192              		.loc 2 220 5
 220:src/kernel/core/../../../h/../h/riscv.hpp ****     return sstatus;
 193              		.loc 2 220 54 is_stmt 0
 194              	 #APP
 195              	# 220 "src/kernel/core/../../../h/../h/riscv.hpp" 1
 196              		csrr a5, sstatus
 197              	# 0 "" 2
 198              	 #NO_APP
 199 00fc 233CF4FC 		sd	a5,-40(s0)
 200              		.loc 2 221 5 is_stmt 1
 201              		.loc 2 221 12 is_stmt 0
 202 0100 033984FD 		ld	s2,-40(s0)
 203              	.LVL20:
 204              	.LBE19:
 205              	.LBE18:
  36:src/kernel/core/main.cpp ****     TCB::yield();
 206              		.loc 1 36 5 is_stmt 1
 207              		.loc 1 36 15 is_stmt 0
 208 0104 97000000 		call	_ZN3TCB5yieldEv
 208      E7800000 
 209              	.LVL21:
  37:src/kernel/core/main.cpp ****     Riscv::w_sstatus(sstatus);
 210              		.loc 1 37 5 is_stmt 1
 211              	.LBB20:
 212              	.LBB21:
 215:src/kernel/core/../../../h/../h/riscv.hpp **** }
 213              		.loc 2 215 5
 215:src/kernel/core/../../../h/../h/riscv.hpp **** }
 214              		.loc 2 215 55 is_stmt 0
 215              	 #APP
 216              	# 215 "src/kernel/core/../../../h/../h/riscv.hpp" 1
 217              		csrw sstatus, s2
 218              	# 0 "" 2
 219              	.LVL22:
 220              	 #NO_APP
 221              	.LBE21:
 222              	.LBE20:
  38:src/kernel/core/main.cpp **** 
  39:src/kernel/core/main.cpp ****     // buddy_test();
  40:src/kernel/core/main.cpp ****     // slab_test();
  41:src/kernel/core/main.cpp ****     // paging_test();
  42:src/kernel/core/main.cpp ****     
GAS LISTING /tmp/ccJnFhoZ.s 			page 10


  43:src/kernel/core/main.cpp ****     return 0;
 223              		.loc 1 43 5 is_stmt 1
 224              	.L8:
  44:src/kernel/core/main.cpp **** }
 225              		.loc 1 44 1 is_stmt 0
 226 0110 13850400 		mv	a0,s1
 227 0114 83308102 		ld	ra,40(sp)
 228              		.cfi_remember_state
 229              		.cfi_restore 1
 230 0118 03340102 		ld	s0,32(sp)
 231              		.cfi_restore 8
 232              		.cfi_def_cfa 2, 48
 233 011c 83348101 		ld	s1,24(sp)
 234              		.cfi_restore 9
 235 0120 03390101 		ld	s2,16(sp)
 236              		.cfi_restore 18
 237 0124 13010103 		addi	sp,sp,48
 238              		.cfi_def_cfa_offset 0
 239 0128 67800000 		jr	ra
 240              	.LVL23:
 241              	.L10:
 242              		.cfi_restore_state
  31:src/kernel/core/main.cpp ****         return 1;
 243              		.loc 1 31 9 is_stmt 1
  31:src/kernel/core/main.cpp ****         return 1;
 244              		.loc 1 31 21 is_stmt 0
 245 012c 17050000 		lla	a0,.LC5
 245      13050500 
 246 0134 97000000 		call	_Z12kprintStringPKc
 246      E7800000 
 247              	.LVL24:
  32:src/kernel/core/main.cpp ****     }   
 248              		.loc 1 32 9 is_stmt 1
  32:src/kernel/core/main.cpp ****     }   
 249              		.loc 1 32 16 is_stmt 0
 250 013c 93041000 		li	s1,1
 251              	.LVL25:
 252 0140 6FF01FFD 		j	.L8
 253              		.cfi_endproc
 254              	.LFE114:
 256              		.align	2
 257              		.globl	main
 259              	main:
 260              	.LFB115:
  45:src/kernel/core/main.cpp **** 
  46:src/kernel/core/main.cpp **** int main(){
 261              		.loc 1 46 11 is_stmt 1
 262              		.cfi_startproc
 263 0144 130101FF 		addi	sp,sp,-16
 264              		.cfi_def_cfa_offset 16
 265 0148 23341100 		sd	ra,8(sp)
 266 014c 23308100 		sd	s0,0(sp)
 267              		.cfi_offset 1, -8
 268              		.cfi_offset 8, -16
 269 0150 13040101 		addi	s0,sp,16
 270              		.cfi_def_cfa 8, 0
  47:src/kernel/core/main.cpp ****     return oldKernelMain();
GAS LISTING /tmp/ccJnFhoZ.s 			page 11


 271              		.loc 1 47 5
 272              		.loc 1 47 25 is_stmt 0
 273 0154 97000000 		call	_Z13oldKernelMainv
 273      E7800000 
 274              	.LVL26:
  48:src/kernel/core/main.cpp **** }   ...
 275              		.loc 1 48 1
 276 015c 83308100 		ld	ra,8(sp)
 277              		.cfi_restore 1
 278 0160 03340100 		ld	s0,0(sp)
 279              		.cfi_restore 8
 280              		.cfi_def_cfa 2, 16
 281 0164 13010101 		addi	sp,sp,16
 282              		.cfi_def_cfa_offset 0
 283 0168 67800000 		jr	ra
 284              		.cfi_endproc
 285              	.LFE115:
 287              		.section	.rodata.str1.8,"aMS",@progbits,1
 288              		.align	3
 289              	.LC0:
 290 0000 0A4B4552 		.string	"\nKERNEL FAILED TO INITALIZE!!!!\n\n"
 290      4E454C20 
 290      4641494C 
 290      45442054 
 290      4F20494E 
 291 0022 00000000 		.zero	6
 291      0000
 292              	.LC1:
 293 0028 53746172 		.string	"Starting User Process\n"
 293      74696E67 
 293      20557365 
 293      72205072 
 293      6F636573 
 294 003f 00       		.zero	1
 295              	.LC2:
 296 0040 53524543 		.string	"SRECNA NOVA GODINAAAA!!!!!"
 296      4E41204E 
 296      4F564120 
 296      474F4449 
 296      4E414141 
 297 005b 00000000 		.zero	5
 297      00
 298              	.LC3:
 299 0060 73703A20 		.string	"sp: "
 299      00
 300 0065 000000   		.zero	3
 301              	.LC4:
 302 0068 0A00     		.string	"\n"
 303 006a 00000000 		.zero	6
 303      0000
 304              	.LC5:
 305 0070 4B45524E 		.string	"KERNEL PANIC: KERNEL NOT SUCCESFULLY INITALIZED!!!\n"
 305      454C2050 
 305      414E4943 
 305      3A204B45 
 305      524E454C 
 306              		.text
GAS LISTING /tmp/ccJnFhoZ.s 			page 12


 307              	.Letext0:
 308              		.file 3 "src/kernel/core/../../../h/../h/../lib/hw.h"
 309              		.file 4 "src/kernel/core/../../../h/../h/../h/../h/list.h"
 310              		.file 5 "src/kernel/core/../../../h/../h/../h/object_cache.h"
 311              		.file 6 "src/kernel/core/../../../h/../h/slab_allocator.h"
 312              		.file 7 "src/kernel/core/../../../h/../h/tcb.hpp"
 313              		.file 8 "src/kernel/core/../../../h/kernel_lib.h"
 314              		.file 9 "src/kernel/core/../../../h/../h/kernel_funs.h"
GAS LISTING /tmp/ccJnFhoZ.s 			page 13


DEFINED SYMBOLS
                            *ABS*:0000000000000000 main.cpp
     /tmp/ccJnFhoZ.s:12     .text:0000000000000000 _Z13oldKernelMainv
     /tmp/ccJnFhoZ.s:16     .text:0000000000000000 .L0 
     /tmp/ccJnFhoZ.s:17     .text:0000000000000000 .L0 
     /tmp/ccJnFhoZ.s:18     .text:0000000000000004 .L0 
     /tmp/ccJnFhoZ.s:22     .text:0000000000000010 .L0 
     /tmp/ccJnFhoZ.s:23     .text:0000000000000010 .L0 
     /tmp/ccJnFhoZ.s:24     .text:0000000000000010 .L0 
     /tmp/ccJnFhoZ.s:26     .text:0000000000000014 .L0 
     /tmp/ccJnFhoZ.s:28     .text:0000000000000014 .L0 
     /tmp/ccJnFhoZ.s:29     .text:0000000000000014 .L0 
src/kernel/core/main.cpp:6      .text:0000000000000014 .L0 
     /tmp/ccJnFhoZ.s:36     .text:0000000000000018 .L0 
src/kernel/core/main.cpp:7      .text:0000000000000018 .L0 
     /tmp/ccJnFhoZ.s:42     .text:000000000000001c .L0 
     /tmp/ccJnFhoZ.s:44     .text:000000000000001c .L0 
     /tmp/ccJnFhoZ.s:47     .text:0000000000000024 .L0 
     /tmp/ccJnFhoZ.s:48     .text:0000000000000024 .L0 
     /tmp/ccJnFhoZ.s:51     .text:000000000000002c .L0 
     /tmp/ccJnFhoZ.s:56     .text:0000000000000030 .L0 
     /tmp/ccJnFhoZ.s:57     .text:0000000000000030 .L0 
     /tmp/ccJnFhoZ.s:58     .text:0000000000000030 .L0 
src/kernel/core/../../../h/../h/riscv.hpp:220    .text:0000000000000030 .L0 
     /tmp/ccJnFhoZ.s:66     .text:0000000000000038 .L0 
     /tmp/ccJnFhoZ.s:67     .text:0000000000000038 .L0 
     /tmp/ccJnFhoZ.s:72     .text:000000000000003c .L0 
     /tmp/ccJnFhoZ.s:73     .text:000000000000003c .L0 
     /tmp/ccJnFhoZ.s:78     .text:000000000000004c .L0 
     /tmp/ccJnFhoZ.s:79     .text:000000000000004c .L0 
     /tmp/ccJnFhoZ.s:84     .text:0000000000000054 .L0 
     /tmp/ccJnFhoZ.s:85     .text:0000000000000054 .L0 
src/kernel/core/../../../h/../h/riscv.hpp:215    .text:0000000000000054 .L0 
     /tmp/ccJnFhoZ.s:95     .text:0000000000000058 .L0 
     /tmp/ccJnFhoZ.s:96     .text:0000000000000058 .L0 
     /tmp/ccJnFhoZ.s:100    .text:0000000000000068 .L0 
     /tmp/ccJnFhoZ.s:101    .text:0000000000000068 .L0 
     /tmp/ccJnFhoZ.s:105    .text:000000000000006c .L0 
     /tmp/ccJnFhoZ.s:106    .text:0000000000000070 .L0 
     /tmp/ccJnFhoZ.s:107    .text:0000000000000070 .L0 
     /tmp/ccJnFhoZ.s:109    .text:0000000000000074 .L0 
     /tmp/ccJnFhoZ.s:110    .text:0000000000000074 .L0 
     /tmp/ccJnFhoZ.s:112    .text:0000000000000078 .L0 
     /tmp/ccJnFhoZ.s:114    .text:000000000000007c .L0 
     /tmp/ccJnFhoZ.s:118    .text:0000000000000080 .L0 
     /tmp/ccJnFhoZ.s:120    .text:0000000000000080 .L0 
     /tmp/ccJnFhoZ.s:121    .text:0000000000000080 .L0 
     /tmp/ccJnFhoZ.s:126    .text:0000000000000090 .L0 
     /tmp/ccJnFhoZ.s:127    .text:0000000000000090 .L0 
     /tmp/ccJnFhoZ.s:129    .text:0000000000000098 .L0 
     /tmp/ccJnFhoZ.s:135    .text:0000000000000098 _Z13newKernelMainv
     /tmp/ccJnFhoZ.s:138    .text:0000000000000098 .L0 
     /tmp/ccJnFhoZ.s:139    .text:0000000000000098 .L0 
     /tmp/ccJnFhoZ.s:140    .text:000000000000009c .L0 
     /tmp/ccJnFhoZ.s:145    .text:00000000000000ac .L0 
     /tmp/ccJnFhoZ.s:146    .text:00000000000000ac .L0 
     /tmp/ccJnFhoZ.s:147    .text:00000000000000ac .L0 
GAS LISTING /tmp/ccJnFhoZ.s 			page 14


     /tmp/ccJnFhoZ.s:148    .text:00000000000000ac .L0 
     /tmp/ccJnFhoZ.s:150    .text:00000000000000b0 .L0 
     /tmp/ccJnFhoZ.s:154    .text:00000000000000b0 .L0 
     /tmp/ccJnFhoZ.s:155    .text:00000000000000b0 .L0 
     /tmp/ccJnFhoZ.s:156    .text:00000000000000b0 .L0 
src/kernel/core/../../../h/../h/riscv.hpp:87     .text:00000000000000b0 .L0 
     /tmp/ccJnFhoZ.s:166    .text:00000000000000b4 .L0 
     /tmp/ccJnFhoZ.s:167    .text:00000000000000b4 .L0 
     /tmp/ccJnFhoZ.s:171    .text:00000000000000c4 .L0 
     /tmp/ccJnFhoZ.s:177    .text:00000000000000d8 .L0 
     /tmp/ccJnFhoZ.s:181    .text:00000000000000e8 .L0 
     /tmp/ccJnFhoZ.s:182    .text:00000000000000e8 .L0 
     /tmp/ccJnFhoZ.s:185    .text:00000000000000f0 .L0 
     /tmp/ccJnFhoZ.s:191    .text:00000000000000f8 .L0 
     /tmp/ccJnFhoZ.s:192    .text:00000000000000f8 .L0 
     /tmp/ccJnFhoZ.s:193    .text:00000000000000f8 .L0 
src/kernel/core/../../../h/../h/riscv.hpp:220    .text:00000000000000f8 .L0 
     /tmp/ccJnFhoZ.s:201    .text:0000000000000100 .L0 
     /tmp/ccJnFhoZ.s:202    .text:0000000000000100 .L0 
     /tmp/ccJnFhoZ.s:207    .text:0000000000000104 .L0 
     /tmp/ccJnFhoZ.s:208    .text:0000000000000104 .L0 
     /tmp/ccJnFhoZ.s:213    .text:000000000000010c .L0 
     /tmp/ccJnFhoZ.s:214    .text:000000000000010c .L0 
src/kernel/core/../../../h/../h/riscv.hpp:215    .text:000000000000010c .L0 
     /tmp/ccJnFhoZ.s:225    .text:0000000000000110 .L0 
     /tmp/ccJnFhoZ.s:226    .text:0000000000000110 .L0 
     /tmp/ccJnFhoZ.s:228    .text:0000000000000118 .L0 
     /tmp/ccJnFhoZ.s:229    .text:0000000000000118 .L0 
     /tmp/ccJnFhoZ.s:231    .text:000000000000011c .L0 
     /tmp/ccJnFhoZ.s:232    .text:000000000000011c .L0 
     /tmp/ccJnFhoZ.s:234    .text:0000000000000120 .L0 
     /tmp/ccJnFhoZ.s:236    .text:0000000000000124 .L0 
     /tmp/ccJnFhoZ.s:238    .text:0000000000000128 .L0 
     /tmp/ccJnFhoZ.s:242    .text:000000000000012c .L0 
     /tmp/ccJnFhoZ.s:244    .text:000000000000012c .L0 
     /tmp/ccJnFhoZ.s:245    .text:000000000000012c .L0 
     /tmp/ccJnFhoZ.s:249    .text:000000000000013c .L0 
     /tmp/ccJnFhoZ.s:250    .text:000000000000013c .L0 
     /tmp/ccJnFhoZ.s:253    .text:0000000000000144 .L0 
     /tmp/ccJnFhoZ.s:259    .text:0000000000000144 main
     /tmp/ccJnFhoZ.s:262    .text:0000000000000144 .L0 
     /tmp/ccJnFhoZ.s:263    .text:0000000000000144 .L0 
     /tmp/ccJnFhoZ.s:264    .text:0000000000000148 .L0 
     /tmp/ccJnFhoZ.s:267    .text:0000000000000150 .L0 
     /tmp/ccJnFhoZ.s:268    .text:0000000000000150 .L0 
     /tmp/ccJnFhoZ.s:270    .text:0000000000000154 .L0 
     /tmp/ccJnFhoZ.s:272    .text:0000000000000154 .L0 
     /tmp/ccJnFhoZ.s:273    .text:0000000000000154 .L0 
     /tmp/ccJnFhoZ.s:276    .text:000000000000015c .L0 
     /tmp/ccJnFhoZ.s:277    .text:0000000000000160 .L0 
     /tmp/ccJnFhoZ.s:279    .text:0000000000000164 .L0 
     /tmp/ccJnFhoZ.s:280    .text:0000000000000164 .L0 
     /tmp/ccJnFhoZ.s:282    .text:0000000000000168 .L0 
     /tmp/ccJnFhoZ.s:284    .text:000000000000016c .L0 
     /tmp/ccJnFhoZ.s:315    .text:000000000000016c .L0 
     /tmp/ccJnFhoZ.s:292    .rodata.str1.8:0000000000000028 .LC1
     /tmp/ccJnFhoZ.s:73     .text:000000000000003c .L0 
GAS LISTING /tmp/ccJnFhoZ.s 			page 15


     /tmp/ccJnFhoZ.s:295    .rodata.str1.8:0000000000000040 .LC2
     /tmp/ccJnFhoZ.s:96     .text:0000000000000058 .L0 
     /tmp/ccJnFhoZ.s:289    .rodata.str1.8:0000000000000000 .LC0
     /tmp/ccJnFhoZ.s:121    .text:0000000000000080 .L0 
     /tmp/ccJnFhoZ.s:298    .rodata.str1.8:0000000000000060 .LC3
     /tmp/ccJnFhoZ.s:167    .text:00000000000000b4 .L0 
     /tmp/ccJnFhoZ.s:301    .rodata.str1.8:0000000000000068 .LC4
     /tmp/ccJnFhoZ.s:177    .text:00000000000000d8 .L0 
     /tmp/ccJnFhoZ.s:304    .rodata.str1.8:0000000000000070 .LC5
     /tmp/ccJnFhoZ.s:245    .text:000000000000012c .L0 
     /tmp/ccJnFhoZ.s:117    .text:0000000000000080 .L5
     /tmp/ccJnFhoZ.s:103    .text:000000000000006c .L3
     /tmp/ccJnFhoZ.s:241    .text:000000000000012c .L10
     /tmp/ccJnFhoZ.s:224    .text:0000000000000110 .L8
     /tmp/ccJnFhoZ.s:2351   .debug_abbrev:0000000000000000 .Ldebug_abbrev0
     /tmp/ccJnFhoZ.s:3704   .debug_str:0000000000000599 .LASF271
     /tmp/ccJnFhoZ.s:3612   .debug_str:0000000000000291 .LASF272
     /tmp/ccJnFhoZ.s:3918   .debug_str:0000000000000c86 .LASF273
     /tmp/ccJnFhoZ.s:8      .text:0000000000000000 .Ltext0
     /tmp/ccJnFhoZ.s:307    .text:000000000000016c .Letext0
     /tmp/ccJnFhoZ.s:3516   .debug_line:0000000000000000 .Ldebug_line0
     /tmp/ccJnFhoZ.s:3552   .debug_str:00000000000000dc .LASF0
     /tmp/ccJnFhoZ.s:4024   .debug_str:0000000000000f67 .LASF1
     /tmp/ccJnFhoZ.s:4018   .debug_str:0000000000000f34 .LASF3
     /tmp/ccJnFhoZ.s:3966   .debug_str:0000000000000dbc .LASF2
     /tmp/ccJnFhoZ.s:3930   .debug_str:0000000000000cd9 .LASF4
     /tmp/ccJnFhoZ.s:3940   .debug_str:0000000000000d09 .LASF5
     /tmp/ccJnFhoZ.s:3662   .debug_str:0000000000000478 .LASF6
     /tmp/ccJnFhoZ.s:3756   .debug_str:00000000000007f9 .LASF7
     /tmp/ccJnFhoZ.s:3730   .debug_str:000000000000072a .LASF8
     /tmp/ccJnFhoZ.s:3876   .debug_str:0000000000000b70 .LASF9
     /tmp/ccJnFhoZ.s:3580   .debug_str:0000000000000181 .LASF10
     /tmp/ccJnFhoZ.s:4008   .debug_str:0000000000000ef6 .LASF11
     /tmp/ccJnFhoZ.s:3670   .debug_str:000000000000049c .LASF12
     /tmp/ccJnFhoZ.s:3614   .debug_str:00000000000002aa .LASF13
     /tmp/ccJnFhoZ.s:3758   .debug_str:0000000000000800 .LASF14
     /tmp/ccJnFhoZ.s:3678   .debug_str:00000000000004bf .LASF15
     /tmp/ccJnFhoZ.s:3914   .debug_str:0000000000000c75 .LASF16
     /tmp/ccJnFhoZ.s:3680   .debug_str:00000000000004cf .LASF17
     /tmp/ccJnFhoZ.s:3648   .debug_str:0000000000000404 .LASF18
     /tmp/ccJnFhoZ.s:4056   .debug_str:0000000000001040 .LASF65
     /tmp/ccJnFhoZ.s:3554   .debug_str:00000000000000e9 .LASF19
     /tmp/ccJnFhoZ.s:3588   .debug_str:00000000000001a7 .LASF20
     /tmp/ccJnFhoZ.s:3594   .debug_str:0000000000000202 .LASF67
     /tmp/ccJnFhoZ.s:3890   .debug_str:0000000000000bd7 .LASF26
     /tmp/ccJnFhoZ.s:3698   .debug_str:0000000000000575 .LASF97
     /tmp/ccJnFhoZ.s:3560   .debug_str:0000000000000109 .LASF21
     /tmp/ccJnFhoZ.s:3980   .debug_str:0000000000000e1f .LASF22
     /tmp/ccJnFhoZ.s:4046   .debug_str:0000000000000ff7 .LASF23
     /tmp/ccJnFhoZ.s:3538   .debug_str:000000000000008e .LASF24
     /tmp/ccJnFhoZ.s:3778   .debug_str:0000000000000889 .LASF25
     /tmp/ccJnFhoZ.s:3640   .debug_str:000000000000039f .LASF31
     /tmp/ccJnFhoZ.s:3592   .debug_str:00000000000001cf .LASF28
     /tmp/ccJnFhoZ.s:3848   .debug_str:0000000000000abc .LASF27
     /tmp/ccJnFhoZ.s:3854   .debug_str:0000000000000ae6 .LASF29
     /tmp/ccJnFhoZ.s:3842   .debug_str:0000000000000a92 .LASF39
     /tmp/ccJnFhoZ.s:3688   .debug_str:000000000000053c .LASF41
GAS LISTING /tmp/ccJnFhoZ.s 			page 16


     /tmp/ccJnFhoZ.s:3696   .debug_str:000000000000056b .LASF30
     /tmp/ccJnFhoZ.s:3714   .debug_str:00000000000006a5 .LASF32
     /tmp/ccJnFhoZ.s:3734   .debug_str:0000000000000744 .LASF33
     /tmp/ccJnFhoZ.s:3826   .debug_str:00000000000009f1 .LASF34
     /tmp/ccJnFhoZ.s:3844   .debug_str:0000000000000aa2 .LASF35
     /tmp/ccJnFhoZ.s:3786   .debug_str:00000000000008bd .LASF36
     /tmp/ccJnFhoZ.s:3970   .debug_str:0000000000000dd1 .LASF37
     /tmp/ccJnFhoZ.s:3834   .debug_str:0000000000000a53 .LASF38
     /tmp/ccJnFhoZ.s:4006   .debug_str:0000000000000ee9 .LASF40
     /tmp/ccJnFhoZ.s:3828   .debug_str:0000000000000a0e .LASF42
     /tmp/ccJnFhoZ.s:3534   .debug_str:0000000000000075 .LASF43
     /tmp/ccJnFhoZ.s:3830   .debug_str:0000000000000a30 .LASF44
     /tmp/ccJnFhoZ.s:3920   .debug_str:0000000000000ca9 .LASF45
     /tmp/ccJnFhoZ.s:3582   .debug_str:0000000000000191 .LASF46
     /tmp/ccJnFhoZ.s:3960   .debug_str:0000000000000d9c .LASF47
     /tmp/ccJnFhoZ.s:3964   .debug_str:0000000000000db7 .LASF48
     /tmp/ccJnFhoZ.s:3808   .debug_str:0000000000000965 .LASF49
     /tmp/ccJnFhoZ.s:3798   .debug_str:0000000000000910 .LASF50
     /tmp/ccJnFhoZ.s:3950   .debug_str:0000000000000d5c .LASF51
     /tmp/ccJnFhoZ.s:3892   .debug_str:0000000000000be3 .LASF52
     /tmp/ccJnFhoZ.s:3562   .debug_str:000000000000010e .LASF53
     /tmp/ccJnFhoZ.s:3868   .debug_str:0000000000000b54 .LASF54
     /tmp/ccJnFhoZ.s:3988   .debug_str:0000000000000e66 .LASF55
     /tmp/ccJnFhoZ.s:3824   .debug_str:00000000000009cb .LASF56
     /tmp/ccJnFhoZ.s:3810   .debug_str:000000000000096f .LASF57
     /tmp/ccJnFhoZ.s:3908   .debug_str:0000000000000c35 .LASF58
     /tmp/ccJnFhoZ.s:3690   .debug_str:0000000000000552 .LASF59
     /tmp/ccJnFhoZ.s:3590   .debug_str:00000000000001ac .LASF60
     /tmp/ccJnFhoZ.s:3948   .debug_str:0000000000000d4e .LASF61
     /tmp/ccJnFhoZ.s:3686   .debug_str:0000000000000519 .LASF62
     /tmp/ccJnFhoZ.s:4014   .debug_str:0000000000000f16 .LASF63
     /tmp/ccJnFhoZ.s:3644   .debug_str:00000000000003c7 .LASF64
     /tmp/ccJnFhoZ.s:3992   .debug_str:0000000000000e76 .LASF66
     /tmp/ccJnFhoZ.s:3682   .debug_str:00000000000004e5 .LASF68
     /tmp/ccJnFhoZ.s:3722   .debug_str:00000000000006dd .LASF69
     /tmp/ccJnFhoZ.s:3916   .debug_str:0000000000000c81 .LASF70
     /tmp/ccJnFhoZ.s:4070   .debug_str:000000000000109c .LASF148
     /tmp/ccJnFhoZ.s:3870   .debug_str:0000000000000b59 .LASF71
     /tmp/ccJnFhoZ.s:3572   .debug_str:0000000000000141 .LASF72
     /tmp/ccJnFhoZ.s:3790   .debug_str:00000000000008dd .LASF73
     /tmp/ccJnFhoZ.s:3932   .debug_str:0000000000000ce0 .LASF74
     /tmp/ccJnFhoZ.s:3622   .debug_str:00000000000002f3 .LASF75
     /tmp/ccJnFhoZ.s:3794   .debug_str:00000000000008e9 .LASF76
     /tmp/ccJnFhoZ.s:4064   .debug_str:0000000000001078 .LASF77
     /tmp/ccJnFhoZ.s:4044   .debug_str:0000000000000fe4 .LASF78
     /tmp/ccJnFhoZ.s:3860   .debug_str:0000000000000b20 .LASF79
     /tmp/ccJnFhoZ.s:3748   .debug_str:00000000000007ba .LASF80
     /tmp/ccJnFhoZ.s:3664   .debug_str:000000000000047f .LASF81
     /tmp/ccJnFhoZ.s:3846   .debug_str:0000000000000aa9 .LASF82
     /tmp/ccJnFhoZ.s:3632   .debug_str:0000000000000340 .LASF83
     /tmp/ccJnFhoZ.s:3796   .debug_str:0000000000000906 .LASF255
     /tmp/ccJnFhoZ.s:3864   .debug_str:0000000000000b36 .LASF257
     /tmp/ccJnFhoZ.s:3524   .debug_str:000000000000002c .LASF84
     /tmp/ccJnFhoZ.s:4060   .debug_str:0000000000001055 .LASF85
     /tmp/ccJnFhoZ.s:3872   .debug_str:0000000000000b60 .LASF86
     /tmp/ccJnFhoZ.s:3850   .debug_str:0000000000000ac9 .LASF87
     /tmp/ccJnFhoZ.s:3528   .debug_str:0000000000000044 .LASF88
GAS LISTING /tmp/ccJnFhoZ.s 			page 17


     /tmp/ccJnFhoZ.s:4062   .debug_str:0000000000001068 .LASF89
     /tmp/ccJnFhoZ.s:3694   .debug_str:0000000000000566 .LASF90
     /tmp/ccJnFhoZ.s:3616   .debug_str:00000000000002b9 .LASF91
     /tmp/ccJnFhoZ.s:3584   .debug_str:0000000000000197 .LASF92
     /tmp/ccJnFhoZ.s:3636   .debug_str:0000000000000375 .LASF93
     /tmp/ccJnFhoZ.s:3702   .debug_str:0000000000000590 .LASF94
     /tmp/ccJnFhoZ.s:3752   .debug_str:00000000000007d9 .LASF95
     /tmp/ccJnFhoZ.s:3906   .debug_str:0000000000000c30 .LASF96
     /tmp/ccJnFhoZ.s:3780   .debug_str:0000000000000893 .LASF98
     /tmp/ccJnFhoZ.s:3922   .debug_str:0000000000000cae .LASF99
     /tmp/ccJnFhoZ.s:3782   .debug_str:000000000000089c .LASF100
     /tmp/ccJnFhoZ.s:3720   .debug_str:00000000000006d4 .LASF101
     /tmp/ccJnFhoZ.s:4066   .debug_str:0000000000001080 .LASF102
     /tmp/ccJnFhoZ.s:3750   .debug_str:00000000000007cf .LASF103
     /tmp/ccJnFhoZ.s:3874   .debug_str:0000000000000b68 .LASF274
     /tmp/ccJnFhoZ.s:3706   .debug_str:000000000000065d .LASF104
     /tmp/ccJnFhoZ.s:3526   .debug_str:0000000000000034 .LASF105
     /tmp/ccJnFhoZ.s:3862   .debug_str:0000000000000b2a .LASF106
     /tmp/ccJnFhoZ.s:3566   .debug_str:000000000000011d .LASF107
     /tmp/ccJnFhoZ.s:3642   .debug_str:00000000000003b4 .LASF108
     /tmp/ccJnFhoZ.s:3912   .debug_str:0000000000000c68 .LASF109
     /tmp/ccJnFhoZ.s:4040   .debug_str:0000000000000fcd .LASF110
     /tmp/ccJnFhoZ.s:3816   .debug_str:0000000000000995 .LASF111
     /tmp/ccJnFhoZ.s:4034   .debug_str:0000000000000fa0 .LASF112
     /tmp/ccJnFhoZ.s:3726   .debug_str:00000000000006e9 .LASF113
     /tmp/ccJnFhoZ.s:3852   .debug_str:0000000000000add .LASF114
     /tmp/ccJnFhoZ.s:4036   .debug_str:0000000000000fa9 .LASF115
     /tmp/ccJnFhoZ.s:3718   .debug_str:00000000000006cd .LASF116
     /tmp/ccJnFhoZ.s:3520   .debug_str:0000000000000007 .LASF117
     /tmp/ccJnFhoZ.s:3716   .debug_str:00000000000006c2 .LASF118
     /tmp/ccJnFhoZ.s:3984   .debug_str:0000000000000e42 .LASF119
     /tmp/ccJnFhoZ.s:3596   .debug_str:0000000000000216 .LASF120
     /tmp/ccJnFhoZ.s:3764   .debug_str:000000000000082a .LASF121
     /tmp/ccJnFhoZ.s:3936   .debug_str:0000000000000cf7 .LASF122
     /tmp/ccJnFhoZ.s:3630   .debug_str:0000000000000329 .LASF123
     /tmp/ccJnFhoZ.s:3820   .debug_str:00000000000009b2 .LASF124
     /tmp/ccJnFhoZ.s:4020   .debug_str:0000000000000f3a .LASF125
     /tmp/ccJnFhoZ.s:3882   .debug_str:0000000000000b96 .LASF126
     /tmp/ccJnFhoZ.s:3656   .debug_str:000000000000044b .LASF127
     /tmp/ccJnFhoZ.s:3770   .debug_str:000000000000085b .LASF128
     /tmp/ccJnFhoZ.s:3604   .debug_str:000000000000024b .LASF129
     /tmp/ccJnFhoZ.s:3652   .debug_str:0000000000000430 .LASF130
     /tmp/ccJnFhoZ.s:3800   .debug_str:000000000000091a .LASF131
     /tmp/ccJnFhoZ.s:3692   .debug_str:0000000000000561 .LASF275
     /tmp/ccJnFhoZ.s:3772   .debug_str:000000000000086a .LASF132
     /tmp/ccJnFhoZ.s:4038   .debug_str:0000000000000fbd .LASF134
     /tmp/ccJnFhoZ.s:3762   .debug_str:0000000000000821 .LASF133
     /tmp/ccJnFhoZ.s:3976   .debug_str:0000000000000e05 .LASF135
     /tmp/ccJnFhoZ.s:3896   .debug_str:0000000000000bf0 .LASF136
     /tmp/ccJnFhoZ.s:3712   .debug_str:000000000000068b .LASF137
     /tmp/ccJnFhoZ.s:3990   .debug_str:0000000000000e70 .LASF138
     /tmp/ccJnFhoZ.s:3766   .debug_str:0000000000000843 .LASF139
     /tmp/ccJnFhoZ.s:3740   .debug_str:0000000000000772 .LASF140
     /tmp/ccJnFhoZ.s:3728   .debug_str:0000000000000708 .LASF142
     /tmp/ccJnFhoZ.s:3564   .debug_str:0000000000000113 .LASF141
     /tmp/ccJnFhoZ.s:4022   .debug_str:0000000000000f53 .LASF143
     /tmp/ccJnFhoZ.s:3666   .debug_str:0000000000000487 .LASF144
GAS LISTING /tmp/ccJnFhoZ.s 			page 18


     /tmp/ccJnFhoZ.s:3944   .debug_str:0000000000000d21 .LASF145
     /tmp/ccJnFhoZ.s:3700   .debug_str:0000000000000582 .LASF146
     /tmp/ccJnFhoZ.s:3530   .debug_str:0000000000000049 .LASF147
     /tmp/ccJnFhoZ.s:3974   .debug_str:0000000000000df4 .LASF149
     /tmp/ccJnFhoZ.s:3894   .debug_str:0000000000000be8 .LASF150
     /tmp/ccJnFhoZ.s:3754   .debug_str:00000000000007ee .LASF151
     /tmp/ccJnFhoZ.s:3832   .debug_str:0000000000000a4d .LASF152
     /tmp/ccJnFhoZ.s:4010   .debug_str:0000000000000f04 .LASF153
     /tmp/ccJnFhoZ.s:3954   .debug_str:0000000000000d76 .LASF154
     /tmp/ccJnFhoZ.s:4048   .debug_str:0000000000001001 .LASF155
     /tmp/ccJnFhoZ.s:3958   .debug_str:0000000000000d97 .LASF156
     /tmp/ccJnFhoZ.s:3586   .debug_str:00000000000001a2 .LASF157
     /tmp/ccJnFhoZ.s:3926   .debug_str:0000000000000cc9 .LASF158
     /tmp/ccJnFhoZ.s:3540   .debug_str:0000000000000096 .LASF159
     /tmp/ccJnFhoZ.s:3994   .debug_str:0000000000000e88 .LASF160
     /tmp/ccJnFhoZ.s:3838   .debug_str:0000000000000a7d .LASF161
     /tmp/ccJnFhoZ.s:3840   .debug_str:0000000000000a89 .LASF162
     /tmp/ccJnFhoZ.s:3550   .debug_str:00000000000000d5 .LASF163
     /tmp/ccJnFhoZ.s:3880   .debug_str:0000000000000b8e .LASF164
     /tmp/ccJnFhoZ.s:3620   .debug_str:00000000000002dc .LASF276
     /tmp/ccJnFhoZ.s:4058   .debug_str:0000000000001047 .LASF167
     /tmp/ccJnFhoZ.s:3972   .debug_str:0000000000000ddb .LASF169
     /tmp/ccJnFhoZ.s:4002   .debug_str:0000000000000ec6 .LASF165
     /tmp/ccJnFhoZ.s:3634   .debug_str:000000000000034d .LASF166
     /tmp/ccJnFhoZ.s:3556   .debug_str:00000000000000ee .LASF168
     /tmp/ccJnFhoZ.s:3902   .debug_str:0000000000000c14 .LASF170
     /tmp/ccJnFhoZ.s:3600   .debug_str:0000000000000237 .LASF171
     /tmp/ccJnFhoZ.s:3900   .debug_str:0000000000000c0b .LASF172
     /tmp/ccJnFhoZ.s:3578   .debug_str:000000000000016c .LASF173
     /tmp/ccJnFhoZ.s:4052   .debug_str:000000000000101f .LASF174
     /tmp/ccJnFhoZ.s:4004   .debug_str:0000000000000ed4 .LASF175
     /tmp/ccJnFhoZ.s:3660   .debug_str:0000000000000471 .LASF176
     /tmp/ccJnFhoZ.s:3574   .debug_str:000000000000014e .LASF177
     /tmp/ccJnFhoZ.s:3626   .debug_str:0000000000000311 .LASF178
     /tmp/ccJnFhoZ.s:3638   .debug_str:000000000000038c .LASF179
     /tmp/ccJnFhoZ.s:3568   .debug_str:000000000000012a .LASF180
     /tmp/ccJnFhoZ.s:3956   .debug_str:0000000000000d83 .LASF181
     /tmp/ccJnFhoZ.s:3904   .debug_str:0000000000000c28 .LASF182
     /tmp/ccJnFhoZ.s:3598   .debug_str:0000000000000223 .LASF183
     /tmp/ccJnFhoZ.s:4030   .debug_str:0000000000000f93 .LASF184
     /tmp/ccJnFhoZ.s:3910   .debug_str:0000000000000c54 .LASF185
     /tmp/ccJnFhoZ.s:3768   .debug_str:0000000000000853 .LASF186
     /tmp/ccJnFhoZ.s:3738   .debug_str:000000000000075e .LASF187
     /tmp/ccJnFhoZ.s:3684   .debug_str:0000000000000511 .LASF188
     /tmp/ccJnFhoZ.s:3522   .debug_str:0000000000000018 .LASF189
     /tmp/ccJnFhoZ.s:3518   .debug_str:0000000000000000 .LASF190
     /tmp/ccJnFhoZ.s:4068   .debug_str:0000000000001089 .LASF191
     /tmp/ccJnFhoZ.s:4026   .debug_str:0000000000000f7a .LASF192
     /tmp/ccJnFhoZ.s:3618   .debug_str:00000000000002c9 .LASF193
     /tmp/ccJnFhoZ.s:3978   .debug_str:0000000000000e18 .LASF194
     /tmp/ccJnFhoZ.s:3812   .debug_str:000000000000097a .LASF195
     /tmp/ccJnFhoZ.s:3732   .debug_str:000000000000073d .LASF196
     /tmp/ccJnFhoZ.s:3962   .debug_str:0000000000000da4 .LASF197
     /tmp/ccJnFhoZ.s:3942   .debug_str:0000000000000d1b .LASF198
     /tmp/ccJnFhoZ.s:3856   .debug_str:0000000000000afb .LASF199
     /tmp/ccJnFhoZ.s:3792   .debug_str:00000000000008e3 .LASF200
     /tmp/ccJnFhoZ.s:4042   .debug_str:0000000000000fd2 .LASF201
GAS LISTING /tmp/ccJnFhoZ.s 			page 19


     /tmp/ccJnFhoZ.s:3968   .debug_str:0000000000000dca .LASF202
     /tmp/ccJnFhoZ.s:3924   .debug_str:0000000000000cb6 .LASF203
     /tmp/ccJnFhoZ.s:3724   .debug_str:00000000000006e2 .LASF204
     /tmp/ccJnFhoZ.s:3624   .debug_str:00000000000002fe .LASF205
     /tmp/ccJnFhoZ.s:3938   .debug_str:0000000000000d03 .LASF206
     /tmp/ccJnFhoZ.s:3646   .debug_str:00000000000003f2 .LASF207
     /tmp/ccJnFhoZ.s:3788   .debug_str:00000000000008d7 .LASF208
     /tmp/ccJnFhoZ.s:3806   .debug_str:0000000000000953 .LASF209
     /tmp/ccJnFhoZ.s:3888   .debug_str:0000000000000bcc .LASF210
     /tmp/ccJnFhoZ.s:4054   .debug_str:0000000000001028 .LASF211
     /tmp/ccJnFhoZ.s:3576   .debug_str:0000000000000161 .LASF212
     /tmp/ccJnFhoZ.s:3886   .debug_str:0000000000000bb4 .LASF213
     /tmp/ccJnFhoZ.s:3928   .debug_str:0000000000000ccf .LASF214
     /tmp/ccJnFhoZ.s:3742   .debug_str:0000000000000789 .LASF215
     /tmp/ccJnFhoZ.s:3676   .debug_str:00000000000004b5 .LASF216
     /tmp/ccJnFhoZ.s:3650   .debug_str:000000000000041a .LASF217
     /tmp/ccJnFhoZ.s:3804   .debug_str:000000000000094e .LASF218
     /tmp/ccJnFhoZ.s:3760   .debug_str:0000000000000810 .LASF219
     /tmp/ccJnFhoZ.s:3546   .debug_str:00000000000000cb .LASF220
     /tmp/ccJnFhoZ.s:3946   .debug_str:0000000000000d3d .LASF221
     /tmp/ccJnFhoZ.s:4012   .debug_str:0000000000000f11 .LASF222
     /tmp/ccJnFhoZ.s:3558   .debug_str:00000000000000f8 .LASF223
     /tmp/ccJnFhoZ.s:3668   .debug_str:0000000000000497 .LASF224
     /tmp/ccJnFhoZ.s:3606   .debug_str:0000000000000265 .LASF225
     /tmp/ccJnFhoZ.s:3548   .debug_str:00000000000000d0 .LASF226
     /tmp/ccJnFhoZ.s:3818   .debug_str:00000000000009a1 .LASF227
     /tmp/ccJnFhoZ.s:3672   .debug_str:00000000000004ab .LASF228
     /tmp/ccJnFhoZ.s:3736   .debug_str:000000000000074d .LASF229
     /tmp/ccJnFhoZ.s:3674   .debug_str:00000000000004b0 .LASF230
     /tmp/ccJnFhoZ.s:3628   .debug_str:0000000000000318 .LASF231
     /tmp/ccJnFhoZ.s:3746   .debug_str:00000000000007ad .LASF232
     /tmp/ccJnFhoZ.s:3982   .debug_str:0000000000000e28 .LASF233
     /tmp/ccJnFhoZ.s:3602   .debug_str:000000000000023d .LASF234
     /tmp/ccJnFhoZ.s:3784   .debug_str:00000000000008a2 .LASF235
     /tmp/ccJnFhoZ.s:3878   .debug_str:0000000000000b83 .LASF236
     /tmp/ccJnFhoZ.s:3996   .debug_str:0000000000000e8e .LASF237
     /tmp/ccJnFhoZ.s:3608   .debug_str:0000000000000276 .LASF238
     /tmp/ccJnFhoZ.s:3710   .debug_str:0000000000000673 .LASF239
     /tmp/ccJnFhoZ.s:3866   .debug_str:0000000000000b46 .LASF240
     /tmp/ccJnFhoZ.s:3542   .debug_str:00000000000000a0 .LASF241
     /tmp/ccJnFhoZ.s:3934   .debug_str:0000000000000ce5 .LASF242
     /tmp/ccJnFhoZ.s:3658   .debug_str:0000000000000466 .LASF243
     /tmp/ccJnFhoZ.s:3802   .debug_str:000000000000093c .LASF244
     /tmp/ccJnFhoZ.s:3998   .debug_str:0000000000000ea6 .LASF245
     /tmp/ccJnFhoZ.s:3544   .debug_str:00000000000000bb .LASF246
     /tmp/ccJnFhoZ.s:3898   .debug_str:0000000000000bfd .LASF247
     /tmp/ccJnFhoZ.s:3570   .debug_str:0000000000000132 .LASF248
     /tmp/ccJnFhoZ.s:4016   .debug_str:0000000000000f27 .LASF249
     /tmp/ccJnFhoZ.s:3952   .debug_str:0000000000000d66 .LASF250
     /tmp/ccJnFhoZ.s:3986   .debug_str:0000000000000e58 .LASF251
     /tmp/ccJnFhoZ.s:4028   .debug_str:0000000000000f81 .LASF252
     /tmp/ccJnFhoZ.s:3610   .debug_str:0000000000000281 .LASF253
     /tmp/ccJnFhoZ.s:4032   .debug_str:0000000000000f9b .LASF254
     /tmp/ccJnFhoZ.s:260    .text:0000000000000144 .LFB115
     /tmp/ccJnFhoZ.s:285    .text:000000000000016c .LFE115
     /tmp/ccJnFhoZ.s:274    .text:000000000000015c .LVL26
     /tmp/ccJnFhoZ.s:3744   .debug_str:000000000000079f .LASF256
GAS LISTING /tmp/ccJnFhoZ.s 			page 20


     /tmp/ccJnFhoZ.s:3532   .debug_str:0000000000000062 .LASF258
     /tmp/ccJnFhoZ.s:136    .text:0000000000000098 .LFB114
     /tmp/ccJnFhoZ.s:254    .text:0000000000000144 .LFE114
     /tmp/ccJnFhoZ.s:3439   .debug_loc:0000000000000000 .LLST5
     /tmp/ccJnFhoZ.s:3814   .debug_str:000000000000098d .LASF259
     /tmp/ccJnFhoZ.s:3450   .debug_loc:0000000000000036 .LLST6
     /tmp/ccJnFhoZ.s:152    .text:00000000000000b0 .LBB16
     /tmp/ccJnFhoZ.s:165    .text:00000000000000b4 .LBE16
     /tmp/ccJnFhoZ.s:153    .text:00000000000000b0 .LBB17
     /tmp/ccJnFhoZ.s:164    .text:00000000000000b4 .LBE17
     /tmp/ccJnFhoZ.s:189    .text:00000000000000f8 .LBB18
     /tmp/ccJnFhoZ.s:205    .text:0000000000000104 .LBE18
     /tmp/ccJnFhoZ.s:190    .text:00000000000000f8 .LBB19
     /tmp/ccJnFhoZ.s:204    .text:0000000000000104 .LBE19
     /tmp/ccJnFhoZ.s:211    .text:000000000000010c .LBB20
     /tmp/ccJnFhoZ.s:222    .text:0000000000000110 .LBE20
     /tmp/ccJnFhoZ.s:3457   .debug_loc:0000000000000059 .LLST7
     /tmp/ccJnFhoZ.s:169    .text:00000000000000c4 .LVL15
     /tmp/ccJnFhoZ.s:175    .text:00000000000000d8 .LVL16
     /tmp/ccJnFhoZ.s:179    .text:00000000000000e8 .LVL17
     /tmp/ccJnFhoZ.s:183    .text:00000000000000f0 .LVL18
     /tmp/ccJnFhoZ.s:209    .text:000000000000010c .LVL21
     /tmp/ccJnFhoZ.s:247    .text:000000000000013c .LVL24
     /tmp/ccJnFhoZ.s:3884   .debug_str:0000000000000ba6 .LASF260
     /tmp/ccJnFhoZ.s:3858   .debug_str:0000000000000b0d .LASF261
     /tmp/ccJnFhoZ.s:13     .text:0000000000000000 .LFB113
     /tmp/ccJnFhoZ.s:130    .text:0000000000000098 .LFE113
     /tmp/ccJnFhoZ.s:3464   .debug_loc:000000000000007c .LLST0
     /tmp/ccJnFhoZ.s:3471   .debug_loc:000000000000009f .LLST1
     /tmp/ccJnFhoZ.s:3774   .debug_str:0000000000000870 .LASF262
     /tmp/ccJnFhoZ.s:3478   .debug_loc:00000000000000c2 .LLST2
     /tmp/ccJnFhoZ.s:3489   .debug_loc:00000000000000f8 .LLST3
     /tmp/ccJnFhoZ.s:53     .text:0000000000000030 .LBB12
     /tmp/ccJnFhoZ.s:70     .text:000000000000003c .LBE12
     /tmp/ccJnFhoZ.s:54     .text:0000000000000030 .LBB13
     /tmp/ccJnFhoZ.s:69     .text:000000000000003c .LBE13
     /tmp/ccJnFhoZ.s:82     .text:0000000000000054 .LBB14
     /tmp/ccJnFhoZ.s:93     .text:0000000000000058 .LBE14
     /tmp/ccJnFhoZ.s:3496   .debug_loc:000000000000011b .LLST4
     /tmp/ccJnFhoZ.s:45     .text:0000000000000024 .LVL2
     /tmp/ccJnFhoZ.s:49     .text:000000000000002c .LVL3
     /tmp/ccJnFhoZ.s:76     .text:000000000000004c .LVL6
     /tmp/ccJnFhoZ.s:80     .text:0000000000000054 .LVL7
     /tmp/ccJnFhoZ.s:98     .text:0000000000000068 .LVL9
     /tmp/ccJnFhoZ.s:124    .text:0000000000000090 .LVL13
     /tmp/ccJnFhoZ.s:4050   .debug_str:000000000000100b .LASF263
     /tmp/ccJnFhoZ.s:3836   .debug_str:0000000000000a70 .LASF265
     /tmp/ccJnFhoZ.s:4000   .debug_str:0000000000000eb6 .LASF264
     /tmp/ccJnFhoZ.s:3708   .debug_str:0000000000000669 .LASF266
     /tmp/ccJnFhoZ.s:3776   .debug_str:0000000000000876 .LASF267
     /tmp/ccJnFhoZ.s:3654   .debug_str:000000000000043d .LASF268
     /tmp/ccJnFhoZ.s:3536   .debug_str:000000000000007e .LASF269
     /tmp/ccJnFhoZ.s:3822   .debug_str:00000000000009c0 .LASF270
     /tmp/ccJnFhoZ.s:161    .text:00000000000000b4 .LVL14
     /tmp/ccJnFhoZ.s:187    .text:00000000000000f8 .LVL19
     /tmp/ccJnFhoZ.s:240    .text:000000000000012c .LVL23
     /tmp/ccJnFhoZ.s:251    .text:0000000000000140 .LVL25
GAS LISTING /tmp/ccJnFhoZ.s 			page 21


     /tmp/ccJnFhoZ.s:203    .text:0000000000000104 .LVL20
     /tmp/ccJnFhoZ.s:219    .text:0000000000000110 .LVL22
     /tmp/ccJnFhoZ.s:34     .text:0000000000000018 .LVL0
     /tmp/ccJnFhoZ.s:40     .text:000000000000001c .LVL1
     /tmp/ccJnFhoZ.s:74     .text:0000000000000044 .LVL5
     /tmp/ccJnFhoZ.s:116    .text:0000000000000080 .LVL11
     /tmp/ccJnFhoZ.s:122    .text:0000000000000088 .LVL12
     /tmp/ccJnFhoZ.s:68     .text:000000000000003c .LVL4
     /tmp/ccJnFhoZ.s:102    .text:000000000000006c .LVL10
     /tmp/ccJnFhoZ.s:90     .text:0000000000000058 .LVL8
     /tmp/ccJnFhoZ.s:316    .debug_info:0000000000000000 .Ldebug_info0

UNDEFINED SYMBOLS
_ZN3TCB15setPanicContextEmm
_Z10kernelInitv
_Z12kprintStringPKc
_ZN3TCB5yieldEv
_Z9kprintIntmib
_Z13newKernelInitv
