GAS LISTING /tmp/ccJnFhoZ.s 			page 1


   1              		.file	"main.cpp"
   2              		.option nopic
   3              		.option norelax
   4              		.attribute arch, "rv64i2p0_m2p0_a2p0"
   5              		.attribute unaligned_access, 0
   6              		.attribute stack_align, 16
   7              		.text
   8              	.Ltext0:
   9              		.align	2
  10              		.globl	_Z13oldKernelMainv
  12              	_Z13oldKernelMainv:
  13              	.LFB113:
  14              		.file 1 "src/kernel/core/main.cpp"
   1:src/kernel/core/main.cpp **** #include"../../../h/kernel_lib.h"
   2:src/kernel/core/main.cpp **** #include"../../../h/kernel_test.h"
   3:src/kernel/core/main.cpp **** 
   4:src/kernel/core/main.cpp **** int oldKernelMain(){
  15              		.loc 1 4 20
  16              		.cfi_startproc
  17 0000 130101FD 		addi	sp,sp,-48
  18              		.cfi_def_cfa_offset 48
  19 0004 23341102 		sd	ra,40(sp)
  20 0008 23308102 		sd	s0,32(sp)
  21 000c 233C9100 		sd	s1,24(sp)
  22              		.cfi_offset 1, -8
  23              		.cfi_offset 8, -16
  24              		.cfi_offset 9, -24
  25 0010 13040103 		addi	s0,sp,48
  26              		.cfi_def_cfa 8, 0
   5:src/kernel/core/main.cpp ****     uint64 ra, sp;
  27              		.loc 1 5 5
   6:src/kernel/core/main.cpp ****     asm volatile("mv %0, ra" : "=r" (ra));
  28              		.loc 1 6 5
  29              		.loc 1 6 42 is_stmt 0
  30              	 #APP
  31              	# 6 "src/kernel/core/main.cpp" 1
   7              	    asm volatile("mv %0, sp" : "=r" (sp));
  32              		mv a0, ra
  33              	# 0 "" 2
  34              	.LVL0:
  35              		.loc 1 7 5 is_stmt 1
  36              		.loc 1 7 42 is_stmt 0
  37              	# 7 "src/kernel/core/main.cpp" 1
   8              	    TCB::setPanicContext(ra,sp);
  38              		mv a1, sp
  39              	# 0 "" 2
  40              	.LVL1:
  41              		.loc 1 8 5 is_stmt 1
  42              		.loc 1 8 25 is_stmt 0
  43              	 #NO_APP
  44 001c 97000000 		call	_ZN3TCB15setPanicContextEmm
  44      E7800000 
  45              	.LVL2:
   9:src/kernel/core/main.cpp **** 
  10:src/kernel/core/main.cpp ****     int panic = kernelInit();
  46              		.loc 1 10 5 is_stmt 1
  47              		.loc 1 10 27 is_stmt 0
GAS LISTING /tmp/ccJnFhoZ.s 			page 2


  48 0024 97000000 		call	_Z10kernelInitv
  48      E7800000 
  49              	.LVL3:
  11:src/kernel/core/main.cpp ****     if(panic < 0){
  50              		.loc 1 11 5 is_stmt 1
  51 002c 634A0504 		blt	a0,zero,.L5
  12:src/kernel/core/main.cpp ****         kprintString("\nKERNEL FAILED TO INITALIZE!!!!\n\n");
  13:src/kernel/core/main.cpp ****         return -1;
  14:src/kernel/core/main.cpp ****     }
  15:src/kernel/core/main.cpp ****    
  16:src/kernel/core/main.cpp ****     uint64 sstatus = Riscv::r_sstatus();
  52              		.loc 1 16 5
  53              	.LBB12:
  54              	.LBB13:
  55              		.file 2 "src/kernel/core/../../../h/../h/riscv.hpp"
   1:src/kernel/core/../../../h/../h/riscv.hpp **** #ifndef __riscv__
   2:src/kernel/core/../../../h/../h/riscv.hpp **** #define __riscv__
   3:src/kernel/core/../../../h/../h/riscv.hpp **** 
   4:src/kernel/core/../../../h/../h/riscv.hpp **** #include"../lib/hw.h"
   5:src/kernel/core/../../../h/../h/riscv.hpp **** 
   6:src/kernel/core/../../../h/../h/riscv.hpp **** class Riscv{
   7:src/kernel/core/../../../h/../h/riscv.hpp **** public:
   8:src/kernel/core/../../../h/../h/riscv.hpp **** /* 
   9:src/kernel/core/../../../h/../h/riscv.hpp **** --------------------SUPERVISOR REGISTERS--------------------    
  10:src/kernel/core/../../../h/../h/riscv.hpp **** */
  11:src/kernel/core/../../../h/../h/riscv.hpp ****     static void w_scause(uint64);
  12:src/kernel/core/../../../h/../h/riscv.hpp ****     static uint64 r_scause(); 
  13:src/kernel/core/../../../h/../h/riscv.hpp **** 
  14:src/kernel/core/../../../h/../h/riscv.hpp ****     static void w_sepc(uint64);
  15:src/kernel/core/../../../h/../h/riscv.hpp ****     static uint64 r_sepc();
  16:src/kernel/core/../../../h/../h/riscv.hpp ****     static void ni_sepc();
  17:src/kernel/core/../../../h/../h/riscv.hpp **** 
  18:src/kernel/core/../../../h/../h/riscv.hpp ****     static void w_stvec(uint64);
  19:src/kernel/core/../../../h/../h/riscv.hpp ****     static uint64 r_stvec();
  20:src/kernel/core/../../../h/../h/riscv.hpp ****      
  21:src/kernel/core/../../../h/../h/riscv.hpp ****     static void w_stval(uint64);
  22:src/kernel/core/../../../h/../h/riscv.hpp ****     static uint64 r_stval();
  23:src/kernel/core/../../../h/../h/riscv.hpp **** 
  24:src/kernel/core/../../../h/../h/riscv.hpp ****     static void w_satp(uint64);
  25:src/kernel/core/../../../h/../h/riscv.hpp ****     static uint64 r_satp();
  26:src/kernel/core/../../../h/../h/riscv.hpp ****     
  27:src/kernel/core/../../../h/../h/riscv.hpp ****     enum BitMaskSip{
  28:src/kernel/core/../../../h/../h/riscv.hpp ****         SIP_SSIE = (1<<1),
  29:src/kernel/core/../../../h/../h/riscv.hpp ****         SIP_STIE = (1<<5),
  30:src/kernel/core/../../../h/../h/riscv.hpp ****         SIP_SEIE = (1<<9),
  31:src/kernel/core/../../../h/../h/riscv.hpp ****     };
  32:src/kernel/core/../../../h/../h/riscv.hpp **** 
  33:src/kernel/core/../../../h/../h/riscv.hpp ****     static void ms_sip(uint64);
  34:src/kernel/core/../../../h/../h/riscv.hpp ****     static void mc_sip(uint64);
  35:src/kernel/core/../../../h/../h/riscv.hpp **** 
  36:src/kernel/core/../../../h/../h/riscv.hpp ****     static void w_sip(uint64);
  37:src/kernel/core/../../../h/../h/riscv.hpp ****     static uint64 r_sip();
  38:src/kernel/core/../../../h/../h/riscv.hpp **** 
  39:src/kernel/core/../../../h/../h/riscv.hpp ****     static void ms_sie(uint64);
  40:src/kernel/core/../../../h/../h/riscv.hpp ****     static void mc_sie(uint64);
  41:src/kernel/core/../../../h/../h/riscv.hpp **** 
  42:src/kernel/core/../../../h/../h/riscv.hpp ****     static void w_sie(uint64);
GAS LISTING /tmp/ccJnFhoZ.s 			page 3


  43:src/kernel/core/../../../h/../h/riscv.hpp ****     static uint64 r_sie();
  44:src/kernel/core/../../../h/../h/riscv.hpp **** 
  45:src/kernel/core/../../../h/../h/riscv.hpp ****     enum BitMaskSstatus{
  46:src/kernel/core/../../../h/../h/riscv.hpp ****         SSTATUS_SIE = (1<<1),
  47:src/kernel/core/../../../h/../h/riscv.hpp ****         SSTATUS_SPIE = (1<<5),
  48:src/kernel/core/../../../h/../h/riscv.hpp ****         SSTATUS_SPP = (1<<8),
  49:src/kernel/core/../../../h/../h/riscv.hpp ****         SSTATUS_SUM = (1<<18),
  50:src/kernel/core/../../../h/../h/riscv.hpp ****     };
  51:src/kernel/core/../../../h/../h/riscv.hpp **** 
  52:src/kernel/core/../../../h/../h/riscv.hpp ****     static void ms_sstatus(uint64);
  53:src/kernel/core/../../../h/../h/riscv.hpp ****     static void mc_sstatus(uint64);
  54:src/kernel/core/../../../h/../h/riscv.hpp **** 
  55:src/kernel/core/../../../h/../h/riscv.hpp ****     static void w_sstatus(uint64);
  56:src/kernel/core/../../../h/../h/riscv.hpp ****     static uint64 r_sstatus();
  57:src/kernel/core/../../../h/../h/riscv.hpp **** 
  58:src/kernel/core/../../../h/../h/riscv.hpp **** /* 
  59:src/kernel/core/../../../h/../h/riscv.hpp **** --------------------CLASSIC REGISTERS--------------------    
  60:src/kernel/core/../../../h/../h/riscv.hpp **** */
  61:src/kernel/core/../../../h/../h/riscv.hpp ****     static uint64 r_sp();
  62:src/kernel/core/../../../h/../h/riscv.hpp ****     static uint64 r_a0(); /* parameter registers */
  63:src/kernel/core/../../../h/../h/riscv.hpp ****     static uint64 s_a0(uint64 a0);
  64:src/kernel/core/../../../h/../h/riscv.hpp ****     static uint64 r_a1();
  65:src/kernel/core/../../../h/../h/riscv.hpp ****     static uint64 r_a2();
  66:src/kernel/core/../../../h/../h/riscv.hpp ****     static uint64 r_a3();
  67:src/kernel/core/../../../h/../h/riscv.hpp ****     static uint64 r_a4();
  68:src/kernel/core/../../../h/../h/riscv.hpp **** 
  69:src/kernel/core/../../../h/../h/riscv.hpp ****     static void popRegisters(); /* pop all context registers */
  70:src/kernel/core/../../../h/../h/riscv.hpp ****     static void pushRegisters(); /* push all context registers */
  71:src/kernel/core/../../../h/../h/riscv.hpp ****  
  72:src/kernel/core/../../../h/../h/riscv.hpp ****     static void popSppSpie(); /* jump from kernel to start of thread */
  73:src/kernel/core/../../../h/../h/riscv.hpp **** 
  74:src/kernel/core/../../../h/../h/riscv.hpp **** /* 
  75:src/kernel/core/../../../h/../h/riscv.hpp **** --------------------CONSOLE REGISTERS--------------------    
  76:src/kernel/core/../../../h/../h/riscv.hpp **** */
  77:src/kernel/core/../../../h/../h/riscv.hpp ****     static void mc_cstatus(uint64 mask); 
  78:src/kernel/core/../../../h/../h/riscv.hpp ****     static bool cstatus_ready(uint64 mask);
  79:src/kernel/core/../../../h/../h/riscv.hpp **** };
  80:src/kernel/core/../../../h/../h/riscv.hpp **** 
  81:src/kernel/core/../../../h/../h/riscv.hpp **** /* 
  82:src/kernel/core/../../../h/../h/riscv.hpp **** --------------------CLASSIC REGISTERS--------------------    
  83:src/kernel/core/../../../h/../h/riscv.hpp **** */
  84:src/kernel/core/../../../h/../h/riscv.hpp **** 
  85:src/kernel/core/../../../h/../h/riscv.hpp **** inline uint64 Riscv::r_sp(){
  86:src/kernel/core/../../../h/../h/riscv.hpp ****     uint64 a0;
  87:src/kernel/core/../../../h/../h/riscv.hpp ****     asm volatile("mv %0, sp" : "=r" (a0));
  88:src/kernel/core/../../../h/../h/riscv.hpp ****     return a0;
  89:src/kernel/core/../../../h/../h/riscv.hpp **** }
  90:src/kernel/core/../../../h/../h/riscv.hpp **** 
  91:src/kernel/core/../../../h/../h/riscv.hpp **** inline uint64 Riscv::r_a0(){
  92:src/kernel/core/../../../h/../h/riscv.hpp ****     uint64 a0;
  93:src/kernel/core/../../../h/../h/riscv.hpp ****     asm volatile("mv %0, a0" : "=r" (a0));
  94:src/kernel/core/../../../h/../h/riscv.hpp ****     return a0;
  95:src/kernel/core/../../../h/../h/riscv.hpp **** }
  96:src/kernel/core/../../../h/../h/riscv.hpp **** 
  97:src/kernel/core/../../../h/../h/riscv.hpp **** inline uint64 Riscv::r_a1(){
  98:src/kernel/core/../../../h/../h/riscv.hpp ****     uint64 a0;
  99:src/kernel/core/../../../h/../h/riscv.hpp ****     asm volatile("mv %0, a1" : "=r" (a0));
GAS LISTING /tmp/ccJnFhoZ.s 			page 4


 100:src/kernel/core/../../../h/../h/riscv.hpp ****     return a0;
 101:src/kernel/core/../../../h/../h/riscv.hpp **** }
 102:src/kernel/core/../../../h/../h/riscv.hpp **** 
 103:src/kernel/core/../../../h/../h/riscv.hpp **** inline uint64 Riscv::r_a2(){
 104:src/kernel/core/../../../h/../h/riscv.hpp ****     uint64 a0;
 105:src/kernel/core/../../../h/../h/riscv.hpp ****     asm volatile("mv %0, a2" : "=r" (a0));
 106:src/kernel/core/../../../h/../h/riscv.hpp ****     return a0;
 107:src/kernel/core/../../../h/../h/riscv.hpp **** }
 108:src/kernel/core/../../../h/../h/riscv.hpp **** 
 109:src/kernel/core/../../../h/../h/riscv.hpp **** inline uint64 Riscv::r_a3(){
 110:src/kernel/core/../../../h/../h/riscv.hpp ****     uint64 a0;
 111:src/kernel/core/../../../h/../h/riscv.hpp ****     asm volatile("mv %0, a3" : "=r" (a0));
 112:src/kernel/core/../../../h/../h/riscv.hpp ****     return a0;
 113:src/kernel/core/../../../h/../h/riscv.hpp **** }
 114:src/kernel/core/../../../h/../h/riscv.hpp **** 
 115:src/kernel/core/../../../h/../h/riscv.hpp **** inline uint64 Riscv::r_a4(){
 116:src/kernel/core/../../../h/../h/riscv.hpp ****     uint64 a0;
 117:src/kernel/core/../../../h/../h/riscv.hpp ****     asm volatile("mv %0, a4" : "=r" (a0));
 118:src/kernel/core/../../../h/../h/riscv.hpp ****     return a0;
 119:src/kernel/core/../../../h/../h/riscv.hpp **** }
 120:src/kernel/core/../../../h/../h/riscv.hpp **** 
 121:src/kernel/core/../../../h/../h/riscv.hpp **** 
 122:src/kernel/core/../../../h/../h/riscv.hpp **** inline uint64 Riscv::s_a0(uint64 a0){
 123:src/kernel/core/../../../h/../h/riscv.hpp ****     return a0;
 124:src/kernel/core/../../../h/../h/riscv.hpp **** }
 125:src/kernel/core/../../../h/../h/riscv.hpp **** 
 126:src/kernel/core/../../../h/../h/riscv.hpp **** /* 
 127:src/kernel/core/../../../h/../h/riscv.hpp **** --------------------SUPERVISOR REGISTERS--------------------    
 128:src/kernel/core/../../../h/../h/riscv.hpp **** */
 129:src/kernel/core/../../../h/../h/riscv.hpp **** 
 130:src/kernel/core/../../../h/../h/riscv.hpp **** inline void Riscv::w_scause(uint64 scause){
 131:src/kernel/core/../../../h/../h/riscv.hpp ****     asm volatile("csrw scause, %0" : : "r" (scause));
 132:src/kernel/core/../../../h/../h/riscv.hpp **** }
 133:src/kernel/core/../../../h/../h/riscv.hpp **** 
 134:src/kernel/core/../../../h/../h/riscv.hpp **** inline uint64 Riscv::r_scause(){
 135:src/kernel/core/../../../h/../h/riscv.hpp ****     uint64 volatile scause;
 136:src/kernel/core/../../../h/../h/riscv.hpp ****     asm volatile("csrr %0, scause" : "=r" (scause));
 137:src/kernel/core/../../../h/../h/riscv.hpp ****     return scause;
 138:src/kernel/core/../../../h/../h/riscv.hpp **** } 
 139:src/kernel/core/../../../h/../h/riscv.hpp **** 
 140:src/kernel/core/../../../h/../h/riscv.hpp **** inline void Riscv::w_sepc(uint64 sepc){
 141:src/kernel/core/../../../h/../h/riscv.hpp ****     asm volatile("csrw sepc, %0" : : "r" (sepc));
 142:src/kernel/core/../../../h/../h/riscv.hpp **** }
 143:src/kernel/core/../../../h/../h/riscv.hpp **** 
 144:src/kernel/core/../../../h/../h/riscv.hpp **** inline uint64 Riscv::r_sepc(){
 145:src/kernel/core/../../../h/../h/riscv.hpp ****     uint64 volatile sepc;
 146:src/kernel/core/../../../h/../h/riscv.hpp ****     asm volatile("csrr %0, sepc" : "=r" (sepc));
 147:src/kernel/core/../../../h/../h/riscv.hpp ****     return sepc;
 148:src/kernel/core/../../../h/../h/riscv.hpp **** } 
 149:src/kernel/core/../../../h/../h/riscv.hpp **** 
 150:src/kernel/core/../../../h/../h/riscv.hpp **** inline void Riscv::w_stvec(uint64 stvec){
 151:src/kernel/core/../../../h/../h/riscv.hpp ****     asm volatile("csrw stvec, %0" : : "r" (stvec));
 152:src/kernel/core/../../../h/../h/riscv.hpp **** }
 153:src/kernel/core/../../../h/../h/riscv.hpp **** 
 154:src/kernel/core/../../../h/../h/riscv.hpp **** inline uint64 Riscv::r_stvec(){
 155:src/kernel/core/../../../h/../h/riscv.hpp ****     uint64 volatile stvec;
 156:src/kernel/core/../../../h/../h/riscv.hpp ****     asm volatile("csrr %0, stvec" : "=r" (stvec));
GAS LISTING /tmp/ccJnFhoZ.s 			page 5


 157:src/kernel/core/../../../h/../h/riscv.hpp ****     return stvec;
 158:src/kernel/core/../../../h/../h/riscv.hpp **** } 
 159:src/kernel/core/../../../h/../h/riscv.hpp **** 
 160:src/kernel/core/../../../h/../h/riscv.hpp **** inline void Riscv::w_stval(uint64 stval){
 161:src/kernel/core/../../../h/../h/riscv.hpp ****     asm volatile("csrw stval, %0" : : "r" (stval));
 162:src/kernel/core/../../../h/../h/riscv.hpp **** }
 163:src/kernel/core/../../../h/../h/riscv.hpp **** 
 164:src/kernel/core/../../../h/../h/riscv.hpp **** inline uint64 Riscv::r_stval(){
 165:src/kernel/core/../../../h/../h/riscv.hpp ****     uint64 volatile stval;
 166:src/kernel/core/../../../h/../h/riscv.hpp ****     asm volatile("csrr %0, stval" : "=r" (stval));
 167:src/kernel/core/../../../h/../h/riscv.hpp ****     return stval;
 168:src/kernel/core/../../../h/../h/riscv.hpp **** } 
 169:src/kernel/core/../../../h/../h/riscv.hpp **** 
 170:src/kernel/core/../../../h/../h/riscv.hpp **** inline void Riscv::ms_sip(uint64 mask){
 171:src/kernel/core/../../../h/../h/riscv.hpp ****     asm volatile ("csrs sip, %0" : : "r" (mask));
 172:src/kernel/core/../../../h/../h/riscv.hpp **** }
 173:src/kernel/core/../../../h/../h/riscv.hpp **** 
 174:src/kernel/core/../../../h/../h/riscv.hpp **** inline void Riscv::mc_sip(uint64 mask){
 175:src/kernel/core/../../../h/../h/riscv.hpp ****     asm volatile ("csrc sip, %0" : : "r" (mask));
 176:src/kernel/core/../../../h/../h/riscv.hpp **** }
 177:src/kernel/core/../../../h/../h/riscv.hpp **** 
 178:src/kernel/core/../../../h/../h/riscv.hpp **** inline void Riscv::w_sip(uint64 sip){
 179:src/kernel/core/../../../h/../h/riscv.hpp ****     asm volatile("csrw sip, %0" : : "r" (sip));
 180:src/kernel/core/../../../h/../h/riscv.hpp **** }
 181:src/kernel/core/../../../h/../h/riscv.hpp **** 
 182:src/kernel/core/../../../h/../h/riscv.hpp **** inline uint64 Riscv::r_sip(){
 183:src/kernel/core/../../../h/../h/riscv.hpp ****     uint64 volatile sip;
 184:src/kernel/core/../../../h/../h/riscv.hpp ****     asm volatile("csrr %0, sip" : "=r" (sip));
 185:src/kernel/core/../../../h/../h/riscv.hpp ****     return sip;
 186:src/kernel/core/../../../h/../h/riscv.hpp **** } 
 187:src/kernel/core/../../../h/../h/riscv.hpp **** 
 188:src/kernel/core/../../../h/../h/riscv.hpp **** inline void Riscv::ms_sie(uint64 mask){
 189:src/kernel/core/../../../h/../h/riscv.hpp ****     asm volatile ("csrs sie, %0" : : "r" (mask));
 190:src/kernel/core/../../../h/../h/riscv.hpp **** }
 191:src/kernel/core/../../../h/../h/riscv.hpp **** 
 192:src/kernel/core/../../../h/../h/riscv.hpp **** inline void Riscv::mc_sie(uint64 mask){
 193:src/kernel/core/../../../h/../h/riscv.hpp ****     asm volatile ("csrc sie, %0" : : "r" (mask));
 194:src/kernel/core/../../../h/../h/riscv.hpp **** }
 195:src/kernel/core/../../../h/../h/riscv.hpp **** 
 196:src/kernel/core/../../../h/../h/riscv.hpp **** inline void Riscv::w_sie(uint64 sie){
 197:src/kernel/core/../../../h/../h/riscv.hpp ****     asm volatile("csrw sie, %0" : : "r" (sie));
 198:src/kernel/core/../../../h/../h/riscv.hpp **** }
 199:src/kernel/core/../../../h/../h/riscv.hpp **** 
 200:src/kernel/core/../../../h/../h/riscv.hpp **** inline uint64 Riscv::r_sie(){
 201:src/kernel/core/../../../h/../h/riscv.hpp ****     uint64 volatile sie;
 202:src/kernel/core/../../../h/../h/riscv.hpp ****     asm volatile("csrr %0, sie" : "=r" (sie));
 203:src/kernel/core/../../../h/../h/riscv.hpp ****     return sie;
 204:src/kernel/core/../../../h/../h/riscv.hpp **** } 
 205:src/kernel/core/../../../h/../h/riscv.hpp **** 
 206:src/kernel/core/../../../h/../h/riscv.hpp **** inline void Riscv::ms_sstatus(uint64 mask){
 207:src/kernel/core/../../../h/../h/riscv.hpp ****     asm volatile ("csrs sstatus, %0" : : "r" (mask));
 208:src/kernel/core/../../../h/../h/riscv.hpp **** }
 209:src/kernel/core/../../../h/../h/riscv.hpp **** 
 210:src/kernel/core/../../../h/../h/riscv.hpp **** inline void Riscv::mc_sstatus(uint64 mask){
 211:src/kernel/core/../../../h/../h/riscv.hpp ****     asm volatile ("csrc sstatus, %0" : : "r" (mask));
 212:src/kernel/core/../../../h/../h/riscv.hpp **** }
 213:src/kernel/core/../../../h/../h/riscv.hpp **** 
GAS LISTING /tmp/ccJnFhoZ.s 			page 6


 214:src/kernel/core/../../../h/../h/riscv.hpp **** inline void Riscv::w_sstatus(uint64 sstatus){
 215:src/kernel/core/../../../h/../h/riscv.hpp ****     asm volatile("csrw sstatus, %0" : : "r" (sstatus));
 216:src/kernel/core/../../../h/../h/riscv.hpp **** }
 217:src/kernel/core/../../../h/../h/riscv.hpp **** 
 218:src/kernel/core/../../../h/../h/riscv.hpp **** inline uint64 Riscv::r_sstatus(){
 219:src/kernel/core/../../../h/../h/riscv.hpp ****     uint64 volatile sstatus;
  56              		.loc 2 219 5
 220:src/kernel/core/../../../h/../h/riscv.hpp ****     asm volatile("csrr %0, sstatus" : "=r" (sstatus));
  57              		.loc 2 220 5
  58              		.loc 2 220 54 is_stmt 0
  59              	 #APP
  60              	# 220 "src/kernel/core/../../../h/../h/riscv.hpp" 1
 221              	    return sstatus;
  61              		csrr a5, sstatus
  62              	# 0 "" 2
  63              	 #NO_APP
  64 0034 233CF4FC 		sd	a5,-40(s0)
  65              		.loc 2 221 5 is_stmt 1
  66              		.loc 2 221 12 is_stmt 0
  67 0038 833484FD 		ld	s1,-40(s0)
  68              	.LVL4:
  69              	.LBE13:
  70              	.LBE12:
  17:src/kernel/core/main.cpp ****     kprintString("Starting User Process\n");
  71              		.loc 1 17 5 is_stmt 1
  72              		.loc 1 17 17 is_stmt 0
  73 003c 17050000 		lla	a0,.LC1
  73      13050500 
  74              	.LVL5:
  75 0044 97000000 		call	_Z12kprintStringPKc
  75      E7800000 
  76              	.LVL6:
  18:src/kernel/core/main.cpp ****     TCB::yield();
  77              		.loc 1 18 5 is_stmt 1
  78              		.loc 1 18 15 is_stmt 0
  79 004c 97000000 		call	_ZN3TCB5yieldEv
  79      E7800000 
  80              	.LVL7:
  19:src/kernel/core/main.cpp ****     Riscv::w_sstatus(sstatus);
  81              		.loc 1 19 5 is_stmt 1
  82              	.LBB14:
  83              	.LBB15:
 215:src/kernel/core/../../../h/../h/riscv.hpp **** }
  84              		.loc 2 215 5
 215:src/kernel/core/../../../h/../h/riscv.hpp **** }
  85              		.loc 2 215 55 is_stmt 0
  86              	 #APP
  87              	# 215 "src/kernel/core/../../../h/../h/riscv.hpp" 1
  88              		csrw sstatus, s1
  89              	# 0 "" 2
  90              	.LVL8:
  91              	 #NO_APP
  92              	.LBE15:
  93              	.LBE14:
  20:src/kernel/core/main.cpp ****     
  21:src/kernel/core/main.cpp **** 
  22:src/kernel/core/main.cpp ****     kprintString("SRECNA NOVA GODINAAAA!!!!!");
GAS LISTING /tmp/ccJnFhoZ.s 			page 7


  94              		.loc 1 22 5 is_stmt 1
  95              		.loc 1 22 17 is_stmt 0
  96 0058 17050000 		lla	a0,.LC2
  96      13050500 
  97 0060 97000000 		call	_Z12kprintStringPKc
  97      E7800000 
  98              	.LVL9:
  23:src/kernel/core/main.cpp ****     //kprintString("\n\nKERNEL ENDED SUCCESSFULLY!\n\n");
  24:src/kernel/core/main.cpp ****     return 0;
  99              		.loc 1 24 5 is_stmt 1
 100              		.loc 1 24 12 is_stmt 0
 101 0068 13050000 		li	a0,0
 102              	.LVL10:
 103              	.L3:
  25:src/kernel/core/main.cpp **** }
 104              		.loc 1 25 1
 105 006c 83308102 		ld	ra,40(sp)
 106              		.cfi_remember_state
 107              		.cfi_restore 1
 108 0070 03340102 		ld	s0,32(sp)
 109              		.cfi_restore 8
 110              		.cfi_def_cfa 2, 48
 111 0074 83348101 		ld	s1,24(sp)
 112              		.cfi_restore 9
 113 0078 13010103 		addi	sp,sp,48
 114              		.cfi_def_cfa_offset 0
 115 007c 67800000 		jr	ra
 116              	.LVL11:
 117              	.L5:
 118              		.cfi_restore_state
  12:src/kernel/core/main.cpp ****         return -1;
 119              		.loc 1 12 9 is_stmt 1
  12:src/kernel/core/main.cpp ****         return -1;
 120              		.loc 1 12 21 is_stmt 0
 121 0080 17050000 		lla	a0,.LC0
 121      13050500 
 122              	.LVL12:
 123 0088 97000000 		call	_Z12kprintStringPKc
 123      E7800000 
 124              	.LVL13:
  13:src/kernel/core/main.cpp ****     }
 125              		.loc 1 13 9 is_stmt 1
  13:src/kernel/core/main.cpp ****     }
 126              		.loc 1 13 17 is_stmt 0
 127 0090 1305F0FF 		li	a0,-1
 128 0094 6FF09FFD 		j	.L3
 129              		.cfi_endproc
 130              	.LFE113:
 132              		.align	2
 133              		.globl	_Z13newKernelMainv
 135              	_Z13newKernelMainv:
 136              	.LFB114:
  26:src/kernel/core/main.cpp **** 
  27:src/kernel/core/main.cpp **** int newKernelMain(){
 137              		.loc 1 27 20 is_stmt 1
 138              		.cfi_startproc
 139 0098 130101FD 		addi	sp,sp,-48
GAS LISTING /tmp/ccJnFhoZ.s 			page 8


 140              		.cfi_def_cfa_offset 48
 141 009c 23341102 		sd	ra,40(sp)
 142 00a0 23308102 		sd	s0,32(sp)
 143 00a4 233C9100 		sd	s1,24(sp)
 144 00a8 23382101 		sd	s2,16(sp)
 145              		.cfi_offset 1, -8
 146              		.cfi_offset 8, -16
 147              		.cfi_offset 9, -24
 148              		.cfi_offset 18, -32
 149 00ac 13040103 		addi	s0,sp,48
 150              		.cfi_def_cfa 8, 0
  28:src/kernel/core/main.cpp ****     uint64 sp = Riscv::r_sp();
 151              		.loc 1 28 5
 152              	.LBB16:
 153              	.LBB17:
  86:src/kernel/core/../../../h/../h/riscv.hpp ****     asm volatile("mv %0, sp" : "=r" (a0));
 154              		.loc 2 86 5
  87:src/kernel/core/../../../h/../h/riscv.hpp ****     return a0;
 155              		.loc 2 87 5
  87:src/kernel/core/../../../h/../h/riscv.hpp ****     return a0;
 156              		.loc 2 87 42 is_stmt 0
 157              	 #APP
 158              	# 87 "src/kernel/core/../../../h/../h/riscv.hpp" 1
 159              		mv s1, sp
 160              	# 0 "" 2
 161              	.LVL14:
  88:src/kernel/core/../../../h/../h/riscv.hpp **** }
 162              		.loc 2 88 5 is_stmt 1
 163              	 #NO_APP
 164              	.LBE17:
 165              	.LBE16:
  29:src/kernel/core/main.cpp ****     KCHECKPRINT(sp);
 166              		.loc 1 29 5
 167 00b4 17050000 		lla	a0,.LC3
 167      13050500 
 168 00bc 97000000 		call	_Z12kprintStringPKc
 168      E7800000 
 169              	.LVL15:
 170              		.loc 1 29 5
 171 00c4 13060000 		li	a2,0
 172 00c8 93050001 		li	a1,16
 173 00cc 13850400 		mv	a0,s1
 174 00d0 97000000 		call	_Z9kprintIntmib
 174      E7800000 
 175              	.LVL16:
 176              		.loc 1 29 5
 177 00d8 17050000 		lla	a0,.LC4
 177      13050500 
 178 00e0 97000000 		call	_Z12kprintStringPKc
 178      E7800000 
 179              	.LVL17:
  30:src/kernel/core/main.cpp ****     if(newKernelInit()){
 180              		.loc 1 30 5
 181              		.loc 1 30 21 is_stmt 0
 182 00e8 97000000 		call	_Z13newKernelInitv
 182      E7800000 
 183              	.LVL18:
GAS LISTING /tmp/ccJnFhoZ.s 			page 9


 184              		.loc 1 30 5
 185 00f0 631E0502 		bne	a0,zero,.L10
 186 00f4 93040500 		mv	s1,a0
 187              	.LVL19:
  31:src/kernel/core/main.cpp ****         kprintString("KERNEL PANIC: KERNEL NOT SUCCESFULLY INITALIZED!!!\n");
  32:src/kernel/core/main.cpp ****         return 1;
  33:src/kernel/core/main.cpp ****     }   
  34:src/kernel/core/main.cpp **** 
  35:src/kernel/core/main.cpp ****     uint64 sstatus = Riscv::r_sstatus();
 188              		.loc 1 35 5 is_stmt 1
 189              	.LBB18:
 190              	.LBB19:
 219:src/kernel/core/../../../h/../h/riscv.hpp ****     asm volatile("csrr %0, sstatus" : "=r" (sstatus));
 191              		.loc 2 219 5
 220:src/kernel/core/../../../h/../h/riscv.hpp ****     return sstatus;
 192              		.loc 2 220 5
 220:src/kernel/core/../../../h/../h/riscv.hpp ****     return sstatus;
 193              		.loc 2 220 54 is_stmt 0
 194              	 #APP
 195              	# 220 "src/kernel/core/../../../h/../h/riscv.hpp" 1
 196              		csrr a5, sstatus
 197              	# 0 "" 2
 198              	 #NO_APP
 199 00fc 233CF4FC 		sd	a5,-40(s0)
 200              		.loc 2 221 5 is_stmt 1
 201              		.loc 2 221 12 is_stmt 0
 202 0100 033984FD 		ld	s2,-40(s0)
 203              	.LVL20:
 204              	.LBE19:
 205              	.LBE18:
  36:src/kernel/core/main.cpp ****     TCB::yield();
 206              		.loc 1 36 5 is_stmt 1
 207              		.loc 1 36 15 is_stmt 0
 208 0104 97000000 		call	_ZN3TCB5yieldEv
 208      E7800000 
 209              	.LVL21:
  37:src/kernel/core/main.cpp ****     Riscv::w_sstatus(sstatus);
 210              		.loc 1 37 5 is_stmt 1
 211              	.LBB20:
 212              	.LBB21:
 215:src/kernel/core/../../../h/../h/riscv.hpp **** }
 213              		.loc 2 215 5
 215:src/kernel/core/../../../h/../h/riscv.hpp **** }
 214              		.loc 2 215 55 is_stmt 0
 215              	 #APP
 216              	# 215 "src/kernel/core/../../../h/../h/riscv.hpp" 1
 217              		csrw sstatus, s2
 218              	# 0 "" 2
 219              	.LVL22:
 220              	 #NO_APP
 221              	.LBE21:
 222              	.LBE20:
  38:src/kernel/core/main.cpp **** 
  39:src/kernel/core/main.cpp ****     // buddy_test();
  40:src/kernel/core/main.cpp ****     // slab_test();
  41:src/kernel/core/main.cpp ****     // paging_test();
  42:src/kernel/core/main.cpp ****     
GAS LISTING /tmp/ccJnFhoZ.s 			page 10


  43:src/kernel/core/main.cpp ****     return 0;
 223              		.loc 1 43 5 is_stmt 1
 224              	.L8:
  44:src/kernel/core/main.cpp **** }
 225              		.loc 1 44 1 is_stmt 0
 226 0110 13850400 		mv	a0,s1
 227 0114 83308102 		ld	ra,40(sp)
 228              		.cfi_remember_state
 229              		.cfi_restore 1
 230 0118 03340102 		ld	s0,32(sp)
 231              		.cfi_restore 8
 232              		.cfi_def_cfa 2, 48
 233 011c 83348101 		ld	s1,24(sp)
 234              		.cfi_restore 9
 235 0120 03390101 		ld	s2,16(sp)
 236              		.cfi_restore 18
 237 0124 13010103 		addi	sp,sp,48
 238              		.cfi_def_cfa_offset 0
 239 0128 67800000 		jr	ra
 240              	.LVL23:
 241              	.L10:
 242              		.cfi_restore_state
  31:src/kernel/core/main.cpp ****         return 1;
 243              		.loc 1 31 9 is_stmt 1
  31:src/kernel/core/main.cpp ****         return 1;
 244              		.loc 1 31 21 is_stmt 0
 245 012c 17050000 		lla	a0,.LC5
 245      13050500 
 246 0134 97000000 		call	_Z12kprintStringPKc
 246      E7800000 
 247              	.LVL24:
  32:src/kernel/core/main.cpp ****     }   
 248              		.loc 1 32 9 is_stmt 1
  32:src/kernel/core/main.cpp ****     }   
 249              		.loc 1 32 16 is_stmt 0
 250 013c 93041000 		li	s1,1
 251              	.LVL25:
 252 0140 6FF01FFD 		j	.L8
 253              		.cfi_endproc
 254              	.LFE114:
 256              		.align	2
 257              		.globl	main
 259              	main:
 260              	.LFB115:
  45:src/kernel/core/main.cpp **** 
  46:src/kernel/core/main.cpp **** int main(){
 261              		.loc 1 46 11 is_stmt 1
 262              		.cfi_startproc
 263 0144 130101FF 		addi	sp,sp,-16
 264              		.cfi_def_cfa_offset 16
 265 0148 23341100 		sd	ra,8(sp)
 266 014c 23308100 		sd	s0,0(sp)
 267              		.cfi_offset 1, -8
 268              		.cfi_offset 8, -16
 269 0150 13040101 		addi	s0,sp,16
 270              		.cfi_def_cfa 8, 0
  47:src/kernel/core/main.cpp ****     return oldKernelMain();
GAS LISTING /tmp/ccJnFhoZ.s 			page 11


 271              		.loc 1 47 5
 272              		.loc 1 47 25 is_stmt 0
 273 0154 97000000 		call	_Z13oldKernelMainv
 273      E7800000 
 274              	.LVL26:
  48:src/kernel/core/main.cpp **** }   ...
 275              		.loc 1 48 1
 276 015c 83308100 		ld	ra,8(sp)
 277              		.cfi_restore 1
 278 0160 03340100 		ld	s0,0(sp)
 279              		.cfi_restore 8
 280              		.cfi_def_cfa 2, 16
 281 0164 13010101 		addi	sp,sp,16
 282              		.cfi_def_cfa_offset 0
 283 0168 67800000 		jr	ra
 284              		.cfi_endproc
 285              	.LFE115:
 287              		.section	.rodata.str1.8,"aMS",@progbits,1
 288              		.align	3
 289              	.LC0:
 290 0000 0A4B4552 		.string	"\nKERNEL FAILED TO INITALIZE!!!!\n\n"
 290      4E454C20 
 290      4641494C 
 290      45442054 
 290      4F20494E 
 291 0022 00000000 		.zero	6
 291      0000
 292              	.LC1:
 293 0028 53746172 		.string	"Starting User Process\n"
 293      74696E67 
 293      20557365 
 293      72205072 
 293      6F636573 
 294 003f 00       		.zero	1
 295              	.LC2:
 296 0040 53524543 		.string	"SRECNA NOVA GODINAAAA!!!!!"
 296      4E41204E 
 296      4F564120 
 296      474F4449 
 296      4E414141 
 297 005b 00000000 		.zero	5
 297      00
 298              	.LC3:
 299 0060 73703A20 		.string	"sp: "
 299      00
 300 0065 000000   		.zero	3
 301              	.LC4:
 302 0068 0A00     		.string	"\n"
 303 006a 00000000 		.zero	6
 303      0000
 304              	.LC5:
 305 0070 4B45524E 		.string	"KERNEL PANIC: KERNEL NOT SUCCESFULLY INITALIZED!!!\n"
 305      454C2050 
 305      414E4943 
 305      3A204B45 
 305      524E454C 
 306              		.text
GAS LISTING /tmp/ccJnFhoZ.s 			page 12


 307              	.Letext0:
 308              		.file 3 "src/kernel/core/../../../h/../h/../lib/hw.h"
 309              		.file 4 "src/kernel/core/../../../h/../h/../h/../h/list.h"
 310              		.file 5 "src/kernel/core/../../../h/../h/../h/object_cache.h"
 311              		.file 6 "src/kernel/core/../../../h/../h/slab_allocator.h"
 312              		.file 7 "src/kernel/core/../../../h/../h/tcb.hpp"
 313              		.file 8 "src/kernel/core/../../../h/kernel_lib.h"
 314              		.file 9 "src/kernel/core/../../../h/../h/kernel_funs.h"
GAS LISTING /tmp/ccJnFhoZ.s 			page 13

