GAS LISTING /tmp/ccPPh9NF.s 			page 1


   1              		.file	"main.cpp"
   2              		.option nopic
   3              		.option norelax
   4              		.attribute arch, "rv64i2p0_m2p0_a2p0"
   5              		.attribute unaligned_access, 0
   6              		.attribute stack_align, 16
   7              		.text
   8              	.Ltext0:
   9              		.align	2
  10              		.globl	_Z13oldKernelMainv
  12              	_Z13oldKernelMainv:
  13              	.LFB113:
  14              		.file 1 "src/kernel/core/main.cpp"
   1:src/kernel/core/main.cpp **** #include"../../../h/kernel_lib.h"
   2:src/kernel/core/main.cpp **** #include"../../../h/kernel_test.h"
   3:src/kernel/core/main.cpp **** 
   4:src/kernel/core/main.cpp **** 
   5:src/kernel/core/main.cpp **** extern "C" void kTestMain();
   6:src/kernel/core/main.cpp **** 
   7:src/kernel/core/main.cpp **** int oldKernelMain(){
  15              		.loc 1 7 20
  16              		.cfi_startproc
  17 0000 130101FD 		addi	sp,sp,-48
  18              		.cfi_def_cfa_offset 48
  19 0004 23341102 		sd	ra,40(sp)
  20 0008 23308102 		sd	s0,32(sp)
  21 000c 233C9100 		sd	s1,24(sp)
  22              		.cfi_offset 1, -8
  23              		.cfi_offset 8, -16
  24              		.cfi_offset 9, -24
  25 0010 13040103 		addi	s0,sp,48
  26              		.cfi_def_cfa 8, 0
   8:src/kernel/core/main.cpp ****     uint64 ra, sp;
  27              		.loc 1 8 5
   9:src/kernel/core/main.cpp ****     asm volatile("mv %0, ra" : "=r" (ra));
  28              		.loc 1 9 5
  29              		.loc 1 9 42 is_stmt 0
  30              	 #APP
  31              	# 9 "src/kernel/core/main.cpp" 1
  10              	    asm volatile("mv %0, sp" : "=r" (sp));
  32              		mv a0, ra
  33              	# 0 "" 2
  34              	.LVL0:
  35              		.loc 1 10 5 is_stmt 1
  36              		.loc 1 10 42 is_stmt 0
  37              	# 10 "src/kernel/core/main.cpp" 1
  11              	    TCB::setPanicContext(ra,sp);
  38              		mv a1, sp
  39              	# 0 "" 2
  40              	.LVL1:
  41              		.loc 1 11 5 is_stmt 1
  42              		.loc 1 11 25 is_stmt 0
  43              	 #NO_APP
  44 001c 97000000 		call	_ZN3TCB15setPanicContextEmm
  44      E7800000 
  45              	.LVL2:
  12:src/kernel/core/main.cpp **** 
GAS LISTING /tmp/ccPPh9NF.s 			page 2


  13:src/kernel/core/main.cpp ****     int panic = kernelInit();
  46              		.loc 1 13 5 is_stmt 1
  47              		.loc 1 13 27 is_stmt 0
  48 0024 97000000 		call	_Z10kernelInitv
  48      E7800000 
  49              	.LVL3:
  14:src/kernel/core/main.cpp ****     if(panic < 0){
  50              		.loc 1 14 5 is_stmt 1
  51 002c 634E0504 		blt	a0,zero,.L5
  15:src/kernel/core/main.cpp ****         kprintString("\nKERNEL FAILED TO INITALIZE!!!!\n\n");
  16:src/kernel/core/main.cpp ****         return -1;
  17:src/kernel/core/main.cpp ****     }
  18:src/kernel/core/main.cpp ****    
  19:src/kernel/core/main.cpp ****     kTestMain();
  52              		.loc 1 19 5
  53              		.loc 1 19 14 is_stmt 0
  54 0030 97000000 		call	kTestMain
  54      E7800000 
  55              	.LVL4:
  20:src/kernel/core/main.cpp **** 
  21:src/kernel/core/main.cpp ****     uint64 sstatus = Riscv::r_sstatus();
  56              		.loc 1 21 5 is_stmt 1
  57              	.LBB6:
  58              	.LBB7:
  59              		.file 2 "src/kernel/core/../../../h/../h/riscv.hpp"
   1:src/kernel/core/../../../h/../h/riscv.hpp **** #ifndef __riscv__
   2:src/kernel/core/../../../h/../h/riscv.hpp **** #define __riscv__
   3:src/kernel/core/../../../h/../h/riscv.hpp **** 
   4:src/kernel/core/../../../h/../h/riscv.hpp **** #include"../lib/hw.h"
   5:src/kernel/core/../../../h/../h/riscv.hpp **** 
   6:src/kernel/core/../../../h/../h/riscv.hpp **** class Riscv{
   7:src/kernel/core/../../../h/../h/riscv.hpp **** public:
   8:src/kernel/core/../../../h/../h/riscv.hpp **** /* 
   9:src/kernel/core/../../../h/../h/riscv.hpp **** --------------------SUPERVISOR REGISTERS--------------------    
  10:src/kernel/core/../../../h/../h/riscv.hpp **** */
  11:src/kernel/core/../../../h/../h/riscv.hpp ****     static void w_scause(uint64);
  12:src/kernel/core/../../../h/../h/riscv.hpp ****     static uint64 r_scause(); 
  13:src/kernel/core/../../../h/../h/riscv.hpp **** 
  14:src/kernel/core/../../../h/../h/riscv.hpp ****     static void w_sepc(uint64);
  15:src/kernel/core/../../../h/../h/riscv.hpp ****     static uint64 r_sepc();
  16:src/kernel/core/../../../h/../h/riscv.hpp ****     static void ni_sepc();
  17:src/kernel/core/../../../h/../h/riscv.hpp **** 
  18:src/kernel/core/../../../h/../h/riscv.hpp ****     static void w_stvec(uint64);
  19:src/kernel/core/../../../h/../h/riscv.hpp ****     static uint64 r_stvec();
  20:src/kernel/core/../../../h/../h/riscv.hpp ****      
  21:src/kernel/core/../../../h/../h/riscv.hpp ****     static void w_stval(uint64);
  22:src/kernel/core/../../../h/../h/riscv.hpp ****     static uint64 r_stval();
  23:src/kernel/core/../../../h/../h/riscv.hpp **** 
  24:src/kernel/core/../../../h/../h/riscv.hpp ****     static void w_satp(uint64);
  25:src/kernel/core/../../../h/../h/riscv.hpp ****     static uint64 r_satp();
  26:src/kernel/core/../../../h/../h/riscv.hpp ****     
  27:src/kernel/core/../../../h/../h/riscv.hpp ****     enum BitMaskSip{
  28:src/kernel/core/../../../h/../h/riscv.hpp ****         SIP_SSIE = (1<<1),
  29:src/kernel/core/../../../h/../h/riscv.hpp ****         SIP_STIE = (1<<5),
  30:src/kernel/core/../../../h/../h/riscv.hpp ****         SIP_SEIE = (1<<9),
  31:src/kernel/core/../../../h/../h/riscv.hpp ****     };
  32:src/kernel/core/../../../h/../h/riscv.hpp **** 
GAS LISTING /tmp/ccPPh9NF.s 			page 3


  33:src/kernel/core/../../../h/../h/riscv.hpp ****     static void ms_sip(uint64);
  34:src/kernel/core/../../../h/../h/riscv.hpp ****     static void mc_sip(uint64);
  35:src/kernel/core/../../../h/../h/riscv.hpp **** 
  36:src/kernel/core/../../../h/../h/riscv.hpp ****     static void w_sip(uint64);
  37:src/kernel/core/../../../h/../h/riscv.hpp ****     static uint64 r_sip();
  38:src/kernel/core/../../../h/../h/riscv.hpp **** 
  39:src/kernel/core/../../../h/../h/riscv.hpp ****     static void ms_sie(uint64);
  40:src/kernel/core/../../../h/../h/riscv.hpp ****     static void mc_sie(uint64);
  41:src/kernel/core/../../../h/../h/riscv.hpp **** 
  42:src/kernel/core/../../../h/../h/riscv.hpp ****     static void w_sie(uint64);
  43:src/kernel/core/../../../h/../h/riscv.hpp ****     static uint64 r_sie();
  44:src/kernel/core/../../../h/../h/riscv.hpp **** 
  45:src/kernel/core/../../../h/../h/riscv.hpp ****     enum BitMaskSstatus{
  46:src/kernel/core/../../../h/../h/riscv.hpp ****         SSTATUS_SIE = (1<<1),
  47:src/kernel/core/../../../h/../h/riscv.hpp ****         SSTATUS_SPIE = (1<<5),
  48:src/kernel/core/../../../h/../h/riscv.hpp ****         SSTATUS_SPP = (1<<8),
  49:src/kernel/core/../../../h/../h/riscv.hpp ****         SSTATUS_SUM = (1<<18),
  50:src/kernel/core/../../../h/../h/riscv.hpp ****     };
  51:src/kernel/core/../../../h/../h/riscv.hpp **** 
  52:src/kernel/core/../../../h/../h/riscv.hpp ****     static void ms_sstatus(uint64);
  53:src/kernel/core/../../../h/../h/riscv.hpp ****     static void mc_sstatus(uint64);
  54:src/kernel/core/../../../h/../h/riscv.hpp **** 
  55:src/kernel/core/../../../h/../h/riscv.hpp ****     static void w_sstatus(uint64);
  56:src/kernel/core/../../../h/../h/riscv.hpp ****     static uint64 r_sstatus();
  57:src/kernel/core/../../../h/../h/riscv.hpp **** 
  58:src/kernel/core/../../../h/../h/riscv.hpp **** /* 
  59:src/kernel/core/../../../h/../h/riscv.hpp **** --------------------CLASSIC REGISTERS--------------------    
  60:src/kernel/core/../../../h/../h/riscv.hpp **** */
  61:src/kernel/core/../../../h/../h/riscv.hpp ****     static uint64 r_sp();
  62:src/kernel/core/../../../h/../h/riscv.hpp ****     static uint64 r_a0(); /* parameter registers */
  63:src/kernel/core/../../../h/../h/riscv.hpp ****     static uint64 s_a0(uint64 a0);
  64:src/kernel/core/../../../h/../h/riscv.hpp ****     static uint64 r_a1();
  65:src/kernel/core/../../../h/../h/riscv.hpp ****     static uint64 r_a2();
  66:src/kernel/core/../../../h/../h/riscv.hpp ****     static uint64 r_a3();
  67:src/kernel/core/../../../h/../h/riscv.hpp ****     static uint64 r_a4();
  68:src/kernel/core/../../../h/../h/riscv.hpp **** 
  69:src/kernel/core/../../../h/../h/riscv.hpp ****     static void popRegisters(); /* pop all context registers */
  70:src/kernel/core/../../../h/../h/riscv.hpp ****     static void pushRegisters(); /* push all context registers */
  71:src/kernel/core/../../../h/../h/riscv.hpp ****  
  72:src/kernel/core/../../../h/../h/riscv.hpp ****     static void popSppSpie(); /* jump from kernel to start of thread */
  73:src/kernel/core/../../../h/../h/riscv.hpp **** 
  74:src/kernel/core/../../../h/../h/riscv.hpp **** /* 
  75:src/kernel/core/../../../h/../h/riscv.hpp **** --------------------CONSOLE REGISTERS--------------------    
  76:src/kernel/core/../../../h/../h/riscv.hpp **** */
  77:src/kernel/core/../../../h/../h/riscv.hpp ****     static void mc_cstatus(uint64 mask); 
  78:src/kernel/core/../../../h/../h/riscv.hpp ****     static bool cstatus_ready(uint64 mask);
  79:src/kernel/core/../../../h/../h/riscv.hpp **** };
  80:src/kernel/core/../../../h/../h/riscv.hpp **** 
  81:src/kernel/core/../../../h/../h/riscv.hpp **** /* 
  82:src/kernel/core/../../../h/../h/riscv.hpp **** --------------------CLASSIC REGISTERS--------------------    
  83:src/kernel/core/../../../h/../h/riscv.hpp **** */
  84:src/kernel/core/../../../h/../h/riscv.hpp **** 
  85:src/kernel/core/../../../h/../h/riscv.hpp **** inline uint64 Riscv::r_sp(){
  86:src/kernel/core/../../../h/../h/riscv.hpp ****     uint64 a0;
  87:src/kernel/core/../../../h/../h/riscv.hpp ****     asm volatile("mv %0, sp" : "=r" (a0));
  88:src/kernel/core/../../../h/../h/riscv.hpp ****     return a0;
  89:src/kernel/core/../../../h/../h/riscv.hpp **** }
GAS LISTING /tmp/ccPPh9NF.s 			page 4


  90:src/kernel/core/../../../h/../h/riscv.hpp **** 
  91:src/kernel/core/../../../h/../h/riscv.hpp **** inline uint64 Riscv::r_a0(){
  92:src/kernel/core/../../../h/../h/riscv.hpp ****     uint64 a0;
  93:src/kernel/core/../../../h/../h/riscv.hpp ****     asm volatile("mv %0, a0" : "=r" (a0));
  94:src/kernel/core/../../../h/../h/riscv.hpp ****     return a0;
  95:src/kernel/core/../../../h/../h/riscv.hpp **** }
  96:src/kernel/core/../../../h/../h/riscv.hpp **** 
  97:src/kernel/core/../../../h/../h/riscv.hpp **** inline uint64 Riscv::r_a1(){
  98:src/kernel/core/../../../h/../h/riscv.hpp ****     uint64 a0;
  99:src/kernel/core/../../../h/../h/riscv.hpp ****     asm volatile("mv %0, a1" : "=r" (a0));
 100:src/kernel/core/../../../h/../h/riscv.hpp ****     return a0;
 101:src/kernel/core/../../../h/../h/riscv.hpp **** }
 102:src/kernel/core/../../../h/../h/riscv.hpp **** 
 103:src/kernel/core/../../../h/../h/riscv.hpp **** inline uint64 Riscv::r_a2(){
 104:src/kernel/core/../../../h/../h/riscv.hpp ****     uint64 a0;
 105:src/kernel/core/../../../h/../h/riscv.hpp ****     asm volatile("mv %0, a2" : "=r" (a0));
 106:src/kernel/core/../../../h/../h/riscv.hpp ****     return a0;
 107:src/kernel/core/../../../h/../h/riscv.hpp **** }
 108:src/kernel/core/../../../h/../h/riscv.hpp **** 
 109:src/kernel/core/../../../h/../h/riscv.hpp **** inline uint64 Riscv::r_a3(){
 110:src/kernel/core/../../../h/../h/riscv.hpp ****     uint64 a0;
 111:src/kernel/core/../../../h/../h/riscv.hpp ****     asm volatile("mv %0, a3" : "=r" (a0));
 112:src/kernel/core/../../../h/../h/riscv.hpp ****     return a0;
 113:src/kernel/core/../../../h/../h/riscv.hpp **** }
 114:src/kernel/core/../../../h/../h/riscv.hpp **** 
 115:src/kernel/core/../../../h/../h/riscv.hpp **** inline uint64 Riscv::r_a4(){
 116:src/kernel/core/../../../h/../h/riscv.hpp ****     uint64 a0;
 117:src/kernel/core/../../../h/../h/riscv.hpp ****     asm volatile("mv %0, a4" : "=r" (a0));
 118:src/kernel/core/../../../h/../h/riscv.hpp ****     return a0;
 119:src/kernel/core/../../../h/../h/riscv.hpp **** }
 120:src/kernel/core/../../../h/../h/riscv.hpp **** 
 121:src/kernel/core/../../../h/../h/riscv.hpp **** 
 122:src/kernel/core/../../../h/../h/riscv.hpp **** inline uint64 Riscv::s_a0(uint64 a0){
 123:src/kernel/core/../../../h/../h/riscv.hpp ****     return a0;
 124:src/kernel/core/../../../h/../h/riscv.hpp **** }
 125:src/kernel/core/../../../h/../h/riscv.hpp **** 
 126:src/kernel/core/../../../h/../h/riscv.hpp **** /* 
 127:src/kernel/core/../../../h/../h/riscv.hpp **** --------------------SUPERVISOR REGISTERS--------------------    
 128:src/kernel/core/../../../h/../h/riscv.hpp **** */
 129:src/kernel/core/../../../h/../h/riscv.hpp **** 
 130:src/kernel/core/../../../h/../h/riscv.hpp **** inline void Riscv::w_scause(uint64 scause){
 131:src/kernel/core/../../../h/../h/riscv.hpp ****     asm volatile("csrw scause, %0" : : "r" (scause));
 132:src/kernel/core/../../../h/../h/riscv.hpp **** }
 133:src/kernel/core/../../../h/../h/riscv.hpp **** 
 134:src/kernel/core/../../../h/../h/riscv.hpp **** inline uint64 Riscv::r_scause(){
 135:src/kernel/core/../../../h/../h/riscv.hpp ****     uint64 volatile scause;
 136:src/kernel/core/../../../h/../h/riscv.hpp ****     asm volatile("csrr %0, scause" : "=r" (scause));
 137:src/kernel/core/../../../h/../h/riscv.hpp ****     return scause;
 138:src/kernel/core/../../../h/../h/riscv.hpp **** } 
 139:src/kernel/core/../../../h/../h/riscv.hpp **** 
 140:src/kernel/core/../../../h/../h/riscv.hpp **** inline void Riscv::w_sepc(uint64 sepc){
 141:src/kernel/core/../../../h/../h/riscv.hpp ****     asm volatile("csrw sepc, %0" : : "r" (sepc));
 142:src/kernel/core/../../../h/../h/riscv.hpp **** }
 143:src/kernel/core/../../../h/../h/riscv.hpp **** 
 144:src/kernel/core/../../../h/../h/riscv.hpp **** inline uint64 Riscv::r_sepc(){
 145:src/kernel/core/../../../h/../h/riscv.hpp ****     uint64 volatile sepc;
 146:src/kernel/core/../../../h/../h/riscv.hpp ****     asm volatile("csrr %0, sepc" : "=r" (sepc));
GAS LISTING /tmp/ccPPh9NF.s 			page 5


 147:src/kernel/core/../../../h/../h/riscv.hpp ****     return sepc;
 148:src/kernel/core/../../../h/../h/riscv.hpp **** } 
 149:src/kernel/core/../../../h/../h/riscv.hpp **** 
 150:src/kernel/core/../../../h/../h/riscv.hpp **** inline void Riscv::w_stvec(uint64 stvec){
 151:src/kernel/core/../../../h/../h/riscv.hpp ****     asm volatile("csrw stvec, %0" : : "r" (stvec));
 152:src/kernel/core/../../../h/../h/riscv.hpp **** }
 153:src/kernel/core/../../../h/../h/riscv.hpp **** 
 154:src/kernel/core/../../../h/../h/riscv.hpp **** inline uint64 Riscv::r_stvec(){
 155:src/kernel/core/../../../h/../h/riscv.hpp ****     uint64 volatile stvec;
 156:src/kernel/core/../../../h/../h/riscv.hpp ****     asm volatile("csrr %0, stvec" : "=r" (stvec));
 157:src/kernel/core/../../../h/../h/riscv.hpp ****     return stvec;
 158:src/kernel/core/../../../h/../h/riscv.hpp **** } 
 159:src/kernel/core/../../../h/../h/riscv.hpp **** 
 160:src/kernel/core/../../../h/../h/riscv.hpp **** inline void Riscv::w_stval(uint64 stval){
 161:src/kernel/core/../../../h/../h/riscv.hpp ****     asm volatile("csrw stval, %0" : : "r" (stval));
 162:src/kernel/core/../../../h/../h/riscv.hpp **** }
 163:src/kernel/core/../../../h/../h/riscv.hpp **** 
 164:src/kernel/core/../../../h/../h/riscv.hpp **** inline uint64 Riscv::r_stval(){
 165:src/kernel/core/../../../h/../h/riscv.hpp ****     uint64 volatile stval;
 166:src/kernel/core/../../../h/../h/riscv.hpp ****     asm volatile("csrr %0, stval" : "=r" (stval));
 167:src/kernel/core/../../../h/../h/riscv.hpp ****     return stval;
 168:src/kernel/core/../../../h/../h/riscv.hpp **** } 
 169:src/kernel/core/../../../h/../h/riscv.hpp **** 
 170:src/kernel/core/../../../h/../h/riscv.hpp **** inline void Riscv::ms_sip(uint64 mask){
 171:src/kernel/core/../../../h/../h/riscv.hpp ****     asm volatile ("csrs sip, %0" : : "r" (mask));
 172:src/kernel/core/../../../h/../h/riscv.hpp **** }
 173:src/kernel/core/../../../h/../h/riscv.hpp **** 
 174:src/kernel/core/../../../h/../h/riscv.hpp **** inline void Riscv::mc_sip(uint64 mask){
 175:src/kernel/core/../../../h/../h/riscv.hpp ****     asm volatile ("csrc sip, %0" : : "r" (mask));
 176:src/kernel/core/../../../h/../h/riscv.hpp **** }
 177:src/kernel/core/../../../h/../h/riscv.hpp **** 
 178:src/kernel/core/../../../h/../h/riscv.hpp **** inline void Riscv::w_sip(uint64 sip){
 179:src/kernel/core/../../../h/../h/riscv.hpp ****     asm volatile("csrw sip, %0" : : "r" (sip));
 180:src/kernel/core/../../../h/../h/riscv.hpp **** }
 181:src/kernel/core/../../../h/../h/riscv.hpp **** 
 182:src/kernel/core/../../../h/../h/riscv.hpp **** inline uint64 Riscv::r_sip(){
 183:src/kernel/core/../../../h/../h/riscv.hpp ****     uint64 volatile sip;
 184:src/kernel/core/../../../h/../h/riscv.hpp ****     asm volatile("csrr %0, sip" : "=r" (sip));
 185:src/kernel/core/../../../h/../h/riscv.hpp ****     return sip;
 186:src/kernel/core/../../../h/../h/riscv.hpp **** } 
 187:src/kernel/core/../../../h/../h/riscv.hpp **** 
 188:src/kernel/core/../../../h/../h/riscv.hpp **** inline void Riscv::ms_sie(uint64 mask){
 189:src/kernel/core/../../../h/../h/riscv.hpp ****     asm volatile ("csrs sie, %0" : : "r" (mask));
 190:src/kernel/core/../../../h/../h/riscv.hpp **** }
 191:src/kernel/core/../../../h/../h/riscv.hpp **** 
 192:src/kernel/core/../../../h/../h/riscv.hpp **** inline void Riscv::mc_sie(uint64 mask){
 193:src/kernel/core/../../../h/../h/riscv.hpp ****     asm volatile ("csrc sie, %0" : : "r" (mask));
 194:src/kernel/core/../../../h/../h/riscv.hpp **** }
 195:src/kernel/core/../../../h/../h/riscv.hpp **** 
 196:src/kernel/core/../../../h/../h/riscv.hpp **** inline void Riscv::w_sie(uint64 sie){
 197:src/kernel/core/../../../h/../h/riscv.hpp ****     asm volatile("csrw sie, %0" : : "r" (sie));
 198:src/kernel/core/../../../h/../h/riscv.hpp **** }
 199:src/kernel/core/../../../h/../h/riscv.hpp **** 
 200:src/kernel/core/../../../h/../h/riscv.hpp **** inline uint64 Riscv::r_sie(){
 201:src/kernel/core/../../../h/../h/riscv.hpp ****     uint64 volatile sie;
 202:src/kernel/core/../../../h/../h/riscv.hpp ****     asm volatile("csrr %0, sie" : "=r" (sie));
 203:src/kernel/core/../../../h/../h/riscv.hpp ****     return sie;
GAS LISTING /tmp/ccPPh9NF.s 			page 6


 204:src/kernel/core/../../../h/../h/riscv.hpp **** } 
 205:src/kernel/core/../../../h/../h/riscv.hpp **** 
 206:src/kernel/core/../../../h/../h/riscv.hpp **** inline void Riscv::ms_sstatus(uint64 mask){
 207:src/kernel/core/../../../h/../h/riscv.hpp ****     asm volatile ("csrs sstatus, %0" : : "r" (mask));
 208:src/kernel/core/../../../h/../h/riscv.hpp **** }
 209:src/kernel/core/../../../h/../h/riscv.hpp **** 
 210:src/kernel/core/../../../h/../h/riscv.hpp **** inline void Riscv::mc_sstatus(uint64 mask){
 211:src/kernel/core/../../../h/../h/riscv.hpp ****     asm volatile ("csrc sstatus, %0" : : "r" (mask));
 212:src/kernel/core/../../../h/../h/riscv.hpp **** }
 213:src/kernel/core/../../../h/../h/riscv.hpp **** 
 214:src/kernel/core/../../../h/../h/riscv.hpp **** inline void Riscv::w_sstatus(uint64 sstatus){
 215:src/kernel/core/../../../h/../h/riscv.hpp ****     asm volatile("csrw sstatus, %0" : : "r" (sstatus));
 216:src/kernel/core/../../../h/../h/riscv.hpp **** }
 217:src/kernel/core/../../../h/../h/riscv.hpp **** 
 218:src/kernel/core/../../../h/../h/riscv.hpp **** inline uint64 Riscv::r_sstatus(){
 219:src/kernel/core/../../../h/../h/riscv.hpp ****     uint64 volatile sstatus;
  60              		.loc 2 219 5
 220:src/kernel/core/../../../h/../h/riscv.hpp ****     asm volatile("csrr %0, sstatus" : "=r" (sstatus));
  61              		.loc 2 220 5
  62              		.loc 2 220 54 is_stmt 0
  63              	 #APP
  64              	# 220 "src/kernel/core/../../../h/../h/riscv.hpp" 1
 221              	    return sstatus;
  65              		csrr a5, sstatus
  66              	# 0 "" 2
  67              	 #NO_APP
  68 003c 233CF4FC 		sd	a5,-40(s0)
  69              		.loc 2 221 5 is_stmt 1
  70              		.loc 2 221 12 is_stmt 0
  71 0040 833484FD 		ld	s1,-40(s0)
  72              	.LVL5:
  73              	.LBE7:
  74              	.LBE6:
  22:src/kernel/core/main.cpp ****     kprintString("Starting User Process\n");
  75              		.loc 1 22 5 is_stmt 1
  76              		.loc 1 22 17 is_stmt 0
  77 0044 17050000 		lla	a0,.LC1
  77      13050500 
  78 004c 97000000 		call	_Z12kprintStringPKc
  78      E7800000 
  79              	.LVL6:
  23:src/kernel/core/main.cpp ****     TCB::yield();
  80              		.loc 1 23 5 is_stmt 1
  81              		.loc 1 23 15 is_stmt 0
  82 0054 97000000 		call	_ZN3TCB5yieldEv
  82      E7800000 
  83              	.LVL7:
  24:src/kernel/core/main.cpp ****     Riscv::w_sstatus(sstatus);
  84              		.loc 1 24 5 is_stmt 1
  85              	.LBB8:
  86              	.LBB9:
 215:src/kernel/core/../../../h/../h/riscv.hpp **** }
  87              		.loc 2 215 5
 215:src/kernel/core/../../../h/../h/riscv.hpp **** }
  88              		.loc 2 215 55 is_stmt 0
  89              	 #APP
  90              	# 215 "src/kernel/core/../../../h/../h/riscv.hpp" 1
GAS LISTING /tmp/ccPPh9NF.s 			page 7


  91              		csrw sstatus, s1
  92              	# 0 "" 2
  93              	.LVL8:
  94              	 #NO_APP
  95              	.LBE9:
  96              	.LBE8:
  25:src/kernel/core/main.cpp ****     
  26:src/kernel/core/main.cpp **** 
  27:src/kernel/core/main.cpp ****     kprintString("SRECNA NOVA GODINAAAA!!!!!\n\n");
  97              		.loc 1 27 5 is_stmt 1
  98              		.loc 1 27 17 is_stmt 0
  99 0060 17050000 		lla	a0,.LC2
  99      13050500 
 100 0068 97000000 		call	_Z12kprintStringPKc
 100      E7800000 
 101              	.LVL9:
  28:src/kernel/core/main.cpp ****     //kprintString("\n\nKERNEL ENDED SUCCESSFULLY!\n\n");
  29:src/kernel/core/main.cpp ****     return 0;
 102              		.loc 1 29 5 is_stmt 1
 103              		.loc 1 29 12 is_stmt 0
 104 0070 13050000 		li	a0,0
 105              	.LVL10:
 106              	.L3:
  30:src/kernel/core/main.cpp **** }
 107              		.loc 1 30 1
 108 0074 83308102 		ld	ra,40(sp)
 109              		.cfi_remember_state
 110              		.cfi_restore 1
 111 0078 03340102 		ld	s0,32(sp)
 112              		.cfi_restore 8
 113              		.cfi_def_cfa 2, 48
 114 007c 83348101 		ld	s1,24(sp)
 115              		.cfi_restore 9
 116 0080 13010103 		addi	sp,sp,48
 117              		.cfi_def_cfa_offset 0
 118 0084 67800000 		jr	ra
 119              	.LVL11:
 120              	.L5:
 121              		.cfi_restore_state
  15:src/kernel/core/main.cpp ****         return -1;
 122              		.loc 1 15 9 is_stmt 1
  15:src/kernel/core/main.cpp ****         return -1;
 123              		.loc 1 15 21 is_stmt 0
 124 0088 17050000 		lla	a0,.LC0
 124      13050500 
 125              	.LVL12:
 126 0090 97000000 		call	_Z12kprintStringPKc
 126      E7800000 
 127              	.LVL13:
  16:src/kernel/core/main.cpp ****     }
 128              		.loc 1 16 9 is_stmt 1
  16:src/kernel/core/main.cpp ****     }
 129              		.loc 1 16 17 is_stmt 0
 130 0098 1305F0FF 		li	a0,-1
 131 009c 6FF09FFD 		j	.L3
 132              		.cfi_endproc
 133              	.LFE113:
GAS LISTING /tmp/ccPPh9NF.s 			page 8


 135              		.align	2
 136              		.globl	_Z13newKernelMainv
 138              	_Z13newKernelMainv:
 139              	.LFB114:
  31:src/kernel/core/main.cpp **** 
  32:src/kernel/core/main.cpp **** int newKernelMain(){
 140              		.loc 1 32 20 is_stmt 1
 141              		.cfi_startproc
 142 00a0 130101FF 		addi	sp,sp,-16
 143              		.cfi_def_cfa_offset 16
 144 00a4 23341100 		sd	ra,8(sp)
 145 00a8 23308100 		sd	s0,0(sp)
 146              		.cfi_offset 1, -8
 147              		.cfi_offset 8, -16
 148 00ac 13040101 		addi	s0,sp,16
 149              		.cfi_def_cfa 8, 0
  33:src/kernel/core/main.cpp ****     uint64 ra, sp;
 150              		.loc 1 33 5
  34:src/kernel/core/main.cpp ****     asm volatile("mv %0, ra" : "=r" (ra));
 151              		.loc 1 34 5
 152              		.loc 1 34 42 is_stmt 0
 153              	 #APP
 154              	# 34 "src/kernel/core/main.cpp" 1
  35              	    asm volatile("mv %0, sp" : "=r" (sp));
 155              		mv a0, ra
 156              	# 0 "" 2
 157              	.LVL14:
 158              		.loc 1 35 5 is_stmt 1
 159              		.loc 1 35 42 is_stmt 0
 160              	# 35 "src/kernel/core/main.cpp" 1
  36              	    TCB::setPanicContext(ra,sp);
 161              		mv a1, sp
 162              	# 0 "" 2
 163              	.LVL15:
 164              		.loc 1 36 5 is_stmt 1
 165              		.loc 1 36 25 is_stmt 0
 166              	 #NO_APP
 167 00b8 97000000 		call	_ZN3TCB15setPanicContextEmm
 167      E7800000 
 168              	.LVL16:
  37:src/kernel/core/main.cpp **** 
  38:src/kernel/core/main.cpp ****     int panic = kernelInit();
 169              		.loc 1 38 5 is_stmt 1
 170              		.loc 1 38 27 is_stmt 0
 171 00c0 97000000 		call	_Z10kernelInitv
 171      E7800000 
 172              	.LVL17:
  39:src/kernel/core/main.cpp ****     if(panic < 0){
 173              		.loc 1 39 5 is_stmt 1
 174 00c8 63400502 		blt	a0,zero,.L10
  40:src/kernel/core/main.cpp ****         kprintString("\nKERNEL FAILED TO INITALIZE!!!!\n\n");
  41:src/kernel/core/main.cpp ****         return -1;
  42:src/kernel/core/main.cpp ****     }
  43:src/kernel/core/main.cpp **** 
  44:src/kernel/core/main.cpp ****     kTestMain();
 175              		.loc 1 44 5
 176              		.loc 1 44 14 is_stmt 0
GAS LISTING /tmp/ccPPh9NF.s 			page 9


 177 00cc 97000000 		call	kTestMain
 177      E7800000 
 178              	.LVL18:
  45:src/kernel/core/main.cpp **** 
  46:src/kernel/core/main.cpp ****     return 0;
 179              		.loc 1 46 5 is_stmt 1
 180              		.loc 1 46 12 is_stmt 0
 181 00d4 13050000 		li	a0,0
 182              	.L8:
  47:src/kernel/core/main.cpp **** }
 183              		.loc 1 47 1
 184 00d8 83308100 		ld	ra,8(sp)
 185              		.cfi_remember_state
 186              		.cfi_restore 1
 187 00dc 03340100 		ld	s0,0(sp)
 188              		.cfi_restore 8
 189              		.cfi_def_cfa 2, 16
 190 00e0 13010101 		addi	sp,sp,16
 191              		.cfi_def_cfa_offset 0
 192 00e4 67800000 		jr	ra
 193              	.LVL19:
 194              	.L10:
 195              		.cfi_restore_state
  40:src/kernel/core/main.cpp ****         kprintString("\nKERNEL FAILED TO INITALIZE!!!!\n\n");
 196              		.loc 1 40 9 is_stmt 1
  40:src/kernel/core/main.cpp ****         kprintString("\nKERNEL FAILED TO INITALIZE!!!!\n\n");
 197              		.loc 1 40 21 is_stmt 0
 198 00e8 17050000 		lla	a0,.LC0
 198      13050500 
 199              	.LVL20:
 200 00f0 97000000 		call	_Z12kprintStringPKc
 200      E7800000 
 201              	.LVL21:
  41:src/kernel/core/main.cpp ****     }
 202              		.loc 1 41 9 is_stmt 1
  41:src/kernel/core/main.cpp ****     }
 203              		.loc 1 41 17 is_stmt 0
 204 00f8 1305F0FF 		li	a0,-1
 205 00fc 6FF0DFFD 		j	.L8
 206              		.cfi_endproc
 207              	.LFE114:
 209              		.align	2
 210              		.globl	main
 212              	main:
 213              	.LFB115:
  48:src/kernel/core/main.cpp **** 
  49:src/kernel/core/main.cpp **** 
  50:src/kernel/core/main.cpp **** int main(){
 214              		.loc 1 50 11 is_stmt 1
 215              		.cfi_startproc
 216 0100 130101FF 		addi	sp,sp,-16
 217              		.cfi_def_cfa_offset 16
 218 0104 23341100 		sd	ra,8(sp)
 219 0108 23308100 		sd	s0,0(sp)
 220              		.cfi_offset 1, -8
 221              		.cfi_offset 8, -16
 222 010c 13040101 		addi	s0,sp,16
GAS LISTING /tmp/ccPPh9NF.s 			page 10


 223              		.cfi_def_cfa 8, 0
  51:src/kernel/core/main.cpp ****     return oldKernelMain();
 224              		.loc 1 51 5
 225              		.loc 1 51 25 is_stmt 0
 226 0110 97000000 		call	_Z13oldKernelMainv
 226      E7800000 
 227              	.LVL22:
  52:src/kernel/core/main.cpp ****     // return  newKernelMain();
  53:src/kernel/core/main.cpp **** }   ...
 228              		.loc 1 53 1
 229 0118 83308100 		ld	ra,8(sp)
 230              		.cfi_restore 1
 231 011c 03340100 		ld	s0,0(sp)
 232              		.cfi_restore 8
 233              		.cfi_def_cfa 2, 16
 234 0120 13010101 		addi	sp,sp,16
 235              		.cfi_def_cfa_offset 0
 236 0124 67800000 		jr	ra
 237              		.cfi_endproc
 238              	.LFE115:
 240              		.section	.rodata.str1.8,"aMS",@progbits,1
 241              		.align	3
 242              	.LC0:
 243 0000 0A4B4552 		.string	"\nKERNEL FAILED TO INITALIZE!!!!\n\n"
 243      4E454C20 
 243      4641494C 
 243      45442054 
 243      4F20494E 
 244 0022 00000000 		.zero	6
 244      0000
 245              	.LC1:
 246 0028 53746172 		.string	"Starting User Process\n"
 246      74696E67 
 246      20557365 
 246      72205072 
 246      6F636573 
 247 003f 00       		.zero	1
 248              	.LC2:
 249 0040 53524543 		.string	"SRECNA NOVA GODINAAAA!!!!!\n\n"
 249      4E41204E 
 249      4F564120 
 249      474F4449 
 249      4E414141 
 250              		.text
 251              	.Letext0:
 252              		.file 3 "src/kernel/core/../../../h/../h/../lib/hw.h"
 253              		.file 4 "src/kernel/core/../../../h/../h/../h/../h/list.h"
 254              		.file 5 "src/kernel/core/../../../h/../h/../h/object_cache.h"
 255              		.file 6 "src/kernel/core/../../../h/../h/slab_allocator.h"
 256              		.file 7 "src/kernel/core/../../../h/../h/tcb.hpp"
 257              		.file 8 "src/kernel/core/../../../h/../h/slab.h"
 258              		.file 9 "src/kernel/core/../../../h/kernel_lib.h"
 259              		.file 10 "src/kernel/core/../../../h/../h/kernel_funs.h"
GAS LISTING /tmp/ccPPh9NF.s 			page 11


DEFINED SYMBOLS
                            *ABS*:0000000000000000 main.cpp
     /tmp/ccPPh9NF.s:12     .text:0000000000000000 _Z13oldKernelMainv
     /tmp/ccPPh9NF.s:16     .text:0000000000000000 .L0 
     /tmp/ccPPh9NF.s:17     .text:0000000000000000 .L0 
     /tmp/ccPPh9NF.s:18     .text:0000000000000004 .L0 
     /tmp/ccPPh9NF.s:22     .text:0000000000000010 .L0 
     /tmp/ccPPh9NF.s:23     .text:0000000000000010 .L0 
     /tmp/ccPPh9NF.s:24     .text:0000000000000010 .L0 
     /tmp/ccPPh9NF.s:26     .text:0000000000000014 .L0 
     /tmp/ccPPh9NF.s:28     .text:0000000000000014 .L0 
     /tmp/ccPPh9NF.s:29     .text:0000000000000014 .L0 
src/kernel/core/main.cpp:9      .text:0000000000000014 .L0 
     /tmp/ccPPh9NF.s:36     .text:0000000000000018 .L0 
src/kernel/core/main.cpp:10     .text:0000000000000018 .L0 
     /tmp/ccPPh9NF.s:42     .text:000000000000001c .L0 
     /tmp/ccPPh9NF.s:44     .text:000000000000001c .L0 
     /tmp/ccPPh9NF.s:47     .text:0000000000000024 .L0 
     /tmp/ccPPh9NF.s:48     .text:0000000000000024 .L0 
     /tmp/ccPPh9NF.s:51     .text:000000000000002c .L0 
     /tmp/ccPPh9NF.s:53     .text:0000000000000030 .L0 
     /tmp/ccPPh9NF.s:54     .text:0000000000000030 .L0 
     /tmp/ccPPh9NF.s:60     .text:0000000000000038 .L0 
     /tmp/ccPPh9NF.s:61     .text:0000000000000038 .L0 
     /tmp/ccPPh9NF.s:62     .text:0000000000000038 .L0 
src/kernel/core/../../../h/../h/riscv.hpp:220    .text:0000000000000038 .L0 
     /tmp/ccPPh9NF.s:70     .text:0000000000000040 .L0 
     /tmp/ccPPh9NF.s:71     .text:0000000000000040 .L0 
     /tmp/ccPPh9NF.s:76     .text:0000000000000044 .L0 
     /tmp/ccPPh9NF.s:77     .text:0000000000000044 .L0 
     /tmp/ccPPh9NF.s:81     .text:0000000000000054 .L0 
     /tmp/ccPPh9NF.s:82     .text:0000000000000054 .L0 
     /tmp/ccPPh9NF.s:87     .text:000000000000005c .L0 
     /tmp/ccPPh9NF.s:88     .text:000000000000005c .L0 
src/kernel/core/../../../h/../h/riscv.hpp:215    .text:000000000000005c .L0 
     /tmp/ccPPh9NF.s:98     .text:0000000000000060 .L0 
     /tmp/ccPPh9NF.s:99     .text:0000000000000060 .L0 
     /tmp/ccPPh9NF.s:103    .text:0000000000000070 .L0 
     /tmp/ccPPh9NF.s:104    .text:0000000000000070 .L0 
     /tmp/ccPPh9NF.s:108    .text:0000000000000074 .L0 
     /tmp/ccPPh9NF.s:109    .text:0000000000000078 .L0 
     /tmp/ccPPh9NF.s:110    .text:0000000000000078 .L0 
     /tmp/ccPPh9NF.s:112    .text:000000000000007c .L0 
     /tmp/ccPPh9NF.s:113    .text:000000000000007c .L0 
     /tmp/ccPPh9NF.s:115    .text:0000000000000080 .L0 
     /tmp/ccPPh9NF.s:117    .text:0000000000000084 .L0 
     /tmp/ccPPh9NF.s:121    .text:0000000000000088 .L0 
     /tmp/ccPPh9NF.s:123    .text:0000000000000088 .L0 
     /tmp/ccPPh9NF.s:124    .text:0000000000000088 .L0 
     /tmp/ccPPh9NF.s:129    .text:0000000000000098 .L0 
     /tmp/ccPPh9NF.s:130    .text:0000000000000098 .L0 
     /tmp/ccPPh9NF.s:132    .text:00000000000000a0 .L0 
     /tmp/ccPPh9NF.s:138    .text:00000000000000a0 _Z13newKernelMainv
     /tmp/ccPPh9NF.s:141    .text:00000000000000a0 .L0 
     /tmp/ccPPh9NF.s:142    .text:00000000000000a0 .L0 
     /tmp/ccPPh9NF.s:143    .text:00000000000000a4 .L0 
     /tmp/ccPPh9NF.s:146    .text:00000000000000ac .L0 
GAS LISTING /tmp/ccPPh9NF.s 			page 12


     /tmp/ccPPh9NF.s:147    .text:00000000000000ac .L0 
     /tmp/ccPPh9NF.s:149    .text:00000000000000b0 .L0 
     /tmp/ccPPh9NF.s:151    .text:00000000000000b0 .L0 
     /tmp/ccPPh9NF.s:152    .text:00000000000000b0 .L0 
src/kernel/core/main.cpp:34     .text:00000000000000b0 .L0 
     /tmp/ccPPh9NF.s:159    .text:00000000000000b4 .L0 
src/kernel/core/main.cpp:35     .text:00000000000000b4 .L0 
     /tmp/ccPPh9NF.s:165    .text:00000000000000b8 .L0 
     /tmp/ccPPh9NF.s:167    .text:00000000000000b8 .L0 
     /tmp/ccPPh9NF.s:170    .text:00000000000000c0 .L0 
     /tmp/ccPPh9NF.s:171    .text:00000000000000c0 .L0 
     /tmp/ccPPh9NF.s:174    .text:00000000000000c8 .L0 
     /tmp/ccPPh9NF.s:176    .text:00000000000000cc .L0 
     /tmp/ccPPh9NF.s:177    .text:00000000000000cc .L0 
     /tmp/ccPPh9NF.s:180    .text:00000000000000d4 .L0 
     /tmp/ccPPh9NF.s:181    .text:00000000000000d4 .L0 
     /tmp/ccPPh9NF.s:184    .text:00000000000000d8 .L0 
     /tmp/ccPPh9NF.s:185    .text:00000000000000dc .L0 
     /tmp/ccPPh9NF.s:186    .text:00000000000000dc .L0 
     /tmp/ccPPh9NF.s:188    .text:00000000000000e0 .L0 
     /tmp/ccPPh9NF.s:189    .text:00000000000000e0 .L0 
     /tmp/ccPPh9NF.s:191    .text:00000000000000e4 .L0 
     /tmp/ccPPh9NF.s:195    .text:00000000000000e8 .L0 
     /tmp/ccPPh9NF.s:197    .text:00000000000000e8 .L0 
     /tmp/ccPPh9NF.s:198    .text:00000000000000e8 .L0 
     /tmp/ccPPh9NF.s:203    .text:00000000000000f8 .L0 
     /tmp/ccPPh9NF.s:204    .text:00000000000000f8 .L0 
     /tmp/ccPPh9NF.s:206    .text:0000000000000100 .L0 
     /tmp/ccPPh9NF.s:212    .text:0000000000000100 main
     /tmp/ccPPh9NF.s:215    .text:0000000000000100 .L0 
     /tmp/ccPPh9NF.s:216    .text:0000000000000100 .L0 
     /tmp/ccPPh9NF.s:217    .text:0000000000000104 .L0 
     /tmp/ccPPh9NF.s:220    .text:000000000000010c .L0 
     /tmp/ccPPh9NF.s:221    .text:000000000000010c .L0 
     /tmp/ccPPh9NF.s:223    .text:0000000000000110 .L0 
     /tmp/ccPPh9NF.s:225    .text:0000000000000110 .L0 
     /tmp/ccPPh9NF.s:226    .text:0000000000000110 .L0 
     /tmp/ccPPh9NF.s:229    .text:0000000000000118 .L0 
     /tmp/ccPPh9NF.s:230    .text:000000000000011c .L0 
     /tmp/ccPPh9NF.s:232    .text:0000000000000120 .L0 
     /tmp/ccPPh9NF.s:233    .text:0000000000000120 .L0 
     /tmp/ccPPh9NF.s:235    .text:0000000000000124 .L0 
     /tmp/ccPPh9NF.s:237    .text:0000000000000128 .L0 
     /tmp/ccPPh9NF.s:260    .text:0000000000000128 .L0 
     /tmp/ccPPh9NF.s:245    .rodata.str1.8:0000000000000028 .LC1
     /tmp/ccPPh9NF.s:77     .text:0000000000000044 .L0 
     /tmp/ccPPh9NF.s:248    .rodata.str1.8:0000000000000040 .LC2
     /tmp/ccPPh9NF.s:99     .text:0000000000000060 .L0 
     /tmp/ccPPh9NF.s:242    .rodata.str1.8:0000000000000000 .LC0
     /tmp/ccPPh9NF.s:124    .text:0000000000000088 .L0 
     /tmp/ccPPh9NF.s:198    .text:00000000000000e8 .L0 
     /tmp/ccPPh9NF.s:120    .text:0000000000000088 .L5
     /tmp/ccPPh9NF.s:106    .text:0000000000000074 .L3
     /tmp/ccPPh9NF.s:194    .text:00000000000000e8 .L10
     /tmp/ccPPh9NF.s:182    .text:00000000000000d8 .L8
     /tmp/ccPPh9NF.s:2264   .debug_abbrev:0000000000000000 .Ldebug_abbrev0
     /tmp/ccPPh9NF.s:3649   .debug_str:0000000000000751 .LASF277
GAS LISTING /tmp/ccPPh9NF.s 			page 13


     /tmp/ccPPh9NF.s:3501   .debug_str:000000000000027d .LASF278
     /tmp/ccPPh9NF.s:3819   .debug_str:0000000000000cf9 .LASF279
     /tmp/ccPPh9NF.s:8      .text:0000000000000000 .Ltext0
     /tmp/ccPPh9NF.s:251    .text:0000000000000128 .Letext0
     /tmp/ccPPh9NF.s:3407   .debug_line:0000000000000000 .Ldebug_line0
     /tmp/ccPPh9NF.s:3443   .debug_str:00000000000000dc .LASF0
     /tmp/ccPPh9NF.s:3927   .debug_str:0000000000000fe4 .LASF1
     /tmp/ccPPh9NF.s:3921   .debug_str:0000000000000fb1 .LASF3
     /tmp/ccPPh9NF.s:3867   .debug_str:0000000000000e2f .LASF2
     /tmp/ccPPh9NF.s:3831   .debug_str:0000000000000d4c .LASF4
     /tmp/ccPPh9NF.s:3841   .debug_str:0000000000000d7c .LASF5
     /tmp/ccPPh9NF.s:3553   .debug_str:0000000000000473 .LASF6
     /tmp/ccPPh9NF.s:3645   .debug_str:000000000000073a .LASF7
     /tmp/ccPPh9NF.s:3619   .debug_str:000000000000066b .LASF8
     /tmp/ccPPh9NF.s:3777   .debug_str:0000000000000be3 .LASF9
     /tmp/ccPPh9NF.s:3471   .debug_str:0000000000000181 .LASF10
     /tmp/ccPPh9NF.s:3911   .debug_str:0000000000000f73 .LASF11
     /tmp/ccPPh9NF.s:3561   .debug_str:0000000000000497 .LASF12
     /tmp/ccPPh9NF.s:3503   .debug_str:0000000000000296 .LASF13
     /tmp/ccPPh9NF.s:3647   .debug_str:0000000000000741 .LASF14
     /tmp/ccPPh9NF.s:3569   .debug_str:00000000000004ba .LASF15
     /tmp/ccPPh9NF.s:3815   .debug_str:0000000000000ce8 .LASF16
     /tmp/ccPPh9NF.s:3571   .debug_str:00000000000004ca .LASF17
     /tmp/ccPPh9NF.s:3539   .debug_str:0000000000000400 .LASF18
     /tmp/ccPPh9NF.s:3959   .debug_str:00000000000010d3 .LASF73
     /tmp/ccPPh9NF.s:3445   .debug_str:00000000000000e9 .LASF19
     /tmp/ccPPh9NF.s:3479   .debug_str:00000000000001a7 .LASF20
     /tmp/ccPPh9NF.s:3595   .debug_str:0000000000000594 .LASF75
     /tmp/ccPPh9NF.s:3791   .debug_str:0000000000000c4a .LASF26
     /tmp/ccPPh9NF.s:3589   .debug_str:0000000000000570 .LASF105
     /tmp/ccPPh9NF.s:3451   .debug_str:0000000000000109 .LASF21
     /tmp/ccPPh9NF.s:3881   .debug_str:0000000000000e96 .LASF22
     /tmp/ccPPh9NF.s:3949   .debug_str:000000000000108a .LASF23
     /tmp/ccPPh9NF.s:3429   .debug_str:000000000000008e .LASF24
     /tmp/ccPPh9NF.s:3671   .debug_str:00000000000008a6 .LASF25
     /tmp/ccPPh9NF.s:3529   .debug_str:000000000000038b .LASF33
     /tmp/ccPPh9NF.s:3483   .debug_str:00000000000001cf .LASF28
     /tmp/ccPPh9NF.s:3547   .debug_str:0000000000000454 .LASF27
     /tmp/ccPPh9NF.s:3875   .debug_str:0000000000000e67 .LASF29
     /tmp/ccPPh9NF.s:3747   .debug_str:0000000000000b25 .LASF30
     /tmp/ccPPh9NF.s:3753   .debug_str:0000000000000b4f .LASF31
     /tmp/ccPPh9NF.s:3741   .debug_str:0000000000000afb .LASF43
     /tmp/ccPPh9NF.s:3579   .debug_str:0000000000000537 .LASF45
     /tmp/ccPPh9NF.s:3587   .debug_str:0000000000000566 .LASF32
     /tmp/ccPPh9NF.s:3603   .debug_str:00000000000005e6 .LASF34
     /tmp/ccPPh9NF.s:3623   .debug_str:0000000000000685 .LASF35
     /tmp/ccPPh9NF.s:3723   .debug_str:0000000000000a38 .LASF36
     /tmp/ccPPh9NF.s:3743   .debug_str:0000000000000b0b .LASF37
     /tmp/ccPPh9NF.s:3681   .debug_str:00000000000008f9 .LASF38
     /tmp/ccPPh9NF.s:3871   .debug_str:0000000000000e44 .LASF39
     /tmp/ccPPh9NF.s:3731   .debug_str:0000000000000a9a .LASF40
     /tmp/ccPPh9NF.s:3701   .debug_str:000000000000098f .LASF41
     /tmp/ccPPh9NF.s:3679   .debug_str:00000000000008da .LASF42
     /tmp/ccPPh9NF.s:3909   .debug_str:0000000000000f66 .LASF44
     /tmp/ccPPh9NF.s:3725   .debug_str:0000000000000a55 .LASF46
     /tmp/ccPPh9NF.s:3425   .debug_str:0000000000000075 .LASF47
     /tmp/ccPPh9NF.s:3727   .debug_str:0000000000000a77 .LASF48
GAS LISTING /tmp/ccPPh9NF.s 			page 14


     /tmp/ccPPh9NF.s:3821   .debug_str:0000000000000d1c .LASF49
     /tmp/ccPPh9NF.s:3473   .debug_str:0000000000000191 .LASF50
     /tmp/ccPPh9NF.s:3861   .debug_str:0000000000000e0f .LASF51
     /tmp/ccPPh9NF.s:3865   .debug_str:0000000000000e2a .LASF52
     /tmp/ccPPh9NF.s:3705   .debug_str:00000000000009ac .LASF53
     /tmp/ccPPh9NF.s:3693   .debug_str:000000000000094c .LASF54
     /tmp/ccPPh9NF.s:3851   .debug_str:0000000000000dcf .LASF55
     /tmp/ccPPh9NF.s:3793   .debug_str:0000000000000c56 .LASF56
     /tmp/ccPPh9NF.s:3453   .debug_str:000000000000010e .LASF57
     /tmp/ccPPh9NF.s:3769   .debug_str:0000000000000bc7 .LASF58
     /tmp/ccPPh9NF.s:3891   .debug_str:0000000000000ee8 .LASF59
     /tmp/ccPPh9NF.s:3721   .debug_str:0000000000000a12 .LASF60
     /tmp/ccPPh9NF.s:3707   .debug_str:00000000000009b6 .LASF61
     /tmp/ccPPh9NF.s:3809   .debug_str:0000000000000ca8 .LASF62
     /tmp/ccPPh9NF.s:3581   .debug_str:000000000000054d .LASF63
     /tmp/ccPPh9NF.s:3481   .debug_str:00000000000001ac .LASF64
     /tmp/ccPPh9NF.s:3849   .debug_str:0000000000000dc1 .LASF65
     /tmp/ccPPh9NF.s:3577   .debug_str:0000000000000514 .LASF66
     /tmp/ccPPh9NF.s:3917   .debug_str:0000000000000f93 .LASF67
     /tmp/ccPPh9NF.s:3533   .debug_str:00000000000003b3 .LASF68
     /tmp/ccPPh9NF.s:3897   .debug_str:0000000000000f03 .LASF69
     /tmp/ccPPh9NF.s:3573   .debug_str:00000000000004e0 .LASF70
     /tmp/ccPPh9NF.s:3651   .debug_str:0000000000000821 .LASF71
     /tmp/ccPPh9NF.s:3733   .debug_str:0000000000000ab7 .LASF72
     /tmp/ccPPh9NF.s:3883   .debug_str:0000000000000e9f .LASF74
     /tmp/ccPPh9NF.s:3941   .debug_str:000000000000103a .LASF76
     /tmp/ccPPh9NF.s:3611   .debug_str:000000000000061e .LASF77
     /tmp/ccPPh9NF.s:3817   .debug_str:0000000000000cf4 .LASF78
     /tmp/ccPPh9NF.s:3973   .debug_str:000000000000112f .LASF156
     /tmp/ccPPh9NF.s:3771   .debug_str:0000000000000bcc .LASF79
     /tmp/ccPPh9NF.s:3463   .debug_str:0000000000000141 .LASF80
     /tmp/ccPPh9NF.s:3685   .debug_str:0000000000000919 .LASF81
     /tmp/ccPPh9NF.s:3833   .debug_str:0000000000000d53 .LASF82
     /tmp/ccPPh9NF.s:3511   .debug_str:00000000000002df .LASF83
     /tmp/ccPPh9NF.s:3689   .debug_str:0000000000000925 .LASF84
     /tmp/ccPPh9NF.s:3967   .debug_str:000000000000110b .LASF85
     /tmp/ccPPh9NF.s:3947   .debug_str:0000000000001077 .LASF86
     /tmp/ccPPh9NF.s:3761   .debug_str:0000000000000b93 .LASF87
     /tmp/ccPPh9NF.s:3637   .debug_str:00000000000006fb .LASF88
     /tmp/ccPPh9NF.s:3555   .debug_str:000000000000047a .LASF89
     /tmp/ccPPh9NF.s:3745   .debug_str:0000000000000b12 .LASF90
     /tmp/ccPPh9NF.s:3521   .debug_str:000000000000032c .LASF91
     /tmp/ccPPh9NF.s:3691   .debug_str:0000000000000942 .LASF264
     /tmp/ccPPh9NF.s:3765   .debug_str:0000000000000ba9 .LASF266
     /tmp/ccPPh9NF.s:3415   .debug_str:000000000000002c .LASF92
     /tmp/ccPPh9NF.s:3963   .debug_str:00000000000010e8 .LASF93
     /tmp/ccPPh9NF.s:3773   .debug_str:0000000000000bd3 .LASF94
     /tmp/ccPPh9NF.s:3749   .debug_str:0000000000000b32 .LASF95
     /tmp/ccPPh9NF.s:3419   .debug_str:0000000000000044 .LASF96
     /tmp/ccPPh9NF.s:3965   .debug_str:00000000000010fb .LASF97
     /tmp/ccPPh9NF.s:3585   .debug_str:0000000000000561 .LASF98
     /tmp/ccPPh9NF.s:3505   .debug_str:00000000000002a5 .LASF99
     /tmp/ccPPh9NF.s:3475   .debug_str:0000000000000197 .LASF100
     /tmp/ccPPh9NF.s:3525   .debug_str:0000000000000361 .LASF101
     /tmp/ccPPh9NF.s:3593   .debug_str:000000000000058b .LASF102
     /tmp/ccPPh9NF.s:3641   .debug_str:000000000000071a .LASF103
     /tmp/ccPPh9NF.s:3807   .debug_str:0000000000000ca3 .LASF104
GAS LISTING /tmp/ccPPh9NF.s 			page 15


     /tmp/ccPPh9NF.s:3673   .debug_str:00000000000008b0 .LASF106
     /tmp/ccPPh9NF.s:3823   .debug_str:0000000000000d21 .LASF107
     /tmp/ccPPh9NF.s:3675   .debug_str:00000000000008b9 .LASF108
     /tmp/ccPPh9NF.s:3609   .debug_str:0000000000000615 .LASF109
     /tmp/ccPPh9NF.s:3969   .debug_str:0000000000001113 .LASF110
     /tmp/ccPPh9NF.s:3639   .debug_str:0000000000000710 .LASF111
     /tmp/ccPPh9NF.s:3775   .debug_str:0000000000000bdb .LASF280
     /tmp/ccPPh9NF.s:3597   .debug_str:00000000000005a8 .LASF112
     /tmp/ccPPh9NF.s:3417   .debug_str:0000000000000034 .LASF113
     /tmp/ccPPh9NF.s:3763   .debug_str:0000000000000b9d .LASF114
     /tmp/ccPPh9NF.s:3457   .debug_str:000000000000011d .LASF115
     /tmp/ccPPh9NF.s:3531   .debug_str:00000000000003a0 .LASF116
     /tmp/ccPPh9NF.s:3813   .debug_str:0000000000000cdb .LASF117
     /tmp/ccPPh9NF.s:3943   .debug_str:0000000000001060 .LASF118
     /tmp/ccPPh9NF.s:3713   .debug_str:00000000000009dc .LASF119
     /tmp/ccPPh9NF.s:3937   .debug_str:000000000000101d .LASF120
     /tmp/ccPPh9NF.s:3615   .debug_str:000000000000062a .LASF121
     /tmp/ccPPh9NF.s:3751   .debug_str:0000000000000b46 .LASF122
     /tmp/ccPPh9NF.s:3939   .debug_str:0000000000001026 .LASF123
     /tmp/ccPPh9NF.s:3607   .debug_str:000000000000060e .LASF124
     /tmp/ccPPh9NF.s:3411   .debug_str:0000000000000007 .LASF125
     /tmp/ccPPh9NF.s:3605   .debug_str:0000000000000603 .LASF126
     /tmp/ccPPh9NF.s:3887   .debug_str:0000000000000ec4 .LASF127
     /tmp/ccPPh9NF.s:3485   .debug_str:0000000000000202 .LASF128
     /tmp/ccPPh9NF.s:3659   .debug_str:000000000000085a .LASF129
     /tmp/ccPPh9NF.s:3837   .debug_str:0000000000000d6a .LASF130
     /tmp/ccPPh9NF.s:3519   .debug_str:0000000000000315 .LASF131
     /tmp/ccPPh9NF.s:3717   .debug_str:00000000000009f9 .LASF132
     /tmp/ccPPh9NF.s:3923   .debug_str:0000000000000fb7 .LASF133
     /tmp/ccPPh9NF.s:3783   .debug_str:0000000000000c09 .LASF134
     /tmp/ccPPh9NF.s:3545   .debug_str:0000000000000439 .LASF135
     /tmp/ccPPh9NF.s:3665   .debug_str:000000000000088b .LASF136
     /tmp/ccPPh9NF.s:3493   .debug_str:0000000000000237 .LASF137
     /tmp/ccPPh9NF.s:3543   .debug_str:000000000000042c .LASF138
     /tmp/ccPPh9NF.s:3695   .debug_str:0000000000000956 .LASF139
     /tmp/ccPPh9NF.s:3583   .debug_str:000000000000055c .LASF281
     /tmp/ccPPh9NF.s:3667   .debug_str:000000000000089a .LASF140
     /tmp/ccPPh9NF.s:3535   .debug_str:00000000000003de .LASF142
     /tmp/ccPPh9NF.s:3657   .debug_str:0000000000000851 .LASF141
     /tmp/ccPPh9NF.s:3877   .debug_str:0000000000000e7c .LASF143
     /tmp/ccPPh9NF.s:3797   .debug_str:0000000000000c63 .LASF144
     /tmp/ccPPh9NF.s:3601   .debug_str:00000000000005cc .LASF145
     /tmp/ccPPh9NF.s:3895   .debug_str:0000000000000efd .LASF146
     /tmp/ccPPh9NF.s:3661   .debug_str:0000000000000873 .LASF147
     /tmp/ccPPh9NF.s:3629   .debug_str:00000000000006b3 .LASF148
     /tmp/ccPPh9NF.s:3617   .debug_str:0000000000000649 .LASF150
     /tmp/ccPPh9NF.s:3455   .debug_str:0000000000000113 .LASF149
     /tmp/ccPPh9NF.s:3925   .debug_str:0000000000000fd0 .LASF151
     /tmp/ccPPh9NF.s:3557   .debug_str:0000000000000482 .LASF152
     /tmp/ccPPh9NF.s:3845   .debug_str:0000000000000d94 .LASF153
     /tmp/ccPPh9NF.s:3591   .debug_str:000000000000057d .LASF154
     /tmp/ccPPh9NF.s:3421   .debug_str:0000000000000049 .LASF155
     /tmp/ccPPh9NF.s:3653   .debug_str:000000000000082f .LASF157
     /tmp/ccPPh9NF.s:3795   .debug_str:0000000000000c5b .LASF158
     /tmp/ccPPh9NF.s:3643   .debug_str:000000000000072f .LASF159
     /tmp/ccPPh9NF.s:3729   .debug_str:0000000000000a94 .LASF160
     /tmp/ccPPh9NF.s:3913   .debug_str:0000000000000f81 .LASF161
GAS LISTING /tmp/ccPPh9NF.s 			page 16


     /tmp/ccPPh9NF.s:3855   .debug_str:0000000000000de9 .LASF162
     /tmp/ccPPh9NF.s:3951   .debug_str:0000000000001094 .LASF163
     /tmp/ccPPh9NF.s:3859   .debug_str:0000000000000e0a .LASF164
     /tmp/ccPPh9NF.s:3477   .debug_str:00000000000001a2 .LASF165
     /tmp/ccPPh9NF.s:3827   .debug_str:0000000000000d3c .LASF166
     /tmp/ccPPh9NF.s:3431   .debug_str:0000000000000096 .LASF167
     /tmp/ccPPh9NF.s:3899   .debug_str:0000000000000f15 .LASF168
     /tmp/ccPPh9NF.s:3737   .debug_str:0000000000000ae6 .LASF169
     /tmp/ccPPh9NF.s:3739   .debug_str:0000000000000af2 .LASF170
     /tmp/ccPPh9NF.s:3441   .debug_str:00000000000000d5 .LASF171
     /tmp/ccPPh9NF.s:3781   .debug_str:0000000000000c01 .LASF172
     /tmp/ccPPh9NF.s:3509   .debug_str:00000000000002c8 .LASF282
     /tmp/ccPPh9NF.s:3961   .debug_str:00000000000010da .LASF175
     /tmp/ccPPh9NF.s:3873   .debug_str:0000000000000e4e .LASF177
     /tmp/ccPPh9NF.s:3905   .debug_str:0000000000000f43 .LASF173
     /tmp/ccPPh9NF.s:3523   .debug_str:0000000000000339 .LASF174
     /tmp/ccPPh9NF.s:3447   .debug_str:00000000000000ee .LASF176
     /tmp/ccPPh9NF.s:3803   .debug_str:0000000000000c87 .LASF178
     /tmp/ccPPh9NF.s:3489   .debug_str:0000000000000223 .LASF179
     /tmp/ccPPh9NF.s:3801   .debug_str:0000000000000c7e .LASF180
     /tmp/ccPPh9NF.s:3469   .debug_str:000000000000016c .LASF181
     /tmp/ccPPh9NF.s:3955   .debug_str:00000000000010b2 .LASF182
     /tmp/ccPPh9NF.s:3907   .debug_str:0000000000000f51 .LASF183
     /tmp/ccPPh9NF.s:3551   .debug_str:000000000000046c .LASF184
     /tmp/ccPPh9NF.s:3465   .debug_str:000000000000014e .LASF185
     /tmp/ccPPh9NF.s:3515   .debug_str:00000000000002fd .LASF186
     /tmp/ccPPh9NF.s:3527   .debug_str:0000000000000378 .LASF187
     /tmp/ccPPh9NF.s:3459   .debug_str:000000000000012a .LASF188
     /tmp/ccPPh9NF.s:3857   .debug_str:0000000000000df6 .LASF189
     /tmp/ccPPh9NF.s:3805   .debug_str:0000000000000c9b .LASF190
     /tmp/ccPPh9NF.s:3487   .debug_str:000000000000020f .LASF191
     /tmp/ccPPh9NF.s:3933   .debug_str:0000000000001010 .LASF192
     /tmp/ccPPh9NF.s:3811   .debug_str:0000000000000cc7 .LASF193
     /tmp/ccPPh9NF.s:3663   .debug_str:0000000000000883 .LASF194
     /tmp/ccPPh9NF.s:3627   .debug_str:000000000000069f .LASF195
     /tmp/ccPPh9NF.s:3575   .debug_str:000000000000050c .LASF196
     /tmp/ccPPh9NF.s:3413   .debug_str:0000000000000018 .LASF197
     /tmp/ccPPh9NF.s:3409   .debug_str:0000000000000000 .LASF198
     /tmp/ccPPh9NF.s:3971   .debug_str:000000000000111c .LASF199
     /tmp/ccPPh9NF.s:3929   .debug_str:0000000000000ff7 .LASF200
     /tmp/ccPPh9NF.s:3507   .debug_str:00000000000002b5 .LASF201
     /tmp/ccPPh9NF.s:3879   .debug_str:0000000000000e8f .LASF202
     /tmp/ccPPh9NF.s:3709   .debug_str:00000000000009c1 .LASF203
     /tmp/ccPPh9NF.s:3621   .debug_str:000000000000067e .LASF204
     /tmp/ccPPh9NF.s:3863   .debug_str:0000000000000e17 .LASF205
     /tmp/ccPPh9NF.s:3843   .debug_str:0000000000000d8e .LASF206
     /tmp/ccPPh9NF.s:3757   .debug_str:0000000000000b6e .LASF207
     /tmp/ccPPh9NF.s:3687   .debug_str:000000000000091f .LASF208
     /tmp/ccPPh9NF.s:3945   .debug_str:0000000000001065 .LASF209
     /tmp/ccPPh9NF.s:3869   .debug_str:0000000000000e3d .LASF210
     /tmp/ccPPh9NF.s:3825   .debug_str:0000000000000d29 .LASF211
     /tmp/ccPPh9NF.s:3613   .debug_str:0000000000000623 .LASF212
     /tmp/ccPPh9NF.s:3513   .debug_str:00000000000002ea .LASF213
     /tmp/ccPPh9NF.s:3839   .debug_str:0000000000000d76 .LASF214
     /tmp/ccPPh9NF.s:3537   .debug_str:00000000000003ee .LASF215
     /tmp/ccPPh9NF.s:3683   .debug_str:0000000000000913 .LASF216
     /tmp/ccPPh9NF.s:3703   .debug_str:000000000000099a .LASF217
GAS LISTING /tmp/ccPPh9NF.s 			page 17


     /tmp/ccPPh9NF.s:3789   .debug_str:0000000000000c3f .LASF218
     /tmp/ccPPh9NF.s:3957   .debug_str:00000000000010bb .LASF219
     /tmp/ccPPh9NF.s:3467   .debug_str:0000000000000161 .LASF220
     /tmp/ccPPh9NF.s:3787   .debug_str:0000000000000c27 .LASF221
     /tmp/ccPPh9NF.s:3829   .debug_str:0000000000000d42 .LASF222
     /tmp/ccPPh9NF.s:3631   .debug_str:00000000000006ca .LASF223
     /tmp/ccPPh9NF.s:3567   .debug_str:00000000000004b0 .LASF224
     /tmp/ccPPh9NF.s:3541   .debug_str:0000000000000416 .LASF225
     /tmp/ccPPh9NF.s:3699   .debug_str:000000000000098a .LASF226
     /tmp/ccPPh9NF.s:3655   .debug_str:0000000000000840 .LASF227
     /tmp/ccPPh9NF.s:3437   .debug_str:00000000000000cb .LASF228
     /tmp/ccPPh9NF.s:3847   .debug_str:0000000000000db0 .LASF229
     /tmp/ccPPh9NF.s:3915   .debug_str:0000000000000f8e .LASF230
     /tmp/ccPPh9NF.s:3449   .debug_str:00000000000000f8 .LASF231
     /tmp/ccPPh9NF.s:3559   .debug_str:0000000000000492 .LASF232
     /tmp/ccPPh9NF.s:3495   .debug_str:0000000000000251 .LASF233
     /tmp/ccPPh9NF.s:3439   .debug_str:00000000000000d0 .LASF234
     /tmp/ccPPh9NF.s:3715   .debug_str:00000000000009e8 .LASF235
     /tmp/ccPPh9NF.s:3563   .debug_str:00000000000004a6 .LASF236
     /tmp/ccPPh9NF.s:3625   .debug_str:000000000000068e .LASF237
     /tmp/ccPPh9NF.s:3565   .debug_str:00000000000004ab .LASF238
     /tmp/ccPPh9NF.s:3517   .debug_str:0000000000000304 .LASF239
     /tmp/ccPPh9NF.s:3635   .debug_str:00000000000006ee .LASF240
     /tmp/ccPPh9NF.s:3885   .debug_str:0000000000000eaa .LASF241
     /tmp/ccPPh9NF.s:3491   .debug_str:0000000000000229 .LASF242
     /tmp/ccPPh9NF.s:3677   .debug_str:00000000000008bf .LASF243
     /tmp/ccPPh9NF.s:3779   .debug_str:0000000000000bf6 .LASF244
     /tmp/ccPPh9NF.s:3901   .debug_str:0000000000000f1b .LASF245
     /tmp/ccPPh9NF.s:3497   .debug_str:0000000000000262 .LASF246
     /tmp/ccPPh9NF.s:3599   .debug_str:00000000000005b4 .LASF247
     /tmp/ccPPh9NF.s:3767   .debug_str:0000000000000bb9 .LASF248
     /tmp/ccPPh9NF.s:3433   .debug_str:00000000000000a0 .LASF249
     /tmp/ccPPh9NF.s:3893   .debug_str:0000000000000ef2 .LASF250
     /tmp/ccPPh9NF.s:3835   .debug_str:0000000000000d58 .LASF251
     /tmp/ccPPh9NF.s:3549   .debug_str:0000000000000461 .LASF252
     /tmp/ccPPh9NF.s:3697   .debug_str:0000000000000978 .LASF253
     /tmp/ccPPh9NF.s:3903   .debug_str:0000000000000f33 .LASF254
     /tmp/ccPPh9NF.s:3435   .debug_str:00000000000000bb .LASF255
     /tmp/ccPPh9NF.s:3799   .debug_str:0000000000000c70 .LASF256
     /tmp/ccPPh9NF.s:3461   .debug_str:0000000000000132 .LASF257
     /tmp/ccPPh9NF.s:3919   .debug_str:0000000000000fa4 .LASF258
     /tmp/ccPPh9NF.s:3853   .debug_str:0000000000000dd9 .LASF259
     /tmp/ccPPh9NF.s:3889   .debug_str:0000000000000eda .LASF260
     /tmp/ccPPh9NF.s:3931   .debug_str:0000000000000ffe .LASF261
     /tmp/ccPPh9NF.s:3499   .debug_str:000000000000026d .LASF262
     /tmp/ccPPh9NF.s:3935   .debug_str:0000000000001018 .LASF263
     /tmp/ccPPh9NF.s:213    .text:0000000000000100 .LFB115
     /tmp/ccPPh9NF.s:238    .text:0000000000000128 .LFE115
     /tmp/ccPPh9NF.s:227    .text:0000000000000118 .LVL22
     /tmp/ccPPh9NF.s:3633   .debug_str:00000000000006e0 .LASF265
     /tmp/ccPPh9NF.s:3423   .debug_str:0000000000000062 .LASF267
     /tmp/ccPPh9NF.s:139    .text:00000000000000a0 .LFB114
     /tmp/ccPPh9NF.s:207    .text:0000000000000100 .LFE114
     /tmp/ccPPh9NF.s:3330   .debug_loc:0000000000000000 .LLST5
     /tmp/ccPPh9NF.s:3337   .debug_loc:0000000000000023 .LLST6
     /tmp/ccPPh9NF.s:3669   .debug_str:00000000000008a0 .LASF268
     /tmp/ccPPh9NF.s:3344   .debug_loc:0000000000000046 .LLST7
GAS LISTING /tmp/ccPPh9NF.s 			page 18


     /tmp/ccPPh9NF.s:168    .text:00000000000000c0 .LVL16
     /tmp/ccPPh9NF.s:172    .text:00000000000000c8 .LVL17
     /tmp/ccPPh9NF.s:178    .text:00000000000000d4 .LVL18
     /tmp/ccPPh9NF.s:201    .text:00000000000000f8 .LVL21
     /tmp/ccPPh9NF.s:3785   .debug_str:0000000000000c19 .LASF269
     /tmp/ccPPh9NF.s:3759   .debug_str:0000000000000b80 .LASF270
     /tmp/ccPPh9NF.s:13     .text:0000000000000000 .LFB113
     /tmp/ccPPh9NF.s:133    .text:00000000000000a0 .LFE113
     /tmp/ccPPh9NF.s:3355   .debug_loc:000000000000007c .LLST0
     /tmp/ccPPh9NF.s:3362   .debug_loc:000000000000009f .LLST1
     /tmp/ccPPh9NF.s:3369   .debug_loc:00000000000000c2 .LLST2
     /tmp/ccPPh9NF.s:3711   .debug_str:00000000000009d4 .LASF271
     /tmp/ccPPh9NF.s:3380   .debug_loc:00000000000000f8 .LLST3
     /tmp/ccPPh9NF.s:57     .text:0000000000000038 .LBB6
     /tmp/ccPPh9NF.s:74     .text:0000000000000044 .LBE6
     /tmp/ccPPh9NF.s:58     .text:0000000000000038 .LBB7
     /tmp/ccPPh9NF.s:73     .text:0000000000000044 .LBE7
     /tmp/ccPPh9NF.s:85     .text:000000000000005c .LBB8
     /tmp/ccPPh9NF.s:96     .text:0000000000000060 .LBE8
     /tmp/ccPPh9NF.s:3387   .debug_loc:000000000000011b .LLST4
     /tmp/ccPPh9NF.s:45     .text:0000000000000024 .LVL2
     /tmp/ccPPh9NF.s:49     .text:000000000000002c .LVL3
     /tmp/ccPPh9NF.s:55     .text:0000000000000038 .LVL4
     /tmp/ccPPh9NF.s:79     .text:0000000000000054 .LVL6
     /tmp/ccPPh9NF.s:83     .text:000000000000005c .LVL7
     /tmp/ccPPh9NF.s:101    .text:0000000000000070 .LVL9
     /tmp/ccPPh9NF.s:127    .text:0000000000000098 .LVL13
     /tmp/ccPPh9NF.s:3427   .debug_str:000000000000007e .LASF272
     /tmp/ccPPh9NF.s:3719   .debug_str:0000000000000a07 .LASF274
     /tmp/ccPPh9NF.s:3755   .debug_str:0000000000000b64 .LASF273
     /tmp/ccPPh9NF.s:3953   .debug_str:000000000000109e .LASF275
     /tmp/ccPPh9NF.s:3735   .debug_str:0000000000000ad9 .LASF276
     /tmp/ccPPh9NF.s:157    .text:00000000000000b4 .LVL14
     /tmp/ccPPh9NF.s:163    .text:00000000000000b8 .LVL15
     /tmp/ccPPh9NF.s:193    .text:00000000000000e8 .LVL19
     /tmp/ccPPh9NF.s:199    .text:00000000000000f0 .LVL20
     /tmp/ccPPh9NF.s:34     .text:0000000000000018 .LVL0
     /tmp/ccPPh9NF.s:40     .text:000000000000001c .LVL1
     /tmp/ccPPh9NF.s:119    .text:0000000000000088 .LVL11
     /tmp/ccPPh9NF.s:125    .text:0000000000000090 .LVL12
     /tmp/ccPPh9NF.s:72     .text:0000000000000044 .LVL5
     /tmp/ccPPh9NF.s:105    .text:0000000000000074 .LVL10
     /tmp/ccPPh9NF.s:93     .text:0000000000000060 .LVL8
     /tmp/ccPPh9NF.s:261    .debug_info:0000000000000000 .Ldebug_info0

UNDEFINED SYMBOLS
_ZN3TCB15setPanicContextEmm
_Z10kernelInitv
kTestMain
_Z12kprintStringPKc
_ZN3TCB5yieldEv
