GAS LISTING /tmp/ccEzYfxF.s 			page 1


   1              		.file	"buddy.cpp"
   2              		.option nopic
   3              		.option norelax
   4              		.attribute arch, "rv64i2p0_m2p0_a2p0"
   5              		.attribute unaligned_access, 0
   6              		.attribute stack_align, 16
   7              		.text
   8              	.Ltext0:
   9              		.align	2
  10              		.globl	_ZN5Buddy11getInstanceEv
  12              	_ZN5Buddy11getInstanceEv:
  13              	.LFB100:
  14              		.file 1 "src/kernel/buddy.cpp"
   1:src/kernel/buddy.cpp **** #include"../../h/kernel_lib.h"
   2:src/kernel/buddy.cpp **** 
   3:src/kernel/buddy.cpp **** Buddy* Buddy::buddy = nullptr;
   4:src/kernel/buddy.cpp **** uchar Buddy::BLOCK_SIZE_BIT_LEN = 0;
   5:src/kernel/buddy.cpp **** int Buddy::initalize(void* saddr, size_t sz){
   6:src/kernel/buddy.cpp ****     
   7:src/kernel/buddy.cpp ****     /* set block bit len */
   8:src/kernel/buddy.cpp ****     BLOCK_SIZE_BIT_LEN = log2(BLOCK_SIZE);
   9:src/kernel/buddy.cpp ****     
  10:src/kernel/buddy.cpp ****     /* last allocated address */
  11:src/kernel/buddy.cpp ****     uint64 laa = (uint64)NoAlloc::getEndAddress();
  12:src/kernel/buddy.cpp ****     /* ckeck if start address is lower than it can be */
  13:src/kernel/buddy.cpp ****     if((uint64)saddr < laa + sizeof(Buddy))
  14:src/kernel/buddy.cpp ****         return 1;
  15:src/kernel/buddy.cpp ****     /* aligned address to 4096 bytes */
  16:src/kernel/buddy.cpp ****     saddr = (void*) blockAlign((uint64)saddr);
  17:src/kernel/buddy.cpp ****     
  18:src/kernel/buddy.cpp ****     /* align size to 2^n*/
  19:src/kernel/buddy.cpp ****     sz = closest2pow(sz);
  20:src/kernel/buddy.cpp **** 
  21:src/kernel/buddy.cpp ****     /* allocate buddy */
  22:src/kernel/buddy.cpp ****     buddy = new Buddy(saddr, sz);
  23:src/kernel/buddy.cpp ****     
  24:src/kernel/buddy.cpp ****     if(!buddy)  return 1;
  25:src/kernel/buddy.cpp **** 
  26:src/kernel/buddy.cpp **** 
  27:src/kernel/buddy.cpp ****     return 0;
  28:src/kernel/buddy.cpp **** }
  29:src/kernel/buddy.cpp **** 
  30:src/kernel/buddy.cpp **** int kmi(){
  31:src/kernel/buddy.cpp ****     /* start of reserved memory for buddy allocator */
  32:src/kernel/buddy.cpp ****     void* buddy_mem_start = (void*)( 
  33:src/kernel/buddy.cpp ****         (uint64)NoAlloc::getEndAddress() + sizeof(Buddy) ) ;
  34:src/kernel/buddy.cpp **** 
  35:src/kernel/buddy.cpp ****     /* size of memory for buddy allocator */
  36:src/kernel/buddy.cpp ****     size_t buddy_mem_size = ((uint64)HEAP_END_ADDR - (uint64)buddy_mem_start) >> 3; 
  37:src/kernel/buddy.cpp ****     if(buddy_mem_size == 0){ return 1; }
  38:src/kernel/buddy.cpp ****     /* size of memory for buddy allocator in blocks*/
  39:src/kernel/buddy.cpp ****     buddy_mem_size = (buddy_mem_size - 1)/Buddy::BLOCK_SIZE + 1;
  40:src/kernel/buddy.cpp **** 
  41:src/kernel/buddy.cpp ****     return Buddy::initalize(buddy_mem_start, buddy_mem_size);
  42:src/kernel/buddy.cpp **** }
  43:src/kernel/buddy.cpp **** 
  44:src/kernel/buddy.cpp **** Buddy& Buddy::getInstance(){
GAS LISTING /tmp/ccEzYfxF.s 			page 2


  15              		.loc 1 44 28
  16              		.cfi_startproc
  17 0000 130101FF 		addi	sp,sp,-16
  18              		.cfi_def_cfa_offset 16
  19 0004 23348100 		sd	s0,8(sp)
  20              		.cfi_offset 8, -8
  21 0008 13040101 		addi	s0,sp,16
  22              		.cfi_def_cfa 8, 0
  45:src/kernel/buddy.cpp ****     if(!buddy) {  /* TODO: panic */ }
  23              		.loc 1 45 5
  46:src/kernel/buddy.cpp **** 
  47:src/kernel/buddy.cpp ****     return (*buddy);
  24              		.loc 1 47 5
  48:src/kernel/buddy.cpp **** }
  25              		.loc 1 48 1 is_stmt 0
  26 000c 97070000 		lla	a5,_ZN5Buddy5buddyE
  26      93870700 
  27 0014 03B50700 		ld	a0,0(a5)
  28 0018 03348100 		ld	s0,8(sp)
  29              		.cfi_restore 8
  30              		.cfi_def_cfa 2, 16
  31 001c 13010101 		addi	sp,sp,16
  32              		.cfi_def_cfa_offset 0
  33 0020 67800000 		jr	ra
  34              		.cfi_endproc
  35              	.LFE100:
  37              		.align	2
  38              		.globl	_ZN5Buddy8print_beEm
  40              	_ZN5Buddy8print_beEm:
  41              	.LFB101:
  49:src/kernel/buddy.cpp **** 
  50:src/kernel/buddy.cpp **** void Buddy::print_be(size_t entry){
  42              		.loc 1 50 35 is_stmt 1
  43              		.cfi_startproc
  44              	.LVL0:
  45 0024 130101FE 		addi	sp,sp,-32
  46              		.cfi_def_cfa_offset 32
  47 0028 233C1100 		sd	ra,24(sp)
  48 002c 23388100 		sd	s0,16(sp)
  49 0030 23349100 		sd	s1,8(sp)
  50 0034 23302101 		sd	s2,0(sp)
  51              		.cfi_offset 1, -8
  52              		.cfi_offset 8, -16
  53              		.cfi_offset 9, -24
  54              		.cfi_offset 18, -32
  55 0038 13040102 		addi	s0,sp,32
  56              		.cfi_def_cfa 8, 0
  57 003c 13090500 		mv	s2,a0
  58 0040 93840500 		mv	s1,a1
  51:src/kernel/buddy.cpp ****     kprintString("blocks["); kprintInt( entry, 10); kprintString("]: ");
  59              		.loc 1 51 5
  60              		.loc 1 51 17 is_stmt 0
  61 0044 17050000 		lla	a0,.LC0
  61      13050500 
  62              	.LVL1:
  63 004c 97000000 		call	_Z12kprintStringPKc
  63      E7800000 
GAS LISTING /tmp/ccEzYfxF.s 			page 3


  64              	.LVL2:
  65              		.loc 1 51 30 is_stmt 1
  66              		.loc 1 51 39 is_stmt 0
  67 0054 13060000 		li	a2,0
  68 0058 9305A000 		li	a1,10
  69 005c 13850400 		mv	a0,s1
  70 0060 97000000 		call	_Z9kprintIntmib
  70      E7800000 
  71              	.LVL3:
  72              		.loc 1 51 53 is_stmt 1
  73              		.loc 1 51 65 is_stmt 0
  74 0068 17050000 		lla	a0,.LC1
  74      13050500 
  75 0070 97000000 		call	_Z12kprintStringPKc
  75      E7800000 
  76              	.LVL4:
  52:src/kernel/buddy.cpp ****     switch(blocks[entry]){
  77              		.loc 1 52 5 is_stmt 1
  78              		.loc 1 52 12 is_stmt 0
  79 0078 83370902 		ld	a5,32(s2)
  80              		.loc 1 52 24
  81 007c 93941400 		slli	s1,s1,1
  82              	.LVL5:
  83 0080 B3879700 		add	a5,a5,s1
  84 0084 03970700 		lh	a4,0(a5)
  85              		.loc 1 52 5
  86 0088 9B060700 		sext.w	a3,a4
  87 008c 9307E0FF 		li	a5,-2
  88 0090 638CF602 		beq	a3,a5,.L4
  89 0094 93870600 		mv	a5,a3
  90 0098 9306F0FF 		li	a3,-1
  91 009c 6390D704 		bne	a5,a3,.L5
  53:src/kernel/buddy.cpp ****         case bstatus::FREE:
  92              		.loc 1 53 9 is_stmt 1
  54:src/kernel/buddy.cpp ****             kprintString("FREE");
  93              		.loc 1 54 13
  94              		.loc 1 54 25 is_stmt 0
  95 00a0 17050000 		lla	a0,.LC2
  95      13050500 
  96 00a8 97000000 		call	_Z12kprintStringPKc
  96      E7800000 
  97              	.LVL6:
  55:src/kernel/buddy.cpp ****             break;
  98              		.loc 1 55 13 is_stmt 1
  99              	.L3:
  56:src/kernel/buddy.cpp ****         case bstatus::SUB_ALLOC:
  57:src/kernel/buddy.cpp ****             kprintString("SUB_ALLOC");
  58:src/kernel/buddy.cpp ****             break;
  59:src/kernel/buddy.cpp ****         default:
  60:src/kernel/buddy.cpp ****             if((short)blocks[entry] < 0)
  61:src/kernel/buddy.cpp ****                 kprintString("INVALID");
  62:src/kernel/buddy.cpp ****             else{
  63:src/kernel/buddy.cpp ****                 kprintString("ALLOC: 2^");
  64:src/kernel/buddy.cpp ****                 kprintInt(blocks[entry]);
  65:src/kernel/buddy.cpp ****             }
  66:src/kernel/buddy.cpp ****             break;
  67:src/kernel/buddy.cpp ****     }
GAS LISTING /tmp/ccEzYfxF.s 			page 4


  68:src/kernel/buddy.cpp **** }
 100              		.loc 1 68 1 is_stmt 0
 101 00b0 83308101 		ld	ra,24(sp)
 102              		.cfi_remember_state
 103              		.cfi_restore 1
 104 00b4 03340101 		ld	s0,16(sp)
 105              		.cfi_restore 8
 106              		.cfi_def_cfa 2, 32
 107 00b8 83348100 		ld	s1,8(sp)
 108              		.cfi_restore 9
 109 00bc 03390100 		ld	s2,0(sp)
 110              		.cfi_restore 18
 111              	.LVL7:
 112 00c0 13010102 		addi	sp,sp,32
 113              		.cfi_def_cfa_offset 0
 114 00c4 67800000 		jr	ra
 115              	.LVL8:
 116              	.L4:
 117              		.cfi_restore_state
  56:src/kernel/buddy.cpp ****         case bstatus::SUB_ALLOC:
 118              		.loc 1 56 9 is_stmt 1
  57:src/kernel/buddy.cpp ****             break;
 119              		.loc 1 57 13
  57:src/kernel/buddy.cpp ****             break;
 120              		.loc 1 57 25 is_stmt 0
 121 00c8 17050000 		lla	a0,.LC3
 121      13050500 
 122 00d0 97000000 		call	_Z12kprintStringPKc
 122      E7800000 
 123              	.LVL9:
  58:src/kernel/buddy.cpp ****         default:
 124              		.loc 1 58 13 is_stmt 1
 125 00d8 6FF09FFD 		j	.L3
 126              	.L5:
  59:src/kernel/buddy.cpp ****             if((short)blocks[entry] < 0)
 127              		.loc 1 59 9
  60:src/kernel/buddy.cpp ****                 kprintString("INVALID");
 128              		.loc 1 60 13
 129 00dc 634A0702 		blt	a4,zero,.L9
  63:src/kernel/buddy.cpp ****                 kprintInt(blocks[entry]);
 130              		.loc 1 63 17
  63:src/kernel/buddy.cpp ****                 kprintInt(blocks[entry]);
 131              		.loc 1 63 29 is_stmt 0
 132 00e0 17050000 		lla	a0,.LC5
 132      13050500 
 133 00e8 97000000 		call	_Z12kprintStringPKc
 133      E7800000 
 134              	.LVL10:
  64:src/kernel/buddy.cpp ****             }
 135              		.loc 1 64 17 is_stmt 1
  64:src/kernel/buddy.cpp ****             }
 136              		.loc 1 64 27 is_stmt 0
 137 00f0 83370902 		ld	a5,32(s2)
  64:src/kernel/buddy.cpp ****             }
 138              		.loc 1 64 39
 139 00f4 B3849700 		add	s1,a5,s1
  64:src/kernel/buddy.cpp ****             }
GAS LISTING /tmp/ccEzYfxF.s 			page 5


 140              		.loc 1 64 26
 141 00f8 13060000 		li	a2,0
 142 00fc 9305A000 		li	a1,10
 143 0100 03950400 		lh	a0,0(s1)
 144 0104 97000000 		call	_Z9kprintIntmib
 144      E7800000 
 145              	.LVL11:
 146              		.loc 1 68 1
 147 010c 6FF05FFA 		j	.L3
 148              	.L9:
  61:src/kernel/buddy.cpp ****             else{
 149              		.loc 1 61 17 is_stmt 1
  61:src/kernel/buddy.cpp ****             else{
 150              		.loc 1 61 29 is_stmt 0
 151 0110 17050000 		lla	a0,.LC4
 151      13050500 
 152 0118 97000000 		call	_Z12kprintStringPKc
 152      E7800000 
 153              	.LVL12:
 154 0120 6FF01FF9 		j	.L3
 155              		.cfi_endproc
 156              	.LFE101:
 158              		.align	2
 159              		.globl	_ZN5Buddy13get_from_listEh
 161              	_ZN5Buddy13get_from_listEh:
 162              	.LFB103:
  69:src/kernel/buddy.cpp **** 
  70:src/kernel/buddy.cpp **** int Buddy::add_to_list(uchar level, mmeta_t* chunk){
  71:src/kernel/buddy.cpp ****     /* chk if level is valid */
  72:src/kernel/buddy.cpp ****     if(level >= lhp_size) return -4;
  73:src/kernel/buddy.cpp ****     /* chk if address is valid */
  74:src/kernel/buddy.cpp ****     if( !chunk || ((uint64)chunk & (BLOCK_SIZE - 1)) ) return -1;
  75:src/kernel/buddy.cpp ****     /* chk if starting block of chunk is set to free */ 
  76:src/kernel/buddy.cpp ****     size_t bn = get_block_num(chunk);
  77:src/kernel/buddy.cpp ****     if(blocks[bn] != FREE) return -2;
  78:src/kernel/buddy.cpp ****     
  79:src/kernel/buddy.cpp ****     /* add it to the front of the list */
  80:src/kernel/buddy.cpp ****     chunk -> next = lhp[level];
  81:src/kernel/buddy.cpp ****     chunk -> prev = 0;
  82:src/kernel/buddy.cpp ****     chunk -> level = level;
  83:src/kernel/buddy.cpp ****     if(lhp[level]) lhp[level] -> prev = chunk;
  84:src/kernel/buddy.cpp ****     lhp[level] = chunk;
  85:src/kernel/buddy.cpp **** 
  86:src/kernel/buddy.cpp ****     return 0;
  87:src/kernel/buddy.cpp **** }
  88:src/kernel/buddy.cpp **** 
  89:src/kernel/buddy.cpp **** mmeta_t* Buddy::get_from_list(uchar level){
 163              		.loc 1 89 43 is_stmt 1
 164              		.cfi_startproc
 165              	.LVL13:
 166 0124 130101FF 		addi	sp,sp,-16
 167              		.cfi_def_cfa_offset 16
 168 0128 23348100 		sd	s0,8(sp)
 169              		.cfi_offset 8, -8
 170 012c 13040101 		addi	s0,sp,16
 171              		.cfi_def_cfa 8, 0
  90:src/kernel/buddy.cpp ****     /* chk if level is valid */
GAS LISTING /tmp/ccEzYfxF.s 			page 6


  91:src/kernel/buddy.cpp ****     if(level >= lhp_size) return nullptr;
 172              		.loc 1 91 5
 173              		.loc 1 91 17 is_stmt 0
 174 0130 83478501 		lbu	a5,24(a0)
 175              		.loc 1 91 5
 176 0134 63F4F504 		bleu	a5,a1,.L14
  92:src/kernel/buddy.cpp ****     mmeta_t* ret = lhp[level];
 177              		.loc 1 92 5 is_stmt 1
 178              		.loc 1 92 20 is_stmt 0
 179 0138 83370501 		ld	a5,16(a0)
 180              		.loc 1 92 29
 181 013c 93953500 		slli	a1,a1,3
 182              	.LVL14:
 183 0140 B387B700 		add	a5,a5,a1
 184              		.loc 1 92 14
 185 0144 83B70700 		ld	a5,0(a5)
 186              	.LVL15:
  93:src/kernel/buddy.cpp ****     if(ret){
 187              		.loc 1 93 5 is_stmt 1
 188 0148 63800702 		beq	a5,zero,.L12
  94:src/kernel/buddy.cpp ****         if(ret->next) ret->next->prev = 0;
 189              		.loc 1 94 9
 190              		.loc 1 94 17 is_stmt 0
 191 014c 03B70700 		ld	a4,0(a5)
 192              		.loc 1 94 9
 193 0150 63040700 		beq	a4,zero,.L13
 194              		.loc 1 94 23 is_stmt 1 discriminator 1
 195              		.loc 1 94 39 is_stmt 0 discriminator 1
 196 0154 23340700 		sd	zero,8(a4)
 197              	.L13:
  95:src/kernel/buddy.cpp ****         lhp[level] = ret->next;    
 198              		.loc 1 95 9 is_stmt 1
 199 0158 03370501 		ld	a4,16(a0)
 200              		.loc 1 95 18 is_stmt 0
 201 015c B305B700 		add	a1,a4,a1
 202              		.loc 1 95 27
 203 0160 03B70700 		ld	a4,0(a5)
 204              		.loc 1 95 20
 205 0164 23B0E500 		sd	a4,0(a1)
 206              	.L12:
  96:src/kernel/buddy.cpp ****     }
  97:src/kernel/buddy.cpp ****     ret->next = 0;
 207              		.loc 1 97 5 is_stmt 1
 208              		.loc 1 97 15 is_stmt 0
 209 0168 23B00700 		sd	zero,0(a5)
  98:src/kernel/buddy.cpp ****     return ret;
 210              		.loc 1 98 5 is_stmt 1
 211              	.LVL16:
 212              	.L10:
  99:src/kernel/buddy.cpp **** }
 213              		.loc 1 99 1 is_stmt 0
 214 016c 13850700 		mv	a0,a5
 215              	.LVL17:
 216 0170 03348100 		ld	s0,8(sp)
 217              		.cfi_remember_state
 218              		.cfi_restore 8
 219              		.cfi_def_cfa 2, 16
GAS LISTING /tmp/ccEzYfxF.s 			page 7


 220 0174 13010101 		addi	sp,sp,16
 221              		.cfi_def_cfa_offset 0
 222 0178 67800000 		jr	ra
 223              	.LVL18:
 224              	.L14:
 225              		.cfi_restore_state
  91:src/kernel/buddy.cpp ****     mmeta_t* ret = lhp[level];
 226              		.loc 1 91 34
 227 017c 93070000 		li	a5,0
 228 0180 6FF0DFFE 		j	.L10
 229              		.cfi_endproc
 230              	.LFE103:
 232              		.align	2
 233              		.globl	_ZN5Buddy13get_block_numEP7mmeta_t
 235              	_ZN5Buddy13get_block_numEP7mmeta_t:
 236              	.LFB104:
 100:src/kernel/buddy.cpp **** 
 101:src/kernel/buddy.cpp **** size_t Buddy::get_block_num(mmeta_t* chunk){
 237              		.loc 1 101 44 is_stmt 1
 238              		.cfi_startproc
 239              	.LVL19:
 240 0184 130101FF 		addi	sp,sp,-16
 241              		.cfi_def_cfa_offset 16
 242 0188 23348100 		sd	s0,8(sp)
 243              		.cfi_offset 8, -8
 244 018c 13040101 		addi	s0,sp,16
 245              		.cfi_def_cfa 8, 0
 102:src/kernel/buddy.cpp ****     if((uint64)chunk & (BLOCK_SIZE - 1)) return -1;
 246              		.loc 1 102 5
 247              		.loc 1 102 22 is_stmt 0
 248 0190 B7170000 		li	a5,4096
 249 0194 9387F7FF 		addi	a5,a5,-1
 250 0198 B3F7F500 		and	a5,a1,a5
 251              		.loc 1 102 5
 252 019c 63920702 		bne	a5,zero,.L18
 103:src/kernel/buddy.cpp ****     return ((uint64)chunk - (uint64)start_address) >> BLOCK_SIZE_BIT_LEN;
 253              		.loc 1 103 5 is_stmt 1
 254              		.loc 1 103 37 is_stmt 0
 255 01a0 03350500 		ld	a0,0(a0)
 256              	.LVL20:
 257              		.loc 1 103 27
 258 01a4 B385A540 		sub	a1,a1,a0
 259              	.LVL21:
 260              		.loc 1 103 52
 261 01a8 17050000 		lbu	a0,_ZN5Buddy18BLOCK_SIZE_BIT_LENE
 261      03450500 
 262              		.loc 1 103 55
 263 01b0 33D5A500 		srl	a0,a1,a0
 264              	.L16:
 104:src/kernel/buddy.cpp **** }
 265              		.loc 1 104 1
 266 01b4 03348100 		ld	s0,8(sp)
 267              		.cfi_remember_state
 268              		.cfi_restore 8
 269              		.cfi_def_cfa 2, 16
 270 01b8 13010101 		addi	sp,sp,16
 271              		.cfi_def_cfa_offset 0
GAS LISTING /tmp/ccEzYfxF.s 			page 8


 272 01bc 67800000 		jr	ra
 273              	.LVL22:
 274              	.L18:
 275              		.cfi_restore_state
 102:src/kernel/buddy.cpp ****     if((uint64)chunk & (BLOCK_SIZE - 1)) return -1;
 276              		.loc 1 102 50
 277 01c0 1305F0FF 		li	a0,-1
 278              	.LVL23:
 279 01c4 6FF01FFF 		j	.L16
 280              		.cfi_endproc
 281              	.LFE104:
 283              		.align	2
 284              		.globl	_ZN5Buddy11add_to_listEhP7mmeta_t
 286              	_ZN5Buddy11add_to_listEhP7mmeta_t:
 287              	.LFB102:
  70:src/kernel/buddy.cpp ****     /* chk if level is valid */
 288              		.loc 1 70 52 is_stmt 1
 289              		.cfi_startproc
 290              	.LVL24:
  72:src/kernel/buddy.cpp ****     /* chk if address is valid */
 291              		.loc 1 72 5
  72:src/kernel/buddy.cpp ****     /* chk if address is valid */
 292              		.loc 1 72 17 is_stmt 0
 293 01c8 83478501 		lbu	a5,24(a0)
  72:src/kernel/buddy.cpp ****     /* chk if address is valid */
 294              		.loc 1 72 5
 295 01cc 63F0F50C 		bleu	a5,a1,.L23
  74:src/kernel/buddy.cpp ****     /* chk if starting block of chunk is set to free */ 
 296              		.loc 1 74 5 is_stmt 1
 297 01d0 6302060C 		beq	a2,zero,.L24
  74:src/kernel/buddy.cpp ****     /* chk if starting block of chunk is set to free */ 
 298              		.loc 1 74 34 is_stmt 0 discriminator 2
 299 01d4 B7170000 		li	a5,4096
 300 01d8 9387F7FF 		addi	a5,a5,-1
 301 01dc B377F600 		and	a5,a2,a5
  74:src/kernel/buddy.cpp ****     /* chk if starting block of chunk is set to free */ 
 302              		.loc 1 74 16 discriminator 2
 303 01e0 639E070A 		bne	a5,zero,.L25
  70:src/kernel/buddy.cpp ****     /* chk if level is valid */
 304              		.loc 1 70 52
 305 01e4 130101FD 		addi	sp,sp,-48
 306              		.cfi_def_cfa_offset 48
 307 01e8 23341102 		sd	ra,40(sp)
 308 01ec 23308102 		sd	s0,32(sp)
 309 01f0 233C9100 		sd	s1,24(sp)
 310 01f4 23382101 		sd	s2,16(sp)
 311 01f8 23343101 		sd	s3,8(sp)
 312              		.cfi_offset 1, -8
 313              		.cfi_offset 8, -16
 314              		.cfi_offset 9, -24
 315              		.cfi_offset 18, -32
 316              		.cfi_offset 19, -40
 317 01fc 13040103 		addi	s0,sp,48
 318              		.cfi_def_cfa 8, 0
 319 0200 93040600 		mv	s1,a2
 320 0204 93890500 		mv	s3,a1
 321 0208 13090500 		mv	s2,a0
GAS LISTING /tmp/ccEzYfxF.s 			page 9


  76:src/kernel/buddy.cpp ****     if(blocks[bn] != FREE) return -2;
 322              		.loc 1 76 5 is_stmt 1
  76:src/kernel/buddy.cpp ****     if(blocks[bn] != FREE) return -2;
 323              		.loc 1 76 30 is_stmt 0
 324 020c 93050600 		mv	a1,a2
 325              	.LVL25:
 326 0210 97000000 		call	_ZN5Buddy13get_block_numEP7mmeta_t
 326      E7800000 
 327              	.LVL26:
  77:src/kernel/buddy.cpp ****     
 328              		.loc 1 77 5 is_stmt 1
  77:src/kernel/buddy.cpp ****     
 329              		.loc 1 77 8 is_stmt 0
 330 0218 83370902 		ld	a5,32(s2)
  77:src/kernel/buddy.cpp ****     
 331              		.loc 1 77 17
 332 021c 13151500 		slli	a0,a0,1
 333              	.LVL27:
 334 0220 B387A700 		add	a5,a5,a0
  77:src/kernel/buddy.cpp ****     
 335              		.loc 1 77 5
 336 0224 03970700 		lh	a4,0(a5)
 337 0228 9307F0FF 		li	a5,-1
 338 022c 631CF706 		bne	a4,a5,.L26
  80:src/kernel/buddy.cpp ****     chunk -> prev = 0;
 339              		.loc 1 80 5 is_stmt 1
  80:src/kernel/buddy.cpp ****     chunk -> prev = 0;
 340              		.loc 1 80 21 is_stmt 0
 341 0230 83370901 		ld	a5,16(s2)
  80:src/kernel/buddy.cpp ****     chunk -> prev = 0;
 342              		.loc 1 80 30
 343 0234 13973900 		slli	a4,s3,3
 344 0238 B387E700 		add	a5,a5,a4
 345 023c 83B70700 		ld	a5,0(a5)
  80:src/kernel/buddy.cpp ****     chunk -> prev = 0;
 346              		.loc 1 80 19
 347 0240 23B0F400 		sd	a5,0(s1)
  81:src/kernel/buddy.cpp ****     chunk -> level = level;
 348              		.loc 1 81 5 is_stmt 1
  81:src/kernel/buddy.cpp ****     chunk -> level = level;
 349              		.loc 1 81 19 is_stmt 0
 350 0244 23B40400 		sd	zero,8(s1)
  82:src/kernel/buddy.cpp ****     if(lhp[level]) lhp[level] -> prev = chunk;
 351              		.loc 1 82 5 is_stmt 1
  82:src/kernel/buddy.cpp ****     if(lhp[level]) lhp[level] -> prev = chunk;
 352              		.loc 1 82 20 is_stmt 0
 353 0248 23883401 		sb	s3,16(s1)
  83:src/kernel/buddy.cpp ****     lhp[level] = chunk;
 354              		.loc 1 83 5 is_stmt 1
  83:src/kernel/buddy.cpp ****     lhp[level] = chunk;
 355              		.loc 1 83 8 is_stmt 0
 356 024c 83370901 		ld	a5,16(s2)
  83:src/kernel/buddy.cpp ****     lhp[level] = chunk;
 357              		.loc 1 83 17
 358 0250 B387E700 		add	a5,a5,a4
 359 0254 83B70700 		ld	a5,0(a5)
  83:src/kernel/buddy.cpp ****     lhp[level] = chunk;
GAS LISTING /tmp/ccEzYfxF.s 			page 10


 360              		.loc 1 83 5
 361 0258 63840700 		beq	a5,zero,.L22
  83:src/kernel/buddy.cpp ****     lhp[level] = chunk;
 362              		.loc 1 83 20 is_stmt 1 discriminator 1
  83:src/kernel/buddy.cpp ****     lhp[level] = chunk;
 363              		.loc 1 83 39 is_stmt 0 discriminator 1
 364 025c 23B49700 		sd	s1,8(a5)
 365              	.L22:
  84:src/kernel/buddy.cpp **** 
 366              		.loc 1 84 5 is_stmt 1
 367 0260 83370901 		ld	a5,16(s2)
  84:src/kernel/buddy.cpp **** 
 368              		.loc 1 84 14 is_stmt 0
 369 0264 B387E700 		add	a5,a5,a4
  84:src/kernel/buddy.cpp **** 
 370              		.loc 1 84 16
 371 0268 23B09700 		sd	s1,0(a5)
  86:src/kernel/buddy.cpp **** }
 372              		.loc 1 86 5 is_stmt 1
  86:src/kernel/buddy.cpp **** }
 373              		.loc 1 86 12 is_stmt 0
 374 026c 13050000 		li	a0,0
 375              	.L21:
  87:src/kernel/buddy.cpp **** 
 376              		.loc 1 87 1
 377 0270 83308102 		ld	ra,40(sp)
 378              		.cfi_restore 1
 379 0274 03340102 		ld	s0,32(sp)
 380              		.cfi_restore 8
 381              		.cfi_def_cfa 2, 48
 382 0278 83348101 		ld	s1,24(sp)
 383              		.cfi_restore 9
 384              	.LVL28:
 385 027c 03390101 		ld	s2,16(sp)
 386              		.cfi_restore 18
 387              	.LVL29:
 388 0280 83398100 		ld	s3,8(sp)
 389              		.cfi_restore 19
 390 0284 13010103 		addi	sp,sp,48
 391              		.cfi_def_cfa_offset 0
 392 0288 67800000 		jr	ra
 393              	.LVL30:
 394              	.L23:
  72:src/kernel/buddy.cpp ****     /* chk if address is valid */
 395              		.loc 1 72 35
 396 028c 1305C0FF 		li	a0,-4
 397              	.LVL31:
 398 0290 67800000 		ret
 399              	.LVL32:
 400              	.L24:
  74:src/kernel/buddy.cpp ****     /* chk if starting block of chunk is set to free */ 
 401              		.loc 1 74 64
 402 0294 1305F0FF 		li	a0,-1
 403              	.LVL33:
 404 0298 67800000 		ret
 405              	.LVL34:
 406              	.L25:
GAS LISTING /tmp/ccEzYfxF.s 			page 11


 407 029c 1305F0FF 		li	a0,-1
 408              	.LVL35:
  87:src/kernel/buddy.cpp **** 
 409              		.loc 1 87 1
 410 02a0 67800000 		ret
 411              	.LVL36:
 412              	.L26:
 413              		.cfi_def_cfa_register 8
 414              		.cfi_offset 1, -8
 415              		.cfi_offset 8, -16
 416              		.cfi_offset 9, -24
 417              		.cfi_offset 18, -32
 418              		.cfi_offset 19, -40
  77:src/kernel/buddy.cpp ****     
 419              		.loc 1 77 36
 420 02a4 1305E0FF 		li	a0,-2
 421 02a8 6FF09FFC 		j	.L21
 422              		.cfi_endproc
 423              	.LFE102:
 425              		.align	2
 426              		.globl	_ZN5Buddy16remove_from_listEhP7mmeta_t
 428              	_ZN5Buddy16remove_from_listEhP7mmeta_t:
 429              	.LFB105:
 105:src/kernel/buddy.cpp **** 
 106:src/kernel/buddy.cpp **** int Buddy::remove_from_list(uchar level, mmeta_t* chunk){
 430              		.loc 1 106 57 is_stmt 1
 431              		.cfi_startproc
 432              	.LVL37:
 107:src/kernel/buddy.cpp ****     /* chk if level is valid */
 108:src/kernel/buddy.cpp ****     if(level >= lhp_size) return -4;
 433              		.loc 1 108 5
 434              		.loc 1 108 17 is_stmt 0
 435 02ac 83478501 		lbu	a5,24(a0)
 436              		.loc 1 108 5
 437 02b0 63FCF50C 		bleu	a5,a1,.L35
 109:src/kernel/buddy.cpp ****     /* chk if address is valid */
 110:src/kernel/buddy.cpp ****     if( !chunk || ((uint64)chunk & (BLOCK_SIZE - 1)) ) return -1;
 438              		.loc 1 110 5 is_stmt 1
 439 02b4 630E060C 		beq	a2,zero,.L36
 440              		.loc 1 110 34 is_stmt 0 discriminator 2
 441 02b8 B7170000 		li	a5,4096
 442 02bc 9387F7FF 		addi	a5,a5,-1
 443 02c0 B377F600 		and	a5,a2,a5
 444              		.loc 1 110 16 discriminator 2
 445 02c4 639A070C 		bne	a5,zero,.L37
 106:src/kernel/buddy.cpp ****     /* chk if level is valid */
 446              		.loc 1 106 57
 447 02c8 130101FD 		addi	sp,sp,-48
 448              		.cfi_def_cfa_offset 48
 449 02cc 23341102 		sd	ra,40(sp)
 450 02d0 23308102 		sd	s0,32(sp)
 451 02d4 233C9100 		sd	s1,24(sp)
 452 02d8 23382101 		sd	s2,16(sp)
 453 02dc 23343101 		sd	s3,8(sp)
 454              		.cfi_offset 1, -8
 455              		.cfi_offset 8, -16
 456              		.cfi_offset 9, -24
GAS LISTING /tmp/ccEzYfxF.s 			page 12


 457              		.cfi_offset 18, -32
 458              		.cfi_offset 19, -40
 459 02e0 13040103 		addi	s0,sp,48
 460              		.cfi_def_cfa 8, 0
 461 02e4 93040600 		mv	s1,a2
 462 02e8 93890500 		mv	s3,a1
 463 02ec 13090500 		mv	s2,a0
 111:src/kernel/buddy.cpp ****     /* chk if starting block of chunk is set to free */ 
 112:src/kernel/buddy.cpp ****     size_t bn = get_block_num(chunk);
 464              		.loc 1 112 5 is_stmt 1
 465              		.loc 1 112 30 is_stmt 0
 466 02f0 93050600 		mv	a1,a2
 467              	.LVL38:
 468 02f4 97000000 		call	_ZN5Buddy13get_block_numEP7mmeta_t
 468      E7800000 
 469              	.LVL39:
 113:src/kernel/buddy.cpp ****     if(blocks[bn] != FREE) return -2;
 470              		.loc 1 113 5 is_stmt 1
 471              		.loc 1 113 8 is_stmt 0
 472 02fc 83370902 		ld	a5,32(s2)
 473              		.loc 1 113 17
 474 0300 13151500 		slli	a0,a0,1
 475              	.LVL40:
 476 0304 B387A700 		add	a5,a5,a0
 477              		.loc 1 113 5
 478 0308 03970700 		lh	a4,0(a5)
 479 030c 9307F0FF 		li	a5,-1
 480 0310 6318F708 		bne	a4,a5,.L38
 114:src/kernel/buddy.cpp ****     /* chk if level of block is equal to given */
 115:src/kernel/buddy.cpp ****     if(!(chunk->level == level)) return -3;
 481              		.loc 1 115 5 is_stmt 1
 482              		.loc 1 115 17 is_stmt 0
 483 0314 83C70401 		lbu	a5,16(s1)
 484              		.loc 1 115 5
 485 0318 63983709 		bne	a5,s3,.L39
 116:src/kernel/buddy.cpp **** 
 117:src/kernel/buddy.cpp ****     /* check if it is on the front */
 118:src/kernel/buddy.cpp ****     if(lhp[level] == chunk){
 486              		.loc 1 118 5 is_stmt 1
 487              		.loc 1 118 8 is_stmt 0
 488 031c 83370901 		ld	a5,16(s2)
 489              		.loc 1 118 17
 490 0320 13973900 		slli	a4,s3,3
 491 0324 B387E700 		add	a5,a5,a4
 492 0328 83B70700 		ld	a5,0(a5)
 493              		.loc 1 118 5
 494 032c 63829704 		beq	a5,s1,.L44
 119:src/kernel/buddy.cpp ****         get_from_list(level);
 120:src/kernel/buddy.cpp ****         return 0;
 121:src/kernel/buddy.cpp ****     }
 122:src/kernel/buddy.cpp **** 
 123:src/kernel/buddy.cpp ****     /* if it is not on the front */
 124:src/kernel/buddy.cpp ****     chunk->prev->next = chunk->next;
 495              		.loc 1 124 5 is_stmt 1
 496              		.loc 1 124 12 is_stmt 0
 497 0330 03B78400 		ld	a4,8(s1)
 498              		.loc 1 124 32
GAS LISTING /tmp/ccEzYfxF.s 			page 13


 499 0334 83B70400 		ld	a5,0(s1)
 500              		.loc 1 124 23
 501 0338 2330F700 		sd	a5,0(a4)
 125:src/kernel/buddy.cpp ****     /* if it isn't last */
 126:src/kernel/buddy.cpp ****     if(chunk->next) chunk->next->prev = chunk->prev;
 502              		.loc 1 126 5 is_stmt 1
 503 033c 63860700 		beq	a5,zero,.L34
 504              		.loc 1 126 21 discriminator 1
 505              		.loc 1 126 48 is_stmt 0 discriminator 1
 506 0340 03B78400 		ld	a4,8(s1)
 507              		.loc 1 126 39 discriminator 1
 508 0344 23B4E700 		sd	a4,8(a5)
 509              	.L34:
 127:src/kernel/buddy.cpp ****     chunk->next = chunk->prev = 0;
 510              		.loc 1 127 5 is_stmt 1
 511              		.loc 1 127 31 is_stmt 0
 512 0348 23B40400 		sd	zero,8(s1)
 513              		.loc 1 127 17
 514 034c 23B00400 		sd	zero,0(s1)
 128:src/kernel/buddy.cpp ****     return 0;
 515              		.loc 1 128 5 is_stmt 1
 516              		.loc 1 128 12 is_stmt 0
 517 0350 13050000 		li	a0,0
 518              	.L32:
 129:src/kernel/buddy.cpp **** 
 130:src/kernel/buddy.cpp **** }
 519              		.loc 1 130 1
 520 0354 83308102 		ld	ra,40(sp)
 521              		.cfi_remember_state
 522              		.cfi_restore 1
 523 0358 03340102 		ld	s0,32(sp)
 524              		.cfi_restore 8
 525              		.cfi_def_cfa 2, 48
 526 035c 83348101 		ld	s1,24(sp)
 527              		.cfi_restore 9
 528              	.LVL41:
 529 0360 03390101 		ld	s2,16(sp)
 530              		.cfi_restore 18
 531              	.LVL42:
 532 0364 83398100 		ld	s3,8(sp)
 533              		.cfi_restore 19
 534 0368 13010103 		addi	sp,sp,48
 535              		.cfi_def_cfa_offset 0
 536 036c 67800000 		jr	ra
 537              	.LVL43:
 538              	.L44:
 539              		.cfi_restore_state
 119:src/kernel/buddy.cpp ****         return 0;
 540              		.loc 1 119 9 is_stmt 1
 119:src/kernel/buddy.cpp ****         return 0;
 541              		.loc 1 119 22 is_stmt 0
 542 0370 93850900 		mv	a1,s3
 543 0374 13050900 		mv	a0,s2
 544 0378 97000000 		call	_ZN5Buddy13get_from_listEh
 544      E7800000 
 545              	.LVL44:
 120:src/kernel/buddy.cpp ****     }
GAS LISTING /tmp/ccEzYfxF.s 			page 14


 546              		.loc 1 120 9 is_stmt 1
 120:src/kernel/buddy.cpp ****     }
 547              		.loc 1 120 16 is_stmt 0
 548 0380 13050000 		li	a0,0
 549 0384 6FF01FFD 		j	.L32
 550              	.LVL45:
 551              	.L35:
 552              		.cfi_def_cfa_register 2
 553              		.cfi_restore 1
 554              		.cfi_restore 8
 555              		.cfi_restore 9
 556              		.cfi_restore 18
 557              		.cfi_restore 19
 108:src/kernel/buddy.cpp ****     /* chk if address is valid */
 558              		.loc 1 108 35
 559 0388 1305C0FF 		li	a0,-4
 560              	.LVL46:
 561 038c 67800000 		ret
 562              	.LVL47:
 563              	.L36:
 110:src/kernel/buddy.cpp ****     /* chk if starting block of chunk is set to free */ 
 564              		.loc 1 110 64
 565 0390 1305F0FF 		li	a0,-1
 566              	.LVL48:
 567 0394 67800000 		ret
 568              	.LVL49:
 569              	.L37:
 570 0398 1305F0FF 		li	a0,-1
 571              	.LVL50:
 572              		.loc 1 130 1
 573 039c 67800000 		ret
 574              	.LVL51:
 575              	.L38:
 576              		.cfi_def_cfa_register 8
 577              		.cfi_offset 1, -8
 578              		.cfi_offset 8, -16
 579              		.cfi_offset 9, -24
 580              		.cfi_offset 18, -32
 581              		.cfi_offset 19, -40
 113:src/kernel/buddy.cpp ****     /* chk if level of block is equal to given */
 582              		.loc 1 113 36
 583 03a0 1305E0FF 		li	a0,-2
 584 03a4 6FF01FFB 		j	.L32
 585              	.L39:
 115:src/kernel/buddy.cpp **** 
 586              		.loc 1 115 42
 587 03a8 1305D0FF 		li	a0,-3
 588 03ac 6FF09FFA 		j	.L32
 589              		.cfi_endproc
 590              	.LFE105:
 592              		.align	2
 593              		.globl	_ZN5BuddyC2EPvm
 595              	_ZN5BuddyC2EPvm:
 596              	.LFB107:
 131:src/kernel/buddy.cpp **** 
 132:src/kernel/buddy.cpp **** /* sz - size is size in blocks */
 133:src/kernel/buddy.cpp **** Buddy::Buddy(void* saddr, size_t sz){
GAS LISTING /tmp/ccEzYfxF.s 			page 15


 597              		.loc 1 133 1 is_stmt 1
 598              		.cfi_startproc
 599              	.LVL52:
 600 03b0 130101FE 		addi	sp,sp,-32
 601              		.cfi_def_cfa_offset 32
 602 03b4 233C1100 		sd	ra,24(sp)
 603 03b8 23388100 		sd	s0,16(sp)
 604 03bc 23349100 		sd	s1,8(sp)
 605              		.cfi_offset 1, -8
 606              		.cfi_offset 8, -16
 607              		.cfi_offset 9, -24
 608 03c0 13040102 		addi	s0,sp,32
 609              		.cfi_def_cfa 8, 0
 610 03c4 93040500 		mv	s1,a0
 611              	.LBB17:
 134:src/kernel/buddy.cpp ****     start_address = saddr;
 612              		.loc 1 134 5
 613              		.loc 1 134 19 is_stmt 0
 614 03c8 2330B500 		sd	a1,0(a0)
 135:src/kernel/buddy.cpp ****     size = sz;
 615              		.loc 1 135 5 is_stmt 1
 616              		.loc 1 135 10 is_stmt 0
 617 03cc 2334C500 		sd	a2,8(a0)
 136:src/kernel/buddy.cpp ****     /* --------MEMORY RESERVING-------- */
 137:src/kernel/buddy.cpp ****     /* last allocated address */
 138:src/kernel/buddy.cpp ****     uint64 x = (uint64)NoAlloc::getEndAddress();
 618              		.loc 1 138 5 is_stmt 1
 619              	.LBB18:
 620              	.LBB19:
 621              		.file 2 "src/kernel/../../h/../h/noalloc_allocator.hpp"
   1:src/kernel/../../h/../h/noalloc_allocator.hpp **** #ifndef NOALLOC_ALLOCATOR_H
   2:src/kernel/../../h/../h/noalloc_allocator.hpp **** #define NOALLOC_ALLOCATOR_H
   3:src/kernel/../../h/../h/noalloc_allocator.hpp **** 
   4:src/kernel/../../h/../h/noalloc_allocator.hpp **** #include"../lib/hw.h"
   5:src/kernel/../../h/../h/noalloc_allocator.hpp **** 
   6:src/kernel/../../h/../h/noalloc_allocator.hpp **** /* CHECK THIS !!!!!
   7:src/kernel/../../h/../h/noalloc_allocator.hpp **** *
   8:src/kernel/../../h/../h/noalloc_allocator.hpp **** * No existing allocator operator functions;
   9:src/kernel/../../h/../h/noalloc_allocator.hpp **** * Used for allocating allocator objects;
  10:src/kernel/../../h/../h/noalloc_allocator.hpp **** * Allocators are not deallocated so operator delete is not needed;
  11:src/kernel/../../h/../h/noalloc_allocator.hpp **** *
  12:src/kernel/../../h/../h/noalloc_allocator.hpp **** */
  13:src/kernel/../../h/../h/noalloc_allocator.hpp **** #define __NOALLOC_OPERATORS__ \
  14:src/kernel/../../h/../h/noalloc_allocator.hpp **** void* operator new(size_t sz){ return NoAlloc::mem_alloc(sz); } \
  15:src/kernel/../../h/../h/noalloc_allocator.hpp **** void* operator new[](size_t sz){ return NoAlloc::mem_alloc(sz); } \
  16:src/kernel/../../h/../h/noalloc_allocator.hpp **** void operator delete(void* ptr){  } \
  17:src/kernel/../../h/../h/noalloc_allocator.hpp **** void operator delete[](void* ptr){  }
  18:src/kernel/../../h/../h/noalloc_allocator.hpp **** 
  19:src/kernel/../../h/../h/noalloc_allocator.hpp **** 
  20:src/kernel/../../h/../h/noalloc_allocator.hpp **** /* 
  21:src/kernel/../../h/../h/noalloc_allocator.hpp **** * Continual allocation used when there is no allocator;
  22:src/kernel/../../h/../h/noalloc_allocator.hpp **** * -----USED FOR ALLOCATING ALLOCATOR OBJECTS-----
  23:src/kernel/../../h/../h/noalloc_allocator.hpp **** */
  24:src/kernel/../../h/../h/noalloc_allocator.hpp **** class NoAlloc{ /* singleton */ 
  25:src/kernel/../../h/../h/noalloc_allocator.hpp ****     static void* NOALLOC_END_ADDR; 
  26:src/kernel/../../h/../h/noalloc_allocator.hpp **** public:
  27:src/kernel/../../h/../h/noalloc_allocator.hpp ****     static void init(); /* set NOALLOC END ADDR = HEAP START ADDR */
GAS LISTING /tmp/ccEzYfxF.s 			page 16


  28:src/kernel/../../h/../h/noalloc_allocator.hpp ****     static void* getEndAddress(){ return NOALLOC_END_ADDR; } /* get end address of allocated object
 622              		.loc 2 28 35
 623              		.loc 2 28 42 is_stmt 0
 624 03d0 97070000 		lla	a5,_ZN7NoAlloc16NOALLOC_END_ADDRE
 624      93870700 
 625 03d8 03B50700 		ld	a0,0(a5)
 626              	.LVL53:
 627              	.LBE19:
 628              	.LBE18:
 139:src/kernel/buddy.cpp ****     /* last buddy address */
 140:src/kernel/buddy.cpp ****     uint64 y = (uint64)saddr + (sz << BLOCK_SIZE_BIT_LEN);
 629              		.loc 1 140 5 is_stmt 1
 630              		.loc 1 140 36 is_stmt 0
 631 03dc 97070000 		lbu	a5,_ZN5Buddy18BLOCK_SIZE_BIT_LENE
 631      83C70700 
 632 03e4 3316F600 		sll	a2,a2,a5
 633              	.LVL54:
 634              		.loc 1 140 12
 635 03e8 3306B600 		add	a2,a2,a1
 636              	.LVL55:
 141:src/kernel/buddy.cpp ****     
 142:src/kernel/buddy.cpp ****     
 143:src/kernel/buddy.cpp ****     /* 
 144:src/kernel/buddy.cpp ****     *   Allocate diff between 
 145:src/kernel/buddy.cpp ****     *   last allocated address 
 146:src/kernel/buddy.cpp ****     *   and last buddy address 
 147:src/kernel/buddy.cpp ****     */
 148:src/kernel/buddy.cpp ****     void* ind = NoAlloc::mem_alloc(y - x);
 637              		.loc 1 148 5 is_stmt 1
 638              		.loc 1 148 35 is_stmt 0
 639 03ec 3305A640 		sub	a0,a2,a0
 640              	.LVL56:
 641 03f0 97000000 		call	_ZN7NoAlloc9mem_allocEm
 641      E7800000 
 642              	.LVL57:
 149:src/kernel/buddy.cpp **** 
 150:src/kernel/buddy.cpp ****     if(ind == nullptr) { /* TODO: panic */ }
 643              		.loc 1 150 5 is_stmt 1
 151:src/kernel/buddy.cpp **** 
 152:src/kernel/buddy.cpp ****     /* ------MEMORY META ALLOC------ */
 153:src/kernel/buddy.cpp ****     /* allocate list head pointers */
 154:src/kernel/buddy.cpp ****     /* allocate is_free boolean array */
 155:src/kernel/buddy.cpp ****     blocks = (bstatus*)NoAlloc::mem_alloc(size*sizeof(bstatus));
 644              		.loc 1 155 5
 645              		.loc 1 155 43 is_stmt 0
 646 03f8 03B58400 		ld	a0,8(s1)
 647              		.loc 1 155 42
 648 03fc 13151500 		slli	a0,a0,1
 649 0400 97000000 		call	_ZN7NoAlloc9mem_allocEm
 649      E7800000 
 650              	.LVL58:
 651              		.loc 1 155 12
 652 0408 23B0A402 		sd	a0,32(s1)
 156:src/kernel/buddy.cpp ****     if(!blocks) { kprintString("is_free null panic!\n");}
 653              		.loc 1 156 5 is_stmt 1
 654 040c 63060502 		beq	a0,zero,.L54
 655              	.L46:
GAS LISTING /tmp/ccEzYfxF.s 			page 17


 656              	.LBE17:
 133:src/kernel/buddy.cpp ****     start_address = saddr;
 657              		.loc 1 133 1 is_stmt 0 discriminator 3
 658 0410 93070000 		li	a5,0
 659              	.L48:
 660              	.LVL59:
 661              	.LBB22:
 662              	.LBB20:
 157:src/kernel/buddy.cpp ****     /* set all is_free to 0 except first block */
 158:src/kernel/buddy.cpp ****     for(size_t i = 0; i < size; i++)
 663              		.loc 1 158 27 discriminator 3
 664 0414 03B58400 		ld	a0,8(s1)
 665              		.loc 1 158 25 discriminator 3
 666 0418 63FAA702 		bleu	a0,a5,.L47
 159:src/kernel/buddy.cpp ****         blocks[i] = SUB_ALLOC;
 667              		.loc 1 159 9 is_stmt 1 discriminator 2
 668 041c 03B70402 		ld	a4,32(s1)
 669              		.loc 1 159 17 is_stmt 0 discriminator 2
 670 0420 93961700 		slli	a3,a5,1
 671 0424 3307D700 		add	a4,a4,a3
 672              		.loc 1 159 19 discriminator 2
 673 0428 9306E0FF 		li	a3,-2
 674 042c 2310D700 		sh	a3,0(a4)
 158:src/kernel/buddy.cpp ****         blocks[i] = SUB_ALLOC;
 675              		.loc 1 158 5 discriminator 2
 676 0430 93871700 		addi	a5,a5,1
 677              	.LVL60:
 678 0434 6FF01FFE 		j	.L48
 679              	.LVL61:
 680              	.L54:
 681              	.LBE20:
 156:src/kernel/buddy.cpp ****     /* set all is_free to 0 except first block */
 682              		.loc 1 156 19 is_stmt 1 discriminator 1
 156:src/kernel/buddy.cpp ****     /* set all is_free to 0 except first block */
 683              		.loc 1 156 31 is_stmt 0 discriminator 1
 684 0438 17050000 		lla	a0,.LC6
 684      13050500 
 685 0440 97000000 		call	_Z12kprintStringPKc
 685      E7800000 
 686              	.LVL62:
 687 0448 6FF09FFC 		j	.L46
 688              	.LVL63:
 689              	.L47:
 160:src/kernel/buddy.cpp **** 
 161:src/kernel/buddy.cpp ****     lhp_size = log2(size)+1;
 690              		.loc 1 161 5 is_stmt 1
 691              		.loc 1 161 20 is_stmt 0
 692 044c 97000000 		call	_Z4log2m
 692      E7800000 
 693              	.LVL64:
 694              		.loc 1 161 26
 695 0454 1B051500 		addiw	a0,a0,1
 696 0458 1375F50F 		andi	a0,a0,0xff
 697              		.loc 1 161 14
 698 045c 238CA400 		sb	a0,24(s1)
 162:src/kernel/buddy.cpp ****     lhp = (mmeta_t**)NoAlloc::mem_alloc(lhp_size*sizeof(mmeta_t*));
 699              		.loc 1 162 5 is_stmt 1
GAS LISTING /tmp/ccEzYfxF.s 			page 18


 700              		.loc 1 162 40 is_stmt 0
 701 0460 13153500 		slli	a0,a0,3
 702 0464 97000000 		call	_ZN7NoAlloc9mem_allocEm
 702      E7800000 
 703              	.LVL65:
 704              		.loc 1 162 9
 705 046c 23B8A400 		sd	a0,16(s1)
 163:src/kernel/buddy.cpp ****     if(!lhp) { kprintString("lhp null panic!\n");}
 706              		.loc 1 163 5 is_stmt 1
 707 0470 63060502 		beq	a0,zero,.L55
 708              	.L49:
 709              	.LBE22:
 133:src/kernel/buddy.cpp ****     start_address = saddr;
 710              		.loc 1 133 1 is_stmt 0 discriminator 3
 711 0474 93070000 		li	a5,0
 712              	.L51:
 713              	.LVL66:
 714              	.LBB23:
 715              	.LBB21:
 164:src/kernel/buddy.cpp ****     /* set all list head pointers to null */
 165:src/kernel/buddy.cpp ****     for(uchar i = 0; i < lhp_size; i++ )
 716              		.loc 1 165 26 discriminator 3
 717 0478 03C78401 		lbu	a4,24(s1)
 718              		.loc 1 165 24 discriminator 3
 719 047c 63FAE702 		bleu	a4,a5,.L50
 166:src/kernel/buddy.cpp ****         lhp[i] = nullptr;
 720              		.loc 1 166 9 is_stmt 1 discriminator 2
 721 0480 03B70401 		ld	a4,16(s1)
 722              		.loc 1 166 14 is_stmt 0 discriminator 2
 723 0484 93963700 		slli	a3,a5,3
 724 0488 3307D700 		add	a4,a4,a3
 725              		.loc 1 166 16 discriminator 2
 726 048c 23300700 		sd	zero,0(a4)
 165:src/kernel/buddy.cpp ****         lhp[i] = nullptr;
 727              		.loc 1 165 5 discriminator 2
 728 0490 9B871700 		addiw	a5,a5,1
 729              	.LVL67:
 730 0494 93F7F70F 		andi	a5,a5,0xff
 731              	.LVL68:
 732 0498 6FF01FFE 		j	.L51
 733              	.LVL69:
 734              	.L55:
 735              	.LBE21:
 163:src/kernel/buddy.cpp ****     /* set all list head pointers to null */
 736              		.loc 1 163 16 is_stmt 1 discriminator 1
 163:src/kernel/buddy.cpp ****     /* set all list head pointers to null */
 737              		.loc 1 163 28 is_stmt 0 discriminator 1
 738 049c 17050000 		lla	a0,.LC7
 738      13050500 
 739 04a4 97000000 		call	_Z12kprintStringPKc
 739      E7800000 
 740              	.LVL70:
 741 04ac 6FF09FFC 		j	.L49
 742              	.LVL71:
 743              	.L50:
 167:src/kernel/buddy.cpp ****     /* add just biggest element (whole memory) to last list */
 168:src/kernel/buddy.cpp ****     
GAS LISTING /tmp/ccEzYfxF.s 			page 19


 169:src/kernel/buddy.cpp ****     blocks[0] = FREE;
 744              		.loc 1 169 5 is_stmt 1
 745 04b0 83B70402 		ld	a5,32(s1)
 746              	.LVL72:
 747              		.loc 1 169 15 is_stmt 0
 748 04b4 1307F0FF 		li	a4,-1
 749 04b8 2390E700 		sh	a4,0(a5)
 170:src/kernel/buddy.cpp ****     int code = add_to_list(lhp_size-1, (mmeta_t*)start_address);
 750              		.loc 1 170 5 is_stmt 1
 751              		.loc 1 170 28 is_stmt 0
 752 04bc 83C58401 		lbu	a1,24(s1)
 753              		.loc 1 170 27
 754 04c0 9B85F5FF 		addiw	a1,a1,-1
 755 04c4 03B60400 		ld	a2,0(s1)
 756 04c8 93F5F50F 		andi	a1,a1,0xff
 757 04cc 13850400 		mv	a0,s1
 758 04d0 97000000 		call	_ZN5Buddy11add_to_listEhP7mmeta_t
 758      E7800000 
 759              	.LVL73:
 760 04d8 93040500 		mv	s1,a0
 761              	.LVL74:
 171:src/kernel/buddy.cpp ****     if ( code < 0) {
 762              		.loc 1 171 5 is_stmt 1
 763 04dc 634C0500 		blt	a0,zero,.L56
 764              	.LVL75:
 765              	.L45:
 766              	.LBE23:
 172:src/kernel/buddy.cpp ****         kprintString("addtolist panic: ");
 173:src/kernel/buddy.cpp ****         kprintInt(code, 16);
 174:src/kernel/buddy.cpp ****         kprintString("\n");
 175:src/kernel/buddy.cpp ****     }
 176:src/kernel/buddy.cpp ****     
 177:src/kernel/buddy.cpp ****     
 178:src/kernel/buddy.cpp ****     
 179:src/kernel/buddy.cpp **** }
 767              		.loc 1 179 1 is_stmt 0
 768 04e0 83308101 		ld	ra,24(sp)
 769              		.cfi_remember_state
 770              		.cfi_restore 1
 771 04e4 03340101 		ld	s0,16(sp)
 772              		.cfi_restore 8
 773              		.cfi_def_cfa 2, 32
 774 04e8 83348100 		ld	s1,8(sp)
 775              		.cfi_restore 9
 776 04ec 13010102 		addi	sp,sp,32
 777              		.cfi_def_cfa_offset 0
 778 04f0 67800000 		jr	ra
 779              	.LVL76:
 780              	.L56:
 781              		.cfi_restore_state
 782              	.LBB24:
 172:src/kernel/buddy.cpp ****         kprintString("addtolist panic: ");
 783              		.loc 1 172 9 is_stmt 1
 172:src/kernel/buddy.cpp ****         kprintString("addtolist panic: ");
 784              		.loc 1 172 21 is_stmt 0
 785 04f4 17050000 		lla	a0,.LC8
 785      13050500 
GAS LISTING /tmp/ccEzYfxF.s 			page 20


 786              	.LVL77:
 787 04fc 97000000 		call	_Z12kprintStringPKc
 787      E7800000 
 788              	.LVL78:
 173:src/kernel/buddy.cpp ****         kprintString("\n");
 789              		.loc 1 173 9 is_stmt 1
 173:src/kernel/buddy.cpp ****         kprintString("\n");
 790              		.loc 1 173 18 is_stmt 0
 791 0504 13060000 		li	a2,0
 792 0508 93050001 		li	a1,16
 793 050c 13850400 		mv	a0,s1
 794 0510 97000000 		call	_Z9kprintIntmib
 794      E7800000 
 795              	.LVL79:
 174:src/kernel/buddy.cpp ****     }
 796              		.loc 1 174 9 is_stmt 1
 174:src/kernel/buddy.cpp ****     }
 797              		.loc 1 174 21 is_stmt 0
 798 0518 17050000 		lla	a0,.LC9
 798      13050500 
 799 0520 97000000 		call	_Z12kprintStringPKc
 799      E7800000 
 800              	.LVL80:
 801              	.LBE24:
 802              		.loc 1 179 1
 803 0528 6FF09FFB 		j	.L45
 804              		.cfi_endproc
 805              	.LFE107:
 807              		.globl	_ZN5BuddyC1EPvm
 808              		.set	_ZN5BuddyC1EPvm,_ZN5BuddyC2EPvm
 809              		.align	2
 810              		.globl	_ZN5Buddy9initalizeEPvm
 812              	_ZN5Buddy9initalizeEPvm:
 813              	.LFB98:
   5:src/kernel/buddy.cpp ****     
 814              		.loc 1 5 45 is_stmt 1
 815              		.cfi_startproc
 816              	.LVL81:
 817 052c 130101FD 		addi	sp,sp,-48
 818              		.cfi_def_cfa_offset 48
 819 0530 23341102 		sd	ra,40(sp)
 820 0534 23308102 		sd	s0,32(sp)
 821 0538 233C9100 		sd	s1,24(sp)
 822 053c 23382101 		sd	s2,16(sp)
 823 0540 23343101 		sd	s3,8(sp)
 824              		.cfi_offset 1, -8
 825              		.cfi_offset 8, -16
 826              		.cfi_offset 9, -24
 827              		.cfi_offset 18, -32
 828              		.cfi_offset 19, -40
 829 0544 13040103 		addi	s0,sp,48
 830              		.cfi_def_cfa 8, 0
 831 0548 93040500 		mv	s1,a0
 832 054c 13890500 		mv	s2,a1
   8:src/kernel/buddy.cpp ****     
 833              		.loc 1 8 5
   8:src/kernel/buddy.cpp ****     
GAS LISTING /tmp/ccEzYfxF.s 			page 21


 834              		.loc 1 8 30 is_stmt 0
 835 0550 37150000 		li	a0,4096
 836              	.LVL82:
 837 0554 97000000 		call	_Z4log2m
 837      E7800000 
 838              	.LVL83:
   8:src/kernel/buddy.cpp ****     
 839              		.loc 1 8 24
 840 055c 97070000 		sb	a0,_ZN5Buddy18BLOCK_SIZE_BIT_LENE,a5
 840      2380A700 
  11:src/kernel/buddy.cpp ****     /* ckeck if start address is lower than it can be */
 841              		.loc 1 11 5 is_stmt 1
 842              	.LBB25:
 843              	.LBB26:
 844              		.loc 2 28 35
 845              		.loc 2 28 42 is_stmt 0
 846 0564 97070000 		lla	a5,_ZN7NoAlloc16NOALLOC_END_ADDRE
 846      93870700 
 847 056c 83B70700 		ld	a5,0(a5)
 848              	.LVL84:
 849              	.LBE26:
 850              	.LBE25:
  13:src/kernel/buddy.cpp ****         return 1;
 851              		.loc 1 13 5 is_stmt 1
  13:src/kernel/buddy.cpp ****         return 1;
 852              		.loc 1 13 28 is_stmt 0
 853 0570 93878702 		addi	a5,a5,40
 854              	.LVL85:
  13:src/kernel/buddy.cpp ****         return 1;
 855              		.loc 1 13 5
 856 0574 63F2F402 		bgeu	s1,a5,.L62
  14:src/kernel/buddy.cpp ****     /* aligned address to 4096 bytes */
 857              		.loc 1 14 16
 858 0578 13051000 		li	a0,1
 859              	.LVL86:
 860              	.L58:
  28:src/kernel/buddy.cpp **** 
 861              		.loc 1 28 1
 862 057c 83308102 		ld	ra,40(sp)
 863              		.cfi_remember_state
 864              		.cfi_restore 1
 865 0580 03340102 		ld	s0,32(sp)
 866              		.cfi_restore 8
 867              		.cfi_def_cfa 2, 48
 868 0584 83348101 		ld	s1,24(sp)
 869              		.cfi_restore 9
 870              	.LVL87:
 871 0588 03390101 		ld	s2,16(sp)
 872              		.cfi_restore 18
 873 058c 83398100 		ld	s3,8(sp)
 874              		.cfi_restore 19
 875 0590 13010103 		addi	sp,sp,48
 876              		.cfi_def_cfa_offset 0
 877 0594 67800000 		jr	ra
 878              	.LVL88:
 879              	.L62:
 880              		.cfi_restore_state
GAS LISTING /tmp/ccEzYfxF.s 			page 22


  16:src/kernel/buddy.cpp ****     
 881              		.loc 1 16 5 is_stmt 1
 882              	.LBB27:
 883              	.LBB28:
 884              		.file 3 "src/kernel/../../h/../h/buddy.h"
   1:src/kernel/../../h/../h/buddy.h **** #ifndef buddy_h
   2:src/kernel/../../h/../h/buddy.h **** #define buddy_h
   3:src/kernel/../../h/../h/buddy.h **** 
   4:src/kernel/../../h/../h/buddy.h **** #include"../h/noalloc_allocator.hpp"
   5:src/kernel/../../h/../h/buddy.h **** 
   6:src/kernel/../../h/../h/buddy.h **** struct mmeta_t{
   7:src/kernel/../../h/../h/buddy.h ****     mmeta_t* next,*prev;
   8:src/kernel/../../h/../h/buddy.h ****     uchar level;
   9:src/kernel/../../h/../h/buddy.h **** };
  10:src/kernel/../../h/../h/buddy.h **** 
  11:src/kernel/../../h/../h/buddy.h **** class Buddy{
  12:src/kernel/../../h/../h/buddy.h **** protected:
  13:src/kernel/../../h/../h/buddy.h ****     /* block status */
  14:src/kernel/../../h/../h/buddy.h ****     enum bstatus: short{
  15:src/kernel/../../h/../h/buddy.h ****         FREE = -1,
  16:src/kernel/../../h/../h/buddy.h ****         SUB_ALLOC = -2
  17:src/kernel/../../h/../h/buddy.h ****     };
  18:src/kernel/../../h/../h/buddy.h ****     /* bit len of block sizee */
  19:src/kernel/../../h/../h/buddy.h ****     static uchar BLOCK_SIZE_BIT_LEN;
  20:src/kernel/../../h/../h/buddy.h ****     /* singleton */
  21:src/kernel/../../h/../h/buddy.h ****     static Buddy* buddy; 
  22:src/kernel/../../h/../h/buddy.h ****     /* starting address memory buddy allocator operates */
  23:src/kernel/../../h/../h/buddy.h ****     void* start_address; 
  24:src/kernel/../../h/../h/buddy.h ****     /* size of memory in blocks*/
  25:src/kernel/../../h/../h/buddy.h ****     size_t size; 
  26:src/kernel/../../h/../h/buddy.h ****     /* array of list head pointers to 2^n chunk */
  27:src/kernel/../../h/../h/buddy.h ****     mmeta_t** lhp;
  28:src/kernel/../../h/../h/buddy.h ****     uchar lhp_size;
  29:src/kernel/../../h/../h/buddy.h ****     /* is_free[i] <=> is chunk starting with block i free */
  30:src/kernel/../../h/../h/buddy.h ****     bstatus* blocks;
  31:src/kernel/../../h/../h/buddy.h **** 
  32:src/kernel/../../h/../h/buddy.h ****     __NOALLOC_OPERATORS__
  33:src/kernel/../../h/../h/buddy.h **** 
  34:src/kernel/../../h/../h/buddy.h ****     /* buddy allocator constructor */
  35:src/kernel/../../h/../h/buddy.h ****     Buddy(void* saddr, size_t sz);
  36:src/kernel/../../h/../h/buddy.h **** 
  37:src/kernel/../../h/../h/buddy.h ****     /* align input to size of blocks */
  38:src/kernel/../../h/../h/buddy.h ****     static uint64 blockAlign(uint64 input){
  39:src/kernel/../../h/../h/buddy.h ****         return (input + BLOCK_SIZE - 1) & ( (~0ULL) << BLOCK_SIZE_BIT_LEN);
 885              		.loc 3 39 9
 886              		.loc 3 39 36 is_stmt 0
 887 0598 B7170000 		li	a5,4096
 888 059c 9387F7FF 		addi	a5,a5,-1
 889 05a0 B384F400 		add	s1,s1,a5
 890              	.LVL89:
 891              		.loc 3 39 53
 892 05a4 9307F0FF 		li	a5,-1
 893 05a8 3395A700 		sll	a0,a5,a0
 894              		.loc 3 39 74
 895 05ac B3F4A400 		and	s1,s1,a0
 896              	.LVL90:
 897              	.LBE28:
GAS LISTING /tmp/ccEzYfxF.s 			page 23


 898              	.LBE27:
  19:src/kernel/buddy.cpp **** 
 899              		.loc 1 19 5 is_stmt 1
  19:src/kernel/buddy.cpp **** 
 900              		.loc 1 19 21 is_stmt 0
 901 05b0 13050900 		mv	a0,s2
 902 05b4 97000000 		call	_Z11closest2powm
 902      E7800000 
 903              	.LVL91:
 904 05bc 93090500 		mv	s3,a0
 905              	.LVL92:
  22:src/kernel/buddy.cpp ****     
 906              		.loc 1 22 5 is_stmt 1
 907              	.LBB29:
 908              	.LBB30:
  32:src/kernel/../../h/../h/buddy.h **** 
 909              		.loc 3 32 5
 910 05c0 13058002 		li	a0,40
 911              	.LVL93:
 912 05c4 97000000 		call	_ZN7NoAlloc9mem_allocEm
 912      E7800000 
 913              	.LVL94:
 914 05cc 13090500 		mv	s2,a0
 915              	.LVL95:
 916              	.LBE30:
 917              	.LBE29:
  22:src/kernel/buddy.cpp ****     
 918              		.loc 1 22 32 is_stmt 0
 919 05d0 13860900 		mv	a2,s3
 920 05d4 93850400 		mv	a1,s1
 921 05d8 97000000 		call	_ZN5BuddyC1EPvm
 921      E7800000 
 922              	.LVL96:
  22:src/kernel/buddy.cpp ****     
 923              		.loc 1 22 11
 924 05e0 97070000 		sd	s2,_ZN5Buddy5buddyE,a5
 924      23B02701 
  24:src/kernel/buddy.cpp **** 
 925              		.loc 1 24 5 is_stmt 1
 926 05e8 63060900 		beq	s2,zero,.L60
  27:src/kernel/buddy.cpp **** }
 927              		.loc 1 27 12 is_stmt 0
 928 05ec 13050000 		li	a0,0
 929 05f0 6FF0DFF8 		j	.L58
 930              	.L60:
  24:src/kernel/buddy.cpp **** 
 931              		.loc 1 24 24
 932 05f4 13051000 		li	a0,1
 933 05f8 6FF05FF8 		j	.L58
 934              		.cfi_endproc
 935              	.LFE98:
 937              		.align	2
 938              		.globl	_Z3kmiv
 940              	_Z3kmiv:
 941              	.LFB99:
  30:src/kernel/buddy.cpp ****     /* start of reserved memory for buddy allocator */
 942              		.loc 1 30 10 is_stmt 1
GAS LISTING /tmp/ccEzYfxF.s 			page 24


 943              		.cfi_startproc
  32:src/kernel/buddy.cpp ****         (uint64)NoAlloc::getEndAddress() + sizeof(Buddy) ) ;
 944              		.loc 1 32 5
 945              	.LBB31:
 946              	.LBB32:
 947              		.loc 2 28 35
 948              		.loc 2 28 42 is_stmt 0
 949 05fc 97070000 		lla	a5,_ZN7NoAlloc16NOALLOC_END_ADDRE
 949      93870700 
 950 0604 03B50700 		ld	a0,0(a5)
 951              	.LBE32:
 952              	.LBE31:
  33:src/kernel/buddy.cpp **** 
 953              		.loc 1 33 42
 954 0608 13058502 		addi	a0,a0,40
 955              	.LVL97:
  36:src/kernel/buddy.cpp ****     if(buddy_mem_size == 0){ return 1; }
 956              		.loc 1 36 5 is_stmt 1
  36:src/kernel/buddy.cpp ****     if(buddy_mem_size == 0){ return 1; }
 957              		.loc 1 36 52 is_stmt 0
 958 060c 97070000 		lla	a5,HEAP_END_ADDR
 958      93870700 
 959 0614 83B50700 		ld	a1,0(a5)
 960 0618 B385A540 		sub	a1,a1,a0
  36:src/kernel/buddy.cpp ****     if(buddy_mem_size == 0){ return 1; }
 961              		.loc 1 36 12
 962 061c 93D53500 		srli	a1,a1,3
 963              	.LVL98:
  37:src/kernel/buddy.cpp ****     /* size of memory for buddy allocator in blocks*/
 964              		.loc 1 37 5 is_stmt 1
 965 0620 63960500 		bne	a1,zero,.L70
  37:src/kernel/buddy.cpp ****     /* size of memory for buddy allocator in blocks*/
 966              		.loc 1 37 37 is_stmt 0
 967 0624 13051000 		li	a0,1
 968              	.LVL99:
  42:src/kernel/buddy.cpp **** 
 969              		.loc 1 42 1
 970 0628 67800000 		ret
 971              	.LVL100:
 972              	.L70:
  30:src/kernel/buddy.cpp ****     /* start of reserved memory for buddy allocator */
 973              		.loc 1 30 10
 974 062c 130101FF 		addi	sp,sp,-16
 975              		.cfi_def_cfa_offset 16
 976 0630 23341100 		sd	ra,8(sp)
 977 0634 23308100 		sd	s0,0(sp)
 978              		.cfi_offset 1, -8
 979              		.cfi_offset 8, -16
 980 0638 13040101 		addi	s0,sp,16
 981              		.cfi_def_cfa 8, 0
  39:src/kernel/buddy.cpp **** 
 982              		.loc 1 39 5 is_stmt 1
  39:src/kernel/buddy.cpp **** 
 983              		.loc 1 39 38 is_stmt 0
 984 063c 9385F5FF 		addi	a1,a1,-1
 985              	.LVL101:
  39:src/kernel/buddy.cpp **** 
GAS LISTING /tmp/ccEzYfxF.s 			page 25


 986              		.loc 1 39 42
 987 0640 93D5C500 		srli	a1,a1,12
 988              	.LVL102:
  41:src/kernel/buddy.cpp **** }
 989              		.loc 1 41 5 is_stmt 1
  41:src/kernel/buddy.cpp **** }
 990              		.loc 1 41 28 is_stmt 0
 991 0644 93851500 		addi	a1,a1,1
 992              	.LVL103:
 993 0648 97000000 		call	_ZN5Buddy9initalizeEPvm
 993      E7800000 
 994              	.LVL104:
  42:src/kernel/buddy.cpp **** 
 995              		.loc 1 42 1
 996 0650 83308100 		ld	ra,8(sp)
 997              		.cfi_restore 1
 998 0654 03340100 		ld	s0,0(sp)
 999              		.cfi_restore 8
 1000              		.cfi_def_cfa 2, 16
 1001 0658 13010101 		addi	sp,sp,16
 1002              		.cfi_def_cfa_offset 0
 1003 065c 67800000 		jr	ra
 1004              		.cfi_endproc
 1005              	.LFE99:
 1007              		.align	2
 1008              		.globl	_ZN5Buddy5splitEP7mmeta_t
 1010              	_ZN5Buddy5splitEP7mmeta_t:
 1011              	.LFB109:
 180:src/kernel/buddy.cpp **** 
 181:src/kernel/buddy.cpp **** mmeta_t* Buddy::split(mmeta_t* chunk){
 1012              		.loc 1 181 38 is_stmt 1
 1013              		.cfi_startproc
 1014              	.LVL105:
 1015 0660 130101FF 		addi	sp,sp,-16
 1016              		.cfi_def_cfa_offset 16
 1017 0664 23348100 		sd	s0,8(sp)
 1018              		.cfi_offset 8, -8
 1019 0668 13040101 		addi	s0,sp,16
 1020              		.cfi_def_cfa 8, 0
 182:src/kernel/buddy.cpp ****     /* chk if address is valid */
 183:src/kernel/buddy.cpp ****     if( ((uint64)chunk & (BLOCK_SIZE - 1)) || chunk < start_address ) return nullptr;
 1021              		.loc 1 183 5
 1022              		.loc 1 183 24 is_stmt 0
 1023 066c B7170000 		li	a5,4096
 1024 0670 9387F7FF 		addi	a5,a5,-1
 1025 0674 B3F7F500 		and	a5,a1,a5
 1026              		.loc 1 183 5
 1027 0678 63960702 		bne	a5,zero,.L73
 1028              		.loc 1 183 55 discriminator 2
 1029 067c 83370500 		ld	a5,0(a0)
 1030              		.loc 1 183 44 discriminator 2
 1031 0680 63E6F502 		bgtu	a5,a1,.L74
 184:src/kernel/buddy.cpp ****     return (mmeta_t*)( (uint64)chunk + (BLOCK_SIZE << (chunk->level - 1)) ) ;
 1032              		.loc 1 184 5 is_stmt 1
 1033              		.loc 1 184 63 is_stmt 0
 1034 0684 03C50501 		lbu	a0,16(a1)
 1035              	.LVL106:
GAS LISTING /tmp/ccEzYfxF.s 			page 26


 1036              		.loc 1 184 69
 1037 0688 9B07F5FF 		addiw	a5,a0,-1
 1038              		.loc 1 184 52
 1039 068c 37150000 		li	a0,4096
 1040 0690 3315F500 		sll	a0,a0,a5
 1041              		.loc 1 184 38
 1042 0694 3385A500 		add	a0,a1,a0
 1043              	.L71:
 185:src/kernel/buddy.cpp **** }
 1044              		.loc 1 185 1
 1045 0698 03348100 		ld	s0,8(sp)
 1046              		.cfi_remember_state
 1047              		.cfi_restore 8
 1048              		.cfi_def_cfa 2, 16
 1049 069c 13010101 		addi	sp,sp,16
 1050              		.cfi_def_cfa_offset 0
 1051 06a0 67800000 		jr	ra
 1052              	.LVL107:
 1053              	.L73:
 1054              		.cfi_restore_state
 183:src/kernel/buddy.cpp ****     return (mmeta_t*)( (uint64)chunk + (BLOCK_SIZE << (chunk->level - 1)) ) ;
 1055              		.loc 1 183 78
 1056 06a4 13050000 		li	a0,0
 1057              	.LVL108:
 1058 06a8 6FF01FFF 		j	.L71
 1059              	.LVL109:
 1060              	.L74:
 1061 06ac 13050000 		li	a0,0
 1062              	.LVL110:
 1063 06b0 6FF09FFE 		j	.L71
 1064              		.cfi_endproc
 1065              	.LFE109:
 1067              		.align	2
 1068              		.globl	_ZN5Buddy12status_printEb
 1070              	_ZN5Buddy12status_printEb:
 1071              	.LFB110:
 186:src/kernel/buddy.cpp **** 
 187:src/kernel/buddy.cpp **** void Buddy::status_print(bool f){
 1072              		.loc 1 187 33 is_stmt 1
 1073              		.cfi_startproc
 1074              	.LVL111:
 1075 06b4 130101FD 		addi	sp,sp,-48
 1076              		.cfi_def_cfa_offset 48
 1077 06b8 23341102 		sd	ra,40(sp)
 1078 06bc 23308102 		sd	s0,32(sp)
 1079 06c0 233C9100 		sd	s1,24(sp)
 1080 06c4 23382101 		sd	s2,16(sp)
 1081 06c8 23343101 		sd	s3,8(sp)
 1082 06cc 23304101 		sd	s4,0(sp)
 1083              		.cfi_offset 1, -8
 1084              		.cfi_offset 8, -16
 1085              		.cfi_offset 9, -24
 1086              		.cfi_offset 18, -32
 1087              		.cfi_offset 19, -40
 1088              		.cfi_offset 20, -48
 1089 06d0 13040103 		addi	s0,sp,48
 1090              		.cfi_def_cfa 8, 0
GAS LISTING /tmp/ccEzYfxF.s 			page 27


 188:src/kernel/buddy.cpp ****     if(!buddy){
 1091              		.loc 1 188 5
 1092              		.loc 1 188 8 is_stmt 0
 1093 06d4 97070000 		lla	a5,_ZN5Buddy5buddyE
 1093      93870700 
 1094 06dc 83B70700 		ld	a5,0(a5)
 1095              		.loc 1 188 5
 1096 06e0 638C070C 		beq	a5,zero,.L88
 1097 06e4 93090500 		mv	s3,a0
 1098 06e8 138A0500 		mv	s4,a1
 189:src/kernel/buddy.cpp ****         kprintString("BUDDY NOT INITALIZED!!!");
 190:src/kernel/buddy.cpp ****         return;
 191:src/kernel/buddy.cpp ****     }
 192:src/kernel/buddy.cpp ****     kprintString("------BUDDY STATUS PRINT------\n");
 1099              		.loc 1 192 5 is_stmt 1
 1100              		.loc 1 192 17 is_stmt 0
 1101 06ec 17050000 		lla	a0,.LC11
 1101      13050500 
 1102              	.LVL112:
 1103 06f4 97000000 		call	_Z12kprintStringPKc
 1103      E7800000 
 1104              	.LVL113:
 193:src/kernel/buddy.cpp ****     KCHECKPRINT(buddy);
 1105              		.loc 1 193 5 is_stmt 1
 1106 06fc 17050000 		lla	a0,.LC12
 1106      13050500 
 1107 0704 97000000 		call	_Z12kprintStringPKc
 1107      E7800000 
 1108              	.LVL114:
 1109              		.loc 1 193 5
 1110 070c 13060000 		li	a2,0
 1111 0710 93050001 		li	a1,16
 1112 0714 97070000 		lla	a5,_ZN5Buddy5buddyE
 1112      93870700 
 1113 071c 03B50700 		ld	a0,0(a5)
 1114 0720 97000000 		call	_Z9kprintIntmib
 1114      E7800000 
 1115              	.LVL115:
 1116              		.loc 1 193 5
 1117 0728 17050000 		lla	a0,.LC9
 1117      13050500 
 1118 0730 97000000 		call	_Z12kprintStringPKc
 1118      E7800000 
 1119              	.LVL116:
 194:src/kernel/buddy.cpp ****     KCHECKPRINT(start_address);
 1120              		.loc 1 194 5
 1121 0738 17050000 		lla	a0,.LC13
 1121      13050500 
 1122 0740 97000000 		call	_Z12kprintStringPKc
 1122      E7800000 
 1123              	.LVL117:
 1124              		.loc 1 194 5
 1125 0748 13060000 		li	a2,0
 1126 074c 93050001 		li	a1,16
 1127 0750 03B50900 		ld	a0,0(s3)
 1128 0754 97000000 		call	_Z9kprintIntmib
 1128      E7800000 
GAS LISTING /tmp/ccEzYfxF.s 			page 28


 1129              	.LVL118:
 1130              		.loc 1 194 5
 1131 075c 17050000 		lla	a0,.LC9
 1131      13050500 
 1132 0764 97000000 		call	_Z12kprintStringPKc
 1132      E7800000 
 1133              	.LVL119:
 195:src/kernel/buddy.cpp ****     KCHECKPRINT(size);
 1134              		.loc 1 195 5
 1135 076c 17050000 		lla	a0,.LC14
 1135      13050500 
 1136 0774 97000000 		call	_Z12kprintStringPKc
 1136      E7800000 
 1137              	.LVL120:
 1138              		.loc 1 195 5
 1139 077c 13060000 		li	a2,0
 1140 0780 93050001 		li	a1,16
 1141 0784 03B58900 		ld	a0,8(s3)
 1142 0788 97000000 		call	_Z9kprintIntmib
 1142      E7800000 
 1143              	.LVL121:
 1144              		.loc 1 195 5
 1145 0790 17050000 		lla	a0,.LC9
 1145      13050500 
 1146 0798 97000000 		call	_Z12kprintStringPKc
 1146      E7800000 
 1147              	.LVL122:
 196:src/kernel/buddy.cpp **** 
 197:src/kernel/buddy.cpp ****     kprintString("\t------MEMORY META------\n");
 1148              		.loc 1 197 5
 1149              		.loc 1 197 17 is_stmt 0
 1150 07a0 17050000 		lla	a0,.LC15
 1150      13050500 
 1151 07a8 97000000 		call	_Z12kprintStringPKc
 1151      E7800000 
 1152              	.LVL123:
 198:src/kernel/buddy.cpp ****     for(uchar i = 0; i < lhp_size; i++){
 1153              		.loc 1 198 5 is_stmt 1
 1154              	.LBB33:
 1155              		.loc 1 198 15 is_stmt 0
 1156 07b0 13090000 		li	s2,0
 1157 07b4 6F008006 		j	.L83
 1158              	.LVL124:
 1159              	.L88:
 1160              	.LBE33:
 189:src/kernel/buddy.cpp ****         return;
 1161              		.loc 1 189 9 is_stmt 1
 189:src/kernel/buddy.cpp ****         return;
 1162              		.loc 1 189 21 is_stmt 0
 1163 07b8 17050000 		lla	a0,.LC10
 1163      13050500 
 1164              	.LVL125:
 1165 07c0 97000000 		call	_Z12kprintStringPKc
 1165      E7800000 
 1166              	.LVL126:
 190:src/kernel/buddy.cpp ****     }
 1167              		.loc 1 190 9 is_stmt 1
GAS LISTING /tmp/ccEzYfxF.s 			page 29


 1168 07c8 6F008018 		j	.L76
 1169              	.LVL127:
 1170              	.L89:
 1171              	.LBB38:
 1172              	.LBB34:
 1173              	.LBB35:
 199:src/kernel/buddy.cpp ****         kprintString("\t"); KPRINTARR(LEVEL, i, (lhp[i] != 0));
 200:src/kernel/buddy.cpp ****         kprintString("\t");
 201:src/kernel/buddy.cpp ****         for(mmeta_t* curr = lhp[i]; curr; curr = curr->next){
 202:src/kernel/buddy.cpp ****             kprintInt((uint64)curr, 16);
 203:src/kernel/buddy.cpp ****             if(curr->next)
 204:src/kernel/buddy.cpp ****                 kprintString(" -> ");
 1174              		.loc 1 204 17
 1175              		.loc 1 204 29 is_stmt 0
 1176 07cc 17050000 		lla	a0,.LC18
 1176      13050500 
 1177 07d4 97000000 		call	_Z12kprintStringPKc
 1177      E7800000 
 1178              	.LVL128:
 1179              	.L81:
 201:src/kernel/buddy.cpp ****             kprintInt((uint64)curr, 16);
 1180              		.loc 1 201 48 discriminator 2
 1181 07dc 83B40400 		ld	s1,0(s1)
 1182              	.LVL129:
 1183              	.L82:
 201:src/kernel/buddy.cpp ****             kprintInt((uint64)curr, 16);
 1184              		.loc 1 201 37 discriminator 1
 1185 07e0 63820402 		beq	s1,zero,.L80
 202:src/kernel/buddy.cpp ****             if(curr->next)
 1186              		.loc 1 202 13 is_stmt 1
 202:src/kernel/buddy.cpp ****             if(curr->next)
 1187              		.loc 1 202 22 is_stmt 0
 1188 07e4 13060000 		li	a2,0
 1189 07e8 93050001 		li	a1,16
 1190 07ec 13850400 		mv	a0,s1
 1191 07f0 97000000 		call	_Z9kprintIntmib
 1191      E7800000 
 1192              	.LVL130:
 203:src/kernel/buddy.cpp ****                 kprintString(" -> ");
 1193              		.loc 1 203 13 is_stmt 1
 203:src/kernel/buddy.cpp ****                 kprintString(" -> ");
 1194              		.loc 1 203 22 is_stmt 0
 1195 07f8 83B70400 		ld	a5,0(s1)
 203:src/kernel/buddy.cpp ****                 kprintString(" -> ");
 1196              		.loc 1 203 13
 1197 07fc E39807FC 		bne	a5,zero,.L89
 1198 0800 6FF0DFFD 		j	.L81
 1199              	.L80:
 1200              	.LBE35:
 205:src/kernel/buddy.cpp ****         }
 206:src/kernel/buddy.cpp ****         kprintString("\n");
 1201              		.loc 1 206 9 is_stmt 1 discriminator 2
 1202              		.loc 1 206 21 is_stmt 0 discriminator 2
 1203 0804 17050000 		lla	a0,.LC9
 1203      13050500 
 1204 080c 97000000 		call	_Z12kprintStringPKc
 1204      E7800000 
GAS LISTING /tmp/ccEzYfxF.s 			page 30


 1205              	.LVL131:
 1206              	.LBE34:
 198:src/kernel/buddy.cpp ****         kprintString("\t"); KPRINTARR(LEVEL, i, (lhp[i] != 0));
 1207              		.loc 1 198 5 discriminator 2
 1208 0814 1B091900 		addiw	s2,s2,1
 1209              	.LVL132:
 1210 0818 1379F90F 		andi	s2,s2,0xff
 1211              	.LVL133:
 1212              	.L83:
 198:src/kernel/buddy.cpp ****         kprintString("\t"); KPRINTARR(LEVEL, i, (lhp[i] != 0));
 1213              		.loc 1 198 26 discriminator 1
 1214 081c 83C78901 		lbu	a5,24(s3)
 198:src/kernel/buddy.cpp ****         kprintString("\t"); KPRINTARR(LEVEL, i, (lhp[i] != 0));
 1215              		.loc 1 198 24 discriminator 1
 1216 0820 637EF908 		bleu	a5,s2,.L79
 1217              	.LBB37:
 199:src/kernel/buddy.cpp ****         kprintString("\t");
 1218              		.loc 1 199 9 is_stmt 1
 199:src/kernel/buddy.cpp ****         kprintString("\t");
 1219              		.loc 1 199 21 is_stmt 0
 1220 0824 17050000 		lla	a0,.LC16
 1220      13050500 
 1221 082c 97000000 		call	_Z12kprintStringPKc
 1221      E7800000 
 1222              	.LVL134:
 199:src/kernel/buddy.cpp ****         kprintString("\t");
 1223              		.loc 1 199 29 is_stmt 1
 1224 0834 17050000 		lla	a0,.LC17
 1224      13050500 
 1225 083c 97000000 		call	_Z12kprintStringPKc
 1225      E7800000 
 1226              	.LVL135:
 199:src/kernel/buddy.cpp ****         kprintString("\t");
 1227              		.loc 1 199 29
 1228 0844 13060000 		li	a2,0
 1229 0848 9305A000 		li	a1,10
 1230 084c 13050900 		mv	a0,s2
 1231 0850 97000000 		call	_Z9kprintIntmib
 1231      E7800000 
 1232              	.LVL136:
 199:src/kernel/buddy.cpp ****         kprintString("\t");
 1233              		.loc 1 199 29
 1234 0858 17050000 		lla	a0,.LC1
 1234      13050500 
 1235 0860 97000000 		call	_Z12kprintStringPKc
 1235      E7800000 
 1236              	.LVL137:
 199:src/kernel/buddy.cpp ****         kprintString("\t");
 1237              		.loc 1 199 29
 1238 0868 83B70901 		ld	a5,16(s3)
 1239 086c 93143900 		slli	s1,s2,3
 1240 0870 B3879700 		add	a5,a5,s1
 1241 0874 03B50700 		ld	a0,0(a5)
 1242 0878 13060000 		li	a2,0
 1243 087c 93050001 		li	a1,16
 1244 0880 3335A000 		snez	a0,a0
 1245 0884 97000000 		call	_Z9kprintIntmib
GAS LISTING /tmp/ccEzYfxF.s 			page 31


 1245      E7800000 
 1246              	.LVL138:
 199:src/kernel/buddy.cpp ****         kprintString("\t");
 1247              		.loc 1 199 29
 1248 088c 17050000 		lla	a0,.LC9
 1248      13050500 
 1249 0894 97000000 		call	_Z12kprintStringPKc
 1249      E7800000 
 1250              	.LVL139:
 200:src/kernel/buddy.cpp ****         for(mmeta_t* curr = lhp[i]; curr; curr = curr->next){
 1251              		.loc 1 200 9
 200:src/kernel/buddy.cpp ****         for(mmeta_t* curr = lhp[i]; curr; curr = curr->next){
 1252              		.loc 1 200 21 is_stmt 0
 1253 089c 17050000 		lla	a0,.LC16
 1253      13050500 
 1254 08a4 97000000 		call	_Z12kprintStringPKc
 1254      E7800000 
 1255              	.LVL140:
 201:src/kernel/buddy.cpp ****             kprintInt((uint64)curr, 16);
 1256              		.loc 1 201 9 is_stmt 1
 1257              	.LBB36:
 201:src/kernel/buddy.cpp ****             kprintInt((uint64)curr, 16);
 1258              		.loc 1 201 29 is_stmt 0
 1259 08ac 83B70901 		ld	a5,16(s3)
 201:src/kernel/buddy.cpp ****             kprintInt((uint64)curr, 16);
 1260              		.loc 1 201 34
 1261 08b0 B3879700 		add	a5,a5,s1
 201:src/kernel/buddy.cpp ****             kprintInt((uint64)curr, 16);
 1262              		.loc 1 201 22
 1263 08b4 83B40700 		ld	s1,0(a5)
 1264              	.LVL141:
 1265 08b8 6FF09FF2 		j	.L82
 1266              	.LVL142:
 1267              	.L79:
 1268              	.LBE36:
 1269              	.LBE37:
 1270              	.LBE38:
 207:src/kernel/buddy.cpp ****     }
 208:src/kernel/buddy.cpp ****     kprintString("\n");
 1271              		.loc 1 208 5 is_stmt 1
 1272              		.loc 1 208 17 is_stmt 0
 1273 08bc 17050000 		lla	a0,.LC9
 1273      13050500 
 1274 08c4 97000000 		call	_Z12kprintStringPKc
 1274      E7800000 
 1275              	.LVL143:
 209:src/kernel/buddy.cpp ****     if(f){
 1276              		.loc 1 209 5 is_stmt 1
 1277              	.LBB39:
 1278 08cc 63020A06 		beq	s4,zero,.L84
 1279              	.LBB40:
 210:src/kernel/buddy.cpp ****         for(size_t i = 0; i < size; i++){
 1280              		.loc 1 210 20 is_stmt 0
 1281 08d0 93040000 		li	s1,0
 1282 08d4 6F008000 		j	.L86
 1283              	.LVL144:
 1284              	.L85:
GAS LISTING /tmp/ccEzYfxF.s 			page 32


 1285              		.loc 1 210 9 discriminator 2
 1286 08d8 93841400 		addi	s1,s1,1
 1287              	.LVL145:
 1288              	.L86:
 1289              		.loc 1 210 31 discriminator 1
 1290 08dc 83B78900 		ld	a5,8(s3)
 1291              		.loc 1 210 29 discriminator 1
 1292 08e0 63F8F404 		bleu	a5,s1,.L84
 211:src/kernel/buddy.cpp ****             if(blocks[i] != bstatus::SUB_ALLOC){
 1293              		.loc 1 211 13 is_stmt 1
 1294              		.loc 1 211 16 is_stmt 0
 1295 08e4 83B70902 		ld	a5,32(s3)
 1296              		.loc 1 211 24
 1297 08e8 13971400 		slli	a4,s1,1
 1298 08ec B387E700 		add	a5,a5,a4
 1299              		.loc 1 211 13
 1300 08f0 03970700 		lh	a4,0(a5)
 1301 08f4 9307E0FF 		li	a5,-2
 1302 08f8 E300F7FE 		beq	a4,a5,.L85
 212:src/kernel/buddy.cpp ****                 kprintString("\t"); print_be(i); kprintString("\n");
 1303              		.loc 1 212 17 is_stmt 1
 1304              		.loc 1 212 29 is_stmt 0
 1305 08fc 17050000 		lla	a0,.LC16
 1305      13050500 
 1306 0904 97000000 		call	_Z12kprintStringPKc
 1306      E7800000 
 1307              	.LVL146:
 1308              		.loc 1 212 37 is_stmt 1
 1309              		.loc 1 212 45 is_stmt 0
 1310 090c 93850400 		mv	a1,s1
 1311 0910 13850900 		mv	a0,s3
 1312 0914 97000000 		call	_ZN5Buddy8print_beEm
 1312      E7800000 
 1313              	.LVL147:
 1314              		.loc 1 212 50 is_stmt 1
 1315              		.loc 1 212 62 is_stmt 0
 1316 091c 17050000 		lla	a0,.LC9
 1316      13050500 
 1317 0924 97000000 		call	_Z12kprintStringPKc
 1317      E7800000 
 1318              	.LVL148:
 1319 092c 6FF0DFFA 		j	.L85
 1320              	.LVL149:
 1321              	.L84:
 1322              	.LBE40:
 1323              	.LBE39:
 213:src/kernel/buddy.cpp ****             }
 214:src/kernel/buddy.cpp ****         }
 215:src/kernel/buddy.cpp ****     }
 216:src/kernel/buddy.cpp ****     kprintString("\t----END MEMORY META----\n");
 1324              		.loc 1 216 5 is_stmt 1
 1325              		.loc 1 216 17 is_stmt 0
 1326 0930 17050000 		lla	a0,.LC19
 1326      13050500 
 1327 0938 97000000 		call	_Z12kprintStringPKc
 1327      E7800000 
 1328              	.LVL150:
GAS LISTING /tmp/ccEzYfxF.s 			page 33


 217:src/kernel/buddy.cpp **** 
 218:src/kernel/buddy.cpp ****     kprintString("-------END BUDDY STATUS-------\n");
 1329              		.loc 1 218 5 is_stmt 1
 1330              		.loc 1 218 17 is_stmt 0
 1331 0940 17050000 		lla	a0,.LC20
 1331      13050500 
 1332 0948 97000000 		call	_Z12kprintStringPKc
 1332      E7800000 
 1333              	.LVL151:
 1334              	.L76:
 219:src/kernel/buddy.cpp **** 
 220:src/kernel/buddy.cpp **** }
 1335              		.loc 1 220 1
 1336 0950 83308102 		ld	ra,40(sp)
 1337              		.cfi_restore 1
 1338 0954 03340102 		ld	s0,32(sp)
 1339              		.cfi_restore 8
 1340              		.cfi_def_cfa 2, 48
 1341 0958 83348101 		ld	s1,24(sp)
 1342              		.cfi_restore 9
 1343 095c 03390101 		ld	s2,16(sp)
 1344              		.cfi_restore 18
 1345 0960 83398100 		ld	s3,8(sp)
 1346              		.cfi_restore 19
 1347 0964 033A0100 		ld	s4,0(sp)
 1348              		.cfi_restore 20
 1349 0968 13010103 		addi	sp,sp,48
 1350              		.cfi_def_cfa_offset 0
 1351 096c 67800000 		jr	ra
 1352              		.cfi_endproc
 1353              	.LFE110:
 1355              		.align	2
 1356              		.globl	_ZN5Buddy9mem_allocEm
 1358              	_ZN5Buddy9mem_allocEm:
 1359              	.LFB111:
 221:src/kernel/buddy.cpp **** 
 222:src/kernel/buddy.cpp **** void* Buddy::mem_alloc(size_t sz){
 1360              		.loc 1 222 34 is_stmt 1
 1361              		.cfi_startproc
 1362              	.LVL152:
 1363 0970 130101FC 		addi	sp,sp,-64
 1364              		.cfi_def_cfa_offset 64
 1365 0974 233C1102 		sd	ra,56(sp)
 1366 0978 23388102 		sd	s0,48(sp)
 1367 097c 23349102 		sd	s1,40(sp)
 1368 0980 23302103 		sd	s2,32(sp)
 1369 0984 233C3101 		sd	s3,24(sp)
 1370 0988 23384101 		sd	s4,16(sp)
 1371 098c 23345101 		sd	s5,8(sp)
 1372 0990 23306101 		sd	s6,0(sp)
 1373              		.cfi_offset 1, -8
 1374              		.cfi_offset 8, -16
 1375              		.cfi_offset 9, -24
 1376              		.cfi_offset 18, -32
 1377              		.cfi_offset 19, -40
 1378              		.cfi_offset 20, -48
 1379              		.cfi_offset 21, -56
GAS LISTING /tmp/ccEzYfxF.s 			page 34


 1380              		.cfi_offset 22, -64
 1381 0994 13040104 		addi	s0,sp,64
 1382              		.cfi_def_cfa 8, 0
 1383 0998 13090500 		mv	s2,a0
 1384 099c 93840500 		mv	s1,a1
 223:src/kernel/buddy.cpp ****     /* check if sz is pow of 2 */
 224:src/kernel/buddy.cpp ****     if(!osb(sz)) return nullptr;
 1385              		.loc 1 224 5
 1386              		.loc 1 224 12 is_stmt 0
 1387 09a0 13850500 		mv	a0,a1
 1388              	.LVL153:
 1389 09a4 97000000 		call	_Z3osbm
 1389      E7800000 
 1390              	.LVL154:
 1391              		.loc 1 224 5
 1392 09ac 630A0510 		beq	a0,zero,.L96
 225:src/kernel/buddy.cpp ****     if(sz > size) return nullptr;
 1393              		.loc 1 225 5 is_stmt 1
 1394              		.loc 1 225 13 is_stmt 0
 1395 09b0 83378900 		ld	a5,8(s2)
 1396              		.loc 1 225 5
 1397 09b4 63EA9710 		bltu	a5,s1,.L97
 226:src/kernel/buddy.cpp ****     /* get level of the size */
 227:src/kernel/buddy.cpp ****     uchar level = log2(sz);
 1398              		.loc 1 227 5 is_stmt 1
 1399              		.loc 1 227 23 is_stmt 0
 1400 09b8 13850400 		mv	a0,s1
 1401 09bc 97000000 		call	_Z4log2m
 1401      E7800000 
 1402              	.LVL155:
 1403 09c4 130B0500 		mv	s6,a0
 1404              	.LVL156:
 228:src/kernel/buddy.cpp ****     uchar i = level;
 1405              		.loc 1 228 5 is_stmt 1
 1406              		.loc 1 228 11 is_stmt 0
 1407 09c8 93040500 		mv	s1,a0
 1408              	.LVL157:
 1409              	.L93:
 229:src/kernel/buddy.cpp ****     mmeta_t* chunk;
 1410              		.loc 1 229 5 is_stmt 1 discriminator 1
 230:src/kernel/buddy.cpp ****     /* iterate through levels until we find not-empty list */
 231:src/kernel/buddy.cpp ****     for(; i < lhp_size; i++)
 1411              		.loc 1 231 5 discriminator 1
 1412              		.loc 1 231 15 is_stmt 0 discriminator 1
 1413 09cc 03478901 		lbu	a4,24(s2)
 1414              		.loc 1 231 13 discriminator 1
 1415 09d0 63F2E402 		bleu	a4,s1,.L92
 232:src/kernel/buddy.cpp ****         if(lhp[i]) break;
 1416              		.loc 1 232 9 is_stmt 1
 1417              		.loc 1 232 12 is_stmt 0
 1418 09d4 83370901 		ld	a5,16(s2)
 1419              		.loc 1 232 17
 1420 09d8 93963400 		slli	a3,s1,3
 1421 09dc B387D700 		add	a5,a5,a3
 1422 09e0 83B70700 		ld	a5,0(a5)
 1423              		.loc 1 232 9
 1424 09e4 63980700 		bne	a5,zero,.L92
GAS LISTING /tmp/ccEzYfxF.s 			page 35


 231:src/kernel/buddy.cpp ****         if(lhp[i]) break;
 1425              		.loc 1 231 5
 1426 09e8 9B841400 		addiw	s1,s1,1
 1427              	.LVL158:
 1428 09ec 93F4F40F 		andi	s1,s1,0xff
 1429              	.LVL159:
 1430 09f0 6FF0DFFD 		j	.L93
 1431              	.L92:
 233:src/kernel/buddy.cpp ****     
 234:src/kernel/buddy.cpp ****     if(i == lhp_size) return nullptr;
 1432              		.loc 1 234 5 is_stmt 1
 1433 09f4 630E970C 		beq	a4,s1,.L98
 235:src/kernel/buddy.cpp ****     /* get chunk from list */
 236:src/kernel/buddy.cpp ****     chunk = get_from_list(i);
 1434              		.loc 1 236 5
 1435              		.loc 1 236 26 is_stmt 0
 1436 09f8 93850400 		mv	a1,s1
 1437 09fc 13050900 		mv	a0,s2
 1438              	.LVL160:
 1439 0a00 97000000 		call	_ZN5Buddy13get_from_listEh
 1439      E7800000 
 1440              	.LVL161:
 1441 0a08 130A0500 		mv	s4,a0
 1442              	.LVL162:
 1443              	.L95:
 237:src/kernel/buddy.cpp ****     /* split chunk until we get to given level */
 238:src/kernel/buddy.cpp ****     for(;i > level; i--){
 1444              		.loc 1 238 5 is_stmt 1 discriminator 2
 1445              	.LBB41:
 1446              		.loc 1 238 12 is_stmt 0 discriminator 2
 1447 0a0c 63749B06 		bleu	s1,s6,.L94
 1448              	.LBB42:
 239:src/kernel/buddy.cpp ****         mmeta_t* t = split(chunk);
 1449              		.loc 1 239 9 is_stmt 1 discriminator 1
 1450              		.loc 1 239 27 is_stmt 0 discriminator 1
 1451 0a10 93050A00 		mv	a1,s4
 1452 0a14 13050900 		mv	a0,s2
 1453 0a18 97000000 		call	_ZN5Buddy5splitEP7mmeta_t
 1453      E7800000 
 1454              	.LVL163:
 1455 0a20 930A0500 		mv	s5,a0
 1456              	.LVL164:
 240:src/kernel/buddy.cpp ****         /* set is_free of the second half */
 241:src/kernel/buddy.cpp ****         blocks[get_block_num(t)] = FREE;
 1457              		.loc 1 241 9 is_stmt 1 discriminator 1
 1458 0a24 83390902 		ld	s3,32(s2)
 1459              		.loc 1 241 29 is_stmt 0 discriminator 1
 1460 0a28 93050500 		mv	a1,a0
 1461 0a2c 13050900 		mv	a0,s2
 1462              	.LVL165:
 1463 0a30 97000000 		call	_ZN5Buddy13get_block_numEP7mmeta_t
 1463      E7800000 
 1464              	.LVL166:
 1465              		.loc 1 241 32 discriminator 1
 1466 0a38 13151500 		slli	a0,a0,1
 1467 0a3c B389A900 		add	s3,s3,a0
 1468              		.loc 1 241 34 discriminator 1
GAS LISTING /tmp/ccEzYfxF.s 			page 36


 1469 0a40 9307F0FF 		li	a5,-1
 1470 0a44 2390F900 		sh	a5,0(s3)
 242:src/kernel/buddy.cpp ****         add_to_list(i-1, t);
 1471              		.loc 1 242 9 is_stmt 1 discriminator 1
 1472              		.loc 1 242 20 is_stmt 0 discriminator 1
 1473 0a48 9B84F4FF 		addiw	s1,s1,-1
 1474              	.LVL167:
 1475 0a4c 93F4F40F 		andi	s1,s1,0xff
 1476 0a50 13860A00 		mv	a2,s5
 1477 0a54 93850400 		mv	a1,s1
 1478 0a58 13050900 		mv	a0,s2
 1479 0a5c 97000000 		call	_ZN5Buddy11add_to_listEhP7mmeta_t
 1479      E7800000 
 1480              	.LVL168:
 243:src/kernel/buddy.cpp ****         chunk->level--;
 1481              		.loc 1 243 9 is_stmt 1 discriminator 1
 1482              		.loc 1 243 16 is_stmt 0 discriminator 1
 1483 0a64 83470A01 		lbu	a5,16(s4)
 1484              		.loc 1 243 21 discriminator 1
 1485 0a68 9B87F7FF 		addiw	a5,a5,-1
 1486 0a6c 2308FA00 		sb	a5,16(s4)
 1487              	.LVL169:
 1488              	.LBE42:
 238:src/kernel/buddy.cpp ****         mmeta_t* t = split(chunk);
 1489              		.loc 1 238 5 discriminator 1
 1490 0a70 6FF0DFF9 		j	.L95
 1491              	.LVL170:
 1492              	.L94:
 1493              	.LBE41:
 244:src/kernel/buddy.cpp ****     }
 245:src/kernel/buddy.cpp ****     /* set allocate curr chunk */
 246:src/kernel/buddy.cpp ****     blocks[get_block_num(chunk)] = (bstatus)level;
 1494              		.loc 1 246 5 is_stmt 1
 1495 0a74 83340902 		ld	s1,32(s2)
 1496              	.LVL171:
 1497              		.loc 1 246 25 is_stmt 0
 1498 0a78 93050A00 		mv	a1,s4
 1499 0a7c 13050900 		mv	a0,s2
 1500 0a80 97000000 		call	_ZN5Buddy13get_block_numEP7mmeta_t
 1500      E7800000 
 1501              	.LVL172:
 1502              		.loc 1 246 32
 1503 0a88 13151500 		slli	a0,a0,1
 1504 0a8c B384A400 		add	s1,s1,a0
 1505              		.loc 1 246 34
 1506 0a90 23906401 		sh	s6,0(s1)
 247:src/kernel/buddy.cpp ****     return chunk;
 1507              		.loc 1 247 5 is_stmt 1
 1508              	.LVL173:
 1509              	.L90:
 248:src/kernel/buddy.cpp **** }
 1510              		.loc 1 248 1 is_stmt 0
 1511 0a94 13050A00 		mv	a0,s4
 1512 0a98 83308103 		ld	ra,56(sp)
 1513              		.cfi_remember_state
 1514              		.cfi_restore 1
 1515 0a9c 03340103 		ld	s0,48(sp)
GAS LISTING /tmp/ccEzYfxF.s 			page 37


 1516              		.cfi_restore 8
 1517              		.cfi_def_cfa 2, 64
 1518 0aa0 83348102 		ld	s1,40(sp)
 1519              		.cfi_restore 9
 1520 0aa4 03390102 		ld	s2,32(sp)
 1521              		.cfi_restore 18
 1522              	.LVL174:
 1523 0aa8 83398101 		ld	s3,24(sp)
 1524              		.cfi_restore 19
 1525 0aac 033A0101 		ld	s4,16(sp)
 1526              		.cfi_restore 20
 1527 0ab0 833A8100 		ld	s5,8(sp)
 1528              		.cfi_restore 21
 1529 0ab4 033B0100 		ld	s6,0(sp)
 1530              		.cfi_restore 22
 1531 0ab8 13010104 		addi	sp,sp,64
 1532              		.cfi_def_cfa_offset 0
 1533 0abc 67800000 		jr	ra
 1534              	.LVL175:
 1535              	.L96:
 1536              		.cfi_restore_state
 224:src/kernel/buddy.cpp ****     if(sz > size) return nullptr;
 1537              		.loc 1 224 25
 1538 0ac0 130A0000 		li	s4,0
 1539 0ac4 6FF01FFD 		j	.L90
 1540              	.L97:
 225:src/kernel/buddy.cpp ****     /* get level of the size */
 1541              		.loc 1 225 26
 1542 0ac8 130A0000 		li	s4,0
 1543 0acc 6FF09FFC 		j	.L90
 1544              	.LVL176:
 1545              	.L98:
 234:src/kernel/buddy.cpp ****     /* get chunk from list */
 1546              		.loc 1 234 30
 1547 0ad0 130A0000 		li	s4,0
 1548 0ad4 6FF01FFC 		j	.L90
 1549              		.cfi_endproc
 1550              	.LFE111:
 1552              		.section	.text._Z4swapImEvRT_S1_,"axG",@progbits,_Z4swapImEvRT_S1_,comdat
 1553              		.align	2
 1554              		.weak	_Z4swapImEvRT_S1_
 1556              	_Z4swapImEvRT_S1_:
 1557              	.LFB114:
 1558              		.file 4 "src/kernel/../../h/../h/kernel_funs.h"
   1:src/kernel/../../h/../h/kernel_funs.h **** #ifndef ___kernel_funs___
   2:src/kernel/../../h/../h/kernel_funs.h **** #define ___kernel_funs___
   3:src/kernel/../../h/../h/kernel_funs.h **** 
   4:src/kernel/../../h/../h/kernel_funs.h **** #include"../lib/hw.h"
   5:src/kernel/../../h/../h/kernel_funs.h **** 
   6:src/kernel/../../h/../h/kernel_funs.h **** /* interrupt vector function that handles interruptions */
   7:src/kernel/../../h/../h/kernel_funs.h **** extern "C" void interruptvec(); 
   8:src/kernel/../../h/../h/kernel_funs.h **** 
   9:src/kernel/../../h/../h/kernel_funs.h **** /* user process that starts after initalizing kernel */
  10:src/kernel/../../h/../h/kernel_funs.h **** extern void userMain(); 
  11:src/kernel/../../h/../h/kernel_funs.h **** 
  12:src/kernel/../../h/../h/kernel_funs.h **** /* kernel wrapper function for starting userMain */
  13:src/kernel/../../h/../h/kernel_funs.h **** void userMainWrapper(void*); 
GAS LISTING /tmp/ccEzYfxF.s 			page 38


  14:src/kernel/../../h/../h/kernel_funs.h **** 
  15:src/kernel/../../h/../h/kernel_funs.h **** /* idle function in user mode that loops when scheduler is empty */
  16:src/kernel/../../h/../h/kernel_funs.h **** void idleFunction(void*); 
  17:src/kernel/../../h/../h/kernel_funs.h **** 
  18:src/kernel/../../h/../h/kernel_funs.h **** /* kernel memory alloc */
  19:src/kernel/../../h/../h/kernel_funs.h **** void* kmalloc(size_t size); 
  20:src/kernel/../../h/../h/kernel_funs.h **** 
  21:src/kernel/../../h/../h/kernel_funs.h **** /* kernel print string (UNFORMATED) (PRINTING WITHOUT NEWLINE) */
  22:src/kernel/../../h/../h/kernel_funs.h **** void kprintString(const char*); 
  23:src/kernel/../../h/../h/kernel_funs.h ****  
  24:src/kernel/../../h/../h/kernel_funs.h **** /* kernel print integer (base is number base, exapmle: base = 16 <=> hex) */
  25:src/kernel/../../h/../h/kernel_funs.h **** void kprintInt(uint64 num, int base = 10, bool sig=false); 
  26:src/kernel/../../h/../h/kernel_funs.h **** 
  27:src/kernel/../../h/../h/kernel_funs.h **** /* function to initalize whole kernel (it prints necessary information) - v1 (OS1)*/
  28:src/kernel/../../h/../h/kernel_funs.h **** int kernelInit(); 
  29:src/kernel/../../h/../h/kernel_funs.h **** 
  30:src/kernel/../../h/../h/kernel_funs.h **** /* function to initalize whole kernel (it prints necessary information) - v2 (OS2)*/
  31:src/kernel/../../h/../h/kernel_funs.h **** int newKernelInit();
  32:src/kernel/../../h/../h/kernel_funs.h **** 
  33:src/kernel/../../h/../h/kernel_funs.h **** /* closest greater number = n*4096 */
  34:src/kernel/../../h/../h/kernel_funs.h **** uint64 align4kb(uint64);
  35:src/kernel/../../h/../h/kernel_funs.h **** 
  36:src/kernel/../../h/../h/kernel_funs.h **** /* closest greater number that is 2^n */
  37:src/kernel/../../h/../h/kernel_funs.h **** uint64 closest2pow(uint64);
  38:src/kernel/../../h/../h/kernel_funs.h **** 
  39:src/kernel/../../h/../h/kernel_funs.h **** /* first set bit position */
  40:src/kernel/../../h/../h/kernel_funs.h **** char log2(uint64);
  41:src/kernel/../../h/../h/kernel_funs.h **** 
  42:src/kernel/../../h/../h/kernel_funs.h **** /* one or less set bits */
  43:src/kernel/../../h/../h/kernel_funs.h **** bool osb(uint64);
  44:src/kernel/../../h/../h/kernel_funs.h **** 
  45:src/kernel/../../h/../h/kernel_funs.h **** /* classic swap */
  46:src/kernel/../../h/../h/kernel_funs.h **** template<typename T>
  47:src/kernel/../../h/../h/kernel_funs.h **** void swap(T& a, T& b){
 1559              		.loc 4 47 6 is_stmt 1
 1560              		.cfi_startproc
 1561              	.LVL177:
 1562 0000 130101FF 		addi	sp,sp,-16
 1563              		.cfi_def_cfa_offset 16
 1564 0004 23348100 		sd	s0,8(sp)
 1565              		.cfi_offset 8, -8
 1566 0008 13040101 		addi	s0,sp,16
 1567              		.cfi_def_cfa 8, 0
  48:src/kernel/../../h/../h/kernel_funs.h ****     T x = a;
 1568              		.loc 4 48 7 is_stmt 0
 1569 000c 83370500 		ld	a5,0(a0)
 1570              	.LVL178:
  49:src/kernel/../../h/../h/kernel_funs.h ****     a = b;
 1571              		.loc 4 49 5
 1572 0010 03B70500 		ld	a4,0(a1)
 1573 0014 2330E500 		sd	a4,0(a0)
  50:src/kernel/../../h/../h/kernel_funs.h ****     b = x;
 1574              		.loc 4 50 5
 1575 0018 23B0F500 		sd	a5,0(a1)
  51:src/kernel/../../h/../h/kernel_funs.h **** }
 1576              		.loc 4 51 1
 1577 001c 03348100 		ld	s0,8(sp)
GAS LISTING /tmp/ccEzYfxF.s 			page 39


 1578              		.cfi_restore 8
 1579              		.cfi_def_cfa 2, 16
 1580 0020 13010101 		addi	sp,sp,16
 1581              		.cfi_def_cfa_offset 0
 1582 0024 67800000 		jr	ra
 1583              		.cfi_endproc
 1584              	.LFE114:
 1586              		.section	.text._Z4swapIP7mmeta_tEvRT_S3_,"axG",@progbits,_Z4swapIP7mmeta_tEvRT_S3_,comdat
 1587              		.align	2
 1588              		.weak	_Z4swapIP7mmeta_tEvRT_S3_
 1590              	_Z4swapIP7mmeta_tEvRT_S3_:
 1591              	.LFB115:
  47:src/kernel/../../h/../h/kernel_funs.h ****     T x = a;
 1592              		.loc 4 47 6 is_stmt 1
 1593              		.cfi_startproc
 1594              	.LVL179:
 1595 0000 130101FF 		addi	sp,sp,-16
 1596              		.cfi_def_cfa_offset 16
 1597 0004 23348100 		sd	s0,8(sp)
 1598              		.cfi_offset 8, -8
 1599 0008 13040101 		addi	s0,sp,16
 1600              		.cfi_def_cfa 8, 0
  48:src/kernel/../../h/../h/kernel_funs.h ****     a = b;
 1601              		.loc 4 48 7 is_stmt 0
 1602 000c 83370500 		ld	a5,0(a0)
 1603              	.LVL180:
  49:src/kernel/../../h/../h/kernel_funs.h ****     b = x;
 1604              		.loc 4 49 5
 1605 0010 03B70500 		ld	a4,0(a1)
 1606 0014 2330E500 		sd	a4,0(a0)
  50:src/kernel/../../h/../h/kernel_funs.h **** }
 1607              		.loc 4 50 5
 1608 0018 23B0F500 		sd	a5,0(a1)
 1609              		.loc 4 51 1
 1610 001c 03348100 		ld	s0,8(sp)
 1611              		.cfi_restore 8
 1612              		.cfi_def_cfa 2, 16
 1613 0020 13010101 		addi	sp,sp,16
 1614              		.cfi_def_cfa_offset 0
 1615 0024 67800000 		jr	ra
 1616              		.cfi_endproc
 1617              	.LFE115:
 1619              		.text
 1620              		.align	2
 1621              		.globl	_ZN5Buddy8merge_ipEP7mmeta_t
 1623              	_ZN5Buddy8merge_ipEP7mmeta_t:
 1624              	.LFB113:
 249:src/kernel/buddy.cpp **** 
 250:src/kernel/buddy.cpp **** 
 251:src/kernel/buddy.cpp **** int Buddy::mem_free(void* addr){
 252:src/kernel/buddy.cpp ****     /* check validity of address given */
 253:src/kernel/buddy.cpp ****     if(( (uint64)addr & (BLOCK_SIZE - 1) )
 254:src/kernel/buddy.cpp ****     || addr < start_address) return -1;
 255:src/kernel/buddy.cpp ****     /* check if block is free */
 256:src/kernel/buddy.cpp ****     size_t bn = get_block_num((mmeta_t*)addr);
 257:src/kernel/buddy.cpp ****     /* check bn */
 258:src/kernel/buddy.cpp ****     if(bn >= size) return -3;
GAS LISTING /tmp/ccEzYfxF.s 			page 40


 259:src/kernel/buddy.cpp ****     /* status of block must be ALLOC */
 260:src/kernel/buddy.cpp ****     if(blocks[bn] < 0) return -2;
 261:src/kernel/buddy.cpp ****     /*let the merging begin */ 
 262:src/kernel/buddy.cpp ****     mmeta_t* chunk = (mmeta_t*)addr;
 263:src/kernel/buddy.cpp ****     chunk->level = blocks[bn];
 264:src/kernel/buddy.cpp ****     chunk->prev = chunk->next = nullptr;
 265:src/kernel/buddy.cpp ****     blocks[bn] = bstatus::FREE;
 266:src/kernel/buddy.cpp ****     while(chunk->level <= lhp_size){
 267:src/kernel/buddy.cpp ****         mmeta_t* maddr = merge_ip(chunk);
 268:src/kernel/buddy.cpp ****         if(maddr)
 269:src/kernel/buddy.cpp ****             chunk = maddr;
 270:src/kernel/buddy.cpp ****         else
 271:src/kernel/buddy.cpp ****             break;
 272:src/kernel/buddy.cpp ****     }
 273:src/kernel/buddy.cpp ****     add_to_list(chunk->level, chunk);
 274:src/kernel/buddy.cpp ****     return 0;
 275:src/kernel/buddy.cpp **** }
 276:src/kernel/buddy.cpp **** 
 277:src/kernel/buddy.cpp **** mmeta_t* Buddy::merge_ip(mmeta_t* chunk){
 1625              		.loc 1 277 41 is_stmt 1
 1626              		.cfi_startproc
 1627              	.LVL181:
 1628 0ad8 130101FB 		addi	sp,sp,-80
 1629              		.cfi_def_cfa_offset 80
 1630 0adc 23341104 		sd	ra,72(sp)
 1631 0ae0 23308104 		sd	s0,64(sp)
 1632 0ae4 233C9102 		sd	s1,56(sp)
 1633 0ae8 23382103 		sd	s2,48(sp)
 1634              		.cfi_offset 1, -8
 1635              		.cfi_offset 8, -16
 1636              		.cfi_offset 9, -24
 1637              		.cfi_offset 18, -32
 1638 0aec 13040105 		addi	s0,sp,80
 1639              		.cfi_def_cfa 8, 0
 1640 0af0 93040500 		mv	s1,a0
 1641 0af4 233CB4FA 		sd	a1,-72(s0)
 278:src/kernel/buddy.cpp ****     size_t bn = get_block_num(chunk);
 1642              		.loc 1 278 5
 1643              		.loc 1 278 30 is_stmt 0
 1644 0af8 13890500 		mv	s2,a1
 1645 0afc 97000000 		call	_ZN5Buddy13get_block_numEP7mmeta_t
 1645      E7800000 
 1646              	.LVL182:
 1647              		.loc 1 278 36
 1648 0b04 233CA4FC 		sd	a0,-40(s0)
 279:src/kernel/buddy.cpp ****     size_t budd_bn;
 1649              		.loc 1 279 5 is_stmt 1
 280:src/kernel/buddy.cpp ****     /* get buddy number */
 281:src/kernel/buddy.cpp ****     budd_bn = bn ^ (1ULL << chunk->level);
 1650              		.loc 1 281 5
 1651              		.loc 1 281 36 is_stmt 0
 1652 0b08 03470901 		lbu	a4,16(s2)
 1653              		.loc 1 281 26
 1654 0b0c 13061000 		li	a2,1
 1655 0b10 3316E600 		sll	a2,a2,a4
 1656              		.loc 1 281 18
 1657 0b14 3345C500 		xor	a0,a0,a2
GAS LISTING /tmp/ccEzYfxF.s 			page 41


 1658              		.loc 1 281 13
 1659 0b18 2338A4FC 		sd	a0,-48(s0)
 282:src/kernel/buddy.cpp **** 
 283:src/kernel/buddy.cpp ****     if(blocks[budd_bn]!=FREE) return nullptr;
 1660              		.loc 1 283 5 is_stmt 1
 1661              		.loc 1 283 8 is_stmt 0
 1662 0b1c 83B70402 		ld	a5,32(s1)
 1663              		.loc 1 283 22
 1664 0b20 93161500 		slli	a3,a0,1
 1665 0b24 B387D700 		add	a5,a5,a3
 1666              		.loc 1 283 5
 1667 0b28 83960700 		lh	a3,0(a5)
 1668 0b2c 9307F0FF 		li	a5,-1
 1669 0b30 639EF60A 		bne	a3,a5,.L107
 284:src/kernel/buddy.cpp ****     /* get buddy address */
 285:src/kernel/buddy.cpp ****     mmeta_t* budd_addr = (mmeta_t*)((budd_bn << BLOCK_SIZE_BIT_LEN) + (size_t)start_address);
 1670              		.loc 1 285 5 is_stmt 1
 1671              		.loc 1 285 46 is_stmt 0
 1672 0b34 17060000 		lbu	a2,_ZN5Buddy18BLOCK_SIZE_BIT_LENE
 1672      03460600 
 1673 0b3c 3315C500 		sll	a0,a0,a2
 1674              		.loc 1 285 79
 1675 0b40 03B60400 		ld	a2,0(s1)
 1676              		.loc 1 285 69
 1677 0b44 3306A600 		add	a2,a2,a0
 1678              		.loc 1 285 14
 1679 0b48 2334C4FC 		sd	a2,-56(s0)
 286:src/kernel/buddy.cpp ****     if(budd_addr->level != chunk->level) return nullptr;
 1680              		.loc 1 286 5 is_stmt 1
 1681              		.loc 1 286 19 is_stmt 0
 1682 0b4c 83450601 		lbu	a1,16(a2)
 1683              		.loc 1 286 5
 1684 0b50 6312B70A 		bne	a4,a1,.L108
 287:src/kernel/buddy.cpp ****    
 288:src/kernel/buddy.cpp ****     /* remove buddy from list */
 289:src/kernel/buddy.cpp ****     int code = remove_from_list(budd_addr->level, budd_addr);
 1685              		.loc 1 289 5 is_stmt 1
 1686              		.loc 1 289 32 is_stmt 0
 1687 0b54 13850400 		mv	a0,s1
 1688 0b58 97000000 		call	_ZN5Buddy16remove_from_listEhP7mmeta_t
 1688      E7800000 
 1689              	.LVL183:
 290:src/kernel/buddy.cpp ****     
 291:src/kernel/buddy.cpp ****     if(code < 0) return nullptr;
 1690              		.loc 1 291 5 is_stmt 1
 1691 0b60 634E0508 		blt	a0,zero,.L109
 292:src/kernel/buddy.cpp **** 
 293:src/kernel/buddy.cpp ****     if(budd_bn < bn){
 1692              		.loc 1 293 5
 1693              		.loc 1 293 16 is_stmt 0
 1694 0b64 033704FD 		ld	a4,-48(s0)
 1695 0b68 833784FD 		ld	a5,-40(s0)
 1696              		.loc 1 293 5
 1697 0b6c 636EF704 		bltu	a4,a5,.L111
 1698              	.LVL184:
 1699              	.L106:
 294:src/kernel/buddy.cpp ****         swap(bn, budd_bn);
GAS LISTING /tmp/ccEzYfxF.s 			page 42


 295:src/kernel/buddy.cpp ****         swap(chunk, budd_addr);
 296:src/kernel/buddy.cpp ****     }
 297:src/kernel/buddy.cpp ****     blocks[budd_bn] = SUB_ALLOC;
 1700              		.loc 1 297 5 is_stmt 1
 1701 0b70 83B70402 		ld	a5,32(s1)
 1702              		.loc 1 297 19 is_stmt 0
 1703 0b74 033704FD 		ld	a4,-48(s0)
 1704 0b78 13171700 		slli	a4,a4,1
 1705 0b7c B387E700 		add	a5,a5,a4
 1706              		.loc 1 297 21
 1707 0b80 1307E0FF 		li	a4,-2
 1708 0b84 2390E700 		sh	a4,0(a5)
 298:src/kernel/buddy.cpp ****     blocks[bn] = FREE;
 1709              		.loc 1 298 5 is_stmt 1
 1710 0b88 83B70402 		ld	a5,32(s1)
 1711              		.loc 1 298 14 is_stmt 0
 1712 0b8c 033784FD 		ld	a4,-40(s0)
 1713 0b90 13171700 		slli	a4,a4,1
 1714 0b94 B387E700 		add	a5,a5,a4
 1715              		.loc 1 298 16
 1716 0b98 1307F0FF 		li	a4,-1
 1717 0b9c 2390E700 		sh	a4,0(a5)
 299:src/kernel/buddy.cpp ****     chunk->level = chunk->level + 1;
 1718              		.loc 1 299 5 is_stmt 1
 1719              		.loc 1 299 27 is_stmt 0
 1720 0ba0 033584FB 		ld	a0,-72(s0)
 1721 0ba4 83470501 		lbu	a5,16(a0)
 1722              		.loc 1 299 33
 1723 0ba8 9B871700 		addiw	a5,a5,1
 1724              		.loc 1 299 18
 1725 0bac 2308F500 		sb	a5,16(a0)
 300:src/kernel/buddy.cpp **** 
 301:src/kernel/buddy.cpp ****     return chunk;
 1726              		.loc 1 301 5 is_stmt 1
 1727              	.L104:
 302:src/kernel/buddy.cpp **** }...
 1728              		.loc 1 302 1 is_stmt 0
 1729 0bb0 83308104 		ld	ra,72(sp)
 1730              		.cfi_remember_state
 1731              		.cfi_restore 1
 1732 0bb4 03340104 		ld	s0,64(sp)
 1733              		.cfi_restore 8
 1734              		.cfi_def_cfa 2, 80
 1735 0bb8 83348103 		ld	s1,56(sp)
 1736              		.cfi_restore 9
 1737              	.LVL185:
 1738 0bbc 03390103 		ld	s2,48(sp)
 1739              		.cfi_restore 18
 1740 0bc0 13010105 		addi	sp,sp,80
 1741              		.cfi_def_cfa_offset 0
 1742 0bc4 67800000 		jr	ra
 1743              	.LVL186:
 1744              	.L111:
 1745              		.cfi_restore_state
 294:src/kernel/buddy.cpp ****         swap(bn, budd_bn);
 1746              		.loc 1 294 9 is_stmt 1
 294:src/kernel/buddy.cpp ****         swap(bn, budd_bn);
GAS LISTING /tmp/ccEzYfxF.s 			page 43


 1747              		.loc 1 294 13 is_stmt 0
 1748 0bc8 930504FD 		addi	a1,s0,-48
 1749 0bcc 130584FD 		addi	a0,s0,-40
 1750              	.LVL187:
 1751 0bd0 97000000 		call	_Z4swapImEvRT_S1_
 1751      E7800000 
 1752              	.LVL188:
 295:src/kernel/buddy.cpp ****         swap(chunk, budd_addr);
 1753              		.loc 1 295 9 is_stmt 1
 295:src/kernel/buddy.cpp ****         swap(chunk, budd_addr);
 1754              		.loc 1 295 13 is_stmt 0
 1755 0bd8 930584FC 		addi	a1,s0,-56
 1756 0bdc 130584FB 		addi	a0,s0,-72
 1757 0be0 97000000 		call	_Z4swapIP7mmeta_tEvRT_S3_
 1757      E7800000 
 1758              	.LVL189:
 1759 0be8 6FF09FF8 		j	.L106
 1760              	.L107:
 283:src/kernel/buddy.cpp ****     if(blocks[budd_bn]!=FREE) return nullptr;
 1761              		.loc 1 283 38
 1762 0bec 13050000 		li	a0,0
 1763 0bf0 6FF01FFC 		j	.L104
 1764              	.L108:
 286:src/kernel/buddy.cpp ****     if(budd_addr->level != chunk->level) return nullptr;
 1765              		.loc 1 286 49
 1766 0bf4 13050000 		li	a0,0
 1767 0bf8 6FF09FFB 		j	.L104
 1768              	.LVL190:
 1769              	.L109:
 291:src/kernel/buddy.cpp ****     if(code < 0) return nullptr;
 1770              		.loc 1 291 25
 1771 0bfc 13050000 		li	a0,0
 1772              	.LVL191:
 1773 0c00 6FF01FFB 		j	.L104
 1774              		.cfi_endproc
 1775              	.LFE113:
 1777              		.align	2
 1778              		.globl	_ZN5Buddy8mem_freeEPv
 1780              	_ZN5Buddy8mem_freeEPv:
 1781              	.LFB112:
 251:src/kernel/buddy.cpp **** int Buddy::mem_free(void* addr){
 1782              		.loc 1 251 32 is_stmt 1
 1783              		.cfi_startproc
 1784              	.LVL192:
 253:src/kernel/buddy.cpp ****     if(( (uint64)addr & (BLOCK_SIZE - 1) )
 1785              		.loc 1 253 5
 253:src/kernel/buddy.cpp ****     if(( (uint64)addr & (BLOCK_SIZE - 1) )
 1786              		.loc 1 253 23 is_stmt 0
 1787 0c04 B7170000 		li	a5,4096
 1788 0c08 9387F7FF 		addi	a5,a5,-1
 1789 0c0c B3F7F500 		and	a5,a1,a5
 253:src/kernel/buddy.cpp ****     if(( (uint64)addr & (BLOCK_SIZE - 1) )
 1790              		.loc 1 253 5
 1791 0c10 6392070C 		bne	a5,zero,.L116
 251:src/kernel/buddy.cpp **** int Buddy::mem_free(void* addr){
 1792              		.loc 1 251 32
 1793 0c14 130101FE 		addi	sp,sp,-32
GAS LISTING /tmp/ccEzYfxF.s 			page 44


 1794              		.cfi_def_cfa_offset 32
 1795 0c18 233C1100 		sd	ra,24(sp)
 1796 0c1c 23388100 		sd	s0,16(sp)
 1797 0c20 23349100 		sd	s1,8(sp)
 1798 0c24 23302101 		sd	s2,0(sp)
 1799              		.cfi_offset 1, -8
 1800              		.cfi_offset 8, -16
 1801              		.cfi_offset 9, -24
 1802              		.cfi_offset 18, -32
 1803 0c28 13040102 		addi	s0,sp,32
 1804              		.cfi_def_cfa 8, 0
 1805 0c2c 13090500 		mv	s2,a0
 1806 0c30 93840500 		mv	s1,a1
 254:src/kernel/buddy.cpp ****     || addr < start_address) return -1;
 1807              		.loc 1 254 15
 1808 0c34 83370500 		ld	a5,0(a0)
 254:src/kernel/buddy.cpp ****     || addr < start_address) return -1;
 1809              		.loc 1 254 5
 1810 0c38 63E2F50A 		bgtu	a5,a1,.L117
 256:src/kernel/buddy.cpp ****     size_t bn = get_block_num((mmeta_t*)addr);
 1811              		.loc 1 256 5 is_stmt 1
 256:src/kernel/buddy.cpp ****     size_t bn = get_block_num((mmeta_t*)addr);
 1812              		.loc 1 256 30 is_stmt 0
 1813 0c3c 97000000 		call	_ZN5Buddy13get_block_numEP7mmeta_t
 1813      E7800000 
 1814              	.LVL193:
 258:src/kernel/buddy.cpp ****     if(bn >= size) return -3;
 1815              		.loc 1 258 5 is_stmt 1
 258:src/kernel/buddy.cpp ****     if(bn >= size) return -3;
 1816              		.loc 1 258 14 is_stmt 0
 1817 0c44 83378900 		ld	a5,8(s2)
 258:src/kernel/buddy.cpp ****     if(bn >= size) return -3;
 1818              		.loc 1 258 5
 1819 0c48 637EF508 		bleu	a5,a0,.L118
 260:src/kernel/buddy.cpp ****     if(blocks[bn] < 0) return -2;
 1820              		.loc 1 260 5 is_stmt 1
 260:src/kernel/buddy.cpp ****     if(blocks[bn] < 0) return -2;
 1821              		.loc 1 260 8 is_stmt 0
 1822 0c4c 83370902 		ld	a5,32(s2)
 260:src/kernel/buddy.cpp ****     if(blocks[bn] < 0) return -2;
 1823              		.loc 1 260 17
 1824 0c50 13151500 		slli	a0,a0,1
 1825              	.LVL194:
 1826 0c54 B387A700 		add	a5,a5,a0
 1827 0c58 83970700 		lh	a5,0(a5)
 260:src/kernel/buddy.cpp ****     if(blocks[bn] < 0) return -2;
 1828              		.loc 1 260 5
 1829 0c5c 63C80708 		blt	a5,zero,.L119
 262:src/kernel/buddy.cpp ****     mmeta_t* chunk = (mmeta_t*)addr;
 1830              		.loc 1 262 5 is_stmt 1
 1831              	.LVL195:
 263:src/kernel/buddy.cpp ****     chunk->level = blocks[bn];
 1832              		.loc 1 263 5
 263:src/kernel/buddy.cpp ****     chunk->level = blocks[bn];
 1833              		.loc 1 263 18 is_stmt 0
 1834 0c60 2388F400 		sb	a5,16(s1)
 264:src/kernel/buddy.cpp ****     chunk->prev = chunk->next = nullptr;
GAS LISTING /tmp/ccEzYfxF.s 			page 45


 1835              		.loc 1 264 5 is_stmt 1
 264:src/kernel/buddy.cpp ****     chunk->prev = chunk->next = nullptr;
 1836              		.loc 1 264 31 is_stmt 0
 1837 0c64 23B00400 		sd	zero,0(s1)
 264:src/kernel/buddy.cpp ****     chunk->prev = chunk->next = nullptr;
 1838              		.loc 1 264 17
 1839 0c68 23B40400 		sd	zero,8(s1)
 265:src/kernel/buddy.cpp ****     blocks[bn] = bstatus::FREE;
 1840              		.loc 1 265 5 is_stmt 1
 1841 0c6c 83370902 		ld	a5,32(s2)
 265:src/kernel/buddy.cpp ****     blocks[bn] = bstatus::FREE;
 1842              		.loc 1 265 14 is_stmt 0
 1843 0c70 3385A700 		add	a0,a5,a0
 265:src/kernel/buddy.cpp ****     blocks[bn] = bstatus::FREE;
 1844              		.loc 1 265 16
 1845 0c74 9307F0FF 		li	a5,-1
 1846 0c78 2310F500 		sh	a5,0(a0)
 1847 0c7c 6F008000 		j	.L115
 1848              	.LVL196:
 1849              	.L120:
 1850              	.LBB43:
 269:src/kernel/buddy.cpp ****             chunk = maddr;
 1851              		.loc 1 269 19
 1852 0c80 93040500 		mv	s1,a0
 1853              	.LVL197:
 1854              	.L115:
 1855              	.LBE43:
 266:src/kernel/buddy.cpp ****     while(chunk->level <= lhp_size){
 1856              		.loc 1 266 5 is_stmt 1
 266:src/kernel/buddy.cpp ****     while(chunk->level <= lhp_size){
 1857              		.loc 1 266 18 is_stmt 0
 1858 0c84 03C70401 		lbu	a4,16(s1)
 266:src/kernel/buddy.cpp ****     while(chunk->level <= lhp_size){
 1859              		.loc 1 266 27
 1860 0c88 83478901 		lbu	a5,24(s2)
 266:src/kernel/buddy.cpp ****     while(chunk->level <= lhp_size){
 1861              		.loc 1 266 24
 1862 0c8c 63ECE700 		bgtu	a4,a5,.L114
 1863              	.LBB44:
 267:src/kernel/buddy.cpp ****         mmeta_t* maddr = merge_ip(chunk);
 1864              		.loc 1 267 9 is_stmt 1
 267:src/kernel/buddy.cpp ****         mmeta_t* maddr = merge_ip(chunk);
 1865              		.loc 1 267 34 is_stmt 0
 1866 0c90 93850400 		mv	a1,s1
 1867 0c94 13050900 		mv	a0,s2
 1868 0c98 97000000 		call	_ZN5Buddy8merge_ipEP7mmeta_t
 1868      E7800000 
 1869              	.LVL198:
 268:src/kernel/buddy.cpp ****         if(maddr)
 1870              		.loc 1 268 9 is_stmt 1
 1871 0ca0 E31005FE 		bne	a0,zero,.L120
 1872              	.LVL199:
 1873              	.L114:
 1874              	.LBE44:
 273:src/kernel/buddy.cpp ****     add_to_list(chunk->level, chunk);
 1875              		.loc 1 273 5
 273:src/kernel/buddy.cpp ****     add_to_list(chunk->level, chunk);
GAS LISTING /tmp/ccEzYfxF.s 			page 46


 1876              		.loc 1 273 16 is_stmt 0
 1877 0ca4 13860400 		mv	a2,s1
 1878 0ca8 83C50401 		lbu	a1,16(s1)
 1879 0cac 13050900 		mv	a0,s2
 1880 0cb0 97000000 		call	_ZN5Buddy11add_to_listEhP7mmeta_t
 1880      E7800000 
 1881              	.LVL200:
 274:src/kernel/buddy.cpp ****     return 0;
 1882              		.loc 1 274 5 is_stmt 1
 274:src/kernel/buddy.cpp ****     return 0;
 1883              		.loc 1 274 12 is_stmt 0
 1884 0cb8 13050000 		li	a0,0
 1885              	.LVL201:
 1886              	.L113:
 275:src/kernel/buddy.cpp **** }
 1887              		.loc 1 275 1
 1888 0cbc 83308101 		ld	ra,24(sp)
 1889              		.cfi_restore 1
 1890 0cc0 03340101 		ld	s0,16(sp)
 1891              		.cfi_restore 8
 1892              		.cfi_def_cfa 2, 32
 1893 0cc4 83348100 		ld	s1,8(sp)
 1894              		.cfi_restore 9
 1895 0cc8 03390100 		ld	s2,0(sp)
 1896              		.cfi_restore 18
 1897              	.LVL202:
 1898 0ccc 13010102 		addi	sp,sp,32
 1899              		.cfi_def_cfa_offset 0
 1900 0cd0 67800000 		jr	ra
 1901              	.LVL203:
 1902              	.L116:
 254:src/kernel/buddy.cpp ****     || addr < start_address) return -1;
 1903              		.loc 1 254 38
 1904 0cd4 1305F0FF 		li	a0,-1
 1905              	.LVL204:
 275:src/kernel/buddy.cpp **** }
 1906              		.loc 1 275 1
 1907 0cd8 67800000 		ret
 1908              	.LVL205:
 1909              	.L117:
 1910              		.cfi_def_cfa_register 8
 1911              		.cfi_offset 1, -8
 1912              		.cfi_offset 8, -16
 1913              		.cfi_offset 9, -24
 1914              		.cfi_offset 18, -32
 254:src/kernel/buddy.cpp ****     || addr < start_address) return -1;
 1915              		.loc 1 254 38
 1916 0cdc 1305F0FF 		li	a0,-1
 1917              	.LVL206:
 1918 0ce0 6FF0DFFD 		j	.L113
 1919              	.LVL207:
 1920              	.L118:
 258:src/kernel/buddy.cpp ****     if(bn >= size) return -3;
 1921              		.loc 1 258 28
 1922 0ce4 1305D0FF 		li	a0,-3
 1923              	.LVL208:
 1924 0ce8 6FF05FFD 		j	.L113
GAS LISTING /tmp/ccEzYfxF.s 			page 47


 1925              	.L119:
 260:src/kernel/buddy.cpp ****     if(blocks[bn] < 0) return -2;
 1926              		.loc 1 260 32
 1927 0cec 1305E0FF 		li	a0,-2
 1928 0cf0 6FF0DFFC 		j	.L113
 1929              		.cfi_endproc
 1930              	.LFE112:
 1932              		.globl	_ZN5Buddy18BLOCK_SIZE_BIT_LENE
 1933              		.globl	_ZN5Buddy5buddyE
 1934              		.section	.rodata.str1.8,"aMS",@progbits,1
 1935              		.align	3
 1936              	.LC0:
 1937 0000 626C6F63 		.string	"blocks["
 1937      6B735B00 
 1938              	.LC1:
 1939 0008 5D3A2000 		.string	"]: "
 1940 000c 00000000 		.zero	4
 1941              	.LC2:
 1942 0010 46524545 		.string	"FREE"
 1942      00
 1943 0015 000000   		.zero	3
 1944              	.LC3:
 1945 0018 5355425F 		.string	"SUB_ALLOC"
 1945      414C4C4F 
 1945      4300
 1946 0022 00000000 		.zero	6
 1946      0000
 1947              	.LC4:
 1948 0028 494E5641 		.string	"INVALID"
 1948      4C494400 
 1949              	.LC5:
 1950 0030 414C4C4F 		.string	"ALLOC: 2^"
 1950      433A2032 
 1950      5E00
 1951 003a 00000000 		.zero	6
 1951      0000
 1952              	.LC6:
 1953 0040 69735F66 		.string	"is_free null panic!\n"
 1953      72656520 
 1953      6E756C6C 
 1953      2070616E 
 1953      6963210A 
 1954 0055 000000   		.zero	3
 1955              	.LC7:
 1956 0058 6C687020 		.string	"lhp null panic!\n"
 1956      6E756C6C 
 1956      2070616E 
 1956      6963210A 
 1956      00
 1957 0069 00000000 		.zero	7
 1957      000000
 1958              	.LC8:
 1959 0070 61646474 		.string	"addtolist panic: "
 1959      6F6C6973 
 1959      74207061 
 1959      6E69633A 
 1959      2000
GAS LISTING /tmp/ccEzYfxF.s 			page 48


 1960 0082 00000000 		.zero	6
 1960      0000
 1961              	.LC9:
 1962 0088 0A00     		.string	"\n"
 1963 008a 00000000 		.zero	6
 1963      0000
 1964              	.LC10:
 1965 0090 42554444 		.string	"BUDDY NOT INITALIZED!!!"
 1965      59204E4F 
 1965      5420494E 
 1965      4954414C 
 1965      495A4544 
 1966              	.LC11:
 1967 00a8 2D2D2D2D 		.string	"------BUDDY STATUS PRINT------\n"
 1967      2D2D4255 
 1967      44445920 
 1967      53544154 
 1967      55532050 
 1968              	.LC12:
 1969 00c8 62756464 		.string	"buddy: "
 1969      793A2000 
 1970              	.LC13:
 1971 00d0 73746172 		.string	"start_address: "
 1971      745F6164 
 1971      64726573 
 1971      733A2000 
 1972              	.LC14:
 1973 00e0 73697A65 		.string	"size: "
 1973      3A2000
 1974 00e7 00       		.zero	1
 1975              	.LC15:
 1976 00e8 092D2D2D 		.string	"\t------MEMORY META------\n"
 1976      2D2D2D4D 
 1976      454D4F52 
 1976      59204D45 
 1976      54412D2D 
 1977 0102 00000000 		.zero	6
 1977      0000
 1978              	.LC16:
 1979 0108 0900     		.string	"\t"
 1980 010a 00000000 		.zero	6
 1980      0000
 1981              	.LC17:
 1982 0110 4C455645 		.string	"LEVEL["
 1982      4C5B00
 1983 0117 00       		.zero	1
 1984              	.LC18:
 1985 0118 202D3E20 		.string	" -> "
 1985      00
 1986 011d 000000   		.zero	3
 1987              	.LC19:
 1988 0120 092D2D2D 		.string	"\t----END MEMORY META----\n"
 1988      2D454E44 
 1988      204D454D 
 1988      4F525920 
 1988      4D455441 
 1989 013a 00000000 		.zero	6
GAS LISTING /tmp/ccEzYfxF.s 			page 49


 1989      0000
 1990              	.LC20:
 1991 0140 2D2D2D2D 		.string	"-------END BUDDY STATUS-------\n"
 1991      2D2D2D45 
 1991      4E442042 
 1991      55444459 
 1991      20535441 
 1992              		.section	.sbss,"aw",@nobits
 1993              		.align	3
 1996              	_ZN5Buddy18BLOCK_SIZE_BIT_LENE:
 1997 0000 00       		.zero	1
 1998 0001 00000000 		.zero	7
 1998      000000
 2001              	_ZN5Buddy5buddyE:
 2002 0008 00000000 		.zero	8
 2002      00000000 
 2003              		.text
 2004              	.Letext0:
 2005              		.file 5 "src/kernel/../../h/../h/../lib/hw.h"
 2006              		.file 6 "src/kernel/../../h/../h/pmt.h"
 2007              		.file 7 "src/kernel/../../h/kernel_lib.h"
GAS LISTING /tmp/ccEzYfxF.s 			page 50

