GAS LISTING /tmp/ccIFPgNv.s 			page 1


   1              		.file	"kernel_test.cpp"
   2              		.option nopic
   3              		.option norelax
   4              		.attribute arch, "rv64i2p0_m2p0_a2p0"
   5              		.attribute unaligned_access, 0
   6              		.attribute stack_align, 16
   7              		.text
   8              	.Ltext0:
   9              		.align	2
  10              		.globl	_Z19buddy_allocate_testmb
  12              	_Z19buddy_allocate_testmb:
  13              	.LFB98:
  14              		.file 1 "src/kernel/kernel_test.cpp"
   1:src/kernel/kernel_test.cpp **** #include"../../h/kernel_lib.h"
   2:src/kernel/kernel_test.cpp **** #include"../../h/kernel_test.h"
   3:src/kernel/kernel_test.cpp **** 
   4:src/kernel/kernel_test.cpp **** void* buddy_allocate_test(size_t s, bool a = false){
  15              		.loc 1 4 52
  16              		.cfi_startproc
  17              	.LVL0:
  18 0000 130101FE 		addi	sp,sp,-32
  19              		.cfi_def_cfa_offset 32
  20 0004 233C1100 		sd	ra,24(sp)
  21 0008 23388100 		sd	s0,16(sp)
  22 000c 23349100 		sd	s1,8(sp)
  23 0010 23302101 		sd	s2,0(sp)
  24              		.cfi_offset 1, -8
  25              		.cfi_offset 8, -16
  26              		.cfi_offset 9, -24
  27              		.cfi_offset 18, -32
  28 0014 13040102 		addi	s0,sp,32
  29              		.cfi_def_cfa 8, 0
  30 0018 93040500 		mv	s1,a0
  31 001c 13890500 		mv	s2,a1
   5:src/kernel/kernel_test.cpp ****     kprintString("Buddy allocate: ");
  32              		.loc 1 5 5
  33              		.loc 1 5 17 is_stmt 0
  34 0020 17050000 		lla	a0,.LC0
  34      13050500 
  35              	.LVL1:
  36 0028 97000000 		call	_Z12kprintStringPKc
  36      E7800000 
  37              	.LVL2:
   6:src/kernel/kernel_test.cpp ****     kprintInt(s);
  38              		.loc 1 6 5 is_stmt 1
  39              		.loc 1 6 14 is_stmt 0
  40 0030 13060000 		li	a2,0
  41 0034 9305A000 		li	a1,10
  42 0038 13850400 		mv	a0,s1
  43 003c 97000000 		call	_Z9kprintIntmib
  43      E7800000 
  44              	.LVL3:
   7:src/kernel/kernel_test.cpp ****     kprintString(" blocks\n");
  45              		.loc 1 7 5 is_stmt 1
  46              		.loc 1 7 17 is_stmt 0
  47 0044 17050000 		lla	a0,.LC1
  47      13050500 
GAS LISTING /tmp/ccIFPgNv.s 			page 2


  48 004c 97000000 		call	_Z12kprintStringPKc
  48      E7800000 
  49              	.LVL4:
   8:src/kernel/kernel_test.cpp ****     void* ret = Buddy::getInstance().mem_alloc(s);
  50              		.loc 1 8 5 is_stmt 1
  51              		.loc 1 8 36 is_stmt 0
  52 0054 97000000 		call	_ZN5Buddy11getInstanceEv
  52      E7800000 
  53              	.LVL5:
  54              		.loc 1 8 47
  55 005c 93850400 		mv	a1,s1
  56 0060 97000000 		call	_ZN5Buddy9mem_allocEm
  56      E7800000 
  57              	.LVL6:
  58 0068 93040500 		mv	s1,a0
  59              	.LVL7:
   9:src/kernel/kernel_test.cpp ****     KVALCHECKPRINT(Returned address, ret);
  60              		.loc 1 9 5 is_stmt 1
  61 006c 17050000 		lla	a0,.LC2
  61      13050500 
  62 0074 97000000 		call	_Z12kprintStringPKc
  62      E7800000 
  63              	.LVL8:
  64              		.loc 1 9 5
  65 007c 13060000 		li	a2,0
  66 0080 93050001 		li	a1,16
  67 0084 13850400 		mv	a0,s1
  68 0088 97000000 		call	_Z9kprintIntmib
  68      E7800000 
  69              	.LVL9:
  70              		.loc 1 9 5
  71 0090 17050000 		lla	a0,.LC3
  71      13050500 
  72 0098 97000000 		call	_Z12kprintStringPKc
  72      E7800000 
  73              	.LVL10:
  10:src/kernel/kernel_test.cpp ****     kprintString("\n");
  74              		.loc 1 10 5
  75              		.loc 1 10 17 is_stmt 0
  76 00a0 17050000 		lla	a0,.LC3
  76      13050500 
  77 00a8 97000000 		call	_Z12kprintStringPKc
  77      E7800000 
  78              	.LVL11:
  11:src/kernel/kernel_test.cpp ****     if(!ret)
  79              		.loc 1 11 5 is_stmt 1
  80 00b0 63820404 		beq	s1,zero,.L5
  81              	.L2:
  12:src/kernel/kernel_test.cpp ****         kprintString("BUDDY ALLOCATE ERROR\n");
  13:src/kernel/kernel_test.cpp ****     kprintString("\n");
  82              		.loc 1 13 5
  83              		.loc 1 13 17 is_stmt 0
  84 00b4 17050000 		lla	a0,.LC3
  84      13050500 
  85 00bc 97000000 		call	_Z12kprintStringPKc
  85      E7800000 
  86              	.LVL12:
GAS LISTING /tmp/ccIFPgNv.s 			page 3


  14:src/kernel/kernel_test.cpp ****     
  15:src/kernel/kernel_test.cpp ****     if(a) Buddy::getInstance().status_print();
  87              		.loc 1 15 5 is_stmt 1
  88 00c4 63120904 		bne	s2,zero,.L6
  89              	.L3:
  16:src/kernel/kernel_test.cpp ****     kprintString("\n");
  90              		.loc 1 16 5
  91              		.loc 1 16 17 is_stmt 0
  92 00c8 17050000 		lla	a0,.LC3
  92      13050500 
  93 00d0 97000000 		call	_Z12kprintStringPKc
  93      E7800000 
  94              	.LVL13:
  17:src/kernel/kernel_test.cpp ****     return ret;
  95              		.loc 1 17 5 is_stmt 1
  18:src/kernel/kernel_test.cpp **** }
  96              		.loc 1 18 1 is_stmt 0
  97 00d8 13850400 		mv	a0,s1
  98 00dc 83308101 		ld	ra,24(sp)
  99              		.cfi_remember_state
 100              		.cfi_restore 1
 101 00e0 03340101 		ld	s0,16(sp)
 102              		.cfi_restore 8
 103              		.cfi_def_cfa 2, 32
 104 00e4 83348100 		ld	s1,8(sp)
 105              		.cfi_restore 9
 106              	.LVL14:
 107 00e8 03390100 		ld	s2,0(sp)
 108              		.cfi_restore 18
 109 00ec 13010102 		addi	sp,sp,32
 110              		.cfi_def_cfa_offset 0
 111 00f0 67800000 		jr	ra
 112              	.LVL15:
 113              	.L5:
 114              		.cfi_restore_state
  12:src/kernel/kernel_test.cpp ****     kprintString("\n");
 115              		.loc 1 12 9 is_stmt 1
  12:src/kernel/kernel_test.cpp ****     kprintString("\n");
 116              		.loc 1 12 21 is_stmt 0
 117 00f4 17050000 		lla	a0,.LC4
 117      13050500 
 118 00fc 97000000 		call	_Z12kprintStringPKc
 118      E7800000 
 119              	.LVL16:
 120 0104 6FF01FFB 		j	.L2
 121              	.L6:
  15:src/kernel/kernel_test.cpp ****     kprintString("\n");
 122              		.loc 1 15 11 is_stmt 1 discriminator 1
  15:src/kernel/kernel_test.cpp ****     kprintString("\n");
 123              		.loc 1 15 30 is_stmt 0 discriminator 1
 124 0108 97000000 		call	_ZN5Buddy11getInstanceEv
 124      E7800000 
 125              	.LVL17:
  15:src/kernel/kernel_test.cpp ****     kprintString("\n");
 126              		.loc 1 15 44 discriminator 1
 127 0110 93051000 		li	a1,1
 128 0114 97000000 		call	_ZN5Buddy12status_printEb
GAS LISTING /tmp/ccIFPgNv.s 			page 4


 128      E7800000 
 129              	.LVL18:
 130 011c 6FF0DFFA 		j	.L3
 131              		.cfi_endproc
 132              	.LFE98:
 134              		.align	2
 135              		.globl	_Z21buddy_deallocate_testPvb
 137              	_Z21buddy_deallocate_testPvb:
 138              	.LFB99:
  19:src/kernel/kernel_test.cpp **** 
  20:src/kernel/kernel_test.cpp **** int buddy_deallocate_test(void* s, bool a = false){
 139              		.loc 1 20 51 is_stmt 1
 140              		.cfi_startproc
 141              	.LVL19:
 142 0120 130101FE 		addi	sp,sp,-32
 143              		.cfi_def_cfa_offset 32
 144 0124 233C1100 		sd	ra,24(sp)
 145 0128 23388100 		sd	s0,16(sp)
 146 012c 23349100 		sd	s1,8(sp)
 147 0130 23302101 		sd	s2,0(sp)
 148              		.cfi_offset 1, -8
 149              		.cfi_offset 8, -16
 150              		.cfi_offset 9, -24
 151              		.cfi_offset 18, -32
 152 0134 13040102 		addi	s0,sp,32
 153              		.cfi_def_cfa 8, 0
 154 0138 93040500 		mv	s1,a0
 155 013c 13890500 		mv	s2,a1
  21:src/kernel/kernel_test.cpp ****     kprintString("Buddy deallocate block on address: ");
 156              		.loc 1 21 5
 157              		.loc 1 21 17 is_stmt 0
 158 0140 17050000 		lla	a0,.LC5
 158      13050500 
 159              	.LVL20:
 160 0148 97000000 		call	_Z12kprintStringPKc
 160      E7800000 
 161              	.LVL21:
  22:src/kernel/kernel_test.cpp ****     kprintInt((uint64)s, 16);
 162              		.loc 1 22 5 is_stmt 1
 163              		.loc 1 22 14 is_stmt 0
 164 0150 13060000 		li	a2,0
 165 0154 93050001 		li	a1,16
 166 0158 13850400 		mv	a0,s1
 167 015c 97000000 		call	_Z9kprintIntmib
 167      E7800000 
 168              	.LVL22:
  23:src/kernel/kernel_test.cpp ****     kprintString("\n");
 169              		.loc 1 23 5 is_stmt 1
 170              		.loc 1 23 17 is_stmt 0
 171 0164 17050000 		lla	a0,.LC3
 171      13050500 
 172 016c 97000000 		call	_Z12kprintStringPKc
 172      E7800000 
 173              	.LVL23:
  24:src/kernel/kernel_test.cpp ****     int ret = Buddy::getInstance().mem_free(s);
 174              		.loc 1 24 5 is_stmt 1
 175              		.loc 1 24 34 is_stmt 0
GAS LISTING /tmp/ccIFPgNv.s 			page 5


 176 0174 97000000 		call	_ZN5Buddy11getInstanceEv
 176      E7800000 
 177              	.LVL24:
 178              		.loc 1 24 44
 179 017c 93850400 		mv	a1,s1
 180 0180 97000000 		call	_ZN5Buddy8mem_freeEPv
 180      E7800000 
 181              	.LVL25:
 182 0188 93040500 		mv	s1,a0
 183              	.LVL26:
  25:src/kernel/kernel_test.cpp ****     if(ret < 0){
 184              		.loc 1 25 5 is_stmt 1
 185 018c 63420504 		blt	a0,zero,.L11
 186              	.LVL27:
 187              	.L8:
  26:src/kernel/kernel_test.cpp ****         kprintString("BUDDY DEALLOCATE ERROR:");
  27:src/kernel/kernel_test.cpp ****         kprintInt((uint64)ret, 10, true);
  28:src/kernel/kernel_test.cpp ****         kprintString("\n");
  29:src/kernel/kernel_test.cpp ****     }
  30:src/kernel/kernel_test.cpp ****     kprintString("\n");
 188              		.loc 1 30 5
 189              		.loc 1 30 17 is_stmt 0
 190 0190 17050000 		lla	a0,.LC3
 190      13050500 
 191 0198 97000000 		call	_Z12kprintStringPKc
 191      E7800000 
 192              	.LVL28:
  31:src/kernel/kernel_test.cpp ****     if(a) Buddy::getInstance().status_print();
 193              		.loc 1 31 5 is_stmt 1
 194 01a0 63140906 		bne	s2,zero,.L12
 195              	.L9:
  32:src/kernel/kernel_test.cpp ****     kprintString("\n");
 196              		.loc 1 32 5
 197              		.loc 1 32 17 is_stmt 0
 198 01a4 17050000 		lla	a0,.LC3
 198      13050500 
 199 01ac 97000000 		call	_Z12kprintStringPKc
 199      E7800000 
 200              	.LVL29:
  33:src/kernel/kernel_test.cpp ****     return ret;
 201              		.loc 1 33 5 is_stmt 1
  34:src/kernel/kernel_test.cpp **** }
 202              		.loc 1 34 1 is_stmt 0
 203 01b4 13850400 		mv	a0,s1
 204 01b8 83308101 		ld	ra,24(sp)
 205              		.cfi_remember_state
 206              		.cfi_restore 1
 207 01bc 03340101 		ld	s0,16(sp)
 208              		.cfi_restore 8
 209              		.cfi_def_cfa 2, 32
 210 01c0 83348100 		ld	s1,8(sp)
 211              		.cfi_restore 9
 212 01c4 03390100 		ld	s2,0(sp)
 213              		.cfi_restore 18
 214 01c8 13010102 		addi	sp,sp,32
 215              		.cfi_def_cfa_offset 0
 216 01cc 67800000 		jr	ra
GAS LISTING /tmp/ccIFPgNv.s 			page 6


 217              	.LVL30:
 218              	.L11:
 219              		.cfi_restore_state
  26:src/kernel/kernel_test.cpp ****         kprintInt((uint64)ret, 10, true);
 220              		.loc 1 26 9 is_stmt 1
  26:src/kernel/kernel_test.cpp ****         kprintInt((uint64)ret, 10, true);
 221              		.loc 1 26 21 is_stmt 0
 222 01d0 17050000 		lla	a0,.LC6
 222      13050500 
 223              	.LVL31:
 224 01d8 97000000 		call	_Z12kprintStringPKc
 224      E7800000 
 225              	.LVL32:
  27:src/kernel/kernel_test.cpp ****         kprintString("\n");
 226              		.loc 1 27 9 is_stmt 1
  27:src/kernel/kernel_test.cpp ****         kprintString("\n");
 227              		.loc 1 27 18 is_stmt 0
 228 01e0 13061000 		li	a2,1
 229 01e4 9305A000 		li	a1,10
 230 01e8 13850400 		mv	a0,s1
 231 01ec 97000000 		call	_Z9kprintIntmib
 231      E7800000 
 232              	.LVL33:
  28:src/kernel/kernel_test.cpp ****     }
 233              		.loc 1 28 9 is_stmt 1
  28:src/kernel/kernel_test.cpp ****     }
 234              		.loc 1 28 21 is_stmt 0
 235 01f4 17050000 		lla	a0,.LC3
 235      13050500 
 236 01fc 97000000 		call	_Z12kprintStringPKc
 236      E7800000 
 237              	.LVL34:
 238 0204 6FF0DFF8 		j	.L8
 239              	.L12:
  31:src/kernel/kernel_test.cpp ****     kprintString("\n");
 240              		.loc 1 31 11 is_stmt 1 discriminator 1
  31:src/kernel/kernel_test.cpp ****     kprintString("\n");
 241              		.loc 1 31 30 is_stmt 0 discriminator 1
 242 0208 97000000 		call	_ZN5Buddy11getInstanceEv
 242      E7800000 
 243              	.LVL35:
  31:src/kernel/kernel_test.cpp ****     kprintString("\n");
 244              		.loc 1 31 44 discriminator 1
 245 0210 93051000 		li	a1,1
 246 0214 97000000 		call	_ZN5Buddy12status_printEb
 246      E7800000 
 247              	.LVL36:
 248 021c 6FF09FF8 		j	.L9
 249              		.cfi_endproc
 250              	.LFE99:
 252              		.align	2
 253              		.globl	_Z10buddy_testv
 255              	_Z10buddy_testv:
 256              	.LFB100:
  35:src/kernel/kernel_test.cpp **** 
  36:src/kernel/kernel_test.cpp **** void buddy_test(){
 257              		.loc 1 36 18 is_stmt 1
GAS LISTING /tmp/ccIFPgNv.s 			page 7


 258              		.cfi_startproc
 259 0220 130101FC 		addi	sp,sp,-64
 260              		.cfi_def_cfa_offset 64
 261 0224 233C1102 		sd	ra,56(sp)
 262 0228 23388102 		sd	s0,48(sp)
 263 022c 23349102 		sd	s1,40(sp)
 264 0230 23302103 		sd	s2,32(sp)
 265 0234 233C3101 		sd	s3,24(sp)
 266 0238 23384101 		sd	s4,16(sp)
 267 023c 23345101 		sd	s5,8(sp)
 268 0240 23306101 		sd	s6,0(sp)
 269              		.cfi_offset 1, -8
 270              		.cfi_offset 8, -16
 271              		.cfi_offset 9, -24
 272              		.cfi_offset 18, -32
 273              		.cfi_offset 19, -40
 274              		.cfi_offset 20, -48
 275              		.cfi_offset 21, -56
 276              		.cfi_offset 22, -64
 277 0244 13040104 		addi	s0,sp,64
 278              		.cfi_def_cfa 8, 0
  37:src/kernel/kernel_test.cpp ****     void* t = buddy_allocate_test(128);
 279              		.loc 1 37 5
 280              		.loc 1 37 34 is_stmt 0
 281 0248 93050000 		li	a1,0
 282 024c 13050008 		li	a0,128
 283 0250 97000000 		call	_Z19buddy_allocate_testmb
 283      E7800000 
 284              	.LVL37:
 285 0258 130B0500 		mv	s6,a0
 286              	.LVL38:
  38:src/kernel/kernel_test.cpp ****     buddy_allocate_test(25);
 287              		.loc 1 38 5 is_stmt 1
 288              		.loc 1 38 24 is_stmt 0
 289 025c 93050000 		li	a1,0
 290 0260 13059001 		li	a0,25
 291              	.LVL39:
 292 0264 97000000 		call	_Z19buddy_allocate_testmb
 292      E7800000 
 293              	.LVL40:
  39:src/kernel/kernel_test.cpp ****     void* t1 = buddy_allocate_test(64);
 294              		.loc 1 39 5 is_stmt 1
 295              		.loc 1 39 35 is_stmt 0
 296 026c 93050000 		li	a1,0
 297 0270 13050004 		li	a0,64
 298 0274 97000000 		call	_Z19buddy_allocate_testmb
 298      E7800000 
 299              	.LVL41:
 300 027c 13090500 		mv	s2,a0
 301              	.LVL42:
  40:src/kernel/kernel_test.cpp ****     void* t2 = buddy_allocate_test(1);
 302              		.loc 1 40 5 is_stmt 1
 303              		.loc 1 40 35 is_stmt 0
 304 0280 93050000 		li	a1,0
 305 0284 13051000 		li	a0,1
 306              	.LVL43:
 307 0288 97000000 		call	_Z19buddy_allocate_testmb
GAS LISTING /tmp/ccIFPgNv.s 			page 8


 307      E7800000 
 308              	.LVL44:
 309 0290 930A0500 		mv	s5,a0
 310              	.LVL45:
  41:src/kernel/kernel_test.cpp ****     void* t2_bud = buddy_allocate_test(1);
 311              		.loc 1 41 5 is_stmt 1
 312              		.loc 1 41 39 is_stmt 0
 313 0294 93050000 		li	a1,0
 314 0298 13051000 		li	a0,1
 315              	.LVL46:
 316 029c 97000000 		call	_Z19buddy_allocate_testmb
 316      E7800000 
 317              	.LVL47:
 318 02a4 93040500 		mv	s1,a0
 319              	.LVL48:
  42:src/kernel/kernel_test.cpp ****     void* t3 = buddy_allocate_test(1);
 320              		.loc 1 42 5 is_stmt 1
 321              		.loc 1 42 35 is_stmt 0
 322 02a8 93050000 		li	a1,0
 323 02ac 13051000 		li	a0,1
 324 02b0 97000000 		call	_Z19buddy_allocate_testmb
 324      E7800000 
 325              	.LVL49:
 326 02b8 130A0500 		mv	s4,a0
 327              	.LVL50:
  43:src/kernel/kernel_test.cpp ****     void* t3_bud = buddy_allocate_test(1, true);
 328              		.loc 1 43 5 is_stmt 1
 329              		.loc 1 43 39 is_stmt 0
 330 02bc 93051000 		li	a1,1
 331 02c0 13051000 		li	a0,1
 332              	.LVL51:
 333 02c4 97000000 		call	_Z19buddy_allocate_testmb
 333      E7800000 
 334              	.LVL52:
 335 02cc 93090500 		mv	s3,a0
 336              	.LVL53:
  44:src/kernel/kernel_test.cpp ****     /* deallocate dont have buddy */
  45:src/kernel/kernel_test.cpp ****     buddy_deallocate_test(t);
 337              		.loc 1 45 5 is_stmt 1
 338              		.loc 1 45 26 is_stmt 0
 339 02d0 93050000 		li	a1,0
 340 02d4 13050B00 		mv	a0,s6
 341              	.LVL54:
 342 02d8 97000000 		call	_Z21buddy_deallocate_testPvb
 342      E7800000 
 343              	.LVL55:
  46:src/kernel/kernel_test.cpp ****     buddy_deallocate_test(nullptr);
 344              		.loc 1 46 5 is_stmt 1
 345              		.loc 1 46 26 is_stmt 0
 346 02e0 93050000 		li	a1,0
 347 02e4 13050000 		li	a0,0
 348 02e8 97000000 		call	_Z21buddy_deallocate_testPvb
 348      E7800000 
 349              	.LVL56:
  47:src/kernel/kernel_test.cpp ****     /* merge not-all */
  48:src/kernel/kernel_test.cpp ****     buddy_deallocate_test(t2,true);
 350              		.loc 1 48 5 is_stmt 1
GAS LISTING /tmp/ccIFPgNv.s 			page 9


 351              		.loc 1 48 26 is_stmt 0
 352 02f0 93051000 		li	a1,1
 353 02f4 13850A00 		mv	a0,s5
 354 02f8 97000000 		call	_Z21buddy_deallocate_testPvb
 354      E7800000 
 355              	.LVL57:
  49:src/kernel/kernel_test.cpp ****     buddy_deallocate_test(t3,true);
 356              		.loc 1 49 5 is_stmt 1
 357              		.loc 1 49 26 is_stmt 0
 358 0300 93051000 		li	a1,1
 359 0304 13050A00 		mv	a0,s4
 360 0308 97000000 		call	_Z21buddy_deallocate_testPvb
 360      E7800000 
 361              	.LVL58:
  50:src/kernel/kernel_test.cpp ****     buddy_deallocate_test(t3_bud,true);
 362              		.loc 1 50 5 is_stmt 1
 363              		.loc 1 50 26 is_stmt 0
 364 0310 93051000 		li	a1,1
 365 0314 13850900 		mv	a0,s3
 366 0318 97000000 		call	_Z21buddy_deallocate_testPvb
 366      E7800000 
 367              	.LVL59:
  51:src/kernel/kernel_test.cpp ****     buddy_deallocate_test(t2_bud,true);
 368              		.loc 1 51 5 is_stmt 1
 369              		.loc 1 51 26 is_stmt 0
 370 0320 93051000 		li	a1,1
 371 0324 13850400 		mv	a0,s1
 372 0328 97000000 		call	_Z21buddy_deallocate_testPvb
 372      E7800000 
 373              	.LVL60:
  52:src/kernel/kernel_test.cpp ****     /* merge all (deallocate has buddy) */
  53:src/kernel/kernel_test.cpp ****     buddy_deallocate_test(t1, true);
 374              		.loc 1 53 5 is_stmt 1
 375              		.loc 1 53 26 is_stmt 0
 376 0330 93051000 		li	a1,1
 377 0334 13050900 		mv	a0,s2
 378 0338 97000000 		call	_Z21buddy_deallocate_testPvb
 378      E7800000 
 379              	.LVL61:
  54:src/kernel/kernel_test.cpp ****     /* allocate all memory */
  55:src/kernel/kernel_test.cpp ****     t = buddy_allocate_test(4096);
 380              		.loc 1 55 5 is_stmt 1
 381              		.loc 1 55 28 is_stmt 0
 382 0340 93050000 		li	a1,0
 383 0344 37150000 		li	a0,4096
 384 0348 97000000 		call	_Z19buddy_allocate_testmb
 384      E7800000 
 385              	.LVL62:
 386 0350 93040500 		mv	s1,a0
 387              	.LVL63:
  56:src/kernel/kernel_test.cpp ****     /* deallocate sub-block */
  57:src/kernel/kernel_test.cpp ****     buddy_deallocate_test(t1);
 388              		.loc 1 57 5 is_stmt 1
 389              		.loc 1 57 26 is_stmt 0
 390 0354 93050000 		li	a1,0
 391 0358 13050900 		mv	a0,s2
 392 035c 97000000 		call	_Z21buddy_deallocate_testPvb
GAS LISTING /tmp/ccIFPgNv.s 			page 10


 392      E7800000 
 393              	.LVL64:
  58:src/kernel/kernel_test.cpp ****     /* try allocation if all memory is allocated */
  59:src/kernel/kernel_test.cpp ****     buddy_allocate_test(128);
 394              		.loc 1 59 5 is_stmt 1
 395              		.loc 1 59 24 is_stmt 0
 396 0364 93050000 		li	a1,0
 397 0368 13050008 		li	a0,128
 398 036c 97000000 		call	_Z19buddy_allocate_testmb
 398      E7800000 
 399              	.LVL65:
  60:src/kernel/kernel_test.cpp ****     /* deallocate all memory */
  61:src/kernel/kernel_test.cpp ****     buddy_deallocate_test(t);
 400              		.loc 1 61 5 is_stmt 1
 401              		.loc 1 61 26 is_stmt 0
 402 0374 93050000 		li	a1,0
 403 0378 13850400 		mv	a0,s1
 404 037c 97000000 		call	_Z21buddy_deallocate_testPvb
 404      E7800000 
 405              	.LVL66:
  62:src/kernel/kernel_test.cpp ****     /* deallocate memory not in range */
  63:src/kernel/kernel_test.cpp ****     buddy_deallocate_test((void*)((uint64)t + (Buddy::BLOCK_SIZE<<13)));
 406              		.loc 1 63 5 is_stmt 1
 407              		.loc 1 63 26 is_stmt 0
 408 0384 93050000 		li	a1,0
 409 0388 37050002 		li	a0,33554432
 410 038c 3385A400 		add	a0,s1,a0
 411 0390 97000000 		call	_Z21buddy_deallocate_testPvb
 411      E7800000 
 412              	.LVL67:
  64:src/kernel/kernel_test.cpp ****     /* allocate memory not in range */
  65:src/kernel/kernel_test.cpp ****     buddy_allocate_test(8192, true);
 413              		.loc 1 65 5 is_stmt 1
 414              		.loc 1 65 24 is_stmt 0
 415 0398 93051000 		li	a1,1
 416 039c 37250000 		li	a0,8192
 417 03a0 97000000 		call	_Z19buddy_allocate_testmb
 417      E7800000 
 418              	.LVL68:
  66:src/kernel/kernel_test.cpp **** 
  67:src/kernel/kernel_test.cpp **** 
  68:src/kernel/kernel_test.cpp **** }...
 419              		.loc 1 68 1
 420 03a8 83308103 		ld	ra,56(sp)
 421              		.cfi_restore 1
 422 03ac 03340103 		ld	s0,48(sp)
 423              		.cfi_restore 8
 424              		.cfi_def_cfa 2, 64
 425 03b0 83348102 		ld	s1,40(sp)
 426              		.cfi_restore 9
 427              	.LVL69:
 428 03b4 03390102 		ld	s2,32(sp)
 429              		.cfi_restore 18
 430              	.LVL70:
 431 03b8 83398101 		ld	s3,24(sp)
 432              		.cfi_restore 19
 433              	.LVL71:
GAS LISTING /tmp/ccIFPgNv.s 			page 11


 434 03bc 033A0101 		ld	s4,16(sp)
 435              		.cfi_restore 20
 436              	.LVL72:
 437 03c0 833A8100 		ld	s5,8(sp)
 438              		.cfi_restore 21
 439              	.LVL73:
 440 03c4 033B0100 		ld	s6,0(sp)
 441              		.cfi_restore 22
 442 03c8 13010104 		addi	sp,sp,64
 443              		.cfi_def_cfa_offset 0
 444 03cc 67800000 		jr	ra
 445              		.cfi_endproc
 446              	.LFE100:
 448              		.section	.rodata.str1.8,"aMS",@progbits,1
 449              		.align	3
 450              	.LC0:
 451 0000 42756464 		.string	"Buddy allocate: "
 451      7920616C 
 451      6C6F6361 
 451      74653A20 
 451      00
 452 0011 00000000 		.zero	7
 452      000000
 453              	.LC1:
 454 0018 20626C6F 		.string	" blocks\n"
 454      636B730A 
 454      00
 455 0021 00000000 		.zero	7
 455      000000
 456              	.LC2:
 457 0028 52657475 		.string	"Returned address: "
 457      726E6564 
 457      20616464 
 457      72657373 
 457      3A2000
 458 003b 00000000 		.zero	5
 458      00
 459              	.LC3:
 460 0040 0A00     		.string	"\n"
 461 0042 00000000 		.zero	6
 461      0000
 462              	.LC4:
 463 0048 42554444 		.string	"BUDDY ALLOCATE ERROR\n"
 463      5920414C 
 463      4C4F4341 
 463      54452045 
 463      52524F52 
 464 005e 0000     		.zero	2
 465              	.LC5:
 466 0060 42756464 		.string	"Buddy deallocate block on address: "
 466      79206465 
 466      616C6C6F 
 466      63617465 
 466      20626C6F 
 467 0084 00000000 		.zero	4
 468              	.LC6:
 469 0088 42554444 		.string	"BUDDY DEALLOCATE ERROR:"
GAS LISTING /tmp/ccIFPgNv.s 			page 12


 469      59204445 
 469      414C4C4F 
 469      43415445 
 469      20455252 
 470              		.text
 471              	.Letext0:
 472              		.file 2 "src/kernel/../../h/../h/../lib/hw.h"
 473              		.file 3 "src/kernel/../../h/../h/pmt.h"
 474              		.file 4 "src/kernel/../../h/../h/buddy.h"
 475              		.file 5 "src/kernel/../../h/kernel_lib.h"
 476              		.file 6 "src/kernel/../../h/../h/kernel_funs.h"
GAS LISTING /tmp/ccIFPgNv.s 			page 13

