GAS LISTING /tmp/ccBM2su7.s 			page 1


   1              		.file	"kernel_lib.cpp"
   2              		.option nopic
   3              		.option norelax
   4              		.attribute arch, "rv64i2p0_m2p0_a2p0"
   5              		.attribute unaligned_access, 0
   6              		.attribute stack_align, 16
   7              		.text
   8              	.Ltext0:
   9              		.align	2
  10              		.globl	_Z15userMainWrapperPv
  12              	_Z15userMainWrapperPv:
  13              	.LFB91:
  14              		.file 1 "src/kernel/kernel_lib.cpp"
   1:src/kernel/kernel_lib.cpp **** #include"../../h/kernel_lib.h"
   2:src/kernel/kernel_lib.cpp **** 
   3:src/kernel/kernel_lib.cpp **** extern "C" uint64 KERNEL_TEXT_START;
   4:src/kernel/kernel_lib.cpp **** extern "C" uint64 KERNEL_TEXT_END;
   5:src/kernel/kernel_lib.cpp **** extern "C" uint64 USER_TEXT_START;
   6:src/kernel/kernel_lib.cpp **** extern "C" uint64 USER_TEXT_END;
   7:src/kernel/kernel_lib.cpp **** 
   8:src/kernel/kernel_lib.cpp **** void userMainWrapper(void*)
   9:src/kernel/kernel_lib.cpp **** {
  15              		.loc 1 9 1
  16              		.cfi_startproc
  17 0000 130101FF 		addi	sp,sp,-16
  18              		.cfi_def_cfa_offset 16
  19 0004 23341100 		sd	ra,8(sp)
  20 0008 23308100 		sd	s0,0(sp)
  21              		.cfi_offset 1, -8
  22              		.cfi_offset 8, -16
  23 000c 13040101 		addi	s0,sp,16
  24              		.cfi_def_cfa 8, 0
  10:src/kernel/kernel_lib.cpp ****     userMain();
  25              		.loc 1 10 5
  26              		.loc 1 10 13 is_stmt 0
  27 0010 97000000 		call	_Z8userMainv
  27      E7800000 
  28              	.LVL0:
  11:src/kernel/kernel_lib.cpp **** }
  29              		.loc 1 11 1
  30 0018 83308100 		ld	ra,8(sp)
  31              		.cfi_restore 1
  32 001c 03340100 		ld	s0,0(sp)
  33              		.cfi_restore 8
  34              		.cfi_def_cfa 2, 16
  35 0020 13010101 		addi	sp,sp,16
  36              		.cfi_def_cfa_offset 0
  37 0024 67800000 		jr	ra
  38              		.cfi_endproc
  39              	.LFE91:
  41              		.align	2
  42              		.globl	_Z12idleFunctionPv
  44              	_Z12idleFunctionPv:
  45              	.LFB92:
  12:src/kernel/kernel_lib.cpp **** 
  13:src/kernel/kernel_lib.cpp **** void idleFunction(void*)
  14:src/kernel/kernel_lib.cpp **** {
GAS LISTING /tmp/ccBM2su7.s 			page 2


  46              		.loc 1 14 1 is_stmt 1
  47              		.cfi_startproc
  48 0028 130101FF 		addi	sp,sp,-16
  49              		.cfi_def_cfa_offset 16
  50 002c 23341100 		sd	ra,8(sp)
  51 0030 23308100 		sd	s0,0(sp)
  52              		.cfi_offset 1, -8
  53              		.cfi_offset 8, -16
  54 0034 13040101 		addi	s0,sp,16
  55              		.cfi_def_cfa 8, 0
  56              	.L4:
  15:src/kernel/kernel_lib.cpp ****     while(1){
  57              		.loc 1 15 5 discriminator 1
  16:src/kernel/kernel_lib.cpp ****         thread_dispatch();
  58              		.loc 1 16 9 discriminator 1
  59              		.loc 1 16 24 is_stmt 0 discriminator 1
  60 0038 97000000 		call	thread_dispatch
  60      E7800000 
  61              	.LVL1:
  62 0040 6FF09FFF 		j	.L4
  63              		.cfi_endproc
  64              	.LFE92:
  66              		.align	2
  67              		.globl	_Z7kmallocm
  69              	_Z7kmallocm:
  70              	.LFB93:
  17:src/kernel/kernel_lib.cpp ****     }
  18:src/kernel/kernel_lib.cpp **** }
  19:src/kernel/kernel_lib.cpp **** 
  20:src/kernel/kernel_lib.cpp **** void* kmalloc(size_t size)
  21:src/kernel/kernel_lib.cpp **** {
  71              		.loc 1 21 1 is_stmt 1
  72              		.cfi_startproc
  73              	.LVL2:
  74 0044 130101FE 		addi	sp,sp,-32
  75              		.cfi_def_cfa_offset 32
  76 0048 233C1100 		sd	ra,24(sp)
  77 004c 23388100 		sd	s0,16(sp)
  78 0050 23349100 		sd	s1,8(sp)
  79              		.cfi_offset 1, -8
  80              		.cfi_offset 8, -16
  81              		.cfi_offset 9, -24
  82 0054 13040102 		addi	s0,sp,32
  83              		.cfi_def_cfa 8, 0
  22:src/kernel/kernel_lib.cpp ****     size = (size-1)/MEM_BLOCK_SIZE + 1;
  84              		.loc 1 22 5
  85              		.loc 1 22 17 is_stmt 0
  86 0058 9304F5FF 		addi	s1,a0,-1
  87              		.loc 1 22 20
  88 005c 93D46400 		srli	s1,s1,6
  89              		.loc 1 22 10
  90 0060 93841400 		addi	s1,s1,1
  91              	.LVL3:
  23:src/kernel/kernel_lib.cpp ****     return MemoryAllocator::getInstance().mem_alloc(size);
  92              		.loc 1 23 5 is_stmt 1
  93              		.loc 1 23 41 is_stmt 0
  94 0064 97000000 		call	_ZN15MemoryAllocator11getInstanceEv
GAS LISTING /tmp/ccBM2su7.s 			page 3


  94      E7800000 
  95              	.LVL4:
  96              		.loc 1 23 52
  97 006c 93850400 		mv	a1,s1
  98 0070 97000000 		call	_ZN15MemoryAllocator9mem_allocEm
  98      E7800000 
  99              	.LVL5:
  24:src/kernel/kernel_lib.cpp **** }
 100              		.loc 1 24 1
 101 0078 83308101 		ld	ra,24(sp)
 102              		.cfi_restore 1
 103 007c 03340101 		ld	s0,16(sp)
 104              		.cfi_restore 8
 105              		.cfi_def_cfa 2, 32
 106 0080 83348100 		ld	s1,8(sp)
 107              		.cfi_restore 9
 108              	.LVL6:
 109 0084 13010102 		addi	sp,sp,32
 110              		.cfi_def_cfa_offset 0
 111 0088 67800000 		jr	ra
 112              		.cfi_endproc
 113              	.LFE93:
 115              		.align	2
 116              		.globl	_Z5kputcc
 118              	_Z5kputcc:
 119              	.LFB94:
  25:src/kernel/kernel_lib.cpp **** 
  26:src/kernel/kernel_lib.cpp **** void kputc(char c){
 120              		.loc 1 26 19 is_stmt 1
 121              		.cfi_startproc
 122              	.LVL7:
 123 008c 130101FF 		addi	sp,sp,-16
 124              		.cfi_def_cfa_offset 16
 125 0090 23348100 		sd	s0,8(sp)
 126              		.cfi_offset 8, -8
 127 0094 13040101 		addi	s0,sp,16
 128              		.cfi_def_cfa 8, 0
  27:src/kernel/kernel_lib.cpp ****     char* odata = (char*)CONSOLE_TX_DATA, 
 129              		.loc 1 27 5
 130              		.loc 1 27 11 is_stmt 0
 131 0098 97070000 		lla	a5,CONSOLE_TX_DATA
 131      93870700 
 132 00a0 83B60700 		ld	a3,0(a5)
 133              	.LVL8:
  28:src/kernel/kernel_lib.cpp ****     *iostatus = (char*)CONSOLE_STATUS;
 134              		.loc 1 28 6
 135 00a4 97070000 		lla	a5,CONSOLE_STATUS
 135      93870700 
 136 00ac 03B70700 		ld	a4,0(a5)
 137              	.LVL9:
 138              	.L9:
  29:src/kernel/kernel_lib.cpp ****     while(!(*iostatus & CONSOLE_TX_STATUS_BIT));
 139              		.loc 1 29 5 is_stmt 1
 140              		.loc 1 29 13 is_stmt 0
 141 00b0 83470700 		lbu	a5,0(a4)
 142              		.loc 1 29 11
 143 00b4 93F70702 		andi	a5,a5,32
GAS LISTING /tmp/ccBM2su7.s 			page 4


 144 00b8 E38C07FE 		beq	a5,zero,.L9
  30:src/kernel/kernel_lib.cpp ****     *odata = c;
 145              		.loc 1 30 5 is_stmt 1
 146              		.loc 1 30 12 is_stmt 0
 147 00bc 2380A600 		sb	a0,0(a3)
  31:src/kernel/kernel_lib.cpp **** }
 148              		.loc 1 31 1
 149 00c0 03348100 		ld	s0,8(sp)
 150              		.cfi_restore 8
 151              		.cfi_def_cfa 2, 16
 152 00c4 13010101 		addi	sp,sp,16
 153              		.cfi_def_cfa_offset 0
 154 00c8 67800000 		jr	ra
 155              		.cfi_endproc
 156              	.LFE94:
 158              		.align	2
 159              		.globl	_Z12kprintStringPKc
 161              	_Z12kprintStringPKc:
 162              	.LFB95:
  32:src/kernel/kernel_lib.cpp **** 
  33:src/kernel/kernel_lib.cpp **** void kprintString(const char* string)
  34:src/kernel/kernel_lib.cpp **** {
 163              		.loc 1 34 1 is_stmt 1
 164              		.cfi_startproc
 165              	.LVL10:
 166 00cc 130101FE 		addi	sp,sp,-32
 167              		.cfi_def_cfa_offset 32
 168 00d0 233C1100 		sd	ra,24(sp)
 169 00d4 23388100 		sd	s0,16(sp)
 170 00d8 23349100 		sd	s1,8(sp)
 171              		.cfi_offset 1, -8
 172              		.cfi_offset 8, -16
 173              		.cfi_offset 9, -24
 174 00dc 13040102 		addi	s0,sp,32
 175              		.cfi_def_cfa 8, 0
 176 00e0 93040500 		mv	s1,a0
  35:src/kernel/kernel_lib.cpp ****     if(!string) return;
 177              		.loc 1 35 5
 178 00e4 630E0500 		beq	a0,zero,.L11
 179              	.LVL11:
 180              	.L13:
  36:src/kernel/kernel_lib.cpp ****     while(*string)
 181              		.loc 1 36 5
 182              		.loc 1 36 11 is_stmt 0
 183 00e8 03C50400 		lbu	a0,0(s1)
 184              		.loc 1 36 12
 185 00ec 630A0500 		beq	a0,zero,.L11
  37:src/kernel/kernel_lib.cpp ****     {
  38:src/kernel/kernel_lib.cpp ****         kputc(*string);
 186              		.loc 1 38 9 is_stmt 1
 187              		.loc 1 38 14 is_stmt 0
 188 00f0 97000000 		call	_Z5kputcc
 188      E7800000 
 189              	.LVL12:
  39:src/kernel/kernel_lib.cpp ****         string++;
 190              		.loc 1 39 9 is_stmt 1
 191              		.loc 1 39 15 is_stmt 0
GAS LISTING /tmp/ccBM2su7.s 			page 5


 192 00f8 93841400 		addi	s1,s1,1
 193              	.LVL13:
  36:src/kernel/kernel_lib.cpp ****     while(*string)
 194              		.loc 1 36 5
 195 00fc 6FF0DFFE 		j	.L13
 196              	.L11:
  40:src/kernel/kernel_lib.cpp ****     }
  41:src/kernel/kernel_lib.cpp **** }
 197              		.loc 1 41 1
 198 0100 83308101 		ld	ra,24(sp)
 199              		.cfi_restore 1
 200 0104 03340101 		ld	s0,16(sp)
 201              		.cfi_restore 8
 202              		.cfi_def_cfa 2, 32
 203 0108 83348100 		ld	s1,8(sp)
 204              		.cfi_restore 9
 205              	.LVL14:
 206 010c 13010102 		addi	sp,sp,32
 207              		.cfi_def_cfa_offset 0
 208 0110 67800000 		jr	ra
 209              		.cfi_endproc
 210              	.LFE95:
 212              		.align	2
 213              		.globl	_Z9kprintIntmi
 215              	_Z9kprintIntmi:
 216              	.LFB97:
  42:src/kernel/kernel_lib.cpp **** 
  43:src/kernel/kernel_lib.cpp **** int kernelInit()
  44:src/kernel/kernel_lib.cpp **** {
  45:src/kernel/kernel_lib.cpp ****     kprintString("--------------KERNEL INIT--------------\n");
  46:src/kernel/kernel_lib.cpp ****     kprintString("HEAP_START_ADDR: "); kprintInt((uint64)HEAP_START_ADDR,16); kprintString("\n");
  47:src/kernel/kernel_lib.cpp ****     kprintString("HEAP_END_ADDR: "); kprintInt((uint64)HEAP_END_ADDR,16); kprintString("\n");
  48:src/kernel/kernel_lib.cpp ****     kprintString("KERNEL_TEXT_START: "); kprintInt(KERNEL_TEXT_START,16); kprintString("\n");
  49:src/kernel/kernel_lib.cpp ****     kprintString("KERNEL_TEXT_END: "); kprintInt(KERNEL_TEXT_END,16); kprintString("\n");
  50:src/kernel/kernel_lib.cpp ****     kprintString("USER_TEXT_START: "); kprintInt(USER_TEXT_START,16); kprintString("\n");
  51:src/kernel/kernel_lib.cpp ****     kprintString("USER_TEXT_END: "); kprintInt(USER_TEXT_END,16); kprintString("\n");
  52:src/kernel/kernel_lib.cpp **** 
  53:src/kernel/kernel_lib.cpp ****     Riscv::w_stvec((uint64)interruptvec);
  54:src/kernel/kernel_lib.cpp ****     kprintString("stvec initalized!\n");
  55:src/kernel/kernel_lib.cpp ****     MemoryAllocator::getInstance();
  56:src/kernel/kernel_lib.cpp ****     kprintString("MemoryAllocator initalized!\n");
  57:src/kernel/kernel_lib.cpp ****     Scheduler::initalize();
  58:src/kernel/kernel_lib.cpp ****     kprintString("Scheduler initalized!\n");
  59:src/kernel/kernel_lib.cpp ****     StdIO::initalize();
  60:src/kernel/kernel_lib.cpp ****     kprintString("StdIO initalized!\n");
  61:src/kernel/kernel_lib.cpp ****     TCB::createMainKernelThread();
  62:src/kernel/kernel_lib.cpp ****     kprintString("Main kenrel thread initalized!\n");
  63:src/kernel/kernel_lib.cpp **** 
  64:src/kernel/kernel_lib.cpp ****     kprintString("Initalizing user thread and idle thread...\n");
  65:src/kernel/kernel_lib.cpp ****     uint64* userMainStack = (uint64*)kmalloc(DEFAULT_STACK_SIZE);
  66:src/kernel/kernel_lib.cpp ****     TCB* userMainThread = TCB::createThread(userMainWrapper, nullptr, userMainStack);
  67:src/kernel/kernel_lib.cpp **** 
  68:src/kernel/kernel_lib.cpp ****     uint64* idleThreadStack = (uint64*)kmalloc(DEFAULT_STACK_SIZE);
  69:src/kernel/kernel_lib.cpp ****     TCB* idleThread = TCB::createThread(idleFunction, nullptr, idleThreadStack);
  70:src/kernel/kernel_lib.cpp ****     if(userMainStack && idleThreadStack && idleThread && userMainThread)
  71:src/kernel/kernel_lib.cpp ****         kprintString("Threads successfully initalized!\n");
  72:src/kernel/kernel_lib.cpp ****     else
GAS LISTING /tmp/ccBM2su7.s 			page 6


  73:src/kernel/kernel_lib.cpp ****         return -1;
  74:src/kernel/kernel_lib.cpp ****     kprintString("-----------KERNEL INITALIZED-----------\n\n");
  75:src/kernel/kernel_lib.cpp **** 
  76:src/kernel/kernel_lib.cpp ****     return 0;
  77:src/kernel/kernel_lib.cpp **** }
  78:src/kernel/kernel_lib.cpp **** 
  79:src/kernel/kernel_lib.cpp **** char kdigits[] = "0123456789ABCDEF";
  80:src/kernel/kernel_lib.cpp **** void kprintInt(uint64 xx, int base){
 217              		.loc 1 80 36 is_stmt 1
 218              		.cfi_startproc
 219              	.LVL15:
 220 0114 130101FD 		addi	sp,sp,-48
 221              		.cfi_def_cfa_offset 48
 222 0118 23341102 		sd	ra,40(sp)
 223 011c 23308102 		sd	s0,32(sp)
 224 0120 233C9100 		sd	s1,24(sp)
 225              		.cfi_offset 1, -8
 226              		.cfi_offset 8, -16
 227              		.cfi_offset 9, -24
 228 0124 13040103 		addi	s0,sp,48
 229              		.cfi_def_cfa 8, 0
  81:src/kernel/kernel_lib.cpp ****     char buf[16];
 230              		.loc 1 81 5
  82:src/kernel/kernel_lib.cpp ****     int i;
 231              		.loc 1 82 5
  83:src/kernel/kernel_lib.cpp **** 
  84:src/kernel/kernel_lib.cpp ****     i = 0;
 232              		.loc 1 84 5
 233              	.LVL16:
 234              		.loc 1 84 7 is_stmt 0
 235 0128 93070000 		li	a5,0
 236 012c 6F008000 		j	.L16
 237              	.LVL17:
 238              	.L19:
  85:src/kernel/kernel_lib.cpp ****     do{
  86:src/kernel/kernel_lib.cpp ****         buf[i++] = kdigits[xx % base];
  87:src/kernel/kernel_lib.cpp ****     }while((xx /= base) != 0);
 239              		.loc 1 87 16
 240 0130 13050700 		mv	a0,a4
 241              	.LVL18:
 242              	.L16:
  85:src/kernel/kernel_lib.cpp ****     do{
 243              		.loc 1 85 5 is_stmt 1
  86:src/kernel/kernel_lib.cpp ****     }while((xx /= base) != 0);
 244              		.loc 1 86 9
  86:src/kernel/kernel_lib.cpp ****     }while((xx /= base) != 0);
 245              		.loc 1 86 31 is_stmt 0
 246 0134 B376B502 		remu	a3,a0,a1
  86:src/kernel/kernel_lib.cpp ****     }while((xx /= base) != 0);
 247              		.loc 1 86 14
 248 0138 9B841700 		addiw	s1,a5,1
 249              	.LVL19:
  86:src/kernel/kernel_lib.cpp ****     }while((xx /= base) != 0);
 250              		.loc 1 86 37
 251 013c 17070000 		lla	a4,.LANCHOR0
 251      13070700 
 252 0144 3307D700 		add	a4,a4,a3
GAS LISTING /tmp/ccBM2su7.s 			page 7


 253 0148 03470700 		lbu	a4,0(a4)
  86:src/kernel/kernel_lib.cpp ****     }while((xx /= base) != 0);
 254              		.loc 1 86 18
 255 014c 930604FE 		addi	a3,s0,-32
 256 0150 B387F600 		add	a5,a3,a5
 257              	.LVL20:
 258 0154 2388E7FE 		sb	a4,-16(a5)
 259              		.loc 1 87 16
 260 0158 3357B502 		divu	a4,a0,a1
 261              	.LVL21:
  86:src/kernel/kernel_lib.cpp ****     }while((xx /= base) != 0);
 262              		.loc 1 86 14
 263 015c 93870400 		mv	a5,s1
 264              		.loc 1 87 25
 265 0160 E378B5FC 		bleu	a1,a0,.L19
 266              	.LVL22:
 267              	.L18:
  88:src/kernel/kernel_lib.cpp **** 
  89:src/kernel/kernel_lib.cpp **** 
  90:src/kernel/kernel_lib.cpp ****     while(--i >= 0)
 268              		.loc 1 90 5 is_stmt 1
 269              		.loc 1 90 15 is_stmt 0
 270 0164 9B84F4FF 		addiw	s1,s1,-1
 271              	.LVL23:
 272 0168 63CE0400 		blt	s1,zero,.L15
  91:src/kernel/kernel_lib.cpp ****         kputc(buf[i]);
 273              		.loc 1 91 9 is_stmt 1
 274              		.loc 1 91 14 is_stmt 0
 275 016c 930704FE 		addi	a5,s0,-32
 276 0170 B3879700 		add	a5,a5,s1
 277 0174 03C507FF 		lbu	a0,-16(a5)
 278 0178 97000000 		call	_Z5kputcc
 278      E7800000 
 279              	.LVL24:
  90:src/kernel/kernel_lib.cpp ****         kputc(buf[i]);
 280              		.loc 1 90 5
 281 0180 6FF05FFE 		j	.L18
 282              	.L15:
  92:src/kernel/kernel_lib.cpp **** }...
 283              		.loc 1 92 1
 284 0184 83308102 		ld	ra,40(sp)
 285              		.cfi_restore 1
 286 0188 03340102 		ld	s0,32(sp)
 287              		.cfi_restore 8
 288              		.cfi_def_cfa 2, 48
 289 018c 83348101 		ld	s1,24(sp)
 290              		.cfi_restore 9
 291 0190 13010103 		addi	sp,sp,48
 292              		.cfi_def_cfa_offset 0
 293 0194 67800000 		jr	ra
 294              		.cfi_endproc
 295              	.LFE97:
 297              		.align	2
 298              		.globl	_Z10kernelInitv
 300              	_Z10kernelInitv:
 301              	.LFB96:
  44:src/kernel/kernel_lib.cpp **** {
GAS LISTING /tmp/ccBM2su7.s 			page 8


 302              		.loc 1 44 1 is_stmt 1
 303              		.cfi_startproc
 304 0198 130101FD 		addi	sp,sp,-48
 305              		.cfi_def_cfa_offset 48
 306 019c 23341102 		sd	ra,40(sp)
 307 01a0 23308102 		sd	s0,32(sp)
 308 01a4 233C9100 		sd	s1,24(sp)
 309 01a8 23382101 		sd	s2,16(sp)
 310 01ac 23343101 		sd	s3,8(sp)
 311              		.cfi_offset 1, -8
 312              		.cfi_offset 8, -16
 313              		.cfi_offset 9, -24
 314              		.cfi_offset 18, -32
 315              		.cfi_offset 19, -40
 316 01b0 13040103 		addi	s0,sp,48
 317              		.cfi_def_cfa 8, 0
  45:src/kernel/kernel_lib.cpp ****     kprintString("--------------KERNEL INIT--------------\n");
 318              		.loc 1 45 5
  45:src/kernel/kernel_lib.cpp ****     kprintString("--------------KERNEL INIT--------------\n");
 319              		.loc 1 45 17 is_stmt 0
 320 01b4 17050000 		lla	a0,.LC0
 320      13050500 
 321 01bc 97000000 		call	_Z12kprintStringPKc
 321      E7800000 
 322              	.LVL25:
  46:src/kernel/kernel_lib.cpp ****     kprintString("HEAP_START_ADDR: "); kprintInt((uint64)HEAP_START_ADDR,16); kprintString("\n");
 323              		.loc 1 46 5 is_stmt 1
  46:src/kernel/kernel_lib.cpp ****     kprintString("HEAP_START_ADDR: "); kprintInt((uint64)HEAP_START_ADDR,16); kprintString("\n");
 324              		.loc 1 46 17 is_stmt 0
 325 01c4 17050000 		lla	a0,.LC1
 325      13050500 
 326 01cc 97000000 		call	_Z12kprintStringPKc
 326      E7800000 
 327              	.LVL26:
  46:src/kernel/kernel_lib.cpp ****     kprintString("HEAP_START_ADDR: "); kprintInt((uint64)HEAP_START_ADDR,16); kprintString("\n");
 328              		.loc 1 46 40 is_stmt 1
  46:src/kernel/kernel_lib.cpp ****     kprintString("HEAP_START_ADDR: "); kprintInt((uint64)HEAP_START_ADDR,16); kprintString("\n");
 329              		.loc 1 46 49 is_stmt 0
 330 01d4 93050001 		li	a1,16
 331 01d8 97070000 		lla	a5,HEAP_START_ADDR
 331      93870700 
 332 01e0 03B50700 		ld	a0,0(a5)
 333 01e4 97000000 		call	_Z9kprintIntmi
 333      E7800000 
 334              	.LVL27:
  46:src/kernel/kernel_lib.cpp ****     kprintString("HEAP_START_ADDR: "); kprintInt((uint64)HEAP_START_ADDR,16); kprintString("\n");
 335              		.loc 1 46 79 is_stmt 1
  46:src/kernel/kernel_lib.cpp ****     kprintString("HEAP_START_ADDR: "); kprintInt((uint64)HEAP_START_ADDR,16); kprintString("\n");
 336              		.loc 1 46 91 is_stmt 0
 337 01ec 17050000 		lla	a0,.LC2
 337      13050500 
 338 01f4 97000000 		call	_Z12kprintStringPKc
 338      E7800000 
 339              	.LVL28:
  47:src/kernel/kernel_lib.cpp ****     kprintString("HEAP_END_ADDR: "); kprintInt((uint64)HEAP_END_ADDR,16); kprintString("\n");
 340              		.loc 1 47 5 is_stmt 1
  47:src/kernel/kernel_lib.cpp ****     kprintString("HEAP_END_ADDR: "); kprintInt((uint64)HEAP_END_ADDR,16); kprintString("\n");
GAS LISTING /tmp/ccBM2su7.s 			page 9


 341              		.loc 1 47 17 is_stmt 0
 342 01fc 17050000 		lla	a0,.LC3
 342      13050500 
 343 0204 97000000 		call	_Z12kprintStringPKc
 343      E7800000 
 344              	.LVL29:
  47:src/kernel/kernel_lib.cpp ****     kprintString("HEAP_END_ADDR: "); kprintInt((uint64)HEAP_END_ADDR,16); kprintString("\n");
 345              		.loc 1 47 38 is_stmt 1
  47:src/kernel/kernel_lib.cpp ****     kprintString("HEAP_END_ADDR: "); kprintInt((uint64)HEAP_END_ADDR,16); kprintString("\n");
 346              		.loc 1 47 47 is_stmt 0
 347 020c 93050001 		li	a1,16
 348 0210 97070000 		lla	a5,HEAP_END_ADDR
 348      93870700 
 349 0218 03B50700 		ld	a0,0(a5)
 350 021c 97000000 		call	_Z9kprintIntmi
 350      E7800000 
 351              	.LVL30:
  47:src/kernel/kernel_lib.cpp ****     kprintString("HEAP_END_ADDR: "); kprintInt((uint64)HEAP_END_ADDR,16); kprintString("\n");
 352              		.loc 1 47 75 is_stmt 1
  47:src/kernel/kernel_lib.cpp ****     kprintString("HEAP_END_ADDR: "); kprintInt((uint64)HEAP_END_ADDR,16); kprintString("\n");
 353              		.loc 1 47 87 is_stmt 0
 354 0224 17050000 		lla	a0,.LC2
 354      13050500 
 355 022c 97000000 		call	_Z12kprintStringPKc
 355      E7800000 
 356              	.LVL31:
  48:src/kernel/kernel_lib.cpp ****     kprintString("KERNEL_TEXT_START: "); kprintInt(KERNEL_TEXT_START,16); kprintString("\n");
 357              		.loc 1 48 5 is_stmt 1
  48:src/kernel/kernel_lib.cpp ****     kprintString("KERNEL_TEXT_START: "); kprintInt(KERNEL_TEXT_START,16); kprintString("\n");
 358              		.loc 1 48 17 is_stmt 0
 359 0234 17050000 		lla	a0,.LC4
 359      13050500 
 360 023c 97000000 		call	_Z12kprintStringPKc
 360      E7800000 
 361              	.LVL32:
  48:src/kernel/kernel_lib.cpp ****     kprintString("KERNEL_TEXT_START: "); kprintInt(KERNEL_TEXT_START,16); kprintString("\n");
 362              		.loc 1 48 42 is_stmt 1
  48:src/kernel/kernel_lib.cpp ****     kprintString("KERNEL_TEXT_START: "); kprintInt(KERNEL_TEXT_START,16); kprintString("\n");
 363              		.loc 1 48 51 is_stmt 0
 364 0244 93050001 		li	a1,16
 365 0248 97070000 		lla	a5,KERNEL_TEXT_START
 365      93870700 
 366 0250 03B50700 		ld	a0,0(a5)
 367 0254 97000000 		call	_Z9kprintIntmi
 367      E7800000 
 368              	.LVL33:
  48:src/kernel/kernel_lib.cpp ****     kprintString("KERNEL_TEXT_START: "); kprintInt(KERNEL_TEXT_START,16); kprintString("\n");
 369              		.loc 1 48 75 is_stmt 1
  48:src/kernel/kernel_lib.cpp ****     kprintString("KERNEL_TEXT_START: "); kprintInt(KERNEL_TEXT_START,16); kprintString("\n");
 370              		.loc 1 48 87 is_stmt 0
 371 025c 17050000 		lla	a0,.LC2
 371      13050500 
 372 0264 97000000 		call	_Z12kprintStringPKc
 372      E7800000 
 373              	.LVL34:
  49:src/kernel/kernel_lib.cpp ****     kprintString("KERNEL_TEXT_END: "); kprintInt(KERNEL_TEXT_END,16); kprintString("\n");
 374              		.loc 1 49 5 is_stmt 1
GAS LISTING /tmp/ccBM2su7.s 			page 10


  49:src/kernel/kernel_lib.cpp ****     kprintString("KERNEL_TEXT_END: "); kprintInt(KERNEL_TEXT_END,16); kprintString("\n");
 375              		.loc 1 49 17 is_stmt 0
 376 026c 17050000 		lla	a0,.LC5
 376      13050500 
 377 0274 97000000 		call	_Z12kprintStringPKc
 377      E7800000 
 378              	.LVL35:
  49:src/kernel/kernel_lib.cpp ****     kprintString("KERNEL_TEXT_END: "); kprintInt(KERNEL_TEXT_END,16); kprintString("\n");
 379              		.loc 1 49 40 is_stmt 1
  49:src/kernel/kernel_lib.cpp ****     kprintString("KERNEL_TEXT_END: "); kprintInt(KERNEL_TEXT_END,16); kprintString("\n");
 380              		.loc 1 49 49 is_stmt 0
 381 027c 93050001 		li	a1,16
 382 0280 97070000 		lla	a5,KERNEL_TEXT_END
 382      93870700 
 383 0288 03B50700 		ld	a0,0(a5)
 384 028c 97000000 		call	_Z9kprintIntmi
 384      E7800000 
 385              	.LVL36:
  49:src/kernel/kernel_lib.cpp ****     kprintString("KERNEL_TEXT_END: "); kprintInt(KERNEL_TEXT_END,16); kprintString("\n");
 386              		.loc 1 49 71 is_stmt 1
  49:src/kernel/kernel_lib.cpp ****     kprintString("KERNEL_TEXT_END: "); kprintInt(KERNEL_TEXT_END,16); kprintString("\n");
 387              		.loc 1 49 83 is_stmt 0
 388 0294 17050000 		lla	a0,.LC2
 388      13050500 
 389 029c 97000000 		call	_Z12kprintStringPKc
 389      E7800000 
 390              	.LVL37:
  50:src/kernel/kernel_lib.cpp ****     kprintString("USER_TEXT_START: "); kprintInt(USER_TEXT_START,16); kprintString("\n");
 391              		.loc 1 50 5 is_stmt 1
  50:src/kernel/kernel_lib.cpp ****     kprintString("USER_TEXT_START: "); kprintInt(USER_TEXT_START,16); kprintString("\n");
 392              		.loc 1 50 17 is_stmt 0
 393 02a4 17050000 		lla	a0,.LC6
 393      13050500 
 394 02ac 97000000 		call	_Z12kprintStringPKc
 394      E7800000 
 395              	.LVL38:
  50:src/kernel/kernel_lib.cpp ****     kprintString("USER_TEXT_START: "); kprintInt(USER_TEXT_START,16); kprintString("\n");
 396              		.loc 1 50 40 is_stmt 1
  50:src/kernel/kernel_lib.cpp ****     kprintString("USER_TEXT_START: "); kprintInt(USER_TEXT_START,16); kprintString("\n");
 397              		.loc 1 50 49 is_stmt 0
 398 02b4 93050001 		li	a1,16
 399 02b8 97070000 		lla	a5,USER_TEXT_START
 399      93870700 
 400 02c0 03B50700 		ld	a0,0(a5)
 401 02c4 97000000 		call	_Z9kprintIntmi
 401      E7800000 
 402              	.LVL39:
  50:src/kernel/kernel_lib.cpp ****     kprintString("USER_TEXT_START: "); kprintInt(USER_TEXT_START,16); kprintString("\n");
 403              		.loc 1 50 71 is_stmt 1
  50:src/kernel/kernel_lib.cpp ****     kprintString("USER_TEXT_START: "); kprintInt(USER_TEXT_START,16); kprintString("\n");
 404              		.loc 1 50 83 is_stmt 0
 405 02cc 17050000 		lla	a0,.LC2
 405      13050500 
 406 02d4 97000000 		call	_Z12kprintStringPKc
 406      E7800000 
 407              	.LVL40:
  51:src/kernel/kernel_lib.cpp ****     kprintString("USER_TEXT_END: "); kprintInt(USER_TEXT_END,16); kprintString("\n");
GAS LISTING /tmp/ccBM2su7.s 			page 11


 408              		.loc 1 51 5 is_stmt 1
  51:src/kernel/kernel_lib.cpp ****     kprintString("USER_TEXT_END: "); kprintInt(USER_TEXT_END,16); kprintString("\n");
 409              		.loc 1 51 17 is_stmt 0
 410 02dc 17050000 		lla	a0,.LC7
 410      13050500 
 411 02e4 97000000 		call	_Z12kprintStringPKc
 411      E7800000 
 412              	.LVL41:
  51:src/kernel/kernel_lib.cpp ****     kprintString("USER_TEXT_END: "); kprintInt(USER_TEXT_END,16); kprintString("\n");
 413              		.loc 1 51 38 is_stmt 1
  51:src/kernel/kernel_lib.cpp ****     kprintString("USER_TEXT_END: "); kprintInt(USER_TEXT_END,16); kprintString("\n");
 414              		.loc 1 51 47 is_stmt 0
 415 02ec 93050001 		li	a1,16
 416 02f0 97070000 		lla	a5,USER_TEXT_END
 416      93870700 
 417 02f8 03B50700 		ld	a0,0(a5)
 418 02fc 97000000 		call	_Z9kprintIntmi
 418      E7800000 
 419              	.LVL42:
  51:src/kernel/kernel_lib.cpp ****     kprintString("USER_TEXT_END: "); kprintInt(USER_TEXT_END,16); kprintString("\n");
 420              		.loc 1 51 67 is_stmt 1
  51:src/kernel/kernel_lib.cpp ****     kprintString("USER_TEXT_END: "); kprintInt(USER_TEXT_END,16); kprintString("\n");
 421              		.loc 1 51 79 is_stmt 0
 422 0304 17050000 		lla	a0,.LC2
 422      13050500 
 423 030c 97000000 		call	_Z12kprintStringPKc
 423      E7800000 
 424              	.LVL43:
  53:src/kernel/kernel_lib.cpp ****     Riscv::w_stvec((uint64)interruptvec);
 425              		.loc 1 53 5 is_stmt 1
  53:src/kernel/kernel_lib.cpp ****     Riscv::w_stvec((uint64)interruptvec);
 426              		.loc 1 53 19 is_stmt 0
 427 0314 97070000 		lla	a5,interruptvec
 427      93870700 
 428              	.LVL44:
 429              	.LBB4:
 430              	.LBB5:
 431              		.file 2 "src/kernel/../../h/../h/riscv.hpp"
   1:src/kernel/../../h/../h/riscv.hpp **** #ifndef __riscv__
   2:src/kernel/../../h/../h/riscv.hpp **** #define __riscv__
   3:src/kernel/../../h/../h/riscv.hpp **** 
   4:src/kernel/../../h/../h/riscv.hpp **** #include"../lib/hw.h"
   5:src/kernel/../../h/../h/riscv.hpp **** 
   6:src/kernel/../../h/../h/riscv.hpp **** class Riscv{
   7:src/kernel/../../h/../h/riscv.hpp **** public:
   8:src/kernel/../../h/../h/riscv.hpp ****     
   9:src/kernel/../../h/../h/riscv.hpp ****     static void w_scause(uint64);
  10:src/kernel/../../h/../h/riscv.hpp ****     static uint64 r_scause(); 
  11:src/kernel/../../h/../h/riscv.hpp **** 
  12:src/kernel/../../h/../h/riscv.hpp ****     static void w_sepc(uint64);
  13:src/kernel/../../h/../h/riscv.hpp ****     static uint64 r_sepc();
  14:src/kernel/../../h/../h/riscv.hpp ****     static void ni_sepc();
  15:src/kernel/../../h/../h/riscv.hpp **** 
  16:src/kernel/../../h/../h/riscv.hpp ****     static void w_stvec(uint64);
  17:src/kernel/../../h/../h/riscv.hpp ****     static uint64 r_stvec();
  18:src/kernel/../../h/../h/riscv.hpp ****      
  19:src/kernel/../../h/../h/riscv.hpp ****     static void w_stval(uint64);
GAS LISTING /tmp/ccBM2su7.s 			page 12


  20:src/kernel/../../h/../h/riscv.hpp ****     static uint64 r_stval();
  21:src/kernel/../../h/../h/riscv.hpp ****     
  22:src/kernel/../../h/../h/riscv.hpp ****     enum BitMaskSip{
  23:src/kernel/../../h/../h/riscv.hpp ****         SIP_SSIE = (1<<1),
  24:src/kernel/../../h/../h/riscv.hpp ****         SIP_STIE = (1<<5),
  25:src/kernel/../../h/../h/riscv.hpp ****         SIP_SEIE = (1<<9),
  26:src/kernel/../../h/../h/riscv.hpp ****     };
  27:src/kernel/../../h/../h/riscv.hpp **** 
  28:src/kernel/../../h/../h/riscv.hpp ****     static void ms_sip(uint64);
  29:src/kernel/../../h/../h/riscv.hpp ****     static void mc_sip(uint64);
  30:src/kernel/../../h/../h/riscv.hpp **** 
  31:src/kernel/../../h/../h/riscv.hpp ****     static void w_sip(uint64);
  32:src/kernel/../../h/../h/riscv.hpp ****     static uint64 r_sip();
  33:src/kernel/../../h/../h/riscv.hpp **** 
  34:src/kernel/../../h/../h/riscv.hpp ****     enum BitMaskSstatus{
  35:src/kernel/../../h/../h/riscv.hpp ****         SSTATUS_SIE = (1<<1),
  36:src/kernel/../../h/../h/riscv.hpp ****         SSTATUS_SPIE = (1<<5),
  37:src/kernel/../../h/../h/riscv.hpp ****         SSTATUS_SPP = (1<<8),
  38:src/kernel/../../h/../h/riscv.hpp ****     };
  39:src/kernel/../../h/../h/riscv.hpp **** 
  40:src/kernel/../../h/../h/riscv.hpp ****     static void ms_sstatus(uint64);
  41:src/kernel/../../h/../h/riscv.hpp ****     static void mc_sstatus(uint64);
  42:src/kernel/../../h/../h/riscv.hpp **** 
  43:src/kernel/../../h/../h/riscv.hpp ****     static void w_sstatus(uint64);
  44:src/kernel/../../h/../h/riscv.hpp ****     static uint64 r_sstatus();
  45:src/kernel/../../h/../h/riscv.hpp **** 
  46:src/kernel/../../h/../h/riscv.hpp ****     static uint64 r_a0();
  47:src/kernel/../../h/../h/riscv.hpp ****     static uint64 s_a0(uint64 a0);
  48:src/kernel/../../h/../h/riscv.hpp ****     static uint64 r_a1();
  49:src/kernel/../../h/../h/riscv.hpp ****     static uint64 r_a2();
  50:src/kernel/../../h/../h/riscv.hpp ****     static uint64 r_a3();
  51:src/kernel/../../h/../h/riscv.hpp ****     static uint64 r_a4();
  52:src/kernel/../../h/../h/riscv.hpp **** 
  53:src/kernel/../../h/../h/riscv.hpp ****     static void popRegisters();
  54:src/kernel/../../h/../h/riscv.hpp ****     static void pushRegisters();
  55:src/kernel/../../h/../h/riscv.hpp **** 
  56:src/kernel/../../h/../h/riscv.hpp ****     static void popSppSpie();
  57:src/kernel/../../h/../h/riscv.hpp **** 
  58:src/kernel/../../h/../h/riscv.hpp ****     static void mc_cstatus(uint64 mask);
  59:src/kernel/../../h/../h/riscv.hpp ****     static bool cstatus_ready(uint64 mask);
  60:src/kernel/../../h/../h/riscv.hpp **** };
  61:src/kernel/../../h/../h/riscv.hpp **** 
  62:src/kernel/../../h/../h/riscv.hpp **** inline uint64 Riscv::r_a0(){
  63:src/kernel/../../h/../h/riscv.hpp ****     uint64 a0;
  64:src/kernel/../../h/../h/riscv.hpp ****     asm volatile("mv %0, a0" : "=r" (a0));
  65:src/kernel/../../h/../h/riscv.hpp ****     return a0;
  66:src/kernel/../../h/../h/riscv.hpp **** }
  67:src/kernel/../../h/../h/riscv.hpp **** 
  68:src/kernel/../../h/../h/riscv.hpp **** inline uint64 Riscv::r_a1(){
  69:src/kernel/../../h/../h/riscv.hpp ****     uint64 a0;
  70:src/kernel/../../h/../h/riscv.hpp ****     asm volatile("mv %0, a1" : "=r" (a0));
  71:src/kernel/../../h/../h/riscv.hpp ****     return a0;
  72:src/kernel/../../h/../h/riscv.hpp **** }
  73:src/kernel/../../h/../h/riscv.hpp **** 
  74:src/kernel/../../h/../h/riscv.hpp **** inline uint64 Riscv::r_a2(){
  75:src/kernel/../../h/../h/riscv.hpp ****     uint64 a0;
  76:src/kernel/../../h/../h/riscv.hpp ****     asm volatile("mv %0, a2" : "=r" (a0));
GAS LISTING /tmp/ccBM2su7.s 			page 13


  77:src/kernel/../../h/../h/riscv.hpp ****     return a0;
  78:src/kernel/../../h/../h/riscv.hpp **** }
  79:src/kernel/../../h/../h/riscv.hpp **** 
  80:src/kernel/../../h/../h/riscv.hpp **** inline uint64 Riscv::r_a3(){
  81:src/kernel/../../h/../h/riscv.hpp ****     uint64 a0;
  82:src/kernel/../../h/../h/riscv.hpp ****     asm volatile("mv %0, a3" : "=r" (a0));
  83:src/kernel/../../h/../h/riscv.hpp ****     return a0;
  84:src/kernel/../../h/../h/riscv.hpp **** }
  85:src/kernel/../../h/../h/riscv.hpp **** 
  86:src/kernel/../../h/../h/riscv.hpp **** inline uint64 Riscv::r_a4(){
  87:src/kernel/../../h/../h/riscv.hpp ****     uint64 a0;
  88:src/kernel/../../h/../h/riscv.hpp ****     asm volatile("mv %0, a4" : "=r" (a0));
  89:src/kernel/../../h/../h/riscv.hpp ****     return a0;
  90:src/kernel/../../h/../h/riscv.hpp **** }
  91:src/kernel/../../h/../h/riscv.hpp **** 
  92:src/kernel/../../h/../h/riscv.hpp **** 
  93:src/kernel/../../h/../h/riscv.hpp **** inline uint64 Riscv::s_a0(uint64 a0){
  94:src/kernel/../../h/../h/riscv.hpp ****     return a0;
  95:src/kernel/../../h/../h/riscv.hpp **** }
  96:src/kernel/../../h/../h/riscv.hpp **** 
  97:src/kernel/../../h/../h/riscv.hpp **** inline void Riscv::w_scause(uint64 scause){
  98:src/kernel/../../h/../h/riscv.hpp ****     asm volatile("csrw scause, %0" : : "r" (scause));
  99:src/kernel/../../h/../h/riscv.hpp **** }
 100:src/kernel/../../h/../h/riscv.hpp **** 
 101:src/kernel/../../h/../h/riscv.hpp **** inline uint64 Riscv::r_scause(){
 102:src/kernel/../../h/../h/riscv.hpp ****     uint64 volatile scause;
 103:src/kernel/../../h/../h/riscv.hpp ****     asm volatile("csrr %0, scause" : "=r" (scause));
 104:src/kernel/../../h/../h/riscv.hpp ****     return scause;
 105:src/kernel/../../h/../h/riscv.hpp **** } 
 106:src/kernel/../../h/../h/riscv.hpp **** 
 107:src/kernel/../../h/../h/riscv.hpp **** inline void Riscv::w_sepc(uint64 sepc){
 108:src/kernel/../../h/../h/riscv.hpp ****     asm volatile("csrw sepc, %0" : : "r" (sepc));
 109:src/kernel/../../h/../h/riscv.hpp **** }
 110:src/kernel/../../h/../h/riscv.hpp **** 
 111:src/kernel/../../h/../h/riscv.hpp **** inline uint64 Riscv::r_sepc(){
 112:src/kernel/../../h/../h/riscv.hpp ****     uint64 volatile sepc;
 113:src/kernel/../../h/../h/riscv.hpp ****     asm volatile("csrr %0, sepc" : "=r" (sepc));
 114:src/kernel/../../h/../h/riscv.hpp ****     return sepc;
 115:src/kernel/../../h/../h/riscv.hpp **** } 
 116:src/kernel/../../h/../h/riscv.hpp **** 
 117:src/kernel/../../h/../h/riscv.hpp **** inline void Riscv::w_stvec(uint64 stvec){
 118:src/kernel/../../h/../h/riscv.hpp ****     asm volatile("csrw stvec, %0" : : "r" (stvec));
 432              		.loc 2 118 5 is_stmt 1
 433              		.loc 2 118 51 is_stmt 0
 434              	 #APP
 435              	# 118 "src/kernel/../../h/../h/riscv.hpp" 1
 119              	}
 436              		csrw stvec, a5
 437              	# 0 "" 2
 438              	.LVL45:
 439              	 #NO_APP
 440              	.LBE5:
 441              	.LBE4:
  54:src/kernel/kernel_lib.cpp ****     kprintString("stvec initalized!\n");
 442              		.loc 1 54 5 is_stmt 1
  54:src/kernel/kernel_lib.cpp ****     kprintString("stvec initalized!\n");
 443              		.loc 1 54 17 is_stmt 0
GAS LISTING /tmp/ccBM2su7.s 			page 14


 444 0320 17050000 		lla	a0,.LC8
 444      13050500 
 445 0328 97000000 		call	_Z12kprintStringPKc
 445      E7800000 
 446              	.LVL46:
  55:src/kernel/kernel_lib.cpp ****     MemoryAllocator::getInstance();
 447              		.loc 1 55 5 is_stmt 1
  55:src/kernel/kernel_lib.cpp ****     MemoryAllocator::getInstance();
 448              		.loc 1 55 34 is_stmt 0
 449 0330 97000000 		call	_ZN15MemoryAllocator11getInstanceEv
 449      E7800000 
 450              	.LVL47:
  56:src/kernel/kernel_lib.cpp ****     kprintString("MemoryAllocator initalized!\n");
 451              		.loc 1 56 5 is_stmt 1
  56:src/kernel/kernel_lib.cpp ****     kprintString("MemoryAllocator initalized!\n");
 452              		.loc 1 56 17 is_stmt 0
 453 0338 17050000 		lla	a0,.LC9
 453      13050500 
 454 0340 97000000 		call	_Z12kprintStringPKc
 454      E7800000 
 455              	.LVL48:
  57:src/kernel/kernel_lib.cpp ****     Scheduler::initalize();
 456              		.loc 1 57 5 is_stmt 1
  57:src/kernel/kernel_lib.cpp ****     Scheduler::initalize();
 457              		.loc 1 57 25 is_stmt 0
 458 0348 97000000 		call	_ZN9Scheduler9initalizeEv
 458      E7800000 
 459              	.LVL49:
  58:src/kernel/kernel_lib.cpp ****     kprintString("Scheduler initalized!\n");
 460              		.loc 1 58 5 is_stmt 1
  58:src/kernel/kernel_lib.cpp ****     kprintString("Scheduler initalized!\n");
 461              		.loc 1 58 17 is_stmt 0
 462 0350 17050000 		lla	a0,.LC10
 462      13050500 
 463 0358 97000000 		call	_Z12kprintStringPKc
 463      E7800000 
 464              	.LVL50:
  59:src/kernel/kernel_lib.cpp ****     StdIO::initalize();
 465              		.loc 1 59 5 is_stmt 1
  59:src/kernel/kernel_lib.cpp ****     StdIO::initalize();
 466              		.loc 1 59 21 is_stmt 0
 467 0360 97000000 		call	_ZN5StdIO9initalizeEv
 467      E7800000 
 468              	.LVL51:
  60:src/kernel/kernel_lib.cpp ****     kprintString("StdIO initalized!\n");
 469              		.loc 1 60 5 is_stmt 1
  60:src/kernel/kernel_lib.cpp ****     kprintString("StdIO initalized!\n");
 470              		.loc 1 60 17 is_stmt 0
 471 0368 17050000 		lla	a0,.LC11
 471      13050500 
 472 0370 97000000 		call	_Z12kprintStringPKc
 472      E7800000 
 473              	.LVL52:
  61:src/kernel/kernel_lib.cpp ****     TCB::createMainKernelThread();
 474              		.loc 1 61 5 is_stmt 1
  61:src/kernel/kernel_lib.cpp ****     TCB::createMainKernelThread();
 475              		.loc 1 61 32 is_stmt 0
GAS LISTING /tmp/ccBM2su7.s 			page 15


 476 0378 97000000 		call	_ZN3TCB22createMainKernelThreadEv
 476      E7800000 
 477              	.LVL53:
  62:src/kernel/kernel_lib.cpp ****     kprintString("Main kenrel thread initalized!\n");
 478              		.loc 1 62 5 is_stmt 1
  62:src/kernel/kernel_lib.cpp ****     kprintString("Main kenrel thread initalized!\n");
 479              		.loc 1 62 17 is_stmt 0
 480 0380 17050000 		lla	a0,.LC12
 480      13050500 
 481 0388 97000000 		call	_Z12kprintStringPKc
 481      E7800000 
 482              	.LVL54:
  64:src/kernel/kernel_lib.cpp ****     kprintString("Initalizing user thread and idle thread...\n");
 483              		.loc 1 64 5 is_stmt 1
  64:src/kernel/kernel_lib.cpp ****     kprintString("Initalizing user thread and idle thread...\n");
 484              		.loc 1 64 17 is_stmt 0
 485 0390 17050000 		lla	a0,.LC13
 485      13050500 
 486 0398 97000000 		call	_Z12kprintStringPKc
 486      E7800000 
 487              	.LVL55:
  65:src/kernel/kernel_lib.cpp ****     uint64* userMainStack = (uint64*)kmalloc(DEFAULT_STACK_SIZE);
 488              		.loc 1 65 5 is_stmt 1
  65:src/kernel/kernel_lib.cpp ****     uint64* userMainStack = (uint64*)kmalloc(DEFAULT_STACK_SIZE);
 489              		.loc 1 65 45 is_stmt 0
 490 03a0 37150000 		li	a0,4096
 491 03a4 97000000 		call	_Z7kmallocm
 491      E7800000 
 492              	.LVL56:
 493 03ac 93040500 		mv	s1,a0
 494              	.LVL57:
  66:src/kernel/kernel_lib.cpp ****     TCB* userMainThread = TCB::createThread(userMainWrapper, nullptr, userMainStack);
 495              		.loc 1 66 5 is_stmt 1
  66:src/kernel/kernel_lib.cpp ****     TCB* userMainThread = TCB::createThread(userMainWrapper, nullptr, userMainStack);
 496              		.loc 1 66 44 is_stmt 0
 497 03b0 13060500 		mv	a2,a0
 498 03b4 93050000 		li	a1,0
 499 03b8 17050000 		lla	a0,_Z15userMainWrapperPv
 499      13050500 
 500 03c0 97000000 		call	_ZN3TCB12createThreadEPFvPvES0_Pm
 500      E7800000 
 501              	.LVL58:
 502 03c8 93090500 		mv	s3,a0
 503              	.LVL59:
  68:src/kernel/kernel_lib.cpp ****     uint64* idleThreadStack = (uint64*)kmalloc(DEFAULT_STACK_SIZE);
 504              		.loc 1 68 5 is_stmt 1
  68:src/kernel/kernel_lib.cpp ****     uint64* idleThreadStack = (uint64*)kmalloc(DEFAULT_STACK_SIZE);
 505              		.loc 1 68 47 is_stmt 0
 506 03cc 37150000 		li	a0,4096
 507              	.LVL60:
 508 03d0 97000000 		call	_Z7kmallocm
 508      E7800000 
 509              	.LVL61:
 510 03d8 13090500 		mv	s2,a0
 511              	.LVL62:
  69:src/kernel/kernel_lib.cpp ****     TCB* idleThread = TCB::createThread(idleFunction, nullptr, idleThreadStack);
 512              		.loc 1 69 5 is_stmt 1
GAS LISTING /tmp/ccBM2su7.s 			page 16


  69:src/kernel/kernel_lib.cpp ****     TCB* idleThread = TCB::createThread(idleFunction, nullptr, idleThreadStack);
 513              		.loc 1 69 40 is_stmt 0
 514 03dc 13060500 		mv	a2,a0
 515 03e0 93050000 		li	a1,0
 516 03e4 17050000 		lla	a0,_Z12idleFunctionPv
 516      13050500 
 517              	.LVL63:
 518 03ec 97000000 		call	_ZN3TCB12createThreadEPFvPvES0_Pm
 518      E7800000 
 519              	.LVL64:
  70:src/kernel/kernel_lib.cpp ****     if(userMainStack && idleThreadStack && idleThread && userMainThread)
 520              		.loc 1 70 5 is_stmt 1
 521 03f4 63880404 		beq	s1,zero,.L23
  70:src/kernel/kernel_lib.cpp ****     if(userMainStack && idleThreadStack && idleThread && userMainThread)
 522              		.loc 1 70 22 is_stmt 0 discriminator 1
 523 03f8 630A0904 		beq	s2,zero,.L24
  70:src/kernel/kernel_lib.cpp ****     if(userMainStack && idleThreadStack && idleThread && userMainThread)
 524              		.loc 1 70 41 discriminator 2
 525 03fc 630C0504 		beq	a0,zero,.L25
  70:src/kernel/kernel_lib.cpp ****     if(userMainStack && idleThreadStack && idleThread && userMainThread)
 526              		.loc 1 70 55 discriminator 3
 527 0400 638E0904 		beq	s3,zero,.L26
  71:src/kernel/kernel_lib.cpp ****         kprintString("Threads successfully initalized!\n");
 528              		.loc 1 71 9 is_stmt 1
  71:src/kernel/kernel_lib.cpp ****         kprintString("Threads successfully initalized!\n");
 529              		.loc 1 71 21 is_stmt 0
 530 0404 17050000 		lla	a0,.LC14
 530      13050500 
 531              	.LVL65:
 532 040c 97000000 		call	_Z12kprintStringPKc
 532      E7800000 
 533              	.LVL66:
  74:src/kernel/kernel_lib.cpp ****     kprintString("-----------KERNEL INITALIZED-----------\n\n");
 534              		.loc 1 74 5 is_stmt 1
  74:src/kernel/kernel_lib.cpp ****     kprintString("-----------KERNEL INITALIZED-----------\n\n");
 535              		.loc 1 74 17 is_stmt 0
 536 0414 17050000 		lla	a0,.LC15
 536      13050500 
 537 041c 97000000 		call	_Z12kprintStringPKc
 537      E7800000 
 538              	.LVL67:
  76:src/kernel/kernel_lib.cpp ****     return 0;
 539              		.loc 1 76 5 is_stmt 1
  76:src/kernel/kernel_lib.cpp ****     return 0;
 540              		.loc 1 76 12 is_stmt 0
 541 0424 13050000 		li	a0,0
 542              	.L22:
  77:src/kernel/kernel_lib.cpp **** }
 543              		.loc 1 77 1
 544 0428 83308102 		ld	ra,40(sp)
 545              		.cfi_remember_state
 546              		.cfi_restore 1
 547 042c 03340102 		ld	s0,32(sp)
 548              		.cfi_restore 8
 549              		.cfi_def_cfa 2, 48
 550 0430 83348101 		ld	s1,24(sp)
 551              		.cfi_restore 9
GAS LISTING /tmp/ccBM2su7.s 			page 17


 552              	.LVL68:
 553 0434 03390101 		ld	s2,16(sp)
 554              		.cfi_restore 18
 555              	.LVL69:
 556 0438 83398100 		ld	s3,8(sp)
 557              		.cfi_restore 19
 558              	.LVL70:
 559 043c 13010103 		addi	sp,sp,48
 560              		.cfi_def_cfa_offset 0
 561 0440 67800000 		jr	ra
 562              	.LVL71:
 563              	.L23:
 564              		.cfi_restore_state
  73:src/kernel/kernel_lib.cpp ****         return -1;
 565              		.loc 1 73 17
 566 0444 1305F0FF 		li	a0,-1
 567              	.LVL72:
 568 0448 6FF01FFE 		j	.L22
 569              	.LVL73:
 570              	.L24:
 571 044c 1305F0FF 		li	a0,-1
 572              	.LVL74:
 573 0450 6FF09FFD 		j	.L22
 574              	.LVL75:
 575              	.L25:
 576 0454 1305F0FF 		li	a0,-1
 577              	.LVL76:
 578 0458 6FF01FFD 		j	.L22
 579              	.LVL77:
 580              	.L26:
 581 045c 1305F0FF 		li	a0,-1
 582              	.LVL78:
 583 0460 6FF09FFC 		j	.L22
 584              		.cfi_endproc
 585              	.LFE96:
 587              		.globl	kdigits
 588              		.data
 589              		.align	3
 590              		.set	.LANCHOR0,. + 0
 593              	kdigits:
 594 0000 30313233 		.string	"0123456789ABCDEF"
 594      34353637 
 594      38394142 
 594      43444546 
 594      00
 595              		.section	.rodata.str1.8,"aMS",@progbits,1
 596              		.align	3
 597              	.LC0:
 598 0000 2D2D2D2D 		.string	"--------------KERNEL INIT--------------\n"
 598      2D2D2D2D 
 598      2D2D2D2D 
 598      2D2D4B45 
 598      524E454C 
 599 0029 00000000 		.zero	7
 599      000000
 600              	.LC1:
 601 0030 48454150 		.string	"HEAP_START_ADDR: "
GAS LISTING /tmp/ccBM2su7.s 			page 18


 601      5F535441 
 601      52545F41 
 601      4444523A 
 601      2000
 602 0042 00000000 		.zero	6
 602      0000
 603              	.LC2:
 604 0048 0A00     		.string	"\n"
 605 004a 00000000 		.zero	6
 605      0000
 606              	.LC3:
 607 0050 48454150 		.string	"HEAP_END_ADDR: "
 607      5F454E44 
 607      5F414444 
 607      523A2000 
 608              	.LC4:
 609 0060 4B45524E 		.string	"KERNEL_TEXT_START: "
 609      454C5F54 
 609      4558545F 
 609      53544152 
 609      543A2000 
 610 0074 00000000 		.zero	4
 611              	.LC5:
 612 0078 4B45524E 		.string	"KERNEL_TEXT_END: "
 612      454C5F54 
 612      4558545F 
 612      454E443A 
 612      2000
 613 008a 00000000 		.zero	6
 613      0000
 614              	.LC6:
 615 0090 55534552 		.string	"USER_TEXT_START: "
 615      5F544558 
 615      545F5354 
 615      4152543A 
 615      2000
 616 00a2 00000000 		.zero	6
 616      0000
 617              	.LC7:
 618 00a8 55534552 		.string	"USER_TEXT_END: "
 618      5F544558 
 618      545F454E 
 618      443A2000 
 619              	.LC8:
 620 00b8 73747665 		.string	"stvec initalized!\n"
 620      6320696E 
 620      6974616C 
 620      697A6564 
 620      210A00
 621 00cb 00000000 		.zero	5
 621      00
 622              	.LC9:
 623 00d0 4D656D6F 		.string	"MemoryAllocator initalized!\n"
 623      7279416C 
 623      6C6F6361 
 623      746F7220 
 623      696E6974 
GAS LISTING /tmp/ccBM2su7.s 			page 19


 624 00ed 000000   		.zero	3
 625              	.LC10:
 626 00f0 53636865 		.string	"Scheduler initalized!\n"
 626      64756C65 
 626      7220696E 
 626      6974616C 
 626      697A6564 
 627 0107 00       		.zero	1
 628              	.LC11:
 629 0108 53746449 		.string	"StdIO initalized!\n"
 629      4F20696E 
 629      6974616C 
 629      697A6564 
 629      210A00
 630 011b 00000000 		.zero	5
 630      00
 631              	.LC12:
 632 0120 4D61696E 		.string	"Main kenrel thread initalized!\n"
 632      206B656E 
 632      72656C20 
 632      74687265 
 632      61642069 
 633              	.LC13:
 634 0140 496E6974 		.string	"Initalizing user thread and idle thread...\n"
 634      616C697A 
 634      696E6720 
 634      75736572 
 634      20746872 
 635 016c 00000000 		.zero	4
 636              	.LC14:
 637 0170 54687265 		.string	"Threads successfully initalized!\n"
 637      61647320 
 637      73756363 
 637      65737366 
 637      756C6C79 
 638 0192 00000000 		.zero	6
 638      0000
 639              	.LC15:
 640 0198 2D2D2D2D 		.string	"-----------KERNEL INITALIZED-----------\n\n"
 640      2D2D2D2D 
 640      2D2D2D4B 
 640      45524E45 
 640      4C20494E 
 641              		.text
 642              	.Letext0:
 643              		.file 3 "src/kernel/../../h/../h/../lib/hw.h"
 644              		.file 4 "src/kernel/../../h/../h/../h/memory_allocator.hpp"
 645              		.file 5 "src/kernel/../../h/../h/ptr_queue.hpp"
 646              		.file 6 "src/kernel/../../h/../h/../h/kernel_operators.hpp"
 647              		.file 7 "src/kernel/../../h/../h/tcb.hpp"
 648              		.file 8 "src/kernel/../../h/../h/ksemaphore.hpp"
 649              		.file 9 "src/kernel/../../h/../h/stdio.hpp"
 650              		.file 10 "src/kernel/../../h/../h/scheduler.hpp"
 651              		.file 11 "src/kernel/../../h/../h/syscall_c.h"
 652              		.file 12 "src/kernel/../../h/../h/kernel_funs.h"
GAS LISTING /tmp/ccBM2su7.s 			page 20


DEFINED SYMBOLS
                            *ABS*:0000000000000000 kernel_lib.cpp
     /tmp/ccBM2su7.s:12     .text:0000000000000000 _Z15userMainWrapperPv
     /tmp/ccBM2su7.s:16     .text:0000000000000000 .L0 
     /tmp/ccBM2su7.s:17     .text:0000000000000000 .L0 
     /tmp/ccBM2su7.s:18     .text:0000000000000004 .L0 
     /tmp/ccBM2su7.s:21     .text:000000000000000c .L0 
     /tmp/ccBM2su7.s:22     .text:000000000000000c .L0 
     /tmp/ccBM2su7.s:24     .text:0000000000000010 .L0 
     /tmp/ccBM2su7.s:26     .text:0000000000000010 .L0 
     /tmp/ccBM2su7.s:27     .text:0000000000000010 .L0 
     /tmp/ccBM2su7.s:30     .text:0000000000000018 .L0 
     /tmp/ccBM2su7.s:31     .text:000000000000001c .L0 
     /tmp/ccBM2su7.s:33     .text:0000000000000020 .L0 
     /tmp/ccBM2su7.s:34     .text:0000000000000020 .L0 
     /tmp/ccBM2su7.s:36     .text:0000000000000024 .L0 
     /tmp/ccBM2su7.s:38     .text:0000000000000028 .L0 
     /tmp/ccBM2su7.s:44     .text:0000000000000028 _Z12idleFunctionPv
     /tmp/ccBM2su7.s:47     .text:0000000000000028 .L0 
     /tmp/ccBM2su7.s:48     .text:0000000000000028 .L0 
     /tmp/ccBM2su7.s:49     .text:000000000000002c .L0 
     /tmp/ccBM2su7.s:52     .text:0000000000000034 .L0 
     /tmp/ccBM2su7.s:53     .text:0000000000000034 .L0 
     /tmp/ccBM2su7.s:55     .text:0000000000000038 .L0 
     /tmp/ccBM2su7.s:58     .text:0000000000000038 .L0 
     /tmp/ccBM2su7.s:59     .text:0000000000000038 .L0 
     /tmp/ccBM2su7.s:60     .text:0000000000000038 .L0 
     /tmp/ccBM2su7.s:63     .text:0000000000000044 .L0 
     /tmp/ccBM2su7.s:69     .text:0000000000000044 _Z7kmallocm
     /tmp/ccBM2su7.s:72     .text:0000000000000044 .L0 
     /tmp/ccBM2su7.s:74     .text:0000000000000044 .L0 
     /tmp/ccBM2su7.s:75     .text:0000000000000048 .L0 
     /tmp/ccBM2su7.s:79     .text:0000000000000054 .L0 
     /tmp/ccBM2su7.s:80     .text:0000000000000054 .L0 
     /tmp/ccBM2su7.s:81     .text:0000000000000054 .L0 
     /tmp/ccBM2su7.s:83     .text:0000000000000058 .L0 
     /tmp/ccBM2su7.s:85     .text:0000000000000058 .L0 
     /tmp/ccBM2su7.s:86     .text:0000000000000058 .L0 
     /tmp/ccBM2su7.s:88     .text:000000000000005c .L0 
     /tmp/ccBM2su7.s:90     .text:0000000000000060 .L0 
     /tmp/ccBM2su7.s:93     .text:0000000000000064 .L0 
     /tmp/ccBM2su7.s:94     .text:0000000000000064 .L0 
     /tmp/ccBM2su7.s:97     .text:000000000000006c .L0 
     /tmp/ccBM2su7.s:101    .text:0000000000000078 .L0 
     /tmp/ccBM2su7.s:102    .text:000000000000007c .L0 
     /tmp/ccBM2su7.s:104    .text:0000000000000080 .L0 
     /tmp/ccBM2su7.s:105    .text:0000000000000080 .L0 
     /tmp/ccBM2su7.s:107    .text:0000000000000084 .L0 
     /tmp/ccBM2su7.s:110    .text:0000000000000088 .L0 
     /tmp/ccBM2su7.s:112    .text:000000000000008c .L0 
     /tmp/ccBM2su7.s:118    .text:000000000000008c _Z5kputcc
     /tmp/ccBM2su7.s:121    .text:000000000000008c .L0 
     /tmp/ccBM2su7.s:123    .text:000000000000008c .L0 
     /tmp/ccBM2su7.s:124    .text:0000000000000090 .L0 
     /tmp/ccBM2su7.s:126    .text:0000000000000094 .L0 
     /tmp/ccBM2su7.s:128    .text:0000000000000098 .L0 
     /tmp/ccBM2su7.s:130    .text:0000000000000098 .L0 
GAS LISTING /tmp/ccBM2su7.s 			page 21


     /tmp/ccBM2su7.s:131    .text:0000000000000098 .L0 
     /tmp/ccBM2su7.s:135    .text:00000000000000a4 .L0 
     /tmp/ccBM2su7.s:140    .text:00000000000000b0 .L0 
     /tmp/ccBM2su7.s:141    .text:00000000000000b0 .L0 
     /tmp/ccBM2su7.s:143    .text:00000000000000b4 .L0 
     /tmp/ccBM2su7.s:146    .text:00000000000000bc .L0 
     /tmp/ccBM2su7.s:147    .text:00000000000000bc .L0 
     /tmp/ccBM2su7.s:149    .text:00000000000000c0 .L0 
     /tmp/ccBM2su7.s:150    .text:00000000000000c4 .L0 
     /tmp/ccBM2su7.s:151    .text:00000000000000c4 .L0 
     /tmp/ccBM2su7.s:153    .text:00000000000000c8 .L0 
     /tmp/ccBM2su7.s:155    .text:00000000000000cc .L0 
     /tmp/ccBM2su7.s:161    .text:00000000000000cc _Z12kprintStringPKc
     /tmp/ccBM2su7.s:164    .text:00000000000000cc .L0 
     /tmp/ccBM2su7.s:166    .text:00000000000000cc .L0 
     /tmp/ccBM2su7.s:167    .text:00000000000000d0 .L0 
     /tmp/ccBM2su7.s:171    .text:00000000000000dc .L0 
     /tmp/ccBM2su7.s:172    .text:00000000000000dc .L0 
     /tmp/ccBM2su7.s:173    .text:00000000000000dc .L0 
     /tmp/ccBM2su7.s:175    .text:00000000000000e0 .L0 
     /tmp/ccBM2su7.s:178    .text:00000000000000e4 .L0 
     /tmp/ccBM2su7.s:182    .text:00000000000000e8 .L0 
     /tmp/ccBM2su7.s:183    .text:00000000000000e8 .L0 
     /tmp/ccBM2su7.s:185    .text:00000000000000ec .L0 
     /tmp/ccBM2su7.s:187    .text:00000000000000f0 .L0 
     /tmp/ccBM2su7.s:188    .text:00000000000000f0 .L0 
     /tmp/ccBM2su7.s:191    .text:00000000000000f8 .L0 
     /tmp/ccBM2su7.s:192    .text:00000000000000f8 .L0 
     /tmp/ccBM2su7.s:195    .text:00000000000000fc .L0 
     /tmp/ccBM2su7.s:198    .text:0000000000000100 .L0 
     /tmp/ccBM2su7.s:199    .text:0000000000000104 .L0 
     /tmp/ccBM2su7.s:201    .text:0000000000000108 .L0 
     /tmp/ccBM2su7.s:202    .text:0000000000000108 .L0 
     /tmp/ccBM2su7.s:204    .text:000000000000010c .L0 
     /tmp/ccBM2su7.s:207    .text:0000000000000110 .L0 
     /tmp/ccBM2su7.s:209    .text:0000000000000114 .L0 
     /tmp/ccBM2su7.s:215    .text:0000000000000114 _Z9kprintIntmi
     /tmp/ccBM2su7.s:218    .text:0000000000000114 .L0 
     /tmp/ccBM2su7.s:220    .text:0000000000000114 .L0 
     /tmp/ccBM2su7.s:221    .text:0000000000000118 .L0 
     /tmp/ccBM2su7.s:225    .text:0000000000000124 .L0 
     /tmp/ccBM2su7.s:226    .text:0000000000000124 .L0 
     /tmp/ccBM2su7.s:227    .text:0000000000000124 .L0 
     /tmp/ccBM2su7.s:229    .text:0000000000000128 .L0 
     /tmp/ccBM2su7.s:231    .text:0000000000000128 .L0 
     /tmp/ccBM2su7.s:232    .text:0000000000000128 .L0 
     /tmp/ccBM2su7.s:234    .text:0000000000000128 .L0 
     /tmp/ccBM2su7.s:235    .text:0000000000000128 .L0 
     /tmp/ccBM2su7.s:240    .text:0000000000000130 .L0 
     /tmp/ccBM2su7.s:244    .text:0000000000000134 .L0 
     /tmp/ccBM2su7.s:245    .text:0000000000000134 .L0 
     /tmp/ccBM2su7.s:246    .text:0000000000000134 .L0 
     /tmp/ccBM2su7.s:248    .text:0000000000000138 .L0 
     /tmp/ccBM2su7.s:251    .text:000000000000013c .L0 
     /tmp/ccBM2su7.s:255    .text:000000000000014c .L0 
     /tmp/ccBM2su7.s:260    .text:0000000000000158 .L0 
     /tmp/ccBM2su7.s:263    .text:000000000000015c .L0 
GAS LISTING /tmp/ccBM2su7.s 			page 22


     /tmp/ccBM2su7.s:265    .text:0000000000000160 .L0 
     /tmp/ccBM2su7.s:269    .text:0000000000000164 .L0 
     /tmp/ccBM2su7.s:270    .text:0000000000000164 .L0 
     /tmp/ccBM2su7.s:274    .text:000000000000016c .L0 
     /tmp/ccBM2su7.s:275    .text:000000000000016c .L0 
     /tmp/ccBM2su7.s:281    .text:0000000000000180 .L0 
     /tmp/ccBM2su7.s:284    .text:0000000000000184 .L0 
     /tmp/ccBM2su7.s:285    .text:0000000000000188 .L0 
     /tmp/ccBM2su7.s:287    .text:000000000000018c .L0 
     /tmp/ccBM2su7.s:288    .text:000000000000018c .L0 
     /tmp/ccBM2su7.s:290    .text:0000000000000190 .L0 
     /tmp/ccBM2su7.s:292    .text:0000000000000194 .L0 
     /tmp/ccBM2su7.s:294    .text:0000000000000198 .L0 
     /tmp/ccBM2su7.s:300    .text:0000000000000198 _Z10kernelInitv
     /tmp/ccBM2su7.s:303    .text:0000000000000198 .L0 
     /tmp/ccBM2su7.s:304    .text:0000000000000198 .L0 
     /tmp/ccBM2su7.s:305    .text:000000000000019c .L0 
     /tmp/ccBM2su7.s:311    .text:00000000000001b0 .L0 
     /tmp/ccBM2su7.s:312    .text:00000000000001b0 .L0 
     /tmp/ccBM2su7.s:313    .text:00000000000001b0 .L0 
     /tmp/ccBM2su7.s:314    .text:00000000000001b0 .L0 
     /tmp/ccBM2su7.s:315    .text:00000000000001b0 .L0 
     /tmp/ccBM2su7.s:317    .text:00000000000001b4 .L0 
     /tmp/ccBM2su7.s:319    .text:00000000000001b4 .L0 
     /tmp/ccBM2su7.s:320    .text:00000000000001b4 .L0 
     /tmp/ccBM2su7.s:324    .text:00000000000001c4 .L0 
     /tmp/ccBM2su7.s:325    .text:00000000000001c4 .L0 
     /tmp/ccBM2su7.s:329    .text:00000000000001d4 .L0 
     /tmp/ccBM2su7.s:330    .text:00000000000001d4 .L0 
     /tmp/ccBM2su7.s:336    .text:00000000000001ec .L0 
     /tmp/ccBM2su7.s:337    .text:00000000000001ec .L0 
     /tmp/ccBM2su7.s:341    .text:00000000000001fc .L0 
     /tmp/ccBM2su7.s:342    .text:00000000000001fc .L0 
     /tmp/ccBM2su7.s:346    .text:000000000000020c .L0 
     /tmp/ccBM2su7.s:347    .text:000000000000020c .L0 
     /tmp/ccBM2su7.s:353    .text:0000000000000224 .L0 
     /tmp/ccBM2su7.s:354    .text:0000000000000224 .L0 
     /tmp/ccBM2su7.s:358    .text:0000000000000234 .L0 
     /tmp/ccBM2su7.s:359    .text:0000000000000234 .L0 
     /tmp/ccBM2su7.s:363    .text:0000000000000244 .L0 
     /tmp/ccBM2su7.s:364    .text:0000000000000244 .L0 
     /tmp/ccBM2su7.s:370    .text:000000000000025c .L0 
     /tmp/ccBM2su7.s:371    .text:000000000000025c .L0 
     /tmp/ccBM2su7.s:375    .text:000000000000026c .L0 
     /tmp/ccBM2su7.s:376    .text:000000000000026c .L0 
     /tmp/ccBM2su7.s:380    .text:000000000000027c .L0 
     /tmp/ccBM2su7.s:381    .text:000000000000027c .L0 
     /tmp/ccBM2su7.s:387    .text:0000000000000294 .L0 
     /tmp/ccBM2su7.s:388    .text:0000000000000294 .L0 
     /tmp/ccBM2su7.s:392    .text:00000000000002a4 .L0 
     /tmp/ccBM2su7.s:393    .text:00000000000002a4 .L0 
     /tmp/ccBM2su7.s:397    .text:00000000000002b4 .L0 
     /tmp/ccBM2su7.s:398    .text:00000000000002b4 .L0 
     /tmp/ccBM2su7.s:404    .text:00000000000002cc .L0 
     /tmp/ccBM2su7.s:405    .text:00000000000002cc .L0 
     /tmp/ccBM2su7.s:409    .text:00000000000002dc .L0 
     /tmp/ccBM2su7.s:410    .text:00000000000002dc .L0 
GAS LISTING /tmp/ccBM2su7.s 			page 23


     /tmp/ccBM2su7.s:414    .text:00000000000002ec .L0 
     /tmp/ccBM2su7.s:415    .text:00000000000002ec .L0 
     /tmp/ccBM2su7.s:421    .text:0000000000000304 .L0 
     /tmp/ccBM2su7.s:422    .text:0000000000000304 .L0 
     /tmp/ccBM2su7.s:426    .text:0000000000000314 .L0 
     /tmp/ccBM2su7.s:427    .text:0000000000000314 .L0 
     /tmp/ccBM2su7.s:433    .text:000000000000031c .L0 
src/kernel/../../h/../h/riscv.hpp:118    .text:000000000000031c .L0 
     /tmp/ccBM2su7.s:443    .text:0000000000000320 .L0 
     /tmp/ccBM2su7.s:444    .text:0000000000000320 .L0 
     /tmp/ccBM2su7.s:448    .text:0000000000000330 .L0 
     /tmp/ccBM2su7.s:449    .text:0000000000000330 .L0 
     /tmp/ccBM2su7.s:452    .text:0000000000000338 .L0 
     /tmp/ccBM2su7.s:453    .text:0000000000000338 .L0 
     /tmp/ccBM2su7.s:457    .text:0000000000000348 .L0 
     /tmp/ccBM2su7.s:458    .text:0000000000000348 .L0 
     /tmp/ccBM2su7.s:461    .text:0000000000000350 .L0 
     /tmp/ccBM2su7.s:462    .text:0000000000000350 .L0 
     /tmp/ccBM2su7.s:466    .text:0000000000000360 .L0 
     /tmp/ccBM2su7.s:467    .text:0000000000000360 .L0 
     /tmp/ccBM2su7.s:470    .text:0000000000000368 .L0 
     /tmp/ccBM2su7.s:471    .text:0000000000000368 .L0 
     /tmp/ccBM2su7.s:475    .text:0000000000000378 .L0 
     /tmp/ccBM2su7.s:476    .text:0000000000000378 .L0 
     /tmp/ccBM2su7.s:479    .text:0000000000000380 .L0 
     /tmp/ccBM2su7.s:480    .text:0000000000000380 .L0 
     /tmp/ccBM2su7.s:484    .text:0000000000000390 .L0 
     /tmp/ccBM2su7.s:485    .text:0000000000000390 .L0 
     /tmp/ccBM2su7.s:489    .text:00000000000003a0 .L0 
     /tmp/ccBM2su7.s:490    .text:00000000000003a0 .L0 
     /tmp/ccBM2su7.s:496    .text:00000000000003b0 .L0 
     /tmp/ccBM2su7.s:497    .text:00000000000003b0 .L0 
     /tmp/ccBM2su7.s:505    .text:00000000000003cc .L0 
     /tmp/ccBM2su7.s:506    .text:00000000000003cc .L0 
     /tmp/ccBM2su7.s:513    .text:00000000000003dc .L0 
     /tmp/ccBM2su7.s:514    .text:00000000000003dc .L0 
     /tmp/ccBM2su7.s:521    .text:00000000000003f4 .L0 
     /tmp/ccBM2su7.s:523    .text:00000000000003f8 .L0 
     /tmp/ccBM2su7.s:525    .text:00000000000003fc .L0 
     /tmp/ccBM2su7.s:527    .text:0000000000000400 .L0 
     /tmp/ccBM2su7.s:529    .text:0000000000000404 .L0 
     /tmp/ccBM2su7.s:530    .text:0000000000000404 .L0 
     /tmp/ccBM2su7.s:535    .text:0000000000000414 .L0 
     /tmp/ccBM2su7.s:536    .text:0000000000000414 .L0 
     /tmp/ccBM2su7.s:540    .text:0000000000000424 .L0 
     /tmp/ccBM2su7.s:541    .text:0000000000000424 .L0 
     /tmp/ccBM2su7.s:544    .text:0000000000000428 .L0 
     /tmp/ccBM2su7.s:545    .text:000000000000042c .L0 
     /tmp/ccBM2su7.s:546    .text:000000000000042c .L0 
     /tmp/ccBM2su7.s:548    .text:0000000000000430 .L0 
     /tmp/ccBM2su7.s:549    .text:0000000000000430 .L0 
     /tmp/ccBM2su7.s:551    .text:0000000000000434 .L0 
     /tmp/ccBM2su7.s:554    .text:0000000000000438 .L0 
     /tmp/ccBM2su7.s:557    .text:000000000000043c .L0 
     /tmp/ccBM2su7.s:560    .text:0000000000000440 .L0 
     /tmp/ccBM2su7.s:564    .text:0000000000000444 .L0 
     /tmp/ccBM2su7.s:566    .text:0000000000000444 .L0 
GAS LISTING /tmp/ccBM2su7.s 			page 24


     /tmp/ccBM2su7.s:584    .text:0000000000000464 .L0 
     /tmp/ccBM2su7.s:593    .data:0000000000000000 kdigits
     /tmp/ccBM2su7.s:590    .data:0000000000000000 .LANCHOR0
     /tmp/ccBM2su7.s:653    .text:0000000000000464 .L0 
     /tmp/ccBM2su7.s:131    .text:0000000000000098 .L0 
     /tmp/ccBM2su7.s:135    .text:00000000000000a4 .L0 
     /tmp/ccBM2su7.s:251    .text:000000000000013c .L0 
     /tmp/ccBM2su7.s:597    .rodata.str1.8:0000000000000000 .LC0
     /tmp/ccBM2su7.s:320    .text:00000000000001b4 .L0 
     /tmp/ccBM2su7.s:600    .rodata.str1.8:0000000000000030 .LC1
     /tmp/ccBM2su7.s:325    .text:00000000000001c4 .L0 
     /tmp/ccBM2su7.s:331    .text:00000000000001d8 .L0 
     /tmp/ccBM2su7.s:603    .rodata.str1.8:0000000000000048 .LC2
     /tmp/ccBM2su7.s:337    .text:00000000000001ec .L0 
     /tmp/ccBM2su7.s:606    .rodata.str1.8:0000000000000050 .LC3
     /tmp/ccBM2su7.s:342    .text:00000000000001fc .L0 
     /tmp/ccBM2su7.s:348    .text:0000000000000210 .L0 
     /tmp/ccBM2su7.s:354    .text:0000000000000224 .L0 
     /tmp/ccBM2su7.s:608    .rodata.str1.8:0000000000000060 .LC4
     /tmp/ccBM2su7.s:359    .text:0000000000000234 .L0 
     /tmp/ccBM2su7.s:365    .text:0000000000000248 .L0 
     /tmp/ccBM2su7.s:371    .text:000000000000025c .L0 
     /tmp/ccBM2su7.s:611    .rodata.str1.8:0000000000000078 .LC5
     /tmp/ccBM2su7.s:376    .text:000000000000026c .L0 
     /tmp/ccBM2su7.s:382    .text:0000000000000280 .L0 
     /tmp/ccBM2su7.s:388    .text:0000000000000294 .L0 
     /tmp/ccBM2su7.s:614    .rodata.str1.8:0000000000000090 .LC6
     /tmp/ccBM2su7.s:393    .text:00000000000002a4 .L0 
     /tmp/ccBM2su7.s:399    .text:00000000000002b8 .L0 
     /tmp/ccBM2su7.s:405    .text:00000000000002cc .L0 
     /tmp/ccBM2su7.s:617    .rodata.str1.8:00000000000000a8 .LC7
     /tmp/ccBM2su7.s:410    .text:00000000000002dc .L0 
     /tmp/ccBM2su7.s:416    .text:00000000000002f0 .L0 
     /tmp/ccBM2su7.s:422    .text:0000000000000304 .L0 
     /tmp/ccBM2su7.s:427    .text:0000000000000314 .L0 
     /tmp/ccBM2su7.s:619    .rodata.str1.8:00000000000000b8 .LC8
     /tmp/ccBM2su7.s:444    .text:0000000000000320 .L0 
     /tmp/ccBM2su7.s:622    .rodata.str1.8:00000000000000d0 .LC9
     /tmp/ccBM2su7.s:453    .text:0000000000000338 .L0 
     /tmp/ccBM2su7.s:625    .rodata.str1.8:00000000000000f0 .LC10
     /tmp/ccBM2su7.s:462    .text:0000000000000350 .L0 
     /tmp/ccBM2su7.s:628    .rodata.str1.8:0000000000000108 .LC11
     /tmp/ccBM2su7.s:471    .text:0000000000000368 .L0 
     /tmp/ccBM2su7.s:631    .rodata.str1.8:0000000000000120 .LC12
     /tmp/ccBM2su7.s:480    .text:0000000000000380 .L0 
     /tmp/ccBM2su7.s:633    .rodata.str1.8:0000000000000140 .LC13
     /tmp/ccBM2su7.s:485    .text:0000000000000390 .L0 
     /tmp/ccBM2su7.s:499    .text:00000000000003b8 .L0 
     /tmp/ccBM2su7.s:516    .text:00000000000003e4 .L0 
     /tmp/ccBM2su7.s:636    .rodata.str1.8:0000000000000170 .LC14
     /tmp/ccBM2su7.s:530    .text:0000000000000404 .L0 
     /tmp/ccBM2su7.s:639    .rodata.str1.8:0000000000000198 .LC15
     /tmp/ccBM2su7.s:536    .text:0000000000000414 .L0 
     /tmp/ccBM2su7.s:56     .text:0000000000000038 .L4
     /tmp/ccBM2su7.s:138    .text:00000000000000b0 .L9
     /tmp/ccBM2su7.s:196    .text:0000000000000100 .L11
     /tmp/ccBM2su7.s:180    .text:00000000000000e8 .L13
GAS LISTING /tmp/ccBM2su7.s 			page 25


     /tmp/ccBM2su7.s:242    .text:0000000000000134 .L16
     /tmp/ccBM2su7.s:238    .text:0000000000000130 .L19
     /tmp/ccBM2su7.s:282    .text:0000000000000184 .L15
     /tmp/ccBM2su7.s:267    .text:0000000000000164 .L18
     /tmp/ccBM2su7.s:563    .text:0000000000000444 .L23
     /tmp/ccBM2su7.s:570    .text:000000000000044c .L24
     /tmp/ccBM2su7.s:575    .text:0000000000000454 .L25
     /tmp/ccBM2su7.s:580    .text:000000000000045c .L26
     /tmp/ccBM2su7.s:542    .text:0000000000000428 .L22
     /tmp/ccBM2su7.s:3117   .debug_abbrev:0000000000000000 .Ldebug_abbrev0
     /tmp/ccBM2su7.s:4762   .debug_str:000000000000070f .LASF287
     /tmp/ccBM2su7.s:4698   .debug_str:000000000000051c .LASF288
     /tmp/ccBM2su7.s:4918   .debug_str:0000000000000c9b .LASF289
     /tmp/ccBM2su7.s:8      .text:0000000000000000 .Ltext0
     /tmp/ccBM2su7.s:642    .text:0000000000000464 .Letext0
     /tmp/ccBM2su7.s:4528   .debug_line:0000000000000000 .Ldebug_line0
     /tmp/ccBM2su7.s:4732   .debug_str:0000000000000640 .LASF0
     /tmp/ccBM2su7.s:4774   .debug_str:000000000000080e .LASF1
     /tmp/ccBM2su7.s:4928   .debug_str:0000000000000d00 .LASF2
     /tmp/ccBM2su7.s:4942   .debug_str:0000000000000d70 .LASF4
     /tmp/ccBM2su7.s:4750   .debug_str:00000000000006b7 .LASF3
     /tmp/ccBM2su7.s:4550   .debug_str:00000000000000b0 .LASF5
     /tmp/ccBM2su7.s:4892   .debug_str:0000000000000bda .LASF6
     /tmp/ccBM2su7.s:4880   .debug_str:0000000000000b8c .LASF7
     /tmp/ccBM2su7.s:4764   .debug_str:00000000000007d3 .LASF8
     /tmp/ccBM2su7.s:4686   .debug_str:00000000000004ca .LASF9
     /tmp/ccBM2su7.s:4704   .debug_str:0000000000000552 .LASF10
     /tmp/ccBM2su7.s:4604   .debug_str:0000000000000249 .LASF11
     /tmp/ccBM2su7.s:4672   .debug_str:000000000000047f .LASF12
     /tmp/ccBM2su7.s:4620   .debug_str:0000000000000298 .LASF13
     /tmp/ccBM2su7.s:4602   .debug_str:0000000000000239 .LASF14
     /tmp/ccBM2su7.s:4990   .debug_str:0000000000000ed5 .LASF15
     /tmp/ccBM2su7.s:4652   .debug_str:00000000000003b5 .LASF16
     /tmp/ccBM2su7.s:4974   .debug_str:0000000000000e58 .LASF17
     /tmp/ccBM2su7.s:4684   .debug_str:00000000000004be .LASF290
     /tmp/ccBM2su7.s:4606   .debug_str:0000000000000258 .LASF18
     /tmp/ccBM2su7.s:4772   .debug_str:0000000000000809 .LASF19
     /tmp/ccBM2su7.s:4872   .debug_str:0000000000000b55 .LASF23
     /tmp/ccBM2su7.s:4576   .debug_str:0000000000000178 .LASF20
     /tmp/ccBM2su7.s:4970   .debug_str:0000000000000e3b .LASF21
     /tmp/ccBM2su7.s:4854   .debug_str:0000000000000ad4 .LASF22
     /tmp/ccBM2su7.s:5054   .debug_str:00000000000010d7 .LASF126
     /tmp/ccBM2su7.s:4568   .debug_str:0000000000000129 .LASF25
     /tmp/ccBM2su7.s:4876   .debug_str:0000000000000b6c .LASF24
     /tmp/ccBM2su7.s:4780   .debug_str:000000000000085a .LASF26
     /tmp/ccBM2su7.s:4746   .debug_str:0000000000000695 .LASF27
     /tmp/ccBM2su7.s:5014   .debug_str:0000000000000f8b .LASF28
     /tmp/ccBM2su7.s:4756   .debug_str:00000000000006e0 .LASF34
     /tmp/ccBM2su7.s:5074   .debug_str:0000000000001177 .LASF29
     /tmp/ccBM2su7.s:5102   .debug_str:0000000000001244 .LASF31
     /tmp/ccBM2su7.s:4932   .debug_str:0000000000000d15 .LASF30
     /tmp/ccBM2su7.s:5058   .debug_str:00000000000010eb .LASF32
     /tmp/ccBM2su7.s:4662   .debug_str:000000000000041e .LASF33
     /tmp/ccBM2su7.s:4720   .debug_str:00000000000005ce .LASF35
     /tmp/ccBM2su7.s:5092   .debug_str:00000000000011ee .LASF114
     /tmp/ccBM2su7.s:4828   .debug_str:00000000000009f0 .LASF116
     /tmp/ccBM2su7.s:4826   .debug_str:00000000000009e6 .LASF36
GAS LISTING /tmp/ccBM2su7.s 			page 26


     /tmp/ccBM2su7.s:4554   .debug_str:00000000000000c2 .LASF37
     /tmp/ccBM2su7.s:5000   .debug_str:0000000000000f32 .LASF38
     /tmp/ccBM2su7.s:4668   .debug_str:000000000000044d .LASF39
     /tmp/ccBM2su7.s:5080   .debug_str:0000000000001198 .LASF40
     /tmp/ccBM2su7.s:4634   .debug_str:0000000000000327 .LASF41
     /tmp/ccBM2su7.s:4626   .debug_str:00000000000002e5 .LASF47
     /tmp/ccBM2su7.s:4582   .debug_str:000000000000019c .LASF49
     /tmp/ccBM2su7.s:4804   .debug_str:0000000000000946 .LASF42
     /tmp/ccBM2su7.s:5044   .debug_str:000000000000109b .LASF43
     /tmp/ccBM2su7.s:4980   .debug_str:0000000000000e8d .LASF44
     /tmp/ccBM2su7.s:4846   .debug_str:0000000000000a9d .LASF45
     /tmp/ccBM2su7.s:5034   .debug_str:000000000000104c .LASF46
     /tmp/ccBM2su7.s:5050   .debug_str:00000000000010ba .LASF48
     /tmp/ccBM2su7.s:4788   .debug_str:00000000000008b7 .LASF50
     /tmp/ccBM2su7.s:5116   .debug_str:00000000000012b8 .LASF51
     /tmp/ccBM2su7.s:4824   .debug_str:00000000000009d5 .LASF52
     /tmp/ccBM2su7.s:4590   .debug_str:00000000000001e1 .LASF53
     /tmp/ccBM2su7.s:4806   .debug_str:000000000000094b .LASF54
     /tmp/ccBM2su7.s:4540   .debug_str:000000000000004e .LASF55
     /tmp/ccBM2su7.s:4822   .debug_str:00000000000009c3 .LASF56
     /tmp/ccBM2su7.s:4972   .debug_str:0000000000000e45 .LASF57
     /tmp/ccBM2su7.s:4882   .debug_str:0000000000000b9f .LASF58
     /tmp/ccBM2su7.s:4728   .debug_str:0000000000000622 .LASF59
     /tmp/ccBM2su7.s:4930   .debug_str:0000000000000d0e .LASF60
     /tmp/ccBM2su7.s:4982   .debug_str:0000000000000e92 .LASF61
     /tmp/ccBM2su7.s:4726   .debug_str:000000000000061b .LASF62
     /tmp/ccBM2su7.s:4778   .debug_str:0000000000000840 .LASF63
     /tmp/ccBM2su7.s:4538   .debug_str:0000000000000047 .LASF64
     /tmp/ccBM2su7.s:4910   .debug_str:0000000000000c4d .LASF65
     /tmp/ccBM2su7.s:4940   .debug_str:0000000000000d5d .LASF291
     /tmp/ccBM2su7.s:4744   .debug_str:000000000000068d .LASF66
     /tmp/ccBM2su7.s:5096   .debug_str:0000000000001206 .LASF67
     /tmp/ccBM2su7.s:4648   .debug_str:0000000000000394 .LASF68
     /tmp/ccBM2su7.s:4718   .debug_str:00000000000005b3 .LASF69
     /tmp/ccBM2su7.s:4712   .debug_str:000000000000058e .LASF70
     /tmp/ccBM2su7.s:4998   .debug_str:0000000000000f07 .LASF71
     /tmp/ccBM2su7.s:4616   .debug_str:0000000000000287 .LASF72
     /tmp/ccBM2su7.s:4532   .debug_str:000000000000001a .LASF73
     /tmp/ccBM2su7.s:5006   .debug_str:0000000000000f5b .LASF74
     /tmp/ccBM2su7.s:4650   .debug_str:000000000000039f .LASF75
     /tmp/ccBM2su7.s:5022   .debug_str:0000000000000ff0 .LASF292
     /tmp/ccBM2su7.s:4534   .debug_str:000000000000003a .LASF76
     /tmp/ccBM2su7.s:4598   .debug_str:0000000000000216 .LASF77
     /tmp/ccBM2su7.s:4586   .debug_str:00000000000001ca .LASF78
     /tmp/ccBM2su7.s:4610   .debug_str:0000000000000263 .LASF79
     /tmp/ccBM2su7.s:4612   .debug_str:000000000000026c .LASF293
     /tmp/ccBM2su7.s:5040   .debug_str:000000000000107a .LASF80
     /tmp/ccBM2su7.s:4680   .debug_str:00000000000004ac .LASF81
     /tmp/ccBM2su7.s:4858   .debug_str:0000000000000ae3 .LASF82
     /tmp/ccBM2su7.s:4714   .debug_str:000000000000059b .LASF83
     /tmp/ccBM2su7.s:4944   .debug_str:0000000000000d77 .LASF84
     /tmp/ccBM2su7.s:4546   .debug_str:0000000000000097 .LASF85
     /tmp/ccBM2su7.s:4938   .debug_str:0000000000000d54 .LASF86
     /tmp/ccBM2su7.s:4624   .debug_str:00000000000002c6 .LASF87
     /tmp/ccBM2su7.s:4960   .debug_str:0000000000000ded .LASF88
     /tmp/ccBM2su7.s:4914   .debug_str:0000000000000c7b .LASF89
     /tmp/ccBM2su7.s:4810   .debug_str:000000000000096c .LASF90
GAS LISTING /tmp/ccBM2su7.s 			page 27


     /tmp/ccBM2su7.s:4670   .debug_str:000000000000046e .LASF91
     /tmp/ccBM2su7.s:5002   .debug_str:0000000000000f3b .LASF92
     /tmp/ccBM2su7.s:4996   .debug_str:0000000000000ef1 .LASF93
     /tmp/ccBM2su7.s:4782   .debug_str:0000000000000885 .LASF94
     /tmp/ccBM2su7.s:5024   .debug_str:0000000000000ff9 .LASF95
     /tmp/ccBM2su7.s:4690   .debug_str:00000000000004e0 .LASF96
     /tmp/ccBM2su7.s:5052   .debug_str:00000000000010c0 .LASF97
     /tmp/ccBM2su7.s:4878   .debug_str:0000000000000b7e .LASF98
     /tmp/ccBM2su7.s:5122   .debug_str:00000000000012e0 .LASF99
     /tmp/ccBM2su7.s:5026   .debug_str:0000000000001012 .LASF100
     /tmp/ccBM2su7.s:5060   .debug_str:0000000000001107 .LASF101
     /tmp/ccBM2su7.s:4710   .debug_str:000000000000057f .LASF102
     /tmp/ccBM2su7.s:4530   .debug_str:0000000000000000 .LASF103
     /tmp/ccBM2su7.s:4988   .debug_str:0000000000000ec8 .LASF104
     /tmp/ccBM2su7.s:5084   .debug_str:00000000000011a8 .LASF105
     /tmp/ccBM2su7.s:4866   .debug_str:0000000000000b24 .LASF294
     /tmp/ccBM2su7.s:4592   .debug_str:00000000000001f1 .LASF106
     /tmp/ccBM2su7.s:4920   .debug_str:0000000000000cbe .LASF108
     /tmp/ccBM2su7.s:4638   .debug_str:000000000000034f .LASF107
     /tmp/ccBM2su7.s:4614   .debug_str:0000000000000274 .LASF109
     /tmp/ccBM2su7.s:5066   .debug_str:0000000000001150 .LASF110
     /tmp/ccBM2su7.s:4814   .debug_str:000000000000097f .LASF111
     /tmp/ccBM2su7.s:4566   .debug_str:0000000000000123 .LASF112
     /tmp/ccBM2su7.s:5016   .debug_str:0000000000000fbe .LASF113
     /tmp/ccBM2su7.s:5090   .debug_str:00000000000011d7 .LASF115
     /tmp/ccBM2su7.s:4842   .debug_str:0000000000000a73 .LASF117
     /tmp/ccBM2su7.s:5056   .debug_str:00000000000010e1 .LASF118
     /tmp/ccBM2su7.s:4596   .debug_str:0000000000000202 .LASF119
     /tmp/ccBM2su7.s:4924   .debug_str:0000000000000cd7 .LASF120
     /tmp/ccBM2su7.s:5012   .debug_str:0000000000000f6f .LASF121
     /tmp/ccBM2su7.s:4950   .debug_str:0000000000000d95 .LASF122
     /tmp/ccBM2su7.s:4926   .debug_str:0000000000000ce7 .LASF123
     /tmp/ccBM2su7.s:4956   .debug_str:0000000000000dcc .LASF124
     /tmp/ccBM2su7.s:5018   .debug_str:0000000000000fce .LASF125
     /tmp/ccBM2su7.s:4864   .debug_str:0000000000000b19 .LASF127
     /tmp/ccBM2su7.s:4800   .debug_str:0000000000000920 .LASF128
     /tmp/ccBM2su7.s:4734   .debug_str:000000000000064d .LASF129
     /tmp/ccBM2su7.s:4574   .debug_str:000000000000016e .LASF130
     /tmp/ccBM2su7.s:4636   .debug_str:000000000000034a .LASF131
     /tmp/ccBM2su7.s:5110   .debug_str:0000000000001292 .LASF132
     /tmp/ccBM2su7.s:4968   .debug_str:0000000000000e35 .LASF133
     /tmp/ccBM2su7.s:5030   .debug_str:0000000000001027 .LASF134
     /tmp/ccBM2su7.s:4644   .debug_str:0000000000000378 .LASF135
     /tmp/ccBM2su7.s:4812   .debug_str:0000000000000973 .LASF136
     /tmp/ccBM2su7.s:4758   .debug_str:00000000000006fc .LASF137
     /tmp/ccBM2su7.s:4874   .debug_str:0000000000000b65 .LASF138
     /tmp/ccBM2su7.s:4770   .debug_str:0000000000000801 .LASF139
     /tmp/ccBM2su7.s:4978   .debug_str:0000000000000e76 .LASF240
     /tmp/ccBM2su7.s:4588   .debug_str:00000000000001d3 .LASF140
     /tmp/ccBM2su7.s:4784   .debug_str:0000000000000892 .LASF142
     /tmp/ccBM2su7.s:4628   .debug_str:00000000000002f4 .LASF295
     /tmp/ccBM2su7.s:4544   .debug_str:000000000000006f .LASF296
     /tmp/ccBM2su7.s:4570   .debug_str:0000000000000142 .LASF141
     /tmp/ccBM2su7.s:4832   .debug_str:0000000000000a20 .LASF143
     /tmp/ccBM2su7.s:5070   .debug_str:0000000000001167 .LASF144
     /tmp/ccBM2su7.s:4922   .debug_str:0000000000000cce .LASF145
     /tmp/ccBM2su7.s:4862   .debug_str:0000000000000b04 .LASF146
GAS LISTING /tmp/ccBM2su7.s 			page 28


     /tmp/ccBM2su7.s:5048   .debug_str:00000000000010b1 .LASF147
     /tmp/ccBM2su7.s:5042   .debug_str:0000000000001086 .LASF148
     /tmp/ccBM2su7.s:4848   .debug_str:0000000000000aa2 .LASF149
     /tmp/ccBM2su7.s:4768   .debug_str:00000000000007ee .LASF150
     /tmp/ccBM2su7.s:4898   .debug_str:0000000000000bf7 .LASF151
     /tmp/ccBM2su7.s:4904   .debug_str:0000000000000c12 .LASF152
     /tmp/ccBM2su7.s:4562   .debug_str:0000000000000110 .LASF153
     /tmp/ccBM2su7.s:5062   .debug_str:0000000000001122 .LASF154
     /tmp/ccBM2su7.s:4844   .debug_str:0000000000000a95 .LASF155
     /tmp/ccBM2su7.s:4860   .debug_str:0000000000000af0 .LASF156
     /tmp/ccBM2su7.s:5088   .debug_str:00000000000011cf .LASF157
     /tmp/ccBM2su7.s:4986   .debug_str:0000000000000eb4 .LASF158
     /tmp/ccBM2su7.s:4976   .debug_str:0000000000000e6e .LASF159
     /tmp/ccBM2su7.s:4742   .debug_str:0000000000000679 .LASF160
     /tmp/ccBM2su7.s:4790   .debug_str:00000000000008cc .LASF161
     /tmp/ccBM2su7.s:4906   .debug_str:0000000000000c25 .LASF162
     /tmp/ccBM2su7.s:4984   .debug_str:0000000000000ead .LASF163
     /tmp/ccBM2su7.s:4948   .debug_str:0000000000000d82 .LASF164
     /tmp/ccBM2su7.s:4640   .debug_str:0000000000000358 .LASF165
     /tmp/ccBM2su7.s:4696   .debug_str:0000000000000509 .LASF166
     /tmp/ccBM2su7.s:4740   .debug_str:0000000000000673 .LASF167
     /tmp/ccBM2su7.s:4632   .debug_str:0000000000000315 .LASF168
     /tmp/ccBM2su7.s:4946   .debug_str:0000000000000d7c .LASF169
     /tmp/ccBM2su7.s:4724   .debug_str:0000000000000609 .LASF170
     /tmp/ccBM2su7.s:4552   .debug_str:00000000000000b7 .LASF171
     /tmp/ccBM2su7.s:4934   .debug_str:0000000000000d1f .LASF172
     /tmp/ccBM2su7.s:4674   .debug_str:000000000000048e .LASF173
     /tmp/ccBM2su7.s:5114   .debug_str:00000000000012a0 .LASF174
     /tmp/ccBM2su7.s:5068   .debug_str:000000000000115d .LASF175
     /tmp/ccBM2su7.s:4558   .debug_str:00000000000000ec .LASF176
     /tmp/ccBM2su7.s:5072   .debug_str:000000000000116d .LASF177
     /tmp/ccBM2su7.s:5098   .debug_str:000000000000121d .LASF178
     /tmp/ccBM2su7.s:5078   .debug_str:0000000000001193 .LASF179
     /tmp/ccBM2su7.s:4868   .debug_str:0000000000000b29 .LASF180
     /tmp/ccBM2su7.s:5028   .debug_str:0000000000001022 .LASF181
     /tmp/ccBM2su7.s:5100   .debug_str:0000000000001233 .LASF182
     /tmp/ccBM2su7.s:4856   .debug_str:0000000000000ade .LASF183
     /tmp/ccBM2su7.s:4754   .debug_str:00000000000006cf .LASF184
     /tmp/ccBM2su7.s:5082   .debug_str:00000000000011a3 .LASF185
     /tmp/ccBM2su7.s:4542   .debug_str:000000000000005e .LASF186
     /tmp/ccBM2su7.s:4618   .debug_str:0000000000000293 .LASF187
     /tmp/ccBM2su7.s:5126   .debug_str:0000000000001309 .LASF188
     /tmp/ccBM2su7.s:5086   .debug_str:00000000000011ca .LASF189
     /tmp/ccBM2su7.s:5038   .debug_str:0000000000001069 .LASF190
     /tmp/ccBM2su7.s:4738   .debug_str:0000000000000666 .LASF191
     /tmp/ccBM2su7.s:5064   .debug_str:0000000000001136 .LASF192
     /tmp/ccBM2su7.s:4954   .debug_str:0000000000000dbe .LASF193
     /tmp/ccBM2su7.s:4658   .debug_str:00000000000003f6 .LASF194
     /tmp/ccBM2su7.s:4716   .debug_str:00000000000005a8 .LASF195
     /tmp/ccBM2su7.s:4850   .debug_str:0000000000000aa9 .LASF196
     /tmp/ccBM2su7.s:4594   .debug_str:00000000000001f7 .LASF197
     /tmp/ccBM2su7.s:4912   .debug_str:0000000000000c63 .LASF198
     /tmp/ccBM2su7.s:4560   .debug_str:0000000000000102 .LASF199
     /tmp/ccBM2su7.s:5032   .debug_str:0000000000001031 .LASF200
     /tmp/ccBM2su7.s:5008   .debug_str:0000000000000f62 .LASF201
     /tmp/ccBM2su7.s:4678   .debug_str:00000000000004a1 .LASF202
     /tmp/ccBM2su7.s:4748   .debug_str:00000000000006a3 .LASF203
GAS LISTING /tmp/ccBM2su7.s 			page 29


     /tmp/ccBM2su7.s:4796   .debug_str:00000000000008ee .LASF204
     /tmp/ccBM2su7.s:5120   .debug_str:00000000000012cb .LASF205
     /tmp/ccBM2su7.s:5004   .debug_str:0000000000000f46 .LASF206
     /tmp/ccBM2su7.s:4702   .debug_str:000000000000053e .LASF207
     /tmp/ccBM2su7.s:4536   .debug_str:0000000000000042 .LASF208
     /tmp/ccBM2su7.s:4966   .debug_str:0000000000000e1e .LASF209
     /tmp/ccBM2su7.s:4994   .debug_str:0000000000000eea .LASF210
     /tmp/ccBM2su7.s:4654   .debug_str:00000000000003cb .LASF211
     /tmp/ccBM2su7.s:4688   .debug_str:00000000000004da .LASF212
     /tmp/ccBM2su7.s:4834   .debug_str:0000000000000a34 .LASF213
     /tmp/ccBM2su7.s:4964   .debug_str:0000000000000e03 .LASF214
     /tmp/ccBM2su7.s:4830   .debug_str:0000000000000a14 .LASF215
     /tmp/ccBM2su7.s:4908   .debug_str:0000000000000c39 .LASF216
     /tmp/ccBM2su7.s:5076   .debug_str:0000000000001182 .LASF217
     /tmp/ccBM2su7.s:4894   .debug_str:0000000000000be1 .LASF218
     /tmp/ccBM2su7.s:4902   .debug_str:0000000000000c0c .LASF219
     /tmp/ccBM2su7.s:5112   .debug_str:0000000000001297 .LASF220
     /tmp/ccBM2su7.s:4752   .debug_str:00000000000006c9 .LASF221
     /tmp/ccBM2su7.s:4608   .debug_str:000000000000025d .LASF222
     /tmp/ccBM2su7.s:4992   .debug_str:0000000000000ee1 .LASF223
     /tmp/ccBM2su7.s:4646   .debug_str:000000000000037e .LASF224
     /tmp/ccBM2su7.s:4548   .debug_str:00000000000000a3 .LASF225
     /tmp/ccBM2su7.s:4870   .debug_str:0000000000000b3a .LASF226
     /tmp/ccBM2su7.s:4916   .debug_str:0000000000000c8f .LASF227
     /tmp/ccBM2su7.s:5128   .debug_str:000000000000131a .LASF228
     /tmp/ccBM2su7.s:4694   .debug_str:00000000000004f9 .LASF229
     /tmp/ccBM2su7.s:4600   .debug_str:000000000000021c .LASF230
     /tmp/ccBM2su7.s:4736   .debug_str:000000000000065a .LASF231
     /tmp/ccBM2su7.s:4642   .debug_str:000000000000035f .LASF232
     /tmp/ccBM2su7.s:4692   .debug_str:00000000000004ec .LASF233
     /tmp/ccBM2su7.s:5020   .debug_str:0000000000000fd6 .LASF234
     /tmp/ccBM2su7.s:4564   .debug_str:0000000000000118 .LASF235
     /tmp/ccBM2su7.s:4766   .debug_str:00000000000007e6 .LASF236
     /tmp/ccBM2su7.s:5010   .debug_str:0000000000000f67 .LASF237
     /tmp/ccBM2su7.s:4852   .debug_str:0000000000000ac1 .LASF297
     /tmp/ccBM2su7.s:4760   .debug_str:0000000000000705 .LASF238
     /tmp/ccBM2su7.s:5106   .debug_str:000000000000126a .LASF239
     /tmp/ccBM2su7.s:4580   .debug_str:0000000000000188 .LASF298
     /tmp/ccBM2su7.s:4722   .debug_str:00000000000005f1 .LASF241
     /tmp/ccBM2su7.s:4556   .debug_str:00000000000000e3 .LASF242
     /tmp/ccBM2su7.s:4802   .debug_str:000000000000092d .LASF243
     /tmp/ccBM2su7.s:4838   .debug_str:0000000000000a53 .LASF244
     /tmp/ccBM2su7.s:4572   .debug_str:000000000000014c .LASF245
     /tmp/ccBM2su7.s:4886   .debug_str:0000000000000bba .LASF246
     /tmp/ccBM2su7.s:4622   .debug_str:00000000000002a8 .LASF247
     /tmp/ccBM2su7.s:5104   .debug_str:0000000000001260 .LASF248
     /tmp/ccBM2su7.s:4664   .debug_str:0000000000000429 .LASF249
     /tmp/ccBM2su7.s:5094   .debug_str:00000000000011fa .LASF250
     /tmp/ccBM2su7.s:4936   .debug_str:0000000000000d37 .LASF251
     /tmp/ccBM2su7.s:5108   .debug_str:0000000000001284 .LASF252
     /tmp/ccBM2su7.s:4776   .debug_str:0000000000000821 .LASF253
     /tmp/ccBM2su7.s:4660   .debug_str:0000000000000411 .LASF254
     /tmp/ccBM2su7.s:4798   .debug_str:0000000000000902 .LASF255
     /tmp/ccBM2su7.s:4952   .debug_str:0000000000000da3 .LASF256
     /tmp/ccBM2su7.s:4666   .debug_str:0000000000000447 .LASF257
     /tmp/ccBM2su7.s:4890   .debug_str:0000000000000bd1 .LASF258
     /tmp/ccBM2su7.s:4656   .debug_str:00000000000003e4 .LASF259
GAS LISTING /tmp/ccBM2su7.s 			page 30


     /tmp/ccBM2su7.s:4808   .debug_str:000000000000095c .LASF260
     /tmp/ccBM2su7.s:4958   .debug_str:0000000000000ddd .LASF261
     /tmp/ccBM2su7.s:4900   .debug_str:0000000000000bfe .LASF262
     /tmp/ccBM2su7.s:4700   .debug_str:0000000000000536 .LASF263
     /tmp/ccBM2su7.s:4888   .debug_str:0000000000000bc7 .LASF264
     /tmp/ccBM2su7.s:4792   .debug_str:00000000000008d4 .LASF265
     /tmp/ccBM2su7.s:216    .text:0000000000000114 .LFB97
     /tmp/ccBM2su7.s:295    .text:0000000000000198 .LFE97
     /tmp/ccBM2su7.s:4357   .debug_loc:0000000000000000 .LLST2
     /tmp/ccBM2su7.s:4836   .debug_str:0000000000000a4e .LASF266
     /tmp/ccBM2su7.s:4376   .debug_loc:000000000000005c .LLST3
     /tmp/ccBM2su7.s:4390   .debug_loc:0000000000000095 .LLST4
     /tmp/ccBM2su7.s:279    .text:0000000000000180 .LVL24
     /tmp/ccBM2su7.s:4794   .debug_str:00000000000008e3 .LASF267
     /tmp/ccBM2su7.s:4706   .debug_str:0000000000000560 .LASF268
     /tmp/ccBM2su7.s:301    .text:0000000000000198 .LFB96
     /tmp/ccBM2su7.s:585    .text:0000000000000464 .LFE96
     /tmp/ccBM2su7.s:4896   .debug_str:0000000000000be9 .LASF269
     /tmp/ccBM2su7.s:4412   .debug_loc:00000000000000f4 .LLST5
     /tmp/ccBM2su7.s:4708   .debug_str:0000000000000570 .LASF270
     /tmp/ccBM2su7.s:4423   .debug_loc:000000000000012a .LLST6
     /tmp/ccBM2su7.s:4816   .debug_str:0000000000000999 .LASF271
     /tmp/ccBM2su7.s:4438   .debug_loc:0000000000000173 .LLST7
     /tmp/ccBM2su7.s:4578   .debug_str:000000000000017d .LASF272
     /tmp/ccBM2su7.s:4457   .debug_loc:00000000000001cf .LLST8
     /tmp/ccBM2su7.s:429    .text:000000000000031c .LBB4
     /tmp/ccBM2su7.s:441    .text:0000000000000320 .LBE4
     /tmp/ccBM2su7.s:322    .text:00000000000001c4 .LVL25
     /tmp/ccBM2su7.s:327    .text:00000000000001d4 .LVL26
     /tmp/ccBM2su7.s:334    .text:00000000000001ec .LVL27
     /tmp/ccBM2su7.s:339    .text:00000000000001fc .LVL28
     /tmp/ccBM2su7.s:344    .text:000000000000020c .LVL29
     /tmp/ccBM2su7.s:351    .text:0000000000000224 .LVL30
     /tmp/ccBM2su7.s:356    .text:0000000000000234 .LVL31
     /tmp/ccBM2su7.s:361    .text:0000000000000244 .LVL32
     /tmp/ccBM2su7.s:368    .text:000000000000025c .LVL33
     /tmp/ccBM2su7.s:373    .text:000000000000026c .LVL34
     /tmp/ccBM2su7.s:378    .text:000000000000027c .LVL35
     /tmp/ccBM2su7.s:385    .text:0000000000000294 .LVL36
     /tmp/ccBM2su7.s:390    .text:00000000000002a4 .LVL37
     /tmp/ccBM2su7.s:395    .text:00000000000002b4 .LVL38
     /tmp/ccBM2su7.s:402    .text:00000000000002cc .LVL39
     /tmp/ccBM2su7.s:407    .text:00000000000002dc .LVL40
     /tmp/ccBM2su7.s:412    .text:00000000000002ec .LVL41
     /tmp/ccBM2su7.s:419    .text:0000000000000304 .LVL42
     /tmp/ccBM2su7.s:424    .text:0000000000000314 .LVL43
     /tmp/ccBM2su7.s:446    .text:0000000000000330 .LVL46
     /tmp/ccBM2su7.s:450    .text:0000000000000338 .LVL47
     /tmp/ccBM2su7.s:455    .text:0000000000000348 .LVL48
     /tmp/ccBM2su7.s:459    .text:0000000000000350 .LVL49
     /tmp/ccBM2su7.s:464    .text:0000000000000360 .LVL50
     /tmp/ccBM2su7.s:468    .text:0000000000000368 .LVL51
     /tmp/ccBM2su7.s:473    .text:0000000000000378 .LVL52
     /tmp/ccBM2su7.s:477    .text:0000000000000380 .LVL53
     /tmp/ccBM2su7.s:482    .text:0000000000000390 .LVL54
     /tmp/ccBM2su7.s:487    .text:00000000000003a0 .LVL55
     /tmp/ccBM2su7.s:492    .text:00000000000003ac .LVL56
GAS LISTING /tmp/ccBM2su7.s 			page 31


     /tmp/ccBM2su7.s:501    .text:00000000000003c8 .LVL58
     /tmp/ccBM2su7.s:509    .text:00000000000003d8 .LVL61
     /tmp/ccBM2su7.s:519    .text:00000000000003f4 .LVL64
     /tmp/ccBM2su7.s:533    .text:0000000000000414 .LVL66
     /tmp/ccBM2su7.s:538    .text:0000000000000424 .LVL67
     /tmp/ccBM2su7.s:5046   .debug_str:00000000000010a4 .LASF273
     /tmp/ccBM2su7.s:4840   .debug_str:0000000000000a5f .LASF274
     /tmp/ccBM2su7.s:162    .text:00000000000000cc .LFB95
     /tmp/ccBM2su7.s:210    .text:0000000000000114 .LFE95
     /tmp/ccBM2su7.s:4584   .debug_str:00000000000001c3 .LASF275
     /tmp/ccBM2su7.s:4480   .debug_loc:000000000000023e .LLST1
     /tmp/ccBM2su7.s:189    .text:00000000000000f8 .LVL12
     /tmp/ccBM2su7.s:5118   .debug_str:00000000000012c5 .LASF276
     /tmp/ccBM2su7.s:4818   .debug_str:00000000000009a9 .LASF277
     /tmp/ccBM2su7.s:119    .text:000000000000008c .LFB94
     /tmp/ccBM2su7.s:156    .text:00000000000000cc .LFE94
     /tmp/ccBM2su7.s:4676   .debug_str:0000000000000499 .LASF278
     /tmp/ccBM2su7.s:4786   .debug_str:00000000000008ab .LASF279
     /tmp/ccBM2su7.s:70     .text:0000000000000044 .LFB93
     /tmp/ccBM2su7.s:113    .text:000000000000008c .LFE93
     /tmp/ccBM2su7.s:4491   .debug_loc:0000000000000274 .LLST0
     /tmp/ccBM2su7.s:95     .text:000000000000006c .LVL4
     /tmp/ccBM2su7.s:99     .text:0000000000000078 .LVL5
     /tmp/ccBM2su7.s:4962   .debug_str:0000000000000df6 .LASF280
     /tmp/ccBM2su7.s:4630   .debug_str:0000000000000302 .LASF281
     /tmp/ccBM2su7.s:45     .text:0000000000000028 .LFB92
     /tmp/ccBM2su7.s:64     .text:0000000000000044 .LFE92
     /tmp/ccBM2su7.s:61     .text:0000000000000040 .LVL1
     /tmp/ccBM2su7.s:4820   .debug_str:00000000000009b3 .LASF282
     /tmp/ccBM2su7.s:5036   .debug_str:0000000000001053 .LASF283
     /tmp/ccBM2su7.s:13     .text:0000000000000000 .LFB91
     /tmp/ccBM2su7.s:39     .text:0000000000000028 .LFE91
     /tmp/ccBM2su7.s:28     .text:0000000000000018 .LVL0
     /tmp/ccBM2su7.s:4682   .debug_str:00000000000004b8 .LASF299
     /tmp/ccBM2su7.s:5124   .debug_str:00000000000012f9 .LASF284
     /tmp/ccBM2su7.s:4730   .debug_str:0000000000000633 .LASF285
     /tmp/ccBM2su7.s:4884   .debug_str:0000000000000bb1 .LASF286
     /tmp/ccBM2su7.s:219    .text:0000000000000114 .LVL15
     /tmp/ccBM2su7.s:237    .text:0000000000000130 .LVL17
     /tmp/ccBM2su7.s:241    .text:0000000000000134 .LVL18
     /tmp/ccBM2su7.s:261    .text:000000000000015c .LVL21
     /tmp/ccBM2su7.s:266    .text:0000000000000164 .LVL22
     /tmp/ccBM2su7.s:233    .text:0000000000000128 .LVL16
     /tmp/ccBM2su7.s:249    .text:000000000000013c .LVL19
     /tmp/ccBM2su7.s:257    .text:0000000000000154 .LVL20
     /tmp/ccBM2su7.s:271    .text:0000000000000168 .LVL23
     /tmp/ccBM2su7.s:494    .text:00000000000003b0 .LVL57
     /tmp/ccBM2su7.s:552    .text:0000000000000434 .LVL68
     /tmp/ccBM2su7.s:562    .text:0000000000000444 .LVL71
     /tmp/ccBM2su7.s:503    .text:00000000000003cc .LVL59
     /tmp/ccBM2su7.s:507    .text:00000000000003d0 .LVL60
     /tmp/ccBM2su7.s:558    .text:000000000000043c .LVL70
     /tmp/ccBM2su7.s:511    .text:00000000000003dc .LVL62
     /tmp/ccBM2su7.s:517    .text:00000000000003ec .LVL63
     /tmp/ccBM2su7.s:555    .text:0000000000000438 .LVL69
     /tmp/ccBM2su7.s:531    .text:000000000000040c .LVL65
     /tmp/ccBM2su7.s:567    .text:0000000000000448 .LVL72
GAS LISTING /tmp/ccBM2su7.s 			page 32


     /tmp/ccBM2su7.s:569    .text:000000000000044c .LVL73
     /tmp/ccBM2su7.s:572    .text:0000000000000450 .LVL74
     /tmp/ccBM2su7.s:574    .text:0000000000000454 .LVL75
     /tmp/ccBM2su7.s:577    .text:0000000000000458 .LVL76
     /tmp/ccBM2su7.s:579    .text:000000000000045c .LVL77
     /tmp/ccBM2su7.s:582    .text:0000000000000460 .LVL78
     /tmp/ccBM2su7.s:165    .text:00000000000000cc .LVL10
     /tmp/ccBM2su7.s:179    .text:00000000000000e8 .LVL11
     /tmp/ccBM2su7.s:205    .text:000000000000010c .LVL14
     /tmp/ccBM2su7.s:73     .text:0000000000000044 .LVL2
     /tmp/ccBM2su7.s:91     .text:0000000000000064 .LVL3
     /tmp/ccBM2su7.s:108    .text:0000000000000084 .LVL6
     /tmp/ccBM2su7.s:654    .debug_info:0000000000000000 .Ldebug_info0

UNDEFINED SYMBOLS
_Z8userMainv
thread_dispatch
_ZN15MemoryAllocator11getInstanceEv
_ZN15MemoryAllocator9mem_allocEm
CONSOLE_TX_DATA
CONSOLE_STATUS
HEAP_START_ADDR
HEAP_END_ADDR
KERNEL_TEXT_START
KERNEL_TEXT_END
USER_TEXT_START
USER_TEXT_END
interruptvec
_ZN9Scheduler9initalizeEv
_ZN5StdIO9initalizeEv
_ZN3TCB22createMainKernelThreadEv
_ZN3TCB12createThreadEPFvPvES0_Pm
