GAS LISTING /tmp/ccbmzUVi.s 			page 1


   1              		.file	"kernel_lib.cpp"
   2              		.option nopic
   3              		.option norelax
   4              		.attribute arch, "rv64i2p0_m2p0_a2p0"
   5              		.attribute unaligned_access, 0
   6              		.attribute stack_align, 16
   7              		.text
   8              	.Ltext0:
   9              		.align	2
  10              		.globl	_Z15userMainWrapperPv
  12              	_Z15userMainWrapperPv:
  13              	.LFB98:
  14              		.file 1 "src/kernel/kernel_lib.cpp"
   1:src/kernel/kernel_lib.cpp **** #include"../../h/kernel_lib.h"
   2:src/kernel/kernel_lib.cpp **** 
   3:src/kernel/kernel_lib.cpp **** 
   4:src/kernel/kernel_lib.cpp **** void userMainWrapper(void*)
   5:src/kernel/kernel_lib.cpp **** {
  15              		.loc 1 5 1
  16              		.cfi_startproc
  17 0000 130101FF 		addi	sp,sp,-16
  18              		.cfi_def_cfa_offset 16
  19 0004 23341100 		sd	ra,8(sp)
  20 0008 23308100 		sd	s0,0(sp)
  21              		.cfi_offset 1, -8
  22              		.cfi_offset 8, -16
  23 000c 13040101 		addi	s0,sp,16
  24              		.cfi_def_cfa 8, 0
   6:src/kernel/kernel_lib.cpp ****     userMain();
  25              		.loc 1 6 5
  26              		.loc 1 6 13 is_stmt 0
  27 0010 97000000 		call	_Z8userMainv
  27      E7800000 
  28              	.LVL0:
   7:src/kernel/kernel_lib.cpp **** }
  29              		.loc 1 7 1
  30 0018 83308100 		ld	ra,8(sp)
  31              		.cfi_restore 1
  32 001c 03340100 		ld	s0,0(sp)
  33              		.cfi_restore 8
  34              		.cfi_def_cfa 2, 16
  35 0020 13010101 		addi	sp,sp,16
  36              		.cfi_def_cfa_offset 0
  37 0024 67800000 		jr	ra
  38              		.cfi_endproc
  39              	.LFE98:
  41              		.align	2
  42              		.globl	_Z12idleFunctionPv
  44              	_Z12idleFunctionPv:
  45              	.LFB99:
   8:src/kernel/kernel_lib.cpp **** 
   9:src/kernel/kernel_lib.cpp **** void idleFunction(void*)
  10:src/kernel/kernel_lib.cpp **** {
  46              		.loc 1 10 1 is_stmt 1
  47              		.cfi_startproc
  48 0028 130101FF 		addi	sp,sp,-16
  49              		.cfi_def_cfa_offset 16
GAS LISTING /tmp/ccbmzUVi.s 			page 2


  50 002c 23341100 		sd	ra,8(sp)
  51 0030 23308100 		sd	s0,0(sp)
  52              		.cfi_offset 1, -8
  53              		.cfi_offset 8, -16
  54 0034 13040101 		addi	s0,sp,16
  55              		.cfi_def_cfa 8, 0
  56              	.L4:
  11:src/kernel/kernel_lib.cpp ****     while(1){ 
  57              		.loc 1 11 5 discriminator 1
  12:src/kernel/kernel_lib.cpp ****         /* 
  13:src/kernel/kernel_lib.cpp ****         *   Cannot swap thread_dispatch() sys_call for TCB::yield() because
  14:src/kernel/kernel_lib.cpp ****         *   yeild must be atomic so we must call it in kernel locked mode
  15:src/kernel/kernel_lib.cpp ****         *   but if we make this thread kernel locked and it becomes alone in scheduler 
  16:src/kernel/kernel_lib.cpp ****         *   cpu will never get to the other threads because there will be no interruption. 
  17:src/kernel/kernel_lib.cpp ****         *
  18:src/kernel/kernel_lib.cpp ****         *   We could make preemptive kernel thread but that is a little bit harder.
  19:src/kernel/kernel_lib.cpp ****         *   We must make INTERRUPTION LOCK FUNCTION (function that disables interrupts)  
  20:src/kernel/kernel_lib.cpp ****         *   that will lock the thread when executing critical section code! TODO or NOT
  21:src/kernel/kernel_lib.cpp ****         *    
  22:src/kernel/kernel_lib.cpp ****         */
  23:src/kernel/kernel_lib.cpp ****         thread_dispatch();
  58              		.loc 1 23 9 discriminator 1
  59              		.loc 1 23 24 is_stmt 0 discriminator 1
  60 0038 97000000 		call	thread_dispatch
  60      E7800000 
  61              	.LVL1:
  62 0040 6FF09FFF 		j	.L4
  63              		.cfi_endproc
  64              	.LFE99:
  66              		.align	2
  67              		.globl	_Z7kmallocm
  69              	_Z7kmallocm:
  70              	.LFB100:
  24:src/kernel/kernel_lib.cpp ****     }
  25:src/kernel/kernel_lib.cpp **** }
  26:src/kernel/kernel_lib.cpp **** 
  27:src/kernel/kernel_lib.cpp **** void* kmalloc(size_t size)
  28:src/kernel/kernel_lib.cpp **** {
  71              		.loc 1 28 1 is_stmt 1
  72              		.cfi_startproc
  73              	.LVL2:
  74 0044 130101FE 		addi	sp,sp,-32
  75              		.cfi_def_cfa_offset 32
  76 0048 233C1100 		sd	ra,24(sp)
  77 004c 23388100 		sd	s0,16(sp)
  78 0050 23349100 		sd	s1,8(sp)
  79              		.cfi_offset 1, -8
  80              		.cfi_offset 8, -16
  81              		.cfi_offset 9, -24
  82 0054 13040102 		addi	s0,sp,32
  83              		.cfi_def_cfa 8, 0
  29:src/kernel/kernel_lib.cpp ****     size = (size-1)/MEM_BLOCK_SIZE + 1;
  84              		.loc 1 29 5
  85              		.loc 1 29 17 is_stmt 0
  86 0058 9304F5FF 		addi	s1,a0,-1
  87              		.loc 1 29 20
  88 005c 93D46400 		srli	s1,s1,6
GAS LISTING /tmp/ccbmzUVi.s 			page 3


  89              		.loc 1 29 10
  90 0060 93841400 		addi	s1,s1,1
  91              	.LVL3:
  30:src/kernel/kernel_lib.cpp ****     return MemoryAllocator::getInstance().mem_alloc(size);
  92              		.loc 1 30 5 is_stmt 1
  93              		.loc 1 30 41 is_stmt 0
  94 0064 97000000 		call	_ZN15MemoryAllocator11getInstanceEv
  94      E7800000 
  95              	.LVL4:
  96              		.loc 1 30 52
  97 006c 93850400 		mv	a1,s1
  98 0070 97000000 		call	_ZN15MemoryAllocator9mem_allocEm
  98      E7800000 
  99              	.LVL5:
  31:src/kernel/kernel_lib.cpp **** }
 100              		.loc 1 31 1
 101 0078 83308101 		ld	ra,24(sp)
 102              		.cfi_restore 1
 103 007c 03340101 		ld	s0,16(sp)
 104              		.cfi_restore 8
 105              		.cfi_def_cfa 2, 32
 106 0080 83348100 		ld	s1,8(sp)
 107              		.cfi_restore 9
 108              	.LVL6:
 109 0084 13010102 		addi	sp,sp,32
 110              		.cfi_def_cfa_offset 0
 111 0088 67800000 		jr	ra
 112              		.cfi_endproc
 113              	.LFE100:
 115              		.align	2
 116              		.globl	_Z5kputcc
 118              	_Z5kputcc:
 119              	.LFB101:
  32:src/kernel/kernel_lib.cpp **** 
  33:src/kernel/kernel_lib.cpp **** void kputc(char c){
 120              		.loc 1 33 19 is_stmt 1
 121              		.cfi_startproc
 122              	.LVL7:
 123 008c 130101FF 		addi	sp,sp,-16
 124              		.cfi_def_cfa_offset 16
 125 0090 23348100 		sd	s0,8(sp)
 126              		.cfi_offset 8, -8
 127 0094 13040101 		addi	s0,sp,16
 128              		.cfi_def_cfa 8, 0
  34:src/kernel/kernel_lib.cpp ****     char* odata = (char*)CONSOLE_TX_DATA, 
 129              		.loc 1 34 5
 130              		.loc 1 34 11 is_stmt 0
 131 0098 97070000 		lla	a5,CONSOLE_TX_DATA
 131      93870700 
 132 00a0 83B60700 		ld	a3,0(a5)
 133              	.LVL8:
  35:src/kernel/kernel_lib.cpp ****     *iostatus = (char*)CONSOLE_STATUS;
 134              		.loc 1 35 6
 135 00a4 97070000 		lla	a5,CONSOLE_STATUS
 135      93870700 
 136 00ac 03B70700 		ld	a4,0(a5)
 137              	.LVL9:
GAS LISTING /tmp/ccbmzUVi.s 			page 4


 138              	.L9:
  36:src/kernel/kernel_lib.cpp ****     while(!(*iostatus & CONSOLE_TX_STATUS_BIT));
 139              		.loc 1 36 5 is_stmt 1
 140              		.loc 1 36 13 is_stmt 0
 141 00b0 83470700 		lbu	a5,0(a4)
 142              		.loc 1 36 11
 143 00b4 93F70702 		andi	a5,a5,32
 144 00b8 E38C07FE 		beq	a5,zero,.L9
  37:src/kernel/kernel_lib.cpp ****     *odata = c;
 145              		.loc 1 37 5 is_stmt 1
 146              		.loc 1 37 12 is_stmt 0
 147 00bc 2380A600 		sb	a0,0(a3)
  38:src/kernel/kernel_lib.cpp **** }
 148              		.loc 1 38 1
 149 00c0 03348100 		ld	s0,8(sp)
 150              		.cfi_restore 8
 151              		.cfi_def_cfa 2, 16
 152 00c4 13010101 		addi	sp,sp,16
 153              		.cfi_def_cfa_offset 0
 154 00c8 67800000 		jr	ra
 155              		.cfi_endproc
 156              	.LFE101:
 158              		.align	2
 159              		.globl	_Z12kprintStringPKc
 161              	_Z12kprintStringPKc:
 162              	.LFB102:
  39:src/kernel/kernel_lib.cpp **** 
  40:src/kernel/kernel_lib.cpp **** void kprintString(const char* string)
  41:src/kernel/kernel_lib.cpp **** {
 163              		.loc 1 41 1 is_stmt 1
 164              		.cfi_startproc
 165              	.LVL10:
 166 00cc 130101FE 		addi	sp,sp,-32
 167              		.cfi_def_cfa_offset 32
 168 00d0 233C1100 		sd	ra,24(sp)
 169 00d4 23388100 		sd	s0,16(sp)
 170 00d8 23349100 		sd	s1,8(sp)
 171              		.cfi_offset 1, -8
 172              		.cfi_offset 8, -16
 173              		.cfi_offset 9, -24
 174 00dc 13040102 		addi	s0,sp,32
 175              		.cfi_def_cfa 8, 0
 176 00e0 93040500 		mv	s1,a0
  42:src/kernel/kernel_lib.cpp ****     if(!string) return;
 177              		.loc 1 42 5
 178 00e4 630E0500 		beq	a0,zero,.L11
 179              	.LVL11:
 180              	.L13:
  43:src/kernel/kernel_lib.cpp ****     while(*string)
 181              		.loc 1 43 5
 182              		.loc 1 43 11 is_stmt 0
 183 00e8 03C50400 		lbu	a0,0(s1)
 184              		.loc 1 43 12
 185 00ec 630A0500 		beq	a0,zero,.L11
  44:src/kernel/kernel_lib.cpp ****     {
  45:src/kernel/kernel_lib.cpp ****         kputc(*string);
 186              		.loc 1 45 9 is_stmt 1
GAS LISTING /tmp/ccbmzUVi.s 			page 5


 187              		.loc 1 45 14 is_stmt 0
 188 00f0 97000000 		call	_Z5kputcc
 188      E7800000 
 189              	.LVL12:
  46:src/kernel/kernel_lib.cpp ****         string++;
 190              		.loc 1 46 9 is_stmt 1
 191              		.loc 1 46 15 is_stmt 0
 192 00f8 93841400 		addi	s1,s1,1
 193              	.LVL13:
  43:src/kernel/kernel_lib.cpp ****     while(*string)
 194              		.loc 1 43 5
 195 00fc 6FF0DFFE 		j	.L13
 196              	.L11:
  47:src/kernel/kernel_lib.cpp ****     }
  48:src/kernel/kernel_lib.cpp **** }
 197              		.loc 1 48 1
 198 0100 83308101 		ld	ra,24(sp)
 199              		.cfi_restore 1
 200 0104 03340101 		ld	s0,16(sp)
 201              		.cfi_restore 8
 202              		.cfi_def_cfa 2, 32
 203 0108 83348100 		ld	s1,8(sp)
 204              		.cfi_restore 9
 205              	.LVL14:
 206 010c 13010102 		addi	sp,sp,32
 207              		.cfi_def_cfa_offset 0
 208 0110 67800000 		jr	ra
 209              		.cfi_endproc
 210              	.LFE102:
 212              		.align	2
 213              		.globl	_Z9kprintIntmib
 215              	_Z9kprintIntmib:
 216              	.LFB104:
  49:src/kernel/kernel_lib.cpp **** 
  50:src/kernel/kernel_lib.cpp **** int kernelInit()
  51:src/kernel/kernel_lib.cpp **** {
  52:src/kernel/kernel_lib.cpp ****     
  53:src/kernel/kernel_lib.cpp ****     kprintString("--------------KERNEL INIT--------------\n");
  54:src/kernel/kernel_lib.cpp ****     /* CHECKING VALUES OF KERNEL STATIC VARIABLES */
  55:src/kernel/kernel_lib.cpp ****     KCHECKPRINT(HEAP_START_ADDR);
  56:src/kernel/kernel_lib.cpp ****     KCHECKPRINT(HEAP_END_ADDR);
  57:src/kernel/kernel_lib.cpp ****     KCHECKPRINT(KERNEL_TEXT_START);
  58:src/kernel/kernel_lib.cpp ****     KCHECKPRINT(KERNEL_TEXT_END);
  59:src/kernel/kernel_lib.cpp ****     KCHECKPRINT(USER_TEXT_START);
  60:src/kernel/kernel_lib.cpp ****     KCHECKPRINT(USER_TEXT_END);
  61:src/kernel/kernel_lib.cpp ****     KCHECKPRINT(sizeof(PMT));
  62:src/kernel/kernel_lib.cpp ****     kprintString("\n\n");
  63:src/kernel/kernel_lib.cpp **** 
  64:src/kernel/kernel_lib.cpp ****     /* INITALIZING MAIN KERNEL OBJECTS */
  65:src/kernel/kernel_lib.cpp ****     NoAlloc::init();
  66:src/kernel/kernel_lib.cpp ****     kprintString("NoAlloc initalized: ");
  67:src/kernel/kernel_lib.cpp ****     KVALCHECKPRINT(NOALLOC_END_ADDR, NoAlloc::getEndAddress());
  68:src/kernel/kernel_lib.cpp **** 
  69:src/kernel/kernel_lib.cpp ****     Riscv::w_stvec((uint64)interruptvec); 
  70:src/kernel/kernel_lib.cpp ****     kprintString("stvec initalized!\n");
  71:src/kernel/kernel_lib.cpp ****     
  72:src/kernel/kernel_lib.cpp ****     MemoryAllocator::getInstance();
GAS LISTING /tmp/ccbmzUVi.s 			page 6


  73:src/kernel/kernel_lib.cpp ****     kprintString("MemoryAllocator initalized!\n");
  74:src/kernel/kernel_lib.cpp ****     
  75:src/kernel/kernel_lib.cpp ****     Scheduler::initalize();
  76:src/kernel/kernel_lib.cpp ****     kprintString("Scheduler initalized!\n");
  77:src/kernel/kernel_lib.cpp ****     
  78:src/kernel/kernel_lib.cpp ****     StdIO::initalize();
  79:src/kernel/kernel_lib.cpp ****     kprintString("StdIO initalized!\n");
  80:src/kernel/kernel_lib.cpp ****     
  81:src/kernel/kernel_lib.cpp ****     TCB::createMainKernelThread();
  82:src/kernel/kernel_lib.cpp ****     kprintString("Main kenrel thread initalized!\n");
  83:src/kernel/kernel_lib.cpp **** 
  84:src/kernel/kernel_lib.cpp ****     kprintString("Initalizing user thread and idle thread...\n");
  85:src/kernel/kernel_lib.cpp ****     uint64* userMainStack = (uint64*)kmalloc(DEFAULT_STACK_SIZE);
  86:src/kernel/kernel_lib.cpp ****     TCB* userMainThread = TCB::createThread(userMainWrapper, nullptr, userMainStack);
  87:src/kernel/kernel_lib.cpp **** 
  88:src/kernel/kernel_lib.cpp ****     uint64* idleThreadStack = (uint64*)kmalloc(DEFAULT_STACK_SIZE);
  89:src/kernel/kernel_lib.cpp ****     TCB* idleThread = TCB::createThread(idleFunction, nullptr, idleThreadStack);
  90:src/kernel/kernel_lib.cpp ****     if(userMainStack && idleThreadStack && idleThread && userMainThread)
  91:src/kernel/kernel_lib.cpp ****         kprintString("Threads successfully initalized!\n");
  92:src/kernel/kernel_lib.cpp ****     else
  93:src/kernel/kernel_lib.cpp ****         return -1; /* EXCEPTION */
  94:src/kernel/kernel_lib.cpp ****     kprintString("-----------KERNEL INITALIZED-----------\n\n");
  95:src/kernel/kernel_lib.cpp **** 
  96:src/kernel/kernel_lib.cpp ****     return 0;
  97:src/kernel/kernel_lib.cpp **** }
  98:src/kernel/kernel_lib.cpp **** 
  99:src/kernel/kernel_lib.cpp **** char kdigits[] = "0123456789ABCDEF";
 100:src/kernel/kernel_lib.cpp **** void kprintInt(uint64 xx, int base, bool sgn){
 217              		.loc 1 100 46 is_stmt 1
 218              		.cfi_startproc
 219              	.LVL15:
 220 0114 130101FC 		addi	sp,sp,-64
 221              		.cfi_def_cfa_offset 64
 222 0118 233C1102 		sd	ra,56(sp)
 223 011c 23388102 		sd	s0,48(sp)
 224 0120 23349102 		sd	s1,40(sp)
 225 0124 23302103 		sd	s2,32(sp)
 226 0128 233C3101 		sd	s3,24(sp)
 227              		.cfi_offset 1, -8
 228              		.cfi_offset 8, -16
 229              		.cfi_offset 9, -24
 230              		.cfi_offset 18, -32
 231              		.cfi_offset 19, -40
 232 012c 13040104 		addi	s0,sp,64
 233              		.cfi_def_cfa 8, 0
 234 0130 13090500 		mv	s2,a0
 235 0134 93890500 		mv	s3,a1
 101:src/kernel/kernel_lib.cpp ****     char buf[16];
 236              		.loc 1 101 5
 102:src/kernel/kernel_lib.cpp ****     int i;
 237              		.loc 1 102 5
 103:src/kernel/kernel_lib.cpp ****     if(sgn && base == 10){ 
 238              		.loc 1 103 5
 239 0138 63060600 		beq	a2,zero,.L16
 240              		.loc 1 103 12 is_stmt 0 discriminator 1
 241 013c 9307A000 		li	a5,10
 242 0140 6386F500 		beq	a1,a5,.L22
GAS LISTING /tmp/ccbmzUVi.s 			page 7


 243              	.LVL16:
 244              	.L16:
 100:src/kernel/kernel_lib.cpp ****     char buf[16];
 245              		.loc 1 100 46
 246 0144 93070000 		li	a5,0
 247 0148 6F00C001 		j	.L17
 248              	.LVL17:
 249              	.L22:
 104:src/kernel/kernel_lib.cpp ****         kputc('-');
 250              		.loc 1 104 9 is_stmt 1
 251              		.loc 1 104 14 is_stmt 0
 252 014c 1305D002 		li	a0,45
 253              	.LVL18:
 254 0150 97000000 		call	_Z5kputcc
 254      E7800000 
 255              	.LVL19:
 105:src/kernel/kernel_lib.cpp ****         xx = -xx;
 256              		.loc 1 105 9 is_stmt 1
 257              		.loc 1 105 12 is_stmt 0
 258 0158 33092041 		neg	s2,s2
 259              	.LVL20:
 260 015c 6FF09FFE 		j	.L16
 261              	.LVL21:
 262              	.L20:
 106:src/kernel/kernel_lib.cpp ****     }
 107:src/kernel/kernel_lib.cpp **** 
 108:src/kernel/kernel_lib.cpp ****     i = 0;
 109:src/kernel/kernel_lib.cpp ****     do{
 110:src/kernel/kernel_lib.cpp ****         buf[i++] = kdigits[xx % base];
 111:src/kernel/kernel_lib.cpp ****     }while((xx /= base) != 0);
 263              		.loc 1 111 16
 264 0160 13090700 		mv	s2,a4
 265              	.LVL22:
 266              	.L17:
 109:src/kernel/kernel_lib.cpp ****         buf[i++] = kdigits[xx % base];
 267              		.loc 1 109 5 is_stmt 1
 110:src/kernel/kernel_lib.cpp ****     }while((xx /= base) != 0);
 268              		.loc 1 110 9
 110:src/kernel/kernel_lib.cpp ****     }while((xx /= base) != 0);
 269              		.loc 1 110 31 is_stmt 0
 270 0164 B3763903 		remu	a3,s2,s3
 110:src/kernel/kernel_lib.cpp ****     }while((xx /= base) != 0);
 271              		.loc 1 110 14
 272 0168 9B841700 		addiw	s1,a5,1
 273              	.LVL23:
 110:src/kernel/kernel_lib.cpp ****     }while((xx /= base) != 0);
 274              		.loc 1 110 37
 275 016c 17070000 		lla	a4,.LANCHOR0
 275      13070700 
 276 0174 3307D700 		add	a4,a4,a3
 277 0178 03470700 		lbu	a4,0(a4)
 110:src/kernel/kernel_lib.cpp ****     }while((xx /= base) != 0);
 278              		.loc 1 110 18
 279 017c 930604FD 		addi	a3,s0,-48
 280 0180 B387F600 		add	a5,a3,a5
 281              	.LVL24:
 282 0184 2388E7FE 		sb	a4,-16(a5)
GAS LISTING /tmp/ccbmzUVi.s 			page 8


 283              		.loc 1 111 16
 284 0188 33573903 		divu	a4,s2,s3
 285              	.LVL25:
 110:src/kernel/kernel_lib.cpp ****     }while((xx /= base) != 0);
 286              		.loc 1 110 14
 287 018c 93870400 		mv	a5,s1
 288              		.loc 1 111 25
 289 0190 E37839FD 		bleu	s3,s2,.L20
 290              	.LVL26:
 291              	.L19:
 112:src/kernel/kernel_lib.cpp ****     
 113:src/kernel/kernel_lib.cpp ****     while(--i >= 0)
 292              		.loc 1 113 5 is_stmt 1
 293              		.loc 1 113 15 is_stmt 0
 294 0194 9B84F4FF 		addiw	s1,s1,-1
 295              	.LVL27:
 296 0198 63CE0400 		blt	s1,zero,.L15
 114:src/kernel/kernel_lib.cpp ****         kputc(buf[i]);
 297              		.loc 1 114 9 is_stmt 1
 298              		.loc 1 114 14 is_stmt 0
 299 019c 930704FD 		addi	a5,s0,-48
 300 01a0 B3879700 		add	a5,a5,s1
 301 01a4 03C507FF 		lbu	a0,-16(a5)
 302 01a8 97000000 		call	_Z5kputcc
 302      E7800000 
 303              	.LVL28:
 113:src/kernel/kernel_lib.cpp ****         kputc(buf[i]);
 304              		.loc 1 113 5
 305 01b0 6FF05FFE 		j	.L19
 306              	.L15:
 115:src/kernel/kernel_lib.cpp **** }
 307              		.loc 1 115 1
 308 01b4 83308103 		ld	ra,56(sp)
 309              		.cfi_restore 1
 310 01b8 03340103 		ld	s0,48(sp)
 311              		.cfi_restore 8
 312              		.cfi_def_cfa 2, 64
 313 01bc 83348102 		ld	s1,40(sp)
 314              		.cfi_restore 9
 315 01c0 03390102 		ld	s2,32(sp)
 316              		.cfi_restore 18
 317              	.LVL29:
 318 01c4 83398101 		ld	s3,24(sp)
 319              		.cfi_restore 19
 320 01c8 13010104 		addi	sp,sp,64
 321              		.cfi_def_cfa_offset 0
 322 01cc 67800000 		jr	ra
 323              		.cfi_endproc
 324              	.LFE104:
 326              		.align	2
 327              		.globl	_Z10kernelInitv
 329              	_Z10kernelInitv:
 330              	.LFB103:
  51:src/kernel/kernel_lib.cpp ****     
 331              		.loc 1 51 1 is_stmt 1
 332              		.cfi_startproc
 333 01d0 130101FD 		addi	sp,sp,-48
GAS LISTING /tmp/ccbmzUVi.s 			page 9


 334              		.cfi_def_cfa_offset 48
 335 01d4 23341102 		sd	ra,40(sp)
 336 01d8 23308102 		sd	s0,32(sp)
 337 01dc 233C9100 		sd	s1,24(sp)
 338 01e0 23382101 		sd	s2,16(sp)
 339 01e4 23343101 		sd	s3,8(sp)
 340              		.cfi_offset 1, -8
 341              		.cfi_offset 8, -16
 342              		.cfi_offset 9, -24
 343              		.cfi_offset 18, -32
 344              		.cfi_offset 19, -40
 345 01e8 13040103 		addi	s0,sp,48
 346              		.cfi_def_cfa 8, 0
  53:src/kernel/kernel_lib.cpp ****     /* CHECKING VALUES OF KERNEL STATIC VARIABLES */
 347              		.loc 1 53 5
  53:src/kernel/kernel_lib.cpp ****     /* CHECKING VALUES OF KERNEL STATIC VARIABLES */
 348              		.loc 1 53 17 is_stmt 0
 349 01ec 17050000 		lla	a0,.LC0
 349      13050500 
 350 01f4 97000000 		call	_Z12kprintStringPKc
 350      E7800000 
 351              	.LVL30:
  55:src/kernel/kernel_lib.cpp ****     KCHECKPRINT(HEAP_END_ADDR);
 352              		.loc 1 55 5 is_stmt 1
 353 01fc 17050000 		lla	a0,.LC1
 353      13050500 
 354 0204 97000000 		call	_Z12kprintStringPKc
 354      E7800000 
 355              	.LVL31:
  55:src/kernel/kernel_lib.cpp ****     KCHECKPRINT(HEAP_END_ADDR);
 356              		.loc 1 55 5
 357 020c 13060000 		li	a2,0
 358 0210 93050001 		li	a1,16
 359 0214 97070000 		lla	a5,HEAP_START_ADDR
 359      93870700 
 360 021c 03B50700 		ld	a0,0(a5)
 361 0220 97000000 		call	_Z9kprintIntmib
 361      E7800000 
 362              	.LVL32:
  55:src/kernel/kernel_lib.cpp ****     KCHECKPRINT(HEAP_END_ADDR);
 363              		.loc 1 55 5
 364 0228 17050000 		lla	a0,.LC2
 364      13050500 
 365 0230 97000000 		call	_Z12kprintStringPKc
 365      E7800000 
 366              	.LVL33:
  56:src/kernel/kernel_lib.cpp ****     KCHECKPRINT(KERNEL_TEXT_START);
 367              		.loc 1 56 5
 368 0238 17050000 		lla	a0,.LC3
 368      13050500 
 369 0240 97000000 		call	_Z12kprintStringPKc
 369      E7800000 
 370              	.LVL34:
  56:src/kernel/kernel_lib.cpp ****     KCHECKPRINT(KERNEL_TEXT_START);
 371              		.loc 1 56 5
 372 0248 13060000 		li	a2,0
 373 024c 93050001 		li	a1,16
GAS LISTING /tmp/ccbmzUVi.s 			page 10


 374 0250 97070000 		lla	a5,HEAP_END_ADDR
 374      93870700 
 375 0258 03B50700 		ld	a0,0(a5)
 376 025c 97000000 		call	_Z9kprintIntmib
 376      E7800000 
 377              	.LVL35:
  56:src/kernel/kernel_lib.cpp ****     KCHECKPRINT(KERNEL_TEXT_START);
 378              		.loc 1 56 5
 379 0264 17050000 		lla	a0,.LC2
 379      13050500 
 380 026c 97000000 		call	_Z12kprintStringPKc
 380      E7800000 
 381              	.LVL36:
  57:src/kernel/kernel_lib.cpp ****     KCHECKPRINT(KERNEL_TEXT_END);
 382              		.loc 1 57 5
 383 0274 17050000 		lla	a0,.LC4
 383      13050500 
 384 027c 97000000 		call	_Z12kprintStringPKc
 384      E7800000 
 385              	.LVL37:
  57:src/kernel/kernel_lib.cpp ****     KCHECKPRINT(KERNEL_TEXT_END);
 386              		.loc 1 57 5
 387 0284 13060000 		li	a2,0
 388 0288 93050001 		li	a1,16
 389 028c 97070000 		lla	a5,KERNEL_TEXT_START
 389      93870700 
 390 0294 03B50700 		ld	a0,0(a5)
 391 0298 97000000 		call	_Z9kprintIntmib
 391      E7800000 
 392              	.LVL38:
  57:src/kernel/kernel_lib.cpp ****     KCHECKPRINT(KERNEL_TEXT_END);
 393              		.loc 1 57 5
 394 02a0 17050000 		lla	a0,.LC2
 394      13050500 
 395 02a8 97000000 		call	_Z12kprintStringPKc
 395      E7800000 
 396              	.LVL39:
  58:src/kernel/kernel_lib.cpp ****     KCHECKPRINT(USER_TEXT_START);
 397              		.loc 1 58 5
 398 02b0 17050000 		lla	a0,.LC5
 398      13050500 
 399 02b8 97000000 		call	_Z12kprintStringPKc
 399      E7800000 
 400              	.LVL40:
  58:src/kernel/kernel_lib.cpp ****     KCHECKPRINT(USER_TEXT_START);
 401              		.loc 1 58 5
 402 02c0 13060000 		li	a2,0
 403 02c4 93050001 		li	a1,16
 404 02c8 97070000 		lla	a5,KERNEL_TEXT_END
 404      93870700 
 405 02d0 03B50700 		ld	a0,0(a5)
 406 02d4 97000000 		call	_Z9kprintIntmib
 406      E7800000 
 407              	.LVL41:
  58:src/kernel/kernel_lib.cpp ****     KCHECKPRINT(USER_TEXT_START);
 408              		.loc 1 58 5
 409 02dc 17050000 		lla	a0,.LC2
GAS LISTING /tmp/ccbmzUVi.s 			page 11


 409      13050500 
 410 02e4 97000000 		call	_Z12kprintStringPKc
 410      E7800000 
 411              	.LVL42:
  59:src/kernel/kernel_lib.cpp ****     KCHECKPRINT(USER_TEXT_END);
 412              		.loc 1 59 5
 413 02ec 17050000 		lla	a0,.LC6
 413      13050500 
 414 02f4 97000000 		call	_Z12kprintStringPKc
 414      E7800000 
 415              	.LVL43:
  59:src/kernel/kernel_lib.cpp ****     KCHECKPRINT(USER_TEXT_END);
 416              		.loc 1 59 5
 417 02fc 13060000 		li	a2,0
 418 0300 93050001 		li	a1,16
 419 0304 97070000 		lla	a5,USER_TEXT_START
 419      93870700 
 420 030c 03B50700 		ld	a0,0(a5)
 421 0310 97000000 		call	_Z9kprintIntmib
 421      E7800000 
 422              	.LVL44:
  59:src/kernel/kernel_lib.cpp ****     KCHECKPRINT(USER_TEXT_END);
 423              		.loc 1 59 5
 424 0318 17050000 		lla	a0,.LC2
 424      13050500 
 425 0320 97000000 		call	_Z12kprintStringPKc
 425      E7800000 
 426              	.LVL45:
  60:src/kernel/kernel_lib.cpp ****     KCHECKPRINT(sizeof(PMT));
 427              		.loc 1 60 5
 428 0328 17050000 		lla	a0,.LC7
 428      13050500 
 429 0330 97000000 		call	_Z12kprintStringPKc
 429      E7800000 
 430              	.LVL46:
  60:src/kernel/kernel_lib.cpp ****     KCHECKPRINT(sizeof(PMT));
 431              		.loc 1 60 5
 432 0338 13060000 		li	a2,0
 433 033c 93050001 		li	a1,16
 434 0340 97070000 		lla	a5,USER_TEXT_END
 434      93870700 
 435 0348 03B50700 		ld	a0,0(a5)
 436 034c 97000000 		call	_Z9kprintIntmib
 436      E7800000 
 437              	.LVL47:
  60:src/kernel/kernel_lib.cpp ****     KCHECKPRINT(sizeof(PMT));
 438              		.loc 1 60 5
 439 0354 17050000 		lla	a0,.LC2
 439      13050500 
 440 035c 97000000 		call	_Z12kprintStringPKc
 440      E7800000 
 441              	.LVL48:
  61:src/kernel/kernel_lib.cpp ****     kprintString("\n\n");
 442              		.loc 1 61 5
 443 0364 17050000 		lla	a0,.LC8
 443      13050500 
 444 036c 97000000 		call	_Z12kprintStringPKc
GAS LISTING /tmp/ccbmzUVi.s 			page 12


 444      E7800000 
 445              	.LVL49:
  61:src/kernel/kernel_lib.cpp ****     kprintString("\n\n");
 446              		.loc 1 61 5
 447 0374 13060000 		li	a2,0
 448 0378 93050001 		li	a1,16
 449 037c 37150000 		li	a0,4096
 450 0380 97000000 		call	_Z9kprintIntmib
 450      E7800000 
 451              	.LVL50:
  61:src/kernel/kernel_lib.cpp ****     kprintString("\n\n");
 452              		.loc 1 61 5
 453 0388 17050000 		lla	a0,.LC2
 453      13050500 
 454 0390 97000000 		call	_Z12kprintStringPKc
 454      E7800000 
 455              	.LVL51:
  62:src/kernel/kernel_lib.cpp **** 
 456              		.loc 1 62 5
  62:src/kernel/kernel_lib.cpp **** 
 457              		.loc 1 62 17 is_stmt 0
 458 0398 17050000 		lla	a0,.LC9
 458      13050500 
 459 03a0 97000000 		call	_Z12kprintStringPKc
 459      E7800000 
 460              	.LVL52:
  65:src/kernel/kernel_lib.cpp ****     kprintString("NoAlloc initalized: ");
 461              		.loc 1 65 5 is_stmt 1
  65:src/kernel/kernel_lib.cpp ****     kprintString("NoAlloc initalized: ");
 462              		.loc 1 65 18 is_stmt 0
 463 03a8 97000000 		call	_ZN7NoAlloc4initEv
 463      E7800000 
 464              	.LVL53:
  66:src/kernel/kernel_lib.cpp ****     KVALCHECKPRINT(NOALLOC_END_ADDR, NoAlloc::getEndAddress());
 465              		.loc 1 66 5 is_stmt 1
  66:src/kernel/kernel_lib.cpp ****     KVALCHECKPRINT(NOALLOC_END_ADDR, NoAlloc::getEndAddress());
 466              		.loc 1 66 17 is_stmt 0
 467 03b0 17050000 		lla	a0,.LC10
 467      13050500 
 468 03b8 97000000 		call	_Z12kprintStringPKc
 468      E7800000 
 469              	.LVL54:
  67:src/kernel/kernel_lib.cpp **** 
 470              		.loc 1 67 5 is_stmt 1
 471 03c0 17050000 		lla	a0,.LC11
 471      13050500 
 472 03c8 97000000 		call	_Z12kprintStringPKc
 472      E7800000 
 473              	.LVL55:
  67:src/kernel/kernel_lib.cpp **** 
 474              		.loc 1 67 5
 475              	.LBB8:
 476              	.LBB9:
 477              		.file 2 "src/kernel/../../h/../h/noalloc_allocator.hpp"
   1:src/kernel/../../h/../h/noalloc_allocator.hpp **** #ifndef NOALLOC_ALLOCATOR_H
   2:src/kernel/../../h/../h/noalloc_allocator.hpp **** #define NOALLOC_ALLOCATOR_H
   3:src/kernel/../../h/../h/noalloc_allocator.hpp **** 
GAS LISTING /tmp/ccbmzUVi.s 			page 13


   4:src/kernel/../../h/../h/noalloc_allocator.hpp **** #include"../lib/hw.h"
   5:src/kernel/../../h/../h/noalloc_allocator.hpp **** 
   6:src/kernel/../../h/../h/noalloc_allocator.hpp **** /* CHECK THIS !!!!!
   7:src/kernel/../../h/../h/noalloc_allocator.hpp **** *
   8:src/kernel/../../h/../h/noalloc_allocator.hpp **** * No existing allocator operator functions;
   9:src/kernel/../../h/../h/noalloc_allocator.hpp **** * Used for allocating allocator objects;
  10:src/kernel/../../h/../h/noalloc_allocator.hpp **** * Allocators are not deallocated so operator delete is not needed;
  11:src/kernel/../../h/../h/noalloc_allocator.hpp **** *
  12:src/kernel/../../h/../h/noalloc_allocator.hpp **** */
  13:src/kernel/../../h/../h/noalloc_allocator.hpp **** #define __NOALLOC_OPERATORS__ \
  14:src/kernel/../../h/../h/noalloc_allocator.hpp **** void* operator new(size_t sz){ return NoAlloc::mem_alloc(sz); } \
  15:src/kernel/../../h/../h/noalloc_allocator.hpp **** void* operator new[](size_t sz){ return NoAlloc::mem_alloc(sz); } \
  16:src/kernel/../../h/../h/noalloc_allocator.hpp **** void operator delete(void* ptr){  } \
  17:src/kernel/../../h/../h/noalloc_allocator.hpp **** void operator delete[](void* ptr){  }
  18:src/kernel/../../h/../h/noalloc_allocator.hpp **** 
  19:src/kernel/../../h/../h/noalloc_allocator.hpp **** 
  20:src/kernel/../../h/../h/noalloc_allocator.hpp **** /* 
  21:src/kernel/../../h/../h/noalloc_allocator.hpp **** * Continual allocation used when there is no allocator;
  22:src/kernel/../../h/../h/noalloc_allocator.hpp **** * -----USED FOR ALLOCATING ALLOCATOR OBJECTS-----
  23:src/kernel/../../h/../h/noalloc_allocator.hpp **** */
  24:src/kernel/../../h/../h/noalloc_allocator.hpp **** class NoAlloc{ /* singleton */ 
  25:src/kernel/../../h/../h/noalloc_allocator.hpp ****     static void* NOALLOC_END_ADDR; 
  26:src/kernel/../../h/../h/noalloc_allocator.hpp **** public:
  27:src/kernel/../../h/../h/noalloc_allocator.hpp ****     static void init(); /* set NOALLOC END ADDR = HEAP START ADDR */
  28:src/kernel/../../h/../h/noalloc_allocator.hpp ****     static void* getEndAddress(){ return NOALLOC_END_ADDR; } /* get end address of allocated object
 478              		.loc 2 28 35
 479              	.LBE9:
 480              	.LBE8:
  67:src/kernel/kernel_lib.cpp **** 
 481              		.loc 1 67 5 is_stmt 0
 482 03d0 13060000 		li	a2,0
 483 03d4 93050001 		li	a1,16
 484 03d8 97070000 		lla	a5,_ZN7NoAlloc16NOALLOC_END_ADDRE
 484      93870700 
 485 03e0 03B50700 		ld	a0,0(a5)
 486 03e4 97000000 		call	_Z9kprintIntmib
 486      E7800000 
 487              	.LVL56:
  67:src/kernel/kernel_lib.cpp **** 
 488              		.loc 1 67 5 is_stmt 1
 489 03ec 17050000 		lla	a0,.LC2
 489      13050500 
 490 03f4 97000000 		call	_Z12kprintStringPKc
 490      E7800000 
 491              	.LVL57:
  69:src/kernel/kernel_lib.cpp ****     kprintString("stvec initalized!\n");
 492              		.loc 1 69 5
  69:src/kernel/kernel_lib.cpp ****     kprintString("stvec initalized!\n");
 493              		.loc 1 69 19 is_stmt 0
 494 03fc 97070000 		lla	a5,interruptvec
 494      93870700 
 495              	.LVL58:
 496              	.LBB10:
 497              	.LBB11:
 498              		.file 3 "src/kernel/../../h/../h/riscv.hpp"
   1:src/kernel/../../h/../h/riscv.hpp **** #ifndef __riscv__
   2:src/kernel/../../h/../h/riscv.hpp **** #define __riscv__
GAS LISTING /tmp/ccbmzUVi.s 			page 14


   3:src/kernel/../../h/../h/riscv.hpp **** 
   4:src/kernel/../../h/../h/riscv.hpp **** #include"../lib/hw.h"
   5:src/kernel/../../h/../h/riscv.hpp **** 
   6:src/kernel/../../h/../h/riscv.hpp **** class Riscv{
   7:src/kernel/../../h/../h/riscv.hpp **** public:
   8:src/kernel/../../h/../h/riscv.hpp **** /* 
   9:src/kernel/../../h/../h/riscv.hpp **** --------------------SUPERVISOR REGISTERS--------------------    
  10:src/kernel/../../h/../h/riscv.hpp **** */
  11:src/kernel/../../h/../h/riscv.hpp ****     static void w_scause(uint64);
  12:src/kernel/../../h/../h/riscv.hpp ****     static uint64 r_scause(); 
  13:src/kernel/../../h/../h/riscv.hpp **** 
  14:src/kernel/../../h/../h/riscv.hpp ****     static void w_sepc(uint64);
  15:src/kernel/../../h/../h/riscv.hpp ****     static uint64 r_sepc();
  16:src/kernel/../../h/../h/riscv.hpp ****     static void ni_sepc();
  17:src/kernel/../../h/../h/riscv.hpp **** 
  18:src/kernel/../../h/../h/riscv.hpp ****     static void w_stvec(uint64);
  19:src/kernel/../../h/../h/riscv.hpp ****     static uint64 r_stvec();
  20:src/kernel/../../h/../h/riscv.hpp ****      
  21:src/kernel/../../h/../h/riscv.hpp ****     static void w_stval(uint64);
  22:src/kernel/../../h/../h/riscv.hpp ****     static uint64 r_stval();
  23:src/kernel/../../h/../h/riscv.hpp ****     
  24:src/kernel/../../h/../h/riscv.hpp ****     enum BitMaskSip{
  25:src/kernel/../../h/../h/riscv.hpp ****         SIP_SSIE = (1<<1),
  26:src/kernel/../../h/../h/riscv.hpp ****         SIP_STIE = (1<<5),
  27:src/kernel/../../h/../h/riscv.hpp ****         SIP_SEIE = (1<<9),
  28:src/kernel/../../h/../h/riscv.hpp ****     };
  29:src/kernel/../../h/../h/riscv.hpp **** 
  30:src/kernel/../../h/../h/riscv.hpp ****     static void ms_sip(uint64);
  31:src/kernel/../../h/../h/riscv.hpp ****     static void mc_sip(uint64);
  32:src/kernel/../../h/../h/riscv.hpp **** 
  33:src/kernel/../../h/../h/riscv.hpp ****     static void w_sip(uint64);
  34:src/kernel/../../h/../h/riscv.hpp ****     static uint64 r_sip();
  35:src/kernel/../../h/../h/riscv.hpp **** 
  36:src/kernel/../../h/../h/riscv.hpp ****     enum BitMaskSstatus{
  37:src/kernel/../../h/../h/riscv.hpp ****         SSTATUS_SIE = (1<<1),
  38:src/kernel/../../h/../h/riscv.hpp ****         SSTATUS_SPIE = (1<<5),
  39:src/kernel/../../h/../h/riscv.hpp ****         SSTATUS_SPP = (1<<8),
  40:src/kernel/../../h/../h/riscv.hpp ****     };
  41:src/kernel/../../h/../h/riscv.hpp **** 
  42:src/kernel/../../h/../h/riscv.hpp ****     static void ms_sstatus(uint64);
  43:src/kernel/../../h/../h/riscv.hpp ****     static void mc_sstatus(uint64);
  44:src/kernel/../../h/../h/riscv.hpp **** 
  45:src/kernel/../../h/../h/riscv.hpp ****     static void w_sstatus(uint64);
  46:src/kernel/../../h/../h/riscv.hpp ****     static uint64 r_sstatus();
  47:src/kernel/../../h/../h/riscv.hpp **** 
  48:src/kernel/../../h/../h/riscv.hpp **** /* 
  49:src/kernel/../../h/../h/riscv.hpp **** --------------------CLASSIC REGISTERS--------------------    
  50:src/kernel/../../h/../h/riscv.hpp **** */
  51:src/kernel/../../h/../h/riscv.hpp ****     static uint64 r_a0(); /* parameter registers */
  52:src/kernel/../../h/../h/riscv.hpp ****     static uint64 s_a0(uint64 a0);
  53:src/kernel/../../h/../h/riscv.hpp ****     static uint64 r_a1();
  54:src/kernel/../../h/../h/riscv.hpp ****     static uint64 r_a2();
  55:src/kernel/../../h/../h/riscv.hpp ****     static uint64 r_a3();
  56:src/kernel/../../h/../h/riscv.hpp ****     static uint64 r_a4();
  57:src/kernel/../../h/../h/riscv.hpp **** 
  58:src/kernel/../../h/../h/riscv.hpp ****     static void popRegisters(); /* pop all context registers */
  59:src/kernel/../../h/../h/riscv.hpp ****     static void pushRegisters(); /* push all context registers */
GAS LISTING /tmp/ccbmzUVi.s 			page 15


  60:src/kernel/../../h/../h/riscv.hpp ****  
  61:src/kernel/../../h/../h/riscv.hpp ****     static void popSppSpie(); /* jump from kernel to start of thread */
  62:src/kernel/../../h/../h/riscv.hpp **** 
  63:src/kernel/../../h/../h/riscv.hpp **** /* 
  64:src/kernel/../../h/../h/riscv.hpp **** --------------------CONSOLE REGISTERS--------------------    
  65:src/kernel/../../h/../h/riscv.hpp **** */
  66:src/kernel/../../h/../h/riscv.hpp ****     static void mc_cstatus(uint64 mask); 
  67:src/kernel/../../h/../h/riscv.hpp ****     static bool cstatus_ready(uint64 mask);
  68:src/kernel/../../h/../h/riscv.hpp **** };
  69:src/kernel/../../h/../h/riscv.hpp **** 
  70:src/kernel/../../h/../h/riscv.hpp **** /* 
  71:src/kernel/../../h/../h/riscv.hpp **** --------------------CLASSIC REGISTERS--------------------    
  72:src/kernel/../../h/../h/riscv.hpp **** */
  73:src/kernel/../../h/../h/riscv.hpp **** 
  74:src/kernel/../../h/../h/riscv.hpp **** inline uint64 Riscv::r_a0(){
  75:src/kernel/../../h/../h/riscv.hpp ****     uint64 a0;
  76:src/kernel/../../h/../h/riscv.hpp ****     asm volatile("mv %0, a0" : "=r" (a0));
  77:src/kernel/../../h/../h/riscv.hpp ****     return a0;
  78:src/kernel/../../h/../h/riscv.hpp **** }
  79:src/kernel/../../h/../h/riscv.hpp **** 
  80:src/kernel/../../h/../h/riscv.hpp **** inline uint64 Riscv::r_a1(){
  81:src/kernel/../../h/../h/riscv.hpp ****     uint64 a0;
  82:src/kernel/../../h/../h/riscv.hpp ****     asm volatile("mv %0, a1" : "=r" (a0));
  83:src/kernel/../../h/../h/riscv.hpp ****     return a0;
  84:src/kernel/../../h/../h/riscv.hpp **** }
  85:src/kernel/../../h/../h/riscv.hpp **** 
  86:src/kernel/../../h/../h/riscv.hpp **** inline uint64 Riscv::r_a2(){
  87:src/kernel/../../h/../h/riscv.hpp ****     uint64 a0;
  88:src/kernel/../../h/../h/riscv.hpp ****     asm volatile("mv %0, a2" : "=r" (a0));
  89:src/kernel/../../h/../h/riscv.hpp ****     return a0;
  90:src/kernel/../../h/../h/riscv.hpp **** }
  91:src/kernel/../../h/../h/riscv.hpp **** 
  92:src/kernel/../../h/../h/riscv.hpp **** inline uint64 Riscv::r_a3(){
  93:src/kernel/../../h/../h/riscv.hpp ****     uint64 a0;
  94:src/kernel/../../h/../h/riscv.hpp ****     asm volatile("mv %0, a3" : "=r" (a0));
  95:src/kernel/../../h/../h/riscv.hpp ****     return a0;
  96:src/kernel/../../h/../h/riscv.hpp **** }
  97:src/kernel/../../h/../h/riscv.hpp **** 
  98:src/kernel/../../h/../h/riscv.hpp **** inline uint64 Riscv::r_a4(){
  99:src/kernel/../../h/../h/riscv.hpp ****     uint64 a0;
 100:src/kernel/../../h/../h/riscv.hpp ****     asm volatile("mv %0, a4" : "=r" (a0));
 101:src/kernel/../../h/../h/riscv.hpp ****     return a0;
 102:src/kernel/../../h/../h/riscv.hpp **** }
 103:src/kernel/../../h/../h/riscv.hpp **** 
 104:src/kernel/../../h/../h/riscv.hpp **** 
 105:src/kernel/../../h/../h/riscv.hpp **** inline uint64 Riscv::s_a0(uint64 a0){
 106:src/kernel/../../h/../h/riscv.hpp ****     return a0;
 107:src/kernel/../../h/../h/riscv.hpp **** }
 108:src/kernel/../../h/../h/riscv.hpp **** 
 109:src/kernel/../../h/../h/riscv.hpp **** /* 
 110:src/kernel/../../h/../h/riscv.hpp **** --------------------SUPERVISOR REGISTERS--------------------    
 111:src/kernel/../../h/../h/riscv.hpp **** */
 112:src/kernel/../../h/../h/riscv.hpp **** 
 113:src/kernel/../../h/../h/riscv.hpp **** inline void Riscv::w_scause(uint64 scause){
 114:src/kernel/../../h/../h/riscv.hpp ****     asm volatile("csrw scause, %0" : : "r" (scause));
 115:src/kernel/../../h/../h/riscv.hpp **** }
 116:src/kernel/../../h/../h/riscv.hpp **** 
GAS LISTING /tmp/ccbmzUVi.s 			page 16


 117:src/kernel/../../h/../h/riscv.hpp **** inline uint64 Riscv::r_scause(){
 118:src/kernel/../../h/../h/riscv.hpp ****     uint64 volatile scause;
 119:src/kernel/../../h/../h/riscv.hpp ****     asm volatile("csrr %0, scause" : "=r" (scause));
 120:src/kernel/../../h/../h/riscv.hpp ****     return scause;
 121:src/kernel/../../h/../h/riscv.hpp **** } 
 122:src/kernel/../../h/../h/riscv.hpp **** 
 123:src/kernel/../../h/../h/riscv.hpp **** inline void Riscv::w_sepc(uint64 sepc){
 124:src/kernel/../../h/../h/riscv.hpp ****     asm volatile("csrw sepc, %0" : : "r" (sepc));
 125:src/kernel/../../h/../h/riscv.hpp **** }
 126:src/kernel/../../h/../h/riscv.hpp **** 
 127:src/kernel/../../h/../h/riscv.hpp **** inline uint64 Riscv::r_sepc(){
 128:src/kernel/../../h/../h/riscv.hpp ****     uint64 volatile sepc;
 129:src/kernel/../../h/../h/riscv.hpp ****     asm volatile("csrr %0, sepc" : "=r" (sepc));
 130:src/kernel/../../h/../h/riscv.hpp ****     return sepc;
 131:src/kernel/../../h/../h/riscv.hpp **** } 
 132:src/kernel/../../h/../h/riscv.hpp **** 
 133:src/kernel/../../h/../h/riscv.hpp **** inline void Riscv::w_stvec(uint64 stvec){
 134:src/kernel/../../h/../h/riscv.hpp ****     asm volatile("csrw stvec, %0" : : "r" (stvec));
 499              		.loc 3 134 5 is_stmt 1
 500              		.loc 3 134 51 is_stmt 0
 501              	 #APP
 502              	# 134 "src/kernel/../../h/../h/riscv.hpp" 1
 135              	}
 503              		csrw stvec, a5
 504              	# 0 "" 2
 505              	.LVL59:
 506              	 #NO_APP
 507              	.LBE11:
 508              	.LBE10:
  70:src/kernel/kernel_lib.cpp ****     
 509              		.loc 1 70 5 is_stmt 1
  70:src/kernel/kernel_lib.cpp ****     
 510              		.loc 1 70 17 is_stmt 0
 511 0408 17050000 		lla	a0,.LC12
 511      13050500 
 512 0410 97000000 		call	_Z12kprintStringPKc
 512      E7800000 
 513              	.LVL60:
  72:src/kernel/kernel_lib.cpp ****     kprintString("MemoryAllocator initalized!\n");
 514              		.loc 1 72 5 is_stmt 1
  72:src/kernel/kernel_lib.cpp ****     kprintString("MemoryAllocator initalized!\n");
 515              		.loc 1 72 34 is_stmt 0
 516 0418 97000000 		call	_ZN15MemoryAllocator11getInstanceEv
 516      E7800000 
 517              	.LVL61:
  73:src/kernel/kernel_lib.cpp ****     
 518              		.loc 1 73 5 is_stmt 1
  73:src/kernel/kernel_lib.cpp ****     
 519              		.loc 1 73 17 is_stmt 0
 520 0420 17050000 		lla	a0,.LC13
 520      13050500 
 521 0428 97000000 		call	_Z12kprintStringPKc
 521      E7800000 
 522              	.LVL62:
  75:src/kernel/kernel_lib.cpp ****     kprintString("Scheduler initalized!\n");
 523              		.loc 1 75 5 is_stmt 1
  75:src/kernel/kernel_lib.cpp ****     kprintString("Scheduler initalized!\n");
GAS LISTING /tmp/ccbmzUVi.s 			page 17


 524              		.loc 1 75 25 is_stmt 0
 525 0430 97000000 		call	_ZN9Scheduler9initalizeEv
 525      E7800000 
 526              	.LVL63:
  76:src/kernel/kernel_lib.cpp ****     
 527              		.loc 1 76 5 is_stmt 1
  76:src/kernel/kernel_lib.cpp ****     
 528              		.loc 1 76 17 is_stmt 0
 529 0438 17050000 		lla	a0,.LC14
 529      13050500 
 530 0440 97000000 		call	_Z12kprintStringPKc
 530      E7800000 
 531              	.LVL64:
  78:src/kernel/kernel_lib.cpp ****     kprintString("StdIO initalized!\n");
 532              		.loc 1 78 5 is_stmt 1
  78:src/kernel/kernel_lib.cpp ****     kprintString("StdIO initalized!\n");
 533              		.loc 1 78 21 is_stmt 0
 534 0448 97000000 		call	_ZN5StdIO9initalizeEv
 534      E7800000 
 535              	.LVL65:
  79:src/kernel/kernel_lib.cpp ****     
 536              		.loc 1 79 5 is_stmt 1
  79:src/kernel/kernel_lib.cpp ****     
 537              		.loc 1 79 17 is_stmt 0
 538 0450 17050000 		lla	a0,.LC15
 538      13050500 
 539 0458 97000000 		call	_Z12kprintStringPKc
 539      E7800000 
 540              	.LVL66:
  81:src/kernel/kernel_lib.cpp ****     kprintString("Main kenrel thread initalized!\n");
 541              		.loc 1 81 5 is_stmt 1
  81:src/kernel/kernel_lib.cpp ****     kprintString("Main kenrel thread initalized!\n");
 542              		.loc 1 81 32 is_stmt 0
 543 0460 97000000 		call	_ZN3TCB22createMainKernelThreadEv
 543      E7800000 
 544              	.LVL67:
  82:src/kernel/kernel_lib.cpp **** 
 545              		.loc 1 82 5 is_stmt 1
  82:src/kernel/kernel_lib.cpp **** 
 546              		.loc 1 82 17 is_stmt 0
 547 0468 17050000 		lla	a0,.LC16
 547      13050500 
 548 0470 97000000 		call	_Z12kprintStringPKc
 548      E7800000 
 549              	.LVL68:
  84:src/kernel/kernel_lib.cpp ****     uint64* userMainStack = (uint64*)kmalloc(DEFAULT_STACK_SIZE);
 550              		.loc 1 84 5 is_stmt 1
  84:src/kernel/kernel_lib.cpp ****     uint64* userMainStack = (uint64*)kmalloc(DEFAULT_STACK_SIZE);
 551              		.loc 1 84 17 is_stmt 0
 552 0478 17050000 		lla	a0,.LC17
 552      13050500 
 553 0480 97000000 		call	_Z12kprintStringPKc
 553      E7800000 
 554              	.LVL69:
  85:src/kernel/kernel_lib.cpp ****     TCB* userMainThread = TCB::createThread(userMainWrapper, nullptr, userMainStack);
 555              		.loc 1 85 5 is_stmt 1
  85:src/kernel/kernel_lib.cpp ****     TCB* userMainThread = TCB::createThread(userMainWrapper, nullptr, userMainStack);
GAS LISTING /tmp/ccbmzUVi.s 			page 18


 556              		.loc 1 85 45 is_stmt 0
 557 0488 37150000 		li	a0,4096
 558 048c 97000000 		call	_Z7kmallocm
 558      E7800000 
 559              	.LVL70:
 560 0494 93040500 		mv	s1,a0
 561              	.LVL71:
  86:src/kernel/kernel_lib.cpp **** 
 562              		.loc 1 86 5 is_stmt 1
  86:src/kernel/kernel_lib.cpp **** 
 563              		.loc 1 86 44 is_stmt 0
 564 0498 13060500 		mv	a2,a0
 565 049c 93050000 		li	a1,0
 566 04a0 17050000 		lla	a0,_Z15userMainWrapperPv
 566      13050500 
 567 04a8 97000000 		call	_ZN3TCB12createThreadEPFvPvES0_Pm
 567      E7800000 
 568              	.LVL72:
 569 04b0 93090500 		mv	s3,a0
 570              	.LVL73:
  88:src/kernel/kernel_lib.cpp ****     TCB* idleThread = TCB::createThread(idleFunction, nullptr, idleThreadStack);
 571              		.loc 1 88 5 is_stmt 1
  88:src/kernel/kernel_lib.cpp ****     TCB* idleThread = TCB::createThread(idleFunction, nullptr, idleThreadStack);
 572              		.loc 1 88 47 is_stmt 0
 573 04b4 37150000 		li	a0,4096
 574              	.LVL74:
 575 04b8 97000000 		call	_Z7kmallocm
 575      E7800000 
 576              	.LVL75:
 577 04c0 13090500 		mv	s2,a0
 578              	.LVL76:
  89:src/kernel/kernel_lib.cpp ****     if(userMainStack && idleThreadStack && idleThread && userMainThread)
 579              		.loc 1 89 5 is_stmt 1
  89:src/kernel/kernel_lib.cpp ****     if(userMainStack && idleThreadStack && idleThread && userMainThread)
 580              		.loc 1 89 40 is_stmt 0
 581 04c4 13060500 		mv	a2,a0
 582 04c8 93050000 		li	a1,0
 583 04cc 17050000 		lla	a0,_Z12idleFunctionPv
 583      13050500 
 584              	.LVL77:
 585 04d4 97000000 		call	_ZN3TCB12createThreadEPFvPvES0_Pm
 585      E7800000 
 586              	.LVL78:
  90:src/kernel/kernel_lib.cpp ****         kprintString("Threads successfully initalized!\n");
 587              		.loc 1 90 5 is_stmt 1
 588 04dc 63880404 		beq	s1,zero,.L25
  90:src/kernel/kernel_lib.cpp ****         kprintString("Threads successfully initalized!\n");
 589              		.loc 1 90 22 is_stmt 0 discriminator 1
 590 04e0 630A0904 		beq	s2,zero,.L26
  90:src/kernel/kernel_lib.cpp ****         kprintString("Threads successfully initalized!\n");
 591              		.loc 1 90 41 discriminator 2
 592 04e4 630C0504 		beq	a0,zero,.L27
  90:src/kernel/kernel_lib.cpp ****         kprintString("Threads successfully initalized!\n");
 593              		.loc 1 90 55 discriminator 3
 594 04e8 638E0904 		beq	s3,zero,.L28
  91:src/kernel/kernel_lib.cpp ****     else
 595              		.loc 1 91 9 is_stmt 1
GAS LISTING /tmp/ccbmzUVi.s 			page 19


  91:src/kernel/kernel_lib.cpp ****     else
 596              		.loc 1 91 21 is_stmt 0
 597 04ec 17050000 		lla	a0,.LC18
 597      13050500 
 598              	.LVL79:
 599 04f4 97000000 		call	_Z12kprintStringPKc
 599      E7800000 
 600              	.LVL80:
  94:src/kernel/kernel_lib.cpp **** 
 601              		.loc 1 94 5 is_stmt 1
  94:src/kernel/kernel_lib.cpp **** 
 602              		.loc 1 94 17 is_stmt 0
 603 04fc 17050000 		lla	a0,.LC19
 603      13050500 
 604 0504 97000000 		call	_Z12kprintStringPKc
 604      E7800000 
 605              	.LVL81:
  96:src/kernel/kernel_lib.cpp **** }
 606              		.loc 1 96 5 is_stmt 1
  96:src/kernel/kernel_lib.cpp **** }
 607              		.loc 1 96 12 is_stmt 0
 608 050c 13050000 		li	a0,0
 609              	.L24:
  97:src/kernel/kernel_lib.cpp **** 
 610              		.loc 1 97 1
 611 0510 83308102 		ld	ra,40(sp)
 612              		.cfi_remember_state
 613              		.cfi_restore 1
 614 0514 03340102 		ld	s0,32(sp)
 615              		.cfi_restore 8
 616              		.cfi_def_cfa 2, 48
 617 0518 83348101 		ld	s1,24(sp)
 618              		.cfi_restore 9
 619              	.LVL82:
 620 051c 03390101 		ld	s2,16(sp)
 621              		.cfi_restore 18
 622              	.LVL83:
 623 0520 83398100 		ld	s3,8(sp)
 624              		.cfi_restore 19
 625              	.LVL84:
 626 0524 13010103 		addi	sp,sp,48
 627              		.cfi_def_cfa_offset 0
 628 0528 67800000 		jr	ra
 629              	.LVL85:
 630              	.L25:
 631              		.cfi_restore_state
  93:src/kernel/kernel_lib.cpp ****     kprintString("-----------KERNEL INITALIZED-----------\n\n");
 632              		.loc 1 93 17
 633 052c 1305F0FF 		li	a0,-1
 634              	.LVL86:
 635 0530 6FF01FFE 		j	.L24
 636              	.LVL87:
 637              	.L26:
 638 0534 1305F0FF 		li	a0,-1
 639              	.LVL88:
 640 0538 6FF09FFD 		j	.L24
 641              	.LVL89:
GAS LISTING /tmp/ccbmzUVi.s 			page 20


 642              	.L27:
 643 053c 1305F0FF 		li	a0,-1
 644              	.LVL90:
 645 0540 6FF01FFD 		j	.L24
 646              	.LVL91:
 647              	.L28:
 648 0544 1305F0FF 		li	a0,-1
 649              	.LVL92:
 650 0548 6FF09FFC 		j	.L24
 651              		.cfi_endproc
 652              	.LFE103:
 654              		.align	2
 655              		.globl	_Z13newKernelInitv
 657              	_Z13newKernelInitv:
 658              	.LFB105:
 116:src/kernel/kernel_lib.cpp **** 
 117:src/kernel/kernel_lib.cpp **** int newKernelInit(){
 659              		.loc 1 117 20 is_stmt 1
 660              		.cfi_startproc
 661 054c 130101FF 		addi	sp,sp,-16
 662              		.cfi_def_cfa_offset 16
 663 0550 23341100 		sd	ra,8(sp)
 664 0554 23308100 		sd	s0,0(sp)
 665              		.cfi_offset 1, -8
 666              		.cfi_offset 8, -16
 667 0558 13040101 		addi	s0,sp,16
 668              		.cfi_def_cfa 8, 0
 118:src/kernel/kernel_lib.cpp ****     kprintString("--------------KERNEL INIT--------------\n");
 669              		.loc 1 118 5
 670              		.loc 1 118 17 is_stmt 0
 671 055c 17050000 		lla	a0,.LC0
 671      13050500 
 672 0564 97000000 		call	_Z12kprintStringPKc
 672      E7800000 
 673              	.LVL93:
 119:src/kernel/kernel_lib.cpp ****     /* CHECKING VALUES OF KERNEL STATIC VARIABLES */
 120:src/kernel/kernel_lib.cpp ****     KCHECKPRINT(HEAP_START_ADDR);
 674              		.loc 1 120 5 is_stmt 1
 675 056c 17050000 		lla	a0,.LC1
 675      13050500 
 676 0574 97000000 		call	_Z12kprintStringPKc
 676      E7800000 
 677              	.LVL94:
 678              		.loc 1 120 5
 679 057c 13060000 		li	a2,0
 680 0580 93050001 		li	a1,16
 681 0584 97070000 		lla	a5,HEAP_START_ADDR
 681      93870700 
 682 058c 03B50700 		ld	a0,0(a5)
 683 0590 97000000 		call	_Z9kprintIntmib
 683      E7800000 
 684              	.LVL95:
 685              		.loc 1 120 5
 686 0598 17050000 		lla	a0,.LC2
 686      13050500 
 687 05a0 97000000 		call	_Z12kprintStringPKc
 687      E7800000 
GAS LISTING /tmp/ccbmzUVi.s 			page 21


 688              	.LVL96:
 121:src/kernel/kernel_lib.cpp ****     KCHECKPRINT(HEAP_END_ADDR);
 689              		.loc 1 121 5
 690 05a8 17050000 		lla	a0,.LC3
 690      13050500 
 691 05b0 97000000 		call	_Z12kprintStringPKc
 691      E7800000 
 692              	.LVL97:
 693              		.loc 1 121 5
 694 05b8 13060000 		li	a2,0
 695 05bc 93050001 		li	a1,16
 696 05c0 97070000 		lla	a5,HEAP_END_ADDR
 696      93870700 
 697 05c8 03B50700 		ld	a0,0(a5)
 698 05cc 97000000 		call	_Z9kprintIntmib
 698      E7800000 
 699              	.LVL98:
 700              		.loc 1 121 5
 701 05d4 17050000 		lla	a0,.LC2
 701      13050500 
 702 05dc 97000000 		call	_Z12kprintStringPKc
 702      E7800000 
 703              	.LVL99:
 122:src/kernel/kernel_lib.cpp ****     KCHECKPRINT(KERNEL_TEXT_START);
 704              		.loc 1 122 5
 705 05e4 17050000 		lla	a0,.LC4
 705      13050500 
 706 05ec 97000000 		call	_Z12kprintStringPKc
 706      E7800000 
 707              	.LVL100:
 708              		.loc 1 122 5
 709 05f4 13060000 		li	a2,0
 710 05f8 93050001 		li	a1,16
 711 05fc 97070000 		lla	a5,KERNEL_TEXT_START
 711      93870700 
 712 0604 03B50700 		ld	a0,0(a5)
 713 0608 97000000 		call	_Z9kprintIntmib
 713      E7800000 
 714              	.LVL101:
 715              		.loc 1 122 5
 716 0610 17050000 		lla	a0,.LC2
 716      13050500 
 717 0618 97000000 		call	_Z12kprintStringPKc
 717      E7800000 
 718              	.LVL102:
 123:src/kernel/kernel_lib.cpp ****     KCHECKPRINT(KERNEL_TEXT_END);
 719              		.loc 1 123 5
 720 0620 17050000 		lla	a0,.LC5
 720      13050500 
 721 0628 97000000 		call	_Z12kprintStringPKc
 721      E7800000 
 722              	.LVL103:
 723              		.loc 1 123 5
 724 0630 13060000 		li	a2,0
 725 0634 93050001 		li	a1,16
 726 0638 97070000 		lla	a5,KERNEL_TEXT_END
 726      93870700 
GAS LISTING /tmp/ccbmzUVi.s 			page 22


 727 0640 03B50700 		ld	a0,0(a5)
 728 0644 97000000 		call	_Z9kprintIntmib
 728      E7800000 
 729              	.LVL104:
 730              		.loc 1 123 5
 731 064c 17050000 		lla	a0,.LC2
 731      13050500 
 732 0654 97000000 		call	_Z12kprintStringPKc
 732      E7800000 
 733              	.LVL105:
 124:src/kernel/kernel_lib.cpp ****     KCHECKPRINT(USER_TEXT_START);
 734              		.loc 1 124 5
 735 065c 17050000 		lla	a0,.LC6
 735      13050500 
 736 0664 97000000 		call	_Z12kprintStringPKc
 736      E7800000 
 737              	.LVL106:
 738              		.loc 1 124 5
 739 066c 13060000 		li	a2,0
 740 0670 93050001 		li	a1,16
 741 0674 97070000 		lla	a5,USER_TEXT_START
 741      93870700 
 742 067c 03B50700 		ld	a0,0(a5)
 743 0680 97000000 		call	_Z9kprintIntmib
 743      E7800000 
 744              	.LVL107:
 745              		.loc 1 124 5
 746 0688 17050000 		lla	a0,.LC2
 746      13050500 
 747 0690 97000000 		call	_Z12kprintStringPKc
 747      E7800000 
 748              	.LVL108:
 125:src/kernel/kernel_lib.cpp ****     KCHECKPRINT(USER_TEXT_END);
 749              		.loc 1 125 5
 750 0698 17050000 		lla	a0,.LC7
 750      13050500 
 751 06a0 97000000 		call	_Z12kprintStringPKc
 751      E7800000 
 752              	.LVL109:
 753              		.loc 1 125 5
 754 06a8 13060000 		li	a2,0
 755 06ac 93050001 		li	a1,16
 756 06b0 97070000 		lla	a5,USER_TEXT_END
 756      93870700 
 757 06b8 03B50700 		ld	a0,0(a5)
 758 06bc 97000000 		call	_Z9kprintIntmib
 758      E7800000 
 759              	.LVL110:
 760              		.loc 1 125 5
 761 06c4 17050000 		lla	a0,.LC2
 761      13050500 
 762 06cc 97000000 		call	_Z12kprintStringPKc
 762      E7800000 
 763              	.LVL111:
 126:src/kernel/kernel_lib.cpp ****     KCHECKPRINT(sizeof(PMT));
 764              		.loc 1 126 5
 765 06d4 17050000 		lla	a0,.LC8
GAS LISTING /tmp/ccbmzUVi.s 			page 23


 765      13050500 
 766 06dc 97000000 		call	_Z12kprintStringPKc
 766      E7800000 
 767              	.LVL112:
 768              		.loc 1 126 5
 769 06e4 13060000 		li	a2,0
 770 06e8 93050001 		li	a1,16
 771 06ec 37150000 		li	a0,4096
 772 06f0 97000000 		call	_Z9kprintIntmib
 772      E7800000 
 773              	.LVL113:
 774              		.loc 1 126 5
 775 06f8 17050000 		lla	a0,.LC2
 775      13050500 
 776 0700 97000000 		call	_Z12kprintStringPKc
 776      E7800000 
 777              	.LVL114:
 127:src/kernel/kernel_lib.cpp ****     kprintString("\n\n");
 778              		.loc 1 127 5
 779              		.loc 1 127 17 is_stmt 0
 780 0708 17050000 		lla	a0,.LC9
 780      13050500 
 781 0710 97000000 		call	_Z12kprintStringPKc
 781      E7800000 
 782              	.LVL115:
 128:src/kernel/kernel_lib.cpp **** 
 129:src/kernel/kernel_lib.cpp ****     /* INITALIZING MAIN KERNEL OBJECTS */
 130:src/kernel/kernel_lib.cpp ****     NoAlloc::init(); /* No Allocator init */ 
 783              		.loc 1 130 5 is_stmt 1
 784              		.loc 1 130 18 is_stmt 0
 785 0718 97000000 		call	_ZN7NoAlloc4initEv
 785      E7800000 
 786              	.LVL116:
 131:src/kernel/kernel_lib.cpp ****     kprintString("NoAlloc initalized: ");
 787              		.loc 1 131 5 is_stmt 1
 788              		.loc 1 131 17 is_stmt 0
 789 0720 17050000 		lla	a0,.LC10
 789      13050500 
 790 0728 97000000 		call	_Z12kprintStringPKc
 790      E7800000 
 791              	.LVL117:
 132:src/kernel/kernel_lib.cpp ****     KVALCHECKPRINT(NOALLOC_END_ADDR, NoAlloc::getEndAddress());
 792              		.loc 1 132 5 is_stmt 1
 793 0730 17050000 		lla	a0,.LC11
 793      13050500 
 794 0738 97000000 		call	_Z12kprintStringPKc
 794      E7800000 
 795              	.LVL118:
 796              		.loc 1 132 5
 797              	.LBB12:
 798              	.LBB13:
 799              		.loc 2 28 35
 800              	.LBE13:
 801              	.LBE12:
 802              		.loc 1 132 5 is_stmt 0
 803 0740 13060000 		li	a2,0
 804 0744 93050001 		li	a1,16
GAS LISTING /tmp/ccbmzUVi.s 			page 24


 805 0748 97070000 		lla	a5,_ZN7NoAlloc16NOALLOC_END_ADDRE
 805      93870700 
 806 0750 03B50700 		ld	a0,0(a5)
 807 0754 97000000 		call	_Z9kprintIntmib
 807      E7800000 
 808              	.LVL119:
 809              		.loc 1 132 5 is_stmt 1
 810 075c 17050000 		lla	a0,.LC2
 810      13050500 
 811 0764 97000000 		call	_Z12kprintStringPKc
 811      E7800000 
 812              	.LVL120:
 133:src/kernel/kernel_lib.cpp ****     
 134:src/kernel/kernel_lib.cpp ****     /* 
 135:src/kernel/kernel_lib.cpp ****     *   -Kernel Allocator Init 
 136:src/kernel/kernel_lib.cpp ****     *       -Init Buddy Allocator
 137:src/kernel/kernel_lib.cpp ****     *       -Init Slab Slab Allocator
 138:src/kernel/kernel_lib.cpp ****     */
 139:src/kernel/kernel_lib.cpp ****     kmi(); 
 813              		.loc 1 139 5
 814              		.loc 1 139 8 is_stmt 0
 815 076c 97000000 		call	_Z3kmiv
 815      E7800000 
 816              	.LVL121:
 140:src/kernel/kernel_lib.cpp ****      
 141:src/kernel/kernel_lib.cpp ****     /* Pager Init */
 142:src/kernel/kernel_lib.cpp ****     kprintString("-----------KERNEL INITALIZED-----------\n\n");
 817              		.loc 1 142 5 is_stmt 1
 818              		.loc 1 142 17 is_stmt 0
 819 0774 17050000 		lla	a0,.LC19
 819      13050500 
 820 077c 97000000 		call	_Z12kprintStringPKc
 820      E7800000 
 821              	.LVL122:
 143:src/kernel/kernel_lib.cpp ****     return 0;
 822              		.loc 1 143 5 is_stmt 1
 144:src/kernel/kernel_lib.cpp **** }
 823              		.loc 1 144 1 is_stmt 0
 824 0784 13050000 		li	a0,0
 825 0788 83308100 		ld	ra,8(sp)
 826              		.cfi_restore 1
 827 078c 03340100 		ld	s0,0(sp)
 828              		.cfi_restore 8
 829              		.cfi_def_cfa 2, 16
 830 0790 13010101 		addi	sp,sp,16
 831              		.cfi_def_cfa_offset 0
 832 0794 67800000 		jr	ra
 833              		.cfi_endproc
 834              	.LFE105:
 836              		.align	2
 837              		.globl	_Z8align4kbm
 839              	_Z8align4kbm:
 840              	.LFB106:
 145:src/kernel/kernel_lib.cpp **** 
 146:src/kernel/kernel_lib.cpp **** uint64 align4kb(uint64 input){
 841              		.loc 1 146 30 is_stmt 1
 842              		.cfi_startproc
GAS LISTING /tmp/ccbmzUVi.s 			page 25


 843              	.LVL123:
 844 0798 130101FF 		addi	sp,sp,-16
 845              		.cfi_def_cfa_offset 16
 846 079c 23348100 		sd	s0,8(sp)
 847              		.cfi_offset 8, -8
 848 07a0 13040101 		addi	s0,sp,16
 849              		.cfi_def_cfa 8, 0
 147:src/kernel/kernel_lib.cpp ****     return  (input + 4095ULL) & ( (~0ULL) << 12);
 850              		.loc 1 147 5
 851              		.loc 1 147 20 is_stmt 0
 852 07a4 B7170000 		li	a5,4096
 853 07a8 9387F7FF 		addi	a5,a5,-1
 854 07ac 3305F500 		add	a0,a0,a5
 855              	.LVL124:
 148:src/kernel/kernel_lib.cpp **** }
 856              		.loc 1 148 1
 857 07b0 B7F7FFFF 		li	a5,-4096
 858 07b4 3375F500 		and	a0,a0,a5
 859              	.LVL125:
 860 07b8 03348100 		ld	s0,8(sp)
 861              		.cfi_restore 8
 862              		.cfi_def_cfa 2, 16
 863 07bc 13010101 		addi	sp,sp,16
 864              		.cfi_def_cfa_offset 0
 865 07c0 67800000 		jr	ra
 866              		.cfi_endproc
 867              	.LFE106:
 869              		.align	2
 870              		.globl	_Z11closest2powm
 872              	_Z11closest2powm:
 873              	.LFB107:
 149:src/kernel/kernel_lib.cpp **** 
 150:src/kernel/kernel_lib.cpp **** 
 151:src/kernel/kernel_lib.cpp **** uint64 closest2pow(uint64 input){ 
 874              		.loc 1 151 33 is_stmt 1
 875              		.cfi_startproc
 876              	.LVL126:
 877 07c4 130101FF 		addi	sp,sp,-16
 878              		.cfi_def_cfa_offset 16
 879 07c8 23348100 		sd	s0,8(sp)
 880              		.cfi_offset 8, -8
 881 07cc 13040101 		addi	s0,sp,16
 882              		.cfi_def_cfa 8, 0
 152:src/kernel/kernel_lib.cpp ****     /* set start to 2^0 */
 153:src/kernel/kernel_lib.cpp ****     uint64 i = 1; 
 883              		.loc 1 153 5
 884              	.LVL127:
 885              		.loc 1 153 12 is_stmt 0
 886 07d0 93071000 		li	a5,1
 887              	.LVL128:
 888              	.L36:
 154:src/kernel/kernel_lib.cpp **** 
 155:src/kernel/kernel_lib.cpp ****     /* iterate till i >= input */
 156:src/kernel/kernel_lib.cpp ****     while ( i < input){ i <<= 1; }
 889              		.loc 1 156 5 is_stmt 1 discriminator 2
 890              		.loc 1 156 15 is_stmt 0 discriminator 2
 891 07d4 63F6A700 		bgeu	a5,a0,.L34
GAS LISTING /tmp/ccbmzUVi.s 			page 26


 892              		.loc 1 156 25 is_stmt 1 discriminator 1
 893              		.loc 1 156 27 is_stmt 0 discriminator 1
 894 07d8 93971700 		slli	a5,a5,1
 895              	.LVL129:
 896              		.loc 1 156 5 discriminator 1
 897 07dc 6FF09FFF 		j	.L36
 898              	.L34:
 157:src/kernel/kernel_lib.cpp **** 
 158:src/kernel/kernel_lib.cpp ****     return i;
 159:src/kernel/kernel_lib.cpp **** }
 899              		.loc 1 159 1
 900 07e0 13850700 		mv	a0,a5
 901              	.LVL130:
 902 07e4 03348100 		ld	s0,8(sp)
 903              		.cfi_restore 8
 904              		.cfi_def_cfa 2, 16
 905 07e8 13010101 		addi	sp,sp,16
 906              		.cfi_def_cfa_offset 0
 907 07ec 67800000 		jr	ra
 908              		.cfi_endproc
 909              	.LFE107:
 911              		.align	2
 912              		.globl	_Z4log2m
 914              	_Z4log2m:
 915              	.LFB108:
 160:src/kernel/kernel_lib.cpp **** 
 161:src/kernel/kernel_lib.cpp **** char log2(uint64 input){
 916              		.loc 1 161 24 is_stmt 1
 917              		.cfi_startproc
 918              	.LVL131:
 919 07f0 130101FF 		addi	sp,sp,-16
 920              		.cfi_def_cfa_offset 16
 921 07f4 23348100 		sd	s0,8(sp)
 922              		.cfi_offset 8, -8
 923 07f8 13040101 		addi	s0,sp,16
 924              		.cfi_def_cfa 8, 0
 162:src/kernel/kernel_lib.cpp ****     int t = 0;
 925              		.loc 1 162 5
 926              	.LVL132:
 927              		.loc 1 162 9 is_stmt 0
 928 07fc 93070000 		li	a5,0
 929              	.LVL133:
 930              	.L40:
 163:src/kernel/kernel_lib.cpp ****     while(input > 1) {
 931              		.loc 1 163 5 is_stmt 1
 932              		.loc 1 163 17 is_stmt 0
 933 0800 13071000 		li	a4,1
 934 0804 6378A700 		bleu	a0,a4,.L39
 164:src/kernel/kernel_lib.cpp ****         input >>= 1;
 935              		.loc 1 164 9 is_stmt 1
 936              		.loc 1 164 15 is_stmt 0
 937 0808 13551500 		srli	a0,a0,1
 938              	.LVL134:
 165:src/kernel/kernel_lib.cpp ****         t++;
 939              		.loc 1 165 9 is_stmt 1
 940              		.loc 1 165 10 is_stmt 0
 941 080c 9B871700 		addiw	a5,a5,1
GAS LISTING /tmp/ccbmzUVi.s 			page 27


 942              	.LVL135:
 163:src/kernel/kernel_lib.cpp ****     while(input > 1) {
 943              		.loc 1 163 5
 944 0810 6FF01FFF 		j	.L40
 945              	.LVL136:
 946              	.L39:
 166:src/kernel/kernel_lib.cpp ****     }
 167:src/kernel/kernel_lib.cpp ****     return t;
 947              		.loc 1 167 5 is_stmt 1
 168:src/kernel/kernel_lib.cpp **** }
 948              		.loc 1 168 1 is_stmt 0
 949 0814 13F5F70F 		andi	a0,a5,0xff
 950              	.LVL137:
 951 0818 03348100 		ld	s0,8(sp)
 952              		.cfi_restore 8
 953              		.cfi_def_cfa 2, 16
 954 081c 13010101 		addi	sp,sp,16
 955              		.cfi_def_cfa_offset 0
 956 0820 67800000 		jr	ra
 957              		.cfi_endproc
 958              	.LFE108:
 960              		.align	2
 961              		.globl	_Z3osbm
 963              	_Z3osbm:
 964              	.LFB109:
 169:src/kernel/kernel_lib.cpp **** 
 170:src/kernel/kernel_lib.cpp **** bool osb(uint64 input){
 965              		.loc 1 170 23 is_stmt 1
 966              		.cfi_startproc
 967              	.LVL138:
 968 0824 130101FF 		addi	sp,sp,-16
 969              		.cfi_def_cfa_offset 16
 970 0828 23348100 		sd	s0,8(sp)
 971              		.cfi_offset 8, -8
 972 082c 13040101 		addi	s0,sp,16
 973              		.cfi_def_cfa 8, 0
 171:src/kernel/kernel_lib.cpp ****     if (!input) return 0;
 974              		.loc 1 171 5
 975 0830 63000502 		beq	a0,zero,.L44
 172:src/kernel/kernel_lib.cpp ****     return (input & (-input)) == input;
 976              		.loc 1 172 5
 977              		.loc 1 172 22 is_stmt 0
 978 0834 B307A040 		neg	a5,a0
 979              		.loc 1 172 19
 980 0838 B3F7A700 		and	a5,a5,a0
 981              		.loc 1 172 34
 982 083c 3385A740 		sub	a0,a5,a0
 983              	.LVL139:
 984 0840 13351500 		seqz	a0,a0
 985              	.L43:
 173:src/kernel/kernel_lib.cpp **** }...
 986              		.loc 1 173 1
 987 0844 03348100 		ld	s0,8(sp)
 988              		.cfi_remember_state
 989              		.cfi_restore 8
 990              		.cfi_def_cfa 2, 16
 991 0848 13010101 		addi	sp,sp,16
GAS LISTING /tmp/ccbmzUVi.s 			page 28


 992              		.cfi_def_cfa_offset 0
 993 084c 67800000 		jr	ra
 994              	.LVL140:
 995              	.L44:
 996              		.cfi_restore_state
 171:src/kernel/kernel_lib.cpp ****     if (!input) return 0;
 997              		.loc 1 171 24
 998 0850 13050000 		li	a0,0
 999              	.LVL141:
 1000 0854 6FF01FFF 		j	.L43
 1001              		.cfi_endproc
 1002              	.LFE109:
 1004              		.globl	kdigits
 1005              		.data
 1006              		.align	3
 1007              		.set	.LANCHOR0,. + 0
 1010              	kdigits:
 1011 0000 30313233 		.string	"0123456789ABCDEF"
 1011      34353637 
 1011      38394142 
 1011      43444546 
 1011      00
 1012              		.section	.rodata.str1.8,"aMS",@progbits,1
 1013              		.align	3
 1014              	.LC0:
 1015 0000 2D2D2D2D 		.string	"--------------KERNEL INIT--------------\n"
 1015      2D2D2D2D 
 1015      2D2D2D2D 
 1015      2D2D4B45 
 1015      524E454C 
 1016 0029 00000000 		.zero	7
 1016      000000
 1017              	.LC1:
 1018 0030 48454150 		.string	"HEAP_START_ADDR: "
 1018      5F535441 
 1018      52545F41 
 1018      4444523A 
 1018      2000
 1019 0042 00000000 		.zero	6
 1019      0000
 1020              	.LC2:
 1021 0048 0A00     		.string	"\n"
 1022 004a 00000000 		.zero	6
 1022      0000
 1023              	.LC3:
 1024 0050 48454150 		.string	"HEAP_END_ADDR: "
 1024      5F454E44 
 1024      5F414444 
 1024      523A2000 
 1025              	.LC4:
 1026 0060 4B45524E 		.string	"KERNEL_TEXT_START: "
 1026      454C5F54 
 1026      4558545F 
 1026      53544152 
 1026      543A2000 
 1027 0074 00000000 		.zero	4
 1028              	.LC5:
GAS LISTING /tmp/ccbmzUVi.s 			page 29


 1029 0078 4B45524E 		.string	"KERNEL_TEXT_END: "
 1029      454C5F54 
 1029      4558545F 
 1029      454E443A 
 1029      2000
 1030 008a 00000000 		.zero	6
 1030      0000
 1031              	.LC6:
 1032 0090 55534552 		.string	"USER_TEXT_START: "
 1032      5F544558 
 1032      545F5354 
 1032      4152543A 
 1032      2000
 1033 00a2 00000000 		.zero	6
 1033      0000
 1034              	.LC7:
 1035 00a8 55534552 		.string	"USER_TEXT_END: "
 1035      5F544558 
 1035      545F454E 
 1035      443A2000 
 1036              	.LC8:
 1037 00b8 73697A65 		.string	"sizeof(PMT): "
 1037      6F662850 
 1037      4D54293A 
 1037      2000
 1038 00c6 0000     		.zero	2
 1039              	.LC9:
 1040 00c8 0A0A00   		.string	"\n\n"
 1041 00cb 00000000 		.zero	5
 1041      00
 1042              	.LC10:
 1043 00d0 4E6F416C 		.string	"NoAlloc initalized: "
 1043      6C6F6320 
 1043      696E6974 
 1043      616C697A 
 1043      65643A20 
 1044 00e5 000000   		.zero	3
 1045              	.LC11:
 1046 00e8 4E4F414C 		.string	"NOALLOC_END_ADDR: "
 1046      4C4F435F 
 1046      454E445F 
 1046      41444452 
 1046      3A2000
 1047 00fb 00000000 		.zero	5
 1047      00
 1048              	.LC12:
 1049 0100 73747665 		.string	"stvec initalized!\n"
 1049      6320696E 
 1049      6974616C 
 1049      697A6564 
 1049      210A00
 1050 0113 00000000 		.zero	5
 1050      00
 1051              	.LC13:
 1052 0118 4D656D6F 		.string	"MemoryAllocator initalized!\n"
 1052      7279416C 
 1052      6C6F6361 
GAS LISTING /tmp/ccbmzUVi.s 			page 30


 1052      746F7220 
 1052      696E6974 
 1053 0135 000000   		.zero	3
 1054              	.LC14:
 1055 0138 53636865 		.string	"Scheduler initalized!\n"
 1055      64756C65 
 1055      7220696E 
 1055      6974616C 
 1055      697A6564 
 1056 014f 00       		.zero	1
 1057              	.LC15:
 1058 0150 53746449 		.string	"StdIO initalized!\n"
 1058      4F20696E 
 1058      6974616C 
 1058      697A6564 
 1058      210A00
 1059 0163 00000000 		.zero	5
 1059      00
 1060              	.LC16:
 1061 0168 4D61696E 		.string	"Main kenrel thread initalized!\n"
 1061      206B656E 
 1061      72656C20 
 1061      74687265 
 1061      61642069 
 1062              	.LC17:
 1063 0188 496E6974 		.string	"Initalizing user thread and idle thread...\n"
 1063      616C697A 
 1063      696E6720 
 1063      75736572 
 1063      20746872 
 1064 01b4 00000000 		.zero	4
 1065              	.LC18:
 1066 01b8 54687265 		.string	"Threads successfully initalized!\n"
 1066      61647320 
 1066      73756363 
 1066      65737366 
 1066      756C6C79 
 1067 01da 00000000 		.zero	6
 1067      0000
 1068              	.LC19:
 1069 01e0 2D2D2D2D 		.string	"-----------KERNEL INITALIZED-----------\n\n"
 1069      2D2D2D2D 
 1069      2D2D2D4B 
 1069      45524E45 
 1069      4C20494E 
 1070              		.text
 1071              	.Letext0:
 1072              		.file 4 "src/kernel/../../h/../h/../lib/hw.h"
 1073              		.file 5 "src/kernel/../../h/../h/../h/memory_allocator.hpp"
 1074              		.file 6 "src/kernel/../../h/../h/ptr_queue.hpp"
 1075              		.file 7 "src/kernel/../../h/../h/../h/kernel_operators.hpp"
 1076              		.file 8 "src/kernel/../../h/../h/tcb.hpp"
 1077              		.file 9 "src/kernel/../../h/../h/ksemaphore.hpp"
 1078              		.file 10 "src/kernel/../../h/../h/stdio.hpp"
 1079              		.file 11 "src/kernel/../../h/../h/scheduler.hpp"
 1080              		.file 12 "src/kernel/../../h/../h/pmt.h"
 1081              		.file 13 "src/kernel/../../h/kernel_lib.h"
GAS LISTING /tmp/ccbmzUVi.s 			page 31


 1082              		.file 14 "src/kernel/../../h/../h/syscall_c.h"
 1083              		.file 15 "src/kernel/../../h/../h/kernel_funs.h"
 1084              		.file 16 "src/kernel/../../h/../h/buddy.h"
GAS LISTING /tmp/ccbmzUVi.s 			page 32

