GAS LISTING /tmp/cctEzUQT.s 			page 1


   1              		.file	"main.cpp"
   2              		.option nopic
   3              		.option norelax
   4              		.attribute arch, "rv64i2p0_m2p0_a2p0"
   5              		.attribute unaligned_access, 0
   6              		.attribute stack_align, 16
   7              		.text
   8              	.Ltext0:
   9              		.align	2
  10              		.globl	main
  12              	main:
  13              	.LFB91:
  14              		.file 1 "src/kernel/main.cpp"
   1:src/kernel/main.cpp **** #include"../../h/kernel_lib.h"
   2:src/kernel/main.cpp **** 
   3:src/kernel/main.cpp **** int main(){
  15              		.loc 1 3 11
  16              		.cfi_startproc
  17 0000 130101FD 		addi	sp,sp,-48
  18              		.cfi_def_cfa_offset 48
  19 0004 23341102 		sd	ra,40(sp)
  20 0008 23308102 		sd	s0,32(sp)
  21 000c 233C9100 		sd	s1,24(sp)
  22              		.cfi_offset 1, -8
  23              		.cfi_offset 8, -16
  24              		.cfi_offset 9, -24
  25 0010 13040103 		addi	s0,sp,48
  26              		.cfi_def_cfa 8, 0
   4:src/kernel/main.cpp ****     uint64 ra, sp;
  27              		.loc 1 4 5
   5:src/kernel/main.cpp ****     asm volatile("mv %0, ra" : "=r" (ra));
  28              		.loc 1 5 5
  29              		.loc 1 5 42 is_stmt 0
  30              	 #APP
  31              	# 5 "src/kernel/main.cpp" 1
   6              	    asm volatile("mv %0, sp" : "=r" (sp));
  32              		mv a0, ra
  33              	# 0 "" 2
  34              	.LVL0:
  35              		.loc 1 6 5 is_stmt 1
  36              		.loc 1 6 42 is_stmt 0
  37              	# 6 "src/kernel/main.cpp" 1
   7              	    TCB::setPanicContext(ra,sp);
  38              		mv a1, sp
  39              	# 0 "" 2
  40              	.LVL1:
  41              		.loc 1 7 5 is_stmt 1
  42              		.loc 1 7 25 is_stmt 0
  43              	 #NO_APP
  44 001c 97000000 		call	_ZN3TCB15setPanicContextEmm
  44      E7800000 
  45              	.LVL2:
   8:src/kernel/main.cpp **** 
   9:src/kernel/main.cpp ****     int panic = kernelInit();
  46              		.loc 1 9 5 is_stmt 1
  47              		.loc 1 9 27 is_stmt 0
  48 0024 97000000 		call	_Z10kernelInitv
GAS LISTING /tmp/cctEzUQT.s 			page 2


  48      E7800000 
  49              	.LVL3:
  10:src/kernel/main.cpp ****     if(panic < 0){
  50              		.loc 1 10 5 is_stmt 1
  51 002c 63420504 		blt	a0,zero,.L5
  11:src/kernel/main.cpp ****         kprintString("\nKERNEL FAILED TO INITALIZE!!!!\n\n");
  12:src/kernel/main.cpp ****         return -1;
  13:src/kernel/main.cpp ****     }
  14:src/kernel/main.cpp ****    
  15:src/kernel/main.cpp ****     uint64 sstatus = Riscv::r_sstatus();
  52              		.loc 1 15 5
  53              	.LBB6:
  54              	.LBB7:
  55              		.file 2 "src/kernel/../../h/../h/riscv.hpp"
   1:src/kernel/../../h/../h/riscv.hpp **** #ifndef __riscv__
   2:src/kernel/../../h/../h/riscv.hpp **** #define __riscv__
   3:src/kernel/../../h/../h/riscv.hpp **** 
   4:src/kernel/../../h/../h/riscv.hpp **** #include"../lib/hw.h"
   5:src/kernel/../../h/../h/riscv.hpp **** 
   6:src/kernel/../../h/../h/riscv.hpp **** class Riscv{
   7:src/kernel/../../h/../h/riscv.hpp **** public:
   8:src/kernel/../../h/../h/riscv.hpp ****     
   9:src/kernel/../../h/../h/riscv.hpp ****     static void w_scause(uint64);
  10:src/kernel/../../h/../h/riscv.hpp ****     static uint64 r_scause(); 
  11:src/kernel/../../h/../h/riscv.hpp **** 
  12:src/kernel/../../h/../h/riscv.hpp ****     static void w_sepc(uint64);
  13:src/kernel/../../h/../h/riscv.hpp ****     static uint64 r_sepc();
  14:src/kernel/../../h/../h/riscv.hpp ****     static void ni_sepc();
  15:src/kernel/../../h/../h/riscv.hpp **** 
  16:src/kernel/../../h/../h/riscv.hpp ****     static void w_stvec(uint64);
  17:src/kernel/../../h/../h/riscv.hpp ****     static uint64 r_stvec();
  18:src/kernel/../../h/../h/riscv.hpp ****      
  19:src/kernel/../../h/../h/riscv.hpp ****     static void w_stval(uint64);
  20:src/kernel/../../h/../h/riscv.hpp ****     static uint64 r_stval();
  21:src/kernel/../../h/../h/riscv.hpp ****     
  22:src/kernel/../../h/../h/riscv.hpp ****     enum BitMaskSip{
  23:src/kernel/../../h/../h/riscv.hpp ****         SIP_SSIE = (1<<1),
  24:src/kernel/../../h/../h/riscv.hpp ****         SIP_STIE = (1<<5),
  25:src/kernel/../../h/../h/riscv.hpp ****         SIP_SEIE = (1<<9),
  26:src/kernel/../../h/../h/riscv.hpp ****     };
  27:src/kernel/../../h/../h/riscv.hpp **** 
  28:src/kernel/../../h/../h/riscv.hpp ****     static void ms_sip(uint64);
  29:src/kernel/../../h/../h/riscv.hpp ****     static void mc_sip(uint64);
  30:src/kernel/../../h/../h/riscv.hpp **** 
  31:src/kernel/../../h/../h/riscv.hpp ****     static void w_sip(uint64);
  32:src/kernel/../../h/../h/riscv.hpp ****     static uint64 r_sip();
  33:src/kernel/../../h/../h/riscv.hpp **** 
  34:src/kernel/../../h/../h/riscv.hpp ****     enum BitMaskSstatus{
  35:src/kernel/../../h/../h/riscv.hpp ****         SSTATUS_SIE = (1<<1),
  36:src/kernel/../../h/../h/riscv.hpp ****         SSTATUS_SPIE = (1<<5),
  37:src/kernel/../../h/../h/riscv.hpp ****         SSTATUS_SPP = (1<<8),
  38:src/kernel/../../h/../h/riscv.hpp ****     };
  39:src/kernel/../../h/../h/riscv.hpp **** 
  40:src/kernel/../../h/../h/riscv.hpp ****     static void ms_sstatus(uint64);
  41:src/kernel/../../h/../h/riscv.hpp ****     static void mc_sstatus(uint64);
  42:src/kernel/../../h/../h/riscv.hpp **** 
  43:src/kernel/../../h/../h/riscv.hpp ****     static void w_sstatus(uint64);
GAS LISTING /tmp/cctEzUQT.s 			page 3


  44:src/kernel/../../h/../h/riscv.hpp ****     static uint64 r_sstatus();
  45:src/kernel/../../h/../h/riscv.hpp **** 
  46:src/kernel/../../h/../h/riscv.hpp ****     static uint64 r_a0();
  47:src/kernel/../../h/../h/riscv.hpp ****     static uint64 s_a0(uint64 a0);
  48:src/kernel/../../h/../h/riscv.hpp ****     static uint64 r_a1();
  49:src/kernel/../../h/../h/riscv.hpp ****     static uint64 r_a2();
  50:src/kernel/../../h/../h/riscv.hpp ****     static uint64 r_a3();
  51:src/kernel/../../h/../h/riscv.hpp ****     static uint64 r_a4();
  52:src/kernel/../../h/../h/riscv.hpp **** 
  53:src/kernel/../../h/../h/riscv.hpp ****     static void popRegisters();
  54:src/kernel/../../h/../h/riscv.hpp ****     static void pushRegisters();
  55:src/kernel/../../h/../h/riscv.hpp **** 
  56:src/kernel/../../h/../h/riscv.hpp ****     static void popSppSpie();
  57:src/kernel/../../h/../h/riscv.hpp **** 
  58:src/kernel/../../h/../h/riscv.hpp ****     static void mc_cstatus(uint64 mask);
  59:src/kernel/../../h/../h/riscv.hpp ****     static bool cstatus_ready(uint64 mask);
  60:src/kernel/../../h/../h/riscv.hpp **** };
  61:src/kernel/../../h/../h/riscv.hpp **** 
  62:src/kernel/../../h/../h/riscv.hpp **** inline uint64 Riscv::r_a0(){
  63:src/kernel/../../h/../h/riscv.hpp ****     uint64 a0;
  64:src/kernel/../../h/../h/riscv.hpp ****     asm volatile("mv %0, a0" : "=r" (a0));
  65:src/kernel/../../h/../h/riscv.hpp ****     return a0;
  66:src/kernel/../../h/../h/riscv.hpp **** }
  67:src/kernel/../../h/../h/riscv.hpp **** 
  68:src/kernel/../../h/../h/riscv.hpp **** inline uint64 Riscv::r_a1(){
  69:src/kernel/../../h/../h/riscv.hpp ****     uint64 a0;
  70:src/kernel/../../h/../h/riscv.hpp ****     asm volatile("mv %0, a1" : "=r" (a0));
  71:src/kernel/../../h/../h/riscv.hpp ****     return a0;
  72:src/kernel/../../h/../h/riscv.hpp **** }
  73:src/kernel/../../h/../h/riscv.hpp **** 
  74:src/kernel/../../h/../h/riscv.hpp **** inline uint64 Riscv::r_a2(){
  75:src/kernel/../../h/../h/riscv.hpp ****     uint64 a0;
  76:src/kernel/../../h/../h/riscv.hpp ****     asm volatile("mv %0, a2" : "=r" (a0));
  77:src/kernel/../../h/../h/riscv.hpp ****     return a0;
  78:src/kernel/../../h/../h/riscv.hpp **** }
  79:src/kernel/../../h/../h/riscv.hpp **** 
  80:src/kernel/../../h/../h/riscv.hpp **** inline uint64 Riscv::r_a3(){
  81:src/kernel/../../h/../h/riscv.hpp ****     uint64 a0;
  82:src/kernel/../../h/../h/riscv.hpp ****     asm volatile("mv %0, a3" : "=r" (a0));
  83:src/kernel/../../h/../h/riscv.hpp ****     return a0;
  84:src/kernel/../../h/../h/riscv.hpp **** }
  85:src/kernel/../../h/../h/riscv.hpp **** 
  86:src/kernel/../../h/../h/riscv.hpp **** inline uint64 Riscv::r_a4(){
  87:src/kernel/../../h/../h/riscv.hpp ****     uint64 a0;
  88:src/kernel/../../h/../h/riscv.hpp ****     asm volatile("mv %0, a4" : "=r" (a0));
  89:src/kernel/../../h/../h/riscv.hpp ****     return a0;
  90:src/kernel/../../h/../h/riscv.hpp **** }
  91:src/kernel/../../h/../h/riscv.hpp **** 
  92:src/kernel/../../h/../h/riscv.hpp **** 
  93:src/kernel/../../h/../h/riscv.hpp **** inline uint64 Riscv::s_a0(uint64 a0){
  94:src/kernel/../../h/../h/riscv.hpp ****     return a0;
  95:src/kernel/../../h/../h/riscv.hpp **** }
  96:src/kernel/../../h/../h/riscv.hpp **** 
  97:src/kernel/../../h/../h/riscv.hpp **** inline void Riscv::w_scause(uint64 scause){
  98:src/kernel/../../h/../h/riscv.hpp ****     asm volatile("csrw scause, %0" : : "r" (scause));
  99:src/kernel/../../h/../h/riscv.hpp **** }
 100:src/kernel/../../h/../h/riscv.hpp **** 
GAS LISTING /tmp/cctEzUQT.s 			page 4


 101:src/kernel/../../h/../h/riscv.hpp **** inline uint64 Riscv::r_scause(){
 102:src/kernel/../../h/../h/riscv.hpp ****     uint64 volatile scause;
 103:src/kernel/../../h/../h/riscv.hpp ****     asm volatile("csrr %0, scause" : "=r" (scause));
 104:src/kernel/../../h/../h/riscv.hpp ****     return scause;
 105:src/kernel/../../h/../h/riscv.hpp **** } 
 106:src/kernel/../../h/../h/riscv.hpp **** 
 107:src/kernel/../../h/../h/riscv.hpp **** inline void Riscv::w_sepc(uint64 sepc){
 108:src/kernel/../../h/../h/riscv.hpp ****     asm volatile("csrw sepc, %0" : : "r" (sepc));
 109:src/kernel/../../h/../h/riscv.hpp **** }
 110:src/kernel/../../h/../h/riscv.hpp **** 
 111:src/kernel/../../h/../h/riscv.hpp **** inline uint64 Riscv::r_sepc(){
 112:src/kernel/../../h/../h/riscv.hpp ****     uint64 volatile sepc;
 113:src/kernel/../../h/../h/riscv.hpp ****     asm volatile("csrr %0, sepc" : "=r" (sepc));
 114:src/kernel/../../h/../h/riscv.hpp ****     return sepc;
 115:src/kernel/../../h/../h/riscv.hpp **** } 
 116:src/kernel/../../h/../h/riscv.hpp **** 
 117:src/kernel/../../h/../h/riscv.hpp **** inline void Riscv::w_stvec(uint64 stvec){
 118:src/kernel/../../h/../h/riscv.hpp ****     asm volatile("csrw stvec, %0" : : "r" (stvec));
 119:src/kernel/../../h/../h/riscv.hpp **** }
 120:src/kernel/../../h/../h/riscv.hpp **** 
 121:src/kernel/../../h/../h/riscv.hpp **** inline uint64 Riscv::r_stvec(){
 122:src/kernel/../../h/../h/riscv.hpp ****     uint64 volatile stvec;
 123:src/kernel/../../h/../h/riscv.hpp ****     asm volatile("csrr %0, stvec" : "=r" (stvec));
 124:src/kernel/../../h/../h/riscv.hpp ****     return stvec;
 125:src/kernel/../../h/../h/riscv.hpp **** } 
 126:src/kernel/../../h/../h/riscv.hpp **** 
 127:src/kernel/../../h/../h/riscv.hpp **** inline void Riscv::w_stval(uint64 stval){
 128:src/kernel/../../h/../h/riscv.hpp ****     asm volatile("csrw stval, %0" : : "r" (stval));
 129:src/kernel/../../h/../h/riscv.hpp **** }
 130:src/kernel/../../h/../h/riscv.hpp **** 
 131:src/kernel/../../h/../h/riscv.hpp **** inline uint64 Riscv::r_stval(){
 132:src/kernel/../../h/../h/riscv.hpp ****     uint64 volatile stval;
 133:src/kernel/../../h/../h/riscv.hpp ****     asm volatile("csrr %0, stval" : "=r" (stval));
 134:src/kernel/../../h/../h/riscv.hpp ****     return stval;
 135:src/kernel/../../h/../h/riscv.hpp **** } 
 136:src/kernel/../../h/../h/riscv.hpp **** 
 137:src/kernel/../../h/../h/riscv.hpp **** inline void Riscv::ms_sip(uint64 mask){
 138:src/kernel/../../h/../h/riscv.hpp ****     asm volatile ("csrs sip, %0" : : "r" (mask));
 139:src/kernel/../../h/../h/riscv.hpp **** }
 140:src/kernel/../../h/../h/riscv.hpp **** 
 141:src/kernel/../../h/../h/riscv.hpp **** inline void Riscv::mc_sip(uint64 mask){
 142:src/kernel/../../h/../h/riscv.hpp ****     asm volatile ("csrc sip, %0" : : "r" (mask));
 143:src/kernel/../../h/../h/riscv.hpp **** }
 144:src/kernel/../../h/../h/riscv.hpp **** 
 145:src/kernel/../../h/../h/riscv.hpp **** inline void Riscv::w_sip(uint64 sip){
 146:src/kernel/../../h/../h/riscv.hpp ****     asm volatile("csrw sip, %0" : : "r" (sip));
 147:src/kernel/../../h/../h/riscv.hpp **** }
 148:src/kernel/../../h/../h/riscv.hpp **** 
 149:src/kernel/../../h/../h/riscv.hpp **** inline uint64 Riscv::r_sip(){
 150:src/kernel/../../h/../h/riscv.hpp ****     uint64 volatile sip;
 151:src/kernel/../../h/../h/riscv.hpp ****     asm volatile("csrr %0, sip" : "=r" (sip));
 152:src/kernel/../../h/../h/riscv.hpp ****     return sip;
 153:src/kernel/../../h/../h/riscv.hpp **** } 
 154:src/kernel/../../h/../h/riscv.hpp **** 
 155:src/kernel/../../h/../h/riscv.hpp **** inline void Riscv::ms_sstatus(uint64 mask){
 156:src/kernel/../../h/../h/riscv.hpp ****     asm volatile ("csrs sstatus, %0" : : "r" (mask));
 157:src/kernel/../../h/../h/riscv.hpp **** }
GAS LISTING /tmp/cctEzUQT.s 			page 5


 158:src/kernel/../../h/../h/riscv.hpp **** 
 159:src/kernel/../../h/../h/riscv.hpp **** inline void Riscv::mc_sstatus(uint64 mask){
 160:src/kernel/../../h/../h/riscv.hpp ****     asm volatile ("csrc sstatus, %0" : : "r" (mask));
 161:src/kernel/../../h/../h/riscv.hpp **** }
 162:src/kernel/../../h/../h/riscv.hpp **** 
 163:src/kernel/../../h/../h/riscv.hpp **** inline void Riscv::w_sstatus(uint64 sstatus){
 164:src/kernel/../../h/../h/riscv.hpp ****     asm volatile("csrw sstatus, %0" : : "r" (sstatus));
 165:src/kernel/../../h/../h/riscv.hpp **** }
 166:src/kernel/../../h/../h/riscv.hpp **** 
 167:src/kernel/../../h/../h/riscv.hpp **** inline uint64 Riscv::r_sstatus(){
 168:src/kernel/../../h/../h/riscv.hpp ****     uint64 volatile sstatus;
  56              		.loc 2 168 5
 169:src/kernel/../../h/../h/riscv.hpp ****     asm volatile("csrr %0, sstatus" : "=r" (sstatus));
  57              		.loc 2 169 5
  58              		.loc 2 169 54 is_stmt 0
  59              	 #APP
  60              	# 169 "src/kernel/../../h/../h/riscv.hpp" 1
 170              	    return sstatus;
  61              		csrr a5, sstatus
  62              	# 0 "" 2
  63              	 #NO_APP
  64 0034 233CF4FC 		sd	a5,-40(s0)
  65              		.loc 2 170 5 is_stmt 1
  66              		.loc 2 170 12 is_stmt 0
  67 0038 833484FD 		ld	s1,-40(s0)
  68              	.LVL4:
  69              	.LBE7:
  70              	.LBE6:
  16:src/kernel/main.cpp ****     TCB::yield();
  71              		.loc 1 16 5 is_stmt 1
  72              		.loc 1 16 15 is_stmt 0
  73 003c 97000000 		call	_ZN3TCB5yieldEv
  73      E7800000 
  74              	.LVL5:
  17:src/kernel/main.cpp ****     Riscv::w_sstatus(sstatus);
  75              		.loc 1 17 5 is_stmt 1
  76              	.LBB8:
  77              	.LBB9:
 164:src/kernel/../../h/../h/riscv.hpp **** }
  78              		.loc 2 164 5
 164:src/kernel/../../h/../h/riscv.hpp **** }
  79              		.loc 2 164 55 is_stmt 0
  80              	 #APP
  81              	# 164 "src/kernel/../../h/../h/riscv.hpp" 1
  82              		csrw sstatus, s1
  83              	# 0 "" 2
  84              	.LVL6:
  85              	 #NO_APP
  86              	.LBE9:
  87              	.LBE8:
  18:src/kernel/main.cpp ****     
  19:src/kernel/main.cpp **** 
  20:src/kernel/main.cpp ****     kprintString("\n\nKERNEL ENDED SUCCESSFULLY!\n\n");
  88              		.loc 1 20 5 is_stmt 1
  89              		.loc 1 20 17 is_stmt 0
  90 0048 17050000 		lla	a0,.LC1
  90      13050500 
GAS LISTING /tmp/cctEzUQT.s 			page 6


  91 0050 97000000 		call	_Z12kprintStringPKc
  91      E7800000 
  92              	.LVL7:
  21:src/kernel/main.cpp ****     return 0;
  93              		.loc 1 21 5 is_stmt 1
  94              		.loc 1 21 12 is_stmt 0
  95 0058 13050000 		li	a0,0
  96              	.LVL8:
  97              	.L3:
  22:src/kernel/main.cpp **** }   ...
  98              		.loc 1 22 1
  99 005c 83308102 		ld	ra,40(sp)
 100              		.cfi_remember_state
 101              		.cfi_restore 1
 102 0060 03340102 		ld	s0,32(sp)
 103              		.cfi_restore 8
 104              		.cfi_def_cfa 2, 48
 105 0064 83348101 		ld	s1,24(sp)
 106              		.cfi_restore 9
 107 0068 13010103 		addi	sp,sp,48
 108              		.cfi_def_cfa_offset 0
 109 006c 67800000 		jr	ra
 110              	.LVL9:
 111              	.L5:
 112              		.cfi_restore_state
  11:src/kernel/main.cpp ****         kprintString("\nKERNEL FAILED TO INITALIZE!!!!\n\n");
 113              		.loc 1 11 9 is_stmt 1
  11:src/kernel/main.cpp ****         kprintString("\nKERNEL FAILED TO INITALIZE!!!!\n\n");
 114              		.loc 1 11 21 is_stmt 0
 115 0070 17050000 		lla	a0,.LC0
 115      13050500 
 116              	.LVL10:
 117 0078 97000000 		call	_Z12kprintStringPKc
 117      E7800000 
 118              	.LVL11:
  12:src/kernel/main.cpp ****         return -1;
 119              		.loc 1 12 9 is_stmt 1
  12:src/kernel/main.cpp ****         return -1;
 120              		.loc 1 12 17 is_stmt 0
 121 0080 1305F0FF 		li	a0,-1
 122 0084 6FF09FFD 		j	.L3
 123              		.cfi_endproc
 124              	.LFE91:
 126              		.section	.rodata.str1.8,"aMS",@progbits,1
 127              		.align	3
 128              	.LC0:
 129 0000 0A4B4552 		.string	"\nKERNEL FAILED TO INITALIZE!!!!\n\n"
 129      4E454C20 
 129      4641494C 
 129      45442054 
 129      4F20494E 
 130 0022 00000000 		.zero	6
 130      0000
 131              	.LC1:
 132 0028 0A0A4B45 		.string	"\n\nKERNEL ENDED SUCCESSFULLY!\n\n"
 132      524E454C 
 132      20454E44 
GAS LISTING /tmp/cctEzUQT.s 			page 7


 132      45442053 
 132      55434345 
 133              		.text
 134              	.Letext0:
 135              		.file 3 "src/kernel/../../h/../h/../lib/hw.h"
 136              		.file 4 "src/kernel/../../h/../h/tcb.hpp"
 137              		.file 5 "src/kernel/../../h/../h/../h/kernel_operators.hpp"
 138              		.file 6 "src/kernel/../../h/../h/kernel_funs.h"
GAS LISTING /tmp/cctEzUQT.s 			page 8


DEFINED SYMBOLS
                            *ABS*:0000000000000000 main.cpp
     /tmp/cctEzUQT.s:12     .text:0000000000000000 main
     /tmp/cctEzUQT.s:16     .text:0000000000000000 .L0 
     /tmp/cctEzUQT.s:17     .text:0000000000000000 .L0 
     /tmp/cctEzUQT.s:18     .text:0000000000000004 .L0 
     /tmp/cctEzUQT.s:22     .text:0000000000000010 .L0 
     /tmp/cctEzUQT.s:23     .text:0000000000000010 .L0 
     /tmp/cctEzUQT.s:24     .text:0000000000000010 .L0 
     /tmp/cctEzUQT.s:26     .text:0000000000000014 .L0 
     /tmp/cctEzUQT.s:28     .text:0000000000000014 .L0 
     /tmp/cctEzUQT.s:29     .text:0000000000000014 .L0 
 src/kernel/main.cpp:5      .text:0000000000000014 .L0 
     /tmp/cctEzUQT.s:36     .text:0000000000000018 .L0 
 src/kernel/main.cpp:6      .text:0000000000000018 .L0 
     /tmp/cctEzUQT.s:42     .text:000000000000001c .L0 
     /tmp/cctEzUQT.s:44     .text:000000000000001c .L0 
     /tmp/cctEzUQT.s:47     .text:0000000000000024 .L0 
     /tmp/cctEzUQT.s:48     .text:0000000000000024 .L0 
     /tmp/cctEzUQT.s:51     .text:000000000000002c .L0 
     /tmp/cctEzUQT.s:56     .text:0000000000000030 .L0 
     /tmp/cctEzUQT.s:57     .text:0000000000000030 .L0 
     /tmp/cctEzUQT.s:58     .text:0000000000000030 .L0 
src/kernel/../../h/../h/riscv.hpp:169    .text:0000000000000030 .L0 
     /tmp/cctEzUQT.s:66     .text:0000000000000038 .L0 
     /tmp/cctEzUQT.s:67     .text:0000000000000038 .L0 
     /tmp/cctEzUQT.s:72     .text:000000000000003c .L0 
     /tmp/cctEzUQT.s:73     .text:000000000000003c .L0 
     /tmp/cctEzUQT.s:78     .text:0000000000000044 .L0 
     /tmp/cctEzUQT.s:79     .text:0000000000000044 .L0 
src/kernel/../../h/../h/riscv.hpp:164    .text:0000000000000044 .L0 
     /tmp/cctEzUQT.s:89     .text:0000000000000048 .L0 
     /tmp/cctEzUQT.s:90     .text:0000000000000048 .L0 
     /tmp/cctEzUQT.s:94     .text:0000000000000058 .L0 
     /tmp/cctEzUQT.s:95     .text:0000000000000058 .L0 
     /tmp/cctEzUQT.s:99     .text:000000000000005c .L0 
     /tmp/cctEzUQT.s:100    .text:0000000000000060 .L0 
     /tmp/cctEzUQT.s:101    .text:0000000000000060 .L0 
     /tmp/cctEzUQT.s:103    .text:0000000000000064 .L0 
     /tmp/cctEzUQT.s:104    .text:0000000000000064 .L0 
     /tmp/cctEzUQT.s:106    .text:0000000000000068 .L0 
     /tmp/cctEzUQT.s:108    .text:000000000000006c .L0 
     /tmp/cctEzUQT.s:112    .text:0000000000000070 .L0 
     /tmp/cctEzUQT.s:114    .text:0000000000000070 .L0 
     /tmp/cctEzUQT.s:115    .text:0000000000000070 .L0 
     /tmp/cctEzUQT.s:120    .text:0000000000000080 .L0 
     /tmp/cctEzUQT.s:121    .text:0000000000000080 .L0 
     /tmp/cctEzUQT.s:123    .text:0000000000000088 .L0 
     /tmp/cctEzUQT.s:139    .text:0000000000000088 .L0 
     /tmp/cctEzUQT.s:131    .rodata.str1.8:0000000000000028 .LC1
     /tmp/cctEzUQT.s:90     .text:0000000000000048 .L0 
     /tmp/cctEzUQT.s:128    .rodata.str1.8:0000000000000000 .LC0
     /tmp/cctEzUQT.s:115    .text:0000000000000070 .L0 
     /tmp/cctEzUQT.s:111    .text:0000000000000070 .L5
     /tmp/cctEzUQT.s:97     .text:000000000000005c .L3
     /tmp/cctEzUQT.s:1191   .debug_abbrev:0000000000000000 .Ldebug_abbrev0
     /tmp/cctEzUQT.s:2172   .debug_str:000000000000034b .LASF154
GAS LISTING /tmp/cctEzUQT.s 			page 9


     /tmp/cctEzUQT.s:2126   .debug_str:000000000000020b .LASF155
     /tmp/cctEzUQT.s:2242   .debug_str:0000000000000617 .LASF156
     /tmp/cctEzUQT.s:8      .text:0000000000000000 .Ltext0
     /tmp/cctEzUQT.s:134    .text:0000000000000088 .Letext0
     /tmp/cctEzUQT.s:2048   .debug_line:0000000000000000 .Ldebug_line0
     /tmp/cctEzUQT.s:2158   .debug_str:00000000000002eb .LASF0
     /tmp/cctEzUQT.s:2180   .debug_str:0000000000000442 .LASF1
     /tmp/cctEzUQT.s:2252   .debug_str:000000000000067c .LASF2
     /tmp/cctEzUQT.s:2262   .debug_str:00000000000006cf .LASF4
     /tmp/cctEzUQT.s:2166   .debug_str:000000000000031f .LASF3
     /tmp/cctEzUQT.s:2066   .debug_str:000000000000008a .LASF5
     /tmp/cctEzUQT.s:2230   .debug_str:00000000000005af .LASF6
     /tmp/cctEzUQT.s:2228   .debug_str:000000000000059c .LASF7
     /tmp/cctEzUQT.s:2174   .debug_str:000000000000040f .LASF8
     /tmp/cctEzUQT.s:2138   .debug_str:000000000000025b .LASF9
     /tmp/cctEzUQT.s:2144   .debug_str:0000000000000283 .LASF10
     /tmp/cctEzUQT.s:2098   .debug_str:0000000000000149 .LASF11
     /tmp/cctEzUQT.s:2130   .debug_str:0000000000000230 .LASF12
     /tmp/cctEzUQT.s:2108   .debug_str:000000000000017e .LASF13
     /tmp/cctEzUQT.s:2096   .debug_str:0000000000000139 .LASF14
     /tmp/cctEzUQT.s:2296   .debug_str:00000000000007c2 .LASF15
     /tmp/cctEzUQT.s:2124   .debug_str:00000000000001f5 .LASF16
     /tmp/cctEzUQT.s:2284   .debug_str:0000000000000765 .LASF17
     /tmp/cctEzUQT.s:2194   .debug_str:00000000000004a1 .LASF18
     /tmp/cctEzUQT.s:2312   .debug_str:0000000000000830 .LASF157
     /tmp/cctEzUQT.s:2054   .debug_str:0000000000000028 .LASF19
     /tmp/cctEzUQT.s:2094   .debug_str:0000000000000133 .LASF20
     /tmp/cctEzUQT.s:2082   .debug_str:00000000000000d9 .LASF21
     /tmp/cctEzUQT.s:2102   .debug_str:000000000000015d .LASF22
     /tmp/cctEzUQT.s:2300   .debug_str:00000000000007e4 .LASF158
     /tmp/cctEzUQT.s:2370   .debug_str:00000000000009c1 .LASF23
     /tmp/cctEzUQT.s:2142   .debug_str:0000000000000277 .LASF25
     /tmp/cctEzUQT.s:2086   .debug_str:00000000000000f0 .LASF24
     /tmp/cctEzUQT.s:2136   .debug_str:000000000000024f .LASF26
     /tmp/cctEzUQT.s:2058   .debug_str:0000000000000035 .LASF27
     /tmp/cctEzUQT.s:2212   .debug_str:000000000000052e .LASF29
     /tmp/cctEzUQT.s:2282   .debug_str:0000000000000752 .LASF28
     /tmp/cctEzUQT.s:2254   .debug_str:000000000000068a .LASF30
     /tmp/cctEzUQT.s:2264   .debug_str:00000000000006d6 .LASF31
     /tmp/cctEzUQT.s:2064   .debug_str:000000000000007e .LASF32
     /tmp/cctEzUQT.s:2258   .debug_str:00000000000006af .LASF33
     /tmp/cctEzUQT.s:2110   .debug_str:000000000000018e .LASF34
     /tmp/cctEzUQT.s:2274   .debug_str:0000000000000714 .LASF37
     /tmp/cctEzUQT.s:2280   .debug_str:000000000000073e .LASF39
     /tmp/cctEzUQT.s:2196   .debug_str:00000000000004a6 .LASF35
     /tmp/cctEzUQT.s:2128   .debug_str:000000000000021f .LASF36
     /tmp/cctEzUQT.s:2302   .debug_str:00000000000007ec .LASF38
     /tmp/cctEzUQT.s:2298   .debug_str:00000000000007ce .LASF40
     /tmp/cctEzUQT.s:2184   .debug_str:000000000000045b .LASF41
     /tmp/cctEzUQT.s:2330   .debug_str:0000000000000899 .LASF42
     /tmp/cctEzUQT.s:2140   .debug_str:000000000000026b .LASF43
     /tmp/cctEzUQT.s:2260   .debug_str:00000000000006b8 .LASF44
     /tmp/cctEzUQT.s:2226   .debug_str:000000000000058e .LASF45
     /tmp/cctEzUQT.s:2372   .debug_str:00000000000009ce .LASF46
     /tmp/cctEzUQT.s:2314   .debug_str:0000000000000839 .LASF47
     /tmp/cctEzUQT.s:2332   .debug_str:00000000000008b2 .LASF48
     /tmp/cctEzUQT.s:2150   .debug_str:00000000000002a7 .LASF49
GAS LISTING /tmp/cctEzUQT.s 			page 10


     /tmp/cctEzUQT.s:2050   .debug_str:0000000000000000 .LASF50
     /tmp/cctEzUQT.s:2294   .debug_str:00000000000007b5 .LASF51
     /tmp/cctEzUQT.s:2352   .debug_str:000000000000092c .LASF52
     /tmp/cctEzUQT.s:2218   .debug_str:0000000000000564 .LASF159
     /tmp/cctEzUQT.s:2182   .debug_str:0000000000000455 .LASF53
     /tmp/cctEzUQT.s:2244   .debug_str:000000000000063a .LASF55
     /tmp/cctEzUQT.s:2116   .debug_str:00000000000001cd .LASF54
     /tmp/cctEzUQT.s:2104   .debug_str:0000000000000166 .LASF56
     /tmp/cctEzUQT.s:2178   .debug_str:0000000000000435 .LASF57
     /tmp/cctEzUQT.s:2200   .debug_str:00000000000004b9 .LASF58
     /tmp/cctEzUQT.s:2078   .debug_str:00000000000000c9 .LASF59
     /tmp/cctEzUQT.s:2308   .debug_str:0000000000000818 .LASF60
     /tmp/cctEzUQT.s:2358   .debug_str:000000000000095b .LASF61
     /tmp/cctEzUQT.s:2206   .debug_str:00000000000004fd .LASF63
     /tmp/cctEzUQT.s:2328   .debug_str:000000000000088f .LASF62
     /tmp/cctEzUQT.s:2092   .debug_str:000000000000011f .LASF64
     /tmp/cctEzUQT.s:2248   .debug_str:0000000000000653 .LASF65
     /tmp/cctEzUQT.s:2306   .debug_str:00000000000007fc .LASF66
     /tmp/cctEzUQT.s:2052   .debug_str:000000000000001a .LASF67
     /tmp/cctEzUQT.s:2250   .debug_str:0000000000000663 .LASF68
     /tmp/cctEzUQT.s:2272   .debug_str:0000000000000703 .LASF69
     /tmp/cctEzUQT.s:2310   .debug_str:0000000000000828 .LASF70
     /tmp/cctEzUQT.s:2100   .debug_str:0000000000000158 .LASF71
     /tmp/cctEzUQT.s:2360   .debug_str:0000000000000972 .LASF72
     /tmp/cctEzUQT.s:2192   .debug_str:0000000000000494 .LASF73
     /tmp/cctEzUQT.s:2222   .debug_str:000000000000057a .LASF74
     /tmp/cctEzUQT.s:2070   .debug_str:000000000000009c .LASF75
     /tmp/cctEzUQT.s:2056   .debug_str:0000000000000030 .LASF76
     /tmp/cctEzUQT.s:2366   .debug_str:00000000000009a4 .LASF77
     /tmp/cctEzUQT.s:2278   .debug_str:0000000000000738 .LASF78
     /tmp/cctEzUQT.s:2318   .debug_str:000000000000084e .LASF79
     /tmp/cctEzUQT.s:2118   .debug_str:00000000000001d6 .LASF80
     /tmp/cctEzUQT.s:2198   .debug_str:00000000000004ad .LASF81
     /tmp/cctEzUQT.s:2170   .debug_str:0000000000000342 .LASF82
     /tmp/cctEzUQT.s:2224   .debug_str:0000000000000587 .LASF83
     /tmp/cctEzUQT.s:2322   .debug_str:0000000000000869 .LASF84
     /tmp/cctEzUQT.s:2288   .debug_str:0000000000000783 .LASF160
     /tmp/cctEzUQT.s:2084   .debug_str:00000000000000e2 .LASF85
     /tmp/cctEzUQT.s:2186   .debug_str:0000000000000468 .LASF87
     /tmp/cctEzUQT.s:2112   .debug_str:00000000000001ad .LASF161
     /tmp/cctEzUQT.s:2062   .debug_str:0000000000000056 .LASF162
     /tmp/cctEzUQT.s:2080   .debug_str:00000000000000cf .LASF86
     /tmp/cctEzUQT.s:2204   .debug_str:00000000000004e9 .LASF88
     /tmp/cctEzUQT.s:2340   .debug_str:0000000000000905 .LASF89
     /tmp/cctEzUQT.s:2246   .debug_str:000000000000064a .LASF90
     /tmp/cctEzUQT.s:2216   .debug_str:000000000000054f .LASF91
     /tmp/cctEzUQT.s:2326   .debug_str:0000000000000886 .LASF92
     /tmp/cctEzUQT.s:2324   .debug_str:0000000000000871 .LASF93
     /tmp/cctEzUQT.s:2210   .debug_str:0000000000000527 .LASF94
     /tmp/cctEzUQT.s:2176   .debug_str:0000000000000422 .LASF95
     /tmp/cctEzUQT.s:2232   .debug_str:00000000000005b6 .LASF96
     /tmp/cctEzUQT.s:2234   .debug_str:00000000000005bd .LASF97
     /tmp/cctEzUQT.s:2074   .debug_str:00000000000000b4 .LASF98
     /tmp/cctEzUQT.s:2334   .debug_str:00000000000008cd .LASF99
     /tmp/cctEzUQT.s:2208   .debug_str:000000000000051f .LASF100
     /tmp/cctEzUQT.s:2214   .debug_str:000000000000053b .LASF101
     /tmp/cctEzUQT.s:2356   .debug_str:0000000000000953 .LASF102
GAS LISTING /tmp/cctEzUQT.s 			page 11


     /tmp/cctEzUQT.s:2292   .debug_str:00000000000007a1 .LASF103
     /tmp/cctEzUQT.s:2286   .debug_str:000000000000077b .LASF104
     /tmp/cctEzUQT.s:2164   .debug_str:000000000000030b .LASF105
     /tmp/cctEzUQT.s:2188   .debug_str:0000000000000481 .LASF106
     /tmp/cctEzUQT.s:2236   .debug_str:00000000000005d0 .LASF107
     /tmp/cctEzUQT.s:2290   .debug_str:000000000000079a .LASF108
     /tmp/cctEzUQT.s:2266   .debug_str:00000000000006db .LASF109
     /tmp/cctEzUQT.s:2268   .debug_str:00000000000006ee .LASF110
     /tmp/cctEzUQT.s:2122   .debug_str:00000000000001e2 .LASF111
     /tmp/cctEzUQT.s:2162   .debug_str:0000000000000305 .LASF112
     /tmp/cctEzUQT.s:2114   .debug_str:00000000000001bb .LASF113
     /tmp/cctEzUQT.s:2120   .debug_str:00000000000001dc .LASF114
     /tmp/cctEzUQT.s:2154   .debug_str:00000000000002c1 .LASF115
     /tmp/cctEzUQT.s:2068   .debug_str:0000000000000091 .LASF116
     /tmp/cctEzUQT.s:2256   .debug_str:0000000000000697 .LASF117
     /tmp/cctEzUQT.s:2132   .debug_str:000000000000023f .LASF118
     /tmp/cctEzUQT.s:2368   .debug_str:00000000000009a9 .LASF119
     /tmp/cctEzUQT.s:2338   .debug_str:00000000000008fb .LASF120
     /tmp/cctEzUQT.s:2202   .debug_str:00000000000004d3 .LASF121
     /tmp/cctEzUQT.s:2342   .debug_str:000000000000090b .LASF122
     /tmp/cctEzUQT.s:2362   .debug_str:000000000000097d .LASF123
     /tmp/cctEzUQT.s:2346   .debug_str:000000000000091d .LASF124
     /tmp/cctEzUQT.s:2220   .debug_str:0000000000000569 .LASF125
     /tmp/cctEzUQT.s:2316   .debug_str:0000000000000849 .LASF126
     /tmp/cctEzUQT.s:2364   .debug_str:0000000000000993 .LASF127
     /tmp/cctEzUQT.s:2348   .debug_str:0000000000000922 .LASF128
     /tmp/cctEzUQT.s:2168   .debug_str:0000000000000331 .LASF129
     /tmp/cctEzUQT.s:2350   .debug_str:0000000000000927 .LASF130
     /tmp/cctEzUQT.s:2060   .debug_str:0000000000000045 .LASF131
     /tmp/cctEzUQT.s:2106   .debug_str:0000000000000179 .LASF132
     /tmp/cctEzUQT.s:2374   .debug_str:00000000000009e7 .LASF133
     /tmp/cctEzUQT.s:2354   .debug_str:000000000000094e .LASF134
     /tmp/cctEzUQT.s:2320   .debug_str:0000000000000858 .LASF135
     /tmp/cctEzUQT.s:2160   .debug_str:00000000000002f8 .LASF136
     /tmp/cctEzUQT.s:2336   .debug_str:00000000000008e1 .LASF137
     /tmp/cctEzUQT.s:2270   .debug_str:00000000000006f5 .LASF138
     /tmp/cctEzUQT.s:2276   .debug_str:000000000000071d .LASF139
     /tmp/cctEzUQT.s:2152   .debug_str:00000000000002b6 .LASF140
     /tmp/cctEzUQT.s:2156   .debug_str:00000000000002d3 .LASF141
     /tmp/cctEzUQT.s:2090   .debug_str:0000000000000114 .LASF142
     /tmp/cctEzUQT.s:2238   .debug_str:00000000000005e4 .LASF143
     /tmp/cctEzUQT.s:2072   .debug_str:00000000000000a6 .LASF144
     /tmp/cctEzUQT.s:2240   .debug_str:00000000000005fc .LASF145
     /tmp/cctEzUQT.s:2304   .debug_str:00000000000007f7 .LASF146
     /tmp/cctEzUQT.s:2134   .debug_str:000000000000024a .LASF147
     /tmp/cctEzUQT.s:13     .text:0000000000000000 .LFB91
     /tmp/cctEzUQT.s:124    .text:0000000000000088 .LFE91
     /tmp/cctEzUQT.s:1996   .debug_loc:0000000000000000 .LLST0
     /tmp/cctEzUQT.s:2003   .debug_loc:0000000000000023 .LLST1
     /tmp/cctEzUQT.s:2148   .debug_str:00000000000002a1 .LASF148
     /tmp/cctEzUQT.s:2010   .debug_loc:0000000000000046 .LLST2
     /tmp/cctEzUQT.s:2344   .debug_str:0000000000000915 .LASF149
     /tmp/cctEzUQT.s:2021   .debug_loc:000000000000007c .LLST3
     /tmp/cctEzUQT.s:53     .text:0000000000000030 .LBB6
     /tmp/cctEzUQT.s:70     .text:000000000000003c .LBE6
     /tmp/cctEzUQT.s:54     .text:0000000000000030 .LBB7
     /tmp/cctEzUQT.s:69     .text:000000000000003c .LBE7
GAS LISTING /tmp/cctEzUQT.s 			page 12


     /tmp/cctEzUQT.s:76     .text:0000000000000044 .LBB8
     /tmp/cctEzUQT.s:87     .text:0000000000000048 .LBE8
     /tmp/cctEzUQT.s:2028   .debug_loc:000000000000009f .LLST4
     /tmp/cctEzUQT.s:45     .text:0000000000000024 .LVL2
     /tmp/cctEzUQT.s:49     .text:000000000000002c .LVL3
     /tmp/cctEzUQT.s:74     .text:0000000000000044 .LVL5
     /tmp/cctEzUQT.s:92     .text:0000000000000058 .LVL7
     /tmp/cctEzUQT.s:118    .text:0000000000000080 .LVL11
     /tmp/cctEzUQT.s:2146   .debug_str:0000000000000291 .LASF150
     /tmp/cctEzUQT.s:2190   .debug_str:0000000000000489 .LASF152
     /tmp/cctEzUQT.s:2088   .debug_str:0000000000000100 .LASF151
     /tmp/cctEzUQT.s:2076   .debug_str:00000000000000bc .LASF153
     /tmp/cctEzUQT.s:34     .text:0000000000000018 .LVL0
     /tmp/cctEzUQT.s:40     .text:000000000000001c .LVL1
     /tmp/cctEzUQT.s:110    .text:0000000000000070 .LVL9
     /tmp/cctEzUQT.s:116    .text:0000000000000078 .LVL10
     /tmp/cctEzUQT.s:68     .text:000000000000003c .LVL4
     /tmp/cctEzUQT.s:96     .text:000000000000005c .LVL8
     /tmp/cctEzUQT.s:84     .text:0000000000000048 .LVL6
     /tmp/cctEzUQT.s:140    .debug_info:0000000000000000 .Ldebug_info0

UNDEFINED SYMBOLS
_ZN3TCB15setPanicContextEmm
_Z10kernelInitv
_ZN3TCB5yieldEv
_Z12kprintStringPKc
