GAS LISTING /tmp/ccDMpmG2.s 			page 1


   1              		.file	"noalloc_allocator.cpp"
   2              		.option nopic
   3              		.option norelax
   4              		.attribute arch, "rv64i2p0_m2p0_a2p0"
   5              		.attribute unaligned_access, 0
   6              		.attribute stack_align, 16
   7              		.text
   8              	.Ltext0:
   9              		.align	2
  10              		.globl	_ZN7NoAlloc9mem_allocEm
  12              	_ZN7NoAlloc9mem_allocEm:
  13              	.LFB98:
  14              		.file 1 "src/kernel/noalloc_allocator.cpp"
   1:src/kernel/noalloc_allocator.cpp **** #include"../../h/kernel_lib.h"
   2:src/kernel/noalloc_allocator.cpp **** 
   3:src/kernel/noalloc_allocator.cpp **** void* NoAlloc::NOALLOC_END_ADDR;
   4:src/kernel/noalloc_allocator.cpp **** 
   5:src/kernel/noalloc_allocator.cpp **** void* NoAlloc::mem_alloc(size_t size){
  15              		.loc 1 5 38
  16              		.cfi_startproc
  17              	.LVL0:
  18 0000 130101FF 		addi	sp,sp,-16
  19              		.cfi_def_cfa_offset 16
  20 0004 23348100 		sd	s0,8(sp)
  21              		.cfi_offset 8, -8
  22 0008 13040101 		addi	s0,sp,16
  23              		.cfi_def_cfa 8, 0
  24 000c 93070500 		mv	a5,a0
   6:src/kernel/noalloc_allocator.cpp ****     /* not initalized */
   7:src/kernel/noalloc_allocator.cpp ****     if(!NOALLOC_END_ADDR) return nullptr;
  25              		.loc 1 7 5
  26              		.loc 1 7 8 is_stmt 0
  27 0010 17070000 		lla	a4,_ZN7NoAlloc16NOALLOC_END_ADDRE
  27      13070700 
  28 0018 03350700 		ld	a0,0(a4)
  29              	.LVL1:
  30              		.loc 1 7 5
  31 001c 63000502 		beq	a0,zero,.L1
   8:src/kernel/noalloc_allocator.cpp **** 
   9:src/kernel/noalloc_allocator.cpp ****     /* not enough memory */
  10:src/kernel/noalloc_allocator.cpp ****     if((size_t) NOALLOC_END_ADDR + size >= (uint64)HEAP_END_ADDR)
  32              		.loc 1 10 5 is_stmt 1
  33              		.loc 1 10 34 is_stmt 0
  34 0020 B307F500 		add	a5,a0,a5
  35              	.LVL2:
  36              		.loc 1 10 41
  37 0024 17070000 		lla	a4,HEAP_END_ADDR
  37      13070700 
  38 002c 03370700 		ld	a4,0(a4)
  39              		.loc 1 10 5
  40 0030 63FCE700 		bgeu	a5,a4,.L3
  11:src/kernel/noalloc_allocator.cpp ****         return nullptr;
  12:src/kernel/noalloc_allocator.cpp ****     
  13:src/kernel/noalloc_allocator.cpp ****     void* ret = NOALLOC_END_ADDR;
  41              		.loc 1 13 5 is_stmt 1
  42              	.LVL3:
  14:src/kernel/noalloc_allocator.cpp ****     NOALLOC_END_ADDR = (void*) ((size_t)NOALLOC_END_ADDR + size); /* increase end addr by size of o
GAS LISTING /tmp/ccDMpmG2.s 			page 2


  43              		.loc 1 14 5
  44              		.loc 1 14 22 is_stmt 0
  45 0034 17070000 		sd	a5,_ZN7NoAlloc16NOALLOC_END_ADDRE,a4
  45      2330F700 
  15:src/kernel/noalloc_allocator.cpp ****     
  16:src/kernel/noalloc_allocator.cpp ****     return ret; 
  46              		.loc 1 16 5 is_stmt 1
  47              	.LVL4:
  48              	.L1:
  17:src/kernel/noalloc_allocator.cpp **** }
  49              		.loc 1 17 1 is_stmt 0
  50 003c 03348100 		ld	s0,8(sp)
  51              		.cfi_remember_state
  52              		.cfi_restore 8
  53              		.cfi_def_cfa 2, 16
  54 0040 13010101 		addi	sp,sp,16
  55              		.cfi_def_cfa_offset 0
  56 0044 67800000 		jr	ra
  57              	.L3:
  58              		.cfi_restore_state
  11:src/kernel/noalloc_allocator.cpp ****     
  59              		.loc 1 11 16
  60 0048 13050000 		li	a0,0
  61 004c 6FF01FFF 		j	.L1
  62              		.cfi_endproc
  63              	.LFE98:
  65              		.align	2
  66              		.globl	_ZN7NoAlloc4initEv
  68              	_ZN7NoAlloc4initEv:
  69              	.LFB99:
  18:src/kernel/noalloc_allocator.cpp **** 
  19:src/kernel/noalloc_allocator.cpp **** void NoAlloc::init(){
  70              		.loc 1 19 21 is_stmt 1
  71              		.cfi_startproc
  72 0050 130101FF 		addi	sp,sp,-16
  73              		.cfi_def_cfa_offset 16
  74 0054 23348100 		sd	s0,8(sp)
  75              		.cfi_offset 8, -8
  76 0058 13040101 		addi	s0,sp,16
  77              		.cfi_def_cfa 8, 0
  20:src/kernel/noalloc_allocator.cpp ****     if(!NOALLOC_END_ADDR)
  78              		.loc 1 20 5
  79              		.loc 1 20 8 is_stmt 0
  80 005c 97070000 		lla	a5,_ZN7NoAlloc16NOALLOC_END_ADDRE
  80      93870700 
  81 0064 83B70700 		ld	a5,0(a5)
  82              		.loc 1 20 5
  83 0068 63880700 		beq	a5,zero,.L8
  84              	.L5:
  21:src/kernel/noalloc_allocator.cpp ****         NOALLOC_END_ADDR = (void*)HEAP_START_ADDR;
  22:src/kernel/noalloc_allocator.cpp **** }...
  85              		.loc 1 22 1
  86 006c 03348100 		ld	s0,8(sp)
  87              		.cfi_remember_state
  88              		.cfi_restore 8
  89              		.cfi_def_cfa 2, 16
  90 0070 13010101 		addi	sp,sp,16
GAS LISTING /tmp/ccDMpmG2.s 			page 3


  91              		.cfi_def_cfa_offset 0
  92 0074 67800000 		jr	ra
  93              	.L8:
  94              		.cfi_restore_state
  21:src/kernel/noalloc_allocator.cpp ****         NOALLOC_END_ADDR = (void*)HEAP_START_ADDR;
  95              		.loc 1 21 9 is_stmt 1
  21:src/kernel/noalloc_allocator.cpp ****         NOALLOC_END_ADDR = (void*)HEAP_START_ADDR;
  96              		.loc 1 21 26 is_stmt 0
  97 0078 97070000 		lla	a5,HEAP_START_ADDR
  97      93870700 
  98 0080 83B70700 		ld	a5,0(a5)
  99 0084 17070000 		sd	a5,_ZN7NoAlloc16NOALLOC_END_ADDRE,a4
  99      2330F700 
 100              		.loc 1 22 1
 101 008c 6FF01FFE 		j	.L5
 102              		.cfi_endproc
 103              	.LFE99:
 105              		.globl	_ZN7NoAlloc16NOALLOC_END_ADDRE
 106              		.section	.sbss,"aw",@nobits
 107              		.align	3
 110              	_ZN7NoAlloc16NOALLOC_END_ADDRE:
 111 0000 00000000 		.zero	8
 111      00000000 
 112              		.text
 113              	.Letext0:
 114              		.file 2 "src/kernel/../../h/../h/../lib/hw.h"
 115              		.file 3 "src/kernel/../../h/../h/pmt.h"
 116              		.file 4 "src/kernel/../../h/kernel_lib.h"
 117              		.file 5 "src/kernel/../../h/../h/noalloc_allocator.hpp"
GAS LISTING /tmp/ccDMpmG2.s 			page 4

