GAS LISTING /tmp/ccDMpmG2.s 			page 1


   1              		.file	"noalloc_allocator.cpp"
   2              		.option nopic
   3              		.option norelax
   4              		.attribute arch, "rv64i2p0_m2p0_a2p0"
   5              		.attribute unaligned_access, 0
   6              		.attribute stack_align, 16
   7              		.text
   8              	.Ltext0:
   9              		.align	2
  10              		.globl	_ZN7NoAlloc9mem_allocEm
  12              	_ZN7NoAlloc9mem_allocEm:
  13              	.LFB98:
  14              		.file 1 "src/kernel/noalloc_allocator.cpp"
   1:src/kernel/noalloc_allocator.cpp **** #include"../../h/kernel_lib.h"
   2:src/kernel/noalloc_allocator.cpp **** 
   3:src/kernel/noalloc_allocator.cpp **** void* NoAlloc::NOALLOC_END_ADDR;
   4:src/kernel/noalloc_allocator.cpp **** 
   5:src/kernel/noalloc_allocator.cpp **** void* NoAlloc::mem_alloc(size_t size){
  15              		.loc 1 5 38
  16              		.cfi_startproc
  17              	.LVL0:
  18 0000 130101FF 		addi	sp,sp,-16
  19              		.cfi_def_cfa_offset 16
  20 0004 23348100 		sd	s0,8(sp)
  21              		.cfi_offset 8, -8
  22 0008 13040101 		addi	s0,sp,16
  23              		.cfi_def_cfa 8, 0
  24 000c 93070500 		mv	a5,a0
   6:src/kernel/noalloc_allocator.cpp ****     /* not initalized */
   7:src/kernel/noalloc_allocator.cpp ****     if(!NOALLOC_END_ADDR) return nullptr;
  25              		.loc 1 7 5
  26              		.loc 1 7 8 is_stmt 0
  27 0010 17070000 		lla	a4,_ZN7NoAlloc16NOALLOC_END_ADDRE
  27      13070700 
  28 0018 03350700 		ld	a0,0(a4)
  29              	.LVL1:
  30              		.loc 1 7 5
  31 001c 63000502 		beq	a0,zero,.L1
   8:src/kernel/noalloc_allocator.cpp **** 
   9:src/kernel/noalloc_allocator.cpp ****     /* not enough memory */
  10:src/kernel/noalloc_allocator.cpp ****     if((size_t) NOALLOC_END_ADDR + size >= (uint64)HEAP_END_ADDR)
  32              		.loc 1 10 5 is_stmt 1
  33              		.loc 1 10 34 is_stmt 0
  34 0020 B307F500 		add	a5,a0,a5
  35              	.LVL2:
  36              		.loc 1 10 41
  37 0024 17070000 		lla	a4,HEAP_END_ADDR
  37      13070700 
  38 002c 03370700 		ld	a4,0(a4)
  39              		.loc 1 10 5
  40 0030 63FCE700 		bgeu	a5,a4,.L3
  11:src/kernel/noalloc_allocator.cpp ****         return nullptr;
  12:src/kernel/noalloc_allocator.cpp ****     
  13:src/kernel/noalloc_allocator.cpp ****     void* ret = NOALLOC_END_ADDR;
  41              		.loc 1 13 5 is_stmt 1
  42              	.LVL3:
  14:src/kernel/noalloc_allocator.cpp ****     NOALLOC_END_ADDR = (void*) ((size_t)NOALLOC_END_ADDR + size); /* increase end addr by size of o
GAS LISTING /tmp/ccDMpmG2.s 			page 2


  43              		.loc 1 14 5
  44              		.loc 1 14 22 is_stmt 0
  45 0034 17070000 		sd	a5,_ZN7NoAlloc16NOALLOC_END_ADDRE,a4
  45      2330F700 
  15:src/kernel/noalloc_allocator.cpp ****     
  16:src/kernel/noalloc_allocator.cpp ****     return ret; 
  46              		.loc 1 16 5 is_stmt 1
  47              	.LVL4:
  48              	.L1:
  17:src/kernel/noalloc_allocator.cpp **** }
  49              		.loc 1 17 1 is_stmt 0
  50 003c 03348100 		ld	s0,8(sp)
  51              		.cfi_remember_state
  52              		.cfi_restore 8
  53              		.cfi_def_cfa 2, 16
  54 0040 13010101 		addi	sp,sp,16
  55              		.cfi_def_cfa_offset 0
  56 0044 67800000 		jr	ra
  57              	.L3:
  58              		.cfi_restore_state
  11:src/kernel/noalloc_allocator.cpp ****     
  59              		.loc 1 11 16
  60 0048 13050000 		li	a0,0
  61 004c 6FF01FFF 		j	.L1
  62              		.cfi_endproc
  63              	.LFE98:
  65              		.align	2
  66              		.globl	_ZN7NoAlloc4initEv
  68              	_ZN7NoAlloc4initEv:
  69              	.LFB99:
  18:src/kernel/noalloc_allocator.cpp **** 
  19:src/kernel/noalloc_allocator.cpp **** void NoAlloc::init(){
  70              		.loc 1 19 21 is_stmt 1
  71              		.cfi_startproc
  72 0050 130101FF 		addi	sp,sp,-16
  73              		.cfi_def_cfa_offset 16
  74 0054 23348100 		sd	s0,8(sp)
  75              		.cfi_offset 8, -8
  76 0058 13040101 		addi	s0,sp,16
  77              		.cfi_def_cfa 8, 0
  20:src/kernel/noalloc_allocator.cpp ****     if(!NOALLOC_END_ADDR)
  78              		.loc 1 20 5
  79              		.loc 1 20 8 is_stmt 0
  80 005c 97070000 		lla	a5,_ZN7NoAlloc16NOALLOC_END_ADDRE
  80      93870700 
  81 0064 83B70700 		ld	a5,0(a5)
  82              		.loc 1 20 5
  83 0068 63880700 		beq	a5,zero,.L8
  84              	.L5:
  21:src/kernel/noalloc_allocator.cpp ****         NOALLOC_END_ADDR = (void*)HEAP_START_ADDR;
  22:src/kernel/noalloc_allocator.cpp **** }...
  85              		.loc 1 22 1
  86 006c 03348100 		ld	s0,8(sp)
  87              		.cfi_remember_state
  88              		.cfi_restore 8
  89              		.cfi_def_cfa 2, 16
  90 0070 13010101 		addi	sp,sp,16
GAS LISTING /tmp/ccDMpmG2.s 			page 3


  91              		.cfi_def_cfa_offset 0
  92 0074 67800000 		jr	ra
  93              	.L8:
  94              		.cfi_restore_state
  21:src/kernel/noalloc_allocator.cpp ****         NOALLOC_END_ADDR = (void*)HEAP_START_ADDR;
  95              		.loc 1 21 9 is_stmt 1
  21:src/kernel/noalloc_allocator.cpp ****         NOALLOC_END_ADDR = (void*)HEAP_START_ADDR;
  96              		.loc 1 21 26 is_stmt 0
  97 0078 97070000 		lla	a5,HEAP_START_ADDR
  97      93870700 
  98 0080 83B70700 		ld	a5,0(a5)
  99 0084 17070000 		sd	a5,_ZN7NoAlloc16NOALLOC_END_ADDRE,a4
  99      2330F700 
 100              		.loc 1 22 1
 101 008c 6FF01FFE 		j	.L5
 102              		.cfi_endproc
 103              	.LFE99:
 105              		.globl	_ZN7NoAlloc16NOALLOC_END_ADDRE
 106              		.section	.sbss,"aw",@nobits
 107              		.align	3
 110              	_ZN7NoAlloc16NOALLOC_END_ADDRE:
 111 0000 00000000 		.zero	8
 111      00000000 
 112              		.text
 113              	.Letext0:
 114              		.file 2 "src/kernel/../../h/../h/../lib/hw.h"
 115              		.file 3 "src/kernel/../../h/../h/pmt.h"
 116              		.file 4 "src/kernel/../../h/kernel_lib.h"
 117              		.file 5 "src/kernel/../../h/../h/noalloc_allocator.hpp"
GAS LISTING /tmp/ccDMpmG2.s 			page 4


DEFINED SYMBOLS
                            *ABS*:0000000000000000 noalloc_allocator.cpp
     /tmp/ccDMpmG2.s:12     .text:0000000000000000 _ZN7NoAlloc9mem_allocEm
     /tmp/ccDMpmG2.s:16     .text:0000000000000000 .L0 
     /tmp/ccDMpmG2.s:18     .text:0000000000000000 .L0 
     /tmp/ccDMpmG2.s:19     .text:0000000000000004 .L0 
     /tmp/ccDMpmG2.s:21     .text:0000000000000008 .L0 
     /tmp/ccDMpmG2.s:23     .text:000000000000000c .L0 
     /tmp/ccDMpmG2.s:26     .text:0000000000000010 .L0 
     /tmp/ccDMpmG2.s:110    .sbss:0000000000000000 _ZN7NoAlloc16NOALLOC_END_ADDRE
     /tmp/ccDMpmG2.s:27     .text:0000000000000010 .L0 
     /tmp/ccDMpmG2.s:31     .text:000000000000001c .L0 
     /tmp/ccDMpmG2.s:33     .text:0000000000000020 .L0 
     /tmp/ccDMpmG2.s:34     .text:0000000000000020 .L0 
     /tmp/ccDMpmG2.s:37     .text:0000000000000024 .L0 
     /tmp/ccDMpmG2.s:40     .text:0000000000000030 .L0 
     /tmp/ccDMpmG2.s:43     .text:0000000000000034 .L0 
     /tmp/ccDMpmG2.s:44     .text:0000000000000034 .L0 
     /tmp/ccDMpmG2.s:45     .text:0000000000000034 .L0 
     /tmp/ccDMpmG2.s:49     .text:000000000000003c .L0 
     /tmp/ccDMpmG2.s:50     .text:000000000000003c .L0 
     /tmp/ccDMpmG2.s:51     .text:0000000000000040 .L0 
     /tmp/ccDMpmG2.s:52     .text:0000000000000040 .L0 
     /tmp/ccDMpmG2.s:53     .text:0000000000000040 .L0 
     /tmp/ccDMpmG2.s:55     .text:0000000000000044 .L0 
     /tmp/ccDMpmG2.s:58     .text:0000000000000048 .L0 
     /tmp/ccDMpmG2.s:60     .text:0000000000000048 .L0 
     /tmp/ccDMpmG2.s:62     .text:0000000000000050 .L0 
     /tmp/ccDMpmG2.s:68     .text:0000000000000050 _ZN7NoAlloc4initEv
     /tmp/ccDMpmG2.s:71     .text:0000000000000050 .L0 
     /tmp/ccDMpmG2.s:72     .text:0000000000000050 .L0 
     /tmp/ccDMpmG2.s:73     .text:0000000000000054 .L0 
     /tmp/ccDMpmG2.s:75     .text:0000000000000058 .L0 
     /tmp/ccDMpmG2.s:77     .text:000000000000005c .L0 
     /tmp/ccDMpmG2.s:79     .text:000000000000005c .L0 
     /tmp/ccDMpmG2.s:80     .text:000000000000005c .L0 
     /tmp/ccDMpmG2.s:83     .text:0000000000000068 .L0 
     /tmp/ccDMpmG2.s:86     .text:000000000000006c .L0 
     /tmp/ccDMpmG2.s:87     .text:0000000000000070 .L0 
     /tmp/ccDMpmG2.s:88     .text:0000000000000070 .L0 
     /tmp/ccDMpmG2.s:89     .text:0000000000000070 .L0 
     /tmp/ccDMpmG2.s:91     .text:0000000000000074 .L0 
     /tmp/ccDMpmG2.s:94     .text:0000000000000078 .L0 
     /tmp/ccDMpmG2.s:96     .text:0000000000000078 .L0 
     /tmp/ccDMpmG2.s:97     .text:0000000000000078 .L0 
     /tmp/ccDMpmG2.s:101    .text:000000000000008c .L0 
     /tmp/ccDMpmG2.s:102    .text:0000000000000090 .L0 
     /tmp/ccDMpmG2.s:118    .text:0000000000000090 .L0 
     /tmp/ccDMpmG2.s:27     .text:0000000000000010 .L0 
     /tmp/ccDMpmG2.s:37     .text:0000000000000024 .L0 
     /tmp/ccDMpmG2.s:45     .text:0000000000000034 .L0 
     /tmp/ccDMpmG2.s:80     .text:000000000000005c .L0 
     /tmp/ccDMpmG2.s:97     .text:0000000000000078 .L0 
     /tmp/ccDMpmG2.s:99     .text:0000000000000084 .L0 
     /tmp/ccDMpmG2.s:48     .text:000000000000003c .L1
     /tmp/ccDMpmG2.s:57     .text:0000000000000048 .L3
     /tmp/ccDMpmG2.s:93     .text:0000000000000078 .L8
GAS LISTING /tmp/ccDMpmG2.s 			page 5


     /tmp/ccDMpmG2.s:84     .text:000000000000006c .L5
     /tmp/ccDMpmG2.s:387    .debug_abbrev:0000000000000000 .Ldebug_abbrev0
     /tmp/ccDMpmG2.s:802    .debug_str:0000000000000071 .LASF27
     /tmp/ccDMpmG2.s:822    .debug_str:00000000000001b1 .LASF28
     /tmp/ccDMpmG2.s:860    .debug_str:00000000000002e6 .LASF29
     /tmp/ccDMpmG2.s:8      .text:0000000000000000 .Ltext0
     /tmp/ccDMpmG2.s:113    .text:0000000000000090 .Letext0
     /tmp/ccDMpmG2.s:786    .debug_line:0000000000000000 .Ldebug_line0
     /tmp/ccDMpmG2.s:834    .debug_str:000000000000021f .LASF0
     /tmp/ccDMpmG2.s:826    .debug_str:00000000000001e4 .LASF1
     /tmp/ccDMpmG2.s:830    .debug_str:0000000000000203 .LASF2
     /tmp/ccDMpmG2.s:800    .debug_str:000000000000006a .LASF4
     /tmp/ccDMpmG2.s:824    .debug_str:00000000000001d2 .LASF3
     /tmp/ccDMpmG2.s:792    .debug_str:0000000000000025 .LASF5
     /tmp/ccDMpmG2.s:790    .debug_str:0000000000000012 .LASF6
     /tmp/ccDMpmG2.s:812    .debug_str:0000000000000165 .LASF7
     /tmp/ccDMpmG2.s:842    .debug_str:0000000000000250 .LASF8
     /tmp/ccDMpmG2.s:808    .debug_str:0000000000000148 .LASF9
     /tmp/ccDMpmG2.s:866    .debug_str:0000000000000323 .LASF10
     /tmp/ccDMpmG2.s:838    .debug_str:0000000000000231 .LASF11
     /tmp/ccDMpmG2.s:862    .debug_str:0000000000000309 .LASF12
     /tmp/ccDMpmG2.s:848    .debug_str:0000000000000295 .LASF13
     /tmp/ccDMpmG2.s:828    .debug_str:00000000000001f7 .LASF14
     /tmp/ccDMpmG2.s:798    .debug_str:0000000000000054 .LASF15
     /tmp/ccDMpmG2.s:846    .debug_str:000000000000027f .LASF16
     /tmp/ccDMpmG2.s:804    .debug_str:0000000000000135 .LASF17
     /tmp/ccDMpmG2.s:836    .debug_str:000000000000022c .LASF18
     /tmp/ccDMpmG2.s:858    .debug_str:00000000000002de .LASF30
     /tmp/ccDMpmG2.s:816    .debug_str:0000000000000188 .LASF31
     /tmp/ccDMpmG2.s:850    .debug_str:00000000000002a5 .LASF32
     /tmp/ccDMpmG2.s:818    .debug_str:0000000000000199 .LASF33
     /tmp/ccDMpmG2.s:806    .debug_str:000000000000013a .LASF34
     /tmp/ccDMpmG2.s:794    .debug_str:000000000000002c .LASF35
     /tmp/ccDMpmG2.s:864    .debug_str:0000000000000319 .LASF36
     /tmp/ccDMpmG2.s:854    .debug_str:00000000000002bc .LASF37
     /tmp/ccDMpmG2.s:810    .debug_str:0000000000000156 .LASF19
     /tmp/ccDMpmG2.s:856    .debug_str:00000000000002d4 .LASF20
     /tmp/ccDMpmG2.s:788    .debug_str:0000000000000000 .LASF21
     /tmp/ccDMpmG2.s:796    .debug_str:0000000000000049 .LASF22
     /tmp/ccDMpmG2.s:852    .debug_str:00000000000002aa .LASF23
     /tmp/ccDMpmG2.s:814    .debug_str:0000000000000178 .LASF24
     /tmp/ccDMpmG2.s:840    .debug_str:0000000000000240 .LASF25
     /tmp/ccDMpmG2.s:832    .debug_str:0000000000000211 .LASF26
     /tmp/ccDMpmG2.s:844    .debug_str:0000000000000260 .LASF38
     /tmp/ccDMpmG2.s:69     .text:0000000000000050 .LFB99
     /tmp/ccDMpmG2.s:103    .text:0000000000000090 .LFE99
     /tmp/ccDMpmG2.s:13     .text:0000000000000000 .LFB98
     /tmp/ccDMpmG2.s:63     .text:0000000000000050 .LFE98
     /tmp/ccDMpmG2.s:820    .debug_str:00000000000001ac .LASF39
     /tmp/ccDMpmG2.s:748    .debug_loc:0000000000000000 .LLST0
     /tmp/ccDMpmG2.s:766    .debug_loc:000000000000004c .LLST1
     /tmp/ccDMpmG2.s:17     .text:0000000000000000 .LVL0
     /tmp/ccDMpmG2.s:29     .text:000000000000001c .LVL1
     /tmp/ccDMpmG2.s:35     .text:0000000000000024 .LVL2
     /tmp/ccDMpmG2.s:42     .text:0000000000000034 .LVL3
     /tmp/ccDMpmG2.s:47     .text:000000000000003c .LVL4
     /tmp/ccDMpmG2.s:119    .debug_info:0000000000000000 .Ldebug_info0
GAS LISTING /tmp/ccDMpmG2.s 			page 6



UNDEFINED SYMBOLS
HEAP_END_ADDR
HEAP_START_ADDR
