GAS LISTING /tmp/ccMfIdPX.s 			page 1


   1              		.file	"pmt.cpp"
   2              		.option nopic
   3              		.option norelax
   4              		.attribute arch, "rv64i2p0_m2p0_a2p0"
   5              		.attribute unaligned_access, 0
   6              		.attribute stack_align, 16
   7              		.text
   8              	.Ltext0:
   9              		.align	2
  10              		.globl	_ZN8PMTEntry9set_flagsE12PMTEntryBits
  12              	_ZN8PMTEntry9set_flagsE12PMTEntryBits:
  13              	.LFB98:
  14              		.file 1 "src/kernel/pmt.cpp"
   1:src/kernel/pmt.cpp **** #include"../../h/kernel_lib.h"
   2:src/kernel/pmt.cpp **** 
   3:src/kernel/pmt.cpp **** void PMTEntry::set_flags(PMTEntryBits peb){ val |= (uint64) peb; }
  15              		.loc 1 3 43
  16              		.cfi_startproc
  17              	.LVL0:
  18 0000 130101FF 		addi	sp,sp,-16
  19              		.cfi_def_cfa_offset 16
  20 0004 23348100 		sd	s0,8(sp)
  21              		.cfi_offset 8, -8
  22 0008 13040101 		addi	s0,sp,16
  23              		.cfi_def_cfa 8, 0
  24              		.loc 1 3 45
  25              		.loc 1 3 52 is_stmt 0
  26 000c 93950502 		slli	a1,a1,32
  27              	.LVL1:
  28 0010 93D50502 		srli	a1,a1,32
  29              		.loc 1 3 49
  30 0014 83370500 		ld	a5,0(a0)
  31 0018 B3E7B700 		or	a5,a5,a1
  32 001c 2330F500 		sd	a5,0(a0)
  33              		.loc 1 3 66
  34 0020 03348100 		ld	s0,8(sp)
  35              		.cfi_restore 8
  36              		.cfi_def_cfa 2, 16
  37 0024 13010101 		addi	sp,sp,16
  38              		.cfi_def_cfa_offset 0
  39 0028 67800000 		jr	ra
  40              		.cfi_endproc
  41              	.LFE98:
  43              		.align	2
  44              		.globl	_ZN8PMTEntry11clear_flagsE12PMTEntryBits
  46              	_ZN8PMTEntry11clear_flagsE12PMTEntryBits:
  47              	.LFB99:
   4:src/kernel/pmt.cpp **** 
   5:src/kernel/pmt.cpp **** void PMTEntry::clear_flags(PMTEntryBits peb){ val &= ~((uint64) peb); }
  48              		.loc 1 5 45 is_stmt 1
  49              		.cfi_startproc
  50              	.LVL2:
  51 002c 130101FF 		addi	sp,sp,-16
  52              		.cfi_def_cfa_offset 16
  53 0030 23348100 		sd	s0,8(sp)
  54              		.cfi_offset 8, -8
  55 0034 13040101 		addi	s0,sp,16
GAS LISTING /tmp/ccMfIdPX.s 			page 2


  56              		.cfi_def_cfa 8, 0
  57              		.loc 1 5 47
  58              		.loc 1 5 56 is_stmt 0
  59 0038 93950502 		slli	a1,a1,32
  60              	.LVL3:
  61 003c 93D50502 		srli	a1,a1,32
  62              		.loc 1 5 54
  63 0040 93C7F5FF 		not	a5,a1
  64              		.loc 1 5 51
  65 0044 83350500 		ld	a1,0(a0)
  66 0048 B3F5F500 		and	a1,a1,a5
  67 004c 2330B500 		sd	a1,0(a0)
  68              		.loc 1 5 71
  69 0050 03348100 		ld	s0,8(sp)
  70              		.cfi_restore 8
  71              		.cfi_def_cfa 2, 16
  72 0054 13010101 		addi	sp,sp,16
  73              		.cfi_def_cfa_offset 0
  74 0058 67800000 		jr	ra
  75              		.cfi_endproc
  76              	.LFE99:
  78              		.align	2
  79              		.globl	_ZN8PMTEntry6get_faEv
  81              	_ZN8PMTEntry6get_faEv:
  82              	.LFB100:
   6:src/kernel/pmt.cpp **** 
   7:src/kernel/pmt.cpp **** void* PMTEntry::get_fa(){
  83              		.loc 1 7 25 is_stmt 1
  84              		.cfi_startproc
  85              	.LVL4:
  86 005c 130101FF 		addi	sp,sp,-16
  87              		.cfi_def_cfa_offset 16
  88 0060 23348100 		sd	s0,8(sp)
  89              		.cfi_offset 8, -8
  90 0064 13040101 		addi	s0,sp,16
  91              		.cfi_def_cfa 8, 0
   8:src/kernel/pmt.cpp ****     uint64 mask = (~0ULL) << 10;
  92              		.loc 1 8 5
  93              	.LVL5:
   9:src/kernel/pmt.cpp ****     return (void*)((val & mask) << 2);
  94              		.loc 1 9 5
  95              		.loc 1 9 21 is_stmt 0
  96 0068 83370500 		ld	a5,0(a0)
  97              		.loc 1 9 33
  98 006c 93972700 		slli	a5,a5,2
  10:src/kernel/pmt.cpp **** }
  99              		.loc 1 10 1
 100 0070 37F5FFFF 		li	a0,-4096
 101              	.LVL6:
 102 0074 33F5A700 		and	a0,a5,a0
 103 0078 03348100 		ld	s0,8(sp)
 104              		.cfi_restore 8
 105              		.cfi_def_cfa 2, 16
 106 007c 13010101 		addi	sp,sp,16
 107              		.cfi_def_cfa_offset 0
 108 0080 67800000 		jr	ra
 109              		.cfi_endproc
GAS LISTING /tmp/ccMfIdPX.s 			page 3


 110              	.LFE100:
 112              		.align	2
 113              		.globl	_ZN8PMTEntry6set_faEPv
 115              	_ZN8PMTEntry6set_faEPv:
 116              	.LFB101:
  11:src/kernel/pmt.cpp **** 
  12:src/kernel/pmt.cpp **** int PMTEntry::set_fa(void* fa){
 117              		.loc 1 12 31 is_stmt 1
 118              		.cfi_startproc
 119              	.LVL7:
 120 0084 130101FF 		addi	sp,sp,-16
 121              		.cfi_def_cfa_offset 16
 122 0088 23348100 		sd	s0,8(sp)
 123              		.cfi_offset 8, -8
 124 008c 13040101 		addi	s0,sp,16
 125              		.cfi_def_cfa 8, 0
  13:src/kernel/pmt.cpp ****     uint64 mask = (~0ULL) << 12, uifa = (uint64) fa;
 126              		.loc 1 13 5
 127              	.LVL8:
  14:src/kernel/pmt.cpp ****     
  15:src/kernel/pmt.cpp ****     if( (mask & uifa) != uifa )
 128              		.loc 1 15 5
 129 0090 93974503 		slli	a5,a1,52
 130 0094 63940702 		bne	a5,zero,.L9
  16:src/kernel/pmt.cpp ****         return -1; //exception
  17:src/kernel/pmt.cpp ****     
  18:src/kernel/pmt.cpp ****     mask = ~((~0ULL) << 10);
 131              		.loc 1 18 5
 132              	.LVL9:
  19:src/kernel/pmt.cpp ****     val &= mask;
 133              		.loc 1 19 5
 134              		.loc 1 19 9 is_stmt 0
 135 0098 83370500 		ld	a5,0(a0)
 136 009c 93F7F73F 		andi	a5,a5,1023
  20:src/kernel/pmt.cpp ****     val |= (uifa >> 2); 
 137              		.loc 1 20 5 is_stmt 1
 138              		.loc 1 20 18 is_stmt 0
 139 00a0 93D52500 		srli	a1,a1,2
 140              	.LVL10:
 141              		.loc 1 20 9
 142 00a4 B3E7B700 		or	a5,a5,a1
 143 00a8 2330F500 		sd	a5,0(a0)
  21:src/kernel/pmt.cpp ****     return 0;
 144              		.loc 1 21 5 is_stmt 1
 145              		.loc 1 21 12 is_stmt 0
 146 00ac 13050000 		li	a0,0
 147              	.LVL11:
 148              	.L8:
  22:src/kernel/pmt.cpp **** }
 149              		.loc 1 22 1
 150 00b0 03348100 		ld	s0,8(sp)
 151              		.cfi_remember_state
 152              		.cfi_restore 8
 153              		.cfi_def_cfa 2, 16
 154 00b4 13010101 		addi	sp,sp,16
 155              		.cfi_def_cfa_offset 0
 156 00b8 67800000 		jr	ra
GAS LISTING /tmp/ccMfIdPX.s 			page 4


 157              	.LVL12:
 158              	.L9:
 159              		.cfi_restore_state
  16:src/kernel/pmt.cpp ****     
 160              		.loc 1 16 17
 161 00bc 1305F0FF 		li	a0,-1
 162              	.LVL13:
 163 00c0 6FF01FFF 		j	.L8
 164              		.cfi_endproc
 165              	.LFE101:
 167              		.align	2
 168              		.globl	_ZN8PMTEntry9chk_flagsE12PMTEntryBits
 170              	_ZN8PMTEntry9chk_flagsE12PMTEntryBits:
 171              	.LFB102:
  23:src/kernel/pmt.cpp **** 
  24:src/kernel/pmt.cpp **** bool PMTEntry::chk_flags(PMTEntryBits peb){
 172              		.loc 1 24 43 is_stmt 1
 173              		.cfi_startproc
 174              	.LVL14:
 175 00c4 130101FF 		addi	sp,sp,-16
 176              		.cfi_def_cfa_offset 16
 177 00c8 23348100 		sd	s0,8(sp)
 178              		.cfi_offset 8, -8
 179 00cc 13040101 		addi	s0,sp,16
 180              		.cfi_def_cfa 8, 0
  25:src/kernel/pmt.cpp ****     uint64 t = val & peb;
 181              		.loc 1 25 5
 182              		.loc 1 25 16 is_stmt 0
 183 00d0 03350500 		ld	a0,0(a0)
 184              	.LVL15:
 185              		.loc 1 25 12
 186 00d4 3375B500 		and	a0,a0,a1
 187              	.LVL16:
  26:src/kernel/pmt.cpp ****     return t == peb;
 188              		.loc 1 26 5 is_stmt 1
 189              		.loc 1 26 17 is_stmt 0
 190 00d8 3385A540 		sub	a0,a1,a0
 191              	.LVL17:
  27:src/kernel/pmt.cpp **** }
 192              		.loc 1 27 1
 193 00dc 13351500 		seqz	a0,a0
 194 00e0 03348100 		ld	s0,8(sp)
 195              		.cfi_restore 8
 196              		.cfi_def_cfa 2, 16
 197 00e4 13010101 		addi	sp,sp,16
 198              		.cfi_def_cfa_offset 0
 199 00e8 67800000 		jr	ra
 200              		.cfi_endproc
 201              	.LFE102:
 203              	.Letext0:
 204              		.file 2 "src/kernel/../../h/../h/../lib/hw.h"
 205              		.file 3 "src/kernel/../../h/../h/pmt.h"
 206              		.file 4 "src/kernel/../../h/kernel_lib.h"
GAS LISTING /tmp/ccMfIdPX.s 			page 5

