GAS LISTING /tmp/cccBsPIK.s 			page 1


   1              		.file	"ptr_queue.cpp"
   2              		.option nopic
   3              		.option norelax
   4              		.attribute arch, "rv64i2p0_m2p0_a2p0"
   5              		.attribute unaligned_access, 0
   6              		.attribute stack_align, 16
   7              		.text
   8              	.Ltext0:
   9              		.align	2
  10              		.globl	_ZNK8TcbQueue6existsEP3TCB
  12              	_ZNK8TcbQueue6existsEP3TCB:
  13              	.LFB98:
  14              		.file 1 "src/kernel/ptr_queue.cpp"
   1:src/kernel/ptr_queue.cpp **** #include"../../h/kernel_lib.h"
   2:src/kernel/ptr_queue.cpp **** bool TcbQueue::exists(TCB* info) const 
   3:src/kernel/ptr_queue.cpp **** {
  15              		.loc 1 3 1
  16              		.cfi_startproc
  17              	.LVL0:
  18 0000 130101FF 		addi	sp,sp,-16
  19              		.cfi_def_cfa_offset 16
  20 0004 23348100 		sd	s0,8(sp)
  21              		.cfi_offset 8, -8
  22 0008 13040101 		addi	s0,sp,16
  23              		.cfi_def_cfa 8, 0
   4:src/kernel/ptr_queue.cpp ****     for(TCB* node = head; node; node = node->next)
  24              		.loc 1 4 5
  25              	.LBB2:
  26              		.loc 1 4 14 is_stmt 0
  27 000c 83370500 		ld	a5,0(a0)
  28              	.LVL1:
  29              	.L3:
  30              		.loc 1 4 27 discriminator 1
  31 0010 63880700 		beq	a5,zero,.L4
   5:src/kernel/ptr_queue.cpp ****     {
   6:src/kernel/ptr_queue.cpp ****         if(node == info)
  32              		.loc 1 6 9 is_stmt 1
  33 0014 638EB700 		beq	a5,a1,.L5
   4:src/kernel/ptr_queue.cpp ****     for(TCB* node = head; node; node = node->next)
  34              		.loc 1 4 38 is_stmt 0 discriminator 2
  35 0018 83B70700 		ld	a5,0(a5)
  36              	.LVL2:
   4:src/kernel/ptr_queue.cpp ****     for(TCB* node = head; node; node = node->next)
  37              		.loc 1 4 5 discriminator 2
  38 001c 6FF05FFF 		j	.L3
  39              	.L4:
  40              	.LBE2:
   7:src/kernel/ptr_queue.cpp ****             return true;
   8:src/kernel/ptr_queue.cpp ****     }
   9:src/kernel/ptr_queue.cpp ****     return false;
  41              		.loc 1 9 12
  42 0020 13050000 		li	a0,0
  43              	.LVL3:
  44              	.L2:
  10:src/kernel/ptr_queue.cpp **** }
  45              		.loc 1 10 1
  46 0024 03348100 		ld	s0,8(sp)
GAS LISTING /tmp/cccBsPIK.s 			page 2


  47              		.cfi_remember_state
  48              		.cfi_restore 8
  49              		.cfi_def_cfa 2, 16
  50 0028 13010101 		addi	sp,sp,16
  51              		.cfi_def_cfa_offset 0
  52 002c 67800000 		jr	ra
  53              	.LVL4:
  54              	.L5:
  55              		.cfi_restore_state
  56              	.LBB3:
   7:src/kernel/ptr_queue.cpp ****             return true;
  57              		.loc 1 7 20
  58 0030 13051000 		li	a0,1
  59              	.LVL5:
  60 0034 6FF01FFF 		j	.L2
  61              	.LBE3:
  62              		.cfi_endproc
  63              	.LFE98:
  65              		.align	2
  66              		.globl	_ZN8TcbQueue6insertEP3TCB
  68              	_ZN8TcbQueue6insertEP3TCB:
  69              	.LFB99:
  11:src/kernel/ptr_queue.cpp **** 
  12:src/kernel/ptr_queue.cpp **** TcbQueue& TcbQueue::insert(TCB* info)
  13:src/kernel/ptr_queue.cpp **** {
  70              		.loc 1 13 1 is_stmt 1
  71              		.cfi_startproc
  72              	.LVL6:
  73 0038 130101FF 		addi	sp,sp,-16
  74              		.cfi_def_cfa_offset 16
  75 003c 23348100 		sd	s0,8(sp)
  76              		.cfi_offset 8, -8
  77 0040 13040101 		addi	s0,sp,16
  78              		.cfi_def_cfa 8, 0
  14:src/kernel/ptr_queue.cpp ****     info->next = nullptr;
  79              		.loc 1 14 5
  80              		.loc 1 14 16 is_stmt 0
  81 0044 23B00500 		sd	zero,0(a1)
  15:src/kernel/ptr_queue.cpp ****     tail = tail==nullptr?(head = info):(tail->next = info);
  82              		.loc 1 15 5 is_stmt 1
  83              		.loc 1 15 12 is_stmt 0
  84 0048 83378500 		ld	a5,8(a0)
  85              		.loc 1 15 25
  86 004c 63820702 		beq	a5,zero,.L11
  87              		.loc 1 15 52 discriminator 2
  88 0050 23B0B700 		sd	a1,0(a5)
  89              	.L9:
  90              		.loc 1 15 10 discriminator 4
  91 0054 2334B500 		sd	a1,8(a0)
  16:src/kernel/ptr_queue.cpp ****     tmpNum++;
  92              		.loc 1 16 5 is_stmt 1 discriminator 4
  93 0058 83270501 		lw	a5,16(a0)
  94              		.loc 1 16 11 is_stmt 0 discriminator 4
  95 005c 9B871700 		addiw	a5,a5,1
  96 0060 2328F500 		sw	a5,16(a0)
  17:src/kernel/ptr_queue.cpp ****     return *this;
  97              		.loc 1 17 5 is_stmt 1 discriminator 4
GAS LISTING /tmp/cccBsPIK.s 			page 3


  18:src/kernel/ptr_queue.cpp **** }
  98              		.loc 1 18 1 is_stmt 0 discriminator 4
  99 0064 03348100 		ld	s0,8(sp)
 100              		.cfi_remember_state
 101              		.cfi_restore 8
 102              		.cfi_def_cfa 2, 16
 103 0068 13010101 		addi	sp,sp,16
 104              		.cfi_def_cfa_offset 0
 105 006c 67800000 		jr	ra
 106              	.L11:
 107              		.cfi_restore_state
  15:src/kernel/ptr_queue.cpp ****     tmpNum++;
 108              		.loc 1 15 32 discriminator 1
 109 0070 2330B500 		sd	a1,0(a0)
 110 0074 6FF01FFE 		j	.L9
 111              		.cfi_endproc
 112              	.LFE99:
 114              		.align	2
 115              		.globl	_ZN8TcbQueue6removeEv
 117              	_ZN8TcbQueue6removeEv:
 118              	.LFB100:
  19:src/kernel/ptr_queue.cpp ****    
  20:src/kernel/ptr_queue.cpp **** TCB* TcbQueue::remove(){
 119              		.loc 1 20 24 is_stmt 1
 120              		.cfi_startproc
 121              	.LVL7:
 122 0078 130101FF 		addi	sp,sp,-16
 123              		.cfi_def_cfa_offset 16
 124 007c 23348100 		sd	s0,8(sp)
 125              		.cfi_offset 8, -8
 126 0080 13040101 		addi	s0,sp,16
 127              		.cfi_def_cfa 8, 0
 128 0084 93070500 		mv	a5,a0
  21:src/kernel/ptr_queue.cpp ****     if(head!=nullptr){
 129              		.loc 1 21 5
 130              	.LBB4:
 131              		.loc 1 21 8 is_stmt 0
 132 0088 03350500 		ld	a0,0(a0)
 133              	.LVL8:
 134              		.loc 1 21 5
 135 008c 63020502 		beq	a0,zero,.L12
 136              	.LBB5:
  22:src/kernel/ptr_queue.cpp ****         TCB* ret = head;
 137              		.loc 1 22 9 is_stmt 1
 138              	.LVL9:
  23:src/kernel/ptr_queue.cpp ****         head = head==tail?(tail = nullptr):head->next;
 139              		.loc 1 23 9
 140              		.loc 1 23 22 is_stmt 0
 141 0090 03B78700 		ld	a4,8(a5)
 142              		.loc 1 23 26
 143 0094 6304E502 		beq	a0,a4,.L17
 144              		.loc 1 23 26 discriminator 2
 145 0098 03370500 		ld	a4,0(a0)
 146              	.L15:
 147              		.loc 1 23 14 discriminator 4
 148 009c 23B0E700 		sd	a4,0(a5)
  24:src/kernel/ptr_queue.cpp ****         ret->next = nullptr;
GAS LISTING /tmp/cccBsPIK.s 			page 4


 149              		.loc 1 24 9 is_stmt 1 discriminator 4
 150              		.loc 1 24 19 is_stmt 0 discriminator 4
 151 00a0 23300500 		sd	zero,0(a0)
  25:src/kernel/ptr_queue.cpp ****         tmpNum--;
 152              		.loc 1 25 9 is_stmt 1 discriminator 4
 153 00a4 03A70701 		lw	a4,16(a5)
 154              		.loc 1 25 15 is_stmt 0 discriminator 4
 155 00a8 1B07F7FF 		addiw	a4,a4,-1
 156 00ac 23A8E700 		sw	a4,16(a5)
  26:src/kernel/ptr_queue.cpp ****         return ret;            
 157              		.loc 1 26 9 is_stmt 1 discriminator 4
 158              	.LVL10:
 159              	.L12:
 160              	.LBE5:
 161              	.LBE4:
  27:src/kernel/ptr_queue.cpp ****     }
  28:src/kernel/ptr_queue.cpp ****     return nullptr;
  29:src/kernel/ptr_queue.cpp **** }
 162              		.loc 1 29 1 is_stmt 0
 163 00b0 03348100 		ld	s0,8(sp)
 164              		.cfi_remember_state
 165              		.cfi_restore 8
 166              		.cfi_def_cfa 2, 16
 167 00b4 13010101 		addi	sp,sp,16
 168              		.cfi_def_cfa_offset 0
 169 00b8 67800000 		jr	ra
 170              	.LVL11:
 171              	.L17:
 172              		.cfi_restore_state
 173              	.LBB7:
 174              	.LBB6:
  23:src/kernel/ptr_queue.cpp ****         ret->next = nullptr;
 175              		.loc 1 23 33 discriminator 1
 176 00bc 23B40700 		sd	zero,8(a5)
  23:src/kernel/ptr_queue.cpp ****         ret->next = nullptr;
 177              		.loc 1 23 26 discriminator 1
 178 00c0 13070000 		li	a4,0
 179 00c4 6FF09FFD 		j	.L15
 180              	.LBE6:
 181              	.LBE7:
 182              		.cfi_endproc
 183              	.LFE100:
 185              		.align	2
 186              		.globl	_ZN8TcbQueue3topEv
 188              	_ZN8TcbQueue3topEv:
 189              	.LFB101:
  30:src/kernel/ptr_queue.cpp **** 
  31:src/kernel/ptr_queue.cpp **** TCB* TcbQueue::top(){
 190              		.loc 1 31 21 is_stmt 1
 191              		.cfi_startproc
 192              	.LVL12:
 193 00c8 130101FF 		addi	sp,sp,-16
 194              		.cfi_def_cfa_offset 16
 195 00cc 23348100 		sd	s0,8(sp)
 196              		.cfi_offset 8, -8
 197 00d0 13040101 		addi	s0,sp,16
 198              		.cfi_def_cfa 8, 0
GAS LISTING /tmp/cccBsPIK.s 			page 5


  32:src/kernel/ptr_queue.cpp ****     return head;
 199              		.loc 1 32 5
  33:src/kernel/ptr_queue.cpp **** }
 200              		.loc 1 33 1 is_stmt 0
 201 00d4 03350500 		ld	a0,0(a0)
 202              	.LVL13:
 203 00d8 03348100 		ld	s0,8(sp)
 204              		.cfi_restore 8
 205              		.cfi_def_cfa 2, 16
 206 00dc 13010101 		addi	sp,sp,16
 207              		.cfi_def_cfa_offset 0
 208 00e0 67800000 		jr	ra
 209              		.cfi_endproc
 210              	.LFE101:
 212              		.align	2
 213              		.globl	_ZN8TcbQueue10printQueueEv
 215              	_ZN8TcbQueue10printQueueEv:
 216              	.LFB102:
  34:src/kernel/ptr_queue.cpp **** 
  35:src/kernel/ptr_queue.cpp **** void TcbQueue::printQueue(){
 217              		.loc 1 35 28 is_stmt 1
 218              		.cfi_startproc
 219              	.LVL14:
 220 00e4 130101FE 		addi	sp,sp,-32
 221              		.cfi_def_cfa_offset 32
 222 00e8 233C1100 		sd	ra,24(sp)
 223 00ec 23388100 		sd	s0,16(sp)
 224 00f0 23349100 		sd	s1,8(sp)
 225              		.cfi_offset 1, -8
 226              		.cfi_offset 8, -16
 227              		.cfi_offset 9, -24
 228 00f4 13040102 		addi	s0,sp,32
 229              		.cfi_def_cfa 8, 0
  36:src/kernel/ptr_queue.cpp ****     TCB* t = head;
 230              		.loc 1 36 5
 231              		.loc 1 36 10 is_stmt 0
 232 00f8 83340500 		ld	s1,0(a0)
 233              	.LVL15:
 234              	.L22:
  37:src/kernel/ptr_queue.cpp ****     while(t){
 235              		.loc 1 37 5 is_stmt 1
 236              		.loc 1 37 11 is_stmt 0
 237 00fc 63800404 		beq	s1,zero,.L21
  38:src/kernel/ptr_queue.cpp ****         kprintString("-> ");
 238              		.loc 1 38 9 is_stmt 1
 239              		.loc 1 38 21 is_stmt 0
 240 0100 17050000 		lla	a0,.LC0
 240      13050500 
 241 0108 97000000 		call	_Z12kprintStringPKc
 241      E7800000 
 242              	.LVL16:
  39:src/kernel/ptr_queue.cpp ****         kprintInt((uint64)t);
 243              		.loc 1 39 9 is_stmt 1
 244              		.loc 1 39 18 is_stmt 0
 245 0110 13060000 		li	a2,0
 246 0114 9305A000 		li	a1,10
 247 0118 13850400 		mv	a0,s1
GAS LISTING /tmp/cccBsPIK.s 			page 6


 248 011c 97000000 		call	_Z9kprintIntmib
 248      E7800000 
 249              	.LVL17:
  40:src/kernel/ptr_queue.cpp ****         kprintString("\n");
 250              		.loc 1 40 9 is_stmt 1
 251              		.loc 1 40 21 is_stmt 0
 252 0124 17050000 		lla	a0,.LC1
 252      13050500 
 253 012c 97000000 		call	_Z12kprintStringPKc
 253      E7800000 
 254              	.LVL18:
  41:src/kernel/ptr_queue.cpp ****         t = t->next;            
 255              		.loc 1 41 9 is_stmt 1
 256              		.loc 1 41 11 is_stmt 0
 257 0134 83B40400 		ld	s1,0(s1)
 258              	.LVL19:
  37:src/kernel/ptr_queue.cpp ****         kprintString("-> ");
 259              		.loc 1 37 5
 260 0138 6FF05FFC 		j	.L22
 261              	.L21:
  42:src/kernel/ptr_queue.cpp ****     }
  43:src/kernel/ptr_queue.cpp ****     kprintString("\n");
 262              		.loc 1 43 5 is_stmt 1
 263              		.loc 1 43 17 is_stmt 0
 264 013c 17050000 		lla	a0,.LC1
 264      13050500 
 265 0144 97000000 		call	_Z12kprintStringPKc
 265      E7800000 
 266              	.LVL20:
  44:src/kernel/ptr_queue.cpp **** }
 267              		.loc 1 44 1
 268 014c 83308101 		ld	ra,24(sp)
 269              		.cfi_restore 1
 270 0150 03340101 		ld	s0,16(sp)
 271              		.cfi_restore 8
 272              		.cfi_def_cfa 2, 32
 273 0154 83348100 		ld	s1,8(sp)
 274              		.cfi_restore 9
 275              	.LVL21:
 276 0158 13010102 		addi	sp,sp,32
 277              		.cfi_def_cfa_offset 0
 278 015c 67800000 		jr	ra
 279              		.cfi_endproc
 280              	.LFE102:
 282              		.align	2
 283              		.globl	_ZN8TcbQueue12insertSortedEP3TCBPFiS1_S1_E
 285              	_ZN8TcbQueue12insertSortedEP3TCBPFiS1_S1_E:
 286              	.LFB103:
  45:src/kernel/ptr_queue.cpp ****     
  46:src/kernel/ptr_queue.cpp **** void TcbQueue::insertSorted(TCB* info, int(*cmp)(TCB*, TCB*)){
 287              		.loc 1 46 62 is_stmt 1
 288              		.cfi_startproc
 289              	.LVL22:
 290 0160 130101FC 		addi	sp,sp,-64
 291              		.cfi_def_cfa_offset 64
 292 0164 233C1102 		sd	ra,56(sp)
 293 0168 23388102 		sd	s0,48(sp)
GAS LISTING /tmp/cccBsPIK.s 			page 7


 294 016c 23349102 		sd	s1,40(sp)
 295 0170 23302103 		sd	s2,32(sp)
 296 0174 233C3101 		sd	s3,24(sp)
 297 0178 23384101 		sd	s4,16(sp)
 298 017c 23345101 		sd	s5,8(sp)
 299              		.cfi_offset 1, -8
 300              		.cfi_offset 8, -16
 301              		.cfi_offset 9, -24
 302              		.cfi_offset 18, -32
 303              		.cfi_offset 19, -40
 304              		.cfi_offset 20, -48
 305              		.cfi_offset 21, -56
 306 0180 13040104 		addi	s0,sp,64
 307              		.cfi_def_cfa 8, 0
 308 0184 930A0500 		mv	s5,a0
 309 0188 13890500 		mv	s2,a1
 310 018c 130A0600 		mv	s4,a2
  47:src/kernel/ptr_queue.cpp ****     TCB* prev = nullptr,* cur = head;
 311              		.loc 1 47 5
 312              	.LVL23:
 313              		.loc 1 47 27 is_stmt 0
 314 0190 83340500 		ld	s1,0(a0)
 315              	.LVL24:
 316              		.loc 1 47 10
 317 0194 93090000 		li	s3,0
 318              	.LVL25:
 319              	.L26:
  48:src/kernel/ptr_queue.cpp ****     while(cur && cmp(info, cur) >= 0){
 320              		.loc 1 48 5 is_stmt 1
 321              		.loc 1 48 15 is_stmt 0
 322 0198 63800402 		beq	s1,zero,.L25
 323              		.loc 1 48 21 discriminator 1
 324 019c 93850400 		mv	a1,s1
 325 01a0 13050900 		mv	a0,s2
 326 01a4 E7000A00 		jalr	s4
 327              	.LVL26:
 328              		.loc 1 48 15 discriminator 1
 329 01a8 63480500 		blt	a0,zero,.L25
  49:src/kernel/ptr_queue.cpp ****         prev = cur;
 330              		.loc 1 49 9 is_stmt 1
 331              	.LVL27:
  50:src/kernel/ptr_queue.cpp ****         cur = cur->next;
 332              		.loc 1 50 9
  49:src/kernel/ptr_queue.cpp ****         prev = cur;
 333              		.loc 1 49 14 is_stmt 0
 334 01ac 93890400 		mv	s3,s1
 335              		.loc 1 50 13
 336 01b0 83B40400 		ld	s1,0(s1)
 337              	.LVL28:
  48:src/kernel/ptr_queue.cpp ****     while(cur && cmp(info, cur) >= 0){
 338              		.loc 1 48 5
 339 01b4 6FF05FFE 		j	.L26
 340              	.L25:
  51:src/kernel/ptr_queue.cpp ****     }
  52:src/kernel/ptr_queue.cpp ****     if(!prev){
 341              		.loc 1 52 5 is_stmt 1 discriminator 4
 342 01b8 63800904 		beq	s3,zero,.L32
GAS LISTING /tmp/cccBsPIK.s 			page 8


  53:src/kernel/ptr_queue.cpp ****         info->next = head;
  54:src/kernel/ptr_queue.cpp ****         head = head==nullptr?(tail = info):info; 
  55:src/kernel/ptr_queue.cpp ****     }else{
  56:src/kernel/ptr_queue.cpp ****         info->next = cur;
 343              		.loc 1 56 9
 344              		.loc 1 56 20 is_stmt 0
 345 01bc 23309900 		sd	s1,0(s2)
  57:src/kernel/ptr_queue.cpp ****         prev->next = cur==nullptr?(tail=info):info;
 346              		.loc 1 57 9 is_stmt 1
 347              		.loc 1 57 34 is_stmt 0
 348 01c0 638A0404 		beq	s1,zero,.L33
 349              	.L30:
 350              		.loc 1 57 20 discriminator 4
 351 01c4 23B02901 		sd	s2,0(s3)
 352              	.L29:
  58:src/kernel/ptr_queue.cpp ****     }
  59:src/kernel/ptr_queue.cpp ****     tmpNum++;
 353              		.loc 1 59 5 is_stmt 1
 354 01c8 83A70A01 		lw	a5,16(s5)
 355              		.loc 1 59 11 is_stmt 0
 356 01cc 9B871700 		addiw	a5,a5,1
 357 01d0 23A8FA00 		sw	a5,16(s5)
  60:src/kernel/ptr_queue.cpp **** }
 358              		.loc 1 60 1
 359 01d4 83308103 		ld	ra,56(sp)
 360              		.cfi_remember_state
 361              		.cfi_restore 1
 362 01d8 03340103 		ld	s0,48(sp)
 363              		.cfi_restore 8
 364              		.cfi_def_cfa 2, 64
 365 01dc 83348102 		ld	s1,40(sp)
 366              		.cfi_restore 9
 367              	.LVL29:
 368 01e0 03390102 		ld	s2,32(sp)
 369              		.cfi_restore 18
 370              	.LVL30:
 371 01e4 83398101 		ld	s3,24(sp)
 372              		.cfi_restore 19
 373              	.LVL31:
 374 01e8 033A0101 		ld	s4,16(sp)
 375              		.cfi_restore 20
 376              	.LVL32:
 377 01ec 833A8100 		ld	s5,8(sp)
 378              		.cfi_restore 21
 379              	.LVL33:
 380 01f0 13010104 		addi	sp,sp,64
 381              		.cfi_def_cfa_offset 0
 382 01f4 67800000 		jr	ra
 383              	.LVL34:
 384              	.L32:
 385              		.cfi_restore_state
  53:src/kernel/ptr_queue.cpp ****         head = head==nullptr?(tail = info):info; 
 386              		.loc 1 53 9 is_stmt 1
  53:src/kernel/ptr_queue.cpp ****         head = head==nullptr?(tail = info):info; 
 387              		.loc 1 53 22 is_stmt 0
 388 01f8 83B70A00 		ld	a5,0(s5)
  53:src/kernel/ptr_queue.cpp ****         head = head==nullptr?(tail = info):info; 
GAS LISTING /tmp/cccBsPIK.s 			page 9


 389              		.loc 1 53 20
 390 01fc 2330F900 		sd	a5,0(s2)
  54:src/kernel/ptr_queue.cpp ****     }else{
 391              		.loc 1 54 9 is_stmt 1
  54:src/kernel/ptr_queue.cpp ****     }else{
 392              		.loc 1 54 29 is_stmt 0
 393 0200 63860700 		beq	a5,zero,.L34
 394              	.L28:
  54:src/kernel/ptr_queue.cpp ****     }else{
 395              		.loc 1 54 14 discriminator 4
 396 0204 23B02A01 		sd	s2,0(s5)
 397 0208 6FF01FFC 		j	.L29
 398              	.L34:
  54:src/kernel/ptr_queue.cpp ****     }else{
 399              		.loc 1 54 36 discriminator 1
 400 020c 23B42A01 		sd	s2,8(s5)
 401 0210 6FF05FFF 		j	.L28
 402              	.L33:
  57:src/kernel/ptr_queue.cpp ****     }
 403              		.loc 1 57 40 discriminator 1
 404 0214 23B42A01 		sd	s2,8(s5)
 405 0218 6FF0DFFA 		j	.L30
 406              		.cfi_endproc
 407              	.LFE103:
 409              		.align	2
 410              		.globl	_ZN8TcbQueue11insertFrontEP3TCB
 412              	_ZN8TcbQueue11insertFrontEP3TCB:
 413              	.LFB104:
  61:src/kernel/ptr_queue.cpp **** 
  62:src/kernel/ptr_queue.cpp **** void TcbQueue::insertFront(TCB* info){
 414              		.loc 1 62 38 is_stmt 1
 415              		.cfi_startproc
 416              	.LVL35:
 417 021c 130101FF 		addi	sp,sp,-16
 418              		.cfi_def_cfa_offset 16
 419 0220 23348100 		sd	s0,8(sp)
 420              		.cfi_offset 8, -8
 421 0224 13040101 		addi	s0,sp,16
 422              		.cfi_def_cfa 8, 0
  63:src/kernel/ptr_queue.cpp ****     info->next = head;
 423              		.loc 1 63 5
 424              		.loc 1 63 18 is_stmt 0
 425 0228 83370500 		ld	a5,0(a0)
 426              		.loc 1 63 16
 427 022c 23B0F500 		sd	a5,0(a1)
  64:src/kernel/ptr_queue.cpp ****     head = head==nullptr?(tail = info):info;
 428              		.loc 1 64 5 is_stmt 1
 429              		.loc 1 64 25 is_stmt 0
 430 0230 63800702 		beq	a5,zero,.L38
 431              	.L36:
 432              		.loc 1 64 10 discriminator 4
 433 0234 2330B500 		sd	a1,0(a0)
  65:src/kernel/ptr_queue.cpp ****     tmpNum++;
 434              		.loc 1 65 5 is_stmt 1 discriminator 4
 435 0238 83270501 		lw	a5,16(a0)
 436              		.loc 1 65 11 is_stmt 0 discriminator 4
 437 023c 9B871700 		addiw	a5,a5,1
GAS LISTING /tmp/cccBsPIK.s 			page 10


 438 0240 2328F500 		sw	a5,16(a0)
  66:src/kernel/ptr_queue.cpp **** }...
 439              		.loc 1 66 1 discriminator 4
 440 0244 03348100 		ld	s0,8(sp)
 441              		.cfi_remember_state
 442              		.cfi_restore 8
 443              		.cfi_def_cfa 2, 16
 444 0248 13010101 		addi	sp,sp,16
 445              		.cfi_def_cfa_offset 0
 446 024c 67800000 		jr	ra
 447              	.L38:
 448              		.cfi_restore_state
  64:src/kernel/ptr_queue.cpp ****     head = head==nullptr?(tail = info):info;
 449              		.loc 1 64 32 discriminator 1
 450 0250 2334B500 		sd	a1,8(a0)
 451 0254 6FF01FFE 		j	.L36
 452              		.cfi_endproc
 453              	.LFE104:
 455              		.section	.rodata.str1.8,"aMS",@progbits,1
 456              		.align	3
 457              	.LC0:
 458 0000 2D3E2000 		.string	"-> "
 459 0004 00000000 		.zero	4
 460              	.LC1:
 461 0008 0A00     		.string	"\n"
 462              		.text
 463              	.Letext0:
 464              		.file 2 "src/kernel/../../h/../h/../lib/hw.h"
 465              		.file 3 "src/kernel/../../h/../h/ptr_queue.hpp"
 466              		.file 4 "src/kernel/../../h/../h/../h/kernel_operators.hpp"
 467              		.file 5 "src/kernel/../../h/../h/tcb.hpp"
 468              		.file 6 "src/kernel/../../h/../h/pmt.h"
 469              		.file 7 "src/kernel/../../h/kernel_lib.h"
 470              		.file 8 "src/kernel/../../h/../h/kernel_funs.h"
GAS LISTING /tmp/cccBsPIK.s 			page 11

