GAS LISTING /tmp/ccROA9VN.s 			page 1


   1              		.file	"scheduler.cpp"
   2              		.option nopic
   3              		.option norelax
   4              		.attribute arch, "rv64i2p0_m2p0_a2p0"
   5              		.attribute unaligned_access, 0
   6              		.attribute stack_align, 16
   7              		.text
   8              	.Ltext0:
   9              		.align	2
  10              		.globl	_ZN9Scheduler3cmpEP3TCBS1_
  12              	_ZN9Scheduler3cmpEP3TCBS1_:
  13              	.LFB35:
  14              		.file 1 "src/kernel/scheduler.cpp"
   1:src/kernel/scheduler.cpp **** #include"../../h/ptr_queue.hpp"
   2:src/kernel/scheduler.cpp **** #include"../../h/tcb.hpp"
   3:src/kernel/scheduler.cpp **** #include"../../h/scheduler.hpp"
   4:src/kernel/scheduler.cpp **** 
   5:src/kernel/scheduler.cpp **** TcbQueue Scheduler::queue;
   6:src/kernel/scheduler.cpp **** TcbQueue Scheduler::sleeping;
   7:src/kernel/scheduler.cpp **** 
   8:src/kernel/scheduler.cpp **** 
   9:src/kernel/scheduler.cpp **** TCB* Scheduler::get() { 
  10:src/kernel/scheduler.cpp ****     print_queue();
  11:src/kernel/scheduler.cpp ****     return queue.remove(); }
  12:src/kernel/scheduler.cpp **** 
  13:src/kernel/scheduler.cpp **** void Scheduler::put(TCB* ptr) { queue.insert(ptr); }
  14:src/kernel/scheduler.cpp **** 
  15:src/kernel/scheduler.cpp **** void Scheduler::initalize(){}
  16:src/kernel/scheduler.cpp **** 
  17:src/kernel/scheduler.cpp **** void Scheduler::finalize(){}
  18:src/kernel/scheduler.cpp **** 
  19:src/kernel/scheduler.cpp **** void Scheduler::print_queue() { queue.printQueue(); }
  20:src/kernel/scheduler.cpp **** 
  21:src/kernel/scheduler.cpp **** int Scheduler::cmp(TCB* x1, TCB* x2)
  22:src/kernel/scheduler.cpp **** {
  15              		.loc 1 22 1
  16              		.cfi_startproc
  17              	.LVL0:
  18 0000 130101FF 		addi	sp,sp,-16
  19              		.cfi_def_cfa_offset 16
  20 0004 23348100 		sd	s0,8(sp)
  21              		.cfi_offset 8, -8
  22 0008 13040101 		addi	s0,sp,16
  23              		.cfi_def_cfa 8, 0
  23:src/kernel/scheduler.cpp ****     int diff = (int)x1->sleep_time-(int)x2->sleep_time;
  24              		.loc 1 23 5
  25              		.loc 1 23 35 is_stmt 0
  26 000c 83268500 		lw	a3,8(a0)
  27 0010 03A78500 		lw	a4,8(a1)
  28              		.loc 1 23 9
  29 0014 BB87E640 		subw	a5,a3,a4
  30              	.LVL1:
  24:src/kernel/scheduler.cpp ****     if(diff>=0)
  31              		.loc 1 24 5 is_stmt 1
  32 0018 63CC0700 		blt	a5,zero,.L2
  25:src/kernel/scheduler.cpp ****         x1->sleep_time = diff;
  33              		.loc 1 25 9
GAS LISTING /tmp/ccROA9VN.s 			page 2


  34              		.loc 1 25 24 is_stmt 0
  35 001c 2334F500 		sd	a5,8(a0)
  36              	.LVL2:
  37              	.L3:
  26:src/kernel/scheduler.cpp ****     else
  27:src/kernel/scheduler.cpp ****         x2->sleep_time = -diff;
  28:src/kernel/scheduler.cpp ****     return diff;
  38              		.loc 1 28 5 is_stmt 1
  29:src/kernel/scheduler.cpp **** }
  39              		.loc 1 29 1 is_stmt 0
  40 0020 13850700 		mv	a0,a5
  41              	.LVL3:
  42 0024 03348100 		ld	s0,8(sp)
  43              		.cfi_remember_state
  44              		.cfi_restore 8
  45              		.cfi_def_cfa 2, 16
  46 0028 13010101 		addi	sp,sp,16
  47              		.cfi_def_cfa_offset 0
  48 002c 67800000 		jr	ra
  49              	.LVL4:
  50              	.L2:
  51              		.cfi_restore_state
  27:src/kernel/scheduler.cpp ****     return diff;
  52              		.loc 1 27 9 is_stmt 1
  27:src/kernel/scheduler.cpp ****     return diff;
  53              		.loc 1 27 26 is_stmt 0
  54 0030 3B07D740 		subw	a4,a4,a3
  55              	.LVL5:
  27:src/kernel/scheduler.cpp ****     return diff;
  56              		.loc 1 27 24
  57 0034 23B4E500 		sd	a4,8(a1)
  58              	.LVL6:
  59 0038 6FF09FFE 		j	.L3
  60              		.cfi_endproc
  61              	.LFE35:
  63              		.align	2
  65              	_Z41__static_initialization_and_destruction_0ii:
  66              	.LFB38:
  30:src/kernel/scheduler.cpp **** 
  31:src/kernel/scheduler.cpp **** void Scheduler::put_sleeper(TCB* t, time_t time)
  32:src/kernel/scheduler.cpp **** {
  33:src/kernel/scheduler.cpp ****     t->sleep_time = time;
  34:src/kernel/scheduler.cpp ****     sleeping.insertSorted(t, cmp);  
  35:src/kernel/scheduler.cpp **** }
  36:src/kernel/scheduler.cpp **** 
  37:src/kernel/scheduler.cpp **** void Scheduler::update_sleep()
  38:src/kernel/scheduler.cpp **** {
  39:src/kernel/scheduler.cpp ****     TCB* t = sleeping.top();
  40:src/kernel/scheduler.cpp ****     if(t == nullptr) return;
  41:src/kernel/scheduler.cpp ****     t->sleep_time--;
  42:src/kernel/scheduler.cpp ****     while(t && t->sleep_time == 0){
  43:src/kernel/scheduler.cpp ****         sleeping.remove();
  44:src/kernel/scheduler.cpp ****         
  45:src/kernel/scheduler.cpp ****         t->setState(TCB::READY);
  46:src/kernel/scheduler.cpp ****         put(t);
  47:src/kernel/scheduler.cpp ****         
  48:src/kernel/scheduler.cpp ****         t = sleeping.top();
GAS LISTING /tmp/ccROA9VN.s 			page 3


  49:src/kernel/scheduler.cpp ****     }
  50:src/kernel/scheduler.cpp **** }...
  67              		.loc 1 50 1 is_stmt 1
  68              		.cfi_startproc
  69              	.LVL7:
  70 003c 130101FF 		addi	sp,sp,-16
  71              		.cfi_def_cfa_offset 16
  72 0040 23348100 		sd	s0,8(sp)
  73              		.cfi_offset 8, -8
  74 0044 13040101 		addi	s0,sp,16
  75              		.cfi_def_cfa 8, 0
  76              		.loc 1 50 1 is_stmt 0
  77 0048 93071000 		li	a5,1
  78 004c 6308F500 		beq	a0,a5,.L8
  79              	.L5:
  80 0050 03348100 		ld	s0,8(sp)
  81              		.cfi_remember_state
  82              		.cfi_restore 8
  83              		.cfi_def_cfa 2, 16
  84 0054 13010101 		addi	sp,sp,16
  85              		.cfi_def_cfa_offset 0
  86 0058 67800000 		jr	ra
  87              	.L8:
  88              		.cfi_restore_state
  89              		.loc 1 50 1 discriminator 1
  90 005c B7070100 		li	a5,65536
  91 0060 9387F7FF 		addi	a5,a5,-1
  92 0064 E396F5FE 		bne	a1,a5,.L5
  93              	.LVL8:
  94              	.LBB10:
  95              	.LBB11:
  96              	.LBB12:
  97              		.file 2 "src/kernel/../../h/ptr_queue.hpp"
   1:src/kernel/../../h/ptr_queue.hpp **** #ifndef _queue_h
   2:src/kernel/../../h/ptr_queue.hpp **** #define _queue_h
   3:src/kernel/../../h/ptr_queue.hpp **** 
   4:src/kernel/../../h/ptr_queue.hpp **** //#include"../h/tcb.hpp"
   5:src/kernel/../../h/ptr_queue.hpp **** //#include"../h/testing.hpp"
   6:src/kernel/../../h/ptr_queue.hpp **** #include"../lib/hw.h"
   7:src/kernel/../../h/ptr_queue.hpp **** #include"../h/memory_allocator.hpp"
   8:src/kernel/../../h/ptr_queue.hpp **** 
   9:src/kernel/../../h/ptr_queue.hpp **** class TCB;
  10:src/kernel/../../h/ptr_queue.hpp **** 
  11:src/kernel/../../h/ptr_queue.hpp **** class TcbQueue{
  12:src/kernel/../../h/ptr_queue.hpp ****        
  13:src/kernel/../../h/ptr_queue.hpp ****     TCB *head, *tail;
  14:src/kernel/../../h/ptr_queue.hpp ****     int tmpNum;
  15:src/kernel/../../h/ptr_queue.hpp ****     void brisi(){
  16:src/kernel/../../h/ptr_queue.hpp ****         while(!isEmpty())
  17:src/kernel/../../h/ptr_queue.hpp ****             remove();
  18:src/kernel/../../h/ptr_queue.hpp ****     }
  19:src/kernel/../../h/ptr_queue.hpp **** 
  20:src/kernel/../../h/ptr_queue.hpp **** public:
  21:src/kernel/../../h/ptr_queue.hpp ****     #include"../h/kernel_operators.hpp"
  22:src/kernel/../../h/ptr_queue.hpp ****     TcbQueue():head(nullptr), tail(nullptr), tmpNum(0){}
  98              		.loc 2 22 54
  99 0068 97070000 		lla	a5,.LANCHOR0
GAS LISTING /tmp/ccROA9VN.s 			page 4


  99      93870700 
 100 0070 23B00700 		sd	zero,0(a5)
 101 0074 23B40700 		sd	zero,8(a5)
 102 0078 23A80700 		sw	zero,16(a5)
 103              	.LVL9:
 104              	.LBE12:
 105              	.LBE11:
 106              	.LBE10:
 107              	.LBB13:
 108              	.LBB14:
 109              	.LBB15:
 110 007c 23BC0700 		sd	zero,24(a5)
 111 0080 23B00702 		sd	zero,32(a5)
 112 0084 23A40702 		sw	zero,40(a5)
 113              	.LBE15:
 114              	.LBE14:
 115              	.LBE13:
 116              		.loc 1 50 1
 117 0088 6FF09FFC 		j	.L5
 118              		.cfi_endproc
 119              	.LFE38:
 121              		.align	2
 122              		.globl	_ZN9Scheduler3putEP3TCB
 124              	_ZN9Scheduler3putEP3TCB:
 125              	.LFB31:
  13:src/kernel/scheduler.cpp **** void Scheduler::put(TCB* ptr) { queue.insert(ptr); }
 126              		.loc 1 13 31 is_stmt 1
 127              		.cfi_startproc
 128              	.LVL10:
 129 008c 130101FF 		addi	sp,sp,-16
 130              		.cfi_def_cfa_offset 16
 131 0090 23341100 		sd	ra,8(sp)
 132 0094 23308100 		sd	s0,0(sp)
 133              		.cfi_offset 1, -8
 134              		.cfi_offset 8, -16
 135 0098 13040101 		addi	s0,sp,16
 136              		.cfi_def_cfa 8, 0
  13:src/kernel/scheduler.cpp **** void Scheduler::put(TCB* ptr) { queue.insert(ptr); }
 137              		.loc 1 13 33
  13:src/kernel/scheduler.cpp **** void Scheduler::put(TCB* ptr) { queue.insert(ptr); }
 138              		.loc 1 13 49 is_stmt 0
 139 009c 93050500 		mv	a1,a0
 140 00a0 17050000 		lla	a0,.LANCHOR0
 140      13050500 
 141              	.LVL11:
 142 00a8 97000000 		call	_ZN8TcbQueue6insertEP3TCB
 142      E7800000 
 143              	.LVL12:
  13:src/kernel/scheduler.cpp **** void Scheduler::put(TCB* ptr) { queue.insert(ptr); }
 144              		.loc 1 13 52
 145 00b0 83308100 		ld	ra,8(sp)
 146              		.cfi_restore 1
 147 00b4 03340100 		ld	s0,0(sp)
 148              		.cfi_restore 8
 149              		.cfi_def_cfa 2, 16
 150 00b8 13010101 		addi	sp,sp,16
 151              		.cfi_def_cfa_offset 0
GAS LISTING /tmp/ccROA9VN.s 			page 5


 152 00bc 67800000 		jr	ra
 153              		.cfi_endproc
 154              	.LFE31:
 156              		.align	2
 157              		.globl	_ZN9Scheduler9initalizeEv
 159              	_ZN9Scheduler9initalizeEv:
 160              	.LFB32:
  15:src/kernel/scheduler.cpp **** void Scheduler::initalize(){}
 161              		.loc 1 15 28 is_stmt 1
 162              		.cfi_startproc
 163 00c0 130101FF 		addi	sp,sp,-16
 164              		.cfi_def_cfa_offset 16
 165 00c4 23348100 		sd	s0,8(sp)
 166              		.cfi_offset 8, -8
 167 00c8 13040101 		addi	s0,sp,16
 168              		.cfi_def_cfa 8, 0
  15:src/kernel/scheduler.cpp **** void Scheduler::initalize(){}
 169              		.loc 1 15 29 is_stmt 0
 170 00cc 03348100 		ld	s0,8(sp)
 171              		.cfi_restore 8
 172              		.cfi_def_cfa 2, 16
 173 00d0 13010101 		addi	sp,sp,16
 174              		.cfi_def_cfa_offset 0
 175 00d4 67800000 		jr	ra
 176              		.cfi_endproc
 177              	.LFE32:
 179              		.align	2
 180              		.globl	_ZN9Scheduler8finalizeEv
 182              	_ZN9Scheduler8finalizeEv:
 183              	.LFB33:
  17:src/kernel/scheduler.cpp **** void Scheduler::finalize(){}
 184              		.loc 1 17 27 is_stmt 1
 185              		.cfi_startproc
 186 00d8 130101FF 		addi	sp,sp,-16
 187              		.cfi_def_cfa_offset 16
 188 00dc 23348100 		sd	s0,8(sp)
 189              		.cfi_offset 8, -8
 190 00e0 13040101 		addi	s0,sp,16
 191              		.cfi_def_cfa 8, 0
  17:src/kernel/scheduler.cpp **** void Scheduler::finalize(){}
 192              		.loc 1 17 28 is_stmt 0
 193 00e4 03348100 		ld	s0,8(sp)
 194              		.cfi_restore 8
 195              		.cfi_def_cfa 2, 16
 196 00e8 13010101 		addi	sp,sp,16
 197              		.cfi_def_cfa_offset 0
 198 00ec 67800000 		jr	ra
 199              		.cfi_endproc
 200              	.LFE33:
 202              		.align	2
 203              		.globl	_ZN9Scheduler11print_queueEv
 205              	_ZN9Scheduler11print_queueEv:
 206              	.LFB34:
  19:src/kernel/scheduler.cpp **** void Scheduler::print_queue() { queue.printQueue(); }
 207              		.loc 1 19 31 is_stmt 1
 208              		.cfi_startproc
 209 00f0 130101FF 		addi	sp,sp,-16
GAS LISTING /tmp/ccROA9VN.s 			page 6


 210              		.cfi_def_cfa_offset 16
 211 00f4 23341100 		sd	ra,8(sp)
 212 00f8 23308100 		sd	s0,0(sp)
 213              		.cfi_offset 1, -8
 214              		.cfi_offset 8, -16
 215 00fc 13040101 		addi	s0,sp,16
 216              		.cfi_def_cfa 8, 0
  19:src/kernel/scheduler.cpp **** void Scheduler::print_queue() { queue.printQueue(); }
 217              		.loc 1 19 33
  19:src/kernel/scheduler.cpp **** void Scheduler::print_queue() { queue.printQueue(); }
 218              		.loc 1 19 49 is_stmt 0
 219 0100 17050000 		lla	a0,.LANCHOR0
 219      13050500 
 220 0108 97000000 		call	_ZN8TcbQueue10printQueueEv
 220      E7800000 
 221              	.LVL13:
  19:src/kernel/scheduler.cpp **** void Scheduler::print_queue() { queue.printQueue(); }
 222              		.loc 1 19 53
 223 0110 83308100 		ld	ra,8(sp)
 224              		.cfi_restore 1
 225 0114 03340100 		ld	s0,0(sp)
 226              		.cfi_restore 8
 227              		.cfi_def_cfa 2, 16
 228 0118 13010101 		addi	sp,sp,16
 229              		.cfi_def_cfa_offset 0
 230 011c 67800000 		jr	ra
 231              		.cfi_endproc
 232              	.LFE34:
 234              		.align	2
 235              		.globl	_ZN9Scheduler3getEv
 237              	_ZN9Scheduler3getEv:
 238              	.LFB30:
   9:src/kernel/scheduler.cpp **** TCB* Scheduler::get() { 
 239              		.loc 1 9 23 is_stmt 1
 240              		.cfi_startproc
 241 0120 130101FF 		addi	sp,sp,-16
 242              		.cfi_def_cfa_offset 16
 243 0124 23341100 		sd	ra,8(sp)
 244 0128 23308100 		sd	s0,0(sp)
 245              		.cfi_offset 1, -8
 246              		.cfi_offset 8, -16
 247 012c 13040101 		addi	s0,sp,16
 248              		.cfi_def_cfa 8, 0
  10:src/kernel/scheduler.cpp ****     print_queue();
 249              		.loc 1 10 5
  10:src/kernel/scheduler.cpp ****     print_queue();
 250              		.loc 1 10 16 is_stmt 0
 251 0130 97000000 		call	_ZN9Scheduler11print_queueEv
 251      E7800000 
 252              	.LVL14:
  11:src/kernel/scheduler.cpp ****     return queue.remove(); }
 253              		.loc 1 11 5 is_stmt 1
  11:src/kernel/scheduler.cpp ****     return queue.remove(); }
 254              		.loc 1 11 24 is_stmt 0
 255 0138 17050000 		lla	a0,.LANCHOR0
 255      13050500 
 256 0140 97000000 		call	_ZN8TcbQueue6removeEv
GAS LISTING /tmp/ccROA9VN.s 			page 7


 256      E7800000 
 257              	.LVL15:
  11:src/kernel/scheduler.cpp ****     return queue.remove(); }
 258              		.loc 1 11 28
 259 0148 83308100 		ld	ra,8(sp)
 260              		.cfi_restore 1
 261 014c 03340100 		ld	s0,0(sp)
 262              		.cfi_restore 8
 263              		.cfi_def_cfa 2, 16
 264 0150 13010101 		addi	sp,sp,16
 265              		.cfi_def_cfa_offset 0
 266 0154 67800000 		jr	ra
 267              		.cfi_endproc
 268              	.LFE30:
 270              		.align	2
 271              		.globl	_ZN9Scheduler11put_sleeperEP3TCBm
 273              	_ZN9Scheduler11put_sleeperEP3TCBm:
 274              	.LFB36:
  32:src/kernel/scheduler.cpp **** {
 275              		.loc 1 32 1 is_stmt 1
 276              		.cfi_startproc
 277              	.LVL16:
 278 0158 130101FF 		addi	sp,sp,-16
 279              		.cfi_def_cfa_offset 16
 280 015c 23341100 		sd	ra,8(sp)
 281 0160 23308100 		sd	s0,0(sp)
 282              		.cfi_offset 1, -8
 283              		.cfi_offset 8, -16
 284 0164 13040101 		addi	s0,sp,16
 285              		.cfi_def_cfa 8, 0
  33:src/kernel/scheduler.cpp ****     t->sleep_time = time;
 286              		.loc 1 33 5
  33:src/kernel/scheduler.cpp ****     t->sleep_time = time;
 287              		.loc 1 33 19 is_stmt 0
 288 0168 2334B500 		sd	a1,8(a0)
  34:src/kernel/scheduler.cpp ****     sleeping.insertSorted(t, cmp);  
 289              		.loc 1 34 5 is_stmt 1
  34:src/kernel/scheduler.cpp ****     sleeping.insertSorted(t, cmp);  
 290              		.loc 1 34 26 is_stmt 0
 291 016c 17060000 		lla	a2,_ZN9Scheduler3cmpEP3TCBS1_
 291      13060600 
 292 0174 93050500 		mv	a1,a0
 293              	.LVL17:
 294 0178 17050000 		lla	a0,.LANCHOR0+24
 294      13050500 
 295              	.LVL18:
 296 0180 97000000 		call	_ZN8TcbQueue12insertSortedEP3TCBPFiS1_S1_E
 296      E7800000 
 297              	.LVL19:
  35:src/kernel/scheduler.cpp **** }
 298              		.loc 1 35 1
 299 0188 83308100 		ld	ra,8(sp)
 300              		.cfi_restore 1
 301 018c 03340100 		ld	s0,0(sp)
 302              		.cfi_restore 8
 303              		.cfi_def_cfa 2, 16
 304 0190 13010101 		addi	sp,sp,16
GAS LISTING /tmp/ccROA9VN.s 			page 8


 305              		.cfi_def_cfa_offset 0
 306 0194 67800000 		jr	ra
 307              		.cfi_endproc
 308              	.LFE36:
 310              		.align	2
 311              		.globl	_ZN9Scheduler12update_sleepEv
 313              	_ZN9Scheduler12update_sleepEv:
 314              	.LFB37:
  38:src/kernel/scheduler.cpp **** {
 315              		.loc 1 38 1 is_stmt 1
 316              		.cfi_startproc
 317 0198 130101FE 		addi	sp,sp,-32
 318              		.cfi_def_cfa_offset 32
 319 019c 233C1100 		sd	ra,24(sp)
 320 01a0 23388100 		sd	s0,16(sp)
 321 01a4 23349100 		sd	s1,8(sp)
 322 01a8 23302101 		sd	s2,0(sp)
 323              		.cfi_offset 1, -8
 324              		.cfi_offset 8, -16
 325              		.cfi_offset 9, -24
 326              		.cfi_offset 18, -32
 327 01ac 13040102 		addi	s0,sp,32
 328              		.cfi_def_cfa 8, 0
  39:src/kernel/scheduler.cpp ****     TCB* t = sleeping.top();
 329              		.loc 1 39 5
  39:src/kernel/scheduler.cpp ****     TCB* t = sleeping.top();
 330              		.loc 1 39 26 is_stmt 0
 331 01b0 17050000 		lla	a0,.LANCHOR0+24
 331      13050500 
 332 01b8 97000000 		call	_ZN8TcbQueue3topEv
 332      E7800000 
 333              	.LVL20:
  40:src/kernel/scheduler.cpp ****     if(t == nullptr) return;
 334              		.loc 1 40 5 is_stmt 1
 335 01c0 630E0504 		beq	a0,zero,.L21
 336 01c4 93040500 		mv	s1,a0
  41:src/kernel/scheduler.cpp ****     t->sleep_time--;
 337              		.loc 1 41 5
  41:src/kernel/scheduler.cpp ****     t->sleep_time--;
 338              		.loc 1 41 8 is_stmt 0
 339 01c8 83378500 		ld	a5,8(a0)
  41:src/kernel/scheduler.cpp ****     t->sleep_time--;
 340              		.loc 1 41 18
 341 01cc 9387F7FF 		addi	a5,a5,-1
 342 01d0 2334F500 		sd	a5,8(a0)
 343              	.LVL21:
 344              	.L23:
  42:src/kernel/scheduler.cpp ****     while(t && t->sleep_time == 0){
 345              		.loc 1 42 5 is_stmt 1
  42:src/kernel/scheduler.cpp ****     while(t && t->sleep_time == 0){
 346              		.loc 1 42 13 is_stmt 0
 347 01d4 63840404 		beq	s1,zero,.L21
  42:src/kernel/scheduler.cpp ****     while(t && t->sleep_time == 0){
 348              		.loc 1 42 19 discriminator 1
 349 01d8 83B78400 		ld	a5,8(s1)
  42:src/kernel/scheduler.cpp ****     while(t && t->sleep_time == 0){
 350              		.loc 1 42 13 discriminator 1
GAS LISTING /tmp/ccROA9VN.s 			page 9


 351 01dc 63900704 		bne	a5,zero,.L21
  43:src/kernel/scheduler.cpp ****         sleeping.remove();
 352              		.loc 1 43 9 is_stmt 1
  43:src/kernel/scheduler.cpp ****         sleeping.remove();
 353              		.loc 1 43 24 is_stmt 0
 354 01e0 17090000 		lla	s2,.LANCHOR0+24
 354      13090900 
 355 01e8 13050900 		mv	a0,s2
 356 01ec 97000000 		call	_ZN8TcbQueue6removeEv
 356      E7800000 
 357              	.LVL22:
  45:src/kernel/scheduler.cpp ****         t->setState(TCB::READY);
 358              		.loc 1 45 9 is_stmt 1
 359              	.LBB16:
 360              	.LBB17:
 361              		.file 3 "src/kernel/../../h/tcb.hpp"
   1:src/kernel/../../h/tcb.hpp **** #ifndef __tcb__h
   2:src/kernel/../../h/tcb.hpp **** #define __tcb__h
   3:src/kernel/../../h/tcb.hpp **** 
   4:src/kernel/../../h/tcb.hpp **** #include"../h/memory_allocator.hpp"
   5:src/kernel/../../h/tcb.hpp **** 
   6:src/kernel/../../h/tcb.hpp **** class KSemaphore;
   7:src/kernel/../../h/tcb.hpp **** 
   8:src/kernel/../../h/tcb.hpp **** class TCB{
   9:src/kernel/../../h/tcb.hpp ****     
  10:src/kernel/../../h/tcb.hpp **** public:
  11:src/kernel/../../h/tcb.hpp ****     //alokacija
  12:src/kernel/../../h/tcb.hpp ****     #include"../h/kernel_operators.hpp"
  13:src/kernel/../../h/tcb.hpp ****     
  14:src/kernel/../../h/tcb.hpp ****     using Body = void (*)(void*);
  15:src/kernel/../../h/tcb.hpp ****     enum TCBState{
  16:src/kernel/../../h/tcb.hpp ****         BLOCKED,
  17:src/kernel/../../h/tcb.hpp ****         READY,
  18:src/kernel/../../h/tcb.hpp ****         FINISHED,
  19:src/kernel/../../h/tcb.hpp ****         SLEEPING
  20:src/kernel/../../h/tcb.hpp ****     };
  21:src/kernel/../../h/tcb.hpp ****     
  22:src/kernel/../../h/tcb.hpp ****     ~TCB(){ 
  23:src/kernel/../../h/tcb.hpp ****         MemoryAllocator& allocator = MemoryAllocator::getInstance(); 
  24:src/kernel/../../h/tcb.hpp ****         allocator.mem_free(this->stack);
  25:src/kernel/../../h/tcb.hpp ****     }
  26:src/kernel/../../h/tcb.hpp ****     
  27:src/kernel/../../h/tcb.hpp ****     //nestaticki metodi
  28:src/kernel/../../h/tcb.hpp ****     void setState(TCBState s) {state = s;}
 362              		.loc 3 28 32
 363              		.loc 3 28 38 is_stmt 0
 364 01f4 93071000 		li	a5,1
 365 01f8 23A8F402 		sw	a5,48(s1)
 366              	.LVL23:
 367              	.LBE17:
 368              	.LBE16:
  46:src/kernel/scheduler.cpp ****         put(t);
 369              		.loc 1 46 9 is_stmt 1
  46:src/kernel/scheduler.cpp ****         put(t);
 370              		.loc 1 46 12 is_stmt 0
 371 01fc 13850400 		mv	a0,s1
 372 0200 97000000 		call	_ZN9Scheduler3putEP3TCB
GAS LISTING /tmp/ccROA9VN.s 			page 10


 372      E7800000 
 373              	.LVL24:
  48:src/kernel/scheduler.cpp ****         t = sleeping.top();
 374              		.loc 1 48 9 is_stmt 1
  48:src/kernel/scheduler.cpp ****         t = sleeping.top();
 375              		.loc 1 48 25 is_stmt 0
 376 0208 13050900 		mv	a0,s2
 377 020c 97000000 		call	_ZN8TcbQueue3topEv
 377      E7800000 
 378              	.LVL25:
 379 0214 93040500 		mv	s1,a0
 380              	.LVL26:
  42:src/kernel/scheduler.cpp ****     while(t && t->sleep_time == 0){
 381              		.loc 1 42 5
 382 0218 6FF0DFFB 		j	.L23
 383              	.LVL27:
 384              	.L21:
 385              		.loc 1 50 1
 386 021c 83308101 		ld	ra,24(sp)
 387              		.cfi_restore 1
 388 0220 03340101 		ld	s0,16(sp)
 389              		.cfi_restore 8
 390              		.cfi_def_cfa 2, 32
 391 0224 83348100 		ld	s1,8(sp)
 392              		.cfi_restore 9
 393 0228 03390100 		ld	s2,0(sp)
 394              		.cfi_restore 18
 395 022c 13010102 		addi	sp,sp,32
 396              		.cfi_def_cfa_offset 0
 397 0230 67800000 		jr	ra
 398              		.cfi_endproc
 399              	.LFE37:
 401              		.align	2
 403              	_GLOBAL__sub_I__ZN9Scheduler5queueE:
 404              	.LFB39:
 405              		.loc 1 50 1 is_stmt 1
 406              		.cfi_startproc
 407 0234 130101FF 		addi	sp,sp,-16
 408              		.cfi_def_cfa_offset 16
 409 0238 23341100 		sd	ra,8(sp)
 410 023c 23308100 		sd	s0,0(sp)
 411              		.cfi_offset 1, -8
 412              		.cfi_offset 8, -16
 413 0240 13040101 		addi	s0,sp,16
 414              		.cfi_def_cfa 8, 0
 415              		.loc 1 50 1 is_stmt 0
 416 0244 B7050100 		li	a1,65536
 417 0248 9385F5FF 		addi	a1,a1,-1
 418 024c 13051000 		li	a0,1
 419 0250 97000000 		call	_Z41__static_initialization_and_destruction_0ii
 419      E7800000 
 420              	.LVL28:
 421 0258 83308100 		ld	ra,8(sp)
 422              		.cfi_restore 1
 423 025c 03340100 		ld	s0,0(sp)
 424              		.cfi_restore 8
 425              		.cfi_def_cfa 2, 16
GAS LISTING /tmp/ccROA9VN.s 			page 11


 426 0260 13010101 		addi	sp,sp,16
 427              		.cfi_def_cfa_offset 0
 428 0264 67800000 		jr	ra
 429              		.cfi_endproc
 430              	.LFE39:
 432              		.section	.init_array,"aw"
 433              		.align	3
 434 0000 00000000 		.dword	_GLOBAL__sub_I__ZN9Scheduler5queueE
 434      00000000 
 435              		.globl	_ZN9Scheduler8sleepingE
 436              		.globl	_ZN9Scheduler5queueE
 437              		.bss
 438              		.align	3
 439              		.set	.LANCHOR0,. + 0
 442              	_ZN9Scheduler5queueE:
 443 0000 00000000 		.zero	24
 443      00000000 
 443      00000000 
 443      00000000 
 443      00000000 
 446              	_ZN9Scheduler8sleepingE:
 447 0018 00000000 		.zero	24
 447      00000000 
 447      00000000 
 447      00000000 
 447      00000000 
 448              		.text
 449              	.Letext0:
 450              		.file 4 "src/kernel/../../h/../lib/hw.h"
 451              		.file 5 "src/kernel/../../h/../h/kernel_operators.hpp"
 452              		.file 6 "src/kernel/../../h/scheduler.hpp"
GAS LISTING /tmp/ccROA9VN.s 			page 12


DEFINED SYMBOLS
                            *ABS*:0000000000000000 scheduler.cpp
     /tmp/ccROA9VN.s:12     .text:0000000000000000 _ZN9Scheduler3cmpEP3TCBS1_
     /tmp/ccROA9VN.s:16     .text:0000000000000000 .L0 
     /tmp/ccROA9VN.s:18     .text:0000000000000000 .L0 
     /tmp/ccROA9VN.s:19     .text:0000000000000004 .L0 
     /tmp/ccROA9VN.s:21     .text:0000000000000008 .L0 
     /tmp/ccROA9VN.s:23     .text:000000000000000c .L0 
     /tmp/ccROA9VN.s:25     .text:000000000000000c .L0 
     /tmp/ccROA9VN.s:26     .text:000000000000000c .L0 
     /tmp/ccROA9VN.s:29     .text:0000000000000014 .L0 
     /tmp/ccROA9VN.s:32     .text:0000000000000018 .L0 
     /tmp/ccROA9VN.s:34     .text:000000000000001c .L0 
     /tmp/ccROA9VN.s:35     .text:000000000000001c .L0 
     /tmp/ccROA9VN.s:39     .text:0000000000000020 .L0 
     /tmp/ccROA9VN.s:40     .text:0000000000000020 .L0 
     /tmp/ccROA9VN.s:43     .text:0000000000000028 .L0 
     /tmp/ccROA9VN.s:44     .text:0000000000000028 .L0 
     /tmp/ccROA9VN.s:45     .text:0000000000000028 .L0 
     /tmp/ccROA9VN.s:47     .text:000000000000002c .L0 
     /tmp/ccROA9VN.s:51     .text:0000000000000030 .L0 
     /tmp/ccROA9VN.s:53     .text:0000000000000030 .L0 
     /tmp/ccROA9VN.s:54     .text:0000000000000030 .L0 
     /tmp/ccROA9VN.s:57     .text:0000000000000034 .L0 
     /tmp/ccROA9VN.s:60     .text:000000000000003c .L0 
     /tmp/ccROA9VN.s:65     .text:000000000000003c _Z41__static_initialization_and_destruction_0ii
     /tmp/ccROA9VN.s:68     .text:000000000000003c .L0 
     /tmp/ccROA9VN.s:70     .text:000000000000003c .L0 
     /tmp/ccROA9VN.s:71     .text:0000000000000040 .L0 
     /tmp/ccROA9VN.s:73     .text:0000000000000044 .L0 
     /tmp/ccROA9VN.s:75     .text:0000000000000048 .L0 
     /tmp/ccROA9VN.s:77     .text:0000000000000048 .L0 
     /tmp/ccROA9VN.s:81     .text:0000000000000054 .L0 
     /tmp/ccROA9VN.s:82     .text:0000000000000054 .L0 
     /tmp/ccROA9VN.s:83     .text:0000000000000054 .L0 
     /tmp/ccROA9VN.s:85     .text:0000000000000058 .L0 
     /tmp/ccROA9VN.s:88     .text:000000000000005c .L0 
     /tmp/ccROA9VN.s:90     .text:000000000000005c .L0 
     /tmp/ccROA9VN.s:99     .text:0000000000000068 .L0 
     /tmp/ccROA9VN.s:117    .text:0000000000000088 .L0 
     /tmp/ccROA9VN.s:118    .text:000000000000008c .L0 
     /tmp/ccROA9VN.s:124    .text:000000000000008c _ZN9Scheduler3putEP3TCB
     /tmp/ccROA9VN.s:127    .text:000000000000008c .L0 
     /tmp/ccROA9VN.s:129    .text:000000000000008c .L0 
     /tmp/ccROA9VN.s:130    .text:0000000000000090 .L0 
     /tmp/ccROA9VN.s:133    .text:0000000000000098 .L0 
     /tmp/ccROA9VN.s:134    .text:0000000000000098 .L0 
     /tmp/ccROA9VN.s:136    .text:000000000000009c .L0 
     /tmp/ccROA9VN.s:138    .text:000000000000009c .L0 
     /tmp/ccROA9VN.s:139    .text:000000000000009c .L0 
     /tmp/ccROA9VN.s:145    .text:00000000000000b0 .L0 
     /tmp/ccROA9VN.s:146    .text:00000000000000b4 .L0 
     /tmp/ccROA9VN.s:148    .text:00000000000000b8 .L0 
     /tmp/ccROA9VN.s:149    .text:00000000000000b8 .L0 
     /tmp/ccROA9VN.s:151    .text:00000000000000bc .L0 
     /tmp/ccROA9VN.s:153    .text:00000000000000c0 .L0 
     /tmp/ccROA9VN.s:159    .text:00000000000000c0 _ZN9Scheduler9initalizeEv
GAS LISTING /tmp/ccROA9VN.s 			page 13


     /tmp/ccROA9VN.s:162    .text:00000000000000c0 .L0 
     /tmp/ccROA9VN.s:163    .text:00000000000000c0 .L0 
     /tmp/ccROA9VN.s:164    .text:00000000000000c4 .L0 
     /tmp/ccROA9VN.s:166    .text:00000000000000c8 .L0 
     /tmp/ccROA9VN.s:168    .text:00000000000000cc .L0 
     /tmp/ccROA9VN.s:170    .text:00000000000000cc .L0 
     /tmp/ccROA9VN.s:171    .text:00000000000000d0 .L0 
     /tmp/ccROA9VN.s:172    .text:00000000000000d0 .L0 
     /tmp/ccROA9VN.s:174    .text:00000000000000d4 .L0 
     /tmp/ccROA9VN.s:176    .text:00000000000000d8 .L0 
     /tmp/ccROA9VN.s:182    .text:00000000000000d8 _ZN9Scheduler8finalizeEv
     /tmp/ccROA9VN.s:185    .text:00000000000000d8 .L0 
     /tmp/ccROA9VN.s:186    .text:00000000000000d8 .L0 
     /tmp/ccROA9VN.s:187    .text:00000000000000dc .L0 
     /tmp/ccROA9VN.s:189    .text:00000000000000e0 .L0 
     /tmp/ccROA9VN.s:191    .text:00000000000000e4 .L0 
     /tmp/ccROA9VN.s:193    .text:00000000000000e4 .L0 
     /tmp/ccROA9VN.s:194    .text:00000000000000e8 .L0 
     /tmp/ccROA9VN.s:195    .text:00000000000000e8 .L0 
     /tmp/ccROA9VN.s:197    .text:00000000000000ec .L0 
     /tmp/ccROA9VN.s:199    .text:00000000000000f0 .L0 
     /tmp/ccROA9VN.s:205    .text:00000000000000f0 _ZN9Scheduler11print_queueEv
     /tmp/ccROA9VN.s:208    .text:00000000000000f0 .L0 
     /tmp/ccROA9VN.s:209    .text:00000000000000f0 .L0 
     /tmp/ccROA9VN.s:210    .text:00000000000000f4 .L0 
     /tmp/ccROA9VN.s:213    .text:00000000000000fc .L0 
     /tmp/ccROA9VN.s:214    .text:00000000000000fc .L0 
     /tmp/ccROA9VN.s:216    .text:0000000000000100 .L0 
     /tmp/ccROA9VN.s:218    .text:0000000000000100 .L0 
     /tmp/ccROA9VN.s:219    .text:0000000000000100 .L0 
     /tmp/ccROA9VN.s:223    .text:0000000000000110 .L0 
     /tmp/ccROA9VN.s:224    .text:0000000000000114 .L0 
     /tmp/ccROA9VN.s:226    .text:0000000000000118 .L0 
     /tmp/ccROA9VN.s:227    .text:0000000000000118 .L0 
     /tmp/ccROA9VN.s:229    .text:000000000000011c .L0 
     /tmp/ccROA9VN.s:231    .text:0000000000000120 .L0 
     /tmp/ccROA9VN.s:237    .text:0000000000000120 _ZN9Scheduler3getEv
     /tmp/ccROA9VN.s:240    .text:0000000000000120 .L0 
     /tmp/ccROA9VN.s:241    .text:0000000000000120 .L0 
     /tmp/ccROA9VN.s:242    .text:0000000000000124 .L0 
     /tmp/ccROA9VN.s:245    .text:000000000000012c .L0 
     /tmp/ccROA9VN.s:246    .text:000000000000012c .L0 
     /tmp/ccROA9VN.s:248    .text:0000000000000130 .L0 
     /tmp/ccROA9VN.s:250    .text:0000000000000130 .L0 
     /tmp/ccROA9VN.s:251    .text:0000000000000130 .L0 
     /tmp/ccROA9VN.s:254    .text:0000000000000138 .L0 
     /tmp/ccROA9VN.s:255    .text:0000000000000138 .L0 
     /tmp/ccROA9VN.s:259    .text:0000000000000148 .L0 
     /tmp/ccROA9VN.s:260    .text:000000000000014c .L0 
     /tmp/ccROA9VN.s:262    .text:0000000000000150 .L0 
     /tmp/ccROA9VN.s:263    .text:0000000000000150 .L0 
     /tmp/ccROA9VN.s:265    .text:0000000000000154 .L0 
     /tmp/ccROA9VN.s:267    .text:0000000000000158 .L0 
     /tmp/ccROA9VN.s:273    .text:0000000000000158 _ZN9Scheduler11put_sleeperEP3TCBm
     /tmp/ccROA9VN.s:276    .text:0000000000000158 .L0 
     /tmp/ccROA9VN.s:278    .text:0000000000000158 .L0 
     /tmp/ccROA9VN.s:279    .text:000000000000015c .L0 
GAS LISTING /tmp/ccROA9VN.s 			page 14


     /tmp/ccROA9VN.s:282    .text:0000000000000164 .L0 
     /tmp/ccROA9VN.s:283    .text:0000000000000164 .L0 
     /tmp/ccROA9VN.s:285    .text:0000000000000168 .L0 
     /tmp/ccROA9VN.s:287    .text:0000000000000168 .L0 
     /tmp/ccROA9VN.s:288    .text:0000000000000168 .L0 
     /tmp/ccROA9VN.s:290    .text:000000000000016c .L0 
     /tmp/ccROA9VN.s:291    .text:000000000000016c .L0 
     /tmp/ccROA9VN.s:299    .text:0000000000000188 .L0 
     /tmp/ccROA9VN.s:300    .text:000000000000018c .L0 
     /tmp/ccROA9VN.s:302    .text:0000000000000190 .L0 
     /tmp/ccROA9VN.s:303    .text:0000000000000190 .L0 
     /tmp/ccROA9VN.s:305    .text:0000000000000194 .L0 
     /tmp/ccROA9VN.s:307    .text:0000000000000198 .L0 
     /tmp/ccROA9VN.s:313    .text:0000000000000198 _ZN9Scheduler12update_sleepEv
     /tmp/ccROA9VN.s:316    .text:0000000000000198 .L0 
     /tmp/ccROA9VN.s:317    .text:0000000000000198 .L0 
     /tmp/ccROA9VN.s:318    .text:000000000000019c .L0 
     /tmp/ccROA9VN.s:323    .text:00000000000001ac .L0 
     /tmp/ccROA9VN.s:324    .text:00000000000001ac .L0 
     /tmp/ccROA9VN.s:325    .text:00000000000001ac .L0 
     /tmp/ccROA9VN.s:326    .text:00000000000001ac .L0 
     /tmp/ccROA9VN.s:328    .text:00000000000001b0 .L0 
     /tmp/ccROA9VN.s:330    .text:00000000000001b0 .L0 
     /tmp/ccROA9VN.s:331    .text:00000000000001b0 .L0 
     /tmp/ccROA9VN.s:335    .text:00000000000001c0 .L0 
     /tmp/ccROA9VN.s:338    .text:00000000000001c8 .L0 
     /tmp/ccROA9VN.s:339    .text:00000000000001c8 .L0 
     /tmp/ccROA9VN.s:341    .text:00000000000001cc .L0 
     /tmp/ccROA9VN.s:346    .text:00000000000001d4 .L0 
     /tmp/ccROA9VN.s:347    .text:00000000000001d4 .L0 
     /tmp/ccROA9VN.s:349    .text:00000000000001d8 .L0 
     /tmp/ccROA9VN.s:351    .text:00000000000001dc .L0 
     /tmp/ccROA9VN.s:353    .text:00000000000001e0 .L0 
     /tmp/ccROA9VN.s:354    .text:00000000000001e0 .L0 
     /tmp/ccROA9VN.s:362    .text:00000000000001f4 .L0 
     /tmp/ccROA9VN.s:363    .text:00000000000001f4 .L0 
     /tmp/ccROA9VN.s:364    .text:00000000000001f4 .L0 
     /tmp/ccROA9VN.s:370    .text:00000000000001fc .L0 
     /tmp/ccROA9VN.s:371    .text:00000000000001fc .L0 
     /tmp/ccROA9VN.s:375    .text:0000000000000208 .L0 
     /tmp/ccROA9VN.s:376    .text:0000000000000208 .L0 
     /tmp/ccROA9VN.s:382    .text:0000000000000218 .L0 
     /tmp/ccROA9VN.s:386    .text:000000000000021c .L0 
     /tmp/ccROA9VN.s:387    .text:0000000000000220 .L0 
     /tmp/ccROA9VN.s:389    .text:0000000000000224 .L0 
     /tmp/ccROA9VN.s:390    .text:0000000000000224 .L0 
     /tmp/ccROA9VN.s:392    .text:0000000000000228 .L0 
     /tmp/ccROA9VN.s:394    .text:000000000000022c .L0 
     /tmp/ccROA9VN.s:396    .text:0000000000000230 .L0 
     /tmp/ccROA9VN.s:398    .text:0000000000000234 .L0 
     /tmp/ccROA9VN.s:403    .text:0000000000000234 _GLOBAL__sub_I__ZN9Scheduler5queueE
     /tmp/ccROA9VN.s:406    .text:0000000000000234 .L0 
     /tmp/ccROA9VN.s:407    .text:0000000000000234 .L0 
     /tmp/ccROA9VN.s:408    .text:0000000000000238 .L0 
     /tmp/ccROA9VN.s:411    .text:0000000000000240 .L0 
     /tmp/ccROA9VN.s:412    .text:0000000000000240 .L0 
     /tmp/ccROA9VN.s:414    .text:0000000000000244 .L0 
GAS LISTING /tmp/ccROA9VN.s 			page 15


     /tmp/ccROA9VN.s:416    .text:0000000000000244 .L0 
     /tmp/ccROA9VN.s:422    .text:000000000000025c .L0 
     /tmp/ccROA9VN.s:424    .text:0000000000000260 .L0 
     /tmp/ccROA9VN.s:425    .text:0000000000000260 .L0 
     /tmp/ccROA9VN.s:427    .text:0000000000000264 .L0 
     /tmp/ccROA9VN.s:429    .text:0000000000000268 .L0 
     /tmp/ccROA9VN.s:446    .bss:0000000000000018 _ZN9Scheduler8sleepingE
     /tmp/ccROA9VN.s:442    .bss:0000000000000000 _ZN9Scheduler5queueE
     /tmp/ccROA9VN.s:439    .bss:0000000000000000 .LANCHOR0
     /tmp/ccROA9VN.s:453    .text:0000000000000268 .L0 
     /tmp/ccROA9VN.s:99     .text:0000000000000068 .L0 
     /tmp/ccROA9VN.s:140    .text:00000000000000a0 .L0 
     /tmp/ccROA9VN.s:219    .text:0000000000000100 .L0 
     /tmp/ccROA9VN.s:255    .text:0000000000000138 .L0 
     /tmp/ccROA9VN.s:291    .text:000000000000016c .L0 
     /tmp/ccROA9VN.s:294    .text:0000000000000178 .L0 
     /tmp/ccROA9VN.s:331    .text:00000000000001b0 .L0 
     /tmp/ccROA9VN.s:354    .text:00000000000001e0 .L0 
     /tmp/ccROA9VN.s:50     .text:0000000000000030 .L2
     /tmp/ccROA9VN.s:37     .text:0000000000000020 .L3
     /tmp/ccROA9VN.s:87     .text:000000000000005c .L8
     /tmp/ccROA9VN.s:79     .text:0000000000000050 .L5
     /tmp/ccROA9VN.s:384    .text:000000000000021c .L21
     /tmp/ccROA9VN.s:344    .text:00000000000001d4 .L23
     /tmp/ccROA9VN.s:1836   .debug_abbrev:0000000000000000 .Ldebug_abbrev0
     /tmp/ccROA9VN.s:3202   .debug_str:00000000000003de .LASF146
     /tmp/ccROA9VN.s:3338   .debug_str:0000000000000908 .LASF147
     /tmp/ccROA9VN.s:3282   .debug_str:0000000000000747 .LASF148
     /tmp/ccROA9VN.s:8      .text:0000000000000000 .Ltext0
     /tmp/ccROA9VN.s:449    .text:0000000000000268 .Letext0
     /tmp/ccROA9VN.s:3074   .debug_line:0000000000000000 .Ldebug_line0
     /tmp/ccROA9VN.s:3190   .debug_str:0000000000000398 .LASF0
     /tmp/ccROA9VN.s:3210   .debug_str:00000000000004dd .LASF1
     /tmp/ccROA9VN.s:3290   .debug_str:00000000000007a3 .LASF2
     /tmp/ccROA9VN.s:3300   .debug_str:00000000000007e1 .LASF4
     /tmp/ccROA9VN.s:3196   .debug_str:00000000000003b9 .LASF3
     /tmp/ccROA9VN.s:3090   .debug_str:000000000000008d .LASF5
     /tmp/ccROA9VN.s:3274   .debug_str:00000000000006f3 .LASF6
     /tmp/ccROA9VN.s:3264   .debug_str:00000000000006b3 .LASF7
     /tmp/ccROA9VN.s:3204   .debug_str:00000000000004a2 .LASF8
     /tmp/ccROA9VN.s:3164   .debug_str:00000000000002c7 .LASF9
     /tmp/ccROA9VN.s:3170   .debug_str:00000000000002ef .LASF10
     /tmp/ccROA9VN.s:3120   .debug_str:0000000000000179 .LASF11
     /tmp/ccROA9VN.s:3156   .debug_str:0000000000000290 .LASF12
     /tmp/ccROA9VN.s:3130   .debug_str:00000000000001b5 .LASF13
     /tmp/ccROA9VN.s:3118   .debug_str:0000000000000169 .LASF14
     /tmp/ccROA9VN.s:3328   .debug_str:00000000000008a8 .LASF15
     /tmp/ccROA9VN.s:3148   .debug_str:0000000000000245 .LASF16
     /tmp/ccROA9VN.s:3316   .debug_str:0000000000000842 .LASF17
     /tmp/ccROA9VN.s:3228   .debug_str:00000000000005a8 .LASF18
     /tmp/ccROA9VN.s:3360   .debug_str:000000000000099a .LASF32
     /tmp/ccROA9VN.s:3322   .debug_str:000000000000087b .LASF19
     /tmp/ccROA9VN.s:3246   .debug_str:0000000000000644 .LASF20
     /tmp/ccROA9VN.s:3354   .debug_str:0000000000000986 .LASF21
     /tmp/ccROA9VN.s:3364   .debug_str:00000000000009aa .LASF26
     /tmp/ccROA9VN.s:3220   .debug_str:000000000000054f .LASF28
     /tmp/ccROA9VN.s:3386   .debug_str:0000000000000a6c .LASF22
GAS LISTING /tmp/ccROA9VN.s 			page 16


     /tmp/ccROA9VN.s:3240   .debug_str:00000000000005fd .LASF24
     /tmp/ccROA9VN.s:3108   .debug_str:0000000000000115 .LASF23
     /tmp/ccROA9VN.s:3230   .debug_str:00000000000005ad .LASF25
     /tmp/ccROA9VN.s:3084   .debug_str:0000000000000049 .LASF27
     /tmp/ccROA9VN.s:3238   .debug_str:00000000000005eb .LASF29
     /tmp/ccROA9VN.s:3314   .debug_str:000000000000082f .LASF30
     /tmp/ccROA9VN.s:3266   .debug_str:00000000000006c6 .LASF31
     /tmp/ccROA9VN.s:3186   .debug_str:000000000000036f .LASF33
     /tmp/ccROA9VN.s:3292   .debug_str:00000000000007b1 .LASF34
     /tmp/ccROA9VN.s:3324   .debug_str:0000000000000880 .LASF36
     /tmp/ccROA9VN.s:3184   .debug_str:0000000000000368 .LASF35
     /tmp/ccROA9VN.s:3214   .debug_str:000000000000050f .LASF37
     /tmp/ccROA9VN.s:3082   .debug_str:0000000000000042 .LASF38
     /tmp/ccROA9VN.s:3280   .debug_str:0000000000000731 .LASF39
     /tmp/ccROA9VN.s:3298   .debug_str:00000000000007ce .LASF149
     /tmp/ccROA9VN.s:3194   .debug_str:00000000000003b1 .LASF40
     /tmp/ccROA9VN.s:3376   .debug_str:0000000000000a27 .LASF41
     /tmp/ccROA9VN.s:3144   .debug_str:0000000000000224 .LASF42
     /tmp/ccROA9VN.s:3180   .debug_str:0000000000000335 .LASF43
     /tmp/ccROA9VN.s:3176   .debug_str:000000000000031b .LASF44
     /tmp/ccROA9VN.s:3332   .debug_str:00000000000008ca .LASF45
     /tmp/ccROA9VN.s:3128   .debug_str:00000000000001a9 .LASF46
     /tmp/ccROA9VN.s:3078   .debug_str:000000000000001a .LASF47
     /tmp/ccROA9VN.s:3362   .debug_str:00000000000009a3 .LASF48
     /tmp/ccROA9VN.s:3146   .debug_str:000000000000022f .LASF49
     /tmp/ccROA9VN.s:3348   .debug_str:0000000000000963 .LASF150
     /tmp/ccROA9VN.s:3080   .debug_str:000000000000003a .LASF50
     /tmp/ccROA9VN.s:3116   .debug_str:0000000000000163 .LASF51
     /tmp/ccROA9VN.s:3104   .debug_str:00000000000000fe .LASF52
     /tmp/ccROA9VN.s:3124   .debug_str:000000000000018d .LASF53
     /tmp/ccROA9VN.s:3334   .debug_str:00000000000008f5 .LASF151
     /tmp/ccROA9VN.s:3168   .debug_str:00000000000002e3 .LASF54
     /tmp/ccROA9VN.s:3160   .debug_str:00000000000002a4 .LASF55
     /tmp/ccROA9VN.s:3250   .debug_str:000000000000065a .LASF56
     /tmp/ccROA9VN.s:3178   .debug_str:0000000000000328 .LASF57
     /tmp/ccROA9VN.s:3302   .debug_str:00000000000007e8 .LASF58
     /tmp/ccROA9VN.s:3088   .debug_str:0000000000000081 .LASF59
     /tmp/ccROA9VN.s:3296   .debug_str:00000000000007c5 .LASF60
     /tmp/ccROA9VN.s:3134   .debug_str:00000000000001e3 .LASF61
     /tmp/ccROA9VN.s:3308   .debug_str:000000000000080c .LASF62
     /tmp/ccROA9VN.s:3312   .debug_str:000000000000081b .LASF63
     /tmp/ccROA9VN.s:3232   .debug_str:00000000000005be .LASF64
     /tmp/ccROA9VN.s:3154   .debug_str:000000000000027f .LASF65
     /tmp/ccROA9VN.s:3336   .debug_str:00000000000008fd .LASF66
     /tmp/ccROA9VN.s:3330   .debug_str:00000000000008b4 .LASF67
     /tmp/ccROA9VN.s:3216   .debug_str:0000000000000529 .LASF68
     /tmp/ccROA9VN.s:3368   .debug_str:00000000000009ba .LASF69
     /tmp/ccROA9VN.s:3166   .debug_str:00000000000002d7 .LASF70
     /tmp/ccROA9VN.s:3162   .debug_str:00000000000002b0 .LASF71
     /tmp/ccROA9VN.s:3262   .debug_str:00000000000006a5 .LASF72
     /tmp/ccROA9VN.s:3388   .debug_str:0000000000000a79 .LASF73
     /tmp/ccROA9VN.s:3350   .debug_str:000000000000096c .LASF74
     /tmp/ccROA9VN.s:3370   .debug_str:00000000000009d3 .LASF75
     /tmp/ccROA9VN.s:3174   .debug_str:000000000000030c .LASF76
     /tmp/ccROA9VN.s:3076   .debug_str:0000000000000000 .LASF77
     /tmp/ccROA9VN.s:3326   .debug_str:000000000000089b .LASF78
     /tmp/ccROA9VN.s:3372   .debug_str:00000000000009ee .LASF79
GAS LISTING /tmp/ccROA9VN.s 			page 17


     /tmp/ccROA9VN.s:3256   .debug_str:000000000000068c .LASF152
     /tmp/ccROA9VN.s:3110   .debug_str:0000000000000125 .LASF80
     /tmp/ccROA9VN.s:3284   .debug_str:000000000000076a .LASF82
     /tmp/ccROA9VN.s:3140   .debug_str:0000000000000215 .LASF81
     /tmp/ccROA9VN.s:3126   .debug_str:0000000000000196 .LASF83
     /tmp/ccROA9VN.s:3208   .debug_str:00000000000004d0 .LASF84
     /tmp/ccROA9VN.s:3236   .debug_str:00000000000005d1 .LASF85
     /tmp/ccROA9VN.s:3096   .debug_str:00000000000000a7 .LASF86
     /tmp/ccROA9VN.s:3344   .debug_str:000000000000094b .LASF87
     /tmp/ccROA9VN.s:3374   .debug_str:0000000000000a10 .LASF88
     /tmp/ccROA9VN.s:3244   .debug_str:0000000000000622 .LASF90
     /tmp/ccROA9VN.s:3366   .debug_str:00000000000009b0 .LASF89
     /tmp/ccROA9VN.s:3114   .debug_str:000000000000014f .LASF91
     /tmp/ccROA9VN.s:3286   .debug_str:000000000000077a .LASF92
     /tmp/ccROA9VN.s:3342   .debug_str:000000000000092f .LASF93
     /tmp/ccROA9VN.s:3304   .debug_str:00000000000007ed .LASF94
     /tmp/ccROA9VN.s:3288   .debug_str:000000000000078a .LASF95
     /tmp/ccROA9VN.s:3306   .debug_str:00000000000007fb .LASF96
     /tmp/ccROA9VN.s:3346   .debug_str:000000000000095b .LASF97
     /tmp/ccROA9VN.s:3122   .debug_str:0000000000000188 .LASF98
     /tmp/ccROA9VN.s:3254   .debug_str:0000000000000681 .LASF99
     /tmp/ccROA9VN.s:3224   .debug_str:0000000000000582 .LASF100
     /tmp/ccROA9VN.s:3258   .debug_str:0000000000000691 .LASF101
     /tmp/ccROA9VN.s:3092   .debug_str:0000000000000094 .LASF102
     /tmp/ccROA9VN.s:3138   .debug_str:0000000000000210 .LASF103
     /tmp/ccROA9VN.s:3382   .debug_str:0000000000000a5c .LASF104
     /tmp/ccROA9VN.s:3310   .debug_str:0000000000000815 .LASF105
     /tmp/ccROA9VN.s:3352   .debug_str:000000000000097c .LASF106
     /tmp/ccROA9VN.s:3142   .debug_str:000000000000021e .LASF107
     /tmp/ccROA9VN.s:3234   .debug_str:00000000000005c5 .LASF108
     /tmp/ccROA9VN.s:3198   .debug_str:00000000000003cb .LASF109
     /tmp/ccROA9VN.s:3260   .debug_str:000000000000069e .LASF110
     /tmp/ccROA9VN.s:3358   .debug_str:0000000000000992 .LASF111
     /tmp/ccROA9VN.s:3320   .debug_str:0000000000000864 .LASF118
     /tmp/ccROA9VN.s:3106   .debug_str:0000000000000107 .LASF112
     /tmp/ccROA9VN.s:3218   .debug_str:0000000000000536 .LASF114
     /tmp/ccROA9VN.s:3136   .debug_str:0000000000000202 .LASF153
     /tmp/ccROA9VN.s:3086   .debug_str:0000000000000059 .LASF154
     /tmp/ccROA9VN.s:3098   .debug_str:00000000000000ad .LASF113
     /tmp/ccROA9VN.s:3242   .debug_str:000000000000060e .LASF115
     /tmp/ccROA9VN.s:3200   .debug_str:00000000000003d4 .LASF116
     /tmp/ccROA9VN.s:3252   .debug_str:0000000000000667 .LASF117
     /tmp/ccROA9VN.s:3380   .debug_str:0000000000000a48 .LASF155
     /tmp/ccROA9VN.s:3182   .debug_str:0000000000000350 .LASF119
     /tmp/ccROA9VN.s:3094   .debug_str:000000000000009e .LASF120
     /tmp/ccROA9VN.s:3226   .debug_str:000000000000058f .LASF121
     /tmp/ccROA9VN.s:3318   .debug_str:0000000000000858 .LASF122
     /tmp/ccROA9VN.s:3276   .debug_str:00000000000006fa .LASF123
     /tmp/ccROA9VN.s:3270   .debug_str:00000000000006dd .LASF124
     /tmp/ccROA9VN.s:3132   .debug_str:00000000000001c5 .LASF125
     /tmp/ccROA9VN.s:3378   .debug_str:0000000000000a3e .LASF126
     /tmp/ccROA9VN.s:3150   .debug_str:000000000000025b .LASF127
     /tmp/ccROA9VN.s:3192   .debug_str:00000000000003a5 .LASF128
     /tmp/ccROA9VN.s:3100   .debug_str:00000000000000b7 .LASF129
     /tmp/ccROA9VN.s:3340   .debug_str:0000000000000921 .LASF130
     /tmp/ccROA9VN.s:3212   .debug_str:00000000000004f0 .LASF131
     /tmp/ccROA9VN.s:3294   .debug_str:00000000000007b8 .LASF132
GAS LISTING /tmp/ccROA9VN.s 			page 18


     /tmp/ccROA9VN.s:3222   .debug_str:0000000000000564 .LASF133
     /tmp/ccROA9VN.s:3206   .debug_str:00000000000004b5 .LASF134
     /tmp/ccROA9VN.s:3152   .debug_str:0000000000000279 .LASF135
     /tmp/ccROA9VN.s:3272   .debug_str:00000000000006ea .LASF136
     /tmp/ccROA9VN.s:3278   .debug_str:000000000000071c .LASF137
     /tmp/ccROA9VN.s:3188   .debug_str:0000000000000380 .LASF138
     /tmp/ccROA9VN.s:3112   .debug_str:000000000000012b .LASF139
     /tmp/ccROA9VN.s:404    .text:0000000000000234 .LFB39
     /tmp/ccROA9VN.s:430    .text:0000000000000268 .LFE39
     /tmp/ccROA9VN.s:420    .text:0000000000000258 .LVL28
     /tmp/ccROA9VN.s:3102   .debug_str:00000000000000d4 .LASF140
     /tmp/ccROA9VN.s:66     .text:000000000000003c .LFB38
     /tmp/ccROA9VN.s:119    .text:000000000000008c .LFE38
     /tmp/ccROA9VN.s:3172   .debug_str:00000000000002fd .LASF141
     /tmp/ccROA9VN.s:3384   .debug_str:0000000000000a61 .LASF142
     /tmp/ccROA9VN.s:94     .text:0000000000000068 .LBB10
     /tmp/ccROA9VN.s:106    .text:000000000000007c .LBE10
     /tmp/ccROA9VN.s:2916   .debug_loc:0000000000000000 .LLST2
     /tmp/ccROA9VN.s:107    .text:000000000000007c .LBB13
     /tmp/ccROA9VN.s:115    .text:0000000000000088 .LBE13
     /tmp/ccROA9VN.s:314    .text:0000000000000198 .LFB37
     /tmp/ccROA9VN.s:399    .text:0000000000000234 .LFE37
     /tmp/ccROA9VN.s:2925   .debug_loc:000000000000002c .LLST6
     /tmp/ccROA9VN.s:359    .text:00000000000001f4 .LBB16
     /tmp/ccROA9VN.s:368    .text:00000000000001fc .LBE16
     /tmp/ccROA9VN.s:2936   .debug_loc:0000000000000062 .LLST7
     /tmp/ccROA9VN.s:2944   .debug_loc:0000000000000086 .LLST8
     /tmp/ccROA9VN.s:333    .text:00000000000001c0 .LVL20
     /tmp/ccROA9VN.s:357    .text:00000000000001f4 .LVL22
     /tmp/ccROA9VN.s:373    .text:0000000000000208 .LVL24
     /tmp/ccROA9VN.s:378    .text:0000000000000214 .LVL25
     /tmp/ccROA9VN.s:274    .text:0000000000000158 .LFB36
     /tmp/ccROA9VN.s:308    .text:0000000000000198 .LFE36
     /tmp/ccROA9VN.s:2951   .debug_loc:00000000000000a9 .LLST4
     /tmp/ccROA9VN.s:3268   .debug_str:00000000000006d8 .LASF143
     /tmp/ccROA9VN.s:2969   .debug_loc:00000000000000f5 .LLST5
     /tmp/ccROA9VN.s:297    .text:0000000000000188 .LVL19
     /tmp/ccROA9VN.s:13     .text:0000000000000000 .LFB35
     /tmp/ccROA9VN.s:61     .text:000000000000003c .LFE35
     /tmp/ccROA9VN.s:2993   .debug_loc:0000000000000156 .LLST0
     /tmp/ccROA9VN.s:3356   .debug_str:000000000000098d .LASF144
     /tmp/ccROA9VN.s:3011   .debug_loc:00000000000001a2 .LLST1
     /tmp/ccROA9VN.s:206    .text:00000000000000f0 .LFB34
     /tmp/ccROA9VN.s:232    .text:0000000000000120 .LFE34
     /tmp/ccROA9VN.s:221    .text:0000000000000110 .LVL13
     /tmp/ccROA9VN.s:183    .text:00000000000000d8 .LFB33
     /tmp/ccROA9VN.s:200    .text:00000000000000f0 .LFE33
     /tmp/ccROA9VN.s:160    .text:00000000000000c0 .LFB32
     /tmp/ccROA9VN.s:177    .text:00000000000000d8 .LFE32
     /tmp/ccROA9VN.s:125    .text:000000000000008c .LFB31
     /tmp/ccROA9VN.s:154    .text:00000000000000c0 .LFE31
     /tmp/ccROA9VN.s:3043   .debug_loc:00000000000001fc .LLST3
     /tmp/ccROA9VN.s:143    .text:00000000000000b0 .LVL12
     /tmp/ccROA9VN.s:238    .text:0000000000000120 .LFB30
     /tmp/ccROA9VN.s:268    .text:0000000000000158 .LFE30
     /tmp/ccROA9VN.s:252    .text:0000000000000138 .LVL14
     /tmp/ccROA9VN.s:257    .text:0000000000000148 .LVL15
GAS LISTING /tmp/ccROA9VN.s 			page 19


     /tmp/ccROA9VN.s:3158   .debug_str:000000000000029f .LASF145
     /tmp/ccROA9VN.s:3248   .debug_str:0000000000000649 .LASF156
     /tmp/ccROA9VN.s:93     .text:0000000000000068 .LVL8
     /tmp/ccROA9VN.s:103    .text:000000000000007c .LVL9
     /tmp/ccROA9VN.s:343    .text:00000000000001d4 .LVL21
     /tmp/ccROA9VN.s:383    .text:000000000000021c .LVL27
     /tmp/ccROA9VN.s:366    .text:00000000000001fc .LVL23
     /tmp/ccROA9VN.s:277    .text:0000000000000158 .LVL16
     /tmp/ccROA9VN.s:295    .text:0000000000000180 .LVL18
     /tmp/ccROA9VN.s:293    .text:0000000000000178 .LVL17
     /tmp/ccROA9VN.s:17     .text:0000000000000000 .LVL0
     /tmp/ccROA9VN.s:41     .text:0000000000000024 .LVL3
     /tmp/ccROA9VN.s:49     .text:0000000000000030 .LVL4
     /tmp/ccROA9VN.s:30     .text:0000000000000018 .LVL1
     /tmp/ccROA9VN.s:36     .text:0000000000000020 .LVL2
     /tmp/ccROA9VN.s:55     .text:0000000000000034 .LVL5
     /tmp/ccROA9VN.s:58     .text:0000000000000038 .LVL6
     /tmp/ccROA9VN.s:128    .text:000000000000008c .LVL10
     /tmp/ccROA9VN.s:141    .text:00000000000000a8 .LVL11
     /tmp/ccROA9VN.s:454    .debug_info:0000000000000000 .Ldebug_info0

UNDEFINED SYMBOLS
_ZN8TcbQueue6insertEP3TCB
_ZN8TcbQueue10printQueueEv
_ZN8TcbQueue6removeEv
_ZN8TcbQueue12insertSortedEP3TCBPFiS1_S1_E
_ZN8TcbQueue3topEv
