GAS LISTING /tmp/ccROA9VN.s 			page 1


   1              		.file	"scheduler.cpp"
   2              		.option nopic
   3              		.option norelax
   4              		.attribute arch, "rv64i2p0_m2p0_a2p0"
   5              		.attribute unaligned_access, 0
   6              		.attribute stack_align, 16
   7              		.text
   8              	.Ltext0:
   9              		.align	2
  10              		.globl	_ZN9Scheduler3cmpEP3TCBS1_
  12              	_ZN9Scheduler3cmpEP3TCBS1_:
  13              	.LFB35:
  14              		.file 1 "src/kernel/scheduler.cpp"
   1:src/kernel/scheduler.cpp **** #include"../../h/ptr_queue.hpp"
   2:src/kernel/scheduler.cpp **** #include"../../h/tcb.hpp"
   3:src/kernel/scheduler.cpp **** #include"../../h/scheduler.hpp"
   4:src/kernel/scheduler.cpp **** 
   5:src/kernel/scheduler.cpp **** TcbQueue Scheduler::queue;
   6:src/kernel/scheduler.cpp **** TcbQueue Scheduler::sleeping;
   7:src/kernel/scheduler.cpp **** 
   8:src/kernel/scheduler.cpp **** 
   9:src/kernel/scheduler.cpp **** TCB* Scheduler::get() { 
  10:src/kernel/scheduler.cpp ****     print_queue();
  11:src/kernel/scheduler.cpp ****     return queue.remove(); }
  12:src/kernel/scheduler.cpp **** 
  13:src/kernel/scheduler.cpp **** void Scheduler::put(TCB* ptr) { queue.insert(ptr); }
  14:src/kernel/scheduler.cpp **** 
  15:src/kernel/scheduler.cpp **** void Scheduler::initalize(){}
  16:src/kernel/scheduler.cpp **** 
  17:src/kernel/scheduler.cpp **** void Scheduler::finalize(){}
  18:src/kernel/scheduler.cpp **** 
  19:src/kernel/scheduler.cpp **** void Scheduler::print_queue() { queue.printQueue(); }
  20:src/kernel/scheduler.cpp **** 
  21:src/kernel/scheduler.cpp **** int Scheduler::cmp(TCB* x1, TCB* x2)
  22:src/kernel/scheduler.cpp **** {
  15              		.loc 1 22 1
  16              		.cfi_startproc
  17              	.LVL0:
  18 0000 130101FF 		addi	sp,sp,-16
  19              		.cfi_def_cfa_offset 16
  20 0004 23348100 		sd	s0,8(sp)
  21              		.cfi_offset 8, -8
  22 0008 13040101 		addi	s0,sp,16
  23              		.cfi_def_cfa 8, 0
  23:src/kernel/scheduler.cpp ****     int diff = (int)x1->sleep_time-(int)x2->sleep_time;
  24              		.loc 1 23 5
  25              		.loc 1 23 35 is_stmt 0
  26 000c 83268500 		lw	a3,8(a0)
  27 0010 03A78500 		lw	a4,8(a1)
  28              		.loc 1 23 9
  29 0014 BB87E640 		subw	a5,a3,a4
  30              	.LVL1:
  24:src/kernel/scheduler.cpp ****     if(diff>=0)
  31              		.loc 1 24 5 is_stmt 1
  32 0018 63CC0700 		blt	a5,zero,.L2
  25:src/kernel/scheduler.cpp ****         x1->sleep_time = diff;
  33              		.loc 1 25 9
GAS LISTING /tmp/ccROA9VN.s 			page 2


  34              		.loc 1 25 24 is_stmt 0
  35 001c 2334F500 		sd	a5,8(a0)
  36              	.LVL2:
  37              	.L3:
  26:src/kernel/scheduler.cpp ****     else
  27:src/kernel/scheduler.cpp ****         x2->sleep_time = -diff;
  28:src/kernel/scheduler.cpp ****     return diff;
  38              		.loc 1 28 5 is_stmt 1
  29:src/kernel/scheduler.cpp **** }
  39              		.loc 1 29 1 is_stmt 0
  40 0020 13850700 		mv	a0,a5
  41              	.LVL3:
  42 0024 03348100 		ld	s0,8(sp)
  43              		.cfi_remember_state
  44              		.cfi_restore 8
  45              		.cfi_def_cfa 2, 16
  46 0028 13010101 		addi	sp,sp,16
  47              		.cfi_def_cfa_offset 0
  48 002c 67800000 		jr	ra
  49              	.LVL4:
  50              	.L2:
  51              		.cfi_restore_state
  27:src/kernel/scheduler.cpp ****     return diff;
  52              		.loc 1 27 9 is_stmt 1
  27:src/kernel/scheduler.cpp ****     return diff;
  53              		.loc 1 27 26 is_stmt 0
  54 0030 3B07D740 		subw	a4,a4,a3
  55              	.LVL5:
  27:src/kernel/scheduler.cpp ****     return diff;
  56              		.loc 1 27 24
  57 0034 23B4E500 		sd	a4,8(a1)
  58              	.LVL6:
  59 0038 6FF09FFE 		j	.L3
  60              		.cfi_endproc
  61              	.LFE35:
  63              		.align	2
  65              	_Z41__static_initialization_and_destruction_0ii:
  66              	.LFB38:
  30:src/kernel/scheduler.cpp **** 
  31:src/kernel/scheduler.cpp **** void Scheduler::put_sleeper(TCB* t, time_t time)
  32:src/kernel/scheduler.cpp **** {
  33:src/kernel/scheduler.cpp ****     t->sleep_time = time;
  34:src/kernel/scheduler.cpp ****     sleeping.insertSorted(t, cmp);  
  35:src/kernel/scheduler.cpp **** }
  36:src/kernel/scheduler.cpp **** 
  37:src/kernel/scheduler.cpp **** void Scheduler::update_sleep()
  38:src/kernel/scheduler.cpp **** {
  39:src/kernel/scheduler.cpp ****     TCB* t = sleeping.top();
  40:src/kernel/scheduler.cpp ****     if(t == nullptr) return;
  41:src/kernel/scheduler.cpp ****     t->sleep_time--;
  42:src/kernel/scheduler.cpp ****     while(t && t->sleep_time == 0){
  43:src/kernel/scheduler.cpp ****         sleeping.remove();
  44:src/kernel/scheduler.cpp ****         
  45:src/kernel/scheduler.cpp ****         t->setState(TCB::READY);
  46:src/kernel/scheduler.cpp ****         put(t);
  47:src/kernel/scheduler.cpp ****         
  48:src/kernel/scheduler.cpp ****         t = sleeping.top();
GAS LISTING /tmp/ccROA9VN.s 			page 3


  49:src/kernel/scheduler.cpp ****     }
  50:src/kernel/scheduler.cpp **** }...
  67              		.loc 1 50 1 is_stmt 1
  68              		.cfi_startproc
  69              	.LVL7:
  70 003c 130101FF 		addi	sp,sp,-16
  71              		.cfi_def_cfa_offset 16
  72 0040 23348100 		sd	s0,8(sp)
  73              		.cfi_offset 8, -8
  74 0044 13040101 		addi	s0,sp,16
  75              		.cfi_def_cfa 8, 0
  76              		.loc 1 50 1 is_stmt 0
  77 0048 93071000 		li	a5,1
  78 004c 6308F500 		beq	a0,a5,.L8
  79              	.L5:
  80 0050 03348100 		ld	s0,8(sp)
  81              		.cfi_remember_state
  82              		.cfi_restore 8
  83              		.cfi_def_cfa 2, 16
  84 0054 13010101 		addi	sp,sp,16
  85              		.cfi_def_cfa_offset 0
  86 0058 67800000 		jr	ra
  87              	.L8:
  88              		.cfi_restore_state
  89              		.loc 1 50 1 discriminator 1
  90 005c B7070100 		li	a5,65536
  91 0060 9387F7FF 		addi	a5,a5,-1
  92 0064 E396F5FE 		bne	a1,a5,.L5
  93              	.LVL8:
  94              	.LBB10:
  95              	.LBB11:
  96              	.LBB12:
  97              		.file 2 "src/kernel/../../h/ptr_queue.hpp"
   1:src/kernel/../../h/ptr_queue.hpp **** #ifndef _queue_h
   2:src/kernel/../../h/ptr_queue.hpp **** #define _queue_h
   3:src/kernel/../../h/ptr_queue.hpp **** 
   4:src/kernel/../../h/ptr_queue.hpp **** //#include"../h/tcb.hpp"
   5:src/kernel/../../h/ptr_queue.hpp **** //#include"../h/testing.hpp"
   6:src/kernel/../../h/ptr_queue.hpp **** #include"../lib/hw.h"
   7:src/kernel/../../h/ptr_queue.hpp **** #include"../h/memory_allocator.hpp"
   8:src/kernel/../../h/ptr_queue.hpp **** 
   9:src/kernel/../../h/ptr_queue.hpp **** class TCB;
  10:src/kernel/../../h/ptr_queue.hpp **** 
  11:src/kernel/../../h/ptr_queue.hpp **** class TcbQueue{
  12:src/kernel/../../h/ptr_queue.hpp ****        
  13:src/kernel/../../h/ptr_queue.hpp ****     TCB *head, *tail;
  14:src/kernel/../../h/ptr_queue.hpp ****     int tmpNum;
  15:src/kernel/../../h/ptr_queue.hpp ****     void brisi(){
  16:src/kernel/../../h/ptr_queue.hpp ****         while(!isEmpty())
  17:src/kernel/../../h/ptr_queue.hpp ****             remove();
  18:src/kernel/../../h/ptr_queue.hpp ****     }
  19:src/kernel/../../h/ptr_queue.hpp **** 
  20:src/kernel/../../h/ptr_queue.hpp **** public:
  21:src/kernel/../../h/ptr_queue.hpp ****     #include"../h/kernel_operators.hpp"
  22:src/kernel/../../h/ptr_queue.hpp ****     TcbQueue():head(nullptr), tail(nullptr), tmpNum(0){}
  98              		.loc 2 22 54
  99 0068 97070000 		lla	a5,.LANCHOR0
GAS LISTING /tmp/ccROA9VN.s 			page 4


  99      93870700 
 100 0070 23B00700 		sd	zero,0(a5)
 101 0074 23B40700 		sd	zero,8(a5)
 102 0078 23A80700 		sw	zero,16(a5)
 103              	.LVL9:
 104              	.LBE12:
 105              	.LBE11:
 106              	.LBE10:
 107              	.LBB13:
 108              	.LBB14:
 109              	.LBB15:
 110 007c 23BC0700 		sd	zero,24(a5)
 111 0080 23B00702 		sd	zero,32(a5)
 112 0084 23A40702 		sw	zero,40(a5)
 113              	.LBE15:
 114              	.LBE14:
 115              	.LBE13:
 116              		.loc 1 50 1
 117 0088 6FF09FFC 		j	.L5
 118              		.cfi_endproc
 119              	.LFE38:
 121              		.align	2
 122              		.globl	_ZN9Scheduler3putEP3TCB
 124              	_ZN9Scheduler3putEP3TCB:
 125              	.LFB31:
  13:src/kernel/scheduler.cpp **** void Scheduler::put(TCB* ptr) { queue.insert(ptr); }
 126              		.loc 1 13 31 is_stmt 1
 127              		.cfi_startproc
 128              	.LVL10:
 129 008c 130101FF 		addi	sp,sp,-16
 130              		.cfi_def_cfa_offset 16
 131 0090 23341100 		sd	ra,8(sp)
 132 0094 23308100 		sd	s0,0(sp)
 133              		.cfi_offset 1, -8
 134              		.cfi_offset 8, -16
 135 0098 13040101 		addi	s0,sp,16
 136              		.cfi_def_cfa 8, 0
  13:src/kernel/scheduler.cpp **** void Scheduler::put(TCB* ptr) { queue.insert(ptr); }
 137              		.loc 1 13 33
  13:src/kernel/scheduler.cpp **** void Scheduler::put(TCB* ptr) { queue.insert(ptr); }
 138              		.loc 1 13 49 is_stmt 0
 139 009c 93050500 		mv	a1,a0
 140 00a0 17050000 		lla	a0,.LANCHOR0
 140      13050500 
 141              	.LVL11:
 142 00a8 97000000 		call	_ZN8TcbQueue6insertEP3TCB
 142      E7800000 
 143              	.LVL12:
  13:src/kernel/scheduler.cpp **** void Scheduler::put(TCB* ptr) { queue.insert(ptr); }
 144              		.loc 1 13 52
 145 00b0 83308100 		ld	ra,8(sp)
 146              		.cfi_restore 1
 147 00b4 03340100 		ld	s0,0(sp)
 148              		.cfi_restore 8
 149              		.cfi_def_cfa 2, 16
 150 00b8 13010101 		addi	sp,sp,16
 151              		.cfi_def_cfa_offset 0
GAS LISTING /tmp/ccROA9VN.s 			page 5


 152 00bc 67800000 		jr	ra
 153              		.cfi_endproc
 154              	.LFE31:
 156              		.align	2
 157              		.globl	_ZN9Scheduler9initalizeEv
 159              	_ZN9Scheduler9initalizeEv:
 160              	.LFB32:
  15:src/kernel/scheduler.cpp **** void Scheduler::initalize(){}
 161              		.loc 1 15 28 is_stmt 1
 162              		.cfi_startproc
 163 00c0 130101FF 		addi	sp,sp,-16
 164              		.cfi_def_cfa_offset 16
 165 00c4 23348100 		sd	s0,8(sp)
 166              		.cfi_offset 8, -8
 167 00c8 13040101 		addi	s0,sp,16
 168              		.cfi_def_cfa 8, 0
  15:src/kernel/scheduler.cpp **** void Scheduler::initalize(){}
 169              		.loc 1 15 29 is_stmt 0
 170 00cc 03348100 		ld	s0,8(sp)
 171              		.cfi_restore 8
 172              		.cfi_def_cfa 2, 16
 173 00d0 13010101 		addi	sp,sp,16
 174              		.cfi_def_cfa_offset 0
 175 00d4 67800000 		jr	ra
 176              		.cfi_endproc
 177              	.LFE32:
 179              		.align	2
 180              		.globl	_ZN9Scheduler8finalizeEv
 182              	_ZN9Scheduler8finalizeEv:
 183              	.LFB33:
  17:src/kernel/scheduler.cpp **** void Scheduler::finalize(){}
 184              		.loc 1 17 27 is_stmt 1
 185              		.cfi_startproc
 186 00d8 130101FF 		addi	sp,sp,-16
 187              		.cfi_def_cfa_offset 16
 188 00dc 23348100 		sd	s0,8(sp)
 189              		.cfi_offset 8, -8
 190 00e0 13040101 		addi	s0,sp,16
 191              		.cfi_def_cfa 8, 0
  17:src/kernel/scheduler.cpp **** void Scheduler::finalize(){}
 192              		.loc 1 17 28 is_stmt 0
 193 00e4 03348100 		ld	s0,8(sp)
 194              		.cfi_restore 8
 195              		.cfi_def_cfa 2, 16
 196 00e8 13010101 		addi	sp,sp,16
 197              		.cfi_def_cfa_offset 0
 198 00ec 67800000 		jr	ra
 199              		.cfi_endproc
 200              	.LFE33:
 202              		.align	2
 203              		.globl	_ZN9Scheduler11print_queueEv
 205              	_ZN9Scheduler11print_queueEv:
 206              	.LFB34:
  19:src/kernel/scheduler.cpp **** void Scheduler::print_queue() { queue.printQueue(); }
 207              		.loc 1 19 31 is_stmt 1
 208              		.cfi_startproc
 209 00f0 130101FF 		addi	sp,sp,-16
GAS LISTING /tmp/ccROA9VN.s 			page 6


 210              		.cfi_def_cfa_offset 16
 211 00f4 23341100 		sd	ra,8(sp)
 212 00f8 23308100 		sd	s0,0(sp)
 213              		.cfi_offset 1, -8
 214              		.cfi_offset 8, -16
 215 00fc 13040101 		addi	s0,sp,16
 216              		.cfi_def_cfa 8, 0
  19:src/kernel/scheduler.cpp **** void Scheduler::print_queue() { queue.printQueue(); }
 217              		.loc 1 19 33
  19:src/kernel/scheduler.cpp **** void Scheduler::print_queue() { queue.printQueue(); }
 218              		.loc 1 19 49 is_stmt 0
 219 0100 17050000 		lla	a0,.LANCHOR0
 219      13050500 
 220 0108 97000000 		call	_ZN8TcbQueue10printQueueEv
 220      E7800000 
 221              	.LVL13:
  19:src/kernel/scheduler.cpp **** void Scheduler::print_queue() { queue.printQueue(); }
 222              		.loc 1 19 53
 223 0110 83308100 		ld	ra,8(sp)
 224              		.cfi_restore 1
 225 0114 03340100 		ld	s0,0(sp)
 226              		.cfi_restore 8
 227              		.cfi_def_cfa 2, 16
 228 0118 13010101 		addi	sp,sp,16
 229              		.cfi_def_cfa_offset 0
 230 011c 67800000 		jr	ra
 231              		.cfi_endproc
 232              	.LFE34:
 234              		.align	2
 235              		.globl	_ZN9Scheduler3getEv
 237              	_ZN9Scheduler3getEv:
 238              	.LFB30:
   9:src/kernel/scheduler.cpp **** TCB* Scheduler::get() { 
 239              		.loc 1 9 23 is_stmt 1
 240              		.cfi_startproc
 241 0120 130101FF 		addi	sp,sp,-16
 242              		.cfi_def_cfa_offset 16
 243 0124 23341100 		sd	ra,8(sp)
 244 0128 23308100 		sd	s0,0(sp)
 245              		.cfi_offset 1, -8
 246              		.cfi_offset 8, -16
 247 012c 13040101 		addi	s0,sp,16
 248              		.cfi_def_cfa 8, 0
  10:src/kernel/scheduler.cpp ****     print_queue();
 249              		.loc 1 10 5
  10:src/kernel/scheduler.cpp ****     print_queue();
 250              		.loc 1 10 16 is_stmt 0
 251 0130 97000000 		call	_ZN9Scheduler11print_queueEv
 251      E7800000 
 252              	.LVL14:
  11:src/kernel/scheduler.cpp ****     return queue.remove(); }
 253              		.loc 1 11 5 is_stmt 1
  11:src/kernel/scheduler.cpp ****     return queue.remove(); }
 254              		.loc 1 11 24 is_stmt 0
 255 0138 17050000 		lla	a0,.LANCHOR0
 255      13050500 
 256 0140 97000000 		call	_ZN8TcbQueue6removeEv
GAS LISTING /tmp/ccROA9VN.s 			page 7


 256      E7800000 
 257              	.LVL15:
  11:src/kernel/scheduler.cpp ****     return queue.remove(); }
 258              		.loc 1 11 28
 259 0148 83308100 		ld	ra,8(sp)
 260              		.cfi_restore 1
 261 014c 03340100 		ld	s0,0(sp)
 262              		.cfi_restore 8
 263              		.cfi_def_cfa 2, 16
 264 0150 13010101 		addi	sp,sp,16
 265              		.cfi_def_cfa_offset 0
 266 0154 67800000 		jr	ra
 267              		.cfi_endproc
 268              	.LFE30:
 270              		.align	2
 271              		.globl	_ZN9Scheduler11put_sleeperEP3TCBm
 273              	_ZN9Scheduler11put_sleeperEP3TCBm:
 274              	.LFB36:
  32:src/kernel/scheduler.cpp **** {
 275              		.loc 1 32 1 is_stmt 1
 276              		.cfi_startproc
 277              	.LVL16:
 278 0158 130101FF 		addi	sp,sp,-16
 279              		.cfi_def_cfa_offset 16
 280 015c 23341100 		sd	ra,8(sp)
 281 0160 23308100 		sd	s0,0(sp)
 282              		.cfi_offset 1, -8
 283              		.cfi_offset 8, -16
 284 0164 13040101 		addi	s0,sp,16
 285              		.cfi_def_cfa 8, 0
  33:src/kernel/scheduler.cpp ****     t->sleep_time = time;
 286              		.loc 1 33 5
  33:src/kernel/scheduler.cpp ****     t->sleep_time = time;
 287              		.loc 1 33 19 is_stmt 0
 288 0168 2334B500 		sd	a1,8(a0)
  34:src/kernel/scheduler.cpp ****     sleeping.insertSorted(t, cmp);  
 289              		.loc 1 34 5 is_stmt 1
  34:src/kernel/scheduler.cpp ****     sleeping.insertSorted(t, cmp);  
 290              		.loc 1 34 26 is_stmt 0
 291 016c 17060000 		lla	a2,_ZN9Scheduler3cmpEP3TCBS1_
 291      13060600 
 292 0174 93050500 		mv	a1,a0
 293              	.LVL17:
 294 0178 17050000 		lla	a0,.LANCHOR0+24
 294      13050500 
 295              	.LVL18:
 296 0180 97000000 		call	_ZN8TcbQueue12insertSortedEP3TCBPFiS1_S1_E
 296      E7800000 
 297              	.LVL19:
  35:src/kernel/scheduler.cpp **** }
 298              		.loc 1 35 1
 299 0188 83308100 		ld	ra,8(sp)
 300              		.cfi_restore 1
 301 018c 03340100 		ld	s0,0(sp)
 302              		.cfi_restore 8
 303              		.cfi_def_cfa 2, 16
 304 0190 13010101 		addi	sp,sp,16
GAS LISTING /tmp/ccROA9VN.s 			page 8


 305              		.cfi_def_cfa_offset 0
 306 0194 67800000 		jr	ra
 307              		.cfi_endproc
 308              	.LFE36:
 310              		.align	2
 311              		.globl	_ZN9Scheduler12update_sleepEv
 313              	_ZN9Scheduler12update_sleepEv:
 314              	.LFB37:
  38:src/kernel/scheduler.cpp **** {
 315              		.loc 1 38 1 is_stmt 1
 316              		.cfi_startproc
 317 0198 130101FE 		addi	sp,sp,-32
 318              		.cfi_def_cfa_offset 32
 319 019c 233C1100 		sd	ra,24(sp)
 320 01a0 23388100 		sd	s0,16(sp)
 321 01a4 23349100 		sd	s1,8(sp)
 322 01a8 23302101 		sd	s2,0(sp)
 323              		.cfi_offset 1, -8
 324              		.cfi_offset 8, -16
 325              		.cfi_offset 9, -24
 326              		.cfi_offset 18, -32
 327 01ac 13040102 		addi	s0,sp,32
 328              		.cfi_def_cfa 8, 0
  39:src/kernel/scheduler.cpp ****     TCB* t = sleeping.top();
 329              		.loc 1 39 5
  39:src/kernel/scheduler.cpp ****     TCB* t = sleeping.top();
 330              		.loc 1 39 26 is_stmt 0
 331 01b0 17050000 		lla	a0,.LANCHOR0+24
 331      13050500 
 332 01b8 97000000 		call	_ZN8TcbQueue3topEv
 332      E7800000 
 333              	.LVL20:
  40:src/kernel/scheduler.cpp ****     if(t == nullptr) return;
 334              		.loc 1 40 5 is_stmt 1
 335 01c0 630E0504 		beq	a0,zero,.L21
 336 01c4 93040500 		mv	s1,a0
  41:src/kernel/scheduler.cpp ****     t->sleep_time--;
 337              		.loc 1 41 5
  41:src/kernel/scheduler.cpp ****     t->sleep_time--;
 338              		.loc 1 41 8 is_stmt 0
 339 01c8 83378500 		ld	a5,8(a0)
  41:src/kernel/scheduler.cpp ****     t->sleep_time--;
 340              		.loc 1 41 18
 341 01cc 9387F7FF 		addi	a5,a5,-1
 342 01d0 2334F500 		sd	a5,8(a0)
 343              	.LVL21:
 344              	.L23:
  42:src/kernel/scheduler.cpp ****     while(t && t->sleep_time == 0){
 345              		.loc 1 42 5 is_stmt 1
  42:src/kernel/scheduler.cpp ****     while(t && t->sleep_time == 0){
 346              		.loc 1 42 13 is_stmt 0
 347 01d4 63840404 		beq	s1,zero,.L21
  42:src/kernel/scheduler.cpp ****     while(t && t->sleep_time == 0){
 348              		.loc 1 42 19 discriminator 1
 349 01d8 83B78400 		ld	a5,8(s1)
  42:src/kernel/scheduler.cpp ****     while(t && t->sleep_time == 0){
 350              		.loc 1 42 13 discriminator 1
GAS LISTING /tmp/ccROA9VN.s 			page 9


 351 01dc 63900704 		bne	a5,zero,.L21
  43:src/kernel/scheduler.cpp ****         sleeping.remove();
 352              		.loc 1 43 9 is_stmt 1
  43:src/kernel/scheduler.cpp ****         sleeping.remove();
 353              		.loc 1 43 24 is_stmt 0
 354 01e0 17090000 		lla	s2,.LANCHOR0+24
 354      13090900 
 355 01e8 13050900 		mv	a0,s2
 356 01ec 97000000 		call	_ZN8TcbQueue6removeEv
 356      E7800000 
 357              	.LVL22:
  45:src/kernel/scheduler.cpp ****         t->setState(TCB::READY);
 358              		.loc 1 45 9 is_stmt 1
 359              	.LBB16:
 360              	.LBB17:
 361              		.file 3 "src/kernel/../../h/tcb.hpp"
   1:src/kernel/../../h/tcb.hpp **** #ifndef __tcb__h
   2:src/kernel/../../h/tcb.hpp **** #define __tcb__h
   3:src/kernel/../../h/tcb.hpp **** 
   4:src/kernel/../../h/tcb.hpp **** #include"../h/memory_allocator.hpp"
   5:src/kernel/../../h/tcb.hpp **** 
   6:src/kernel/../../h/tcb.hpp **** class KSemaphore;
   7:src/kernel/../../h/tcb.hpp **** 
   8:src/kernel/../../h/tcb.hpp **** class TCB{
   9:src/kernel/../../h/tcb.hpp ****     
  10:src/kernel/../../h/tcb.hpp **** public:
  11:src/kernel/../../h/tcb.hpp ****     //alokacija
  12:src/kernel/../../h/tcb.hpp ****     #include"../h/kernel_operators.hpp"
  13:src/kernel/../../h/tcb.hpp ****     
  14:src/kernel/../../h/tcb.hpp ****     using Body = void (*)(void*);
  15:src/kernel/../../h/tcb.hpp ****     enum TCBState{
  16:src/kernel/../../h/tcb.hpp ****         BLOCKED,
  17:src/kernel/../../h/tcb.hpp ****         READY,
  18:src/kernel/../../h/tcb.hpp ****         FINISHED,
  19:src/kernel/../../h/tcb.hpp ****         SLEEPING
  20:src/kernel/../../h/tcb.hpp ****     };
  21:src/kernel/../../h/tcb.hpp ****     
  22:src/kernel/../../h/tcb.hpp ****     ~TCB(){ 
  23:src/kernel/../../h/tcb.hpp ****         MemoryAllocator& allocator = MemoryAllocator::getInstance(); 
  24:src/kernel/../../h/tcb.hpp ****         allocator.mem_free(this->stack);
  25:src/kernel/../../h/tcb.hpp ****     }
  26:src/kernel/../../h/tcb.hpp ****     
  27:src/kernel/../../h/tcb.hpp ****     //nestaticki metodi
  28:src/kernel/../../h/tcb.hpp ****     void setState(TCBState s) {state = s;}
 362              		.loc 3 28 32
 363              		.loc 3 28 38 is_stmt 0
 364 01f4 93071000 		li	a5,1
 365 01f8 23A8F402 		sw	a5,48(s1)
 366              	.LVL23:
 367              	.LBE17:
 368              	.LBE16:
  46:src/kernel/scheduler.cpp ****         put(t);
 369              		.loc 1 46 9 is_stmt 1
  46:src/kernel/scheduler.cpp ****         put(t);
 370              		.loc 1 46 12 is_stmt 0
 371 01fc 13850400 		mv	a0,s1
 372 0200 97000000 		call	_ZN9Scheduler3putEP3TCB
GAS LISTING /tmp/ccROA9VN.s 			page 10


 372      E7800000 
 373              	.LVL24:
  48:src/kernel/scheduler.cpp ****         t = sleeping.top();
 374              		.loc 1 48 9 is_stmt 1
  48:src/kernel/scheduler.cpp ****         t = sleeping.top();
 375              		.loc 1 48 25 is_stmt 0
 376 0208 13050900 		mv	a0,s2
 377 020c 97000000 		call	_ZN8TcbQueue3topEv
 377      E7800000 
 378              	.LVL25:
 379 0214 93040500 		mv	s1,a0
 380              	.LVL26:
  42:src/kernel/scheduler.cpp ****     while(t && t->sleep_time == 0){
 381              		.loc 1 42 5
 382 0218 6FF0DFFB 		j	.L23
 383              	.LVL27:
 384              	.L21:
 385              		.loc 1 50 1
 386 021c 83308101 		ld	ra,24(sp)
 387              		.cfi_restore 1
 388 0220 03340101 		ld	s0,16(sp)
 389              		.cfi_restore 8
 390              		.cfi_def_cfa 2, 32
 391 0224 83348100 		ld	s1,8(sp)
 392              		.cfi_restore 9
 393 0228 03390100 		ld	s2,0(sp)
 394              		.cfi_restore 18
 395 022c 13010102 		addi	sp,sp,32
 396              		.cfi_def_cfa_offset 0
 397 0230 67800000 		jr	ra
 398              		.cfi_endproc
 399              	.LFE37:
 401              		.align	2
 403              	_GLOBAL__sub_I__ZN9Scheduler5queueE:
 404              	.LFB39:
 405              		.loc 1 50 1 is_stmt 1
 406              		.cfi_startproc
 407 0234 130101FF 		addi	sp,sp,-16
 408              		.cfi_def_cfa_offset 16
 409 0238 23341100 		sd	ra,8(sp)
 410 023c 23308100 		sd	s0,0(sp)
 411              		.cfi_offset 1, -8
 412              		.cfi_offset 8, -16
 413 0240 13040101 		addi	s0,sp,16
 414              		.cfi_def_cfa 8, 0
 415              		.loc 1 50 1 is_stmt 0
 416 0244 B7050100 		li	a1,65536
 417 0248 9385F5FF 		addi	a1,a1,-1
 418 024c 13051000 		li	a0,1
 419 0250 97000000 		call	_Z41__static_initialization_and_destruction_0ii
 419      E7800000 
 420              	.LVL28:
 421 0258 83308100 		ld	ra,8(sp)
 422              		.cfi_restore 1
 423 025c 03340100 		ld	s0,0(sp)
 424              		.cfi_restore 8
 425              		.cfi_def_cfa 2, 16
GAS LISTING /tmp/ccROA9VN.s 			page 11


 426 0260 13010101 		addi	sp,sp,16
 427              		.cfi_def_cfa_offset 0
 428 0264 67800000 		jr	ra
 429              		.cfi_endproc
 430              	.LFE39:
 432              		.section	.init_array,"aw"
 433              		.align	3
 434 0000 00000000 		.dword	_GLOBAL__sub_I__ZN9Scheduler5queueE
 434      00000000 
 435              		.globl	_ZN9Scheduler8sleepingE
 436              		.globl	_ZN9Scheduler5queueE
 437              		.bss
 438              		.align	3
 439              		.set	.LANCHOR0,. + 0
 442              	_ZN9Scheduler5queueE:
 443 0000 00000000 		.zero	24
 443      00000000 
 443      00000000 
 443      00000000 
 443      00000000 
 446              	_ZN9Scheduler8sleepingE:
 447 0018 00000000 		.zero	24
 447      00000000 
 447      00000000 
 447      00000000 
 447      00000000 
 448              		.text
 449              	.Letext0:
 450              		.file 4 "src/kernel/../../h/../lib/hw.h"
 451              		.file 5 "src/kernel/../../h/../h/kernel_operators.hpp"
 452              		.file 6 "src/kernel/../../h/scheduler.hpp"
GAS LISTING /tmp/ccROA9VN.s 			page 12

