GAS LISTING /tmp/ccTfuDSg.s 			page 1


   1              		.file	"stdio.cpp"
   2              		.option nopic
   3              		.option norelax
   4              		.attribute arch, "rv64i2p0_m2p0_a2p0"
   5              		.attribute unaligned_access, 0
   6              		.attribute stack_align, 16
   7              		.text
   8              	.Ltext0:
   9              		.align	2
  11              	_Z41__static_initialization_and_destruction_0ii:
  12              	.LFB96:
  13              		.file 1 "src/kernel/stdio.cpp"
   1:src/kernel/stdio.cpp **** #include"../../h/stdio.hpp"
   2:src/kernel/stdio.cpp **** #include"../../h/scheduler.hpp"
   3:src/kernel/stdio.cpp **** #include"../../h/riscv.hpp"
   4:src/kernel/stdio.cpp **** 
   5:src/kernel/stdio.cpp **** #define KLOCK() Riscv::mc_sstatus(Riscv::SSTATUS_SIE)
   6:src/kernel/stdio.cpp **** #define KUNLOCK() Riscv::ms_sstatus(Riscv::SSTATUS_SIE)
   7:src/kernel/stdio.cpp **** 
   8:src/kernel/stdio.cpp **** unsigned char* StdIO::iostatus = (unsigned char*)CONSOLE_STATUS;
   9:src/kernel/stdio.cpp **** char* StdIO::idata = (char*)CONSOLE_RX_DATA;
  10:src/kernel/stdio.cpp **** char* StdIO::odata = (char*)CONSOLE_TX_DATA;
  11:src/kernel/stdio.cpp **** SharedBuffer<char>* StdIO::ibuffer = nullptr;
  12:src/kernel/stdio.cpp **** SharedBuffer<char>* StdIO::obuffer = nullptr;
  13:src/kernel/stdio.cpp **** KSemaphore* StdIO::blockSem = nullptr;
  14:src/kernel/stdio.cpp **** TCB* StdIO::out_thread = nullptr;
  15:src/kernel/stdio.cpp **** 
  16:src/kernel/stdio.cpp **** void StdIO::initalize()
  17:src/kernel/stdio.cpp **** {
  18:src/kernel/stdio.cpp ****     ibuffer = new SharedBuffer<char>();
  19:src/kernel/stdio.cpp ****     obuffer = new SharedBuffer<char>();
  20:src/kernel/stdio.cpp ****     blockSem = new KSemaphore(0);
  21:src/kernel/stdio.cpp ****     iostatus = (unsigned char*)CONSOLE_STATUS;
  22:src/kernel/stdio.cpp ****     idata = (char*)CONSOLE_RX_DATA;
  23:src/kernel/stdio.cpp ****     odata = (char*)CONSOLE_TX_DATA;
  24:src/kernel/stdio.cpp ****     // uint64* stack = (uint64*)MemoryAllocator::getInstance().mem_alloc((DEFAULT_STACK_SIZE-1)/MEM
  25:src/kernel/stdio.cpp ****     uint64* stack = (uint64*)SlabAllocator::getInstance().kmalloc(DEFAULT_STACK_SIZE);
  26:src/kernel/stdio.cpp ****     out_thread = TCB::createThread(outputWorker, nullptr, stack);
  27:src/kernel/stdio.cpp ****     out_thread->setKernelMode();
  28:src/kernel/stdio.cpp ****     out_thread->setKernelLocked();
  29:src/kernel/stdio.cpp **** }
  30:src/kernel/stdio.cpp **** 
  31:src/kernel/stdio.cpp **** void StdIO::outputWorker(void *)
  32:src/kernel/stdio.cpp **** {
  33:src/kernel/stdio.cpp ****     
  34:src/kernel/stdio.cpp ****     out_thread = nullptr;
  35:src/kernel/stdio.cpp **** 
  36:src/kernel/stdio.cpp ****     while(true)
  37:src/kernel/stdio.cpp ****     {
  38:src/kernel/stdio.cpp ****         if(output_ready())
  39:src/kernel/stdio.cpp ****         {
  40:src/kernel/stdio.cpp ****             *odata = obuffer->get();
  41:src/kernel/stdio.cpp ****         }
  42:src/kernel/stdio.cpp ****         else
  43:src/kernel/stdio.cpp ****         {
  44:src/kernel/stdio.cpp **** 
  45:src/kernel/stdio.cpp ****             uint64 sstatus = Riscv::r_sstatus(), sepc = Riscv::r_sepc();
GAS LISTING /tmp/ccTfuDSg.s 			page 2


  46:src/kernel/stdio.cpp ****             out_thread = TCB::running;
  47:src/kernel/stdio.cpp **** 
  48:src/kernel/stdio.cpp ****             TCB::yield();
  49:src/kernel/stdio.cpp **** 
  50:src/kernel/stdio.cpp ****             Riscv::w_sstatus(sstatus);
  51:src/kernel/stdio.cpp ****             Riscv::w_sepc(sepc);
  52:src/kernel/stdio.cpp ****         }
  53:src/kernel/stdio.cpp **** 
  54:src/kernel/stdio.cpp ****     }
  55:src/kernel/stdio.cpp ****     
  56:src/kernel/stdio.cpp **** }
  57:src/kernel/stdio.cpp **** 
  58:src/kernel/stdio.cpp **** void StdIO::inputWorker()
  59:src/kernel/stdio.cpp **** {
  60:src/kernel/stdio.cpp **** 
  61:src/kernel/stdio.cpp **** }
  62:src/kernel/stdio.cpp **** 
  63:src/kernel/stdio.cpp **** void StdIO::console_handler(){
  64:src/kernel/stdio.cpp ****     uint64 t = plic_claim();
  65:src/kernel/stdio.cpp ****     if(t == CONSOLE_IRQ)
  66:src/kernel/stdio.cpp ****     {
  67:src/kernel/stdio.cpp ****         
  68:src/kernel/stdio.cpp ****         if(input_ready())
  69:src/kernel/stdio.cpp ****         {
  70:src/kernel/stdio.cpp ****             char c = *idata;
  71:src/kernel/stdio.cpp ****             plic_complete(CONSOLE_IRQ);
  72:src/kernel/stdio.cpp ****             //__putc(c);
  73:src/kernel/stdio.cpp ****             if(ibuffer->tmpLen < SharedBuffer<char>::BUFFER_SIZE){
  74:src/kernel/stdio.cpp ****                 ibuffer->put(c); 
  75:src/kernel/stdio.cpp ****             }
  76:src/kernel/stdio.cpp **** 
  77:src/kernel/stdio.cpp ****         }
  78:src/kernel/stdio.cpp ****         else
  79:src/kernel/stdio.cpp ****         {
  80:src/kernel/stdio.cpp ****             plic_complete(CONSOLE_IRQ);
  81:src/kernel/stdio.cpp ****             if(out_thread != nullptr)
  82:src/kernel/stdio.cpp ****             {
  83:src/kernel/stdio.cpp ****                 uint64 sstatus = Riscv::r_sstatus(), sepc = Riscv::r_sepc();
  84:src/kernel/stdio.cpp ****                 Scheduler::put_front(out_thread);
  85:src/kernel/stdio.cpp **** 
  86:src/kernel/stdio.cpp ****                 TCB::yield();
  87:src/kernel/stdio.cpp **** 
  88:src/kernel/stdio.cpp ****                 Riscv::w_sstatus(sstatus);
  89:src/kernel/stdio.cpp ****                 Riscv::w_sepc(sepc);
  90:src/kernel/stdio.cpp ****             }
  91:src/kernel/stdio.cpp ****                 
  92:src/kernel/stdio.cpp ****         }    
  93:src/kernel/stdio.cpp ****     }
  94:src/kernel/stdio.cpp ****     else
  95:src/kernel/stdio.cpp ****         plic_complete(t);
  96:src/kernel/stdio.cpp ****         
  97:src/kernel/stdio.cpp **** }...
  14              		.loc 1 97 1
  15              		.cfi_startproc
  16              	.LVL0:
  17 0000 130101FF 		addi	sp,sp,-16
  18              		.cfi_def_cfa_offset 16
GAS LISTING /tmp/ccTfuDSg.s 			page 3


  19 0004 23348100 		sd	s0,8(sp)
  20              		.cfi_offset 8, -8
  21 0008 13040101 		addi	s0,sp,16
  22              		.cfi_def_cfa 8, 0
  23              		.loc 1 97 1 is_stmt 0
  24 000c 93071000 		li	a5,1
  25 0010 6308F500 		beq	a0,a5,.L4
  26              	.L1:
  27 0014 03348100 		ld	s0,8(sp)
  28              		.cfi_remember_state
  29              		.cfi_restore 8
  30              		.cfi_def_cfa 2, 16
  31 0018 13010101 		addi	sp,sp,16
  32              		.cfi_def_cfa_offset 0
  33 001c 67800000 		jr	ra
  34              	.L4:
  35              		.cfi_restore_state
  36              		.loc 1 97 1 discriminator 1
  37 0020 B7070100 		li	a5,65536
  38 0024 9387F7FF 		addi	a5,a5,-1
  39 0028 E396F5FE 		bne	a1,a5,.L1
   8:src/kernel/stdio.cpp **** unsigned char* StdIO::iostatus = (unsigned char*)CONSOLE_STATUS;
  40              		.loc 1 8 16
  41 002c 97070000 		lla	a5,CONSOLE_STATUS
  41      93870700 
  42 0034 83B70700 		ld	a5,0(a5)
  43 0038 17070000 		sd	a5,_ZN5StdIO8iostatusE,a4
  43      2330F700 
   9:src/kernel/stdio.cpp **** char* StdIO::idata = (char*)CONSOLE_RX_DATA;
  44              		.loc 1 9 7
  45 0040 97070000 		lla	a5,CONSOLE_RX_DATA
  45      93870700 
  46 0048 83B70700 		ld	a5,0(a5)
  47 004c 17070000 		sd	a5,_ZN5StdIO5idataE,a4
  47      2330F700 
  10:src/kernel/stdio.cpp **** char* StdIO::odata = (char*)CONSOLE_TX_DATA;
  48              		.loc 1 10 7
  49 0054 97070000 		lla	a5,CONSOLE_TX_DATA
  49      93870700 
  50 005c 83B70700 		ld	a5,0(a5)
  51 0060 17070000 		sd	a5,_ZN5StdIO5odataE,a4
  51      2330F700 
  52              		.loc 1 97 1
  53 0068 6FF0DFFA 		j	.L1
  54              		.cfi_endproc
  55              	.LFE96:
  57              		.align	2
  58              		.globl	_ZN5StdIO12outputWorkerEPv
  60              	_ZN5StdIO12outputWorkerEPv:
  61              	.LFB86:
  32:src/kernel/stdio.cpp **** {
  62              		.loc 1 32 1 is_stmt 1
  63              		.cfi_startproc
  64 006c 130101FC 		addi	sp,sp,-64
  65              		.cfi_def_cfa_offset 64
  66 0070 233C1102 		sd	ra,56(sp)
  67 0074 23388102 		sd	s0,48(sp)
GAS LISTING /tmp/ccTfuDSg.s 			page 4


  68 0078 23349102 		sd	s1,40(sp)
  69 007c 23302103 		sd	s2,32(sp)
  70 0080 233C3101 		sd	s3,24(sp)
  71 0084 23384101 		sd	s4,16(sp)
  72              		.cfi_offset 1, -8
  73              		.cfi_offset 8, -16
  74              		.cfi_offset 9, -24
  75              		.cfi_offset 18, -32
  76              		.cfi_offset 19, -40
  77              		.cfi_offset 20, -48
  78 0088 13040104 		addi	s0,sp,64
  79              		.cfi_def_cfa 8, 0
  34:src/kernel/stdio.cpp ****     out_thread = nullptr;
  80              		.loc 1 34 5
  34:src/kernel/stdio.cpp ****     out_thread = nullptr;
  81              		.loc 1 34 16 is_stmt 0
  82 008c 97070000 		sd	zero,_ZN5StdIO10out_threadE,a5
  82      23B00700 
  83 0094 6F000004 		j	.L6
  84              	.L7:
  85              	.LBB121:
  86              	.LBB122:
  45:src/kernel/stdio.cpp ****             uint64 sstatus = Riscv::r_sstatus(), sepc = Riscv::r_sepc();
  87              		.loc 1 45 13 is_stmt 1
  88              	.LBB123:
  89              	.LBB124:
  90              		.file 2 "src/kernel/../../h/riscv.hpp"
   1:src/kernel/../../h/riscv.hpp **** #ifndef __riscv__
   2:src/kernel/../../h/riscv.hpp **** #define __riscv__
   3:src/kernel/../../h/riscv.hpp **** 
   4:src/kernel/../../h/riscv.hpp **** #include"../lib/hw.h"
   5:src/kernel/../../h/riscv.hpp **** 
   6:src/kernel/../../h/riscv.hpp **** class Riscv{
   7:src/kernel/../../h/riscv.hpp **** public:
   8:src/kernel/../../h/riscv.hpp **** /* 
   9:src/kernel/../../h/riscv.hpp **** --------------------SUPERVISOR REGISTERS--------------------    
  10:src/kernel/../../h/riscv.hpp **** */
  11:src/kernel/../../h/riscv.hpp ****     static void w_scause(uint64);
  12:src/kernel/../../h/riscv.hpp ****     static uint64 r_scause(); 
  13:src/kernel/../../h/riscv.hpp **** 
  14:src/kernel/../../h/riscv.hpp ****     static void w_sepc(uint64);
  15:src/kernel/../../h/riscv.hpp ****     static uint64 r_sepc();
  16:src/kernel/../../h/riscv.hpp ****     static void ni_sepc();
  17:src/kernel/../../h/riscv.hpp **** 
  18:src/kernel/../../h/riscv.hpp ****     static void w_stvec(uint64);
  19:src/kernel/../../h/riscv.hpp ****     static uint64 r_stvec();
  20:src/kernel/../../h/riscv.hpp ****      
  21:src/kernel/../../h/riscv.hpp ****     static void w_stval(uint64);
  22:src/kernel/../../h/riscv.hpp ****     static uint64 r_stval();
  23:src/kernel/../../h/riscv.hpp **** 
  24:src/kernel/../../h/riscv.hpp ****     static void w_satp(uint64);
  25:src/kernel/../../h/riscv.hpp ****     static uint64 r_satp();
  26:src/kernel/../../h/riscv.hpp ****     
  27:src/kernel/../../h/riscv.hpp ****     enum BitMaskSip{
  28:src/kernel/../../h/riscv.hpp ****         SIP_SSIE = (1<<1),
  29:src/kernel/../../h/riscv.hpp ****         SIP_STIE = (1<<5),
  30:src/kernel/../../h/riscv.hpp ****         SIP_SEIE = (1<<9),
GAS LISTING /tmp/ccTfuDSg.s 			page 5


  31:src/kernel/../../h/riscv.hpp ****     };
  32:src/kernel/../../h/riscv.hpp **** 
  33:src/kernel/../../h/riscv.hpp ****     static void ms_sip(uint64);
  34:src/kernel/../../h/riscv.hpp ****     static void mc_sip(uint64);
  35:src/kernel/../../h/riscv.hpp **** 
  36:src/kernel/../../h/riscv.hpp ****     static void w_sip(uint64);
  37:src/kernel/../../h/riscv.hpp ****     static uint64 r_sip();
  38:src/kernel/../../h/riscv.hpp **** 
  39:src/kernel/../../h/riscv.hpp ****     static void ms_sie(uint64);
  40:src/kernel/../../h/riscv.hpp ****     static void mc_sie(uint64);
  41:src/kernel/../../h/riscv.hpp **** 
  42:src/kernel/../../h/riscv.hpp ****     static void w_sie(uint64);
  43:src/kernel/../../h/riscv.hpp ****     static uint64 r_sie();
  44:src/kernel/../../h/riscv.hpp **** 
  45:src/kernel/../../h/riscv.hpp ****     enum BitMaskSstatus{
  46:src/kernel/../../h/riscv.hpp ****         SSTATUS_SIE = (1<<1),
  47:src/kernel/../../h/riscv.hpp ****         SSTATUS_SPIE = (1<<5),
  48:src/kernel/../../h/riscv.hpp ****         SSTATUS_SPP = (1<<8),
  49:src/kernel/../../h/riscv.hpp ****         SSTATUS_SUM = (1<<18),
  50:src/kernel/../../h/riscv.hpp ****     };
  51:src/kernel/../../h/riscv.hpp **** 
  52:src/kernel/../../h/riscv.hpp ****     static void ms_sstatus(uint64);
  53:src/kernel/../../h/riscv.hpp ****     static void mc_sstatus(uint64);
  54:src/kernel/../../h/riscv.hpp **** 
  55:src/kernel/../../h/riscv.hpp ****     static void w_sstatus(uint64);
  56:src/kernel/../../h/riscv.hpp ****     static uint64 r_sstatus();
  57:src/kernel/../../h/riscv.hpp **** 
  58:src/kernel/../../h/riscv.hpp **** /* 
  59:src/kernel/../../h/riscv.hpp **** --------------------CLASSIC REGISTERS--------------------    
  60:src/kernel/../../h/riscv.hpp **** */
  61:src/kernel/../../h/riscv.hpp ****     static uint64 r_sp();
  62:src/kernel/../../h/riscv.hpp ****     static uint64 r_a0(); /* parameter registers */
  63:src/kernel/../../h/riscv.hpp ****     static uint64 s_a0(uint64 a0);
  64:src/kernel/../../h/riscv.hpp ****     static uint64 r_a1();
  65:src/kernel/../../h/riscv.hpp ****     static uint64 r_a2();
  66:src/kernel/../../h/riscv.hpp ****     static uint64 r_a3();
  67:src/kernel/../../h/riscv.hpp ****     static uint64 r_a4();
  68:src/kernel/../../h/riscv.hpp **** 
  69:src/kernel/../../h/riscv.hpp ****     static void popRegisters(); /* pop all context registers */
  70:src/kernel/../../h/riscv.hpp ****     static void pushRegisters(); /* push all context registers */
  71:src/kernel/../../h/riscv.hpp ****  
  72:src/kernel/../../h/riscv.hpp ****     static void popSppSpie(); /* jump from kernel to start of thread */
  73:src/kernel/../../h/riscv.hpp **** 
  74:src/kernel/../../h/riscv.hpp **** /* 
  75:src/kernel/../../h/riscv.hpp **** --------------------CONSOLE REGISTERS--------------------    
  76:src/kernel/../../h/riscv.hpp **** */
  77:src/kernel/../../h/riscv.hpp ****     static void mc_cstatus(uint64 mask); 
  78:src/kernel/../../h/riscv.hpp ****     static bool cstatus_ready(uint64 mask);
  79:src/kernel/../../h/riscv.hpp **** };
  80:src/kernel/../../h/riscv.hpp **** 
  81:src/kernel/../../h/riscv.hpp **** /* 
  82:src/kernel/../../h/riscv.hpp **** --------------------CLASSIC REGISTERS--------------------    
  83:src/kernel/../../h/riscv.hpp **** */
  84:src/kernel/../../h/riscv.hpp **** 
  85:src/kernel/../../h/riscv.hpp **** inline uint64 Riscv::r_sp(){
  86:src/kernel/../../h/riscv.hpp ****     uint64 a0;
  87:src/kernel/../../h/riscv.hpp ****     asm volatile("mv %0, sp" : "=r" (a0));
GAS LISTING /tmp/ccTfuDSg.s 			page 6


  88:src/kernel/../../h/riscv.hpp ****     return a0;
  89:src/kernel/../../h/riscv.hpp **** }
  90:src/kernel/../../h/riscv.hpp **** 
  91:src/kernel/../../h/riscv.hpp **** inline uint64 Riscv::r_a0(){
  92:src/kernel/../../h/riscv.hpp ****     uint64 a0;
  93:src/kernel/../../h/riscv.hpp ****     asm volatile("mv %0, a0" : "=r" (a0));
  94:src/kernel/../../h/riscv.hpp ****     return a0;
  95:src/kernel/../../h/riscv.hpp **** }
  96:src/kernel/../../h/riscv.hpp **** 
  97:src/kernel/../../h/riscv.hpp **** inline uint64 Riscv::r_a1(){
  98:src/kernel/../../h/riscv.hpp ****     uint64 a0;
  99:src/kernel/../../h/riscv.hpp ****     asm volatile("mv %0, a1" : "=r" (a0));
 100:src/kernel/../../h/riscv.hpp ****     return a0;
 101:src/kernel/../../h/riscv.hpp **** }
 102:src/kernel/../../h/riscv.hpp **** 
 103:src/kernel/../../h/riscv.hpp **** inline uint64 Riscv::r_a2(){
 104:src/kernel/../../h/riscv.hpp ****     uint64 a0;
 105:src/kernel/../../h/riscv.hpp ****     asm volatile("mv %0, a2" : "=r" (a0));
 106:src/kernel/../../h/riscv.hpp ****     return a0;
 107:src/kernel/../../h/riscv.hpp **** }
 108:src/kernel/../../h/riscv.hpp **** 
 109:src/kernel/../../h/riscv.hpp **** inline uint64 Riscv::r_a3(){
 110:src/kernel/../../h/riscv.hpp ****     uint64 a0;
 111:src/kernel/../../h/riscv.hpp ****     asm volatile("mv %0, a3" : "=r" (a0));
 112:src/kernel/../../h/riscv.hpp ****     return a0;
 113:src/kernel/../../h/riscv.hpp **** }
 114:src/kernel/../../h/riscv.hpp **** 
 115:src/kernel/../../h/riscv.hpp **** inline uint64 Riscv::r_a4(){
 116:src/kernel/../../h/riscv.hpp ****     uint64 a0;
 117:src/kernel/../../h/riscv.hpp ****     asm volatile("mv %0, a4" : "=r" (a0));
 118:src/kernel/../../h/riscv.hpp ****     return a0;
 119:src/kernel/../../h/riscv.hpp **** }
 120:src/kernel/../../h/riscv.hpp **** 
 121:src/kernel/../../h/riscv.hpp **** 
 122:src/kernel/../../h/riscv.hpp **** inline uint64 Riscv::s_a0(uint64 a0){
 123:src/kernel/../../h/riscv.hpp ****     return a0;
 124:src/kernel/../../h/riscv.hpp **** }
 125:src/kernel/../../h/riscv.hpp **** 
 126:src/kernel/../../h/riscv.hpp **** /* 
 127:src/kernel/../../h/riscv.hpp **** --------------------SUPERVISOR REGISTERS--------------------    
 128:src/kernel/../../h/riscv.hpp **** */
 129:src/kernel/../../h/riscv.hpp **** 
 130:src/kernel/../../h/riscv.hpp **** inline void Riscv::w_scause(uint64 scause){
 131:src/kernel/../../h/riscv.hpp ****     asm volatile("csrw scause, %0" : : "r" (scause));
 132:src/kernel/../../h/riscv.hpp **** }
 133:src/kernel/../../h/riscv.hpp **** 
 134:src/kernel/../../h/riscv.hpp **** inline uint64 Riscv::r_scause(){
 135:src/kernel/../../h/riscv.hpp ****     uint64 volatile scause;
 136:src/kernel/../../h/riscv.hpp ****     asm volatile("csrr %0, scause" : "=r" (scause));
 137:src/kernel/../../h/riscv.hpp ****     return scause;
 138:src/kernel/../../h/riscv.hpp **** } 
 139:src/kernel/../../h/riscv.hpp **** 
 140:src/kernel/../../h/riscv.hpp **** inline void Riscv::w_sepc(uint64 sepc){
 141:src/kernel/../../h/riscv.hpp ****     asm volatile("csrw sepc, %0" : : "r" (sepc));
 142:src/kernel/../../h/riscv.hpp **** }
 143:src/kernel/../../h/riscv.hpp **** 
 144:src/kernel/../../h/riscv.hpp **** inline uint64 Riscv::r_sepc(){
GAS LISTING /tmp/ccTfuDSg.s 			page 7


 145:src/kernel/../../h/riscv.hpp ****     uint64 volatile sepc;
 146:src/kernel/../../h/riscv.hpp ****     asm volatile("csrr %0, sepc" : "=r" (sepc));
 147:src/kernel/../../h/riscv.hpp ****     return sepc;
 148:src/kernel/../../h/riscv.hpp **** } 
 149:src/kernel/../../h/riscv.hpp **** 
 150:src/kernel/../../h/riscv.hpp **** inline void Riscv::w_stvec(uint64 stvec){
 151:src/kernel/../../h/riscv.hpp ****     asm volatile("csrw stvec, %0" : : "r" (stvec));
 152:src/kernel/../../h/riscv.hpp **** }
 153:src/kernel/../../h/riscv.hpp **** 
 154:src/kernel/../../h/riscv.hpp **** inline uint64 Riscv::r_stvec(){
 155:src/kernel/../../h/riscv.hpp ****     uint64 volatile stvec;
 156:src/kernel/../../h/riscv.hpp ****     asm volatile("csrr %0, stvec" : "=r" (stvec));
 157:src/kernel/../../h/riscv.hpp ****     return stvec;
 158:src/kernel/../../h/riscv.hpp **** } 
 159:src/kernel/../../h/riscv.hpp **** 
 160:src/kernel/../../h/riscv.hpp **** inline void Riscv::w_stval(uint64 stval){
 161:src/kernel/../../h/riscv.hpp ****     asm volatile("csrw stval, %0" : : "r" (stval));
 162:src/kernel/../../h/riscv.hpp **** }
 163:src/kernel/../../h/riscv.hpp **** 
 164:src/kernel/../../h/riscv.hpp **** inline uint64 Riscv::r_stval(){
 165:src/kernel/../../h/riscv.hpp ****     uint64 volatile stval;
 166:src/kernel/../../h/riscv.hpp ****     asm volatile("csrr %0, stval" : "=r" (stval));
 167:src/kernel/../../h/riscv.hpp ****     return stval;
 168:src/kernel/../../h/riscv.hpp **** } 
 169:src/kernel/../../h/riscv.hpp **** 
 170:src/kernel/../../h/riscv.hpp **** inline void Riscv::ms_sip(uint64 mask){
 171:src/kernel/../../h/riscv.hpp ****     asm volatile ("csrs sip, %0" : : "r" (mask));
 172:src/kernel/../../h/riscv.hpp **** }
 173:src/kernel/../../h/riscv.hpp **** 
 174:src/kernel/../../h/riscv.hpp **** inline void Riscv::mc_sip(uint64 mask){
 175:src/kernel/../../h/riscv.hpp ****     asm volatile ("csrc sip, %0" : : "r" (mask));
 176:src/kernel/../../h/riscv.hpp **** }
 177:src/kernel/../../h/riscv.hpp **** 
 178:src/kernel/../../h/riscv.hpp **** inline void Riscv::w_sip(uint64 sip){
 179:src/kernel/../../h/riscv.hpp ****     asm volatile("csrw sip, %0" : : "r" (sip));
 180:src/kernel/../../h/riscv.hpp **** }
 181:src/kernel/../../h/riscv.hpp **** 
 182:src/kernel/../../h/riscv.hpp **** inline uint64 Riscv::r_sip(){
 183:src/kernel/../../h/riscv.hpp ****     uint64 volatile sip;
 184:src/kernel/../../h/riscv.hpp ****     asm volatile("csrr %0, sip" : "=r" (sip));
 185:src/kernel/../../h/riscv.hpp ****     return sip;
 186:src/kernel/../../h/riscv.hpp **** } 
 187:src/kernel/../../h/riscv.hpp **** 
 188:src/kernel/../../h/riscv.hpp **** inline void Riscv::ms_sie(uint64 mask){
 189:src/kernel/../../h/riscv.hpp ****     asm volatile ("csrs sie, %0" : : "r" (mask));
 190:src/kernel/../../h/riscv.hpp **** }
 191:src/kernel/../../h/riscv.hpp **** 
 192:src/kernel/../../h/riscv.hpp **** inline void Riscv::mc_sie(uint64 mask){
 193:src/kernel/../../h/riscv.hpp ****     asm volatile ("csrc sie, %0" : : "r" (mask));
 194:src/kernel/../../h/riscv.hpp **** }
 195:src/kernel/../../h/riscv.hpp **** 
 196:src/kernel/../../h/riscv.hpp **** inline void Riscv::w_sie(uint64 sie){
 197:src/kernel/../../h/riscv.hpp ****     asm volatile("csrw sie, %0" : : "r" (sie));
 198:src/kernel/../../h/riscv.hpp **** }
 199:src/kernel/../../h/riscv.hpp **** 
 200:src/kernel/../../h/riscv.hpp **** inline uint64 Riscv::r_sie(){
 201:src/kernel/../../h/riscv.hpp ****     uint64 volatile sie;
GAS LISTING /tmp/ccTfuDSg.s 			page 8


 202:src/kernel/../../h/riscv.hpp ****     asm volatile("csrr %0, sie" : "=r" (sie));
 203:src/kernel/../../h/riscv.hpp ****     return sie;
 204:src/kernel/../../h/riscv.hpp **** } 
 205:src/kernel/../../h/riscv.hpp **** 
 206:src/kernel/../../h/riscv.hpp **** inline void Riscv::ms_sstatus(uint64 mask){
 207:src/kernel/../../h/riscv.hpp ****     asm volatile ("csrs sstatus, %0" : : "r" (mask));
 208:src/kernel/../../h/riscv.hpp **** }
 209:src/kernel/../../h/riscv.hpp **** 
 210:src/kernel/../../h/riscv.hpp **** inline void Riscv::mc_sstatus(uint64 mask){
 211:src/kernel/../../h/riscv.hpp ****     asm volatile ("csrc sstatus, %0" : : "r" (mask));
 212:src/kernel/../../h/riscv.hpp **** }
 213:src/kernel/../../h/riscv.hpp **** 
 214:src/kernel/../../h/riscv.hpp **** inline void Riscv::w_sstatus(uint64 sstatus){
 215:src/kernel/../../h/riscv.hpp ****     asm volatile("csrw sstatus, %0" : : "r" (sstatus));
 216:src/kernel/../../h/riscv.hpp **** }
 217:src/kernel/../../h/riscv.hpp **** 
 218:src/kernel/../../h/riscv.hpp **** inline uint64 Riscv::r_sstatus(){
 219:src/kernel/../../h/riscv.hpp ****     uint64 volatile sstatus;
  91              		.loc 2 219 5
 220:src/kernel/../../h/riscv.hpp ****     asm volatile("csrr %0, sstatus" : "=r" (sstatus));
  92              		.loc 2 220 5
  93              		.loc 2 220 54 is_stmt 0
  94              	 #APP
  95              	# 220 "src/kernel/../../h/riscv.hpp" 1
 221              	    return sstatus;
  96              		csrr a5, sstatus
  97              	# 0 "" 2
  98              	 #NO_APP
  99 009c 2334F4FC 		sd	a5,-56(s0)
 100              		.loc 2 221 5 is_stmt 1
 101              		.loc 2 221 12 is_stmt 0
 102 00a0 033984FC 		ld	s2,-56(s0)
 103              	.LVL1:
 104              	.LBE124:
 105              	.LBE123:
 106              	.LBB125:
 107              	.LBB126:
 145:src/kernel/../../h/riscv.hpp ****     asm volatile("csrr %0, sepc" : "=r" (sepc));
 108              		.loc 2 145 5 is_stmt 1
 146:src/kernel/../../h/riscv.hpp ****     return sepc;
 109              		.loc 2 146 5
 146:src/kernel/../../h/riscv.hpp ****     return sepc;
 110              		.loc 2 146 48 is_stmt 0
 111              	 #APP
 112              	# 146 "src/kernel/../../h/riscv.hpp" 1
 113              		csrr a5, sepc
 114              	# 0 "" 2
 115              	 #NO_APP
 116 00a8 2330F4FC 		sd	a5,-64(s0)
 147:src/kernel/../../h/riscv.hpp **** } 
 117              		.loc 2 147 5 is_stmt 1
 147:src/kernel/../../h/riscv.hpp **** } 
 118              		.loc 2 147 12 is_stmt 0
 119 00ac 833404FC 		ld	s1,-64(s0)
 120              	.LVL2:
 121              	.LBE126:
 122              	.LBE125:
GAS LISTING /tmp/ccTfuDSg.s 			page 9


  46:src/kernel/stdio.cpp ****             out_thread = TCB::running;
 123              		.loc 1 46 13 is_stmt 1
  46:src/kernel/stdio.cpp ****             out_thread = TCB::running;
 124              		.loc 1 46 24 is_stmt 0
 125 00b0 97070000 		lla	a5,_ZN3TCB7runningE
 125      93870700 
 126 00b8 83B70700 		ld	a5,0(a5)
 127 00bc 17070000 		sd	a5,_ZN5StdIO10out_threadE,a4
 127      2330F700 
  48:src/kernel/stdio.cpp ****             TCB::yield();
 128              		.loc 1 48 13 is_stmt 1
  48:src/kernel/stdio.cpp ****             TCB::yield();
 129              		.loc 1 48 23 is_stmt 0
 130 00c4 97000000 		call	_ZN3TCB5yieldEv
 130      E7800000 
 131              	.LVL3:
  50:src/kernel/stdio.cpp ****             Riscv::w_sstatus(sstatus);
 132              		.loc 1 50 13 is_stmt 1
 133              	.LBB127:
 134              	.LBB128:
 215:src/kernel/../../h/riscv.hpp **** }
 135              		.loc 2 215 5
 215:src/kernel/../../h/riscv.hpp **** }
 136              		.loc 2 215 55 is_stmt 0
 137              	 #APP
 138              	# 215 "src/kernel/../../h/riscv.hpp" 1
 139              		csrw sstatus, s2
 140              	# 0 "" 2
 141              	.LVL4:
 142              	 #NO_APP
 143              	.LBE128:
 144              	.LBE127:
  51:src/kernel/stdio.cpp ****             Riscv::w_sepc(sepc);
 145              		.loc 1 51 13 is_stmt 1
 146              	.LBB129:
 147              	.LBB130:
 141:src/kernel/../../h/riscv.hpp **** }
 148              		.loc 2 141 5
 141:src/kernel/../../h/riscv.hpp **** }
 149              		.loc 2 141 49 is_stmt 0
 150              	 #APP
 151              	# 141 "src/kernel/../../h/riscv.hpp" 1
 152              		csrw sepc, s1
 153              	# 0 "" 2
 154              	.LVL5:
 155              	 #NO_APP
 156              	.L6:
 157              	.LBE130:
 158              	.LBE129:
 159              	.LBE122:
 160              	.LBE121:
  36:src/kernel/stdio.cpp ****     while(true)
 161              		.loc 1 36 5 is_stmt 1
  38:src/kernel/stdio.cpp ****         if(output_ready())
 162              		.loc 1 38 9
 163              	.LBB135:
 164              	.LBB131:
GAS LISTING /tmp/ccTfuDSg.s 			page 10


 165              	.LBB132:
 166              		.file 3 "src/kernel/../../h/stdio.hpp"
   1:src/kernel/../../h/stdio.hpp **** #ifndef __stdio_hpp__
   2:src/kernel/../../h/stdio.hpp **** #define __stdio_hpp__
   3:src/kernel/../../h/stdio.hpp **** 
   4:src/kernel/../../h/stdio.hpp **** #include"../h/shared_buffer.hpp"
   5:src/kernel/../../h/stdio.hpp **** #include "tcb.hpp"
   6:src/kernel/../../h/stdio.hpp **** 
   7:src/kernel/../../h/stdio.hpp **** struct ORequest{
   8:src/kernel/../../h/stdio.hpp ****     char c;
   9:src/kernel/../../h/stdio.hpp ****     KSemaphore* s;   
  10:src/kernel/../../h/stdio.hpp **** };
  11:src/kernel/../../h/stdio.hpp **** 
  12:src/kernel/../../h/stdio.hpp **** class StdIO{
  13:src/kernel/../../h/stdio.hpp **** 
  14:src/kernel/../../h/stdio.hpp **** private:
  15:src/kernel/../../h/stdio.hpp ****     static unsigned char* iostatus;
  16:src/kernel/../../h/stdio.hpp ****     static char* idata, *odata;
  17:src/kernel/../../h/stdio.hpp ****     static KSemaphore* blockSem;
  18:src/kernel/../../h/stdio.hpp **** public:
  19:src/kernel/../../h/stdio.hpp ****     
  20:src/kernel/../../h/stdio.hpp **** 
  21:src/kernel/../../h/stdio.hpp ****     static void initalize();
  22:src/kernel/../../h/stdio.hpp ****     static void outputWorker(void*);
  23:src/kernel/../../h/stdio.hpp ****     static void inputWorker();
  24:src/kernel/../../h/stdio.hpp ****     static void console_handler();
  25:src/kernel/../../h/stdio.hpp ****     static bool input_ready(){ return *iostatus & CONSOLE_RX_STATUS_BIT; } 
  26:src/kernel/../../h/stdio.hpp ****     static bool output_ready() { return *iostatus & CONSOLE_TX_STATUS_BIT; }
 167              		.loc 3 26 34
 168              		.loc 3 26 41 is_stmt 0
 169 00d4 97070000 		lla	a5,_ZN5StdIO8iostatusE
 169      93870700 
 170 00dc 83B70700 		ld	a5,0(a5)
 171 00e0 83C70700 		lbu	a5,0(a5)
 172              	.LBE132:
 173              	.LBE131:
  38:src/kernel/stdio.cpp ****         if(output_ready())
 174              		.loc 1 38 9
 175 00e4 93F70702 		andi	a5,a5,32
 176 00e8 E38807FA 		beq	a5,zero,.L7
  40:src/kernel/stdio.cpp ****             *odata = obuffer->get();
 177              		.loc 1 40 13 is_stmt 1
  40:src/kernel/stdio.cpp ****             *odata = obuffer->get();
 178              		.loc 1 40 34 is_stmt 0
 179 00ec 97070000 		lla	a5,_ZN5StdIO7obufferE
 179      93870700 
 180 00f4 83B40700 		ld	s1,0(a5)
  40:src/kernel/stdio.cpp ****             *odata = obuffer->get();
 181              		.loc 1 40 13
 182 00f8 97070000 		lla	a5,_ZN5StdIO5odataE
 182      93870700 
 183 0100 83B90700 		ld	s3,0(a5)
 184              	.LVL6:
 185              	.LBB133:
 186              	.LBB134:
 187              		.file 4 "src/kernel/../../h/../h/shared_buffer.hpp"
   1:src/kernel/../../h/../h/shared_buffer.hpp **** #ifndef __shared_buffer__hpp
GAS LISTING /tmp/ccTfuDSg.s 			page 11


   2:src/kernel/../../h/../h/shared_buffer.hpp **** #define __shared_buffer__hpp
   3:src/kernel/../../h/../h/shared_buffer.hpp **** 
   4:src/kernel/../../h/../h/shared_buffer.hpp **** #include"../h/ksemaphore.hpp"
   5:src/kernel/../../h/../h/shared_buffer.hpp **** #include "object_cache.h"
   6:src/kernel/../../h/../h/shared_buffer.hpp **** #include "slab_allocator.h"
   7:src/kernel/../../h/../h/shared_buffer.hpp **** 
   8:src/kernel/../../h/../h/shared_buffer.hpp **** template<typename T>
   9:src/kernel/../../h/../h/shared_buffer.hpp **** class SharedBuffer{
  10:src/kernel/../../h/../h/shared_buffer.hpp **** public:
  11:src/kernel/../../h/../h/shared_buffer.hpp ****     static const int BUFFER_SIZE = 1024;
  12:src/kernel/../../h/../h/shared_buffer.hpp **** private:
  13:src/kernel/../../h/../h/shared_buffer.hpp ****     T buffer[BUFFER_SIZE];
  14:src/kernel/../../h/../h/shared_buffer.hpp ****     KSemaphore mutex, itemAvailable, spaceAvailable; 
  15:src/kernel/../../h/../h/shared_buffer.hpp ****     int head, tail;
  16:src/kernel/../../h/../h/shared_buffer.hpp ****     static ObjectCache* cache;
  17:src/kernel/../../h/../h/shared_buffer.hpp **** public: 
  18:src/kernel/../../h/../h/shared_buffer.hpp ****     int tmpLen;
  19:src/kernel/../../h/../h/shared_buffer.hpp ****     //#include"../h/kernel_operators.hpp"
  20:src/kernel/../../h/../h/shared_buffer.hpp ****     
  21:src/kernel/../../h/../h/shared_buffer.hpp ****     __SLAB_ALLOCATION__(SharedBuffer, nullptr, nullptr);
  22:src/kernel/../../h/../h/shared_buffer.hpp ****     
  23:src/kernel/../../h/../h/shared_buffer.hpp ****     SharedBuffer():mutex(1), itemAvailable(0), 
  24:src/kernel/../../h/../h/shared_buffer.hpp ****     spaceAvailable(BUFFER_SIZE), head(0), tail(0), tmpLen(0){}
  25:src/kernel/../../h/../h/shared_buffer.hpp **** 
  26:src/kernel/../../h/../h/shared_buffer.hpp ****     void put(T c){
  27:src/kernel/../../h/../h/shared_buffer.hpp ****         spaceAvailable.wait();
  28:src/kernel/../../h/../h/shared_buffer.hpp ****         mutex.wait();
  29:src/kernel/../../h/../h/shared_buffer.hpp **** 
  30:src/kernel/../../h/../h/shared_buffer.hpp ****         tmpLen++;
  31:src/kernel/../../h/../h/shared_buffer.hpp ****         buffer[tail]=c;
  32:src/kernel/../../h/../h/shared_buffer.hpp ****         tail=(tail+1)%BUFFER_SIZE;
  33:src/kernel/../../h/../h/shared_buffer.hpp ****     
  34:src/kernel/../../h/../h/shared_buffer.hpp ****         itemAvailable.signal();
  35:src/kernel/../../h/../h/shared_buffer.hpp ****         mutex.signal();
  36:src/kernel/../../h/../h/shared_buffer.hpp ****     }
  37:src/kernel/../../h/../h/shared_buffer.hpp **** 
  38:src/kernel/../../h/../h/shared_buffer.hpp ****     T get(){
  39:src/kernel/../../h/../h/shared_buffer.hpp ****         itemAvailable.wait();
 188              		.loc 4 39 27
 189 0104 13858442 		addi	a0,s1,1064
 190 0108 97000000 		call	_ZN10KSemaphore4waitEv
 190      E7800000 
 191              	.LVL7:
  40:src/kernel/../../h/../h/shared_buffer.hpp ****         mutex.wait();
 192              		.loc 4 40 19
 193 0110 13890440 		addi	s2,s1,1024
 194 0114 13050900 		mv	a0,s2
 195 0118 97000000 		call	_ZN10KSemaphore4waitEv
 195      E7800000 
 196              	.LVL8:
  41:src/kernel/../../h/../h/shared_buffer.hpp **** 
  42:src/kernel/../../h/../h/shared_buffer.hpp ****         tmpLen--;
 197              		.loc 4 42 9
 198 0120 83A70448 		lw	a5,1152(s1)
 199 0124 9B87F7FF 		addiw	a5,a5,-1
 200 0128 23A0F448 		sw	a5,1152(s1)
  43:src/kernel/../../h/../h/shared_buffer.hpp ****         T r = buffer[head];
GAS LISTING /tmp/ccTfuDSg.s 			page 12


 201              		.loc 4 43 22
 202 012c 83A78447 		lw	a5,1144(s1)
 203              		.loc 4 43 11
 204 0130 3387F400 		add	a4,s1,a5
 205 0134 034A0700 		lbu	s4,0(a4)
 206              	.LVL9:
  44:src/kernel/../../h/../h/shared_buffer.hpp ****         head = (head+1)%BUFFER_SIZE;
 207              		.loc 4 44 21
 208 0138 9B871700 		addiw	a5,a5,1
 209              		.loc 4 44 24
 210 013c 1BD7F741 		sraiw	a4,a5,31
 211 0140 1B576701 		srliw	a4,a4,22
 212 0144 BB87E700 		addw	a5,a5,a4
 213 0148 93F7F73F 		andi	a5,a5,1023
 214 014c BB87E740 		subw	a5,a5,a4
 215              		.loc 4 44 9
 216 0150 23ACF446 		sw	a5,1144(s1)
  45:src/kernel/../../h/../h/shared_buffer.hpp **** 
  46:src/kernel/../../h/../h/shared_buffer.hpp ****         spaceAvailable.signal();
 217              		.loc 4 46 30
 218 0154 13850445 		addi	a0,s1,1104
 219 0158 97000000 		call	_ZN10KSemaphore6signalEv
 219      E7800000 
 220              	.LVL10:
  47:src/kernel/../../h/../h/shared_buffer.hpp ****         mutex.signal();
 221              		.loc 4 47 21
 222 0160 13050900 		mv	a0,s2
 223 0164 97000000 		call	_ZN10KSemaphore6signalEv
 223      E7800000 
 224              	.LVL11:
 225              	.LBE134:
 226              	.LBE133:
  40:src/kernel/stdio.cpp ****             *odata = obuffer->get();
 227              		.loc 1 40 20
 228 016c 23804901 		sb	s4,0(s3)
 229 0170 6FF05FF6 		j	.L6
 230              	.LBE135:
 231              		.cfi_endproc
 232              	.LFE86:
 234              		.align	2
 235              		.globl	_ZN5StdIO9initalizeEv
 237              	_ZN5StdIO9initalizeEv:
 238              	.LFB85:
  17:src/kernel/stdio.cpp **** {
 239              		.loc 1 17 1 is_stmt 1
 240              		.cfi_startproc
 241              		.cfi_personality 0x9b,DW.ref.__gxx_personality_v0
 242              		.cfi_lsda 0x1b,.LLSDA85
 243 0174 130101FE 		addi	sp,sp,-32
 244              		.cfi_def_cfa_offset 32
 245 0178 233C1100 		sd	ra,24(sp)
 246 017c 23388100 		sd	s0,16(sp)
 247 0180 23349100 		sd	s1,8(sp)
 248 0184 23302101 		sd	s2,0(sp)
 249              		.cfi_offset 1, -8
 250              		.cfi_offset 8, -16
 251              		.cfi_offset 9, -24
GAS LISTING /tmp/ccTfuDSg.s 			page 13


 252              		.cfi_offset 18, -32
 253 0188 13040102 		addi	s0,sp,32
 254              		.cfi_def_cfa 8, 0
  18:src/kernel/stdio.cpp ****     ibuffer = new SharedBuffer<char>();
 255              		.loc 1 18 5
 256              	.LVL12:
 257              	.LBB194:
 258              	.LBB195:
  21:src/kernel/../../h/../h/shared_buffer.hpp ****     
 259              		.loc 4 21 5 is_stmt 0
 260 018c 97070000 		lla	a5,_ZN12SharedBufferIcE5cacheE
 260      93870700 
 261 0194 83B70700 		ld	a5,0(a5)
 262 0198 63800720 		beq	a5,zero,.L24
 263              	.L11:
 264 019c 97040000 		lla	s1,_ZN12SharedBufferIcE5cacheE
 264      93840400 
 265 01a4 03B50400 		ld	a0,0(s1)
 266              	.LEHB0:
 267 01a8 97000000 		call	_ZN11ObjectCache9alloc_objEv
 267      E7800000 
 268              	.LVL13:
 269              	.LBE195:
 270              	.LBE194:
 271              	.LBB197:
 272              	.LBB198:
  24:src/kernel/../../h/../h/shared_buffer.hpp **** 
 273              		.loc 4 24 60
 274 01b0 13070540 		addi	a4,a0,1024
 275              	.LVL14:
 276              	.LBB199:
 277              	.LBB200:
 278              		.file 5 "src/kernel/../../h/../h/../h/ksemaphore.hpp"
   1:src/kernel/../../h/../h/../h/ksemaphore.hpp **** #ifndef __semaphore__
   2:src/kernel/../../h/../h/../h/ksemaphore.hpp **** #define __semaphore__
   3:src/kernel/../../h/../h/../h/ksemaphore.hpp **** 
   4:src/kernel/../../h/../h/../h/ksemaphore.hpp **** #include"../h/ptr_queue.hpp"
   5:src/kernel/../../h/../h/../h/ksemaphore.hpp **** #include "slab_allocator.h"
   6:src/kernel/../../h/../h/../h/ksemaphore.hpp **** 
   7:src/kernel/../../h/../h/../h/ksemaphore.hpp **** /* Class used to describe semaphore in kernel code */
   8:src/kernel/../../h/../h/../h/ksemaphore.hpp **** 
   9:src/kernel/../../h/../h/../h/ksemaphore.hpp **** class KSemaphore
  10:src/kernel/../../h/../h/../h/ksemaphore.hpp **** {
  11:src/kernel/../../h/../h/../h/ksemaphore.hpp ****     static ObjectCache* cache; 
  12:src/kernel/../../h/../h/../h/ksemaphore.hpp **** public:
  13:src/kernel/../../h/../h/../h/ksemaphore.hpp ****     //#include"../h/kernel_operators.hpp" /* allocation and deallocation */
  14:src/kernel/../../h/../h/../h/ksemaphore.hpp ****     
  15:src/kernel/../../h/../h/../h/ksemaphore.hpp ****     __SLAB_ALLOCATION__(KSemaphore, nullptr, nullptr)
  16:src/kernel/../../h/../h/../h/ksemaphore.hpp **** 
  17:src/kernel/../../h/../h/../h/ksemaphore.hpp ****     KSemaphore(unsigned val):val(val)
 279              		.loc 5 17 37
 280 01b4 93071000 		li	a5,1
 281 01b8 2324F540 		sw	a5,1032(a0)
 282              	.LVL15:
 283              	.LBB201:
 284              	.LBB202:
 285              		.file 6 "src/kernel/../../h/../h/../h/../h/ptr_queue.hpp"
GAS LISTING /tmp/ccTfuDSg.s 			page 14


   1:src/kernel/../../h/../h/../h/../h/ptr_queue.hpp **** #ifndef _queue_h
   2:src/kernel/../../h/../h/../h/../h/ptr_queue.hpp **** #define _queue_h
   3:src/kernel/../../h/../h/../h/../h/ptr_queue.hpp **** 
   4:src/kernel/../../h/../h/../h/../h/ptr_queue.hpp **** //#include"../h/tcb.hpp"
   5:src/kernel/../../h/../h/../h/../h/ptr_queue.hpp **** //#include"../h/testing.hpp"
   6:src/kernel/../../h/../h/../h/../h/ptr_queue.hpp **** #include"../lib/hw.h"
   7:src/kernel/../../h/../h/../h/../h/ptr_queue.hpp **** #include"../h/memory_allocator.hpp"
   8:src/kernel/../../h/../h/../h/../h/ptr_queue.hpp **** #include "object_cache.h"
   9:src/kernel/../../h/../h/../h/../h/ptr_queue.hpp **** #include "slab_allocator.h"
  10:src/kernel/../../h/../h/../h/../h/ptr_queue.hpp **** 
  11:src/kernel/../../h/../h/../h/../h/ptr_queue.hpp **** class TCB;
  12:src/kernel/../../h/../h/../h/../h/ptr_queue.hpp **** 
  13:src/kernel/../../h/../h/../h/../h/ptr_queue.hpp **** class TcbQueue{
  14:src/kernel/../../h/../h/../h/../h/ptr_queue.hpp ****        
  15:src/kernel/../../h/../h/../h/../h/ptr_queue.hpp ****     TCB *head, *tail;
  16:src/kernel/../../h/../h/../h/../h/ptr_queue.hpp ****     int tmpNum;
  17:src/kernel/../../h/../h/../h/../h/ptr_queue.hpp ****     void brisi(){
  18:src/kernel/../../h/../h/../h/../h/ptr_queue.hpp ****         while(!isEmpty())
  19:src/kernel/../../h/../h/../h/../h/ptr_queue.hpp ****             remove();
  20:src/kernel/../../h/../h/../h/../h/ptr_queue.hpp ****     }
  21:src/kernel/../../h/../h/../h/../h/ptr_queue.hpp ****     static ObjectCache* cache;
  22:src/kernel/../../h/../h/../h/../h/ptr_queue.hpp **** public:
  23:src/kernel/../../h/../h/../h/../h/ptr_queue.hpp ****     //#include"../h/kernel_operators.hpp"
  24:src/kernel/../../h/../h/../h/../h/ptr_queue.hpp **** 
  25:src/kernel/../../h/../h/../h/../h/ptr_queue.hpp ****     __SLAB_ALLOCATION__(TcbQueue, nullptr, nullptr);
  26:src/kernel/../../h/../h/../h/../h/ptr_queue.hpp ****     TcbQueue():head(nullptr), tail(nullptr), tmpNum(0){}
 286              		.loc 6 26 54
 287 01bc 23380540 		sd	zero,1040(a0)
 288 01c0 233C0540 		sd	zero,1048(a0)
 289 01c4 23200542 		sw	zero,1056(a0)
 290              	.LVL16:
 291              	.LBE202:
 292              	.LBE201:
  18:src/kernel/../../h/../h/../h/ksemaphore.hpp ****     {
  19:src/kernel/../../h/../h/../h/ksemaphore.hpp ****         /* 
  20:src/kernel/../../h/../h/../h/ksemaphore.hpp ****         *  Put semaphore on front 
  21:src/kernel/../../h/../h/../h/ksemaphore.hpp ****         *  of the list of active semaphores
  22:src/kernel/../../h/../h/../h/ksemaphore.hpp ****         */
  23:src/kernel/../../h/../h/../h/ksemaphore.hpp ****         next = activeSemaphores; 
 293              		.loc 5 23 9 is_stmt 1
 294              		.loc 5 23 14 is_stmt 0
 295 01c8 97070000 		lla	a5,_ZN10KSemaphore16activeSemaphoresE
 295      93870700 
 296 01d0 83B60700 		ld	a3,0(a5)
 297 01d4 2330D540 		sd	a3,1024(a0)
  24:src/kernel/../../h/../h/../h/ksemaphore.hpp ****         activeSemaphores = this;
 298              		.loc 5 24 9 is_stmt 1
 299              	.LVL17:
 300              	.LBE200:
 301              	.LBE199:
  24:src/kernel/../../h/../h/shared_buffer.hpp **** 
 302              		.loc 4 24 60 is_stmt 0
 303 01d8 93068542 		addi	a3,a0,1064
 304              	.LVL18:
 305              	.LBB203:
 306              	.LBB204:
  17:src/kernel/../../h/../h/../h/ksemaphore.hpp ****     {
GAS LISTING /tmp/ccTfuDSg.s 			page 15


 307              		.loc 5 17 37
 308 01dc 23280542 		sw	zero,1072(a0)
 309              	.LVL19:
 310              	.LBB205:
 311              	.LBB206:
 312              		.loc 6 26 54
 313 01e0 233C0542 		sd	zero,1080(a0)
 314 01e4 23300544 		sd	zero,1088(a0)
 315 01e8 23240544 		sw	zero,1096(a0)
 316              	.LVL20:
 317              	.LBE206:
 318              	.LBE205:
  23:src/kernel/../../h/../h/../h/ksemaphore.hpp ****         activeSemaphores = this;
 319              		.loc 5 23 9 is_stmt 1
  23:src/kernel/../../h/../h/../h/ksemaphore.hpp ****         activeSemaphores = this;
 320              		.loc 5 23 14 is_stmt 0
 321 01ec 2334E542 		sd	a4,1064(a0)
 322              		.loc 5 24 9 is_stmt 1
 323              	.LVL21:
 324              	.LBE204:
 325              	.LBE203:
  24:src/kernel/../../h/../h/shared_buffer.hpp **** 
 326              		.loc 4 24 60 is_stmt 0
 327 01f0 13070545 		addi	a4,a0,1104
 328              	.LVL22:
 329              	.LBB207:
 330              	.LBB208:
  17:src/kernel/../../h/../h/../h/ksemaphore.hpp ****     {
 331              		.loc 5 17 37
 332 01f4 13060040 		li	a2,1024
 333 01f8 232CC544 		sw	a2,1112(a0)
 334              	.LVL23:
 335              	.LBB209:
 336              	.LBB210:
 337              		.loc 6 26 54
 338 01fc 23300546 		sd	zero,1120(a0)
 339 0200 23340546 		sd	zero,1128(a0)
 340 0204 23280546 		sw	zero,1136(a0)
 341              	.LVL24:
 342              	.LBE210:
 343              	.LBE209:
  23:src/kernel/../../h/../h/../h/ksemaphore.hpp ****         activeSemaphores = this;
 344              		.loc 5 23 9 is_stmt 1
  23:src/kernel/../../h/../h/../h/ksemaphore.hpp ****         activeSemaphores = this;
 345              		.loc 5 23 14 is_stmt 0
 346 0208 2338D544 		sd	a3,1104(a0)
 347              		.loc 5 24 9 is_stmt 1
 348              		.loc 5 24 26 is_stmt 0
 349 020c 23B0E700 		sd	a4,0(a5)
 350              	.LVL25:
 351              	.LBE208:
 352              	.LBE207:
  24:src/kernel/../../h/../h/shared_buffer.hpp **** 
 353              		.loc 4 24 60
 354 0210 232C0546 		sw	zero,1144(a0)
 355 0214 232E0546 		sw	zero,1148(a0)
 356 0218 23200548 		sw	zero,1152(a0)
GAS LISTING /tmp/ccTfuDSg.s 			page 16


 357              	.LVL26:
 358              	.LBE198:
 359              	.LBE197:
  18:src/kernel/stdio.cpp ****     ibuffer = new SharedBuffer<char>();
 360              		.loc 1 18 13
 361 021c 97070000 		sd	a0,_ZN5StdIO7ibufferE,a5
 361      23B0A700 
  19:src/kernel/stdio.cpp ****     obuffer = new SharedBuffer<char>();
 362              		.loc 1 19 5 is_stmt 1
 363              	.LVL27:
 364              	.LBB211:
 365              	.LBB212:
  21:src/kernel/../../h/../h/shared_buffer.hpp ****     
 366              		.loc 4 21 5 is_stmt 0
 367 0224 83B70400 		ld	a5,0(s1)
 368 0228 6384071C 		beq	a5,zero,.L25
 369              	.L13:
 370 022c 97070000 		lla	a5,_ZN12SharedBufferIcE5cacheE
 370      93870700 
 371 0234 03B50700 		ld	a0,0(a5)
 372 0238 97000000 		call	_ZN11ObjectCache9alloc_objEv
 372      E7800000 
 373              	.LVL28:
 374              	.LBE212:
 375              	.LBE211:
 376              	.LBB214:
 377              	.LBB215:
  24:src/kernel/../../h/../h/shared_buffer.hpp **** 
 378              		.loc 4 24 60
 379 0240 13070540 		addi	a4,a0,1024
 380              	.LVL29:
 381              	.LBB216:
 382              	.LBB217:
  17:src/kernel/../../h/../h/../h/ksemaphore.hpp ****     {
 383              		.loc 5 17 37
 384 0244 93071000 		li	a5,1
 385 0248 2324F540 		sw	a5,1032(a0)
 386              	.LVL30:
 387              	.LBB218:
 388              	.LBB219:
 389              		.loc 6 26 54
 390 024c 23380540 		sd	zero,1040(a0)
 391 0250 233C0540 		sd	zero,1048(a0)
 392 0254 23200542 		sw	zero,1056(a0)
 393              	.LVL31:
 394              	.LBE219:
 395              	.LBE218:
  23:src/kernel/../../h/../h/../h/ksemaphore.hpp ****         activeSemaphores = this;
 396              		.loc 5 23 9 is_stmt 1
  23:src/kernel/../../h/../h/../h/ksemaphore.hpp ****         activeSemaphores = this;
 397              		.loc 5 23 14 is_stmt 0
 398 0258 97070000 		lla	a5,_ZN10KSemaphore16activeSemaphoresE
 398      93870700 
 399 0260 83B60700 		ld	a3,0(a5)
 400 0264 2330D540 		sd	a3,1024(a0)
 401              		.loc 5 24 9 is_stmt 1
 402              	.LVL32:
GAS LISTING /tmp/ccTfuDSg.s 			page 17


 403              	.LBE217:
 404              	.LBE216:
  24:src/kernel/../../h/../h/shared_buffer.hpp **** 
 405              		.loc 4 24 60 is_stmt 0
 406 0268 93068542 		addi	a3,a0,1064
 407              	.LVL33:
 408              	.LBB220:
 409              	.LBB221:
  17:src/kernel/../../h/../h/../h/ksemaphore.hpp ****     {
 410              		.loc 5 17 37
 411 026c 23280542 		sw	zero,1072(a0)
 412              	.LVL34:
 413              	.LBB222:
 414              	.LBB223:
 415              		.loc 6 26 54
 416 0270 233C0542 		sd	zero,1080(a0)
 417 0274 23300544 		sd	zero,1088(a0)
 418 0278 23240544 		sw	zero,1096(a0)
 419              	.LVL35:
 420              	.LBE223:
 421              	.LBE222:
  23:src/kernel/../../h/../h/../h/ksemaphore.hpp ****         activeSemaphores = this;
 422              		.loc 5 23 9 is_stmt 1
  23:src/kernel/../../h/../h/../h/ksemaphore.hpp ****         activeSemaphores = this;
 423              		.loc 5 23 14 is_stmt 0
 424 027c 2334E542 		sd	a4,1064(a0)
 425              		.loc 5 24 9 is_stmt 1
 426              	.LVL36:
 427              	.LBE221:
 428              	.LBE220:
  24:src/kernel/../../h/../h/shared_buffer.hpp **** 
 429              		.loc 4 24 60 is_stmt 0
 430 0280 13070545 		addi	a4,a0,1104
 431              	.LVL37:
 432              	.LBB224:
 433              	.LBB225:
  17:src/kernel/../../h/../h/../h/ksemaphore.hpp ****     {
 434              		.loc 5 17 37
 435 0284 13060040 		li	a2,1024
 436 0288 232CC544 		sw	a2,1112(a0)
 437              	.LVL38:
 438              	.LBB226:
 439              	.LBB227:
 440              		.loc 6 26 54
 441 028c 23300546 		sd	zero,1120(a0)
 442 0290 23340546 		sd	zero,1128(a0)
 443 0294 23280546 		sw	zero,1136(a0)
 444              	.LVL39:
 445              	.LBE227:
 446              	.LBE226:
  23:src/kernel/../../h/../h/../h/ksemaphore.hpp ****         activeSemaphores = this;
 447              		.loc 5 23 9 is_stmt 1
  23:src/kernel/../../h/../h/../h/ksemaphore.hpp ****         activeSemaphores = this;
 448              		.loc 5 23 14 is_stmt 0
 449 0298 2338D544 		sd	a3,1104(a0)
 450              		.loc 5 24 9 is_stmt 1
 451              		.loc 5 24 26 is_stmt 0
GAS LISTING /tmp/ccTfuDSg.s 			page 18


 452 029c 23B0E700 		sd	a4,0(a5)
 453              	.LVL40:
 454              	.LBE225:
 455              	.LBE224:
  24:src/kernel/../../h/../h/shared_buffer.hpp **** 
 456              		.loc 4 24 60
 457 02a0 232C0546 		sw	zero,1144(a0)
 458 02a4 232E0546 		sw	zero,1148(a0)
 459 02a8 23200548 		sw	zero,1152(a0)
 460              	.LVL41:
 461              	.LBE215:
 462              	.LBE214:
  19:src/kernel/stdio.cpp ****     obuffer = new SharedBuffer<char>();
 463              		.loc 1 19 13
 464 02ac 97070000 		sd	a0,_ZN5StdIO7obufferE,a5
 464      23B0A700 
  20:src/kernel/stdio.cpp ****     blockSem = new KSemaphore(0);
 465              		.loc 1 20 5 is_stmt 1
 466              	.LVL42:
 467              	.LBB228:
 468              	.LBB229:
  15:src/kernel/../../h/../h/../h/ksemaphore.hpp **** 
 469              		.loc 5 15 5
 470 02b4 97070000 		lla	a5,_ZN10KSemaphore5cacheE
 470      93870700 
 471 02bc 83B70700 		ld	a5,0(a5)
 472 02c0 63840718 		beq	a5,zero,.L26
 473              	.L16:
  15:src/kernel/../../h/../h/../h/ksemaphore.hpp **** 
 474              		.loc 5 15 5
 475 02c4 97070000 		lla	a5,_ZN10KSemaphore5cacheE
 475      93870700 
 476 02cc 03B50700 		ld	a0,0(a5)
 477 02d0 97000000 		call	_ZN11ObjectCache9alloc_objEv
 477      E7800000 
 478              	.LVL43:
 479              	.LBE229:
 480              	.LBE228:
 481              	.LBB231:
 482              	.LBB232:
  17:src/kernel/../../h/../h/../h/ksemaphore.hpp ****     {
 483              		.loc 5 17 37 is_stmt 0
 484 02d8 23240500 		sw	zero,8(a0)
 485              	.LVL44:
 486              	.LBB233:
 487              	.LBB234:
 488              		.loc 6 26 54
 489 02dc 23380500 		sd	zero,16(a0)
 490 02e0 233C0500 		sd	zero,24(a0)
 491 02e4 23200502 		sw	zero,32(a0)
 492              	.LVL45:
 493              	.LBE234:
 494              	.LBE233:
  23:src/kernel/../../h/../h/../h/ksemaphore.hpp ****         activeSemaphores = this;
 495              		.loc 5 23 9 is_stmt 1
  23:src/kernel/../../h/../h/../h/ksemaphore.hpp ****         activeSemaphores = this;
 496              		.loc 5 23 14 is_stmt 0
GAS LISTING /tmp/ccTfuDSg.s 			page 19


 497 02e8 97070000 		lla	a5,_ZN10KSemaphore16activeSemaphoresE
 497      93870700 
 498 02f0 03B70700 		ld	a4,0(a5)
 499 02f4 2330E500 		sd	a4,0(a0)
 500              		.loc 5 24 9 is_stmt 1
 501              		.loc 5 24 26 is_stmt 0
 502 02f8 23B0A700 		sd	a0,0(a5)
 503              	.LVL46:
 504              	.LBE232:
 505              	.LBE231:
  20:src/kernel/stdio.cpp ****     blockSem = new KSemaphore(0);
 506              		.loc 1 20 14
 507 02fc 97070000 		sd	a0,_ZN5StdIO8blockSemE,a5
 507      23B0A700 
  21:src/kernel/stdio.cpp ****     iostatus = (unsigned char*)CONSOLE_STATUS;
 508              		.loc 1 21 5 is_stmt 1
  21:src/kernel/stdio.cpp ****     iostatus = (unsigned char*)CONSOLE_STATUS;
 509              		.loc 1 21 14 is_stmt 0
 510 0304 97070000 		lla	a5,CONSOLE_STATUS
 510      93870700 
 511 030c 83B70700 		ld	a5,0(a5)
 512 0310 17070000 		sd	a5,_ZN5StdIO8iostatusE,a4
 512      2330F700 
  22:src/kernel/stdio.cpp ****     idata = (char*)CONSOLE_RX_DATA;
 513              		.loc 1 22 5 is_stmt 1
  22:src/kernel/stdio.cpp ****     idata = (char*)CONSOLE_RX_DATA;
 514              		.loc 1 22 11 is_stmt 0
 515 0318 97070000 		lla	a5,CONSOLE_RX_DATA
 515      93870700 
 516 0320 83B70700 		ld	a5,0(a5)
 517 0324 17070000 		sd	a5,_ZN5StdIO5idataE,a4
 517      2330F700 
  23:src/kernel/stdio.cpp ****     odata = (char*)CONSOLE_TX_DATA;
 518              		.loc 1 23 5 is_stmt 1
  23:src/kernel/stdio.cpp ****     odata = (char*)CONSOLE_TX_DATA;
 519              		.loc 1 23 11 is_stmt 0
 520 032c 97070000 		lla	a5,CONSOLE_TX_DATA
 520      93870700 
 521 0334 83B70700 		ld	a5,0(a5)
 522 0338 17070000 		sd	a5,_ZN5StdIO5odataE,a4
 522      2330F700 
  25:src/kernel/stdio.cpp ****     uint64* stack = (uint64*)SlabAllocator::getInstance().kmalloc(DEFAULT_STACK_SIZE);
 523              		.loc 1 25 5 is_stmt 1
  25:src/kernel/stdio.cpp ****     uint64* stack = (uint64*)SlabAllocator::getInstance().kmalloc(DEFAULT_STACK_SIZE);
 524              		.loc 1 25 57 is_stmt 0
 525 0340 97000000 		call	_ZN13SlabAllocator11getInstanceEv
 525      E7800000 
 526              	.LVL47:
  25:src/kernel/stdio.cpp ****     uint64* stack = (uint64*)SlabAllocator::getInstance().kmalloc(DEFAULT_STACK_SIZE);
 527              		.loc 1 25 66
 528 0348 B7150000 		li	a1,4096
 529 034c 97000000 		call	_ZN13SlabAllocator7kmallocEm
 529      E7800000 
 530              	.LVL48:
  26:src/kernel/stdio.cpp ****     out_thread = TCB::createThread(outputWorker, nullptr, stack);
 531              		.loc 1 26 5 is_stmt 1
  26:src/kernel/stdio.cpp ****     out_thread = TCB::createThread(outputWorker, nullptr, stack);
GAS LISTING /tmp/ccTfuDSg.s 			page 20


 532              		.loc 1 26 35 is_stmt 0
 533 0354 13060500 		mv	a2,a0
 534 0358 93050000 		li	a1,0
 535 035c 17050000 		lla	a0,_ZN5StdIO12outputWorkerEPv
 535      13050500 
 536              	.LVL49:
 537 0364 97000000 		call	_ZN3TCB12createThreadEPFvPvES0_Pm
 537      E7800000 
 538              	.LVL50:
  26:src/kernel/stdio.cpp ****     out_thread = TCB::createThread(outputWorker, nullptr, stack);
 539              		.loc 1 26 16
 540 036c 97070000 		sd	a0,_ZN5StdIO10out_threadE,a5
 540      23B0A700 
  27:src/kernel/stdio.cpp ****     out_thread->setKernelMode();
 541              		.loc 1 27 5 is_stmt 1
 542              	.LVL51:
 543              	.LBB235:
 544              	.LBB236:
 545              		.file 7 "src/kernel/../../h/tcb.hpp"
   1:src/kernel/../../h/tcb.hpp **** #ifndef __tcb__h
   2:src/kernel/../../h/tcb.hpp **** #define __tcb__h
   3:src/kernel/../../h/tcb.hpp **** 
   4:src/kernel/../../h/tcb.hpp **** #include"../h/memory_allocator.hpp"
   5:src/kernel/../../h/tcb.hpp **** #include"../h/slab_allocator.h"
   6:src/kernel/../../h/tcb.hpp **** #include "object_cache.h"
   7:src/kernel/../../h/tcb.hpp **** 
   8:src/kernel/../../h/tcb.hpp **** class KSemaphore;
   9:src/kernel/../../h/tcb.hpp **** 
  10:src/kernel/../../h/tcb.hpp **** /* THREAD CONTROL BLOCK */
  11:src/kernel/../../h/tcb.hpp **** class TCB{ 
  12:src/kernel/../../h/tcb.hpp ****     
  13:src/kernel/../../h/tcb.hpp **** public:
  14:src/kernel/../../h/tcb.hpp ****     //alokacija
  15:src/kernel/../../h/tcb.hpp ****     //#include"../h/kernel_operators.hpp"
  16:src/kernel/../../h/tcb.hpp ****     
  17:src/kernel/../../h/tcb.hpp ****     void* operator new(size_t sz); 
  18:src/kernel/../../h/tcb.hpp ****     void* operator new[](size_t sz);
  19:src/kernel/../../h/tcb.hpp ****     void operator delete(void* ptr);
  20:src/kernel/../../h/tcb.hpp ****     void operator delete[](void* ptr);
  21:src/kernel/../../h/tcb.hpp **** 
  22:src/kernel/../../h/tcb.hpp ****     using Body = void (*)(void*);
  23:src/kernel/../../h/tcb.hpp ****     enum TCBState{
  24:src/kernel/../../h/tcb.hpp ****         BLOCKED,
  25:src/kernel/../../h/tcb.hpp ****         READY,
  26:src/kernel/../../h/tcb.hpp ****         FINISHED,
  27:src/kernel/../../h/tcb.hpp ****         SLEEPING,
  28:src/kernel/../../h/tcb.hpp ****         PREPARING
  29:src/kernel/../../h/tcb.hpp ****     };
  30:src/kernel/../../h/tcb.hpp ****     
  31:src/kernel/../../h/tcb.hpp ****     ~TCB(){ 
  32:src/kernel/../../h/tcb.hpp ****         if(isKernelThread()){
  33:src/kernel/../../h/tcb.hpp ****             SlabAllocator::getInstance().kfree(this->stack);
  34:src/kernel/../../h/tcb.hpp ****         }
  35:src/kernel/../../h/tcb.hpp ****         else{
  36:src/kernel/../../h/tcb.hpp ****             MemoryAllocator& allocator = MemoryAllocator::getInstance(); 
  37:src/kernel/../../h/tcb.hpp ****             allocator.mem_free(this->stack);
  38:src/kernel/../../h/tcb.hpp ****         }
GAS LISTING /tmp/ccTfuDSg.s 			page 21


  39:src/kernel/../../h/tcb.hpp ****     }
  40:src/kernel/../../h/tcb.hpp ****     
  41:src/kernel/../../h/tcb.hpp ****     //nestaticki metodi
  42:src/kernel/../../h/tcb.hpp ****     void setState(TCBState s) {state = s;}
  43:src/kernel/../../h/tcb.hpp ****     TCBState getState() const{ return state; }
  44:src/kernel/../../h/tcb.hpp ****     void finish() { state = FINISHED; }
  45:src/kernel/../../h/tcb.hpp ****     bool isFinished(){ return state == FINISHED; }
  46:src/kernel/../../h/tcb.hpp ****     uint64 getTimeSlice() const { return timeSlice; }
  47:src/kernel/../../h/tcb.hpp ****     bool isSuspended(){return state == BLOCKED || state == SLEEPING;}
  48:src/kernel/../../h/tcb.hpp ****     void setKernelMode() { userMode = false; }
 546              		.loc 7 48 28
 547              		.loc 7 48 37 is_stmt 0
 548 0374 A30A0502 		sb	zero,53(a0)
 549              	.LVL52:
 550              	.LBE236:
 551              	.LBE235:
  28:src/kernel/stdio.cpp ****     out_thread->setKernelLocked();
 552              		.loc 1 28 5 is_stmt 1
 553              	.LBB237:
 554              	.LBB238:
  49:src/kernel/../../h/tcb.hpp ****     void setKernelLocked() { locked = true; }
 555              		.loc 7 49 30
 556              		.loc 7 49 37 is_stmt 0
 557 0378 93071000 		li	a5,1
 558 037c 230BF502 		sb	a5,54(a0)
 559              	.LVL53:
 560              	.LBE238:
 561              	.LBE237:
  29:src/kernel/stdio.cpp **** }
 562              		.loc 1 29 1
 563 0380 83308101 		ld	ra,24(sp)
 564              		.cfi_remember_state
 565              		.cfi_restore 1
 566 0384 03340101 		ld	s0,16(sp)
 567              		.cfi_restore 8
 568              		.cfi_def_cfa 2, 32
 569 0388 83348100 		ld	s1,8(sp)
 570              		.cfi_restore 9
 571 038c 03390100 		ld	s2,0(sp)
 572              		.cfi_restore 18
 573 0390 13010102 		addi	sp,sp,32
 574              		.cfi_def_cfa_offset 0
 575 0394 67800000 		jr	ra
 576              	.LVL54:
 577              	.L24:
 578              		.cfi_restore_state
 579              	.LBB239:
 580              	.LBB196:
  21:src/kernel/../../h/../h/shared_buffer.hpp ****     
 581              		.loc 4 21 5
 582 0398 13058005 		li	a0,88
 583 039c 97000000 		call	_ZN11ObjectCachenwEm
 583      E7800000 
 584              	.LVL55:
 585              	.LEHE0:
 586 03a4 93040500 		mv	s1,a0
 587 03a8 93070000 		li	a5,0
GAS LISTING /tmp/ccTfuDSg.s 			page 22


 588 03ac 13070000 		li	a4,0
 589 03b0 93060000 		li	a3,0
 590 03b4 13068048 		li	a2,1160
 591 03b8 97050000 		lla	a1,.LC0
 591      93850500 
 592              	.LEHB1:
 593 03c0 97000000 		call	_ZN11ObjectCacheC1EPKcmPFvPvES4_NS_12SlabMetaTypeE
 593      E7800000 
 594              	.LVL56:
 595              	.LEHE1:
 596 03c8 97070000 		sd	s1,_ZN12SharedBufferIcE5cacheE,a5
 596      23B09700 
 597 03d0 6FF0DFDC 		j	.L11
 598              	.L21:
 599 03d4 13090500 		mv	s2,a0
 600 03d8 13850400 		mv	a0,s1
 601 03dc 97000000 		call	_ZN11ObjectCachedlEPv
 601      E7800000 
 602              	.LVL57:
 603 03e4 13050900 		mv	a0,s2
 604              	.LEHB2:
 605 03e8 97000000 		call	_Unwind_Resume
 605      E7800000 
 606              	.LVL58:
 607              	.L25:
 608              	.LBE196:
 609              	.LBE239:
 610              	.LBB240:
 611              	.LBB213:
 612 03f0 13058005 		li	a0,88
 613 03f4 97000000 		call	_ZN11ObjectCachenwEm
 613      E7800000 
 614              	.LVL59:
 615              	.LEHE2:
 616 03fc 93040500 		mv	s1,a0
 617 0400 93070000 		li	a5,0
 618 0404 13070000 		li	a4,0
 619 0408 93060000 		li	a3,0
 620 040c 13068048 		li	a2,1160
 621 0410 97050000 		lla	a1,.LC0
 621      93850500 
 622              	.LEHB3:
 623 0418 97000000 		call	_ZN11ObjectCacheC1EPKcmPFvPvES4_NS_12SlabMetaTypeE
 623      E7800000 
 624              	.LVL60:
 625              	.LEHE3:
 626 0420 97070000 		sd	s1,_ZN12SharedBufferIcE5cacheE,a5
 626      23B09700 
 627 0428 6FF05FE0 		j	.L13
 628              	.L20:
 629 042c 13090500 		mv	s2,a0
 630 0430 13850400 		mv	a0,s1
 631 0434 97000000 		call	_ZN11ObjectCachedlEPv
 631      E7800000 
 632              	.LVL61:
 633 043c 13050900 		mv	a0,s2
 634              	.LEHB4:
GAS LISTING /tmp/ccTfuDSg.s 			page 23


 635 0440 97000000 		call	_Unwind_Resume
 635      E7800000 
 636              	.LVL62:
 637              	.L26:
 638              	.LBE213:
 639              	.LBE240:
 640              	.LBB241:
 641              	.LBB230:
  15:src/kernel/../../h/../h/../h/ksemaphore.hpp **** 
 642              		.loc 5 15 5 is_stmt 1
 643 0448 13058005 		li	a0,88
 644 044c 97000000 		call	_ZN11ObjectCachenwEm
 644      E7800000 
 645              	.LVL63:
 646              	.LEHE4:
 647 0454 93040500 		mv	s1,a0
 648 0458 93070000 		li	a5,0
 649 045c 13070000 		li	a4,0
 650 0460 93060000 		li	a3,0
 651 0464 13068002 		li	a2,40
 652 0468 97050000 		lla	a1,.LC1
 652      93850500 
 653              	.LEHB5:
 654 0470 97000000 		call	_ZN11ObjectCacheC1EPKcmPFvPvES4_NS_12SlabMetaTypeE
 654      E7800000 
 655              	.LVL64:
 656              	.LEHE5:
 657 0478 97070000 		sd	s1,_ZN10KSemaphore5cacheE,a5
 657      23B09700 
 658 0480 6FF05FE4 		j	.L16
 659              	.L19:
 660 0484 13090500 		mv	s2,a0
 661 0488 13850400 		mv	a0,s1
 662 048c 97000000 		call	_ZN11ObjectCachedlEPv
 662      E7800000 
 663              	.LVL65:
 664 0494 13050900 		mv	a0,s2
 665              	.LEHB6:
 666 0498 97000000 		call	_Unwind_Resume
 666      E7800000 
 667              	.LVL66:
 668              	.LEHE6:
 669              	.LBE230:
 670              	.LBE241:
 671              		.cfi_endproc
 672              	.LFE85:
 673              		.globl	__gxx_personality_v0
 674              		.section	.gcc_except_table,"aw",@progbits
 675              	.LLSDA85:
 676 0000 FF       		.byte	0xff
 677 0001 FF       		.byte	0xff
 678 0002 03       		.byte	0x3
 679 0003 5B       		.byte	0x5b
 680 0004 00000000 		.4byte	.LEHB0-.LFB85
 681 0008 00000000 		.4byte	.LEHE0-.LEHB0
 682 000c 00000000 		.4byte	0
 683 0010 00       		.byte	0
GAS LISTING /tmp/ccTfuDSg.s 			page 24


 684 0011 00000000 		.4byte	.LEHB1-.LFB85
 685 0015 00000000 		.4byte	.LEHE1-.LEHB1
 686 0019 00000000 		.4byte	.L21-.LFB85
 687 001d 00       		.byte	0
 688 001e 00000000 		.4byte	.LEHB2-.LFB85
 689 0022 00000000 		.4byte	.LEHE2-.LEHB2
 690 0026 00000000 		.4byte	0
 691 002a 00       		.byte	0
 692 002b 00000000 		.4byte	.LEHB3-.LFB85
 693 002f 00000000 		.4byte	.LEHE3-.LEHB3
 694 0033 00000000 		.4byte	.L20-.LFB85
 695 0037 00       		.byte	0
 696 0038 00000000 		.4byte	.LEHB4-.LFB85
 697 003c 00000000 		.4byte	.LEHE4-.LEHB4
 698 0040 00000000 		.4byte	0
 699 0044 00       		.byte	0
 700 0045 00000000 		.4byte	.LEHB5-.LFB85
 701 0049 00000000 		.4byte	.LEHE5-.LEHB5
 702 004d 00000000 		.4byte	.L19-.LFB85
 703 0051 00       		.byte	0
 704 0052 00000000 		.4byte	.LEHB6-.LFB85
 705 0056 00000000 		.4byte	.LEHE6-.LEHB6
 706 005a 00000000 		.4byte	0
 707 005e 00       		.byte	0
 708              		.text
 710              		.align	2
 711              		.globl	_ZN5StdIO11inputWorkerEv
 713              	_ZN5StdIO11inputWorkerEv:
 714              	.LFB87:
  59:src/kernel/stdio.cpp **** {
 715              		.loc 1 59 1
 716              		.cfi_startproc
 717 04a0 130101FF 		addi	sp,sp,-16
 718              		.cfi_def_cfa_offset 16
 719 04a4 23348100 		sd	s0,8(sp)
 720              		.cfi_offset 8, -8
 721 04a8 13040101 		addi	s0,sp,16
 722              		.cfi_def_cfa 8, 0
  61:src/kernel/stdio.cpp **** }
 723              		.loc 1 61 1 is_stmt 0
 724 04ac 03348100 		ld	s0,8(sp)
 725              		.cfi_restore 8
 726              		.cfi_def_cfa 2, 16
 727 04b0 13010101 		addi	sp,sp,16
 728              		.cfi_def_cfa_offset 0
 729 04b4 67800000 		jr	ra
 730              		.cfi_endproc
 731              	.LFE87:
 733              		.align	2
 734              		.globl	_ZN5StdIO15console_handlerEv
 736              	_ZN5StdIO15console_handlerEv:
 737              	.LFB88:
  63:src/kernel/stdio.cpp **** void StdIO::console_handler(){
 738              		.loc 1 63 30 is_stmt 1
 739              		.cfi_startproc
 740 04b8 130101FC 		addi	sp,sp,-64
 741              		.cfi_def_cfa_offset 64
GAS LISTING /tmp/ccTfuDSg.s 			page 25


 742 04bc 233C1102 		sd	ra,56(sp)
 743 04c0 23388102 		sd	s0,48(sp)
 744 04c4 23349102 		sd	s1,40(sp)
 745 04c8 23302103 		sd	s2,32(sp)
 746 04cc 233C3101 		sd	s3,24(sp)
 747              		.cfi_offset 1, -8
 748              		.cfi_offset 8, -16
 749              		.cfi_offset 9, -24
 750              		.cfi_offset 18, -32
 751              		.cfi_offset 19, -40
 752 04d0 13040104 		addi	s0,sp,64
 753              		.cfi_def_cfa 8, 0
  64:src/kernel/stdio.cpp ****     uint64 t = plic_claim();
 754              		.loc 1 64 5
  64:src/kernel/stdio.cpp ****     uint64 t = plic_claim();
 755              		.loc 1 64 26 is_stmt 0
 756 04d4 97000000 		call	plic_claim
 756      E7800000 
 757              	.LVL67:
  65:src/kernel/stdio.cpp ****     if(t == CONSOLE_IRQ)
 758              		.loc 1 65 5 is_stmt 1
 759              	.LBB262:
 760 04dc 9307A000 		li	a5,10
 761 04e0 6310F512 		bne	a0,a5,.L30
 762              	.LBE262:
  68:src/kernel/stdio.cpp ****         if(input_ready())
 763              		.loc 1 68 9
 764              	.LBB282:
 765              	.LBB263:
 766              	.LBB264:
 767              	.LBB265:
  25:src/kernel/../../h/stdio.hpp ****     static bool output_ready() { return *iostatus & CONSOLE_TX_STATUS_BIT; }
 768              		.loc 3 25 32
  25:src/kernel/../../h/stdio.hpp ****     static bool output_ready() { return *iostatus & CONSOLE_TX_STATUS_BIT; }
 769              		.loc 3 25 39 is_stmt 0
 770 04e4 97070000 		lla	a5,_ZN5StdIO8iostatusE
 770      93870700 
 771 04ec 83B70700 		ld	a5,0(a5)
 772 04f0 83C70700 		lbu	a5,0(a5)
 773              	.LBE265:
 774              	.LBE264:
  68:src/kernel/stdio.cpp ****         if(input_ready())
 775              		.loc 1 68 9
 776 04f4 93F71700 		andi	a5,a5,1
 777 04f8 6382070A 		beq	a5,zero,.L31
 778              	.LBB266:
  70:src/kernel/stdio.cpp ****             char c = *idata;
 779              		.loc 1 70 13 is_stmt 1
  70:src/kernel/stdio.cpp ****             char c = *idata;
 780              		.loc 1 70 22 is_stmt 0
 781 04fc 97070000 		lla	a5,_ZN5StdIO5idataE
 781      93870700 
 782 0504 83B70700 		ld	a5,0(a5)
  70:src/kernel/stdio.cpp ****             char c = *idata;
 783              		.loc 1 70 18
 784 0508 03C90700 		lbu	s2,0(a5)
 785              	.LVL68:
GAS LISTING /tmp/ccTfuDSg.s 			page 26


  71:src/kernel/stdio.cpp ****             plic_complete(CONSOLE_IRQ);
 786              		.loc 1 71 13 is_stmt 1
  71:src/kernel/stdio.cpp ****             plic_complete(CONSOLE_IRQ);
 787              		.loc 1 71 26 is_stmt 0
 788 050c 1305A000 		li	a0,10
 789              	.LVL69:
 790 0510 97000000 		call	plic_complete
 790      E7800000 
 791              	.LVL70:
  73:src/kernel/stdio.cpp ****             if(ibuffer->tmpLen < SharedBuffer<char>::BUFFER_SIZE){
 792              		.loc 1 73 13 is_stmt 1
  73:src/kernel/stdio.cpp ****             if(ibuffer->tmpLen < SharedBuffer<char>::BUFFER_SIZE){
 793              		.loc 1 73 25 is_stmt 0
 794 0518 97070000 		lla	a5,_ZN5StdIO7ibufferE
 794      93870700 
 795 0520 83B40700 		ld	s1,0(a5)
 796 0524 03A70448 		lw	a4,1152(s1)
  73:src/kernel/stdio.cpp ****             if(ibuffer->tmpLen < SharedBuffer<char>::BUFFER_SIZE){
 797              		.loc 1 73 13
 798 0528 9307F03F 		li	a5,1023
 799 052c 63CEE70C 		bgt	a4,a5,.L29
  74:src/kernel/stdio.cpp ****                 ibuffer->put(c); 
 800              		.loc 1 74 17 is_stmt 1
 801              	.LVL71:
 802              	.LBB267:
 803              	.LBB268:
  27:src/kernel/../../h/../h/shared_buffer.hpp ****         mutex.wait();
 804              		.loc 4 27 28 is_stmt 0
 805 0530 13850445 		addi	a0,s1,1104
 806 0534 97000000 		call	_ZN10KSemaphore4waitEv
 806      E7800000 
 807              	.LVL72:
  28:src/kernel/../../h/../h/shared_buffer.hpp **** 
 808              		.loc 4 28 19
 809 053c 93890440 		addi	s3,s1,1024
 810 0540 13850900 		mv	a0,s3
 811 0544 97000000 		call	_ZN10KSemaphore4waitEv
 811      E7800000 
 812              	.LVL73:
  30:src/kernel/../../h/../h/shared_buffer.hpp ****         buffer[tail]=c;
 813              		.loc 4 30 9
 814 054c 83A70448 		lw	a5,1152(s1)
 815 0550 9B871700 		addiw	a5,a5,1
 816 0554 23A0F448 		sw	a5,1152(s1)
  31:src/kernel/../../h/../h/shared_buffer.hpp ****         tail=(tail+1)%BUFFER_SIZE;
 817              		.loc 4 31 16
 818 0558 83A7C447 		lw	a5,1148(s1)
  31:src/kernel/../../h/../h/shared_buffer.hpp ****         tail=(tail+1)%BUFFER_SIZE;
 819              		.loc 4 31 9
 820 055c 3387F400 		add	a4,s1,a5
 821 0560 23002701 		sb	s2,0(a4)
  32:src/kernel/../../h/../h/shared_buffer.hpp ****     
 822              		.loc 4 32 19
 823 0564 9B871700 		addiw	a5,a5,1
  32:src/kernel/../../h/../h/shared_buffer.hpp ****     
 824              		.loc 4 32 22
 825 0568 1BD7F741 		sraiw	a4,a5,31
GAS LISTING /tmp/ccTfuDSg.s 			page 27


 826 056c 1B576701 		srliw	a4,a4,22
 827 0570 BB87E700 		addw	a5,a5,a4
 828 0574 93F7F73F 		andi	a5,a5,1023
 829 0578 BB87E740 		subw	a5,a5,a4
  32:src/kernel/../../h/../h/shared_buffer.hpp ****     
 830              		.loc 4 32 9
 831 057c 23AEF446 		sw	a5,1148(s1)
  34:src/kernel/../../h/../h/shared_buffer.hpp ****         mutex.signal();
 832              		.loc 4 34 29
 833 0580 13858442 		addi	a0,s1,1064
 834 0584 97000000 		call	_ZN10KSemaphore6signalEv
 834      E7800000 
 835              	.LVL74:
  35:src/kernel/../../h/../h/shared_buffer.hpp ****     }
 836              		.loc 4 35 21
 837 058c 13850900 		mv	a0,s3
 838 0590 97000000 		call	_ZN10KSemaphore6signalEv
 838      E7800000 
 839              	.LVL75:
 840 0598 6F000007 		j	.L29
 841              	.LVL76:
 842              	.L31:
 843              	.LBE268:
 844              	.LBE267:
 845              	.LBE266:
 846              	.LBB269:
  80:src/kernel/stdio.cpp ****             plic_complete(CONSOLE_IRQ);
 847              		.loc 1 80 13 is_stmt 1
  80:src/kernel/stdio.cpp ****             plic_complete(CONSOLE_IRQ);
 848              		.loc 1 80 26 is_stmt 0
 849 059c 1305A000 		li	a0,10
 850              	.LVL77:
 851 05a0 97000000 		call	plic_complete
 851      E7800000 
 852              	.LVL78:
  81:src/kernel/stdio.cpp ****             if(out_thread != nullptr)
 853              		.loc 1 81 13 is_stmt 1
 854              	.LBB270:
  81:src/kernel/stdio.cpp ****             if(out_thread != nullptr)
 855              		.loc 1 81 27 is_stmt 0
 856 05a8 97070000 		lla	a5,_ZN5StdIO10out_threadE
 856      93870700 
 857 05b0 83B70700 		ld	a5,0(a5)
  81:src/kernel/stdio.cpp ****             if(out_thread != nullptr)
 858              		.loc 1 81 13
 859 05b4 638A0704 		beq	a5,zero,.L29
 860              	.LBB271:
  83:src/kernel/stdio.cpp ****                 uint64 sstatus = Riscv::r_sstatus(), sepc = Riscv::r_sepc();
 861              		.loc 1 83 17 is_stmt 1
 862              	.LBB272:
 863              	.LBB273:
 219:src/kernel/../../h/riscv.hpp ****     asm volatile("csrr %0, sstatus" : "=r" (sstatus));
 864              		.loc 2 219 5
 220:src/kernel/../../h/riscv.hpp ****     return sstatus;
 865              		.loc 2 220 5
 220:src/kernel/../../h/riscv.hpp ****     return sstatus;
 866              		.loc 2 220 54 is_stmt 0
GAS LISTING /tmp/ccTfuDSg.s 			page 28


 867              	 #APP
 868              	# 220 "src/kernel/../../h/riscv.hpp" 1
 869              		csrr a5, sstatus
 870              	# 0 "" 2
 871              	 #NO_APP
 872 05bc 2334F4FC 		sd	a5,-56(s0)
 873              		.loc 2 221 5 is_stmt 1
 874              		.loc 2 221 12 is_stmt 0
 875 05c0 033984FC 		ld	s2,-56(s0)
 876              	.LVL79:
 877              	.LBE273:
 878              	.LBE272:
 879              	.LBB274:
 880              	.LBB275:
 145:src/kernel/../../h/riscv.hpp ****     asm volatile("csrr %0, sepc" : "=r" (sepc));
 881              		.loc 2 145 5 is_stmt 1
 146:src/kernel/../../h/riscv.hpp ****     return sepc;
 882              		.loc 2 146 5
 146:src/kernel/../../h/riscv.hpp ****     return sepc;
 883              		.loc 2 146 48 is_stmt 0
 884              	 #APP
 885              	# 146 "src/kernel/../../h/riscv.hpp" 1
 886              		csrr a5, sepc
 887              	# 0 "" 2
 888              	 #NO_APP
 889 05c8 2330F4FC 		sd	a5,-64(s0)
 147:src/kernel/../../h/riscv.hpp **** } 
 890              		.loc 2 147 5 is_stmt 1
 147:src/kernel/../../h/riscv.hpp **** } 
 891              		.loc 2 147 12 is_stmt 0
 892 05cc 833404FC 		ld	s1,-64(s0)
 893              	.LVL80:
 894              	.LBE275:
 895              	.LBE274:
  84:src/kernel/stdio.cpp ****                 Scheduler::put_front(out_thread);
 896              		.loc 1 84 17 is_stmt 1
 897              	.LBB276:
 898              	.LBB277:
 899              		.file 8 "src/kernel/../../h/scheduler.hpp"
   1:src/kernel/../../h/scheduler.hpp **** #ifndef _scheduler_
   2:src/kernel/../../h/scheduler.hpp **** #define _scheduler_
   3:src/kernel/../../h/scheduler.hpp **** 
   4:src/kernel/../../h/scheduler.hpp **** #include"../lib/hw.h"
   5:src/kernel/../../h/scheduler.hpp **** #include"../h/ptr_queue.hpp"
   6:src/kernel/../../h/scheduler.hpp **** 
   7:src/kernel/../../h/scheduler.hpp **** class Scheduler
   8:src/kernel/../../h/scheduler.hpp **** {
   9:src/kernel/../../h/scheduler.hpp **** public:  
  10:src/kernel/../../h/scheduler.hpp ****     static void initalize();
  11:src/kernel/../../h/scheduler.hpp ****     static TCB* get();
  12:src/kernel/../../h/scheduler.hpp ****     static void put(TCB*);
  13:src/kernel/../../h/scheduler.hpp ****     static void finalize();
  14:src/kernel/../../h/scheduler.hpp ****     static void put_sleeper(TCB*, time_t);
  15:src/kernel/../../h/scheduler.hpp ****     static void update_sleep();
  16:src/kernel/../../h/scheduler.hpp ****     static void put_front(TCB* t) { queue.insertFront(t); }
 900              		.loc 8 16 37
 901              		.loc 8 16 54 is_stmt 0
GAS LISTING /tmp/ccTfuDSg.s 			page 29


 902 05d0 97070000 		lla	a5,_ZN5StdIO10out_threadE
 902      93870700 
 903 05d8 83B50700 		ld	a1,0(a5)
 904 05dc 17050000 		lla	a0,_ZN9Scheduler5queueE
 904      13050500 
 905 05e4 97000000 		call	_ZN8TcbQueue11insertFrontEP3TCB
 905      E7800000 
 906              	.LVL81:
 907              	.LBE277:
 908              	.LBE276:
  86:src/kernel/stdio.cpp ****                 TCB::yield();
 909              		.loc 1 86 17 is_stmt 1
  86:src/kernel/stdio.cpp ****                 TCB::yield();
 910              		.loc 1 86 27 is_stmt 0
 911 05ec 97000000 		call	_ZN3TCB5yieldEv
 911      E7800000 
 912              	.LVL82:
  88:src/kernel/stdio.cpp ****                 Riscv::w_sstatus(sstatus);
 913              		.loc 1 88 17 is_stmt 1
 914              	.LBB278:
 915              	.LBB279:
 215:src/kernel/../../h/riscv.hpp **** }
 916              		.loc 2 215 5
 215:src/kernel/../../h/riscv.hpp **** }
 917              		.loc 2 215 55 is_stmt 0
 918              	 #APP
 919              	# 215 "src/kernel/../../h/riscv.hpp" 1
 920              		csrw sstatus, s2
 921              	# 0 "" 2
 922              	.LVL83:
 923              	 #NO_APP
 924              	.LBE279:
 925              	.LBE278:
  89:src/kernel/stdio.cpp ****                 Riscv::w_sepc(sepc);
 926              		.loc 1 89 17 is_stmt 1
 927              	.LBB280:
 928              	.LBB281:
 141:src/kernel/../../h/riscv.hpp **** }
 929              		.loc 2 141 5
 141:src/kernel/../../h/riscv.hpp **** }
 930              		.loc 2 141 49 is_stmt 0
 931              	 #APP
 932              	# 141 "src/kernel/../../h/riscv.hpp" 1
 933              		csrw sepc, s1
 934              	# 0 "" 2
 935              	 #NO_APP
 936 05fc 6F00C000 		j	.L29
 937              	.LVL84:
 938              	.L30:
 939              	.LBE281:
 940              	.LBE280:
 941              	.LBE271:
 942              	.LBE270:
 943              	.LBE269:
 944              	.LBE263:
  95:src/kernel/stdio.cpp ****         plic_complete(t);
 945              		.loc 1 95 9 is_stmt 1
GAS LISTING /tmp/ccTfuDSg.s 			page 30


  95:src/kernel/stdio.cpp ****         plic_complete(t);
 946              		.loc 1 95 22 is_stmt 0
 947 0600 97000000 		call	plic_complete
 947      E7800000 
 948              	.LVL85:
 949              	.L29:
 950              	.LBE282:
 951              		.loc 1 97 1
 952 0608 83308103 		ld	ra,56(sp)
 953              		.cfi_restore 1
 954 060c 03340103 		ld	s0,48(sp)
 955              		.cfi_restore 8
 956              		.cfi_def_cfa 2, 64
 957 0610 83348102 		ld	s1,40(sp)
 958              		.cfi_restore 9
 959 0614 03390102 		ld	s2,32(sp)
 960              		.cfi_restore 18
 961 0618 83398101 		ld	s3,24(sp)
 962              		.cfi_restore 19
 963 061c 13010104 		addi	sp,sp,64
 964              		.cfi_def_cfa_offset 0
 965 0620 67800000 		jr	ra
 966              		.cfi_endproc
 967              	.LFE88:
 969              		.align	2
 971              	_GLOBAL__sub_I__ZN5StdIO8iostatusE:
 972              	.LFB97:
 973              		.loc 1 97 1 is_stmt 1
 974              		.cfi_startproc
 975 0624 130101FF 		addi	sp,sp,-16
 976              		.cfi_def_cfa_offset 16
 977 0628 23341100 		sd	ra,8(sp)
 978 062c 23308100 		sd	s0,0(sp)
 979              		.cfi_offset 1, -8
 980              		.cfi_offset 8, -16
 981 0630 13040101 		addi	s0,sp,16
 982              		.cfi_def_cfa 8, 0
 983              		.loc 1 97 1 is_stmt 0
 984 0634 B7050100 		li	a1,65536
 985 0638 9385F5FF 		addi	a1,a1,-1
 986 063c 13051000 		li	a0,1
 987 0640 97000000 		call	_Z41__static_initialization_and_destruction_0ii
 987      E7800000 
 988              	.LVL86:
 989 0648 83308100 		ld	ra,8(sp)
 990              		.cfi_restore 1
 991 064c 03340100 		ld	s0,0(sp)
 992              		.cfi_restore 8
 993              		.cfi_def_cfa 2, 16
 994 0650 13010101 		addi	sp,sp,16
 995              		.cfi_def_cfa_offset 0
 996 0654 67800000 		jr	ra
 997              		.cfi_endproc
 998              	.LFE97:
 1000              		.section	.init_array,"aw"
 1001              		.align	3
 1002 0000 00000000 		.dword	_GLOBAL__sub_I__ZN5StdIO8iostatusE
GAS LISTING /tmp/ccTfuDSg.s 			page 31


 1002      00000000 
 1003              		.weak	_ZN12SharedBufferIcE5cacheE
 1004              		.section	.sbss._ZN12SharedBufferIcE5cacheE,"awG",@nobits,_ZN12SharedBufferIcE5cacheE,comdat
 1005              		.align	3
 1008              	_ZN12SharedBufferIcE5cacheE:
 1009 0000 00000000 		.zero	8
 1009      00000000 
 1010              		.globl	_ZN5StdIO10out_threadE
 1011              		.globl	_ZN5StdIO8blockSemE
 1012              		.globl	_ZN5StdIO7obufferE
 1013              		.globl	_ZN5StdIO7ibufferE
 1014              		.globl	_ZN5StdIO5odataE
 1015              		.globl	_ZN5StdIO5idataE
 1016              		.globl	_ZN5StdIO8iostatusE
 1017              		.section	.rodata.str1.8,"aMS",@progbits,1
 1018              		.align	3
 1019              	.LC0:
 1020 0000 53686172 		.string	"SharedBuffer_cache"
 1020      65644275 
 1020      66666572 
 1020      5F636163 
 1020      686500
 1021 0013 00000000 		.zero	5
 1021      00
 1022              	.LC1:
 1023 0018 4B53656D 		.string	"KSemaphore_cache"
 1023      6170686F 
 1023      72655F63 
 1023      61636865 
 1023      00
 1024              		.section	.sbss,"aw",@nobits
 1025              		.align	3
 1028              	_ZN5StdIO10out_threadE:
 1029 0000 00000000 		.zero	8
 1029      00000000 
 1032              	_ZN5StdIO8blockSemE:
 1033 0008 00000000 		.zero	8
 1033      00000000 
 1036              	_ZN5StdIO7obufferE:
 1037 0010 00000000 		.zero	8
 1037      00000000 
 1040              	_ZN5StdIO7ibufferE:
 1041 0018 00000000 		.zero	8
 1041      00000000 
 1044              	_ZN5StdIO5odataE:
 1045 0020 00000000 		.zero	8
 1045      00000000 
 1048              	_ZN5StdIO5idataE:
 1049 0028 00000000 		.zero	8
 1049      00000000 
 1052              	_ZN5StdIO8iostatusE:
 1053 0030 00000000 		.zero	8
 1053      00000000 
 1054              		.text
 1055              	.Letext0:
 1056              		.file 9 "src/kernel/../../h/../h/../h/../h/../lib/hw.h"
 1057              		.file 10 "src/kernel/../../h/../h/../h/../h/../h/../h/list.h"
GAS LISTING /tmp/ccTfuDSg.s 			page 32


 1058              		.file 11 "src/kernel/../../h/../h/../h/../h/../h/object_cache.h"
 1059              		.file 12 "src/kernel/../../h/../h/../h/../h/slab_allocator.h"
 7868              		.align	3
 7871              	DW.ref.__gxx_personality_v0:
 7872 0000 00000000 		.dword	__gxx_personality_v0
 7872      00000000 
 7873              		.ident	"GCC: () 8.3.0"
GAS LISTING /tmp/ccTfuDSg.s 			page 33

