GAS LISTING /tmp/cc3RnfEh.s 			page 1


   1              		.file	"stdio.cpp"
   2              		.option nopic
   3              		.option norelax
   4              		.attribute arch, "rv64i2p0_m2p0_a2p0"
   5              		.attribute unaligned_access, 0
   6              		.attribute stack_align, 16
   7              		.text
   8              	.Ltext0:
   9              		.align	2
  11              	_Z41__static_initialization_and_destruction_0ii:
  12              	.LFB96:
  13              		.file 1 "src/kernel/stdio.cpp"
   1:src/kernel/stdio.cpp **** #include"../../h/stdio.hpp"
   2:src/kernel/stdio.cpp **** #include"../../h/scheduler.hpp"
   3:src/kernel/stdio.cpp **** #include"../../h/riscv.hpp"
   4:src/kernel/stdio.cpp **** 
   5:src/kernel/stdio.cpp **** #define KLOCK() Riscv::mc_sstatus(Riscv::SSTATUS_SIE)
   6:src/kernel/stdio.cpp **** #define KUNLOCK() Riscv::ms_sstatus(Riscv::SSTATUS_SIE)
   7:src/kernel/stdio.cpp **** 
   8:src/kernel/stdio.cpp **** unsigned char* StdIO::iostatus = (unsigned char*)CONSOLE_STATUS;
   9:src/kernel/stdio.cpp **** char* StdIO::idata = (char*)CONSOLE_RX_DATA;
  10:src/kernel/stdio.cpp **** char* StdIO::odata = (char*)CONSOLE_TX_DATA;
  11:src/kernel/stdio.cpp **** SharedBuffer<char>* StdIO::ibuffer = nullptr;
  12:src/kernel/stdio.cpp **** SharedBuffer<char>* StdIO::obuffer = nullptr;
  13:src/kernel/stdio.cpp **** KSemaphore* StdIO::blockSem = nullptr;
  14:src/kernel/stdio.cpp **** TCB* StdIO::out_thread = nullptr;
  15:src/kernel/stdio.cpp **** 
  16:src/kernel/stdio.cpp **** void StdIO::initalize()
  17:src/kernel/stdio.cpp **** {
  18:src/kernel/stdio.cpp ****     ibuffer = new SharedBuffer<char>();
  19:src/kernel/stdio.cpp ****     obuffer = new SharedBuffer<char>();
  20:src/kernel/stdio.cpp ****     blockSem = new KSemaphore(0);
  21:src/kernel/stdio.cpp ****     iostatus = (unsigned char*)CONSOLE_STATUS;
  22:src/kernel/stdio.cpp ****     idata = (char*)CONSOLE_RX_DATA;
  23:src/kernel/stdio.cpp ****     odata = (char*)CONSOLE_TX_DATA;
  24:src/kernel/stdio.cpp ****     // uint64* stack = (uint64*)MemoryAllocator::getInstance().mem_alloc((DEFAULT_STACK_SIZE-1)/MEM
  25:src/kernel/stdio.cpp ****     uint64* stack = (uint64*)SlabAllocator::getInstance().kmalloc(DEFAULT_STACK_SIZE);
  26:src/kernel/stdio.cpp ****     out_thread = TCB::createThread(outputWorker, nullptr, stack);
  27:src/kernel/stdio.cpp ****     out_thread->setKernelMode();
  28:src/kernel/stdio.cpp ****     out_thread->setKernelLocked();
  29:src/kernel/stdio.cpp **** }
  30:src/kernel/stdio.cpp **** 
  31:src/kernel/stdio.cpp **** void StdIO::outputWorker(void *)
  32:src/kernel/stdio.cpp **** {
  33:src/kernel/stdio.cpp ****     
  34:src/kernel/stdio.cpp ****     out_thread = nullptr;
  35:src/kernel/stdio.cpp **** 
  36:src/kernel/stdio.cpp ****     while(true)
  37:src/kernel/stdio.cpp ****     {
  38:src/kernel/stdio.cpp ****         if(output_ready())
  39:src/kernel/stdio.cpp ****         {
  40:src/kernel/stdio.cpp ****             *odata = obuffer->get();
  41:src/kernel/stdio.cpp ****         }
  42:src/kernel/stdio.cpp ****         else
  43:src/kernel/stdio.cpp ****         {
  44:src/kernel/stdio.cpp **** 
  45:src/kernel/stdio.cpp ****             uint64 sstatus = Riscv::r_sstatus(), sepc = Riscv::r_sepc();
GAS LISTING /tmp/cc3RnfEh.s 			page 2


  46:src/kernel/stdio.cpp ****             out_thread = TCB::running;
  47:src/kernel/stdio.cpp **** 
  48:src/kernel/stdio.cpp ****             TCB::yield();
  49:src/kernel/stdio.cpp **** 
  50:src/kernel/stdio.cpp ****             Riscv::w_sstatus(sstatus);
  51:src/kernel/stdio.cpp ****             Riscv::w_sepc(sepc);
  52:src/kernel/stdio.cpp ****         }
  53:src/kernel/stdio.cpp **** 
  54:src/kernel/stdio.cpp ****     }
  55:src/kernel/stdio.cpp ****     
  56:src/kernel/stdio.cpp **** }
  57:src/kernel/stdio.cpp **** 
  58:src/kernel/stdio.cpp **** void StdIO::inputWorker()
  59:src/kernel/stdio.cpp **** {
  60:src/kernel/stdio.cpp **** 
  61:src/kernel/stdio.cpp **** }
  62:src/kernel/stdio.cpp **** 
  63:src/kernel/stdio.cpp **** void StdIO::console_handler(){
  64:src/kernel/stdio.cpp ****     uint64 t = plic_claim();
  65:src/kernel/stdio.cpp ****     if(t == CONSOLE_IRQ)
  66:src/kernel/stdio.cpp ****     {
  67:src/kernel/stdio.cpp ****         
  68:src/kernel/stdio.cpp ****         if(input_ready())
  69:src/kernel/stdio.cpp ****         {
  70:src/kernel/stdio.cpp ****             char c = *idata;
  71:src/kernel/stdio.cpp ****             plic_complete(CONSOLE_IRQ);
  72:src/kernel/stdio.cpp ****             //__putc(c);
  73:src/kernel/stdio.cpp ****             if(ibuffer->tmpLen < SharedBuffer<char>::BUFFER_SIZE){
  74:src/kernel/stdio.cpp ****                 ibuffer->put(c); 
  75:src/kernel/stdio.cpp ****             }
  76:src/kernel/stdio.cpp **** 
  77:src/kernel/stdio.cpp ****         }
  78:src/kernel/stdio.cpp ****         else
  79:src/kernel/stdio.cpp ****         {
  80:src/kernel/stdio.cpp ****             plic_complete(CONSOLE_IRQ);
  81:src/kernel/stdio.cpp ****             if(out_thread != nullptr)
  82:src/kernel/stdio.cpp ****             {
  83:src/kernel/stdio.cpp ****                 uint64 sstatus = Riscv::r_sstatus(), sepc = Riscv::r_sepc();
  84:src/kernel/stdio.cpp ****                 Scheduler::put_front(out_thread);
  85:src/kernel/stdio.cpp **** 
  86:src/kernel/stdio.cpp ****                 TCB::yield();
  87:src/kernel/stdio.cpp **** 
  88:src/kernel/stdio.cpp ****                 Riscv::w_sstatus(sstatus);
  89:src/kernel/stdio.cpp ****                 Riscv::w_sepc(sepc);
  90:src/kernel/stdio.cpp ****             }
  91:src/kernel/stdio.cpp ****                 
  92:src/kernel/stdio.cpp ****         }    
  93:src/kernel/stdio.cpp ****     }
  94:src/kernel/stdio.cpp ****     else
  95:src/kernel/stdio.cpp ****         plic_complete(t);
  96:src/kernel/stdio.cpp ****         
  97:src/kernel/stdio.cpp **** }...
  14              		.loc 1 97 1
  15              		.cfi_startproc
  16              	.LVL0:
  17 0000 130101FF 		addi	sp,sp,-16
  18              		.cfi_def_cfa_offset 16
GAS LISTING /tmp/cc3RnfEh.s 			page 3


  19 0004 23348100 		sd	s0,8(sp)
  20              		.cfi_offset 8, -8
  21 0008 13040101 		addi	s0,sp,16
  22              		.cfi_def_cfa 8, 0
  23              		.loc 1 97 1 is_stmt 0
  24 000c 93071000 		li	a5,1
  25 0010 6308F500 		beq	a0,a5,.L4
  26              	.L1:
  27 0014 03348100 		ld	s0,8(sp)
  28              		.cfi_remember_state
  29              		.cfi_restore 8
  30              		.cfi_def_cfa 2, 16
  31 0018 13010101 		addi	sp,sp,16
  32              		.cfi_def_cfa_offset 0
  33 001c 67800000 		jr	ra
  34              	.L4:
  35              		.cfi_restore_state
  36              		.loc 1 97 1 discriminator 1
  37 0020 B7070100 		li	a5,65536
  38 0024 9387F7FF 		addi	a5,a5,-1
  39 0028 E396F5FE 		bne	a1,a5,.L1
   8:src/kernel/stdio.cpp **** unsigned char* StdIO::iostatus = (unsigned char*)CONSOLE_STATUS;
  40              		.loc 1 8 16
  41 002c 97070000 		lla	a5,CONSOLE_STATUS
  41      93870700 
  42 0034 83B70700 		ld	a5,0(a5)
  43 0038 17070000 		sd	a5,_ZN5StdIO8iostatusE,a4
  43      2330F700 
   9:src/kernel/stdio.cpp **** char* StdIO::idata = (char*)CONSOLE_RX_DATA;
  44              		.loc 1 9 7
  45 0040 97070000 		lla	a5,CONSOLE_RX_DATA
  45      93870700 
  46 0048 83B70700 		ld	a5,0(a5)
  47 004c 17070000 		sd	a5,_ZN5StdIO5idataE,a4
  47      2330F700 
  10:src/kernel/stdio.cpp **** char* StdIO::odata = (char*)CONSOLE_TX_DATA;
  48              		.loc 1 10 7
  49 0054 97070000 		lla	a5,CONSOLE_TX_DATA
  49      93870700 
  50 005c 83B70700 		ld	a5,0(a5)
  51 0060 17070000 		sd	a5,_ZN5StdIO5odataE,a4
  51      2330F700 
  52              		.loc 1 97 1
  53 0068 6FF0DFFA 		j	.L1
  54              		.cfi_endproc
  55              	.LFE96:
  57              		.align	2
  58              		.globl	_ZN5StdIO12outputWorkerEPv
  60              	_ZN5StdIO12outputWorkerEPv:
  61              	.LFB86:
  32:src/kernel/stdio.cpp **** {
  62              		.loc 1 32 1 is_stmt 1
  63              		.cfi_startproc
  64 006c 130101FC 		addi	sp,sp,-64
  65              		.cfi_def_cfa_offset 64
  66 0070 233C1102 		sd	ra,56(sp)
  67 0074 23388102 		sd	s0,48(sp)
GAS LISTING /tmp/cc3RnfEh.s 			page 4


  68 0078 23349102 		sd	s1,40(sp)
  69 007c 23302103 		sd	s2,32(sp)
  70 0080 233C3101 		sd	s3,24(sp)
  71 0084 23384101 		sd	s4,16(sp)
  72              		.cfi_offset 1, -8
  73              		.cfi_offset 8, -16
  74              		.cfi_offset 9, -24
  75              		.cfi_offset 18, -32
  76              		.cfi_offset 19, -40
  77              		.cfi_offset 20, -48
  78 0088 13040104 		addi	s0,sp,64
  79              		.cfi_def_cfa 8, 0
  34:src/kernel/stdio.cpp ****     out_thread = nullptr;
  80              		.loc 1 34 5
  34:src/kernel/stdio.cpp ****     out_thread = nullptr;
  81              		.loc 1 34 16 is_stmt 0
  82 008c 97070000 		sd	zero,_ZN5StdIO10out_threadE,a5
  82      23B00700 
  83 0094 6F000004 		j	.L6
  84              	.L7:
  85              	.LBB121:
  86              	.LBB122:
  45:src/kernel/stdio.cpp ****             uint64 sstatus = Riscv::r_sstatus(), sepc = Riscv::r_sepc();
  87              		.loc 1 45 13 is_stmt 1
  88              	.LBB123:
  89              	.LBB124:
  90              		.file 2 "src/kernel/../../h/riscv.hpp"
   1:src/kernel/../../h/riscv.hpp **** #ifndef __riscv__
   2:src/kernel/../../h/riscv.hpp **** #define __riscv__
   3:src/kernel/../../h/riscv.hpp **** 
   4:src/kernel/../../h/riscv.hpp **** #include"../lib/hw.h"
   5:src/kernel/../../h/riscv.hpp **** 
   6:src/kernel/../../h/riscv.hpp **** class Riscv{
   7:src/kernel/../../h/riscv.hpp **** public:
   8:src/kernel/../../h/riscv.hpp **** /* 
   9:src/kernel/../../h/riscv.hpp **** --------------------SUPERVISOR REGISTERS--------------------    
  10:src/kernel/../../h/riscv.hpp **** */
  11:src/kernel/../../h/riscv.hpp ****     static void w_scause(uint64);
  12:src/kernel/../../h/riscv.hpp ****     static uint64 r_scause(); 
  13:src/kernel/../../h/riscv.hpp **** 
  14:src/kernel/../../h/riscv.hpp ****     static void w_sepc(uint64);
  15:src/kernel/../../h/riscv.hpp ****     static uint64 r_sepc();
  16:src/kernel/../../h/riscv.hpp ****     static void ni_sepc();
  17:src/kernel/../../h/riscv.hpp **** 
  18:src/kernel/../../h/riscv.hpp ****     static void w_stvec(uint64);
  19:src/kernel/../../h/riscv.hpp ****     static uint64 r_stvec();
  20:src/kernel/../../h/riscv.hpp ****      
  21:src/kernel/../../h/riscv.hpp ****     static void w_stval(uint64);
  22:src/kernel/../../h/riscv.hpp ****     static uint64 r_stval();
  23:src/kernel/../../h/riscv.hpp **** 
  24:src/kernel/../../h/riscv.hpp ****     static void w_satp(uint64);
  25:src/kernel/../../h/riscv.hpp ****     static uint64 r_satp();
  26:src/kernel/../../h/riscv.hpp ****     
  27:src/kernel/../../h/riscv.hpp ****     enum BitMaskSip{
  28:src/kernel/../../h/riscv.hpp ****         SIP_SSIE = (1<<1),
  29:src/kernel/../../h/riscv.hpp ****         SIP_STIE = (1<<5),
  30:src/kernel/../../h/riscv.hpp ****         SIP_SEIE = (1<<9),
GAS LISTING /tmp/cc3RnfEh.s 			page 5


  31:src/kernel/../../h/riscv.hpp ****     };
  32:src/kernel/../../h/riscv.hpp **** 
  33:src/kernel/../../h/riscv.hpp ****     static void ms_sip(uint64);
  34:src/kernel/../../h/riscv.hpp ****     static void mc_sip(uint64);
  35:src/kernel/../../h/riscv.hpp **** 
  36:src/kernel/../../h/riscv.hpp ****     static void w_sip(uint64);
  37:src/kernel/../../h/riscv.hpp ****     static uint64 r_sip();
  38:src/kernel/../../h/riscv.hpp **** 
  39:src/kernel/../../h/riscv.hpp ****     static void ms_sie(uint64);
  40:src/kernel/../../h/riscv.hpp ****     static void mc_sie(uint64);
  41:src/kernel/../../h/riscv.hpp **** 
  42:src/kernel/../../h/riscv.hpp ****     static void w_sie(uint64);
  43:src/kernel/../../h/riscv.hpp ****     static uint64 r_sie();
  44:src/kernel/../../h/riscv.hpp **** 
  45:src/kernel/../../h/riscv.hpp ****     enum BitMaskSstatus{
  46:src/kernel/../../h/riscv.hpp ****         SSTATUS_SIE = (1<<1),
  47:src/kernel/../../h/riscv.hpp ****         SSTATUS_SPIE = (1<<5),
  48:src/kernel/../../h/riscv.hpp ****         SSTATUS_SPP = (1<<8),
  49:src/kernel/../../h/riscv.hpp ****         SSTATUS_SUM = (1<<18),
  50:src/kernel/../../h/riscv.hpp ****     };
  51:src/kernel/../../h/riscv.hpp **** 
  52:src/kernel/../../h/riscv.hpp ****     static void ms_sstatus(uint64);
  53:src/kernel/../../h/riscv.hpp ****     static void mc_sstatus(uint64);
  54:src/kernel/../../h/riscv.hpp **** 
  55:src/kernel/../../h/riscv.hpp ****     static void w_sstatus(uint64);
  56:src/kernel/../../h/riscv.hpp ****     static uint64 r_sstatus();
  57:src/kernel/../../h/riscv.hpp **** 
  58:src/kernel/../../h/riscv.hpp **** /* 
  59:src/kernel/../../h/riscv.hpp **** --------------------CLASSIC REGISTERS--------------------    
  60:src/kernel/../../h/riscv.hpp **** */
  61:src/kernel/../../h/riscv.hpp ****     static uint64 r_sp();
  62:src/kernel/../../h/riscv.hpp ****     static uint64 r_a0(); /* parameter registers */
  63:src/kernel/../../h/riscv.hpp ****     static uint64 s_a0(uint64 a0);
  64:src/kernel/../../h/riscv.hpp ****     static uint64 r_a1();
  65:src/kernel/../../h/riscv.hpp ****     static uint64 r_a2();
  66:src/kernel/../../h/riscv.hpp ****     static uint64 r_a3();
  67:src/kernel/../../h/riscv.hpp ****     static uint64 r_a4();
  68:src/kernel/../../h/riscv.hpp **** 
  69:src/kernel/../../h/riscv.hpp ****     static void popRegisters(); /* pop all context registers */
  70:src/kernel/../../h/riscv.hpp ****     static void pushRegisters(); /* push all context registers */
  71:src/kernel/../../h/riscv.hpp ****  
  72:src/kernel/../../h/riscv.hpp ****     static void popSppSpie(); /* jump from kernel to start of thread */
  73:src/kernel/../../h/riscv.hpp **** 
  74:src/kernel/../../h/riscv.hpp **** /* 
  75:src/kernel/../../h/riscv.hpp **** --------------------CONSOLE REGISTERS--------------------    
  76:src/kernel/../../h/riscv.hpp **** */
  77:src/kernel/../../h/riscv.hpp ****     static void mc_cstatus(uint64 mask); 
  78:src/kernel/../../h/riscv.hpp ****     static bool cstatus_ready(uint64 mask);
  79:src/kernel/../../h/riscv.hpp **** };
  80:src/kernel/../../h/riscv.hpp **** 
  81:src/kernel/../../h/riscv.hpp **** /* 
  82:src/kernel/../../h/riscv.hpp **** --------------------CLASSIC REGISTERS--------------------    
  83:src/kernel/../../h/riscv.hpp **** */
  84:src/kernel/../../h/riscv.hpp **** 
  85:src/kernel/../../h/riscv.hpp **** inline uint64 Riscv::r_sp(){
  86:src/kernel/../../h/riscv.hpp ****     uint64 a0;
  87:src/kernel/../../h/riscv.hpp ****     asm volatile("mv %0, sp" : "=r" (a0));
GAS LISTING /tmp/cc3RnfEh.s 			page 6


  88:src/kernel/../../h/riscv.hpp ****     return a0;
  89:src/kernel/../../h/riscv.hpp **** }
  90:src/kernel/../../h/riscv.hpp **** 
  91:src/kernel/../../h/riscv.hpp **** inline uint64 Riscv::r_a0(){
  92:src/kernel/../../h/riscv.hpp ****     uint64 a0;
  93:src/kernel/../../h/riscv.hpp ****     asm volatile("mv %0, a0" : "=r" (a0));
  94:src/kernel/../../h/riscv.hpp ****     return a0;
  95:src/kernel/../../h/riscv.hpp **** }
  96:src/kernel/../../h/riscv.hpp **** 
  97:src/kernel/../../h/riscv.hpp **** inline uint64 Riscv::r_a1(){
  98:src/kernel/../../h/riscv.hpp ****     uint64 a0;
  99:src/kernel/../../h/riscv.hpp ****     asm volatile("mv %0, a1" : "=r" (a0));
 100:src/kernel/../../h/riscv.hpp ****     return a0;
 101:src/kernel/../../h/riscv.hpp **** }
 102:src/kernel/../../h/riscv.hpp **** 
 103:src/kernel/../../h/riscv.hpp **** inline uint64 Riscv::r_a2(){
 104:src/kernel/../../h/riscv.hpp ****     uint64 a0;
 105:src/kernel/../../h/riscv.hpp ****     asm volatile("mv %0, a2" : "=r" (a0));
 106:src/kernel/../../h/riscv.hpp ****     return a0;
 107:src/kernel/../../h/riscv.hpp **** }
 108:src/kernel/../../h/riscv.hpp **** 
 109:src/kernel/../../h/riscv.hpp **** inline uint64 Riscv::r_a3(){
 110:src/kernel/../../h/riscv.hpp ****     uint64 a0;
 111:src/kernel/../../h/riscv.hpp ****     asm volatile("mv %0, a3" : "=r" (a0));
 112:src/kernel/../../h/riscv.hpp ****     return a0;
 113:src/kernel/../../h/riscv.hpp **** }
 114:src/kernel/../../h/riscv.hpp **** 
 115:src/kernel/../../h/riscv.hpp **** inline uint64 Riscv::r_a4(){
 116:src/kernel/../../h/riscv.hpp ****     uint64 a0;
 117:src/kernel/../../h/riscv.hpp ****     asm volatile("mv %0, a4" : "=r" (a0));
 118:src/kernel/../../h/riscv.hpp ****     return a0;
 119:src/kernel/../../h/riscv.hpp **** }
 120:src/kernel/../../h/riscv.hpp **** 
 121:src/kernel/../../h/riscv.hpp **** 
 122:src/kernel/../../h/riscv.hpp **** inline uint64 Riscv::s_a0(uint64 a0){
 123:src/kernel/../../h/riscv.hpp ****     return a0;
 124:src/kernel/../../h/riscv.hpp **** }
 125:src/kernel/../../h/riscv.hpp **** 
 126:src/kernel/../../h/riscv.hpp **** /* 
 127:src/kernel/../../h/riscv.hpp **** --------------------SUPERVISOR REGISTERS--------------------    
 128:src/kernel/../../h/riscv.hpp **** */
 129:src/kernel/../../h/riscv.hpp **** 
 130:src/kernel/../../h/riscv.hpp **** inline void Riscv::w_scause(uint64 scause){
 131:src/kernel/../../h/riscv.hpp ****     asm volatile("csrw scause, %0" : : "r" (scause));
 132:src/kernel/../../h/riscv.hpp **** }
 133:src/kernel/../../h/riscv.hpp **** 
 134:src/kernel/../../h/riscv.hpp **** inline uint64 Riscv::r_scause(){
 135:src/kernel/../../h/riscv.hpp ****     uint64 volatile scause;
 136:src/kernel/../../h/riscv.hpp ****     asm volatile("csrr %0, scause" : "=r" (scause));
 137:src/kernel/../../h/riscv.hpp ****     return scause;
 138:src/kernel/../../h/riscv.hpp **** } 
 139:src/kernel/../../h/riscv.hpp **** 
 140:src/kernel/../../h/riscv.hpp **** inline void Riscv::w_sepc(uint64 sepc){
 141:src/kernel/../../h/riscv.hpp ****     asm volatile("csrw sepc, %0" : : "r" (sepc));
 142:src/kernel/../../h/riscv.hpp **** }
 143:src/kernel/../../h/riscv.hpp **** 
 144:src/kernel/../../h/riscv.hpp **** inline uint64 Riscv::r_sepc(){
GAS LISTING /tmp/cc3RnfEh.s 			page 7


 145:src/kernel/../../h/riscv.hpp ****     uint64 volatile sepc;
 146:src/kernel/../../h/riscv.hpp ****     asm volatile("csrr %0, sepc" : "=r" (sepc));
 147:src/kernel/../../h/riscv.hpp ****     return sepc;
 148:src/kernel/../../h/riscv.hpp **** } 
 149:src/kernel/../../h/riscv.hpp **** 
 150:src/kernel/../../h/riscv.hpp **** inline void Riscv::w_stvec(uint64 stvec){
 151:src/kernel/../../h/riscv.hpp ****     asm volatile("csrw stvec, %0" : : "r" (stvec));
 152:src/kernel/../../h/riscv.hpp **** }
 153:src/kernel/../../h/riscv.hpp **** 
 154:src/kernel/../../h/riscv.hpp **** inline uint64 Riscv::r_stvec(){
 155:src/kernel/../../h/riscv.hpp ****     uint64 volatile stvec;
 156:src/kernel/../../h/riscv.hpp ****     asm volatile("csrr %0, stvec" : "=r" (stvec));
 157:src/kernel/../../h/riscv.hpp ****     return stvec;
 158:src/kernel/../../h/riscv.hpp **** } 
 159:src/kernel/../../h/riscv.hpp **** 
 160:src/kernel/../../h/riscv.hpp **** inline void Riscv::w_stval(uint64 stval){
 161:src/kernel/../../h/riscv.hpp ****     asm volatile("csrw stval, %0" : : "r" (stval));
 162:src/kernel/../../h/riscv.hpp **** }
 163:src/kernel/../../h/riscv.hpp **** 
 164:src/kernel/../../h/riscv.hpp **** inline uint64 Riscv::r_stval(){
 165:src/kernel/../../h/riscv.hpp ****     uint64 volatile stval;
 166:src/kernel/../../h/riscv.hpp ****     asm volatile("csrr %0, stval" : "=r" (stval));
 167:src/kernel/../../h/riscv.hpp ****     return stval;
 168:src/kernel/../../h/riscv.hpp **** } 
 169:src/kernel/../../h/riscv.hpp **** 
 170:src/kernel/../../h/riscv.hpp **** inline void Riscv::ms_sip(uint64 mask){
 171:src/kernel/../../h/riscv.hpp ****     asm volatile ("csrs sip, %0" : : "r" (mask));
 172:src/kernel/../../h/riscv.hpp **** }
 173:src/kernel/../../h/riscv.hpp **** 
 174:src/kernel/../../h/riscv.hpp **** inline void Riscv::mc_sip(uint64 mask){
 175:src/kernel/../../h/riscv.hpp ****     asm volatile ("csrc sip, %0" : : "r" (mask));
 176:src/kernel/../../h/riscv.hpp **** }
 177:src/kernel/../../h/riscv.hpp **** 
 178:src/kernel/../../h/riscv.hpp **** inline void Riscv::w_sip(uint64 sip){
 179:src/kernel/../../h/riscv.hpp ****     asm volatile("csrw sip, %0" : : "r" (sip));
 180:src/kernel/../../h/riscv.hpp **** }
 181:src/kernel/../../h/riscv.hpp **** 
 182:src/kernel/../../h/riscv.hpp **** inline uint64 Riscv::r_sip(){
 183:src/kernel/../../h/riscv.hpp ****     uint64 volatile sip;
 184:src/kernel/../../h/riscv.hpp ****     asm volatile("csrr %0, sip" : "=r" (sip));
 185:src/kernel/../../h/riscv.hpp ****     return sip;
 186:src/kernel/../../h/riscv.hpp **** } 
 187:src/kernel/../../h/riscv.hpp **** 
 188:src/kernel/../../h/riscv.hpp **** inline void Riscv::ms_sie(uint64 mask){
 189:src/kernel/../../h/riscv.hpp ****     asm volatile ("csrs sie, %0" : : "r" (mask));
 190:src/kernel/../../h/riscv.hpp **** }
 191:src/kernel/../../h/riscv.hpp **** 
 192:src/kernel/../../h/riscv.hpp **** inline void Riscv::mc_sie(uint64 mask){
 193:src/kernel/../../h/riscv.hpp ****     asm volatile ("csrc sie, %0" : : "r" (mask));
 194:src/kernel/../../h/riscv.hpp **** }
 195:src/kernel/../../h/riscv.hpp **** 
 196:src/kernel/../../h/riscv.hpp **** inline void Riscv::w_sie(uint64 sie){
 197:src/kernel/../../h/riscv.hpp ****     asm volatile("csrw sie, %0" : : "r" (sie));
 198:src/kernel/../../h/riscv.hpp **** }
 199:src/kernel/../../h/riscv.hpp **** 
 200:src/kernel/../../h/riscv.hpp **** inline uint64 Riscv::r_sie(){
 201:src/kernel/../../h/riscv.hpp ****     uint64 volatile sie;
GAS LISTING /tmp/cc3RnfEh.s 			page 8


 202:src/kernel/../../h/riscv.hpp ****     asm volatile("csrr %0, sie" : "=r" (sie));
 203:src/kernel/../../h/riscv.hpp ****     return sie;
 204:src/kernel/../../h/riscv.hpp **** } 
 205:src/kernel/../../h/riscv.hpp **** 
 206:src/kernel/../../h/riscv.hpp **** inline void Riscv::ms_sstatus(uint64 mask){
 207:src/kernel/../../h/riscv.hpp ****     asm volatile ("csrs sstatus, %0" : : "r" (mask));
 208:src/kernel/../../h/riscv.hpp **** }
 209:src/kernel/../../h/riscv.hpp **** 
 210:src/kernel/../../h/riscv.hpp **** inline void Riscv::mc_sstatus(uint64 mask){
 211:src/kernel/../../h/riscv.hpp ****     asm volatile ("csrc sstatus, %0" : : "r" (mask));
 212:src/kernel/../../h/riscv.hpp **** }
 213:src/kernel/../../h/riscv.hpp **** 
 214:src/kernel/../../h/riscv.hpp **** inline void Riscv::w_sstatus(uint64 sstatus){
 215:src/kernel/../../h/riscv.hpp ****     asm volatile("csrw sstatus, %0" : : "r" (sstatus));
 216:src/kernel/../../h/riscv.hpp **** }
 217:src/kernel/../../h/riscv.hpp **** 
 218:src/kernel/../../h/riscv.hpp **** inline uint64 Riscv::r_sstatus(){
 219:src/kernel/../../h/riscv.hpp ****     uint64 volatile sstatus;
  91              		.loc 2 219 5
 220:src/kernel/../../h/riscv.hpp ****     asm volatile("csrr %0, sstatus" : "=r" (sstatus));
  92              		.loc 2 220 5
  93              		.loc 2 220 54 is_stmt 0
  94              	 #APP
  95              	# 220 "src/kernel/../../h/riscv.hpp" 1
 221              	    return sstatus;
  96              		csrr a5, sstatus
  97              	# 0 "" 2
  98              	 #NO_APP
  99 009c 2334F4FC 		sd	a5,-56(s0)
 100              		.loc 2 221 5 is_stmt 1
 101              		.loc 2 221 12 is_stmt 0
 102 00a0 033984FC 		ld	s2,-56(s0)
 103              	.LVL1:
 104              	.LBE124:
 105              	.LBE123:
 106              	.LBB125:
 107              	.LBB126:
 145:src/kernel/../../h/riscv.hpp ****     asm volatile("csrr %0, sepc" : "=r" (sepc));
 108              		.loc 2 145 5 is_stmt 1
 146:src/kernel/../../h/riscv.hpp ****     return sepc;
 109              		.loc 2 146 5
 146:src/kernel/../../h/riscv.hpp ****     return sepc;
 110              		.loc 2 146 48 is_stmt 0
 111              	 #APP
 112              	# 146 "src/kernel/../../h/riscv.hpp" 1
 113              		csrr a5, sepc
 114              	# 0 "" 2
 115              	 #NO_APP
 116 00a8 2330F4FC 		sd	a5,-64(s0)
 147:src/kernel/../../h/riscv.hpp **** } 
 117              		.loc 2 147 5 is_stmt 1
 147:src/kernel/../../h/riscv.hpp **** } 
 118              		.loc 2 147 12 is_stmt 0
 119 00ac 833404FC 		ld	s1,-64(s0)
 120              	.LVL2:
 121              	.LBE126:
 122              	.LBE125:
GAS LISTING /tmp/cc3RnfEh.s 			page 9


  46:src/kernel/stdio.cpp ****             out_thread = TCB::running;
 123              		.loc 1 46 13 is_stmt 1
  46:src/kernel/stdio.cpp ****             out_thread = TCB::running;
 124              		.loc 1 46 24 is_stmt 0
 125 00b0 97070000 		lla	a5,_ZN3TCB7runningE
 125      93870700 
 126 00b8 83B70700 		ld	a5,0(a5)
 127 00bc 17070000 		sd	a5,_ZN5StdIO10out_threadE,a4
 127      2330F700 
  48:src/kernel/stdio.cpp ****             TCB::yield();
 128              		.loc 1 48 13 is_stmt 1
  48:src/kernel/stdio.cpp ****             TCB::yield();
 129              		.loc 1 48 23 is_stmt 0
 130 00c4 97000000 		call	_ZN3TCB5yieldEv
 130      E7800000 
 131              	.LVL3:
  50:src/kernel/stdio.cpp ****             Riscv::w_sstatus(sstatus);
 132              		.loc 1 50 13 is_stmt 1
 133              	.LBB127:
 134              	.LBB128:
 215:src/kernel/../../h/riscv.hpp **** }
 135              		.loc 2 215 5
 215:src/kernel/../../h/riscv.hpp **** }
 136              		.loc 2 215 55 is_stmt 0
 137              	 #APP
 138              	# 215 "src/kernel/../../h/riscv.hpp" 1
 139              		csrw sstatus, s2
 140              	# 0 "" 2
 141              	.LVL4:
 142              	 #NO_APP
 143              	.LBE128:
 144              	.LBE127:
  51:src/kernel/stdio.cpp ****             Riscv::w_sepc(sepc);
 145              		.loc 1 51 13 is_stmt 1
 146              	.LBB129:
 147              	.LBB130:
 141:src/kernel/../../h/riscv.hpp **** }
 148              		.loc 2 141 5
 141:src/kernel/../../h/riscv.hpp **** }
 149              		.loc 2 141 49 is_stmt 0
 150              	 #APP
 151              	# 141 "src/kernel/../../h/riscv.hpp" 1
 152              		csrw sepc, s1
 153              	# 0 "" 2
 154              	.LVL5:
 155              	 #NO_APP
 156              	.L6:
 157              	.LBE130:
 158              	.LBE129:
 159              	.LBE122:
 160              	.LBE121:
  36:src/kernel/stdio.cpp ****     while(true)
 161              		.loc 1 36 5 is_stmt 1
  38:src/kernel/stdio.cpp ****         if(output_ready())
 162              		.loc 1 38 9
 163              	.LBB135:
 164              	.LBB131:
GAS LISTING /tmp/cc3RnfEh.s 			page 10


 165              	.LBB132:
 166              		.file 3 "src/kernel/../../h/stdio.hpp"
   1:src/kernel/../../h/stdio.hpp **** #ifndef __stdio_hpp__
   2:src/kernel/../../h/stdio.hpp **** #define __stdio_hpp__
   3:src/kernel/../../h/stdio.hpp **** 
   4:src/kernel/../../h/stdio.hpp **** #include"../h/shared_buffer.hpp"
   5:src/kernel/../../h/stdio.hpp **** #include "tcb.hpp"
   6:src/kernel/../../h/stdio.hpp **** 
   7:src/kernel/../../h/stdio.hpp **** struct ORequest{
   8:src/kernel/../../h/stdio.hpp ****     char c;
   9:src/kernel/../../h/stdio.hpp ****     KSemaphore* s;   
  10:src/kernel/../../h/stdio.hpp **** };
  11:src/kernel/../../h/stdio.hpp **** 
  12:src/kernel/../../h/stdio.hpp **** class StdIO{
  13:src/kernel/../../h/stdio.hpp **** 
  14:src/kernel/../../h/stdio.hpp **** private:
  15:src/kernel/../../h/stdio.hpp ****     static unsigned char* iostatus;
  16:src/kernel/../../h/stdio.hpp ****     static char* idata, *odata;
  17:src/kernel/../../h/stdio.hpp ****     static KSemaphore* blockSem;
  18:src/kernel/../../h/stdio.hpp **** public:
  19:src/kernel/../../h/stdio.hpp ****     
  20:src/kernel/../../h/stdio.hpp **** 
  21:src/kernel/../../h/stdio.hpp ****     static void initalize();
  22:src/kernel/../../h/stdio.hpp ****     static void outputWorker(void*);
  23:src/kernel/../../h/stdio.hpp ****     static void inputWorker();
  24:src/kernel/../../h/stdio.hpp ****     static void console_handler();
  25:src/kernel/../../h/stdio.hpp ****     static bool input_ready(){ return *iostatus & CONSOLE_RX_STATUS_BIT; } 
  26:src/kernel/../../h/stdio.hpp ****     static bool output_ready() { return *iostatus & CONSOLE_TX_STATUS_BIT; }
 167              		.loc 3 26 34
 168              		.loc 3 26 41 is_stmt 0
 169 00d4 97070000 		lla	a5,_ZN5StdIO8iostatusE
 169      93870700 
 170 00dc 83B70700 		ld	a5,0(a5)
 171 00e0 83C70700 		lbu	a5,0(a5)
 172              	.LBE132:
 173              	.LBE131:
  38:src/kernel/stdio.cpp ****         if(output_ready())
 174              		.loc 1 38 9
 175 00e4 93F70702 		andi	a5,a5,32
 176 00e8 E38807FA 		beq	a5,zero,.L7
  40:src/kernel/stdio.cpp ****             *odata = obuffer->get();
 177              		.loc 1 40 13 is_stmt 1
  40:src/kernel/stdio.cpp ****             *odata = obuffer->get();
 178              		.loc 1 40 34 is_stmt 0
 179 00ec 97070000 		lla	a5,_ZN5StdIO7obufferE
 179      93870700 
 180 00f4 83B40700 		ld	s1,0(a5)
  40:src/kernel/stdio.cpp ****             *odata = obuffer->get();
 181              		.loc 1 40 13
 182 00f8 97070000 		lla	a5,_ZN5StdIO5odataE
 182      93870700 
 183 0100 83B90700 		ld	s3,0(a5)
 184              	.LVL6:
 185              	.LBB133:
 186              	.LBB134:
 187              		.file 4 "src/kernel/../../h/../h/shared_buffer.hpp"
   1:src/kernel/../../h/../h/shared_buffer.hpp **** #ifndef __shared_buffer__hpp
GAS LISTING /tmp/cc3RnfEh.s 			page 11


   2:src/kernel/../../h/../h/shared_buffer.hpp **** #define __shared_buffer__hpp
   3:src/kernel/../../h/../h/shared_buffer.hpp **** 
   4:src/kernel/../../h/../h/shared_buffer.hpp **** #include"../h/ksemaphore.hpp"
   5:src/kernel/../../h/../h/shared_buffer.hpp **** #include "object_cache.h"
   6:src/kernel/../../h/../h/shared_buffer.hpp **** #include "slab_allocator.h"
   7:src/kernel/../../h/../h/shared_buffer.hpp **** 
   8:src/kernel/../../h/../h/shared_buffer.hpp **** template<typename T>
   9:src/kernel/../../h/../h/shared_buffer.hpp **** class SharedBuffer{
  10:src/kernel/../../h/../h/shared_buffer.hpp **** public:
  11:src/kernel/../../h/../h/shared_buffer.hpp ****     static const int BUFFER_SIZE = 1024;
  12:src/kernel/../../h/../h/shared_buffer.hpp **** private:
  13:src/kernel/../../h/../h/shared_buffer.hpp ****     T buffer[BUFFER_SIZE];
  14:src/kernel/../../h/../h/shared_buffer.hpp ****     KSemaphore mutex, itemAvailable, spaceAvailable; 
  15:src/kernel/../../h/../h/shared_buffer.hpp ****     int head, tail;
  16:src/kernel/../../h/../h/shared_buffer.hpp ****     static ObjectCache* cache;
  17:src/kernel/../../h/../h/shared_buffer.hpp **** public: 
  18:src/kernel/../../h/../h/shared_buffer.hpp ****     int tmpLen;
  19:src/kernel/../../h/../h/shared_buffer.hpp ****     //#include"../h/kernel_operators.hpp"
  20:src/kernel/../../h/../h/shared_buffer.hpp ****     
  21:src/kernel/../../h/../h/shared_buffer.hpp ****     __SLAB_ALLOCATION__(SharedBuffer, nullptr, nullptr);
  22:src/kernel/../../h/../h/shared_buffer.hpp ****     
  23:src/kernel/../../h/../h/shared_buffer.hpp ****     SharedBuffer():mutex(1), itemAvailable(0), 
  24:src/kernel/../../h/../h/shared_buffer.hpp ****     spaceAvailable(BUFFER_SIZE), head(0), tail(0), tmpLen(0){}
  25:src/kernel/../../h/../h/shared_buffer.hpp **** 
  26:src/kernel/../../h/../h/shared_buffer.hpp ****     void put(T c){
  27:src/kernel/../../h/../h/shared_buffer.hpp ****         spaceAvailable.wait();
  28:src/kernel/../../h/../h/shared_buffer.hpp ****         mutex.wait();
  29:src/kernel/../../h/../h/shared_buffer.hpp **** 
  30:src/kernel/../../h/../h/shared_buffer.hpp ****         tmpLen++;
  31:src/kernel/../../h/../h/shared_buffer.hpp ****         buffer[tail]=c;
  32:src/kernel/../../h/../h/shared_buffer.hpp ****         tail=(tail+1)%BUFFER_SIZE;
  33:src/kernel/../../h/../h/shared_buffer.hpp ****     
  34:src/kernel/../../h/../h/shared_buffer.hpp ****         itemAvailable.signal();
  35:src/kernel/../../h/../h/shared_buffer.hpp ****         mutex.signal();
  36:src/kernel/../../h/../h/shared_buffer.hpp ****     }
  37:src/kernel/../../h/../h/shared_buffer.hpp **** 
  38:src/kernel/../../h/../h/shared_buffer.hpp ****     T get(){
  39:src/kernel/../../h/../h/shared_buffer.hpp ****         itemAvailable.wait();
 188              		.loc 4 39 27
 189 0104 13858442 		addi	a0,s1,1064
 190 0108 97000000 		call	_ZN10KSemaphore4waitEv
 190      E7800000 
 191              	.LVL7:
  40:src/kernel/../../h/../h/shared_buffer.hpp ****         mutex.wait();
 192              		.loc 4 40 19
 193 0110 13890440 		addi	s2,s1,1024
 194 0114 13050900 		mv	a0,s2
 195 0118 97000000 		call	_ZN10KSemaphore4waitEv
 195      E7800000 
 196              	.LVL8:
  41:src/kernel/../../h/../h/shared_buffer.hpp **** 
  42:src/kernel/../../h/../h/shared_buffer.hpp ****         tmpLen--;
 197              		.loc 4 42 9
 198 0120 83A70448 		lw	a5,1152(s1)
 199 0124 9B87F7FF 		addiw	a5,a5,-1
 200 0128 23A0F448 		sw	a5,1152(s1)
  43:src/kernel/../../h/../h/shared_buffer.hpp ****         T r = buffer[head];
GAS LISTING /tmp/cc3RnfEh.s 			page 12


 201              		.loc 4 43 22
 202 012c 83A78447 		lw	a5,1144(s1)
 203              		.loc 4 43 11
 204 0130 3387F400 		add	a4,s1,a5
 205 0134 034A0700 		lbu	s4,0(a4)
 206              	.LVL9:
  44:src/kernel/../../h/../h/shared_buffer.hpp ****         head = (head+1)%BUFFER_SIZE;
 207              		.loc 4 44 21
 208 0138 9B871700 		addiw	a5,a5,1
 209              		.loc 4 44 24
 210 013c 1BD7F741 		sraiw	a4,a5,31
 211 0140 1B576701 		srliw	a4,a4,22
 212 0144 BB87E700 		addw	a5,a5,a4
 213 0148 93F7F73F 		andi	a5,a5,1023
 214 014c BB87E740 		subw	a5,a5,a4
 215              		.loc 4 44 9
 216 0150 23ACF446 		sw	a5,1144(s1)
  45:src/kernel/../../h/../h/shared_buffer.hpp **** 
  46:src/kernel/../../h/../h/shared_buffer.hpp ****         spaceAvailable.signal();
 217              		.loc 4 46 30
 218 0154 13850445 		addi	a0,s1,1104
 219 0158 97000000 		call	_ZN10KSemaphore6signalEv
 219      E7800000 
 220              	.LVL10:
  47:src/kernel/../../h/../h/shared_buffer.hpp ****         mutex.signal();
 221              		.loc 4 47 21
 222 0160 13050900 		mv	a0,s2
 223 0164 97000000 		call	_ZN10KSemaphore6signalEv
 223      E7800000 
 224              	.LVL11:
 225              	.LBE134:
 226              	.LBE133:
  40:src/kernel/stdio.cpp ****             *odata = obuffer->get();
 227              		.loc 1 40 20
 228 016c 23804901 		sb	s4,0(s3)
 229 0170 6FF05FF6 		j	.L6
 230              	.LBE135:
 231              		.cfi_endproc
 232              	.LFE86:
 234              		.align	2
 235              		.globl	_ZN5StdIO9initalizeEv
 237              	_ZN5StdIO9initalizeEv:
 238              	.LFB85:
  17:src/kernel/stdio.cpp **** {
 239              		.loc 1 17 1 is_stmt 1
 240              		.cfi_startproc
 241              		.cfi_personality 0x9b,DW.ref.__gxx_personality_v0
 242              		.cfi_lsda 0x1b,.LLSDA85
 243 0174 130101FE 		addi	sp,sp,-32
 244              		.cfi_def_cfa_offset 32
 245 0178 233C1100 		sd	ra,24(sp)
 246 017c 23388100 		sd	s0,16(sp)
 247 0180 23349100 		sd	s1,8(sp)
 248 0184 23302101 		sd	s2,0(sp)
 249              		.cfi_offset 1, -8
 250              		.cfi_offset 8, -16
 251              		.cfi_offset 9, -24
GAS LISTING /tmp/cc3RnfEh.s 			page 13


 252              		.cfi_offset 18, -32
 253 0188 13040102 		addi	s0,sp,32
 254              		.cfi_def_cfa 8, 0
  18:src/kernel/stdio.cpp ****     ibuffer = new SharedBuffer<char>();
 255              		.loc 1 18 5
 256              	.LVL12:
 257              	.LBB194:
 258              	.LBB195:
  21:src/kernel/../../h/../h/shared_buffer.hpp ****     
 259              		.loc 4 21 5 is_stmt 0
 260 018c 97070000 		lla	a5,_ZN12SharedBufferIcE5cacheE
 260      93870700 
 261 0194 83B70700 		ld	a5,0(a5)
 262 0198 638A0720 		beq	a5,zero,.L30
 263              	.L11:
 264 019c 97070000 		lla	a5,_ZN12SharedBufferIcE5cacheE
 264      93870700 
 265 01a4 03B50700 		ld	a0,0(a5)
 266              	.LEHB0:
 267 01a8 97000000 		call	_ZN11ObjectCache9alloc_objEv
 267      E7800000 
 268              	.LVL13:
 269              	.LBE195:
 270              	.LBE194:
  18:src/kernel/stdio.cpp ****     ibuffer = new SharedBuffer<char>();
 271              		.loc 1 18 38
 272 01b0 63080506 		beq	a0,zero,.L14
 273              	.LVL14:
 274              	.LBB197:
 275              	.LBB198:
  24:src/kernel/../../h/../h/shared_buffer.hpp **** 
 276              		.loc 4 24 60
 277 01b4 13070540 		addi	a4,a0,1024
 278              	.LVL15:
 279              	.LBB199:
 280              	.LBB200:
 281              		.file 5 "src/kernel/../../h/../h/../h/ksemaphore.hpp"
   1:src/kernel/../../h/../h/../h/ksemaphore.hpp **** #ifndef __semaphore__
   2:src/kernel/../../h/../h/../h/ksemaphore.hpp **** #define __semaphore__
   3:src/kernel/../../h/../h/../h/ksemaphore.hpp **** 
   4:src/kernel/../../h/../h/../h/ksemaphore.hpp **** #include"../h/ptr_queue.hpp"
   5:src/kernel/../../h/../h/../h/ksemaphore.hpp **** #include "slab_allocator.h"
   6:src/kernel/../../h/../h/../h/ksemaphore.hpp **** 
   7:src/kernel/../../h/../h/../h/ksemaphore.hpp **** /* Class used to describe semaphore in kernel code */
   8:src/kernel/../../h/../h/../h/ksemaphore.hpp **** 
   9:src/kernel/../../h/../h/../h/ksemaphore.hpp **** class KSemaphore
  10:src/kernel/../../h/../h/../h/ksemaphore.hpp **** {
  11:src/kernel/../../h/../h/../h/ksemaphore.hpp ****     static ObjectCache* cache; 
  12:src/kernel/../../h/../h/../h/ksemaphore.hpp **** public:
  13:src/kernel/../../h/../h/../h/ksemaphore.hpp ****     //#include"../h/kernel_operators.hpp" /* allocation and deallocation */
  14:src/kernel/../../h/../h/../h/ksemaphore.hpp ****     
  15:src/kernel/../../h/../h/../h/ksemaphore.hpp ****     __SLAB_ALLOCATION__(KSemaphore, nullptr, nullptr)
  16:src/kernel/../../h/../h/../h/ksemaphore.hpp **** 
  17:src/kernel/../../h/../h/../h/ksemaphore.hpp ****     KSemaphore(unsigned val):val(val)
 282              		.loc 5 17 37
 283 01b8 93071000 		li	a5,1
 284 01bc 2324F540 		sw	a5,1032(a0)
GAS LISTING /tmp/cc3RnfEh.s 			page 14


 285              	.LVL16:
 286              	.LBB201:
 287              	.LBB202:
 288              		.file 6 "src/kernel/../../h/../h/../h/../h/ptr_queue.hpp"
   1:src/kernel/../../h/../h/../h/../h/ptr_queue.hpp **** #ifndef _queue_h
   2:src/kernel/../../h/../h/../h/../h/ptr_queue.hpp **** #define _queue_h
   3:src/kernel/../../h/../h/../h/../h/ptr_queue.hpp **** 
   4:src/kernel/../../h/../h/../h/../h/ptr_queue.hpp **** //#include"../h/tcb.hpp"
   5:src/kernel/../../h/../h/../h/../h/ptr_queue.hpp **** //#include"../h/testing.hpp"
   6:src/kernel/../../h/../h/../h/../h/ptr_queue.hpp **** #include"../lib/hw.h"
   7:src/kernel/../../h/../h/../h/../h/ptr_queue.hpp **** #include"../h/memory_allocator.hpp"
   8:src/kernel/../../h/../h/../h/../h/ptr_queue.hpp **** #include "object_cache.h"
   9:src/kernel/../../h/../h/../h/../h/ptr_queue.hpp **** #include "slab_allocator.h"
  10:src/kernel/../../h/../h/../h/../h/ptr_queue.hpp **** 
  11:src/kernel/../../h/../h/../h/../h/ptr_queue.hpp **** class TCB;
  12:src/kernel/../../h/../h/../h/../h/ptr_queue.hpp **** 
  13:src/kernel/../../h/../h/../h/../h/ptr_queue.hpp **** class TcbQueue{
  14:src/kernel/../../h/../h/../h/../h/ptr_queue.hpp ****        
  15:src/kernel/../../h/../h/../h/../h/ptr_queue.hpp ****     TCB *head, *tail;
  16:src/kernel/../../h/../h/../h/../h/ptr_queue.hpp ****     int tmpNum;
  17:src/kernel/../../h/../h/../h/../h/ptr_queue.hpp ****     void brisi(){
  18:src/kernel/../../h/../h/../h/../h/ptr_queue.hpp ****         while(!isEmpty())
  19:src/kernel/../../h/../h/../h/../h/ptr_queue.hpp ****             remove();
  20:src/kernel/../../h/../h/../h/../h/ptr_queue.hpp ****     }
  21:src/kernel/../../h/../h/../h/../h/ptr_queue.hpp ****     static ObjectCache* cache;
  22:src/kernel/../../h/../h/../h/../h/ptr_queue.hpp **** public:
  23:src/kernel/../../h/../h/../h/../h/ptr_queue.hpp ****     //#include"../h/kernel_operators.hpp"
  24:src/kernel/../../h/../h/../h/../h/ptr_queue.hpp **** 
  25:src/kernel/../../h/../h/../h/../h/ptr_queue.hpp ****     __SLAB_ALLOCATION__(TcbQueue, nullptr, nullptr);
  26:src/kernel/../../h/../h/../h/../h/ptr_queue.hpp ****     TcbQueue():head(nullptr), tail(nullptr), tmpNum(0){}
 289              		.loc 6 26 54
 290 01c0 23380540 		sd	zero,1040(a0)
 291 01c4 233C0540 		sd	zero,1048(a0)
 292 01c8 23200542 		sw	zero,1056(a0)
 293              	.LVL17:
 294              	.LBE202:
 295              	.LBE201:
  18:src/kernel/../../h/../h/../h/ksemaphore.hpp ****     {
  19:src/kernel/../../h/../h/../h/ksemaphore.hpp ****         /* 
  20:src/kernel/../../h/../h/../h/ksemaphore.hpp ****         *  Put semaphore on front 
  21:src/kernel/../../h/../h/../h/ksemaphore.hpp ****         *  of the list of active semaphores
  22:src/kernel/../../h/../h/../h/ksemaphore.hpp ****         */
  23:src/kernel/../../h/../h/../h/ksemaphore.hpp ****         next = activeSemaphores; 
 296              		.loc 5 23 9 is_stmt 1
 297              		.loc 5 23 14 is_stmt 0
 298 01cc 97070000 		lla	a5,_ZN10KSemaphore16activeSemaphoresE
 298      93870700 
 299 01d4 83B60700 		ld	a3,0(a5)
 300 01d8 2330D540 		sd	a3,1024(a0)
  24:src/kernel/../../h/../h/../h/ksemaphore.hpp ****         activeSemaphores = this;
 301              		.loc 5 24 9 is_stmt 1
 302              	.LVL18:
 303              	.LBE200:
 304              	.LBE199:
  24:src/kernel/../../h/../h/shared_buffer.hpp **** 
 305              		.loc 4 24 60 is_stmt 0
 306 01dc 93068542 		addi	a3,a0,1064
GAS LISTING /tmp/cc3RnfEh.s 			page 15


 307              	.LVL19:
 308              	.LBB203:
 309              	.LBB204:
  17:src/kernel/../../h/../h/../h/ksemaphore.hpp ****     {
 310              		.loc 5 17 37
 311 01e0 23280542 		sw	zero,1072(a0)
 312              	.LVL20:
 313              	.LBB205:
 314              	.LBB206:
 315              		.loc 6 26 54
 316 01e4 233C0542 		sd	zero,1080(a0)
 317 01e8 23300544 		sd	zero,1088(a0)
 318 01ec 23240544 		sw	zero,1096(a0)
 319              	.LVL21:
 320              	.LBE206:
 321              	.LBE205:
  23:src/kernel/../../h/../h/../h/ksemaphore.hpp ****         activeSemaphores = this;
 322              		.loc 5 23 9 is_stmt 1
  23:src/kernel/../../h/../h/../h/ksemaphore.hpp ****         activeSemaphores = this;
 323              		.loc 5 23 14 is_stmt 0
 324 01f0 2334E542 		sd	a4,1064(a0)
 325              		.loc 5 24 9 is_stmt 1
 326              	.LVL22:
 327              	.LBE204:
 328              	.LBE203:
  24:src/kernel/../../h/../h/shared_buffer.hpp **** 
 329              		.loc 4 24 60 is_stmt 0
 330 01f4 13070545 		addi	a4,a0,1104
 331              	.LVL23:
 332              	.LBB207:
 333              	.LBB208:
  17:src/kernel/../../h/../h/../h/ksemaphore.hpp ****     {
 334              		.loc 5 17 37
 335 01f8 13060040 		li	a2,1024
 336 01fc 232CC544 		sw	a2,1112(a0)
 337              	.LVL24:
 338              	.LBB209:
 339              	.LBB210:
 340              		.loc 6 26 54
 341 0200 23300546 		sd	zero,1120(a0)
 342 0204 23340546 		sd	zero,1128(a0)
 343 0208 23280546 		sw	zero,1136(a0)
 344              	.LVL25:
 345              	.LBE210:
 346              	.LBE209:
  23:src/kernel/../../h/../h/../h/ksemaphore.hpp ****         activeSemaphores = this;
 347              		.loc 5 23 9 is_stmt 1
  23:src/kernel/../../h/../h/../h/ksemaphore.hpp ****         activeSemaphores = this;
 348              		.loc 5 23 14 is_stmt 0
 349 020c 2338D544 		sd	a3,1104(a0)
 350              		.loc 5 24 9 is_stmt 1
 351              		.loc 5 24 26 is_stmt 0
 352 0210 23B0E700 		sd	a4,0(a5)
 353              	.LVL26:
 354              	.LBE208:
 355              	.LBE207:
  24:src/kernel/../../h/../h/shared_buffer.hpp **** 
GAS LISTING /tmp/cc3RnfEh.s 			page 16


 356              		.loc 4 24 60
 357 0214 232C0546 		sw	zero,1144(a0)
 358 0218 232E0546 		sw	zero,1148(a0)
 359 021c 23200548 		sw	zero,1152(a0)
 360              	.LVL27:
 361              	.L14:
 362              	.LBE198:
 363              	.LBE197:
  18:src/kernel/stdio.cpp ****     ibuffer = new SharedBuffer<char>();
 364              		.loc 1 18 13 discriminator 4
 365 0220 97070000 		sd	a0,_ZN5StdIO7ibufferE,a5
 365      23B0A700 
  19:src/kernel/stdio.cpp ****     obuffer = new SharedBuffer<char>();
 366              		.loc 1 19 5 is_stmt 1 discriminator 4
 367              	.LVL28:
 368              	.LBB211:
 369              	.LBB212:
  21:src/kernel/../../h/../h/shared_buffer.hpp ****     
 370              		.loc 4 21 5 is_stmt 0 discriminator 4
 371 0228 97070000 		lla	a5,_ZN12SharedBufferIcE5cacheE
 371      93870700 
 372 0230 83B70700 		ld	a5,0(a5)
 373 0234 638A071C 		beq	a5,zero,.L31
 374              	.L16:
  21:src/kernel/../../h/../h/shared_buffer.hpp ****     
 375              		.loc 4 21 5
 376 0238 97070000 		lla	a5,_ZN12SharedBufferIcE5cacheE
 376      93870700 
 377 0240 03B50700 		ld	a0,0(a5)
 378 0244 97000000 		call	_ZN11ObjectCache9alloc_objEv
 378      E7800000 
 379              	.LVL29:
 380              	.LBE212:
 381              	.LBE211:
  19:src/kernel/stdio.cpp ****     obuffer = new SharedBuffer<char>();
 382              		.loc 1 19 38
 383 024c 63080506 		beq	a0,zero,.L19
 384              	.LVL30:
 385              	.LBB214:
 386              	.LBB215:
  24:src/kernel/../../h/../h/shared_buffer.hpp **** 
 387              		.loc 4 24 60
 388 0250 13070540 		addi	a4,a0,1024
 389              	.LVL31:
 390              	.LBB216:
 391              	.LBB217:
  17:src/kernel/../../h/../h/../h/ksemaphore.hpp ****     {
 392              		.loc 5 17 37
 393 0254 93071000 		li	a5,1
 394 0258 2324F540 		sw	a5,1032(a0)
 395              	.LVL32:
 396              	.LBB218:
 397              	.LBB219:
 398              		.loc 6 26 54
 399 025c 23380540 		sd	zero,1040(a0)
 400 0260 233C0540 		sd	zero,1048(a0)
 401 0264 23200542 		sw	zero,1056(a0)
GAS LISTING /tmp/cc3RnfEh.s 			page 17


 402              	.LVL33:
 403              	.LBE219:
 404              	.LBE218:
  23:src/kernel/../../h/../h/../h/ksemaphore.hpp ****         activeSemaphores = this;
 405              		.loc 5 23 9 is_stmt 1
  23:src/kernel/../../h/../h/../h/ksemaphore.hpp ****         activeSemaphores = this;
 406              		.loc 5 23 14 is_stmt 0
 407 0268 97070000 		lla	a5,_ZN10KSemaphore16activeSemaphoresE
 407      93870700 
 408 0270 83B60700 		ld	a3,0(a5)
 409 0274 2330D540 		sd	a3,1024(a0)
 410              		.loc 5 24 9 is_stmt 1
 411              	.LVL34:
 412              	.LBE217:
 413              	.LBE216:
  24:src/kernel/../../h/../h/shared_buffer.hpp **** 
 414              		.loc 4 24 60 is_stmt 0
 415 0278 93068542 		addi	a3,a0,1064
 416              	.LVL35:
 417              	.LBB220:
 418              	.LBB221:
  17:src/kernel/../../h/../h/../h/ksemaphore.hpp ****     {
 419              		.loc 5 17 37
 420 027c 23280542 		sw	zero,1072(a0)
 421              	.LVL36:
 422              	.LBB222:
 423              	.LBB223:
 424              		.loc 6 26 54
 425 0280 233C0542 		sd	zero,1080(a0)
 426 0284 23300544 		sd	zero,1088(a0)
 427 0288 23240544 		sw	zero,1096(a0)
 428              	.LVL37:
 429              	.LBE223:
 430              	.LBE222:
  23:src/kernel/../../h/../h/../h/ksemaphore.hpp ****         activeSemaphores = this;
 431              		.loc 5 23 9 is_stmt 1
  23:src/kernel/../../h/../h/../h/ksemaphore.hpp ****         activeSemaphores = this;
 432              		.loc 5 23 14 is_stmt 0
 433 028c 2334E542 		sd	a4,1064(a0)
 434              		.loc 5 24 9 is_stmt 1
 435              	.LVL38:
 436              	.LBE221:
 437              	.LBE220:
  24:src/kernel/../../h/../h/shared_buffer.hpp **** 
 438              		.loc 4 24 60 is_stmt 0
 439 0290 13070545 		addi	a4,a0,1104
 440              	.LVL39:
 441              	.LBB224:
 442              	.LBB225:
  17:src/kernel/../../h/../h/../h/ksemaphore.hpp ****     {
 443              		.loc 5 17 37
 444 0294 13060040 		li	a2,1024
 445 0298 232CC544 		sw	a2,1112(a0)
 446              	.LVL40:
 447              	.LBB226:
 448              	.LBB227:
 449              		.loc 6 26 54
GAS LISTING /tmp/cc3RnfEh.s 			page 18


 450 029c 23300546 		sd	zero,1120(a0)
 451 02a0 23340546 		sd	zero,1128(a0)
 452 02a4 23280546 		sw	zero,1136(a0)
 453              	.LVL41:
 454              	.LBE227:
 455              	.LBE226:
  23:src/kernel/../../h/../h/../h/ksemaphore.hpp ****         activeSemaphores = this;
 456              		.loc 5 23 9 is_stmt 1
  23:src/kernel/../../h/../h/../h/ksemaphore.hpp ****         activeSemaphores = this;
 457              		.loc 5 23 14 is_stmt 0
 458 02a8 2338D544 		sd	a3,1104(a0)
 459              		.loc 5 24 9 is_stmt 1
 460              		.loc 5 24 26 is_stmt 0
 461 02ac 23B0E700 		sd	a4,0(a5)
 462              	.LVL42:
 463              	.LBE225:
 464              	.LBE224:
  24:src/kernel/../../h/../h/shared_buffer.hpp **** 
 465              		.loc 4 24 60
 466 02b0 232C0546 		sw	zero,1144(a0)
 467 02b4 232E0546 		sw	zero,1148(a0)
 468 02b8 23200548 		sw	zero,1152(a0)
 469              	.LVL43:
 470              	.L19:
 471              	.LBE215:
 472              	.LBE214:
  19:src/kernel/stdio.cpp ****     obuffer = new SharedBuffer<char>();
 473              		.loc 1 19 13 discriminator 4
 474 02bc 97070000 		sd	a0,_ZN5StdIO7obufferE,a5
 474      23B0A700 
  20:src/kernel/stdio.cpp ****     blockSem = new KSemaphore(0);
 475              		.loc 1 20 5 is_stmt 1 discriminator 4
 476              	.LVL44:
 477              	.LBB228:
 478              	.LBB229:
  15:src/kernel/../../h/../h/../h/ksemaphore.hpp **** 
 479              		.loc 5 15 5 discriminator 4
 480 02c4 97070000 		lla	a5,_ZN10KSemaphore5cacheE
 480      93870700 
 481 02cc 83B70700 		ld	a5,0(a5)
 482 02d0 638A0718 		beq	a5,zero,.L32
 483              	.L21:
  15:src/kernel/../../h/../h/../h/ksemaphore.hpp **** 
 484              		.loc 5 15 5
 485 02d4 97070000 		lla	a5,_ZN10KSemaphore5cacheE
 485      93870700 
 486 02dc 03B50700 		ld	a0,0(a5)
 487 02e0 97000000 		call	_ZN11ObjectCache9alloc_objEv
 487      E7800000 
 488              	.LVL45:
 489              	.LBE229:
 490              	.LBE228:
  20:src/kernel/stdio.cpp ****     blockSem = new KSemaphore(0);
 491              		.loc 1 20 32 is_stmt 0
 492 02e8 63040502 		beq	a0,zero,.L24
 493              	.LVL46:
 494              	.LBB231:
GAS LISTING /tmp/cc3RnfEh.s 			page 19


 495              	.LBB232:
  17:src/kernel/../../h/../h/../h/ksemaphore.hpp ****     {
 496              		.loc 5 17 37
 497 02ec 23240500 		sw	zero,8(a0)
 498              	.LVL47:
 499              	.LBB233:
 500              	.LBB234:
 501              		.loc 6 26 54
 502 02f0 23380500 		sd	zero,16(a0)
 503 02f4 233C0500 		sd	zero,24(a0)
 504 02f8 23200502 		sw	zero,32(a0)
 505              	.LVL48:
 506              	.LBE234:
 507              	.LBE233:
  23:src/kernel/../../h/../h/../h/ksemaphore.hpp ****         activeSemaphores = this;
 508              		.loc 5 23 9 is_stmt 1
  23:src/kernel/../../h/../h/../h/ksemaphore.hpp ****         activeSemaphores = this;
 509              		.loc 5 23 14 is_stmt 0
 510 02fc 97070000 		lla	a5,_ZN10KSemaphore16activeSemaphoresE
 510      93870700 
 511 0304 03B70700 		ld	a4,0(a5)
 512 0308 2330E500 		sd	a4,0(a0)
 513              		.loc 5 24 9 is_stmt 1
 514              		.loc 5 24 26 is_stmt 0
 515 030c 23B0A700 		sd	a0,0(a5)
 516              	.LVL49:
 517              	.L24:
 518              	.LBE232:
 519              	.LBE231:
  20:src/kernel/stdio.cpp ****     blockSem = new KSemaphore(0);
 520              		.loc 1 20 14 discriminator 4
 521 0310 97070000 		sd	a0,_ZN5StdIO8blockSemE,a5
 521      23B0A700 
  21:src/kernel/stdio.cpp ****     iostatus = (unsigned char*)CONSOLE_STATUS;
 522              		.loc 1 21 5 is_stmt 1 discriminator 4
  21:src/kernel/stdio.cpp ****     iostatus = (unsigned char*)CONSOLE_STATUS;
 523              		.loc 1 21 14 is_stmt 0 discriminator 4
 524 0318 97070000 		lla	a5,CONSOLE_STATUS
 524      93870700 
 525 0320 83B70700 		ld	a5,0(a5)
 526 0324 17070000 		sd	a5,_ZN5StdIO8iostatusE,a4
 526      2330F700 
  22:src/kernel/stdio.cpp ****     idata = (char*)CONSOLE_RX_DATA;
 527              		.loc 1 22 5 is_stmt 1 discriminator 4
  22:src/kernel/stdio.cpp ****     idata = (char*)CONSOLE_RX_DATA;
 528              		.loc 1 22 11 is_stmt 0 discriminator 4
 529 032c 97070000 		lla	a5,CONSOLE_RX_DATA
 529      93870700 
 530 0334 83B70700 		ld	a5,0(a5)
 531 0338 17070000 		sd	a5,_ZN5StdIO5idataE,a4
 531      2330F700 
  23:src/kernel/stdio.cpp ****     odata = (char*)CONSOLE_TX_DATA;
 532              		.loc 1 23 5 is_stmt 1 discriminator 4
  23:src/kernel/stdio.cpp ****     odata = (char*)CONSOLE_TX_DATA;
 533              		.loc 1 23 11 is_stmt 0 discriminator 4
 534 0340 97070000 		lla	a5,CONSOLE_TX_DATA
 534      93870700 
GAS LISTING /tmp/cc3RnfEh.s 			page 20


 535 0348 83B70700 		ld	a5,0(a5)
 536 034c 17070000 		sd	a5,_ZN5StdIO5odataE,a4
 536      2330F700 
  25:src/kernel/stdio.cpp ****     uint64* stack = (uint64*)SlabAllocator::getInstance().kmalloc(DEFAULT_STACK_SIZE);
 537              		.loc 1 25 5 is_stmt 1 discriminator 4
  25:src/kernel/stdio.cpp ****     uint64* stack = (uint64*)SlabAllocator::getInstance().kmalloc(DEFAULT_STACK_SIZE);
 538              		.loc 1 25 57 is_stmt 0 discriminator 4
 539 0354 97000000 		call	_ZN13SlabAllocator11getInstanceEv
 539      E7800000 
 540              	.LVL50:
  25:src/kernel/stdio.cpp ****     uint64* stack = (uint64*)SlabAllocator::getInstance().kmalloc(DEFAULT_STACK_SIZE);
 541              		.loc 1 25 66 discriminator 4
 542 035c B7150000 		li	a1,4096
 543 0360 97000000 		call	_ZN13SlabAllocator7kmallocEm
 543      E7800000 
 544              	.LVL51:
  26:src/kernel/stdio.cpp ****     out_thread = TCB::createThread(outputWorker, nullptr, stack);
 545              		.loc 1 26 5 is_stmt 1 discriminator 4
  26:src/kernel/stdio.cpp ****     out_thread = TCB::createThread(outputWorker, nullptr, stack);
 546              		.loc 1 26 35 is_stmt 0 discriminator 4
 547 0368 13060500 		mv	a2,a0
 548 036c 93050000 		li	a1,0
 549 0370 17050000 		lla	a0,_ZN5StdIO12outputWorkerEPv
 549      13050500 
 550              	.LVL52:
 551 0378 97000000 		call	_ZN3TCB12createThreadEPFvPvES0_Pm
 551      E7800000 
 552              	.LVL53:
  26:src/kernel/stdio.cpp ****     out_thread = TCB::createThread(outputWorker, nullptr, stack);
 553              		.loc 1 26 16 discriminator 4
 554 0380 97070000 		sd	a0,_ZN5StdIO10out_threadE,a5
 554      23B0A700 
  27:src/kernel/stdio.cpp ****     out_thread->setKernelMode();
 555              		.loc 1 27 5 is_stmt 1 discriminator 4
 556              	.LVL54:
 557              	.LBB235:
 558              	.LBB236:
 559              		.file 7 "src/kernel/../../h/tcb.hpp"
   1:src/kernel/../../h/tcb.hpp **** #ifndef __tcb__h
   2:src/kernel/../../h/tcb.hpp **** #define __tcb__h
   3:src/kernel/../../h/tcb.hpp **** 
   4:src/kernel/../../h/tcb.hpp **** #include"../h/memory_allocator.hpp"
   5:src/kernel/../../h/tcb.hpp **** #include"../h/slab_allocator.h"
   6:src/kernel/../../h/tcb.hpp **** #include "object_cache.h"
   7:src/kernel/../../h/tcb.hpp **** 
   8:src/kernel/../../h/tcb.hpp **** class KSemaphore;
   9:src/kernel/../../h/tcb.hpp **** 
  10:src/kernel/../../h/tcb.hpp **** /* THREAD CONTROL BLOCK */
  11:src/kernel/../../h/tcb.hpp **** class TCB{ 
  12:src/kernel/../../h/tcb.hpp ****     
  13:src/kernel/../../h/tcb.hpp **** public:
  14:src/kernel/../../h/tcb.hpp ****     //alokacija
  15:src/kernel/../../h/tcb.hpp ****     //#include"../h/kernel_operators.hpp"
  16:src/kernel/../../h/tcb.hpp ****     
  17:src/kernel/../../h/tcb.hpp ****     void* operator new(size_t sz); 
  18:src/kernel/../../h/tcb.hpp ****     void* operator new[](size_t sz);
  19:src/kernel/../../h/tcb.hpp ****     void operator delete(void* ptr);
GAS LISTING /tmp/cc3RnfEh.s 			page 21


  20:src/kernel/../../h/tcb.hpp ****     void operator delete[](void* ptr);
  21:src/kernel/../../h/tcb.hpp **** 
  22:src/kernel/../../h/tcb.hpp ****     using Body = void (*)(void*);
  23:src/kernel/../../h/tcb.hpp ****     enum TCBState{
  24:src/kernel/../../h/tcb.hpp ****         BLOCKED,
  25:src/kernel/../../h/tcb.hpp ****         READY,
  26:src/kernel/../../h/tcb.hpp ****         FINISHED,
  27:src/kernel/../../h/tcb.hpp ****         SLEEPING,
  28:src/kernel/../../h/tcb.hpp ****         PREPARING
  29:src/kernel/../../h/tcb.hpp ****     };
  30:src/kernel/../../h/tcb.hpp ****     
  31:src/kernel/../../h/tcb.hpp ****     ~TCB(){ 
  32:src/kernel/../../h/tcb.hpp ****         if(isKernelThread()){
  33:src/kernel/../../h/tcb.hpp ****             SlabAllocator::getInstance().kfree(this->stack);
  34:src/kernel/../../h/tcb.hpp ****         }
  35:src/kernel/../../h/tcb.hpp ****         else{
  36:src/kernel/../../h/tcb.hpp ****             MemoryAllocator& allocator = MemoryAllocator::getInstance(); 
  37:src/kernel/../../h/tcb.hpp ****             allocator.mem_free(this->stack);
  38:src/kernel/../../h/tcb.hpp ****         }
  39:src/kernel/../../h/tcb.hpp ****     }
  40:src/kernel/../../h/tcb.hpp ****     
  41:src/kernel/../../h/tcb.hpp ****     //nestaticki metodi
  42:src/kernel/../../h/tcb.hpp ****     void setState(TCBState s) {state = s;}
  43:src/kernel/../../h/tcb.hpp ****     TCBState getState() const{ return state; }
  44:src/kernel/../../h/tcb.hpp ****     void finish() { state = FINISHED; }
  45:src/kernel/../../h/tcb.hpp ****     bool isFinished(){ return state == FINISHED; }
  46:src/kernel/../../h/tcb.hpp ****     uint64 getTimeSlice() const { return timeSlice; }
  47:src/kernel/../../h/tcb.hpp ****     bool isSuspended(){return state == BLOCKED || state == SLEEPING;}
  48:src/kernel/../../h/tcb.hpp ****     void setKernelMode() { userMode = false; }
 560              		.loc 7 48 28 discriminator 4
 561              		.loc 7 48 37 is_stmt 0 discriminator 4
 562 0388 A30A0502 		sb	zero,53(a0)
 563              	.LVL55:
 564              	.LBE236:
 565              	.LBE235:
  28:src/kernel/stdio.cpp ****     out_thread->setKernelLocked();
 566              		.loc 1 28 5 is_stmt 1 discriminator 4
 567              	.LBB237:
 568              	.LBB238:
  49:src/kernel/../../h/tcb.hpp ****     void setKernelLocked() { locked = true; }
 569              		.loc 7 49 30 discriminator 4
 570              		.loc 7 49 37 is_stmt 0 discriminator 4
 571 038c 93071000 		li	a5,1
 572 0390 230BF502 		sb	a5,54(a0)
 573              	.LVL56:
 574              	.LBE238:
 575              	.LBE237:
  29:src/kernel/stdio.cpp **** }
 576              		.loc 1 29 1 discriminator 4
 577 0394 83308101 		ld	ra,24(sp)
 578              		.cfi_remember_state
 579              		.cfi_restore 1
 580 0398 03340101 		ld	s0,16(sp)
 581              		.cfi_restore 8
 582              		.cfi_def_cfa 2, 32
 583 039c 83348100 		ld	s1,8(sp)
 584              		.cfi_restore 9
GAS LISTING /tmp/cc3RnfEh.s 			page 22


 585 03a0 03390100 		ld	s2,0(sp)
 586              		.cfi_restore 18
 587 03a4 13010102 		addi	sp,sp,32
 588              		.cfi_def_cfa_offset 0
 589 03a8 67800000 		jr	ra
 590              	.LVL57:
 591              	.L30:
 592              		.cfi_restore_state
 593              	.LBB239:
 594              	.LBB196:
  21:src/kernel/../../h/../h/shared_buffer.hpp ****     
 595              		.loc 4 21 5
 596 03ac 13058005 		li	a0,88
 597 03b0 97000000 		call	_ZN11ObjectCachenwEm
 597      E7800000 
 598              	.LVL58:
 599              	.LEHE0:
 600 03b8 93040500 		mv	s1,a0
 601 03bc 63020502 		beq	a0,zero,.L12
 602 03c0 93070000 		li	a5,0
 603 03c4 13070000 		li	a4,0
 604 03c8 93060000 		li	a3,0
 605 03cc 13068048 		li	a2,1160
 606 03d0 97050000 		lla	a1,.LC0
 606      93850500 
 607              	.LEHB1:
 608 03d8 97000000 		call	_ZN11ObjectCacheC1EPKcmPFvPvES4_NS_12SlabMetaTypeE
 608      E7800000 
 609              	.LVL59:
 610              	.LEHE1:
 611              	.L12:
 612 03e0 97070000 		sd	s1,_ZN12SharedBufferIcE5cacheE,a5
 612      23B09700 
 613 03e8 6FF05FDB 		j	.L11
 614              	.L26:
 615 03ec 13090500 		mv	s2,a0
 616 03f0 13850400 		mv	a0,s1
 617 03f4 97000000 		call	_ZN11ObjectCachedlEPv
 617      E7800000 
 618              	.LVL60:
 619 03fc 13050900 		mv	a0,s2
 620              	.LEHB2:
 621 0400 97000000 		call	_Unwind_Resume
 621      E7800000 
 622              	.LVL61:
 623              	.L31:
 624              	.LBE196:
 625              	.LBE239:
 626              	.LBB240:
 627              	.LBB213:
 628 0408 13058005 		li	a0,88
 629 040c 97000000 		call	_ZN11ObjectCachenwEm
 629      E7800000 
 630              	.LVL62:
 631              	.LEHE2:
 632 0414 93040500 		mv	s1,a0
 633 0418 63020502 		beq	a0,zero,.L17
GAS LISTING /tmp/cc3RnfEh.s 			page 23


 634 041c 93070000 		li	a5,0
 635 0420 13070000 		li	a4,0
 636 0424 93060000 		li	a3,0
 637 0428 13068048 		li	a2,1160
 638 042c 97050000 		lla	a1,.LC0
 638      93850500 
 639              	.LEHB3:
 640 0434 97000000 		call	_ZN11ObjectCacheC1EPKcmPFvPvES4_NS_12SlabMetaTypeE
 640      E7800000 
 641              	.LVL63:
 642              	.LEHE3:
 643              	.L17:
 644 043c 97070000 		sd	s1,_ZN12SharedBufferIcE5cacheE,a5
 644      23B09700 
 645 0444 6FF05FDF 		j	.L16
 646              	.L27:
 647 0448 13090500 		mv	s2,a0
 648 044c 13850400 		mv	a0,s1
 649 0450 97000000 		call	_ZN11ObjectCachedlEPv
 649      E7800000 
 650              	.LVL64:
 651 0458 13050900 		mv	a0,s2
 652              	.LEHB4:
 653 045c 97000000 		call	_Unwind_Resume
 653      E7800000 
 654              	.LVL65:
 655              	.L32:
 656              	.LBE213:
 657              	.LBE240:
 658              	.LBB241:
 659              	.LBB230:
  15:src/kernel/../../h/../h/../h/ksemaphore.hpp **** 
 660              		.loc 5 15 5 is_stmt 1
 661 0464 13058005 		li	a0,88
 662 0468 97000000 		call	_ZN11ObjectCachenwEm
 662      E7800000 
 663              	.LVL66:
 664              	.LEHE4:
 665 0470 93040500 		mv	s1,a0
 666 0474 63020502 		beq	a0,zero,.L22
 667 0478 93070000 		li	a5,0
 668 047c 13070000 		li	a4,0
 669 0480 93060000 		li	a3,0
 670 0484 13068002 		li	a2,40
 671 0488 97050000 		lla	a1,.LC1
 671      93850500 
 672              	.LEHB5:
 673 0490 97000000 		call	_ZN11ObjectCacheC1EPKcmPFvPvES4_NS_12SlabMetaTypeE
 673      E7800000 
 674              	.LVL67:
 675              	.LEHE5:
 676              	.L22:
 677 0498 97070000 		sd	s1,_ZN10KSemaphore5cacheE,a5
 677      23B09700 
 678 04a0 6FF05FE3 		j	.L21
 679              	.L28:
 680 04a4 13090500 		mv	s2,a0
GAS LISTING /tmp/cc3RnfEh.s 			page 24


 681 04a8 13850400 		mv	a0,s1
 682 04ac 97000000 		call	_ZN11ObjectCachedlEPv
 682      E7800000 
 683              	.LVL68:
 684 04b4 13050900 		mv	a0,s2
 685              	.LEHB6:
 686 04b8 97000000 		call	_Unwind_Resume
 686      E7800000 
 687              	.LVL69:
 688              	.LEHE6:
 689              	.LBE230:
 690              	.LBE241:
 691              		.cfi_endproc
 692              	.LFE85:
 693              		.globl	__gxx_personality_v0
 694              		.section	.gcc_except_table,"aw",@progbits
 695              	.LLSDA85:
 696 0000 FF       		.byte	0xff
 697 0001 FF       		.byte	0xff
 698 0002 03       		.byte	0x3
 699 0003 5B       		.byte	0x5b
 700 0004 00000000 		.4byte	.LEHB0-.LFB85
 701 0008 00000000 		.4byte	.LEHE0-.LEHB0
 702 000c 00000000 		.4byte	0
 703 0010 00       		.byte	0
 704 0011 00000000 		.4byte	.LEHB1-.LFB85
 705 0015 00000000 		.4byte	.LEHE1-.LEHB1
 706 0019 00000000 		.4byte	.L26-.LFB85
 707 001d 00       		.byte	0
 708 001e 00000000 		.4byte	.LEHB2-.LFB85
 709 0022 00000000 		.4byte	.LEHE2-.LEHB2
 710 0026 00000000 		.4byte	0
 711 002a 00       		.byte	0
 712 002b 00000000 		.4byte	.LEHB3-.LFB85
 713 002f 00000000 		.4byte	.LEHE3-.LEHB3
 714 0033 00000000 		.4byte	.L27-.LFB85
 715 0037 00       		.byte	0
 716 0038 00000000 		.4byte	.LEHB4-.LFB85
 717 003c 00000000 		.4byte	.LEHE4-.LEHB4
 718 0040 00000000 		.4byte	0
 719 0044 00       		.byte	0
 720 0045 00000000 		.4byte	.LEHB5-.LFB85
 721 0049 00000000 		.4byte	.LEHE5-.LEHB5
 722 004d 00000000 		.4byte	.L28-.LFB85
 723 0051 00       		.byte	0
 724 0052 00000000 		.4byte	.LEHB6-.LFB85
 725 0056 00000000 		.4byte	.LEHE6-.LEHB6
 726 005a 00000000 		.4byte	0
 727 005e 00       		.byte	0
 728              		.text
 730              		.align	2
 731              		.globl	_ZN5StdIO11inputWorkerEv
 733              	_ZN5StdIO11inputWorkerEv:
 734              	.LFB87:
  59:src/kernel/stdio.cpp **** {
 735              		.loc 1 59 1
 736              		.cfi_startproc
GAS LISTING /tmp/cc3RnfEh.s 			page 25


 737 04c0 130101FF 		addi	sp,sp,-16
 738              		.cfi_def_cfa_offset 16
 739 04c4 23348100 		sd	s0,8(sp)
 740              		.cfi_offset 8, -8
 741 04c8 13040101 		addi	s0,sp,16
 742              		.cfi_def_cfa 8, 0
  61:src/kernel/stdio.cpp **** }
 743              		.loc 1 61 1 is_stmt 0
 744 04cc 03348100 		ld	s0,8(sp)
 745              		.cfi_restore 8
 746              		.cfi_def_cfa 2, 16
 747 04d0 13010101 		addi	sp,sp,16
 748              		.cfi_def_cfa_offset 0
 749 04d4 67800000 		jr	ra
 750              		.cfi_endproc
 751              	.LFE87:
 753              		.align	2
 754              		.globl	_ZN5StdIO15console_handlerEv
 756              	_ZN5StdIO15console_handlerEv:
 757              	.LFB88:
  63:src/kernel/stdio.cpp **** void StdIO::console_handler(){
 758              		.loc 1 63 30 is_stmt 1
 759              		.cfi_startproc
 760 04d8 130101FC 		addi	sp,sp,-64
 761              		.cfi_def_cfa_offset 64
 762 04dc 233C1102 		sd	ra,56(sp)
 763 04e0 23388102 		sd	s0,48(sp)
 764 04e4 23349102 		sd	s1,40(sp)
 765 04e8 23302103 		sd	s2,32(sp)
 766 04ec 233C3101 		sd	s3,24(sp)
 767              		.cfi_offset 1, -8
 768              		.cfi_offset 8, -16
 769              		.cfi_offset 9, -24
 770              		.cfi_offset 18, -32
 771              		.cfi_offset 19, -40
 772 04f0 13040104 		addi	s0,sp,64
 773              		.cfi_def_cfa 8, 0
  64:src/kernel/stdio.cpp ****     uint64 t = plic_claim();
 774              		.loc 1 64 5
  64:src/kernel/stdio.cpp ****     uint64 t = plic_claim();
 775              		.loc 1 64 26 is_stmt 0
 776 04f4 97000000 		call	plic_claim
 776      E7800000 
 777              	.LVL70:
  65:src/kernel/stdio.cpp ****     if(t == CONSOLE_IRQ)
 778              		.loc 1 65 5 is_stmt 1
 779              	.LBB262:
 780 04fc 9307A000 		li	a5,10
 781 0500 6310F512 		bne	a0,a5,.L36
 782              	.LBE262:
  68:src/kernel/stdio.cpp ****         if(input_ready())
 783              		.loc 1 68 9
 784              	.LBB282:
 785              	.LBB263:
 786              	.LBB264:
 787              	.LBB265:
  25:src/kernel/../../h/stdio.hpp ****     static bool output_ready() { return *iostatus & CONSOLE_TX_STATUS_BIT; }
GAS LISTING /tmp/cc3RnfEh.s 			page 26


 788              		.loc 3 25 32
  25:src/kernel/../../h/stdio.hpp ****     static bool output_ready() { return *iostatus & CONSOLE_TX_STATUS_BIT; }
 789              		.loc 3 25 39 is_stmt 0
 790 0504 97070000 		lla	a5,_ZN5StdIO8iostatusE
 790      93870700 
 791 050c 83B70700 		ld	a5,0(a5)
 792 0510 83C70700 		lbu	a5,0(a5)
 793              	.LBE265:
 794              	.LBE264:
  68:src/kernel/stdio.cpp ****         if(input_ready())
 795              		.loc 1 68 9
 796 0514 93F71700 		andi	a5,a5,1
 797 0518 6382070A 		beq	a5,zero,.L37
 798              	.LBB266:
  70:src/kernel/stdio.cpp ****             char c = *idata;
 799              		.loc 1 70 13 is_stmt 1
  70:src/kernel/stdio.cpp ****             char c = *idata;
 800              		.loc 1 70 22 is_stmt 0
 801 051c 97070000 		lla	a5,_ZN5StdIO5idataE
 801      93870700 
 802 0524 83B70700 		ld	a5,0(a5)
  70:src/kernel/stdio.cpp ****             char c = *idata;
 803              		.loc 1 70 18
 804 0528 03C90700 		lbu	s2,0(a5)
 805              	.LVL71:
  71:src/kernel/stdio.cpp ****             plic_complete(CONSOLE_IRQ);
 806              		.loc 1 71 13 is_stmt 1
  71:src/kernel/stdio.cpp ****             plic_complete(CONSOLE_IRQ);
 807              		.loc 1 71 26 is_stmt 0
 808 052c 1305A000 		li	a0,10
 809              	.LVL72:
 810 0530 97000000 		call	plic_complete
 810      E7800000 
 811              	.LVL73:
  73:src/kernel/stdio.cpp ****             if(ibuffer->tmpLen < SharedBuffer<char>::BUFFER_SIZE){
 812              		.loc 1 73 13 is_stmt 1
  73:src/kernel/stdio.cpp ****             if(ibuffer->tmpLen < SharedBuffer<char>::BUFFER_SIZE){
 813              		.loc 1 73 25 is_stmt 0
 814 0538 97070000 		lla	a5,_ZN5StdIO7ibufferE
 814      93870700 
 815 0540 83B40700 		ld	s1,0(a5)
 816 0544 03A70448 		lw	a4,1152(s1)
  73:src/kernel/stdio.cpp ****             if(ibuffer->tmpLen < SharedBuffer<char>::BUFFER_SIZE){
 817              		.loc 1 73 13
 818 0548 9307F03F 		li	a5,1023
 819 054c 63CEE70C 		bgt	a4,a5,.L35
  74:src/kernel/stdio.cpp ****                 ibuffer->put(c); 
 820              		.loc 1 74 17 is_stmt 1
 821              	.LVL74:
 822              	.LBB267:
 823              	.LBB268:
  27:src/kernel/../../h/../h/shared_buffer.hpp ****         mutex.wait();
 824              		.loc 4 27 28 is_stmt 0
 825 0550 13850445 		addi	a0,s1,1104
 826 0554 97000000 		call	_ZN10KSemaphore4waitEv
 826      E7800000 
 827              	.LVL75:
GAS LISTING /tmp/cc3RnfEh.s 			page 27


  28:src/kernel/../../h/../h/shared_buffer.hpp **** 
 828              		.loc 4 28 19
 829 055c 93890440 		addi	s3,s1,1024
 830 0560 13850900 		mv	a0,s3
 831 0564 97000000 		call	_ZN10KSemaphore4waitEv
 831      E7800000 
 832              	.LVL76:
  30:src/kernel/../../h/../h/shared_buffer.hpp ****         buffer[tail]=c;
 833              		.loc 4 30 9
 834 056c 83A70448 		lw	a5,1152(s1)
 835 0570 9B871700 		addiw	a5,a5,1
 836 0574 23A0F448 		sw	a5,1152(s1)
  31:src/kernel/../../h/../h/shared_buffer.hpp ****         tail=(tail+1)%BUFFER_SIZE;
 837              		.loc 4 31 16
 838 0578 83A7C447 		lw	a5,1148(s1)
  31:src/kernel/../../h/../h/shared_buffer.hpp ****         tail=(tail+1)%BUFFER_SIZE;
 839              		.loc 4 31 9
 840 057c 3387F400 		add	a4,s1,a5
 841 0580 23002701 		sb	s2,0(a4)
  32:src/kernel/../../h/../h/shared_buffer.hpp ****     
 842              		.loc 4 32 19
 843 0584 9B871700 		addiw	a5,a5,1
  32:src/kernel/../../h/../h/shared_buffer.hpp ****     
 844              		.loc 4 32 22
 845 0588 1BD7F741 		sraiw	a4,a5,31
 846 058c 1B576701 		srliw	a4,a4,22
 847 0590 BB87E700 		addw	a5,a5,a4
 848 0594 93F7F73F 		andi	a5,a5,1023
 849 0598 BB87E740 		subw	a5,a5,a4
  32:src/kernel/../../h/../h/shared_buffer.hpp ****     
 850              		.loc 4 32 9
 851 059c 23AEF446 		sw	a5,1148(s1)
  34:src/kernel/../../h/../h/shared_buffer.hpp ****         mutex.signal();
 852              		.loc 4 34 29
 853 05a0 13858442 		addi	a0,s1,1064
 854 05a4 97000000 		call	_ZN10KSemaphore6signalEv
 854      E7800000 
 855              	.LVL77:
  35:src/kernel/../../h/../h/shared_buffer.hpp ****     }
 856              		.loc 4 35 21
 857 05ac 13850900 		mv	a0,s3
 858 05b0 97000000 		call	_ZN10KSemaphore6signalEv
 858      E7800000 
 859              	.LVL78:
 860 05b8 6F000007 		j	.L35
 861              	.LVL79:
 862              	.L37:
 863              	.LBE268:
 864              	.LBE267:
 865              	.LBE266:
 866              	.LBB269:
  80:src/kernel/stdio.cpp ****             plic_complete(CONSOLE_IRQ);
 867              		.loc 1 80 13 is_stmt 1
  80:src/kernel/stdio.cpp ****             plic_complete(CONSOLE_IRQ);
 868              		.loc 1 80 26 is_stmt 0
 869 05bc 1305A000 		li	a0,10
 870              	.LVL80:
GAS LISTING /tmp/cc3RnfEh.s 			page 28


 871 05c0 97000000 		call	plic_complete
 871      E7800000 
 872              	.LVL81:
  81:src/kernel/stdio.cpp ****             if(out_thread != nullptr)
 873              		.loc 1 81 13 is_stmt 1
 874              	.LBB270:
  81:src/kernel/stdio.cpp ****             if(out_thread != nullptr)
 875              		.loc 1 81 27 is_stmt 0
 876 05c8 97070000 		lla	a5,_ZN5StdIO10out_threadE
 876      93870700 
 877 05d0 83B70700 		ld	a5,0(a5)
  81:src/kernel/stdio.cpp ****             if(out_thread != nullptr)
 878              		.loc 1 81 13
 879 05d4 638A0704 		beq	a5,zero,.L35
 880              	.LBB271:
  83:src/kernel/stdio.cpp ****                 uint64 sstatus = Riscv::r_sstatus(), sepc = Riscv::r_sepc();
 881              		.loc 1 83 17 is_stmt 1
 882              	.LBB272:
 883              	.LBB273:
 219:src/kernel/../../h/riscv.hpp ****     asm volatile("csrr %0, sstatus" : "=r" (sstatus));
 884              		.loc 2 219 5
 220:src/kernel/../../h/riscv.hpp ****     return sstatus;
 885              		.loc 2 220 5
 220:src/kernel/../../h/riscv.hpp ****     return sstatus;
 886              		.loc 2 220 54 is_stmt 0
 887              	 #APP
 888              	# 220 "src/kernel/../../h/riscv.hpp" 1
 889              		csrr a5, sstatus
 890              	# 0 "" 2
 891              	 #NO_APP
 892 05dc 2334F4FC 		sd	a5,-56(s0)
 893              		.loc 2 221 5 is_stmt 1
 894              		.loc 2 221 12 is_stmt 0
 895 05e0 033984FC 		ld	s2,-56(s0)
 896              	.LVL82:
 897              	.LBE273:
 898              	.LBE272:
 899              	.LBB274:
 900              	.LBB275:
 145:src/kernel/../../h/riscv.hpp ****     asm volatile("csrr %0, sepc" : "=r" (sepc));
 901              		.loc 2 145 5 is_stmt 1
 146:src/kernel/../../h/riscv.hpp ****     return sepc;
 902              		.loc 2 146 5
 146:src/kernel/../../h/riscv.hpp ****     return sepc;
 903              		.loc 2 146 48 is_stmt 0
 904              	 #APP
 905              	# 146 "src/kernel/../../h/riscv.hpp" 1
 906              		csrr a5, sepc
 907              	# 0 "" 2
 908              	 #NO_APP
 909 05e8 2330F4FC 		sd	a5,-64(s0)
 147:src/kernel/../../h/riscv.hpp **** } 
 910              		.loc 2 147 5 is_stmt 1
 147:src/kernel/../../h/riscv.hpp **** } 
 911              		.loc 2 147 12 is_stmt 0
 912 05ec 833404FC 		ld	s1,-64(s0)
 913              	.LVL83:
GAS LISTING /tmp/cc3RnfEh.s 			page 29


 914              	.LBE275:
 915              	.LBE274:
  84:src/kernel/stdio.cpp ****                 Scheduler::put_front(out_thread);
 916              		.loc 1 84 17 is_stmt 1
 917              	.LBB276:
 918              	.LBB277:
 919              		.file 8 "src/kernel/../../h/scheduler.hpp"
   1:src/kernel/../../h/scheduler.hpp **** #ifndef _scheduler_
   2:src/kernel/../../h/scheduler.hpp **** #define _scheduler_
   3:src/kernel/../../h/scheduler.hpp **** 
   4:src/kernel/../../h/scheduler.hpp **** #include"../lib/hw.h"
   5:src/kernel/../../h/scheduler.hpp **** #include"../h/ptr_queue.hpp"
   6:src/kernel/../../h/scheduler.hpp **** 
   7:src/kernel/../../h/scheduler.hpp **** class Scheduler
   8:src/kernel/../../h/scheduler.hpp **** {
   9:src/kernel/../../h/scheduler.hpp **** public:  
  10:src/kernel/../../h/scheduler.hpp ****     static void initalize();
  11:src/kernel/../../h/scheduler.hpp ****     static TCB* get();
  12:src/kernel/../../h/scheduler.hpp ****     static void put(TCB*);
  13:src/kernel/../../h/scheduler.hpp ****     static void finalize();
  14:src/kernel/../../h/scheduler.hpp ****     static void put_sleeper(TCB*, time_t);
  15:src/kernel/../../h/scheduler.hpp ****     static void update_sleep();
  16:src/kernel/../../h/scheduler.hpp ****     static void put_front(TCB* t) { queue.insertFront(t); }
 920              		.loc 8 16 37
 921              		.loc 8 16 54 is_stmt 0
 922 05f0 97070000 		lla	a5,_ZN5StdIO10out_threadE
 922      93870700 
 923 05f8 83B50700 		ld	a1,0(a5)
 924 05fc 17050000 		lla	a0,_ZN9Scheduler5queueE
 924      13050500 
 925 0604 97000000 		call	_ZN8TcbQueue11insertFrontEP3TCB
 925      E7800000 
 926              	.LVL84:
 927              	.LBE277:
 928              	.LBE276:
  86:src/kernel/stdio.cpp ****                 TCB::yield();
 929              		.loc 1 86 17 is_stmt 1
  86:src/kernel/stdio.cpp ****                 TCB::yield();
 930              		.loc 1 86 27 is_stmt 0
 931 060c 97000000 		call	_ZN3TCB5yieldEv
 931      E7800000 
 932              	.LVL85:
  88:src/kernel/stdio.cpp ****                 Riscv::w_sstatus(sstatus);
 933              		.loc 1 88 17 is_stmt 1
 934              	.LBB278:
 935              	.LBB279:
 215:src/kernel/../../h/riscv.hpp **** }
 936              		.loc 2 215 5
 215:src/kernel/../../h/riscv.hpp **** }
 937              		.loc 2 215 55 is_stmt 0
 938              	 #APP
 939              	# 215 "src/kernel/../../h/riscv.hpp" 1
 940              		csrw sstatus, s2
 941              	# 0 "" 2
 942              	.LVL86:
 943              	 #NO_APP
 944              	.LBE279:
GAS LISTING /tmp/cc3RnfEh.s 			page 30


 945              	.LBE278:
  89:src/kernel/stdio.cpp ****                 Riscv::w_sepc(sepc);
 946              		.loc 1 89 17 is_stmt 1
 947              	.LBB280:
 948              	.LBB281:
 141:src/kernel/../../h/riscv.hpp **** }
 949              		.loc 2 141 5
 141:src/kernel/../../h/riscv.hpp **** }
 950              		.loc 2 141 49 is_stmt 0
 951              	 #APP
 952              	# 141 "src/kernel/../../h/riscv.hpp" 1
 953              		csrw sepc, s1
 954              	# 0 "" 2
 955              	 #NO_APP
 956 061c 6F00C000 		j	.L35
 957              	.LVL87:
 958              	.L36:
 959              	.LBE281:
 960              	.LBE280:
 961              	.LBE271:
 962              	.LBE270:
 963              	.LBE269:
 964              	.LBE263:
  95:src/kernel/stdio.cpp ****         plic_complete(t);
 965              		.loc 1 95 9 is_stmt 1
  95:src/kernel/stdio.cpp ****         plic_complete(t);
 966              		.loc 1 95 22 is_stmt 0
 967 0620 97000000 		call	plic_complete
 967      E7800000 
 968              	.LVL88:
 969              	.L35:
 970              	.LBE282:
 971              		.loc 1 97 1
 972 0628 83308103 		ld	ra,56(sp)
 973              		.cfi_restore 1
 974 062c 03340103 		ld	s0,48(sp)
 975              		.cfi_restore 8
 976              		.cfi_def_cfa 2, 64
 977 0630 83348102 		ld	s1,40(sp)
 978              		.cfi_restore 9
 979 0634 03390102 		ld	s2,32(sp)
 980              		.cfi_restore 18
 981 0638 83398101 		ld	s3,24(sp)
 982              		.cfi_restore 19
 983 063c 13010104 		addi	sp,sp,64
 984              		.cfi_def_cfa_offset 0
 985 0640 67800000 		jr	ra
 986              		.cfi_endproc
 987              	.LFE88:
 989              		.align	2
 991              	_GLOBAL__sub_I__ZN5StdIO8iostatusE:
 992              	.LFB97:
 993              		.loc 1 97 1 is_stmt 1
 994              		.cfi_startproc
 995 0644 130101FF 		addi	sp,sp,-16
 996              		.cfi_def_cfa_offset 16
 997 0648 23341100 		sd	ra,8(sp)
GAS LISTING /tmp/cc3RnfEh.s 			page 31


 998 064c 23308100 		sd	s0,0(sp)
 999              		.cfi_offset 1, -8
 1000              		.cfi_offset 8, -16
 1001 0650 13040101 		addi	s0,sp,16
 1002              		.cfi_def_cfa 8, 0
 1003              		.loc 1 97 1 is_stmt 0
 1004 0654 B7050100 		li	a1,65536
 1005 0658 9385F5FF 		addi	a1,a1,-1
 1006 065c 13051000 		li	a0,1
 1007 0660 97000000 		call	_Z41__static_initialization_and_destruction_0ii
 1007      E7800000 
 1008              	.LVL89:
 1009 0668 83308100 		ld	ra,8(sp)
 1010              		.cfi_restore 1
 1011 066c 03340100 		ld	s0,0(sp)
 1012              		.cfi_restore 8
 1013              		.cfi_def_cfa 2, 16
 1014 0670 13010101 		addi	sp,sp,16
 1015              		.cfi_def_cfa_offset 0
 1016 0674 67800000 		jr	ra
 1017              		.cfi_endproc
 1018              	.LFE97:
 1020              		.section	.init_array,"aw"
 1021              		.align	3
 1022 0000 00000000 		.dword	_GLOBAL__sub_I__ZN5StdIO8iostatusE
 1022      00000000 
 1023              		.weak	_ZN12SharedBufferIcE5cacheE
 1024              		.section	.sbss._ZN12SharedBufferIcE5cacheE,"awG",@nobits,_ZN12SharedBufferIcE5cacheE,comdat
 1025              		.align	3
 1028              	_ZN12SharedBufferIcE5cacheE:
 1029 0000 00000000 		.zero	8
 1029      00000000 
 1030              		.globl	_ZN5StdIO10out_threadE
 1031              		.globl	_ZN5StdIO8blockSemE
 1032              		.globl	_ZN5StdIO7obufferE
 1033              		.globl	_ZN5StdIO7ibufferE
 1034              		.globl	_ZN5StdIO5odataE
 1035              		.globl	_ZN5StdIO5idataE
 1036              		.globl	_ZN5StdIO8iostatusE
 1037              		.section	.rodata.str1.8,"aMS",@progbits,1
 1038              		.align	3
 1039              	.LC0:
 1040 0000 53686172 		.string	"SharedBuffer_cache"
 1040      65644275 
 1040      66666572 
 1040      5F636163 
 1040      686500
 1041 0013 00000000 		.zero	5
 1041      00
 1042              	.LC1:
 1043 0018 4B53656D 		.string	"KSemaphore_cache"
 1043      6170686F 
 1043      72655F63 
 1043      61636865 
 1043      00
 1044              		.section	.sbss,"aw",@nobits
 1045              		.align	3
GAS LISTING /tmp/cc3RnfEh.s 			page 32


 1048              	_ZN5StdIO10out_threadE:
 1049 0000 00000000 		.zero	8
 1049      00000000 
 1052              	_ZN5StdIO8blockSemE:
 1053 0008 00000000 		.zero	8
 1053      00000000 
 1056              	_ZN5StdIO7obufferE:
 1057 0010 00000000 		.zero	8
 1057      00000000 
 1060              	_ZN5StdIO7ibufferE:
 1061 0018 00000000 		.zero	8
 1061      00000000 
 1064              	_ZN5StdIO5odataE:
 1065 0020 00000000 		.zero	8
 1065      00000000 
 1068              	_ZN5StdIO5idataE:
 1069 0028 00000000 		.zero	8
 1069      00000000 
 1072              	_ZN5StdIO8iostatusE:
 1073 0030 00000000 		.zero	8
 1073      00000000 
 1074              		.text
 1075              	.Letext0:
 1076              		.file 9 "src/kernel/../../h/../h/../h/../h/../lib/hw.h"
 1077              		.file 10 "src/kernel/../../h/../h/../h/../h/../h/../h/list.h"
 1078              		.file 11 "src/kernel/../../h/../h/../h/../h/../h/object_cache.h"
 1079              		.file 12 "src/kernel/../../h/../h/../h/../h/slab_allocator.h"
 7957              		.align	3
 7960              	DW.ref.__gxx_personality_v0:
 7961 0000 00000000 		.dword	__gxx_personality_v0
 7961      00000000 
 7962              		.ident	"GCC: () 8.3.0"
GAS LISTING /tmp/cc3RnfEh.s 			page 33


DEFINED SYMBOLS
                            *ABS*:0000000000000000 stdio.cpp
     /tmp/cc3RnfEh.s:11     .text:0000000000000000 _Z41__static_initialization_and_destruction_0ii
     /tmp/cc3RnfEh.s:15     .text:0000000000000000 .L0 
     /tmp/cc3RnfEh.s:17     .text:0000000000000000 .L0 
     /tmp/cc3RnfEh.s:18     .text:0000000000000004 .L0 
     /tmp/cc3RnfEh.s:20     .text:0000000000000008 .L0 
     /tmp/cc3RnfEh.s:22     .text:000000000000000c .L0 
     /tmp/cc3RnfEh.s:24     .text:000000000000000c .L0 
     /tmp/cc3RnfEh.s:28     .text:0000000000000018 .L0 
     /tmp/cc3RnfEh.s:29     .text:0000000000000018 .L0 
     /tmp/cc3RnfEh.s:30     .text:0000000000000018 .L0 
     /tmp/cc3RnfEh.s:32     .text:000000000000001c .L0 
     /tmp/cc3RnfEh.s:35     .text:0000000000000020 .L0 
     /tmp/cc3RnfEh.s:37     .text:0000000000000020 .L0 
     /tmp/cc3RnfEh.s:41     .text:000000000000002c .L0 
     /tmp/cc3RnfEh.s:1072   .sbss:0000000000000030 _ZN5StdIO8iostatusE
     /tmp/cc3RnfEh.s:45     .text:0000000000000040 .L0 
     /tmp/cc3RnfEh.s:1068   .sbss:0000000000000028 _ZN5StdIO5idataE
     /tmp/cc3RnfEh.s:49     .text:0000000000000054 .L0 
     /tmp/cc3RnfEh.s:1064   .sbss:0000000000000020 _ZN5StdIO5odataE
     /tmp/cc3RnfEh.s:53     .text:0000000000000068 .L0 
     /tmp/cc3RnfEh.s:54     .text:000000000000006c .L0 
     /tmp/cc3RnfEh.s:60     .text:000000000000006c _ZN5StdIO12outputWorkerEPv
     /tmp/cc3RnfEh.s:63     .text:000000000000006c .L0 
     /tmp/cc3RnfEh.s:64     .text:000000000000006c .L0 
     /tmp/cc3RnfEh.s:65     .text:0000000000000070 .L0 
     /tmp/cc3RnfEh.s:72     .text:0000000000000088 .L0 
     /tmp/cc3RnfEh.s:73     .text:0000000000000088 .L0 
     /tmp/cc3RnfEh.s:74     .text:0000000000000088 .L0 
     /tmp/cc3RnfEh.s:75     .text:0000000000000088 .L0 
     /tmp/cc3RnfEh.s:76     .text:0000000000000088 .L0 
     /tmp/cc3RnfEh.s:77     .text:0000000000000088 .L0 
     /tmp/cc3RnfEh.s:79     .text:000000000000008c .L0 
     /tmp/cc3RnfEh.s:81     .text:000000000000008c .L0 
     /tmp/cc3RnfEh.s:1048   .sbss:0000000000000000 _ZN5StdIO10out_threadE
     /tmp/cc3RnfEh.s:82     .text:000000000000008c .L0 
     /tmp/cc3RnfEh.s:91     .text:0000000000000098 .L0 
     /tmp/cc3RnfEh.s:92     .text:0000000000000098 .L0 
     /tmp/cc3RnfEh.s:93     .text:0000000000000098 .L0 
src/kernel/../../h/riscv.hpp:220    .text:0000000000000098 .L0 
     /tmp/cc3RnfEh.s:101    .text:00000000000000a0 .L0 
     /tmp/cc3RnfEh.s:102    .text:00000000000000a0 .L0 
     /tmp/cc3RnfEh.s:109    .text:00000000000000a4 .L0 
     /tmp/cc3RnfEh.s:110    .text:00000000000000a4 .L0 
src/kernel/../../h/riscv.hpp:146    .text:00000000000000a4 .L0 
     /tmp/cc3RnfEh.s:118    .text:00000000000000ac .L0 
     /tmp/cc3RnfEh.s:119    .text:00000000000000ac .L0 
     /tmp/cc3RnfEh.s:124    .text:00000000000000b0 .L0 
     /tmp/cc3RnfEh.s:125    .text:00000000000000b0 .L0 
     /tmp/cc3RnfEh.s:129    .text:00000000000000c4 .L0 
     /tmp/cc3RnfEh.s:130    .text:00000000000000c4 .L0 
     /tmp/cc3RnfEh.s:135    .text:00000000000000cc .L0 
     /tmp/cc3RnfEh.s:136    .text:00000000000000cc .L0 
src/kernel/../../h/riscv.hpp:215    .text:00000000000000cc .L0 
     /tmp/cc3RnfEh.s:148    .text:00000000000000d0 .L0 
     /tmp/cc3RnfEh.s:149    .text:00000000000000d0 .L0 
GAS LISTING /tmp/cc3RnfEh.s 			page 34


src/kernel/../../h/riscv.hpp:141    .text:00000000000000d0 .L0 
     /tmp/cc3RnfEh.s:162    .text:00000000000000d4 .L0 
     /tmp/cc3RnfEh.s:167    .text:00000000000000d4 .L0 
     /tmp/cc3RnfEh.s:168    .text:00000000000000d4 .L0 
     /tmp/cc3RnfEh.s:169    .text:00000000000000d4 .L0 
     /tmp/cc3RnfEh.s:175    .text:00000000000000e4 .L0 
     /tmp/cc3RnfEh.s:178    .text:00000000000000ec .L0 
     /tmp/cc3RnfEh.s:1056   .sbss:0000000000000010 _ZN5StdIO7obufferE
     /tmp/cc3RnfEh.s:179    .text:00000000000000ec .L0 
     /tmp/cc3RnfEh.s:182    .text:00000000000000f8 .L0 
     /tmp/cc3RnfEh.s:189    .text:0000000000000104 .L0 
     /tmp/cc3RnfEh.s:193    .text:0000000000000110 .L0 
     /tmp/cc3RnfEh.s:198    .text:0000000000000120 .L0 
     /tmp/cc3RnfEh.s:202    .text:000000000000012c .L0 
     /tmp/cc3RnfEh.s:204    .text:0000000000000130 .L0 
     /tmp/cc3RnfEh.s:208    .text:0000000000000138 .L0 
     /tmp/cc3RnfEh.s:210    .text:000000000000013c .L0 
     /tmp/cc3RnfEh.s:216    .text:0000000000000150 .L0 
     /tmp/cc3RnfEh.s:218    .text:0000000000000154 .L0 
     /tmp/cc3RnfEh.s:222    .text:0000000000000160 .L0 
     /tmp/cc3RnfEh.s:228    .text:000000000000016c .L0 
     /tmp/cc3RnfEh.s:231    .text:0000000000000174 .L0 
     /tmp/cc3RnfEh.s:237    .text:0000000000000174 _ZN5StdIO9initalizeEv
     /tmp/cc3RnfEh.s:240    .text:0000000000000174 .L0 
     /tmp/cc3RnfEh.s:7960   .sdata.DW.ref.__gxx_personality_v0:0000000000000000 DW.ref.__gxx_personality_v0
     /tmp/cc3RnfEh.s:243    .text:0000000000000174 .L0 
     /tmp/cc3RnfEh.s:244    .text:0000000000000178 .L0 
     /tmp/cc3RnfEh.s:249    .text:0000000000000188 .L0 
     /tmp/cc3RnfEh.s:250    .text:0000000000000188 .L0 
     /tmp/cc3RnfEh.s:251    .text:0000000000000188 .L0 
     /tmp/cc3RnfEh.s:252    .text:0000000000000188 .L0 
     /tmp/cc3RnfEh.s:254    .text:000000000000018c .L0 
     /tmp/cc3RnfEh.s:259    .text:000000000000018c .L0 
     /tmp/cc3RnfEh.s:1028   .sbss._ZN12SharedBufferIcE5cacheE:0000000000000000 _ZN12SharedBufferIcE5cacheE
     /tmp/cc3RnfEh.s:260    .text:000000000000018c .L0 
     /tmp/cc3RnfEh.s:272    .text:00000000000001b0 .L0 
     /tmp/cc3RnfEh.s:277    .text:00000000000001b4 .L0 
     /tmp/cc3RnfEh.s:283    .text:00000000000001b8 .L0 
     /tmp/cc3RnfEh.s:290    .text:00000000000001c0 .L0 
     /tmp/cc3RnfEh.s:297    .text:00000000000001cc .L0 
     /tmp/cc3RnfEh.s:298    .text:00000000000001cc .L0 
     /tmp/cc3RnfEh.s:305    .text:00000000000001dc .L0 
     /tmp/cc3RnfEh.s:306    .text:00000000000001dc .L0 
     /tmp/cc3RnfEh.s:311    .text:00000000000001e0 .L0 
     /tmp/cc3RnfEh.s:316    .text:00000000000001e4 .L0 
     /tmp/cc3RnfEh.s:323    .text:00000000000001f0 .L0 
     /tmp/cc3RnfEh.s:324    .text:00000000000001f0 .L0 
     /tmp/cc3RnfEh.s:329    .text:00000000000001f4 .L0 
     /tmp/cc3RnfEh.s:330    .text:00000000000001f4 .L0 
     /tmp/cc3RnfEh.s:335    .text:00000000000001f8 .L0 
     /tmp/cc3RnfEh.s:341    .text:0000000000000200 .L0 
     /tmp/cc3RnfEh.s:348    .text:000000000000020c .L0 
     /tmp/cc3RnfEh.s:349    .text:000000000000020c .L0 
     /tmp/cc3RnfEh.s:351    .text:0000000000000210 .L0 
     /tmp/cc3RnfEh.s:352    .text:0000000000000210 .L0 
     /tmp/cc3RnfEh.s:357    .text:0000000000000214 .L0 
     /tmp/cc3RnfEh.s:1060   .sbss:0000000000000018 _ZN5StdIO7ibufferE
GAS LISTING /tmp/cc3RnfEh.s 			page 35


     /tmp/cc3RnfEh.s:365    .text:0000000000000220 .L0 
     /tmp/cc3RnfEh.s:370    .text:0000000000000228 .L0 
     /tmp/cc3RnfEh.s:371    .text:0000000000000228 .L0 
     /tmp/cc3RnfEh.s:376    .text:0000000000000238 .L0 
     /tmp/cc3RnfEh.s:383    .text:000000000000024c .L0 
     /tmp/cc3RnfEh.s:388    .text:0000000000000250 .L0 
     /tmp/cc3RnfEh.s:393    .text:0000000000000254 .L0 
     /tmp/cc3RnfEh.s:399    .text:000000000000025c .L0 
     /tmp/cc3RnfEh.s:406    .text:0000000000000268 .L0 
     /tmp/cc3RnfEh.s:407    .text:0000000000000268 .L0 
     /tmp/cc3RnfEh.s:414    .text:0000000000000278 .L0 
     /tmp/cc3RnfEh.s:415    .text:0000000000000278 .L0 
     /tmp/cc3RnfEh.s:420    .text:000000000000027c .L0 
     /tmp/cc3RnfEh.s:425    .text:0000000000000280 .L0 
     /tmp/cc3RnfEh.s:432    .text:000000000000028c .L0 
     /tmp/cc3RnfEh.s:433    .text:000000000000028c .L0 
     /tmp/cc3RnfEh.s:438    .text:0000000000000290 .L0 
     /tmp/cc3RnfEh.s:439    .text:0000000000000290 .L0 
     /tmp/cc3RnfEh.s:444    .text:0000000000000294 .L0 
     /tmp/cc3RnfEh.s:450    .text:000000000000029c .L0 
     /tmp/cc3RnfEh.s:457    .text:00000000000002a8 .L0 
     /tmp/cc3RnfEh.s:458    .text:00000000000002a8 .L0 
     /tmp/cc3RnfEh.s:460    .text:00000000000002ac .L0 
     /tmp/cc3RnfEh.s:461    .text:00000000000002ac .L0 
     /tmp/cc3RnfEh.s:466    .text:00000000000002b0 .L0 
     /tmp/cc3RnfEh.s:474    .text:00000000000002bc .L0 
     /tmp/cc3RnfEh.s:479    .text:00000000000002c4 .L0 
     /tmp/cc3RnfEh.s:480    .text:00000000000002c4 .L0 
     /tmp/cc3RnfEh.s:485    .text:00000000000002d4 .L0 
     /tmp/cc3RnfEh.s:492    .text:00000000000002e8 .L0 
     /tmp/cc3RnfEh.s:497    .text:00000000000002ec .L0 
     /tmp/cc3RnfEh.s:502    .text:00000000000002f0 .L0 
     /tmp/cc3RnfEh.s:509    .text:00000000000002fc .L0 
     /tmp/cc3RnfEh.s:510    .text:00000000000002fc .L0 
     /tmp/cc3RnfEh.s:514    .text:000000000000030c .L0 
     /tmp/cc3RnfEh.s:515    .text:000000000000030c .L0 
     /tmp/cc3RnfEh.s:1052   .sbss:0000000000000008 _ZN5StdIO8blockSemE
     /tmp/cc3RnfEh.s:521    .text:0000000000000310 .L0 
     /tmp/cc3RnfEh.s:523    .text:0000000000000318 .L0 
     /tmp/cc3RnfEh.s:524    .text:0000000000000318 .L0 
     /tmp/cc3RnfEh.s:528    .text:000000000000032c .L0 
     /tmp/cc3RnfEh.s:529    .text:000000000000032c .L0 
     /tmp/cc3RnfEh.s:533    .text:0000000000000340 .L0 
     /tmp/cc3RnfEh.s:534    .text:0000000000000340 .L0 
     /tmp/cc3RnfEh.s:538    .text:0000000000000354 .L0 
     /tmp/cc3RnfEh.s:539    .text:0000000000000354 .L0 
     /tmp/cc3RnfEh.s:542    .text:000000000000035c .L0 
     /tmp/cc3RnfEh.s:546    .text:0000000000000368 .L0 
     /tmp/cc3RnfEh.s:547    .text:0000000000000368 .L0 
     /tmp/cc3RnfEh.s:554    .text:0000000000000380 .L0 
     /tmp/cc3RnfEh.s:560    .text:0000000000000388 .L0 
     /tmp/cc3RnfEh.s:561    .text:0000000000000388 .L0 
     /tmp/cc3RnfEh.s:562    .text:0000000000000388 .L0 
     /tmp/cc3RnfEh.s:569    .text:000000000000038c .L0 
     /tmp/cc3RnfEh.s:570    .text:000000000000038c .L0 
     /tmp/cc3RnfEh.s:571    .text:000000000000038c .L0 
     /tmp/cc3RnfEh.s:577    .text:0000000000000394 .L0 
GAS LISTING /tmp/cc3RnfEh.s 			page 36


     /tmp/cc3RnfEh.s:578    .text:0000000000000398 .L0 
     /tmp/cc3RnfEh.s:579    .text:0000000000000398 .L0 
     /tmp/cc3RnfEh.s:581    .text:000000000000039c .L0 
     /tmp/cc3RnfEh.s:582    .text:000000000000039c .L0 
     /tmp/cc3RnfEh.s:584    .text:00000000000003a0 .L0 
     /tmp/cc3RnfEh.s:586    .text:00000000000003a4 .L0 
     /tmp/cc3RnfEh.s:588    .text:00000000000003a8 .L0 
     /tmp/cc3RnfEh.s:592    .text:00000000000003ac .L0 
     /tmp/cc3RnfEh.s:596    .text:00000000000003ac .L0 
     /tmp/cc3RnfEh.s:661    .text:0000000000000464 .L0 
     /tmp/cc3RnfEh.s:691    .text:00000000000004c0 .L0 
     /tmp/cc3RnfEh.s:733    .text:00000000000004c0 _ZN5StdIO11inputWorkerEv
     /tmp/cc3RnfEh.s:736    .text:00000000000004c0 .L0 
     /tmp/cc3RnfEh.s:737    .text:00000000000004c0 .L0 
     /tmp/cc3RnfEh.s:738    .text:00000000000004c4 .L0 
     /tmp/cc3RnfEh.s:740    .text:00000000000004c8 .L0 
     /tmp/cc3RnfEh.s:742    .text:00000000000004cc .L0 
     /tmp/cc3RnfEh.s:744    .text:00000000000004cc .L0 
     /tmp/cc3RnfEh.s:745    .text:00000000000004d0 .L0 
     /tmp/cc3RnfEh.s:746    .text:00000000000004d0 .L0 
     /tmp/cc3RnfEh.s:748    .text:00000000000004d4 .L0 
     /tmp/cc3RnfEh.s:750    .text:00000000000004d8 .L0 
     /tmp/cc3RnfEh.s:756    .text:00000000000004d8 _ZN5StdIO15console_handlerEv
     /tmp/cc3RnfEh.s:759    .text:00000000000004d8 .L0 
     /tmp/cc3RnfEh.s:760    .text:00000000000004d8 .L0 
     /tmp/cc3RnfEh.s:761    .text:00000000000004dc .L0 
     /tmp/cc3RnfEh.s:767    .text:00000000000004f0 .L0 
     /tmp/cc3RnfEh.s:768    .text:00000000000004f0 .L0 
     /tmp/cc3RnfEh.s:769    .text:00000000000004f0 .L0 
     /tmp/cc3RnfEh.s:770    .text:00000000000004f0 .L0 
     /tmp/cc3RnfEh.s:771    .text:00000000000004f0 .L0 
     /tmp/cc3RnfEh.s:773    .text:00000000000004f4 .L0 
     /tmp/cc3RnfEh.s:775    .text:00000000000004f4 .L0 
     /tmp/cc3RnfEh.s:776    .text:00000000000004f4 .L0 
     /tmp/cc3RnfEh.s:780    .text:00000000000004fc .L0 
     /tmp/cc3RnfEh.s:788    .text:0000000000000504 .L0 
     /tmp/cc3RnfEh.s:789    .text:0000000000000504 .L0 
     /tmp/cc3RnfEh.s:790    .text:0000000000000504 .L0 
     /tmp/cc3RnfEh.s:796    .text:0000000000000514 .L0 
     /tmp/cc3RnfEh.s:800    .text:000000000000051c .L0 
     /tmp/cc3RnfEh.s:801    .text:000000000000051c .L0 
     /tmp/cc3RnfEh.s:804    .text:0000000000000528 .L0 
     /tmp/cc3RnfEh.s:807    .text:000000000000052c .L0 
     /tmp/cc3RnfEh.s:808    .text:000000000000052c .L0 
     /tmp/cc3RnfEh.s:813    .text:0000000000000538 .L0 
     /tmp/cc3RnfEh.s:814    .text:0000000000000538 .L0 
     /tmp/cc3RnfEh.s:818    .text:0000000000000548 .L0 
     /tmp/cc3RnfEh.s:824    .text:0000000000000550 .L0 
     /tmp/cc3RnfEh.s:825    .text:0000000000000550 .L0 
     /tmp/cc3RnfEh.s:829    .text:000000000000055c .L0 
     /tmp/cc3RnfEh.s:834    .text:000000000000056c .L0 
     /tmp/cc3RnfEh.s:838    .text:0000000000000578 .L0 
     /tmp/cc3RnfEh.s:840    .text:000000000000057c .L0 
     /tmp/cc3RnfEh.s:843    .text:0000000000000584 .L0 
     /tmp/cc3RnfEh.s:845    .text:0000000000000588 .L0 
     /tmp/cc3RnfEh.s:851    .text:000000000000059c .L0 
     /tmp/cc3RnfEh.s:853    .text:00000000000005a0 .L0 
GAS LISTING /tmp/cc3RnfEh.s 			page 37


     /tmp/cc3RnfEh.s:857    .text:00000000000005ac .L0 
     /tmp/cc3RnfEh.s:868    .text:00000000000005bc .L0 
     /tmp/cc3RnfEh.s:869    .text:00000000000005bc .L0 
     /tmp/cc3RnfEh.s:875    .text:00000000000005c8 .L0 
     /tmp/cc3RnfEh.s:876    .text:00000000000005c8 .L0 
     /tmp/cc3RnfEh.s:879    .text:00000000000005d4 .L0 
     /tmp/cc3RnfEh.s:884    .text:00000000000005d8 .L0 
     /tmp/cc3RnfEh.s:885    .text:00000000000005d8 .L0 
     /tmp/cc3RnfEh.s:886    .text:00000000000005d8 .L0 
src/kernel/../../h/riscv.hpp:220    .text:00000000000005d8 .L0 
     /tmp/cc3RnfEh.s:894    .text:00000000000005e0 .L0 
     /tmp/cc3RnfEh.s:895    .text:00000000000005e0 .L0 
     /tmp/cc3RnfEh.s:902    .text:00000000000005e4 .L0 
     /tmp/cc3RnfEh.s:903    .text:00000000000005e4 .L0 
src/kernel/../../h/riscv.hpp:146    .text:00000000000005e4 .L0 
     /tmp/cc3RnfEh.s:911    .text:00000000000005ec .L0 
     /tmp/cc3RnfEh.s:912    .text:00000000000005ec .L0 
     /tmp/cc3RnfEh.s:920    .text:00000000000005f0 .L0 
     /tmp/cc3RnfEh.s:921    .text:00000000000005f0 .L0 
     /tmp/cc3RnfEh.s:922    .text:00000000000005f0 .L0 
     /tmp/cc3RnfEh.s:930    .text:000000000000060c .L0 
     /tmp/cc3RnfEh.s:931    .text:000000000000060c .L0 
     /tmp/cc3RnfEh.s:936    .text:0000000000000614 .L0 
     /tmp/cc3RnfEh.s:937    .text:0000000000000614 .L0 
src/kernel/../../h/riscv.hpp:215    .text:0000000000000614 .L0 
     /tmp/cc3RnfEh.s:949    .text:0000000000000618 .L0 
     /tmp/cc3RnfEh.s:950    .text:0000000000000618 .L0 
src/kernel/../../h/riscv.hpp:141    .text:0000000000000618 .L0 
     /tmp/cc3RnfEh.s:966    .text:0000000000000620 .L0 
     /tmp/cc3RnfEh.s:967    .text:0000000000000620 .L0 
     /tmp/cc3RnfEh.s:972    .text:0000000000000628 .L0 
     /tmp/cc3RnfEh.s:973    .text:000000000000062c .L0 
     /tmp/cc3RnfEh.s:975    .text:0000000000000630 .L0 
     /tmp/cc3RnfEh.s:976    .text:0000000000000630 .L0 
     /tmp/cc3RnfEh.s:978    .text:0000000000000634 .L0 
     /tmp/cc3RnfEh.s:980    .text:0000000000000638 .L0 
     /tmp/cc3RnfEh.s:982    .text:000000000000063c .L0 
     /tmp/cc3RnfEh.s:984    .text:0000000000000640 .L0 
     /tmp/cc3RnfEh.s:986    .text:0000000000000644 .L0 
     /tmp/cc3RnfEh.s:991    .text:0000000000000644 _GLOBAL__sub_I__ZN5StdIO8iostatusE
     /tmp/cc3RnfEh.s:994    .text:0000000000000644 .L0 
     /tmp/cc3RnfEh.s:995    .text:0000000000000644 .L0 
     /tmp/cc3RnfEh.s:996    .text:0000000000000648 .L0 
     /tmp/cc3RnfEh.s:999    .text:0000000000000650 .L0 
     /tmp/cc3RnfEh.s:1000   .text:0000000000000650 .L0 
     /tmp/cc3RnfEh.s:1002   .text:0000000000000654 .L0 
     /tmp/cc3RnfEh.s:1004   .text:0000000000000654 .L0 
     /tmp/cc3RnfEh.s:1010   .text:000000000000066c .L0 
     /tmp/cc3RnfEh.s:1012   .text:0000000000000670 .L0 
     /tmp/cc3RnfEh.s:1013   .text:0000000000000670 .L0 
     /tmp/cc3RnfEh.s:1015   .text:0000000000000674 .L0 
     /tmp/cc3RnfEh.s:1017   .text:0000000000000678 .L0 
     /tmp/cc3RnfEh.s:1080   .text:0000000000000678 .L0 
     /tmp/cc3RnfEh.s:41     .text:000000000000002c .L0 
     /tmp/cc3RnfEh.s:43     .text:0000000000000038 .L0 
     /tmp/cc3RnfEh.s:45     .text:0000000000000040 .L0 
     /tmp/cc3RnfEh.s:47     .text:000000000000004c .L0 
GAS LISTING /tmp/cc3RnfEh.s 			page 38


     /tmp/cc3RnfEh.s:49     .text:0000000000000054 .L0 
     /tmp/cc3RnfEh.s:51     .text:0000000000000060 .L0 
     /tmp/cc3RnfEh.s:82     .text:000000000000008c .L0 
     /tmp/cc3RnfEh.s:125    .text:00000000000000b0 .L0 
     /tmp/cc3RnfEh.s:127    .text:00000000000000bc .L0 
     /tmp/cc3RnfEh.s:169    .text:00000000000000d4 .L0 
     /tmp/cc3RnfEh.s:179    .text:00000000000000ec .L0 
     /tmp/cc3RnfEh.s:182    .text:00000000000000f8 .L0 
     /tmp/cc3RnfEh.s:260    .text:000000000000018c .L0 
     /tmp/cc3RnfEh.s:264    .text:000000000000019c .L0 
     /tmp/cc3RnfEh.s:298    .text:00000000000001cc .L0 
     /tmp/cc3RnfEh.s:365    .text:0000000000000220 .L0 
     /tmp/cc3RnfEh.s:371    .text:0000000000000228 .L0 
     /tmp/cc3RnfEh.s:376    .text:0000000000000238 .L0 
     /tmp/cc3RnfEh.s:407    .text:0000000000000268 .L0 
     /tmp/cc3RnfEh.s:474    .text:00000000000002bc .L0 
     /tmp/cc3RnfEh.s:480    .text:00000000000002c4 .L0 
     /tmp/cc3RnfEh.s:485    .text:00000000000002d4 .L0 
     /tmp/cc3RnfEh.s:510    .text:00000000000002fc .L0 
     /tmp/cc3RnfEh.s:521    .text:0000000000000310 .L0 
     /tmp/cc3RnfEh.s:524    .text:0000000000000318 .L0 
     /tmp/cc3RnfEh.s:526    .text:0000000000000324 .L0 
     /tmp/cc3RnfEh.s:529    .text:000000000000032c .L0 
     /tmp/cc3RnfEh.s:531    .text:0000000000000338 .L0 
     /tmp/cc3RnfEh.s:534    .text:0000000000000340 .L0 
     /tmp/cc3RnfEh.s:536    .text:000000000000034c .L0 
     /tmp/cc3RnfEh.s:549    .text:0000000000000370 .L0 
     /tmp/cc3RnfEh.s:554    .text:0000000000000380 .L0 
     /tmp/cc3RnfEh.s:1039   .rodata.str1.8:0000000000000000 .LC0
     /tmp/cc3RnfEh.s:606    .text:00000000000003d0 .L0 
     /tmp/cc3RnfEh.s:612    .text:00000000000003e0 .L0 
     /tmp/cc3RnfEh.s:638    .text:000000000000042c .L0 
     /tmp/cc3RnfEh.s:644    .text:000000000000043c .L0 
     /tmp/cc3RnfEh.s:1042   .rodata.str1.8:0000000000000018 .LC1
     /tmp/cc3RnfEh.s:671    .text:0000000000000488 .L0 
     /tmp/cc3RnfEh.s:677    .text:0000000000000498 .L0 
     /tmp/cc3RnfEh.s:790    .text:0000000000000504 .L0 
     /tmp/cc3RnfEh.s:801    .text:000000000000051c .L0 
     /tmp/cc3RnfEh.s:814    .text:0000000000000538 .L0 
     /tmp/cc3RnfEh.s:876    .text:00000000000005c8 .L0 
     /tmp/cc3RnfEh.s:922    .text:00000000000005f0 .L0 
     /tmp/cc3RnfEh.s:924    .text:00000000000005fc .L0 
     /tmp/cc3RnfEh.s:34     .text:0000000000000020 .L4
     /tmp/cc3RnfEh.s:26     .text:0000000000000014 .L1
     /tmp/cc3RnfEh.s:156    .text:00000000000000d4 .L6
     /tmp/cc3RnfEh.s:84     .text:0000000000000098 .L7
     /tmp/cc3RnfEh.s:591    .text:00000000000003ac .L30
     /tmp/cc3RnfEh.s:361    .text:0000000000000220 .L14
     /tmp/cc3RnfEh.s:623    .text:0000000000000408 .L31
     /tmp/cc3RnfEh.s:470    .text:00000000000002bc .L19
     /tmp/cc3RnfEh.s:655    .text:0000000000000464 .L32
     /tmp/cc3RnfEh.s:517    .text:0000000000000310 .L24
     /tmp/cc3RnfEh.s:611    .text:00000000000003e0 .L12
     /tmp/cc3RnfEh.s:263    .text:000000000000019c .L11
     /tmp/cc3RnfEh.s:643    .text:000000000000043c .L17
     /tmp/cc3RnfEh.s:374    .text:0000000000000238 .L16
     /tmp/cc3RnfEh.s:676    .text:0000000000000498 .L22
GAS LISTING /tmp/cc3RnfEh.s 			page 39


     /tmp/cc3RnfEh.s:483    .text:00000000000002d4 .L21
     /tmp/cc3RnfEh.s:958    .text:0000000000000620 .L36
     /tmp/cc3RnfEh.s:862    .text:00000000000005bc .L37
     /tmp/cc3RnfEh.s:969    .text:0000000000000628 .L35
     /tmp/cc3RnfEh.s:266    .text:00000000000001a8 .LEHB0
     /tmp/cc3RnfEh.s:238    .text:0000000000000174 .LFB85
     /tmp/cc3RnfEh.s:599    .text:00000000000003b8 .LEHE0
     /tmp/cc3RnfEh.s:607    .text:00000000000003d8 .LEHB1
     /tmp/cc3RnfEh.s:610    .text:00000000000003e0 .LEHE1
     /tmp/cc3RnfEh.s:614    .text:00000000000003ec .L26
     /tmp/cc3RnfEh.s:620    .text:0000000000000400 .LEHB2
     /tmp/cc3RnfEh.s:631    .text:0000000000000414 .LEHE2
     /tmp/cc3RnfEh.s:639    .text:0000000000000434 .LEHB3
     /tmp/cc3RnfEh.s:642    .text:000000000000043c .LEHE3
     /tmp/cc3RnfEh.s:646    .text:0000000000000448 .L27
     /tmp/cc3RnfEh.s:652    .text:000000000000045c .LEHB4
     /tmp/cc3RnfEh.s:664    .text:0000000000000470 .LEHE4
     /tmp/cc3RnfEh.s:672    .text:0000000000000490 .LEHB5
     /tmp/cc3RnfEh.s:675    .text:0000000000000498 .LEHE5
     /tmp/cc3RnfEh.s:679    .text:00000000000004a4 .L28
     /tmp/cc3RnfEh.s:685    .text:00000000000004b8 .LEHB6
     /tmp/cc3RnfEh.s:688    .text:00000000000004c0 .LEHE6
     /tmp/cc3RnfEh.s:5109   .debug_abbrev:0000000000000000 .Ldebug_abbrev0
     /tmp/cc3RnfEh.s:7504   .debug_str:0000000000000bff .LASF398
     /tmp/cc3RnfEh.s:7610   .debug_str:0000000000000fd3 .LASF399
     /tmp/cc3RnfEh.s:7748   .debug_str:0000000000001447 .LASF400
     /tmp/cc3RnfEh.s:8      .text:0000000000000000 .Ltext0
     /tmp/cc3RnfEh.s:1075   .text:0000000000000678 .Letext0
     /tmp/cc3RnfEh.s:7132   .debug_line:0000000000000000 .Ldebug_line0
     /tmp/cc3RnfEh.s:7192   .debug_str:00000000000001b6 .LASF0
     /tmp/cc3RnfEh.s:7894   .debug_str:0000000000001897 .LASF1
     /tmp/cc3RnfEh.s:7884   .debug_str:000000000000183e .LASF3
     /tmp/cc3RnfEh.s:7808   .debug_str:00000000000015fc .LASF2
     /tmp/cc3RnfEh.s:7760   .debug_str:000000000000149e .LASF4
     /tmp/cc3RnfEh.s:7774   .debug_str:00000000000014f2 .LASF5
     /tmp/cc3RnfEh.s:7364   .debug_str:000000000000075a .LASF6
     /tmp/cc3RnfEh.s:7498   .debug_str:0000000000000bd3 .LASF7
     /tmp/cc3RnfEh.s:7460   .debug_str:0000000000000a93 .LASF8
     /tmp/cc3RnfEh.s:7682   .debug_str:0000000000001208 .LASF9
     /tmp/cc3RnfEh.s:7234   .debug_str:00000000000002bb .LASF10
     /tmp/cc3RnfEh.s:7866   .debug_str:00000000000017b3 .LASF11
     /tmp/cc3RnfEh.s:7374   .debug_str:0000000000000798 .LASF12
     /tmp/cc3RnfEh.s:7276   .debug_str:0000000000000424 .LASF13
     /tmp/cc3RnfEh.s:7502   .debug_str:0000000000000bef .LASF14
     /tmp/cc3RnfEh.s:7386   .debug_str:00000000000007ec .LASF15
     /tmp/cc3RnfEh.s:7744   .debug_str:0000000000001436 .LASF16
     /tmp/cc3RnfEh.s:7392   .debug_str:0000000000000826 .LASF17
     /tmp/cc3RnfEh.s:7340   .debug_str:000000000000066b .LASF18
     /tmp/cc3RnfEh.s:7932   .debug_str:00000000000019dd .LASF73
     /tmp/cc3RnfEh.s:7194   .debug_str:00000000000001c3 .LASF19
     /tmp/cc3RnfEh.s:7246   .debug_str:00000000000002f4 .LASF20
     /tmp/cc3RnfEh.s:7426   .debug_str:000000000000094d .LASF75
     /tmp/cc3RnfEh.s:7710   .debug_str:000000000000131d .LASF26
     /tmp/cc3RnfEh.s:7420   .debug_str:0000000000000929 .LASF163
     /tmp/cc3RnfEh.s:7204   .debug_str:00000000000001fa .LASF21
     /tmp/cc3RnfEh.s:7826   .debug_str:0000000000001685 .LASF22
     /tmp/cc3RnfEh.s:7922   .debug_str:000000000000198b .LASF23
GAS LISTING /tmp/cc3RnfEh.s 			page 40


     /tmp/cc3RnfEh.s:7168   .debug_str:000000000000012b .LASF24
     /tmp/cc3RnfEh.s:7538   .debug_str:0000000000000dc1 .LASF25
     /tmp/cc3RnfEh.s:7322   .debug_str:00000000000005b0 .LASF33
     /tmp/cc3RnfEh.s:7250   .debug_str:000000000000031c .LASF28
     /tmp/cc3RnfEh.s:7352   .debug_str:00000000000006f4 .LASF27
     /tmp/cc3RnfEh.s:7818   .debug_str:0000000000001638 .LASF29
     /tmp/cc3RnfEh.s:7640   .debug_str:00000000000010f7 .LASF30
     /tmp/cc3RnfEh.s:7648   .debug_str:000000000000112c .LASF31
     /tmp/cc3RnfEh.s:7634   .debug_str:00000000000010cd .LASF43
     /tmp/cc3RnfEh.s:7402   .debug_str:00000000000008a1 .LASF45
     /tmp/cc3RnfEh.s:7414   .debug_str:00000000000008fa .LASF32
     /tmp/cc3RnfEh.s:7440   .debug_str:00000000000009e6 .LASF34
     /tmp/cc3RnfEh.s:7464   .debug_str:0000000000000aad .LASF35
     /tmp/cc3RnfEh.s:7612   .debug_str:0000000000000fe8 .LASF36
     /tmp/cc3RnfEh.s:7636   .debug_str:00000000000010dd .LASF37
     /tmp/cc3RnfEh.s:7558   .debug_str:0000000000000e65 .LASF38
     /tmp/cc3RnfEh.s:7812   .debug_str:0000000000001617 .LASF39
     /tmp/cc3RnfEh.s:7624   .debug_str:000000000000106c .LASF40
     /tmp/cc3RnfEh.s:7586   .debug_str:0000000000000f2c .LASF41
     /tmp/cc3RnfEh.s:7556   .debug_str:0000000000000e46 .LASF42
     /tmp/cc3RnfEh.s:7864   .debug_str:00000000000017a6 .LASF44
     /tmp/cc3RnfEh.s:7616   .debug_str:000000000000101d .LASF46
     /tmp/cc3RnfEh.s:7156   .debug_str:00000000000000b9 .LASF47
     /tmp/cc3RnfEh.s:7618   .debug_str:000000000000103f .LASF48
     /tmp/cc3RnfEh.s:7750   .debug_str:000000000000146a .LASF49
     /tmp/cc3RnfEh.s:7236   .debug_str:00000000000002cb .LASF50
     /tmp/cc3RnfEh.s:7802   .debug_str:00000000000015d4 .LASF51
     /tmp/cc3RnfEh.s:7806   .debug_str:00000000000015f7 .LASF52
     /tmp/cc3RnfEh.s:7592   .debug_str:0000000000000f55 .LASF53
     /tmp/cc3RnfEh.s:7578   .debug_str:0000000000000eef .LASF54
     /tmp/cc3RnfEh.s:7788   .debug_str:0000000000001578 .LASF55
     /tmp/cc3RnfEh.s:7714   .debug_str:0000000000001331 .LASF56
     /tmp/cc3RnfEh.s:7206   .debug_str:00000000000001ff .LASF57
     /tmp/cc3RnfEh.s:7672   .debug_str:00000000000011e7 .LASF58
     /tmp/cc3RnfEh.s:7848   .debug_str:0000000000001730 .LASF59
     /tmp/cc3RnfEh.s:7708   .debug_str:00000000000012f7 .LASF60
     /tmp/cc3RnfEh.s:7596   .debug_str:0000000000000f6a .LASF61
     /tmp/cc3RnfEh.s:7738   .debug_str:00000000000013ef .LASF62
     /tmp/cc3RnfEh.s:7404   .debug_str:00000000000008b7 .LASF63
     /tmp/cc3RnfEh.s:7248   .debug_str:00000000000002f9 .LASF64
     /tmp/cc3RnfEh.s:7786   .debug_str:000000000000156a .LASF65
     /tmp/cc3RnfEh.s:7398   .debug_str:0000000000000870 .LASF66
     /tmp/cc3RnfEh.s:7880   .debug_str:000000000000181e .LASF67
     /tmp/cc3RnfEh.s:7332   .debug_str:000000000000060b .LASF68
     /tmp/cc3RnfEh.s:7854   .debug_str:0000000000001753 .LASF69
     /tmp/cc3RnfEh.s:7394   .debug_str:000000000000083c .LASF70
     /tmp/cc3RnfEh.s:7508   .debug_str:0000000000000ce3 .LASF71
     /tmp/cc3RnfEh.s:7626   .debug_str:0000000000001089 .LASF72
     /tmp/cc3RnfEh.s:7830   .debug_str:000000000000169f .LASF74
     /tmp/cc3RnfEh.s:7908   .debug_str:00000000000018e5 .LASF76
     /tmp/cc3RnfEh.s:7450   .debug_str:0000000000000a2f .LASF77
     /tmp/cc3RnfEh.s:7746   .debug_str:0000000000001442 .LASF78
     /tmp/cc3RnfEh.s:7952   .debug_str:0000000000001a7a .LASF108
     /tmp/cc3RnfEh.s:7674   .debug_str:00000000000011ec .LASF79
     /tmp/cc3RnfEh.s:7220   .debug_str:0000000000000241 .LASF80
     /tmp/cc3RnfEh.s:7564   .debug_str:0000000000000e9c .LASF81
     /tmp/cc3RnfEh.s:7762   .debug_str:00000000000014a5 .LASF82
GAS LISTING /tmp/cc3RnfEh.s 			page 41


     /tmp/cc3RnfEh.s:7288   .debug_str:0000000000000482 .LASF83
     /tmp/cc3RnfEh.s:7570   .debug_str:0000000000000ebc .LASF84
     /tmp/cc3RnfEh.s:7944   .debug_str:0000000000001a3c .LASF85
     /tmp/cc3RnfEh.s:7918   .debug_str:0000000000001971 .LASF86
     /tmp/cc3RnfEh.s:7662   .debug_str:000000000000119f .LASF87
     /tmp/cc3RnfEh.s:7484   .debug_str:0000000000000b56 .LASF88
     /tmp/cc3RnfEh.s:7368   .debug_str:000000000000076a .LASF89
     /tmp/cc3RnfEh.s:7638   .debug_str:00000000000010e4 .LASF90
     /tmp/cc3RnfEh.s:7310   .debug_str:0000000000000520 .LASF91
     /tmp/cc3RnfEh.s:7576   .debug_str:0000000000000ee5 .LASF122
     /tmp/cc3RnfEh.s:7274   .debug_str:0000000000000414 .LASF401
     /tmp/cc3RnfEh.s:7140   .debug_str:000000000000002c .LASF92
     /tmp/cc3RnfEh.s:7936   .debug_str:00000000000019f2 .LASF93
     /tmp/cc3RnfEh.s:7676   .debug_str:00000000000011f3 .LASF94
     /tmp/cc3RnfEh.s:7644   .debug_str:000000000000110f .LASF95
     /tmp/cc3RnfEh.s:7144   .debug_str:0000000000000044 .LASF96
     /tmp/cc3RnfEh.s:7938   .debug_str:0000000000001a05 .LASF97
     /tmp/cc3RnfEh.s:7412   .debug_str:00000000000008f5 .LASF98
     /tmp/cc3RnfEh.s:7282   .debug_str:0000000000000448 .LASF99
     /tmp/cc3RnfEh.s:7238   .debug_str:00000000000002d1 .LASF100
     /tmp/cc3RnfEh.s:7316   .debug_str:000000000000056e .LASF101
     /tmp/cc3RnfEh.s:7424   .debug_str:0000000000000944 .LASF102
     /tmp/cc3RnfEh.s:7492   .debug_str:0000000000000b99 .LASF103
     /tmp/cc3RnfEh.s:7734   .debug_str:00000000000013d6 .LASF104
     /tmp/cc3RnfEh.s:7836   .debug_str:00000000000016c9 .LASF105
     /tmp/cc3RnfEh.s:7828   .debug_str:000000000000168e .LASF106
     /tmp/cc3RnfEh.s:7146   .debug_str:0000000000000049 .LASF107
     /tmp/cc3RnfEh.s:7296   .debug_str:00000000000004c0 .LASF109
     /tmp/cc3RnfEh.s:7522   .debug_str:0000000000000d46 .LASF110
     /tmp/cc3RnfEh.s:7604   .debug_str:0000000000000fa5 .LASF111
     /tmp/cc3RnfEh.s:7540   .debug_str:0000000000000dcb .LASF112
     /tmp/cc3RnfEh.s:7594   .debug_str:0000000000000f5f .LASF113
     /tmp/cc3RnfEh.s:7154   .debug_str:00000000000000ae .LASF114
     /tmp/cc3RnfEh.s:7772   .debug_str:00000000000014db .LASF115
     /tmp/cc3RnfEh.s:7142   .debug_str:0000000000000034 .LASF116
     /tmp/cc3RnfEh.s:7174   .debug_str:0000000000000144 .LASF117
     /tmp/cc3RnfEh.s:7260   .debug_str:000000000000039e .LASF118
     /tmp/cc3RnfEh.s:7330   .debug_str:00000000000005f8 .LASF119
     /tmp/cc3RnfEh.s:7318   .debug_str:0000000000000585 .LASF120
     /tmp/cc3RnfEh.s:7454   .debug_str:0000000000000a3b .LASF121
     /tmp/cc3RnfEh.s:7658   .debug_str:000000000000117e .LASF123
     /tmp/cc3RnfEh.s:7292   .debug_str:0000000000000493 .LASF124
     /tmp/cc3RnfEh.s:7244   .debug_str:00000000000002e7 .LASF125
     /tmp/cc3RnfEh.s:7158   .debug_str:00000000000000c2 .LASF126
     /tmp/cc3RnfEh.s:7400   .debug_str:0000000000000893 .LASF127
     /tmp/cc3RnfEh.s:7916   .debug_str:0000000000001940 .LASF128
     /tmp/cc3RnfEh.s:7228   .debug_str:0000000000000286 .LASF204
     /tmp/cc3RnfEh.s:7438   .debug_str:00000000000009c4 .LASF206
     /tmp/cc3RnfEh.s:7752   .debug_str:000000000000146f .LASF129
     /tmp/cc3RnfEh.s:7878   .debug_str:00000000000017fc .LASF130
     /tmp/cc3RnfEh.s:7816   .debug_str:0000000000001630 .LASF131
     /tmp/cc3RnfEh.s:7846   .debug_str:0000000000001713 .LASF132
     /tmp/cc3RnfEh.s:7584   .debug_str:0000000000000f26 .LASF133
     /tmp/cc3RnfEh.s:7358   .debug_str:0000000000000721 .LASF134
     /tmp/cc3RnfEh.s:7668   .debug_str:00000000000011d0 .LASF135
     /tmp/cc3RnfEh.s:7210   .debug_str:000000000000020e .LASF136
     /tmp/cc3RnfEh.s:7834   .debug_str:00000000000016c4 .LASF137
GAS LISTING /tmp/cc3RnfEh.s 			page 42


     /tmp/cc3RnfEh.s:7218   .debug_str:000000000000023a .LASF138
     /tmp/cc3RnfEh.s:7844   .debug_str:000000000000170d .LASF139
     /tmp/cc3RnfEh.s:7258   .debug_str:0000000000000389 .LASF140
     /tmp/cc3RnfEh.s:7620   .debug_str:000000000000105c .LASF141
     /tmp/cc3RnfEh.s:7196   .debug_str:00000000000001c8 .LASF142
     /tmp/cc3RnfEh.s:7406   .debug_str:00000000000008c6 .LASF143
     /tmp/cc3RnfEh.s:7488   .debug_str:0000000000000b75 .LASF144
     /tmp/cc3RnfEh.s:7216   .debug_str:0000000000000228 .LASF145
     /tmp/cc3RnfEh.s:7704   .debug_str:00000000000012c8 .LASF146
     /tmp/cc3RnfEh.s:7696   .debug_str:000000000000127f .LASF147
     /tmp/cc3RnfEh.s:7304   .debug_str:00000000000004f2 .LASF148
     /tmp/cc3RnfEh.s:7306   .debug_str:000000000000050d .LASF149
     /tmp/cc3RnfEh.s:7494   .debug_str:0000000000000bae .LASF150
     /tmp/cc3RnfEh.s:7160   .debug_str:00000000000000f1 .LASF151
     /tmp/cc3RnfEh.s:7656   .debug_str:0000000000001168 .LASF152
     /tmp/cc3RnfEh.s:7690   .debug_str:000000000000123b .LASF285
     /tmp/cc3RnfEh.s:7712   .debug_str:0000000000001329 .LASF153
     /tmp/cc3RnfEh.s:7562   .debug_str:0000000000000e85 .LASF154
     /tmp/cc3RnfEh.s:7280   .debug_str:000000000000043d .LASF155
     /tmp/cc3RnfEh.s:7380   .debug_str:00000000000007b9 .LASF156
     /tmp/cc3RnfEh.s:7378   .debug_str:00000000000007ac .LASF157
     /tmp/cc3RnfEh.s:7152   .debug_str:0000000000000083 .LASF158
     /tmp/cc3RnfEh.s:7870   .debug_str:00000000000017ce .LASF159
     /tmp/cc3RnfEh.s:7348   .debug_str:00000000000006cb .LASF160
     /tmp/cc3RnfEh.s:7694   .debug_str:0000000000001278 .LASF161
     /tmp/cc3RnfEh.s:7840   .debug_str:00000000000016ee .LASF162
     /tmp/cc3RnfEh.s:7546   .debug_str:0000000000000e0a .LASF164
     /tmp/cc3RnfEh.s:7900   .debug_str:00000000000018b9 .LASF165
     /tmp/cc3RnfEh.s:7550   .debug_str:0000000000000e18 .LASF166
     /tmp/cc3RnfEh.s:7448   .debug_str:0000000000000a26 .LASF167
     /tmp/cc3RnfEh.s:7948   .debug_str:0000000000001a5e .LASF168
     /tmp/cc3RnfEh.s:7486   .debug_str:0000000000000b6b .LASF169
     /tmp/cc3RnfEh.s:7678   .debug_str:00000000000011fb .LASF402
     /tmp/cc3RnfEh.s:7430   .debug_str:0000000000000972 .LASF170
     /tmp/cc3RnfEh.s:7664   .debug_str:00000000000011a9 .LASF171
     /tmp/cc3RnfEh.s:7212   .debug_str:0000000000000213 .LASF172
     /tmp/cc3RnfEh.s:7742   .debug_str:0000000000001429 .LASF173
     /tmp/cc3RnfEh.s:7910   .debug_str:000000000000190b .LASF174
     /tmp/cc3RnfEh.s:7176   .debug_str:000000000000015b .LASF175
     /tmp/cc3RnfEh.s:7904   .debug_str:00000000000018c8 .LASF176
     /tmp/cc3RnfEh.s:7456   .debug_str:0000000000000a52 .LASF177
     /tmp/cc3RnfEh.s:7646   .debug_str:0000000000001123 .LASF178
     /tmp/cc3RnfEh.s:7906   .debug_str:00000000000018d1 .LASF179
     /tmp/cc3RnfEh.s:7446   .debug_str:0000000000000a1f .LASF180
     /tmp/cc3RnfEh.s:7136   .debug_str:0000000000000007 .LASF181
     /tmp/cc3RnfEh.s:7444   .debug_str:0000000000000a14 .LASF182
     /tmp/cc3RnfEh.s:7180   .debug_str:0000000000000182 .LASF183
     /tmp/cc3RnfEh.s:7254   .debug_str:0000000000000368 .LASF184
     /tmp/cc3RnfEh.s:7520   .debug_str:0000000000000d2d .LASF185
     /tmp/cc3RnfEh.s:7766   .debug_str:00000000000014bb .LASF186
     /tmp/cc3RnfEh.s:7150   .debug_str:000000000000006c .LASF187
     /tmp/cc3RnfEh.s:7608   .debug_str:0000000000000fc5 .LASF188
     /tmp/cc3RnfEh.s:7888   .debug_str:000000000000185e .LASF189
     /tmp/cc3RnfEh.s:7654   .debug_str:0000000000001158 .LASF190
     /tmp/cc3RnfEh.s:7346   .debug_str:00000000000006b0 .LASF191
     /tmp/cc3RnfEh.s:7528   .debug_str:0000000000000d6f .LASF192
     /tmp/cc3RnfEh.s:7266   .debug_str:00000000000003ca .LASF193
GAS LISTING /tmp/cc3RnfEh.s 			page 43


     /tmp/cc3RnfEh.s:7344   .debug_str:00000000000006a3 .LASF194
     /tmp/cc3RnfEh.s:7582   .debug_str:0000000000000f04 .LASF195
     /tmp/cc3RnfEh.s:7408   .debug_str:00000000000008d7 .LASF403
     /tmp/cc3RnfEh.s:7534   .debug_str:0000000000000da2 .LASF196
     /tmp/cc3RnfEh.s:7334   .debug_str:0000000000000636 .LASF198
     /tmp/cc3RnfEh.s:7516   .debug_str:0000000000000d1e .LASF197
     /tmp/cc3RnfEh.s:7820   .debug_str:000000000000164d .LASF199
     /tmp/cc3RnfEh.s:7722   .debug_str:0000000000001369 .LASF200
     /tmp/cc3RnfEh.s:7822   .debug_str:0000000000001660 .LASF201
     /tmp/cc3RnfEh.s:7852   .debug_str:000000000000174d .LASF202
     /tmp/cc3RnfEh.s:7524   .debug_str:0000000000000d57 .LASF203
     /tmp/cc3RnfEh.s:7476   .debug_str:0000000000000b08 .LASF205
     /tmp/cc3RnfEh.s:7458   .debug_str:0000000000000a71 .LASF207
     /tmp/cc3RnfEh.s:7208   .debug_str:0000000000000204 .LASF208
     /tmp/cc3RnfEh.s:7890   .debug_str:0000000000001877 .LASF209
     /tmp/cc3RnfEh.s:7370   .debug_str:0000000000000772 .LASF210
     /tmp/cc3RnfEh.s:7778   .debug_str:000000000000151e .LASF211
     /tmp/cc3RnfEh.s:7422   .debug_str:0000000000000936 .LASF212
     /tmp/cc3RnfEh.s:7148   .debug_str:0000000000000053 .LASF213
     /tmp/cc3RnfEh.s:7510   .debug_str:0000000000000cf1 .LASF214
     /tmp/cc3RnfEh.s:7716   .debug_str:0000000000001336 .LASF215
     /tmp/cc3RnfEh.s:7496   .debug_str:0000000000000bc8 .LASF216
     /tmp/cc3RnfEh.s:7868   .debug_str:00000000000017c1 .LASF217
     /tmp/cc3RnfEh.s:7790   .debug_str:0000000000001582 .LASF218
     /tmp/cc3RnfEh.s:7924   .debug_str:0000000000001995 .LASF219
     /tmp/cc3RnfEh.s:7798   .debug_str:00000000000015b4 .LASF220
     /tmp/cc3RnfEh.s:7240   .debug_str:00000000000002dc .LASF221
     /tmp/cc3RnfEh.s:7756   .debug_str:000000000000148e .LASF222
     /tmp/cc3RnfEh.s:7170   .debug_str:0000000000000133 .LASF223
     /tmp/cc3RnfEh.s:7856   .debug_str:0000000000001765 .LASF224
     /tmp/cc3RnfEh.s:7630   .debug_str:00000000000010b8 .LASF225
     /tmp/cc3RnfEh.s:7632   .debug_str:00000000000010c4 .LASF226
     /tmp/cc3RnfEh.s:7188   .debug_str:00000000000001aa .LASF227
     /tmp/cc3RnfEh.s:7688   .debug_str:0000000000001233 .LASF228
     /tmp/cc3RnfEh.s:7286   .debug_str:000000000000046b .LASF289
     /tmp/cc3RnfEh.s:7934   .debug_str:00000000000019e4 .LASF231
     /tmp/cc3RnfEh.s:7328   .debug_str:00000000000005df .LASF233
     /tmp/cc3RnfEh.s:7860   .debug_str:0000000000001783 .LASF229
     /tmp/cc3RnfEh.s:7312   .debug_str:000000000000052d .LASF230
     /tmp/cc3RnfEh.s:7198   .debug_str:00000000000001d9 .LASF232
     /tmp/cc3RnfEh.s:7730   .debug_str:00000000000013ba .LASF234
     /tmp/cc3RnfEh.s:7642   .debug_str:0000000000001104 .LASF235
     /tmp/cc3RnfEh.s:7506   .debug_str:0000000000000ccf .LASF236
     /tmp/cc3RnfEh.s:7270   .debug_str:00000000000003f5 .LASF237
     /tmp/cc3RnfEh.s:7500   .debug_str:0000000000000bda .LASF238
     /tmp/cc3RnfEh.s:7598   .debug_str:0000000000000f75 .LASF239
     /tmp/cc3RnfEh.s:7568   .debug_str:0000000000000ea8 .LASF240
     /tmp/cc3RnfEh.s:7548   .debug_str:0000000000000e13 .LASF241
     /tmp/cc3RnfEh.s:7544   .debug_str:0000000000000df3 .LASF242
     /tmp/cc3RnfEh.s:7172   .debug_str:000000000000013d .LASF243
     /tmp/cc3RnfEh.s:7314   .debug_str:0000000000000555 .LASF244
     /tmp/cc3RnfEh.s:7720   .debug_str:0000000000001361 .LASF245
     /tmp/cc3RnfEh.s:7886   .debug_str:0000000000001844 .LASF246
     /tmp/cc3RnfEh.s:7470   .debug_str:0000000000000ae5 .LASF247
     /tmp/cc3RnfEh.s:7776   .debug_str:0000000000001504 .LASF248
     /tmp/cc3RnfEh.s:7666   .debug_str:00000000000011b5 .LASF249
     /tmp/cc3RnfEh.s:7418   .debug_str:000000000000091d .LASF250
GAS LISTING /tmp/cc3RnfEh.s 			page 44


     /tmp/cc3RnfEh.s:7232   .debug_str:00000000000002a7 .LASF251
     /tmp/cc3RnfEh.s:7876   .debug_str:00000000000017eb .LASF252
     /tmp/cc3RnfEh.s:7214   .debug_str:0000000000000220 .LASF253
     /tmp/cc3RnfEh.s:7518   .debug_str:0000000000000d27 .LASF254
     /tmp/cc3RnfEh.s:7472   .debug_str:0000000000000aeb .LASF255
     /tmp/cc3RnfEh.s:7302   .debug_str:00000000000004ec .LASF256
     /tmp/cc3RnfEh.s:7242   .debug_str:00000000000002e1 .LASF257
     /tmp/cc3RnfEh.s:7366   .debug_str:0000000000000761 .LASF258
     /tmp/cc3RnfEh.s:7372   .debug_str:0000000000000782 .LASF259
     /tmp/cc3RnfEh.s:7628   .debug_str:00000000000010ab .LASF260
     /tmp/cc3RnfEh.s:7804   .debug_str:00000000000015dc .LASF261
     /tmp/cc3RnfEh.s:7892   .debug_str:000000000000188b .LASF262
     /tmp/cc3RnfEh.s:7942   .debug_str:0000000000001a23 .LASF263
     /tmp/cc3RnfEh.s:7390   .debug_str:0000000000000816 .LASF264
     /tmp/cc3RnfEh.s:7926   .debug_str:000000000000199f .LASF265
     /tmp/cc3RnfEh.s:7308   .debug_str:0000000000000514 .LASF266
     /tmp/cc3RnfEh.s:7536   .debug_str:0000000000000da8 .LASF267
     /tmp/cc3RnfEh.s:7552   .debug_str:0000000000000e1e .LASF268
     /tmp/cc3RnfEh.s:7946   .debug_str:0000000000001a44 .LASF269
     /tmp/cc3RnfEh.s:7512   .debug_str:0000000000000d02 .LASF270
     /tmp/cc3RnfEh.s:7660   .debug_str:0000000000001197 .LASF271
     /tmp/cc3RnfEh.s:7162   .debug_str:00000000000000f8 .LASF272
     /tmp/cc3RnfEh.s:7336   .debug_str:0000000000000646 .LASF273
     /tmp/cc3RnfEh.s:7874   .debug_str:00000000000017df .LASF404
     /tmp/cc3RnfEh.s:7574   .debug_str:0000000000000ede .LASF274
     /tmp/cc3RnfEh.s:7290   .debug_str:000000000000048d .LASF275
     /tmp/cc3RnfEh.s:7768   .debug_str:00000000000014c7 .LASF276
     /tmp/cc3RnfEh.s:7882   .debug_str:000000000000182f .LASF277
     /tmp/cc3RnfEh.s:7326   .debug_str:00000000000005d8 .LASF278
     /tmp/cc3RnfEh.s:7410   .debug_str:00000000000008dc .LASF279
     /tmp/cc3RnfEh.s:7784   .debug_str:0000000000001551 .LASF280
     /tmp/cc3RnfEh.s:7432   .debug_str:000000000000097e .LASF281
     /tmp/cc3RnfEh.s:7388   .debug_str:00000000000007fc .LASF282
     /tmp/cc3RnfEh.s:7684   .debug_str:000000000000121b .LASF283
     /tmp/cc3RnfEh.s:7252   .debug_str:000000000000034f .LASF284
     /tmp/cc3RnfEh.s:7800   .debug_str:00000000000015b9 .LASF405
     /tmp/cc3RnfEh.s:7740   .debug_str:000000000000140e .LASF286
     /tmp/cc3RnfEh.s:7278   .debug_str:0000000000000433 .LASF287
     /tmp/cc3RnfEh.s:7226   .debug_str:000000000000026c .LASF288
     /tmp/cc3RnfEh.s:7434   .debug_str:0000000000000998 .LASF406
     /tmp/cc3RnfEh.s:7614   .debug_str:0000000000001005 .LASF290
     /tmp/cc3RnfEh.s:7842   .debug_str:0000000000001704 .LASF291
     /tmp/cc3RnfEh.s:7532   .debug_str:0000000000000d89 .LASF292
     /tmp/cc3RnfEh.s:7702   .debug_str:00000000000012bc .LASF293
     /tmp/cc3RnfEh.s:7342   .debug_str:0000000000000681 .LASF294
     /tmp/cc3RnfEh.s:7810   .debug_str:000000000000160a .LASF295
     /tmp/cc3RnfEh.s:7912   .debug_str:0000000000001910 .LASF296
     /tmp/cc3RnfEh.s:7622   .debug_str:0000000000001062 .LASF297
     /tmp/cc3RnfEh.s:7698   .debug_str:0000000000001286 .LASF298
     /tmp/cc3RnfEh.s:7792   .debug_str:000000000000158f .LASF299
     /tmp/cc3RnfEh.s:7542   .debug_str:0000000000000dd6 .LASF300
     /tmp/cc3RnfEh.s:7384   .debug_str:00000000000007de .LASF301
     /tmp/cc3RnfEh.s:7726   .debug_str:000000000000137f .LASF302
     /tmp/cc3RnfEh.s:7588   .debug_str:0000000000000f37 .LASF303
     /tmp/cc3RnfEh.s:7706   .debug_str:00000000000012d9 .LASF304
     /tmp/cc3RnfEh.s:7466   .debug_str:0000000000000ab6 .LASF305
     /tmp/cc3RnfEh.s:7782   .debug_str:000000000000154b .LASF306
GAS LISTING /tmp/cc3RnfEh.s 			page 45


     /tmp/cc3RnfEh.s:7350   .debug_str:00000000000006eb .LASF307
     /tmp/cc3RnfEh.s:7262   .debug_str:00000000000003b6 .LASF308
     /tmp/cc3RnfEh.s:7724   .debug_str:0000000000001376 .LASF309
     /tmp/cc3RnfEh.s:7230   .debug_str:0000000000000292 .LASF310
     /tmp/cc3RnfEh.s:7928   .debug_str:00000000000019bc .LASF311
     /tmp/cc3RnfEh.s:7862   .debug_str:0000000000001791 .LASF312
     /tmp/cc3RnfEh.s:7360   .debug_str:000000000000073d .LASF313
     /tmp/cc3RnfEh.s:7222   .debug_str:000000000000024e .LASF314
     /tmp/cc3RnfEh.s:7300   .debug_str:00000000000004e5 .LASF315
     /tmp/cc3RnfEh.s:7320   .debug_str:000000000000059d .LASF316
     /tmp/cc3RnfEh.s:7184   .debug_str:000000000000019d .LASF317
     /tmp/cc3RnfEh.s:7794   .debug_str:000000000000159b .LASF318
     /tmp/cc3RnfEh.s:7732   .debug_str:00000000000013ce .LASF319
     /tmp/cc3RnfEh.s:7256   .debug_str:0000000000000375 .LASF320
     /tmp/cc3RnfEh.s:7898   .debug_str:00000000000018b1 .LASF321
     /tmp/cc3RnfEh.s:7298   .debug_str:00000000000004d1 .LASF322
     /tmp/cc3RnfEh.s:7526   .debug_str:0000000000000d67 .LASF323
     /tmp/cc3RnfEh.s:7474   .debug_str:0000000000000af4 .LASF324
     /tmp/cc3RnfEh.s:7396   .debug_str:0000000000000868 .LASF325
     /tmp/cc3RnfEh.s:7138   .debug_str:0000000000000018 .LASF326
     /tmp/cc3RnfEh.s:7134   .debug_str:0000000000000000 .LASF327
     /tmp/cc3RnfEh.s:7950   .debug_str:0000000000001a67 .LASF328
     /tmp/cc3RnfEh.s:7896   .debug_str:00000000000018aa .LASF329
     /tmp/cc3RnfEh.s:7284   .debug_str:0000000000000458 .LASF330
     /tmp/cc3RnfEh.s:7920   .debug_str:0000000000001984 .LASF331
     /tmp/cc3RnfEh.s:7600   .debug_str:0000000000000f8a .LASF332
     /tmp/cc3RnfEh.s:7462   .debug_str:0000000000000aa6 .LASF333
     /tmp/cc3RnfEh.s:7166   .debug_str:0000000000000118 .LASF334
     /tmp/cc3RnfEh.s:7202   .debug_str:00000000000001f4 .LASF335
     /tmp/cc3RnfEh.s:7652   .debug_str:0000000000001146 .LASF336
     /tmp/cc3RnfEh.s:7566   .debug_str:0000000000000ea2 .LASF337
     /tmp/cc3RnfEh.s:7914   .debug_str:000000000000192e .LASF338
     /tmp/cc3RnfEh.s:7902   .debug_str:00000000000018c1 .LASF339
     /tmp/cc3RnfEh.s:7754   .debug_str:000000000000147b .LASF340
     /tmp/cc3RnfEh.s:7452   .debug_str:0000000000000a34 .LASF341
     /tmp/cc3RnfEh.s:7294   .debug_str:00000000000004ad .LASF342
     /tmp/cc3RnfEh.s:7770   .debug_str:00000000000014d5 .LASF343
     /tmp/cc3RnfEh.s:7338   .debug_str:0000000000000659 .LASF344
     /tmp/cc3RnfEh.s:7560   .debug_str:0000000000000e7f .LASF345
     /tmp/cc3RnfEh.s:7490   .debug_str:0000000000000b87 .LASF346
     /tmp/cc3RnfEh.s:7580   .debug_str:0000000000000ef9 .LASF347
     /tmp/cc3RnfEh.s:7930   .debug_str:00000000000019c5 .LASF348
     /tmp/cc3RnfEh.s:7224   .debug_str:0000000000000261 .LASF349
     /tmp/cc3RnfEh.s:7700   .debug_str:00000000000012a4 .LASF350
     /tmp/cc3RnfEh.s:7758   .debug_str:0000000000001494 .LASF351
     /tmp/cc3RnfEh.s:7478   .debug_str:0000000000000b1f .LASF352
     /tmp/cc3RnfEh.s:7382   .debug_str:00000000000007d4 .LASF353
     /tmp/cc3RnfEh.s:7362   .debug_str:0000000000000744 .LASF354
     /tmp/cc3RnfEh.s:7572   .debug_str:0000000000000ed9 .LASF355
     /tmp/cc3RnfEh.s:7514   .debug_str:0000000000000d0d .LASF356
     /tmp/cc3RnfEh.s:7182   .debug_str:0000000000000198 .LASF357
     /tmp/cc3RnfEh.s:7780   .debug_str:000000000000153a .LASF358
     /tmp/cc3RnfEh.s:7872   .debug_str:00000000000017da .LASF359
     /tmp/cc3RnfEh.s:7200   .debug_str:00000000000001e3 .LASF360
     /tmp/cc3RnfEh.s:7796   .debug_str:00000000000015af .LASF361
     /tmp/cc3RnfEh.s:7268   .debug_str:00000000000003e4 .LASF362
     /tmp/cc3RnfEh.s:7186   .debug_str:00000000000001a5 .LASF363
GAS LISTING /tmp/cc3RnfEh.s 			page 46


     /tmp/cc3RnfEh.s:7606   .debug_str:0000000000000fb4 .LASF364
     /tmp/cc3RnfEh.s:7376   .debug_str:00000000000007a7 .LASF365
     /tmp/cc3RnfEh.s:7356   .debug_str:0000000000000710 .LASF366
     /tmp/cc3RnfEh.s:7190   .debug_str:00000000000001b1 .LASF367
     /tmp/cc3RnfEh.s:7764   .debug_str:00000000000014aa .LASF368
     /tmp/cc3RnfEh.s:7482   .debug_str:0000000000000b49 .LASF369
     /tmp/cc3RnfEh.s:7832   .debug_str:00000000000016aa .LASF370
     /tmp/cc3RnfEh.s:7264   .debug_str:00000000000003bc .LASF371
     /tmp/cc3RnfEh.s:7554   .debug_str:0000000000000e2b .LASF372
     /tmp/cc3RnfEh.s:7686   .debug_str:0000000000001228 .LASF373
     /tmp/cc3RnfEh.s:7858   .debug_str:000000000000176b .LASF374
     /tmp/cc3RnfEh.s:7272   .debug_str:0000000000000409 .LASF375
     /tmp/cc3RnfEh.s:7436   .debug_str:00000000000009ac .LASF376
     /tmp/cc3RnfEh.s:7670   .debug_str:00000000000011d9 .LASF377
     /tmp/cc3RnfEh.s:7178   .debug_str:0000000000000167 .LASF378
     /tmp/cc3RnfEh.s:7468   .debug_str:0000000000000ad1 .LASF379
     /tmp/cc3RnfEh.s:7428   .debug_str:0000000000000961 .LASF380
     /tmp/cc3RnfEh.s:7590   .debug_str:0000000000000f44 .LASF381
     /tmp/cc3RnfEh.s:7324   .debug_str:00000000000005c5 .LASF382
     /tmp/cc3RnfEh.s:7850   .debug_str:000000000000173a .LASF383
     /tmp/cc3RnfEh.s:7480   .debug_str:0000000000000b35 .LASF384
     /tmp/cc3RnfEh.s:7838   .debug_str:00000000000016d7 .LASF385
     /tmp/cc3RnfEh.s:7728   .debug_str:000000000000139e .LASF407
     /tmp/cc3RnfEh.s:7718   .debug_str:000000000000133e .LASF386
     /tmp/cc3RnfEh.s:992    .text:0000000000000644 .LFB97
     /tmp/cc3RnfEh.s:1018   .text:0000000000000678 .LFE97
     /tmp/cc3RnfEh.s:1008   .text:0000000000000668 .LVL89
     /tmp/cc3RnfEh.s:7692   .debug_str:000000000000124e .LASF387
     /tmp/cc3RnfEh.s:12     .text:0000000000000000 .LFB96
     /tmp/cc3RnfEh.s:55     .text:000000000000006c .LFE96
     /tmp/cc3RnfEh.s:7354   .debug_str:0000000000000701 .LASF388
     /tmp/cc3RnfEh.s:7530   .debug_str:0000000000000d7e .LASF389
     /tmp/cc3RnfEh.s:7650   .debug_str:0000000000001141 .LASF390
     /tmp/cc3RnfEh.s:7416   .debug_str:0000000000000904 .LASF393
     /tmp/cc3RnfEh.s:757    .text:00000000000004d8 .LFB88
     /tmp/cc3RnfEh.s:987    .text:0000000000000644 .LFE88
     /tmp/cc3RnfEh.s:6707   .debug_loc:0000000000000000 .LLST35
     /tmp/cc3RnfEh.s:798    .text:000000000000051c .LBB266
     /tmp/cc3RnfEh.s:865    .text:00000000000005bc .LBE266
     /tmp/cc3RnfEh.s:6746   .debug_loc:0000000000000061 .LLST36
     /tmp/cc3RnfEh.s:822    .text:0000000000000550 .LBB267
     /tmp/cc3RnfEh.s:864    .text:00000000000005bc .LBE267
     /tmp/cc3RnfEh.s:6753   .debug_loc:0000000000000084 .LLST37
     /tmp/cc3RnfEh.s:6760   .debug_loc:00000000000000a7 .LLST38
     /tmp/cc3RnfEh.s:827    .text:000000000000055c .LVL75
     /tmp/cc3RnfEh.s:832    .text:000000000000056c .LVL76
     /tmp/cc3RnfEh.s:855    .text:00000000000005ac .LVL77
     /tmp/cc3RnfEh.s:859    .text:00000000000005b8 .LVL78
     /tmp/cc3RnfEh.s:811    .text:0000000000000538 .LVL73
     /tmp/cc3RnfEh.s:880    .text:00000000000005d8 .LBB271
     /tmp/cc3RnfEh.s:961    .text:0000000000000620 .LBE271
     /tmp/cc3RnfEh.s:7602   .debug_str:0000000000000f9d .LASF391
     /tmp/cc3RnfEh.s:6767   .debug_loc:00000000000000ca .LLST39
     /tmp/cc3RnfEh.s:7680   .debug_str:0000000000001203 .LASF392
     /tmp/cc3RnfEh.s:6774   .debug_loc:00000000000000ed .LLST40
     /tmp/cc3RnfEh.s:882    .text:00000000000005d8 .LBB272
     /tmp/cc3RnfEh.s:898    .text:00000000000005e4 .LBE272
GAS LISTING /tmp/cc3RnfEh.s 			page 47


     /tmp/cc3RnfEh.s:883    .text:00000000000005d8 .LBB273
     /tmp/cc3RnfEh.s:897    .text:00000000000005e4 .LBE273
     /tmp/cc3RnfEh.s:899    .text:00000000000005e4 .LBB274
     /tmp/cc3RnfEh.s:915    .text:00000000000005f0 .LBE274
     /tmp/cc3RnfEh.s:900    .text:00000000000005e4 .LBB275
     /tmp/cc3RnfEh.s:914    .text:00000000000005f0 .LBE275
     /tmp/cc3RnfEh.s:917    .text:00000000000005f0 .LBB276
     /tmp/cc3RnfEh.s:928    .text:000000000000060c .LBE276
     /tmp/cc3RnfEh.s:6781   .debug_loc:0000000000000110 .LLST41
     /tmp/cc3RnfEh.s:926    .text:000000000000060c .LVL84
     /tmp/cc3RnfEh.s:934    .text:0000000000000614 .LBB278
     /tmp/cc3RnfEh.s:945    .text:0000000000000618 .LBE278
     /tmp/cc3RnfEh.s:6789   .debug_loc:000000000000013b .LLST42
     /tmp/cc3RnfEh.s:947    .text:0000000000000618 .LBB280
     /tmp/cc3RnfEh.s:960    .text:0000000000000620 .LBE280
     /tmp/cc3RnfEh.s:6796   .debug_loc:000000000000015e .LLST43
     /tmp/cc3RnfEh.s:932    .text:0000000000000614 .LVL85
     /tmp/cc3RnfEh.s:786    .text:0000000000000504 .LBB264
     /tmp/cc3RnfEh.s:794    .text:0000000000000514 .LBE264
     /tmp/cc3RnfEh.s:777    .text:00000000000004fc .LVL70
     /tmp/cc3RnfEh.s:872    .text:00000000000005c8 .LVL81
     /tmp/cc3RnfEh.s:968    .text:0000000000000628 .LVL88
     /tmp/cc3RnfEh.s:734    .text:00000000000004c0 .LFB87
     /tmp/cc3RnfEh.s:751    .text:00000000000004d8 .LFE87
     /tmp/cc3RnfEh.s:61     .text:000000000000006c .LFB86
     /tmp/cc3RnfEh.s:232    .text:0000000000000174 .LFE86
     /tmp/cc3RnfEh.s:86     .text:0000000000000098 .LBB122
     /tmp/cc3RnfEh.s:159    .text:00000000000000d4 .LBE122
     /tmp/cc3RnfEh.s:6803   .debug_loc:0000000000000181 .LLST0
     /tmp/cc3RnfEh.s:6810   .debug_loc:00000000000001a4 .LLST1
     /tmp/cc3RnfEh.s:88     .text:0000000000000098 .LBB123
     /tmp/cc3RnfEh.s:105    .text:00000000000000a4 .LBE123
     /tmp/cc3RnfEh.s:89     .text:0000000000000098 .LBB124
     /tmp/cc3RnfEh.s:104    .text:00000000000000a4 .LBE124
     /tmp/cc3RnfEh.s:106    .text:00000000000000a4 .LBB125
     /tmp/cc3RnfEh.s:122    .text:00000000000000b0 .LBE125
     /tmp/cc3RnfEh.s:107    .text:00000000000000a4 .LBB126
     /tmp/cc3RnfEh.s:121    .text:00000000000000b0 .LBE126
     /tmp/cc3RnfEh.s:133    .text:00000000000000cc .LBB127
     /tmp/cc3RnfEh.s:144    .text:00000000000000d0 .LBE127
     /tmp/cc3RnfEh.s:6817   .debug_loc:00000000000001c7 .LLST2
     /tmp/cc3RnfEh.s:146    .text:00000000000000d0 .LBB129
     /tmp/cc3RnfEh.s:158    .text:00000000000000d4 .LBE129
     /tmp/cc3RnfEh.s:6824   .debug_loc:00000000000001ea .LLST3
     /tmp/cc3RnfEh.s:131    .text:00000000000000cc .LVL3
     /tmp/cc3RnfEh.s:164    .text:00000000000000d4 .LBB131
     /tmp/cc3RnfEh.s:173    .text:00000000000000e4 .LBE131
     /tmp/cc3RnfEh.s:185    .text:0000000000000104 .LBB133
     /tmp/cc3RnfEh.s:226    .text:000000000000016c .LBE133
     /tmp/cc3RnfEh.s:6831   .debug_loc:000000000000020d .LLST4
     /tmp/cc3RnfEh.s:186    .text:0000000000000104 .LBB134
     /tmp/cc3RnfEh.s:225    .text:000000000000016c .LBE134
     /tmp/cc3RnfEh.s:6838   .debug_loc:0000000000000230 .LLST5
     /tmp/cc3RnfEh.s:191    .text:0000000000000110 .LVL7
     /tmp/cc3RnfEh.s:196    .text:0000000000000120 .LVL8
     /tmp/cc3RnfEh.s:220    .text:0000000000000160 .LVL10
     /tmp/cc3RnfEh.s:224    .text:000000000000016c .LVL11
GAS LISTING /tmp/cc3RnfEh.s 			page 48


     /tmp/cc3RnfEh.s:692    .text:00000000000004c0 .LFE85
     /tmp/cc3RnfEh.s:6845   .debug_loc:0000000000000253 .LLST6
     /tmp/cc3RnfEh.s:257    .text:000000000000018c .LBB194
     /tmp/cc3RnfEh.s:7112   .debug_ranges:0000000000000000 .Ldebug_ranges0
     /tmp/cc3RnfEh.s:6856   .debug_loc:0000000000000289 .LLST7
     /tmp/cc3RnfEh.s:268    .text:00000000000001b0 .LVL13
     /tmp/cc3RnfEh.s:598    .text:00000000000003b8 .LVL58
     /tmp/cc3RnfEh.s:609    .text:00000000000003e0 .LVL59
     /tmp/cc3RnfEh.s:618    .text:00000000000003fc .LVL60
     /tmp/cc3RnfEh.s:274    .text:00000000000001b4 .LBB197
     /tmp/cc3RnfEh.s:363    .text:0000000000000220 .LBE197
     /tmp/cc3RnfEh.s:6871   .debug_loc:00000000000002c5 .LLST8
     /tmp/cc3RnfEh.s:279    .text:00000000000001b8 .LBB199
     /tmp/cc3RnfEh.s:304    .text:00000000000001dc .LBE199
     /tmp/cc3RnfEh.s:6878   .debug_loc:00000000000002e8 .LLST9
     /tmp/cc3RnfEh.s:6886   .debug_loc:000000000000030c .LLST10
     /tmp/cc3RnfEh.s:286    .text:00000000000001c0 .LBB201
     /tmp/cc3RnfEh.s:295    .text:00000000000001cc .LBE201
     /tmp/cc3RnfEh.s:6893   .debug_loc:000000000000032f .LLST11
     /tmp/cc3RnfEh.s:308    .text:00000000000001e0 .LBB203
     /tmp/cc3RnfEh.s:328    .text:00000000000001f4 .LBE203
     /tmp/cc3RnfEh.s:6902   .debug_loc:0000000000000354 .LLST12
     /tmp/cc3RnfEh.s:6910   .debug_loc:0000000000000378 .LLST13
     /tmp/cc3RnfEh.s:313    .text:00000000000001e4 .LBB205
     /tmp/cc3RnfEh.s:321    .text:00000000000001f0 .LBE205
     /tmp/cc3RnfEh.s:6917   .debug_loc:000000000000039b .LLST14
     /tmp/cc3RnfEh.s:332    .text:00000000000001f8 .LBB207
     /tmp/cc3RnfEh.s:355    .text:0000000000000214 .LBE207
     /tmp/cc3RnfEh.s:6926   .debug_loc:00000000000003c0 .LLST15
     /tmp/cc3RnfEh.s:6935   .debug_loc:00000000000003e6 .LLST16
     /tmp/cc3RnfEh.s:338    .text:0000000000000200 .LBB209
     /tmp/cc3RnfEh.s:346    .text:000000000000020c .LBE209
     /tmp/cc3RnfEh.s:6942   .debug_loc:0000000000000409 .LLST17
     /tmp/cc3RnfEh.s:368    .text:0000000000000228 .LBB211
     /tmp/cc3RnfEh.s:6951   .debug_loc:000000000000042e .LLST18
     /tmp/cc3RnfEh.s:379    .text:000000000000024c .LVL29
     /tmp/cc3RnfEh.s:630    .text:0000000000000414 .LVL62
     /tmp/cc3RnfEh.s:641    .text:000000000000043c .LVL63
     /tmp/cc3RnfEh.s:650    .text:0000000000000458 .LVL64
     /tmp/cc3RnfEh.s:385    .text:0000000000000250 .LBB214
     /tmp/cc3RnfEh.s:472    .text:00000000000002bc .LBE214
     /tmp/cc3RnfEh.s:6966   .debug_loc:000000000000046a .LLST19
     /tmp/cc3RnfEh.s:390    .text:0000000000000254 .LBB216
     /tmp/cc3RnfEh.s:413    .text:0000000000000278 .LBE216
     /tmp/cc3RnfEh.s:6973   .debug_loc:000000000000048d .LLST20
     /tmp/cc3RnfEh.s:6981   .debug_loc:00000000000004b1 .LLST21
     /tmp/cc3RnfEh.s:396    .text:000000000000025c .LBB218
     /tmp/cc3RnfEh.s:404    .text:0000000000000268 .LBE218
     /tmp/cc3RnfEh.s:6988   .debug_loc:00000000000004d4 .LLST22
     /tmp/cc3RnfEh.s:417    .text:000000000000027c .LBB220
     /tmp/cc3RnfEh.s:437    .text:0000000000000290 .LBE220
     /tmp/cc3RnfEh.s:6997   .debug_loc:00000000000004f9 .LLST23
     /tmp/cc3RnfEh.s:7005   .debug_loc:000000000000051d .LLST24
     /tmp/cc3RnfEh.s:422    .text:0000000000000280 .LBB222
     /tmp/cc3RnfEh.s:430    .text:000000000000028c .LBE222
     /tmp/cc3RnfEh.s:7012   .debug_loc:0000000000000540 .LLST25
     /tmp/cc3RnfEh.s:441    .text:0000000000000294 .LBB224
GAS LISTING /tmp/cc3RnfEh.s 			page 49


     /tmp/cc3RnfEh.s:464    .text:00000000000002b0 .LBE224
     /tmp/cc3RnfEh.s:7021   .debug_loc:0000000000000565 .LLST26
     /tmp/cc3RnfEh.s:7030   .debug_loc:000000000000058b .LLST27
     /tmp/cc3RnfEh.s:447    .text:000000000000029c .LBB226
     /tmp/cc3RnfEh.s:455    .text:00000000000002a8 .LBE226
     /tmp/cc3RnfEh.s:7037   .debug_loc:00000000000005ae .LLST28
     /tmp/cc3RnfEh.s:477    .text:00000000000002c4 .LBB228
     /tmp/cc3RnfEh.s:7046   .debug_loc:00000000000005d3 .LLST29
     /tmp/cc3RnfEh.s:488    .text:00000000000002e8 .LVL45
     /tmp/cc3RnfEh.s:663    .text:0000000000000470 .LVL66
     /tmp/cc3RnfEh.s:674    .text:0000000000000498 .LVL67
     /tmp/cc3RnfEh.s:683    .text:00000000000004b4 .LVL68
     /tmp/cc3RnfEh.s:494    .text:00000000000002ec .LBB231
     /tmp/cc3RnfEh.s:519    .text:0000000000000310 .LBE231
     /tmp/cc3RnfEh.s:7061   .debug_loc:000000000000060d .LLST30
     /tmp/cc3RnfEh.s:7069   .debug_loc:0000000000000631 .LLST31
     /tmp/cc3RnfEh.s:499    .text:00000000000002f0 .LBB233
     /tmp/cc3RnfEh.s:507    .text:00000000000002fc .LBE233
     /tmp/cc3RnfEh.s:7076   .debug_loc:0000000000000654 .LLST32
     /tmp/cc3RnfEh.s:557    .text:0000000000000388 .LBB235
     /tmp/cc3RnfEh.s:565    .text:000000000000038c .LBE235
     /tmp/cc3RnfEh.s:7085   .debug_loc:0000000000000679 .LLST33
     /tmp/cc3RnfEh.s:567    .text:000000000000038c .LBB237
     /tmp/cc3RnfEh.s:575    .text:0000000000000394 .LBE237
     /tmp/cc3RnfEh.s:7092   .debug_loc:000000000000069c .LLST34
     /tmp/cc3RnfEh.s:540    .text:000000000000035c .LVL50
     /tmp/cc3RnfEh.s:544    .text:0000000000000368 .LVL51
     /tmp/cc3RnfEh.s:552    .text:0000000000000380 .LVL53
     /tmp/cc3RnfEh.s:622    .text:0000000000000408 .LVL61
     /tmp/cc3RnfEh.s:654    .text:0000000000000464 .LVL65
     /tmp/cc3RnfEh.s:687    .text:00000000000004c0 .LVL69
     /tmp/cc3RnfEh.s:7736   .debug_str:00000000000013db .LASF394
     /tmp/cc3RnfEh.s:7442   .debug_str:0000000000000a03 .LASF395
     /tmp/cc3RnfEh.s:7940   .debug_str:0000000000001a15 .LASF396
     /tmp/cc3RnfEh.s:7824   .debug_str:000000000000167a .LASF397
     /tmp/cc3RnfEh.s:7814   .debug_str:0000000000001621 .LASF408
     /tmp/cc3RnfEh.s:7164   .debug_str:0000000000000100 .LASF409
     /tmp/cc3RnfEh.s:809    .text:0000000000000530 .LVL72
     /tmp/cc3RnfEh.s:861    .text:00000000000005bc .LVL79
     /tmp/cc3RnfEh.s:870    .text:00000000000005c0 .LVL80
     /tmp/cc3RnfEh.s:957    .text:0000000000000620 .LVL87
     /tmp/cc3RnfEh.s:805    .text:000000000000052c .LVL71
     /tmp/cc3RnfEh.s:821    .text:0000000000000550 .LVL74
     /tmp/cc3RnfEh.s:896    .text:00000000000005e4 .LVL82
     /tmp/cc3RnfEh.s:913    .text:00000000000005f0 .LVL83
     /tmp/cc3RnfEh.s:942    .text:0000000000000618 .LVL86
     /tmp/cc3RnfEh.s:103    .text:00000000000000a4 .LVL1
     /tmp/cc3RnfEh.s:154    .text:00000000000000d4 .LVL5
     /tmp/cc3RnfEh.s:120    .text:00000000000000b0 .LVL2
     /tmp/cc3RnfEh.s:141    .text:00000000000000d0 .LVL4
     /tmp/cc3RnfEh.s:184    .text:0000000000000104 .LVL6
     /tmp/cc3RnfEh.s:206    .text:0000000000000138 .LVL9
     /tmp/cc3RnfEh.s:550    .text:0000000000000378 .LVL52
     /tmp/cc3RnfEh.s:256    .text:000000000000018c .LVL12
     /tmp/cc3RnfEh.s:590    .text:00000000000003ac .LVL57
     /tmp/cc3RnfEh.s:273    .text:00000000000001b4 .LVL14
     /tmp/cc3RnfEh.s:360    .text:0000000000000220 .LVL27
GAS LISTING /tmp/cc3RnfEh.s 			page 50


     /tmp/cc3RnfEh.s:278    .text:00000000000001b8 .LVL15
     /tmp/cc3RnfEh.s:302    .text:00000000000001dc .LVL18
     /tmp/cc3RnfEh.s:285    .text:00000000000001c0 .LVL16
     /tmp/cc3RnfEh.s:293    .text:00000000000001cc .LVL17
     /tmp/cc3RnfEh.s:307    .text:00000000000001e0 .LVL19
     /tmp/cc3RnfEh.s:326    .text:00000000000001f4 .LVL22
     /tmp/cc3RnfEh.s:312    .text:00000000000001e4 .LVL20
     /tmp/cc3RnfEh.s:319    .text:00000000000001f0 .LVL21
     /tmp/cc3RnfEh.s:331    .text:00000000000001f8 .LVL23
     /tmp/cc3RnfEh.s:353    .text:0000000000000214 .LVL26
     /tmp/cc3RnfEh.s:337    .text:0000000000000200 .LVL24
     /tmp/cc3RnfEh.s:344    .text:000000000000020c .LVL25
     /tmp/cc3RnfEh.s:367    .text:0000000000000228 .LVL28
     /tmp/cc3RnfEh.s:384    .text:0000000000000250 .LVL30
     /tmp/cc3RnfEh.s:469    .text:00000000000002bc .LVL43
     /tmp/cc3RnfEh.s:389    .text:0000000000000254 .LVL31
     /tmp/cc3RnfEh.s:411    .text:0000000000000278 .LVL34
     /tmp/cc3RnfEh.s:395    .text:000000000000025c .LVL32
     /tmp/cc3RnfEh.s:402    .text:0000000000000268 .LVL33
     /tmp/cc3RnfEh.s:416    .text:000000000000027c .LVL35
     /tmp/cc3RnfEh.s:435    .text:0000000000000290 .LVL38
     /tmp/cc3RnfEh.s:421    .text:0000000000000280 .LVL36
     /tmp/cc3RnfEh.s:428    .text:000000000000028c .LVL37
     /tmp/cc3RnfEh.s:440    .text:0000000000000294 .LVL39
     /tmp/cc3RnfEh.s:462    .text:00000000000002b0 .LVL42
     /tmp/cc3RnfEh.s:446    .text:000000000000029c .LVL40
     /tmp/cc3RnfEh.s:453    .text:00000000000002a8 .LVL41
     /tmp/cc3RnfEh.s:476    .text:00000000000002c4 .LVL44
     /tmp/cc3RnfEh.s:493    .text:00000000000002ec .LVL46
     /tmp/cc3RnfEh.s:516    .text:0000000000000310 .LVL49
     /tmp/cc3RnfEh.s:498    .text:00000000000002f0 .LVL47
     /tmp/cc3RnfEh.s:505    .text:00000000000002fc .LVL48
     /tmp/cc3RnfEh.s:556    .text:0000000000000388 .LVL54
     /tmp/cc3RnfEh.s:563    .text:000000000000038c .LVL55
     /tmp/cc3RnfEh.s:573    .text:0000000000000394 .LVL56
     /tmp/cc3RnfEh.s:1081   .debug_info:0000000000000000 .Ldebug_info0
     /tmp/cc3RnfEh.s:270    .text:00000000000001b0 .LBE194
     /tmp/cc3RnfEh.s:593    .text:00000000000003ac .LBB239
     /tmp/cc3RnfEh.s:625    .text:0000000000000408 .LBE239
     /tmp/cc3RnfEh.s:381    .text:000000000000024c .LBE211
     /tmp/cc3RnfEh.s:626    .text:0000000000000408 .LBB240
     /tmp/cc3RnfEh.s:657    .text:0000000000000464 .LBE240
     /tmp/cc3RnfEh.s:490    .text:00000000000002e8 .LBE228
     /tmp/cc3RnfEh.s:658    .text:0000000000000464 .LBB241
     /tmp/cc3RnfEh.s:690    .text:00000000000004c0 .LBE241
     /tmp/cc3RnfEh.s:695    .gcc_except_table:0000000000000000 .LLSDA85

UNDEFINED SYMBOLS
CONSOLE_STATUS
CONSOLE_RX_DATA
CONSOLE_TX_DATA
_ZN3TCB7runningE
_ZN3TCB5yieldEv
_ZN10KSemaphore4waitEv
_ZN10KSemaphore6signalEv
_ZN11ObjectCache9alloc_objEv
_ZN10KSemaphore16activeSemaphoresE
GAS LISTING /tmp/cc3RnfEh.s 			page 51


_ZN10KSemaphore5cacheE
_ZN13SlabAllocator11getInstanceEv
_ZN13SlabAllocator7kmallocEm
_ZN3TCB12createThreadEPFvPvES0_Pm
_ZN11ObjectCachenwEm
_ZN11ObjectCacheC1EPKcmPFvPvES4_NS_12SlabMetaTypeE
_ZN11ObjectCachedlEPv
_Unwind_Resume
__gxx_personality_v0
plic_claim
plic_complete
_ZN9Scheduler5queueE
_ZN8TcbQueue11insertFrontEP3TCB
