GAS LISTING /tmp/cclU3kOn.s 			page 1


   1              		.file	"tree_like_buddy.cpp"
   2              		.option nopic
   3              		.option norelax
   4              		.attribute arch, "rv64i2p0_m2p0_a2p0"
   5              		.attribute unaligned_access, 0
   6              		.attribute stack_align, 16
   7              		.text
   8              	.Ltext0:
   9              		.align	2
  10              		.globl	_ZN13TreeLikeBuddyC2EPvm
  12              	_ZN13TreeLikeBuddyC2EPvm:
  13              	.LFB119:
  14              		.file 1 "src/kernel/tree_like_buddy.cpp"
   1:src/kernel/tree_like_buddy.cpp **** #include"../../h/kernel_lib.h"
   2:src/kernel/tree_like_buddy.cpp **** #include"../../h/tree_like_buddy.h"
   3:src/kernel/tree_like_buddy.cpp **** TreeLikeBuddy* TreeLikeBuddy::buddy = nullptr;
   4:src/kernel/tree_like_buddy.cpp **** uchar TreeLikeBuddy::BLOCK_SIZE_BIT_LEN = 0;
   5:src/kernel/tree_like_buddy.cpp **** TreeLikeBuddy::TreeLikeBuddy(void* saddr, size_t sz){
  15              		.loc 1 5 1
  16              		.cfi_startproc
  17              	.LVL0:
  18 0000 130101FD 		addi	sp,sp,-48
  19              		.cfi_def_cfa_offset 48
  20 0004 23341102 		sd	ra,40(sp)
  21 0008 23308102 		sd	s0,32(sp)
  22 000c 233C9100 		sd	s1,24(sp)
  23 0010 23382101 		sd	s2,16(sp)
  24 0014 23343101 		sd	s3,8(sp)
  25 0018 23304101 		sd	s4,0(sp)
  26              		.cfi_offset 1, -8
  27              		.cfi_offset 8, -16
  28              		.cfi_offset 9, -24
  29              		.cfi_offset 18, -32
  30              		.cfi_offset 19, -40
  31              		.cfi_offset 20, -48
  32 001c 13040103 		addi	s0,sp,48
  33              		.cfi_def_cfa 8, 0
  34 0020 93040500 		mv	s1,a0
  35              	.LBB2:
   6:src/kernel/tree_like_buddy.cpp ****     /* --------Memory Meta Init-------- */
   7:src/kernel/tree_like_buddy.cpp ****     mmeta_num = log2(sz) + 1;
  36              		.loc 1 7 5
  37              		.loc 1 7 21 is_stmt 0
  38 0024 13050600 		mv	a0,a2
  39              	.LVL1:
  40 0028 97000000 		call	_Z4log2m
  40      E7800000 
  41              	.LVL2:
  42              		.loc 1 7 26
  43 0030 1B051500 		addiw	a0,a0,1
  44 0034 1375F50F 		andi	a0,a0,0xff
  45              		.loc 1 7 15
  46 0038 2380A402 		sb	a0,32(s1)
   8:src/kernel/tree_like_buddy.cpp ****     mmeta_s = (uint64*)NoAlloc::mem_alloc(mmeta_num * sizeof(uint64));
  47              		.loc 1 8 5 is_stmt 1
  48              		.loc 1 8 42 is_stmt 0
  49 003c 13153500 		slli	a0,a0,3
GAS LISTING /tmp/cclU3kOn.s 			page 2


  50 0040 97000000 		call	_ZN7NoAlloc9mem_allocEm
  50      E7800000 
  51              	.LVL3:
  52              		.loc 1 8 13
  53 0048 23BCA400 		sd	a0,24(s1)
   9:src/kernel/tree_like_buddy.cpp ****     if(!mmeta_s) { /* TODO: panic */ }
  54              		.loc 1 9 5 is_stmt 1
  10:src/kernel/tree_like_buddy.cpp ****     mmeta = (alloc_t**) NoAlloc::mem_alloc(mmeta_num * sizeof(alloc_t*));
  55              		.loc 1 10 5
  56              		.loc 1 10 44 is_stmt 0
  57 004c 03C50402 		lbu	a0,32(s1)
  58              		.loc 1 10 43
  59 0050 13153500 		slli	a0,a0,3
  60 0054 97000000 		call	_ZN7NoAlloc9mem_allocEm
  60      E7800000 
  61              	.LVL4:
  62              		.loc 1 10 11
  63 005c 23B8A400 		sd	a0,16(s1)
  11:src/kernel/tree_like_buddy.cpp ****     if(!mmeta) { /* TODO: panic */ }
  64              		.loc 1 11 5 is_stmt 1
  12:src/kernel/tree_like_buddy.cpp ****     for(uchar i = 0; i < mmeta_num; i++){
  65              		.loc 1 12 5
  66              	.LVL5:
  67              	.LBB3:
  68              		.loc 1 12 15 is_stmt 0
  69 0060 93090000 		li	s3,0
  70 0064 6F00C000 		j	.L5
  71              	.LVL6:
  72              	.L3:
  73              		.loc 1 12 5 discriminator 2
  74 0068 9B891900 		addiw	s3,s3,1
  75              	.LVL7:
  76 006c 93F9F90F 		andi	s3,s3,0xff
  77              	.LVL8:
  78              	.L5:
  79              		.loc 1 12 26 discriminator 1
  80 0070 83C70402 		lbu	a5,32(s1)
  81              		.loc 1 12 24 discriminator 1
  82 0074 63FAF906 		bleu	a5,s3,.L2
  83              	.LBB4:
  13:src/kernel/tree_like_buddy.cpp ****         mmeta_s[i] = 1ULL << (mmeta_num - i - 1);
  84              		.loc 1 13 9 is_stmt 1
  85              		.loc 1 13 41 is_stmt 0
  86 0078 BB873741 		subw	a5,a5,s3
  87              		.loc 1 13 45
  88 007c 9B87F7FF 		addiw	a5,a5,-1
  89              		.loc 1 13 9
  90 0080 03B78401 		ld	a4,24(s1)
  91              		.loc 1 13 18
  92 0084 13993900 		slli	s2,s3,3
  93 0088 33072701 		add	a4,a4,s2
  94              		.loc 1 13 27
  95 008c 93061000 		li	a3,1
  96 0090 B397F600 		sll	a5,a3,a5
  97              		.loc 1 13 20
  98 0094 2330F700 		sd	a5,0(a4)
  14:src/kernel/tree_like_buddy.cpp ****         mmeta[i] = (alloc_t*) NoAlloc::mem_alloc(mmeta_s[i] * sizeof(alloc_t));
GAS LISTING /tmp/cclU3kOn.s 			page 3


  99              		.loc 1 14 9 is_stmt 1
 100              		.loc 1 14 50 is_stmt 0
 101 0098 83B78401 		ld	a5,24(s1)
 102              		.loc 1 14 59
 103 009c B3872701 		add	a5,a5,s2
 104              		.loc 1 14 9
 105 00a0 03BA0401 		ld	s4,16(s1)
 106              		.loc 1 14 16
 107 00a4 330A2A01 		add	s4,s4,s2
 108              		.loc 1 14 49
 109 00a8 03B50700 		ld	a0,0(a5)
 110 00ac 97000000 		call	_ZN7NoAlloc9mem_allocEm
 110      E7800000 
 111              	.LVL9:
 112              		.loc 1 14 18
 113 00b4 2330AA00 		sd	a0,0(s4)
  15:src/kernel/tree_like_buddy.cpp ****         if(!mmeta[i]) { /* TODO: panic */ }
 114              		.loc 1 15 9 is_stmt 1
  16:src/kernel/tree_like_buddy.cpp ****         for(uint64 j = 0; j < mmeta_s[i]; j++)
 115              		.loc 1 16 9
 116              	.LVL10:
 117              	.LBB5:
 118              		.loc 1 16 20 is_stmt 0
 119 00b8 13070000 		li	a4,0
 120              	.LVL11:
 121              	.L4:
 122              		.loc 1 16 31 discriminator 3
 123 00bc 83B78401 		ld	a5,24(s1)
 124              		.loc 1 16 40 discriminator 3
 125 00c0 B3872701 		add	a5,a5,s2
 126 00c4 83B70700 		ld	a5,0(a5)
 127              		.loc 1 16 29 discriminator 3
 128 00c8 E370F7FA 		bleu	a5,a4,.L3
  17:src/kernel/tree_like_buddy.cpp ****             mmeta[i][j] = alloc_t::ALLOC; 
 129              		.loc 1 17 13 is_stmt 1 discriminator 2
 130 00cc 83B70401 		ld	a5,16(s1)
 131              		.loc 1 17 20 is_stmt 0 discriminator 2
 132 00d0 B3872701 		add	a5,a5,s2
 133 00d4 83B70700 		ld	a5,0(a5)
 134              		.loc 1 17 23 discriminator 2
 135 00d8 B387E700 		add	a5,a5,a4
 136              		.loc 1 17 25 discriminator 2
 137 00dc 23800700 		sb	zero,0(a5)
  16:src/kernel/tree_like_buddy.cpp ****         for(uint64 j = 0; j < mmeta_s[i]; j++)
 138              		.loc 1 16 9 discriminator 2
 139 00e0 13071700 		addi	a4,a4,1
 140              	.LVL12:
 141 00e4 6FF09FFD 		j	.L4
 142              	.LVL13:
 143              	.L2:
 144              	.LBE5:
 145              	.LBE4:
 146              	.LBE3:
  18:src/kernel/tree_like_buddy.cpp ****     }
  19:src/kernel/tree_like_buddy.cpp ****     mmeta[mmeta_num - 1][0] = alloc_t::FREE;
 147              		.loc 1 19 5 is_stmt 1
 148 00e8 03B70401 		ld	a4,16(s1)
GAS LISTING /tmp/cclU3kOn.s 			page 4


 149              		.loc 1 19 24 is_stmt 0
 150 00ec 93973700 		slli	a5,a5,3
 151 00f0 938787FF 		addi	a5,a5,-8
 152 00f4 B307F700 		add	a5,a4,a5
 153              		.loc 1 19 27
 154 00f8 83B70700 		ld	a5,0(a5)
 155              		.loc 1 19 29
 156 00fc 13071000 		li	a4,1
 157 0100 2380E700 		sb	a4,0(a5)
 158              	.LBE2:
  20:src/kernel/tree_like_buddy.cpp **** }
 159              		.loc 1 20 1
 160 0104 83308102 		ld	ra,40(sp)
 161              		.cfi_restore 1
 162 0108 03340102 		ld	s0,32(sp)
 163              		.cfi_restore 8
 164              		.cfi_def_cfa 2, 48
 165 010c 83348101 		ld	s1,24(sp)
 166              		.cfi_restore 9
 167              	.LVL14:
 168 0110 03390101 		ld	s2,16(sp)
 169              		.cfi_restore 18
 170 0114 83398100 		ld	s3,8(sp)
 171              		.cfi_restore 19
 172              	.LVL15:
 173 0118 033A0100 		ld	s4,0(sp)
 174              		.cfi_restore 20
 175 011c 13010103 		addi	sp,sp,48
 176              		.cfi_def_cfa_offset 0
 177 0120 67800000 		jr	ra
 178              		.cfi_endproc
 179              	.LFE119:
 181              		.globl	_ZN13TreeLikeBuddyC1EPvm
 182              		.set	_ZN13TreeLikeBuddyC1EPvm,_ZN13TreeLikeBuddyC2EPvm
 183              		.align	2
 184              		.globl	_ZN13TreeLikeBuddy12status_printEv
 186              	_ZN13TreeLikeBuddy12status_printEv:
 187              	.LFB121:
  21:src/kernel/tree_like_buddy.cpp **** 
  22:src/kernel/tree_like_buddy.cpp **** void TreeLikeBuddy::status_print(){
 188              		.loc 1 22 35 is_stmt 1
 189              		.cfi_startproc
 190              	.LVL16:
 191 0124 130101FE 		addi	sp,sp,-32
 192              		.cfi_def_cfa_offset 32
 193 0128 233C1100 		sd	ra,24(sp)
 194 012c 23388100 		sd	s0,16(sp)
 195 0130 23349100 		sd	s1,8(sp)
 196              		.cfi_offset 1, -8
 197              		.cfi_offset 8, -16
 198              		.cfi_offset 9, -24
 199 0134 13040102 		addi	s0,sp,32
 200              		.cfi_def_cfa 8, 0
  23:src/kernel/tree_like_buddy.cpp ****     if(!buddy){
 201              		.loc 1 23 5
 202              		.loc 1 23 8 is_stmt 0
 203 0138 97070000 		lla	a5,_ZN13TreeLikeBuddy5buddyE
GAS LISTING /tmp/cclU3kOn.s 			page 5


 203      93870700 
 204 0140 83B70700 		ld	a5,0(a5)
 205              		.loc 1 23 5
 206 0144 63800710 		beq	a5,zero,.L11
 207 0148 93040500 		mv	s1,a0
  24:src/kernel/tree_like_buddy.cpp ****         kprintString("BUDDY NOT INITALIZED!!!");
  25:src/kernel/tree_like_buddy.cpp ****         return;
  26:src/kernel/tree_like_buddy.cpp ****     }
  27:src/kernel/tree_like_buddy.cpp ****     kprintString("------BUDDY STATUS PRINT------\n");
 208              		.loc 1 27 5 is_stmt 1
 209              		.loc 1 27 17 is_stmt 0
 210 014c 17050000 		lla	a0,.LC1
 210      13050500 
 211              	.LVL17:
 212 0154 97000000 		call	_Z12kprintStringPKc
 212      E7800000 
 213              	.LVL18:
  28:src/kernel/tree_like_buddy.cpp ****     KCHECKPRINT(buddy);
 214              		.loc 1 28 5 is_stmt 1
 215 015c 17050000 		lla	a0,.LC2
 215      13050500 
 216 0164 97000000 		call	_Z12kprintStringPKc
 216      E7800000 
 217              	.LVL19:
 218              		.loc 1 28 5
 219 016c 13060000 		li	a2,0
 220 0170 93050001 		li	a1,16
 221 0174 97070000 		lla	a5,_ZN13TreeLikeBuddy5buddyE
 221      93870700 
 222 017c 03B50700 		ld	a0,0(a5)
 223 0180 97000000 		call	_Z9kprintIntmib
 223      E7800000 
 224              	.LVL20:
 225              		.loc 1 28 5
 226 0188 17050000 		lla	a0,.LC3
 226      13050500 
 227 0190 97000000 		call	_Z12kprintStringPKc
 227      E7800000 
 228              	.LVL21:
  29:src/kernel/tree_like_buddy.cpp ****     KCHECKPRINT(start_address);
 229              		.loc 1 29 5
 230 0198 17050000 		lla	a0,.LC4
 230      13050500 
 231 01a0 97000000 		call	_Z12kprintStringPKc
 231      E7800000 
 232              	.LVL22:
 233              		.loc 1 29 5
 234 01a8 13060000 		li	a2,0
 235 01ac 93050001 		li	a1,16
 236 01b0 03B50400 		ld	a0,0(s1)
 237 01b4 97000000 		call	_Z9kprintIntmib
 237      E7800000 
 238              	.LVL23:
 239              		.loc 1 29 5
 240 01bc 17050000 		lla	a0,.LC3
 240      13050500 
 241 01c4 97000000 		call	_Z12kprintStringPKc
GAS LISTING /tmp/cclU3kOn.s 			page 6


 241      E7800000 
 242              	.LVL24:
  30:src/kernel/tree_like_buddy.cpp ****     KCHECKPRINT(size);
 243              		.loc 1 30 5
 244 01cc 17050000 		lla	a0,.LC5
 244      13050500 
 245 01d4 97000000 		call	_Z12kprintStringPKc
 245      E7800000 
 246              	.LVL25:
 247              		.loc 1 30 5
 248 01dc 13060000 		li	a2,0
 249 01e0 93050001 		li	a1,16
 250 01e4 03B58400 		ld	a0,8(s1)
 251 01e8 97000000 		call	_Z9kprintIntmib
 251      E7800000 
 252              	.LVL26:
 253              		.loc 1 30 5
 254 01f0 17050000 		lla	a0,.LC3
 254      13050500 
 255 01f8 97000000 		call	_Z12kprintStringPKc
 255      E7800000 
 256              	.LVL27:
  31:src/kernel/tree_like_buddy.cpp **** 
  32:src/kernel/tree_like_buddy.cpp ****     kprintString("\t------MEMORY META------\n");
 257              		.loc 1 32 5
 258              		.loc 1 32 17 is_stmt 0
 259 0200 17050000 		lla	a0,.LC6
 259      13050500 
 260 0208 97000000 		call	_Z12kprintStringPKc
 260      E7800000 
 261              	.LVL28:
  33:src/kernel/tree_like_buddy.cpp ****     /**/
  34:src/kernel/tree_like_buddy.cpp ****     kprintString("\t----END MEMORY META----\n");
 262              		.loc 1 34 5 is_stmt 1
 263              		.loc 1 34 17 is_stmt 0
 264 0210 17050000 		lla	a0,.LC7
 264      13050500 
 265 0218 97000000 		call	_Z12kprintStringPKc
 265      E7800000 
 266              	.LVL29:
  35:src/kernel/tree_like_buddy.cpp **** 
  36:src/kernel/tree_like_buddy.cpp ****     kprintString("-------END BUDDY STATUS-------\n");
 267              		.loc 1 36 5 is_stmt 1
 268              		.loc 1 36 17 is_stmt 0
 269 0220 17050000 		lla	a0,.LC8
 269      13050500 
 270 0228 97000000 		call	_Z12kprintStringPKc
 270      E7800000 
 271              	.LVL30:
 272              	.L7:
  37:src/kernel/tree_like_buddy.cpp **** 
  38:src/kernel/tree_like_buddy.cpp **** }...
 273              		.loc 1 38 1
 274 0230 83308101 		ld	ra,24(sp)
 275              		.cfi_remember_state
 276              		.cfi_restore 1
 277 0234 03340101 		ld	s0,16(sp)
GAS LISTING /tmp/cclU3kOn.s 			page 7


 278              		.cfi_restore 8
 279              		.cfi_def_cfa 2, 32
 280 0238 83348100 		ld	s1,8(sp)
 281              		.cfi_restore 9
 282 023c 13010102 		addi	sp,sp,32
 283              		.cfi_def_cfa_offset 0
 284 0240 67800000 		jr	ra
 285              	.LVL31:
 286              	.L11:
 287              		.cfi_restore_state
  24:src/kernel/tree_like_buddy.cpp ****         kprintString("BUDDY NOT INITALIZED!!!");
 288              		.loc 1 24 9 is_stmt 1
  24:src/kernel/tree_like_buddy.cpp ****         kprintString("BUDDY NOT INITALIZED!!!");
 289              		.loc 1 24 21 is_stmt 0
 290 0244 17050000 		lla	a0,.LC0
 290      13050500 
 291              	.LVL32:
 292 024c 97000000 		call	_Z12kprintStringPKc
 292      E7800000 
 293              	.LVL33:
  25:src/kernel/tree_like_buddy.cpp ****         return;
 294              		.loc 1 25 9 is_stmt 1
 295 0254 6FF0DFFD 		j	.L7
 296              		.cfi_endproc
 297              	.LFE121:
 299              		.globl	_ZN13TreeLikeBuddy18BLOCK_SIZE_BIT_LENE
 300              		.globl	_ZN13TreeLikeBuddy5buddyE
 301              		.section	.rodata.str1.8,"aMS",@progbits,1
 302              		.align	3
 303              	.LC0:
 304 0000 42554444 		.string	"BUDDY NOT INITALIZED!!!"
 304      59204E4F 
 304      5420494E 
 304      4954414C 
 304      495A4544 
 305              	.LC1:
 306 0018 2D2D2D2D 		.string	"------BUDDY STATUS PRINT------\n"
 306      2D2D4255 
 306      44445920 
 306      53544154 
 306      55532050 
 307              	.LC2:
 308 0038 62756464 		.string	"buddy: "
 308      793A2000 
 309              	.LC3:
 310 0040 0A00     		.string	"\n"
 311 0042 00000000 		.zero	6
 311      0000
 312              	.LC4:
 313 0048 73746172 		.string	"start_address: "
 313      745F6164 
 313      64726573 
 313      733A2000 
 314              	.LC5:
 315 0058 73697A65 		.string	"size: "
 315      3A2000
 316 005f 00       		.zero	1
GAS LISTING /tmp/cclU3kOn.s 			page 8


 317              	.LC6:
 318 0060 092D2D2D 		.string	"\t------MEMORY META------\n"
 318      2D2D2D4D 
 318      454D4F52 
 318      59204D45 
 318      54412D2D 
 319 007a 00000000 		.zero	6
 319      0000
 320              	.LC7:
 321 0080 092D2D2D 		.string	"\t----END MEMORY META----\n"
 321      2D454E44 
 321      204D454D 
 321      4F525920 
 321      4D455441 
 322 009a 00000000 		.zero	6
 322      0000
 323              	.LC8:
 324 00a0 2D2D2D2D 		.string	"-------END BUDDY STATUS-------\n"
 324      2D2D2D45 
 324      4E442042 
 324      55444459 
 324      20535441 
 325              		.section	.sbss,"aw",@nobits
 326              		.align	3
 329              	_ZN13TreeLikeBuddy18BLOCK_SIZE_BIT_LENE:
 330 0000 00       		.zero	1
 331 0001 00000000 		.zero	7
 331      000000
 334              	_ZN13TreeLikeBuddy5buddyE:
 335 0008 00000000 		.zero	8
 335      00000000 
 336              		.text
 337              	.Letext0:
 338              		.file 2 "src/kernel/../../h/../h/../lib/hw.h"
 339              		.file 3 "src/kernel/../../h/../h/noalloc_allocator.hpp"
 340              		.file 4 "src/kernel/../../h/kernel_lib.h"
 341              		.file 5 "src/kernel/../../h/tree_like_buddy.h"
 342              		.file 6 "src/kernel/../../h/../h/kernel_funs.h"
GAS LISTING /tmp/cclU3kOn.s 			page 9

