GAS LISTING /tmp/ccL60lXz.s 			page 1


   1              		.file	"syscall_c.cpp"
   2              		.option nopic
   3              		.option norelax
   4              		.attribute arch, "rv64i2p0_m2p0_a2p0"
   5              		.attribute unaligned_access, 0
   6              		.attribute stack_align, 16
   7              		.text
   8              	.Ltext0:
   9              		.align	2
  10              		.globl	thread_delete
  12              	thread_delete:
  13              	.LFB0:
  14              		.file 1 "src/user/syscall_c.cpp"
   1:src/user/syscall_c.cpp **** #include"../../lib/hw.h"
   2:src/user/syscall_c.cpp **** #include"../../h/_thread.h"
   3:src/user/syscall_c.cpp **** #include"../../h/_semaphore.h"
   4:src/user/syscall_c.cpp **** 
   5:src/user/syscall_c.cpp **** 
   6:src/user/syscall_c.cpp **** extern "C" int thread_delete(void* addr)
   7:src/user/syscall_c.cpp **** {
  15              		.loc 1 7 1
  16              		.cfi_startproc
  17              	.LVL0:
  18 0000 130101FF 		addi	sp,sp,-16
  19              		.cfi_def_cfa_offset 16
  20 0004 23348100 		sd	s0,8(sp)
  21              		.cfi_offset 8, -8
  22 0008 13040101 		addi	s0,sp,16
  23              		.cfi_def_cfa 8, 0
   8:src/user/syscall_c.cpp ****     int ret = 0;
  24              		.loc 1 8 5
  25              	.LVL1:
   9:src/user/syscall_c.cpp **** 
  10:src/user/syscall_c.cpp ****     asm volatile("mv a1, %0" : : "r" (addr));
  26              		.loc 1 10 5
  27              		.loc 1 10 45 is_stmt 0
  28              	 #APP
  29              	# 10 "src/user/syscall_c.cpp" 1
  11              	    asm volatile("mv a0, %0" : : "r" (0x69));
  30              		mv a1, a0
  31              	# 0 "" 2
  32              		.loc 1 11 5 is_stmt 1
  33              		.loc 1 11 45 is_stmt 0
  34              	 #NO_APP
  35 0010 93079006 		li	a5,105
  36              	 #APP
  37              	# 11 "src/user/syscall_c.cpp" 1
  12              	    asm volatile("ecall");
  38              		mv a0, a5
  39              	# 0 "" 2
  40              		.loc 1 12 5 is_stmt 1
  41              		.loc 1 12 26 is_stmt 0
  42              	# 12 "src/user/syscall_c.cpp" 1
  13              	
  14:src/user/syscall_c.cpp ****     return ret;
  43              		ecall
  44              	# 0 "" 2
GAS LISTING /tmp/ccL60lXz.s 			page 2


  45              		.loc 1 14 5 is_stmt 1
  15:src/user/syscall_c.cpp **** }
  46              		.loc 1 15 1 is_stmt 0
  47              	 #NO_APP
  48 001c 13050000 		li	a0,0
  49              	.LVL2:
  50 0020 03348100 		ld	s0,8(sp)
  51              		.cfi_restore 8
  52              		.cfi_def_cfa 2, 16
  53 0024 13010101 		addi	sp,sp,16
  54              		.cfi_def_cfa_offset 0
  55 0028 67800000 		jr	ra
  56              		.cfi_endproc
  57              	.LFE0:
  59              		.align	2
  60              		.globl	_ZN7_threaddlEPv
  62              	_ZN7_threaddlEPv:
  63              	.LFB1:
  16:src/user/syscall_c.cpp **** 
  17:src/user/syscall_c.cpp **** 
  18:src/user/syscall_c.cpp **** void _thread::operator delete(void* ptr){
  64              		.loc 1 18 41 is_stmt 1
  65              		.cfi_startproc
  66              	.LVL3:
  67 002c 130101FF 		addi	sp,sp,-16
  68              		.cfi_def_cfa_offset 16
  69 0030 23341100 		sd	ra,8(sp)
  70 0034 23308100 		sd	s0,0(sp)
  71              		.cfi_offset 1, -8
  72              		.cfi_offset 8, -16
  73 0038 13040101 		addi	s0,sp,16
  74              		.cfi_def_cfa 8, 0
  19:src/user/syscall_c.cpp ****     thread_delete(ptr);
  75              		.loc 1 19 5
  76              		.loc 1 19 18 is_stmt 0
  77 003c 97000000 		call	thread_delete
  77      E7800000 
  78              	.LVL4:
  20:src/user/syscall_c.cpp **** }
  79              		.loc 1 20 1
  80 0044 83308100 		ld	ra,8(sp)
  81              		.cfi_restore 1
  82 0048 03340100 		ld	s0,0(sp)
  83              		.cfi_restore 8
  84              		.cfi_def_cfa 2, 16
  85 004c 13010101 		addi	sp,sp,16
  86              		.cfi_def_cfa_offset 0
  87 0050 67800000 		jr	ra
  88              		.cfi_endproc
  89              	.LFE1:
  91              		.align	2
  92              		.globl	mem_alloc
  94              	mem_alloc:
  95              	.LFB2:
  21:src/user/syscall_c.cpp **** 
  22:src/user/syscall_c.cpp **** 
  23:src/user/syscall_c.cpp **** 
GAS LISTING /tmp/ccL60lXz.s 			page 3


  24:src/user/syscall_c.cpp **** extern "C" void* mem_alloc(size_t size)
  25:src/user/syscall_c.cpp **** {
  96              		.loc 1 25 1 is_stmt 1
  97              		.cfi_startproc
  98              	.LVL5:
  99 0054 130101FF 		addi	sp,sp,-16
 100              		.cfi_def_cfa_offset 16
 101 0058 23348100 		sd	s0,8(sp)
 102              		.cfi_offset 8, -8
 103 005c 13040101 		addi	s0,sp,16
 104              		.cfi_def_cfa 8, 0
  26:src/user/syscall_c.cpp ****     size_t szblcks = (size-1)/MEM_BLOCK_SIZE + 1;
 105              		.loc 1 26 5
 106              		.loc 1 26 27 is_stmt 0
 107 0060 1305F5FF 		addi	a0,a0,-1
 108              	.LVL6:
 109              		.loc 1 26 30
 110 0064 13556500 		srli	a0,a0,6
 111              	.LVL7:
 112              		.loc 1 26 12
 113 0068 13051500 		addi	a0,a0,1
 114              	.LVL8:
  27:src/user/syscall_c.cpp ****     char* adr = 0;
 115              		.loc 1 27 5 is_stmt 1
  28:src/user/syscall_c.cpp **** 
  29:src/user/syscall_c.cpp ****     __asm__ volatile("mv a1, %0" : : "r" (szblcks));
 116              		.loc 1 29 5
 117              		.loc 1 29 52 is_stmt 0
 118              	 #APP
 119              	# 29 "src/user/syscall_c.cpp" 1
  30              	    __asm__ volatile("mv a0, %0" : : "r" (0x1));
 120              		mv a1, a0
 121              	# 0 "" 2
 122              		.loc 1 30 5 is_stmt 1
 123              		.loc 1 30 48 is_stmt 0
 124              	 #NO_APP
 125 0070 93071000 		li	a5,1
 126              	 #APP
 127              	# 30 "src/user/syscall_c.cpp" 1
  31              	    __asm__ volatile("ecall");
 128              		mv a0, a5
 129              	# 0 "" 2
 130              		.loc 1 31 5 is_stmt 1
 131              		.loc 1 31 30 is_stmt 0
 132              	# 31 "src/user/syscall_c.cpp" 1
  32              	    __asm__ volatile("mv %0, a0" : "=r" (adr));
 133              		ecall
 134              	# 0 "" 2
 135              		.loc 1 32 5 is_stmt 1
 136              		.loc 1 32 47 is_stmt 0
 137              	# 32 "src/user/syscall_c.cpp" 1
  33              	    
 138              		mv a0, a0
 139              	# 0 "" 2
 140              	.LVL9:
  34:src/user/syscall_c.cpp ****     return adr;  
 141              		.loc 1 34 5 is_stmt 1
GAS LISTING /tmp/ccL60lXz.s 			page 4


  35:src/user/syscall_c.cpp **** }
 142              		.loc 1 35 1 is_stmt 0
 143              	 #NO_APP
 144 0080 03348100 		ld	s0,8(sp)
 145              		.cfi_restore 8
 146              		.cfi_def_cfa 2, 16
 147 0084 13010101 		addi	sp,sp,16
 148              		.cfi_def_cfa_offset 0
 149 0088 67800000 		jr	ra
 150              		.cfi_endproc
 151              	.LFE2:
 153              		.align	2
 154              		.globl	mem_free
 156              	mem_free:
 157              	.LFB3:
  36:src/user/syscall_c.cpp **** 
  37:src/user/syscall_c.cpp **** extern "C" int mem_free (void* adr)
  38:src/user/syscall_c.cpp **** {
 158              		.loc 1 38 1 is_stmt 1
 159              		.cfi_startproc
 160              	.LVL10:
 161 008c 130101FF 		addi	sp,sp,-16
 162              		.cfi_def_cfa_offset 16
 163 0090 23348100 		sd	s0,8(sp)
 164              		.cfi_offset 8, -8
 165 0094 13040101 		addi	s0,sp,16
 166              		.cfi_def_cfa 8, 0
  39:src/user/syscall_c.cpp ****     int ret;
 167              		.loc 1 39 5
  40:src/user/syscall_c.cpp **** 
  41:src/user/syscall_c.cpp ****     __asm__ volatile("mv a1, %0" : : "r" ((uint64)adr));
 168              		.loc 1 41 5
 169              		.loc 1 41 56 is_stmt 0
 170              	 #APP
 171              	# 41 "src/user/syscall_c.cpp" 1
  42              	    __asm__ volatile("mv a0, %0" : : "r" (0x2));
 172              		mv a1, a0
 173              	# 0 "" 2
 174              		.loc 1 42 5 is_stmt 1
 175              		.loc 1 42 48 is_stmt 0
 176              	 #NO_APP
 177 009c 93072000 		li	a5,2
 178              	 #APP
 179              	# 42 "src/user/syscall_c.cpp" 1
  43              	    __asm__ volatile("ecall");
 180              		mv a0, a5
 181              	# 0 "" 2
 182              		.loc 1 43 5 is_stmt 1
 183              		.loc 1 43 30 is_stmt 0
 184              	# 43 "src/user/syscall_c.cpp" 1
  44              	    __asm__ volatile("mv %0, a0" : "=r" (ret));
 185              		ecall
 186              	# 0 "" 2
 187              		.loc 1 44 5 is_stmt 1
 188              		.loc 1 44 47 is_stmt 0
 189              	# 44 "src/user/syscall_c.cpp" 1
  45              	    
GAS LISTING /tmp/ccL60lXz.s 			page 5


 190              		mv a0, a0
 191              	# 0 "" 2
 192              	.LVL11:
  46:src/user/syscall_c.cpp ****     return ret;
 193              		.loc 1 46 5 is_stmt 1
  47:src/user/syscall_c.cpp **** }
 194              		.loc 1 47 1 is_stmt 0
 195              	 #NO_APP
 196 00ac 1B050500 		sext.w	a0,a0
 197 00b0 03348100 		ld	s0,8(sp)
 198              		.cfi_restore 8
 199              		.cfi_def_cfa 2, 16
 200 00b4 13010101 		addi	sp,sp,16
 201              		.cfi_def_cfa_offset 0
 202 00b8 67800000 		jr	ra
 203              		.cfi_endproc
 204              	.LFE3:
 206              		.align	2
 207              		.globl	thread_dispatch
 209              	thread_dispatch:
 210              	.LFB4:
  48:src/user/syscall_c.cpp **** 
  49:src/user/syscall_c.cpp **** extern "C" void thread_dispatch()
  50:src/user/syscall_c.cpp **** {
 211              		.loc 1 50 1 is_stmt 1
 212              		.cfi_startproc
 213 00bc 130101FF 		addi	sp,sp,-16
 214              		.cfi_def_cfa_offset 16
 215 00c0 23348100 		sd	s0,8(sp)
 216              		.cfi_offset 8, -8
 217 00c4 13040101 		addi	s0,sp,16
 218              		.cfi_def_cfa 8, 0
  51:src/user/syscall_c.cpp ****     __asm__ volatile("mv a0, %0" : : "r" (0x13));
 219              		.loc 1 51 5
 220              		.loc 1 51 49 is_stmt 0
 221 00c8 93073001 		li	a5,19
 222              	 #APP
 223              	# 51 "src/user/syscall_c.cpp" 1
  52              	    __asm__ volatile("ecall");
 224              		mv a0, a5
 225              	# 0 "" 2
 226              		.loc 1 52 5 is_stmt 1
 227              		.loc 1 52 30 is_stmt 0
 228              	# 52 "src/user/syscall_c.cpp" 1
  53              	}
 229              		ecall
 230              	# 0 "" 2
 231              		.loc 1 53 1
 232              	 #NO_APP
 233 00d4 03348100 		ld	s0,8(sp)
 234              		.cfi_restore 8
 235              		.cfi_def_cfa 2, 16
 236 00d8 13010101 		addi	sp,sp,16
 237              		.cfi_def_cfa_offset 0
 238 00dc 67800000 		jr	ra
 239              		.cfi_endproc
 240              	.LFE4:
GAS LISTING /tmp/ccL60lXz.s 			page 6


 242              		.align	2
 243              		.globl	thread_create
 245              	thread_create:
 246              	.LFB5:
  54:src/user/syscall_c.cpp **** 
  55:src/user/syscall_c.cpp **** extern "C" int thread_create(thread_t* handle, 
  56:src/user/syscall_c.cpp ****     void(*start_routine)(void*), void* arg)
  57:src/user/syscall_c.cpp **** {
 247              		.loc 1 57 1 is_stmt 1
 248              		.cfi_startproc
 249              	.LVL12:
  58:src/user/syscall_c.cpp ****    
  59:src/user/syscall_c.cpp ****     if(handle == nullptr) return -1;
 250              		.loc 1 59 5
 251 00e0 630E0506 		beq	a0,zero,.L13
  60:src/user/syscall_c.cpp ****     if(start_routine == nullptr) return -2;
 252              		.loc 1 60 5
 253 00e4 63800508 		beq	a1,zero,.L14
  57:src/user/syscall_c.cpp ****    
 254              		.loc 1 57 1 is_stmt 0
 255 00e8 130101FD 		addi	sp,sp,-48
 256              		.cfi_def_cfa_offset 48
 257 00ec 23341102 		sd	ra,40(sp)
 258 00f0 23308102 		sd	s0,32(sp)
 259 00f4 233C9100 		sd	s1,24(sp)
 260 00f8 23382101 		sd	s2,16(sp)
 261 00fc 23343101 		sd	s3,8(sp)
 262              		.cfi_offset 1, -8
 263              		.cfi_offset 8, -16
 264              		.cfi_offset 9, -24
 265              		.cfi_offset 18, -32
 266              		.cfi_offset 19, -40
 267 0100 13040103 		addi	s0,sp,48
 268              		.cfi_def_cfa 8, 0
 269 0104 93090600 		mv	s3,a2
 270 0108 13890500 		mv	s2,a1
 271 010c 93040500 		mv	s1,a0
  61:src/user/syscall_c.cpp **** 
  62:src/user/syscall_c.cpp ****     void* stack_space = mem_alloc(DEFAULT_STACK_SIZE);
 272              		.loc 1 62 5 is_stmt 1
 273              		.loc 1 62 34 is_stmt 0
 274 0110 37150000 		li	a0,4096
 275              	.LVL13:
 276 0114 97000000 		call	mem_alloc
 276      E7800000 
 277              	.LVL14:
  63:src/user/syscall_c.cpp ****     if(stack_space == nullptr) return -3;
 278              		.loc 1 63 5 is_stmt 1
 279 011c 63080504 		beq	a0,zero,.L15
  64:src/user/syscall_c.cpp ****     //print("stack_space:", (uint64)stack_space, 0);
  65:src/user/syscall_c.cpp **** 
  66:src/user/syscall_c.cpp ****     int ret = 0;
 280              		.loc 1 66 5
 281              	.LVL15:
  67:src/user/syscall_c.cpp **** 
  68:src/user/syscall_c.cpp ****     asm volatile("mv a4, %0" : : "r" ((uint64)stack_space));
 282              		.loc 1 68 5
GAS LISTING /tmp/ccL60lXz.s 			page 7


 283              		.loc 1 68 60 is_stmt 0
 284              	 #APP
 285              	# 68 "src/user/syscall_c.cpp" 1
  69              	    asm volatile("mv a3, %0" : : "r" ((uint64)arg));
 286              		mv a4, a0
 287              	# 0 "" 2
 288              		.loc 1 69 5 is_stmt 1
 289              		.loc 1 69 52 is_stmt 0
 290              	# 69 "src/user/syscall_c.cpp" 1
  70              	    asm volatile("mv a2, %0" : : "r" ((uint64)start_routine));
 291              		mv a3, s3
 292              	# 0 "" 2
 293              		.loc 1 70 5 is_stmt 1
 294              		.loc 1 70 62 is_stmt 0
 295              	# 70 "src/user/syscall_c.cpp" 1
  71              	    asm volatile("mv a1, %0" : : "r" ((uint64)handle));
 296              		mv a2, s2
 297              	# 0 "" 2
 298              		.loc 1 71 5 is_stmt 1
 299              		.loc 1 71 55 is_stmt 0
 300              	# 71 "src/user/syscall_c.cpp" 1
  72              	    asm volatile("li a0, 0x11");
 301              		mv a1, s1
 302              	# 0 "" 2
 303              		.loc 1 72 5 is_stmt 1
 304              		.loc 1 72 32 is_stmt 0
 305              	# 72 "src/user/syscall_c.cpp" 1
  73              	    
  74:src/user/syscall_c.cpp ****     asm volatile("ecall");   
 306              		li a0, 0x11
 307              	# 0 "" 2
 308              		.loc 1 74 5 is_stmt 1
 309              		.loc 1 74 26 is_stmt 0
 310              	# 74 "src/user/syscall_c.cpp" 1
  75              	
  76:src/user/syscall_c.cpp ****     asm volatile("mv %0, a0" : "=r" (ret));
 311              		ecall
 312              	# 0 "" 2
 313              		.loc 1 76 5 is_stmt 1
 314              		.loc 1 76 43 is_stmt 0
 315              	# 76 "src/user/syscall_c.cpp" 1
  77              	    return ret;
 316              		mv a0, a0
 317              	# 0 "" 2
 318              	.LVL16:
 319              	 #NO_APP
 320 013c 1B050500 		sext.w	a0,a0
 321              	.LVL17:
 322              		.loc 1 77 5 is_stmt 1
 323              	.L12:
  78:src/user/syscall_c.cpp **** }
 324              		.loc 1 78 1 is_stmt 0
 325 0140 83308102 		ld	ra,40(sp)
 326              		.cfi_restore 1
 327 0144 03340102 		ld	s0,32(sp)
 328              		.cfi_restore 8
 329              		.cfi_def_cfa 2, 48
GAS LISTING /tmp/ccL60lXz.s 			page 8


 330 0148 83348101 		ld	s1,24(sp)
 331              		.cfi_restore 9
 332              	.LVL18:
 333 014c 03390101 		ld	s2,16(sp)
 334              		.cfi_restore 18
 335              	.LVL19:
 336 0150 83398100 		ld	s3,8(sp)
 337              		.cfi_restore 19
 338              	.LVL20:
 339 0154 13010103 		addi	sp,sp,48
 340              		.cfi_def_cfa_offset 0
 341 0158 67800000 		jr	ra
 342              	.LVL21:
 343              	.L13:
  59:src/user/syscall_c.cpp ****     if(start_routine == nullptr) return -2;
 344              		.loc 1 59 35
 345 015c 1305F0FF 		li	a0,-1
 346              	.LVL22:
 347 0160 67800000 		ret
 348              	.LVL23:
 349              	.L14:
  60:src/user/syscall_c.cpp **** 
 350              		.loc 1 60 42
 351 0164 1305E0FF 		li	a0,-2
 352              	.LVL24:
 353              		.loc 1 78 1
 354 0168 67800000 		ret
 355              	.LVL25:
 356              	.L15:
 357              		.cfi_def_cfa_register 8
 358              		.cfi_offset 1, -8
 359              		.cfi_offset 8, -16
 360              		.cfi_offset 9, -24
 361              		.cfi_offset 18, -32
 362              		.cfi_offset 19, -40
  63:src/user/syscall_c.cpp ****     //print("stack_space:", (uint64)stack_space, 0);
 363              		.loc 1 63 40
 364 016c 1305D0FF 		li	a0,-3
 365              	.LVL26:
 366 0170 6FF01FFD 		j	.L12
 367              		.cfi_endproc
 368              	.LFE5:
 370              		.align	2
 371              		.globl	thread_exit
 373              	thread_exit:
 374              	.LFB6:
  79:src/user/syscall_c.cpp **** 
  80:src/user/syscall_c.cpp **** extern "C" int thread_exit()
  81:src/user/syscall_c.cpp **** {
 375              		.loc 1 81 1 is_stmt 1
 376              		.cfi_startproc
 377 0174 130101FF 		addi	sp,sp,-16
 378              		.cfi_def_cfa_offset 16
 379 0178 23348100 		sd	s0,8(sp)
 380              		.cfi_offset 8, -8
 381 017c 13040101 		addi	s0,sp,16
 382              		.cfi_def_cfa 8, 0
GAS LISTING /tmp/ccL60lXz.s 			page 9


  82:src/user/syscall_c.cpp ****     int ret = 0;
 383              		.loc 1 82 5
 384              	.LVL27:
  83:src/user/syscall_c.cpp **** 
  84:src/user/syscall_c.cpp ****     asm volatile("li a0, 0x12");
 385              		.loc 1 84 5
 386              		.loc 1 84 32 is_stmt 0
 387              	 #APP
 388              	# 84 "src/user/syscall_c.cpp" 1
  85              	    asm volatile("ecall");
 389              		li a0, 0x12
 390              	# 0 "" 2
 391              		.loc 1 85 5 is_stmt 1
 392              		.loc 1 85 26 is_stmt 0
 393              	# 85 "src/user/syscall_c.cpp" 1
  86              	
  87:src/user/syscall_c.cpp ****     return ret;
 394              		ecall
 395              	# 0 "" 2
 396              		.loc 1 87 5 is_stmt 1
  88:src/user/syscall_c.cpp **** }
 397              		.loc 1 88 1 is_stmt 0
 398              	 #NO_APP
 399 0188 13050000 		li	a0,0
 400 018c 03348100 		ld	s0,8(sp)
 401              		.cfi_restore 8
 402              		.cfi_def_cfa 2, 16
 403 0190 13010101 		addi	sp,sp,16
 404              		.cfi_def_cfa_offset 0
 405 0194 67800000 		jr	ra
 406              		.cfi_endproc
 407              	.LFE6:
 409              		.align	2
 410              		.globl	sem_open
 412              	sem_open:
 413              	.LFB7:
  89:src/user/syscall_c.cpp **** 
  90:src/user/syscall_c.cpp **** 
  91:src/user/syscall_c.cpp **** 
  92:src/user/syscall_c.cpp **** extern "C" int sem_open(sem_t* handle, unsigned val)
  93:src/user/syscall_c.cpp **** {
 414              		.loc 1 93 1 is_stmt 1
 415              		.cfi_startproc
 416              	.LVL28:
 417 0198 130101FF 		addi	sp,sp,-16
 418              		.cfi_def_cfa_offset 16
 419 019c 23348100 		sd	s0,8(sp)
 420              		.cfi_offset 8, -8
 421 01a0 13040101 		addi	s0,sp,16
 422              		.cfi_def_cfa 8, 0
  94:src/user/syscall_c.cpp ****     int ret = 0;
 423              		.loc 1 94 5
 424              	.LVL29:
  95:src/user/syscall_c.cpp ****     if(handle == nullptr) return -1;
 425              		.loc 1 95 5
 426 01a4 63040502 		beq	a0,zero,.L24
  96:src/user/syscall_c.cpp **** 
GAS LISTING /tmp/ccL60lXz.s 			page 10


  97:src/user/syscall_c.cpp ****     asm volatile("mv a2, %0" : : "r" (val));
 427              		.loc 1 97 5
 428              		.loc 1 97 44 is_stmt 0
 429              	 #APP
 430              	# 97 "src/user/syscall_c.cpp" 1
  98              	    asm volatile("mv a1, %0" : : "r" (handle));
 431              		mv a2, a1
 432              	# 0 "" 2
 433              		.loc 1 98 5 is_stmt 1
 434              		.loc 1 98 47 is_stmt 0
 435              	# 98 "src/user/syscall_c.cpp" 1
  99              	    asm volatile("li a0, 0x21");
 436              		mv a1, a0
 437              	# 0 "" 2
 438              		.loc 1 99 5 is_stmt 1
 439              		.loc 1 99 32 is_stmt 0
 440              	# 99 "src/user/syscall_c.cpp" 1
 100              	    asm volatile("ecall");
 441              		li a0, 0x21
 442              	# 0 "" 2
 443              		.loc 1 100 5 is_stmt 1
 444              		.loc 1 100 26 is_stmt 0
 445              	# 100 "src/user/syscall_c.cpp" 1
 101              	
 102:src/user/syscall_c.cpp ****     asm volatile("mv %0, a0" : "=r" (ret));
 446              		ecall
 447              	# 0 "" 2
 448              		.loc 1 102 5 is_stmt 1
 449              		.loc 1 102 43 is_stmt 0
 450              	# 102 "src/user/syscall_c.cpp" 1
 103              	    return ret;
 451              		mv a0, a0
 452              	# 0 "" 2
 453              	.LVL30:
 454              	 #NO_APP
 455 01bc 1B050500 		sext.w	a0,a0
 456              	.LVL31:
 457              		.loc 1 103 5 is_stmt 1
 458              	.L23:
 104:src/user/syscall_c.cpp **** }
 459              		.loc 1 104 1 is_stmt 0
 460 01c0 03348100 		ld	s0,8(sp)
 461              		.cfi_remember_state
 462              		.cfi_restore 8
 463              		.cfi_def_cfa 2, 16
 464 01c4 13010101 		addi	sp,sp,16
 465              		.cfi_def_cfa_offset 0
 466 01c8 67800000 		jr	ra
 467              	.LVL32:
 468              	.L24:
 469              		.cfi_restore_state
  95:src/user/syscall_c.cpp **** 
 470              		.loc 1 95 35
 471 01cc 1305F0FF 		li	a0,-1
 472              	.LVL33:
 473 01d0 6FF01FFF 		j	.L23
 474              		.cfi_endproc
GAS LISTING /tmp/ccL60lXz.s 			page 11


 475              	.LFE7:
 477              		.align	2
 478              		.globl	sem_close
 480              	sem_close:
 481              	.LFB8:
 105:src/user/syscall_c.cpp **** 
 106:src/user/syscall_c.cpp **** extern "C" int sem_close(sem_t handle)
 107:src/user/syscall_c.cpp **** {
 482              		.loc 1 107 1 is_stmt 1
 483              		.cfi_startproc
 484              	.LVL34:
 485 01d4 130101FF 		addi	sp,sp,-16
 486              		.cfi_def_cfa_offset 16
 487 01d8 23348100 		sd	s0,8(sp)
 488              		.cfi_offset 8, -8
 489 01dc 13040101 		addi	s0,sp,16
 490              		.cfi_def_cfa 8, 0
 108:src/user/syscall_c.cpp ****     int ret = 0;
 491              		.loc 1 108 5
 492              	.LVL35:
 109:src/user/syscall_c.cpp ****     if(handle == nullptr) return -1;
 493              		.loc 1 109 5
 494 01e0 63020502 		beq	a0,zero,.L28
 110:src/user/syscall_c.cpp **** 
 111:src/user/syscall_c.cpp ****     asm volatile("mv a1, %0" : : "r" (handle));
 495              		.loc 1 111 5
 496              		.loc 1 111 47 is_stmt 0
 497              	 #APP
 498              	# 111 "src/user/syscall_c.cpp" 1
 112              	    asm volatile("li a0, 0x22");
 499              		mv a1, a0
 500              	# 0 "" 2
 501              		.loc 1 112 5 is_stmt 1
 502              		.loc 1 112 32 is_stmt 0
 503              	# 112 "src/user/syscall_c.cpp" 1
 113              	    asm volatile("ecall");
 504              		li a0, 0x22
 505              	# 0 "" 2
 506              		.loc 1 113 5 is_stmt 1
 507              		.loc 1 113 26 is_stmt 0
 508              	# 113 "src/user/syscall_c.cpp" 1
 114              	
 115:src/user/syscall_c.cpp ****     asm volatile("mv %0, a0" : "=r" (ret));
 509              		ecall
 510              	# 0 "" 2
 511              		.loc 1 115 5 is_stmt 1
 512              		.loc 1 115 43 is_stmt 0
 513              	# 115 "src/user/syscall_c.cpp" 1
 116              	    return ret;
 514              		mv a0, a0
 515              	# 0 "" 2
 516              	.LVL36:
 517              	 #NO_APP
 518 01f4 1B050500 		sext.w	a0,a0
 519              	.LVL37:
 520              		.loc 1 116 5 is_stmt 1
 521              	.L27:
GAS LISTING /tmp/ccL60lXz.s 			page 12


 117:src/user/syscall_c.cpp **** }
 522              		.loc 1 117 1 is_stmt 0
 523 01f8 03348100 		ld	s0,8(sp)
 524              		.cfi_remember_state
 525              		.cfi_restore 8
 526              		.cfi_def_cfa 2, 16
 527 01fc 13010101 		addi	sp,sp,16
 528              		.cfi_def_cfa_offset 0
 529 0200 67800000 		jr	ra
 530              	.LVL38:
 531              	.L28:
 532              		.cfi_restore_state
 109:src/user/syscall_c.cpp **** 
 533              		.loc 1 109 35
 534 0204 1305F0FF 		li	a0,-1
 535              	.LVL39:
 536 0208 6FF01FFF 		j	.L27
 537              		.cfi_endproc
 538              	.LFE8:
 540              		.align	2
 541              		.globl	sem_wait
 543              	sem_wait:
 544              	.LFB9:
 118:src/user/syscall_c.cpp **** 
 119:src/user/syscall_c.cpp **** extern "C" int sem_wait(sem_t id)
 120:src/user/syscall_c.cpp **** {
 545              		.loc 1 120 1 is_stmt 1
 546              		.cfi_startproc
 547              	.LVL40:
 548 020c 130101FF 		addi	sp,sp,-16
 549              		.cfi_def_cfa_offset 16
 550 0210 23348100 		sd	s0,8(sp)
 551              		.cfi_offset 8, -8
 552 0214 13040101 		addi	s0,sp,16
 553              		.cfi_def_cfa 8, 0
 121:src/user/syscall_c.cpp ****     int ret = 0;
 554              		.loc 1 121 5
 555              	.LVL41:
 122:src/user/syscall_c.cpp ****     if(id == nullptr) return -1;
 556              		.loc 1 122 5
 557 0218 63020502 		beq	a0,zero,.L32
 123:src/user/syscall_c.cpp ****     
 124:src/user/syscall_c.cpp ****     asm volatile("mv a1, %0" : : "r" (id));
 558              		.loc 1 124 5
 559              		.loc 1 124 43 is_stmt 0
 560              	 #APP
 561              	# 124 "src/user/syscall_c.cpp" 1
 125              	    asm volatile("li a0, 0x23");
 562              		mv a1, a0
 563              	# 0 "" 2
 564              		.loc 1 125 5 is_stmt 1
 565              		.loc 1 125 32 is_stmt 0
 566              	# 125 "src/user/syscall_c.cpp" 1
 126              	    asm volatile("ecall");
 567              		li a0, 0x23
 568              	# 0 "" 2
 569              		.loc 1 126 5 is_stmt 1
GAS LISTING /tmp/ccL60lXz.s 			page 13


 570              		.loc 1 126 26 is_stmt 0
 571              	# 126 "src/user/syscall_c.cpp" 1
 127              	
 128:src/user/syscall_c.cpp ****     asm volatile("mv %0, a0" : "=r" (ret));
 572              		ecall
 573              	# 0 "" 2
 574              		.loc 1 128 5 is_stmt 1
 575              		.loc 1 128 43 is_stmt 0
 576              	# 128 "src/user/syscall_c.cpp" 1
 129              	    return ret;
 577              		mv a0, a0
 578              	# 0 "" 2
 579              	.LVL42:
 580              	 #NO_APP
 581 022c 1B050500 		sext.w	a0,a0
 582              	.LVL43:
 583              		.loc 1 129 5 is_stmt 1
 584              	.L31:
 130:src/user/syscall_c.cpp **** }
 585              		.loc 1 130 1 is_stmt 0
 586 0230 03348100 		ld	s0,8(sp)
 587              		.cfi_remember_state
 588              		.cfi_restore 8
 589              		.cfi_def_cfa 2, 16
 590 0234 13010101 		addi	sp,sp,16
 591              		.cfi_def_cfa_offset 0
 592 0238 67800000 		jr	ra
 593              	.LVL44:
 594              	.L32:
 595              		.cfi_restore_state
 122:src/user/syscall_c.cpp ****     
 596              		.loc 1 122 31
 597 023c 1305F0FF 		li	a0,-1
 598              	.LVL45:
 599 0240 6FF01FFF 		j	.L31
 600              		.cfi_endproc
 601              	.LFE9:
 603              		.align	2
 604              		.globl	sem_signal
 606              	sem_signal:
 607              	.LFB10:
 131:src/user/syscall_c.cpp **** 
 132:src/user/syscall_c.cpp **** extern "C" int sem_signal(sem_t id)
 133:src/user/syscall_c.cpp **** {
 608              		.loc 1 133 1 is_stmt 1
 609              		.cfi_startproc
 610              	.LVL46:
 611 0244 130101FF 		addi	sp,sp,-16
 612              		.cfi_def_cfa_offset 16
 613 0248 23348100 		sd	s0,8(sp)
 614              		.cfi_offset 8, -8
 615 024c 13040101 		addi	s0,sp,16
 616              		.cfi_def_cfa 8, 0
 134:src/user/syscall_c.cpp ****     int ret = 0;
 617              		.loc 1 134 5
 618              	.LVL47:
 135:src/user/syscall_c.cpp ****     if(id == nullptr) return -1;
GAS LISTING /tmp/ccL60lXz.s 			page 14


 619              		.loc 1 135 5
 620 0250 63020502 		beq	a0,zero,.L36
 136:src/user/syscall_c.cpp **** 
 137:src/user/syscall_c.cpp ****     asm volatile("mv a1, %0" : :"r"(id));
 621              		.loc 1 137 5
 622              		.loc 1 137 41 is_stmt 0
 623              	 #APP
 624              	# 137 "src/user/syscall_c.cpp" 1
 138              	    asm volatile("li a0, 0x24");
 625              		mv a1, a0
 626              	# 0 "" 2
 627              		.loc 1 138 5 is_stmt 1
 628              		.loc 1 138 32 is_stmt 0
 629              	# 138 "src/user/syscall_c.cpp" 1
 139              	    asm volatile("ecall");
 630              		li a0, 0x24
 631              	# 0 "" 2
 632              		.loc 1 139 5 is_stmt 1
 633              		.loc 1 139 26 is_stmt 0
 634              	# 139 "src/user/syscall_c.cpp" 1
 140              	
 141:src/user/syscall_c.cpp ****     asm volatile("mv %0, a0" : "=r" (ret));
 635              		ecall
 636              	# 0 "" 2
 637              		.loc 1 141 5 is_stmt 1
 638              		.loc 1 141 43 is_stmt 0
 639              	# 141 "src/user/syscall_c.cpp" 1
 142              	    return ret;
 640              		mv a0, a0
 641              	# 0 "" 2
 642              	.LVL48:
 643              	 #NO_APP
 644 0264 1B050500 		sext.w	a0,a0
 645              	.LVL49:
 646              		.loc 1 142 5 is_stmt 1
 647              	.L35:
 143:src/user/syscall_c.cpp **** }
 648              		.loc 1 143 1 is_stmt 0
 649 0268 03348100 		ld	s0,8(sp)
 650              		.cfi_remember_state
 651              		.cfi_restore 8
 652              		.cfi_def_cfa 2, 16
 653 026c 13010101 		addi	sp,sp,16
 654              		.cfi_def_cfa_offset 0
 655 0270 67800000 		jr	ra
 656              	.LVL50:
 657              	.L36:
 658              		.cfi_restore_state
 135:src/user/syscall_c.cpp **** 
 659              		.loc 1 135 31
 660 0274 1305F0FF 		li	a0,-1
 661              	.LVL51:
 662 0278 6FF01FFF 		j	.L35
 663              		.cfi_endproc
 664              	.LFE10:
 666              		.align	2
 667              		.globl	time_sleep
GAS LISTING /tmp/ccL60lXz.s 			page 15


 669              	time_sleep:
 670              	.LFB11:
 144:src/user/syscall_c.cpp **** 
 145:src/user/syscall_c.cpp **** extern "C" int time_sleep(time_t time){
 671              		.loc 1 145 39 is_stmt 1
 672              		.cfi_startproc
 673              	.LVL52:
 674 027c 130101FF 		addi	sp,sp,-16
 675              		.cfi_def_cfa_offset 16
 676 0280 23348100 		sd	s0,8(sp)
 677              		.cfi_offset 8, -8
 678 0284 13040101 		addi	s0,sp,16
 679              		.cfi_def_cfa 8, 0
 146:src/user/syscall_c.cpp ****     int ret = 0;
 680              		.loc 1 146 5
 681              	.LVL53:
 147:src/user/syscall_c.cpp ****     if(time == 0) return -1;
 682              		.loc 1 147 5
 683 0288 63020502 		beq	a0,zero,.L40
 148:src/user/syscall_c.cpp **** 
 149:src/user/syscall_c.cpp ****     asm volatile("mv a1, %0" : :"r"(time));
 684              		.loc 1 149 5
 685              		.loc 1 149 43 is_stmt 0
 686              	 #APP
 687              	# 149 "src/user/syscall_c.cpp" 1
 150              	    asm volatile("li a0, 0x31");
 688              		mv a1, a0
 689              	# 0 "" 2
 690              		.loc 1 150 5 is_stmt 1
 691              		.loc 1 150 32 is_stmt 0
 692              	# 150 "src/user/syscall_c.cpp" 1
 151              	    asm volatile("ecall");
 693              		li a0, 0x31
 694              	# 0 "" 2
 695              		.loc 1 151 5 is_stmt 1
 696              		.loc 1 151 26 is_stmt 0
 697              	# 151 "src/user/syscall_c.cpp" 1
 152              	
 153:src/user/syscall_c.cpp ****     asm volatile("mv %0, a0" : "=r" (ret));
 698              		ecall
 699              	# 0 "" 2
 700              		.loc 1 153 5 is_stmt 1
 701              		.loc 1 153 43 is_stmt 0
 702              	# 153 "src/user/syscall_c.cpp" 1
 154              	    return ret;
 703              		mv a0, a0
 704              	# 0 "" 2
 705              	.LVL54:
 706              	 #NO_APP
 707 029c 1B050500 		sext.w	a0,a0
 708              	.LVL55:
 709              		.loc 1 154 5 is_stmt 1
 710              	.L39:
 155:src/user/syscall_c.cpp **** }
 711              		.loc 1 155 1 is_stmt 0
 712 02a0 03348100 		ld	s0,8(sp)
 713              		.cfi_remember_state
GAS LISTING /tmp/ccL60lXz.s 			page 16


 714              		.cfi_restore 8
 715              		.cfi_def_cfa 2, 16
 716 02a4 13010101 		addi	sp,sp,16
 717              		.cfi_def_cfa_offset 0
 718 02a8 67800000 		jr	ra
 719              	.LVL56:
 720              	.L40:
 721              		.cfi_restore_state
 147:src/user/syscall_c.cpp **** 
 722              		.loc 1 147 27
 723 02ac 1305F0FF 		li	a0,-1
 724              	.LVL57:
 725 02b0 6FF01FFF 		j	.L39
 726              		.cfi_endproc
 727              	.LFE11:
 729              		.align	2
 730              		.globl	getc
 732              	getc:
 733              	.LFB12:
 156:src/user/syscall_c.cpp **** 
 157:src/user/syscall_c.cpp **** const int EOF = -1;
 158:src/user/syscall_c.cpp **** extern "C" char getc(){
 734              		.loc 1 158 23 is_stmt 1
 735              		.cfi_startproc
 736 02b4 130101FF 		addi	sp,sp,-16
 737              		.cfi_def_cfa_offset 16
 738 02b8 23348100 		sd	s0,8(sp)
 739              		.cfi_offset 8, -8
 740 02bc 13040101 		addi	s0,sp,16
 741              		.cfi_def_cfa 8, 0
 159:src/user/syscall_c.cpp ****     unsigned ret;
 742              		.loc 1 159 5
 160:src/user/syscall_c.cpp **** 
 161:src/user/syscall_c.cpp ****     asm volatile("li a0, 0x41");
 743              		.loc 1 161 5
 744              		.loc 1 161 32 is_stmt 0
 745              	 #APP
 746              	# 161 "src/user/syscall_c.cpp" 1
 162              	    asm volatile("ecall");
 747              		li a0, 0x41
 748              	# 0 "" 2
 749              		.loc 1 162 5 is_stmt 1
 750              		.loc 1 162 26 is_stmt 0
 751              	# 162 "src/user/syscall_c.cpp" 1
 163              	
 164:src/user/syscall_c.cpp ****     asm volatile("mv %0, a0" : "=r" (ret));
 752              		ecall
 753              	# 0 "" 2
 754              		.loc 1 164 5 is_stmt 1
 755              		.loc 1 164 43 is_stmt 0
 756              	# 164 "src/user/syscall_c.cpp" 1
 165              	    if(ret < 256) return ret;
 757              		mv a0, a0
 758              	# 0 "" 2
 759              	 #NO_APP
 760 02cc 1B050500 		sext.w	a0,a0
 761              	.LVL58:
GAS LISTING /tmp/ccL60lXz.s 			page 17


 762              		.loc 1 165 5 is_stmt 1
 763 02d0 9307F00F 		li	a5,255
 764 02d4 63EAA700 		bgtu	a0,a5,.L44
 765              		.loc 1 165 19 discriminator 1
 766              		.loc 1 165 26 is_stmt 0 discriminator 1
 767 02d8 1375F50F 		andi	a0,a0,0xff
 768              	.LVL59:
 769              	.L43:
 166:src/user/syscall_c.cpp ****     else return EOF;
 167:src/user/syscall_c.cpp **** }
 770              		.loc 1 167 1
 771 02dc 03348100 		ld	s0,8(sp)
 772              		.cfi_remember_state
 773              		.cfi_restore 8
 774              		.cfi_def_cfa 2, 16
 775 02e0 13010101 		addi	sp,sp,16
 776              		.cfi_def_cfa_offset 0
 777 02e4 67800000 		jr	ra
 778              	.LVL60:
 779              	.L44:
 780              		.cfi_restore_state
 166:src/user/syscall_c.cpp ****     else return EOF;
 781              		.loc 1 166 17
 782 02e8 1305F00F 		li	a0,255
 783              	.LVL61:
 784 02ec 6FF01FFF 		j	.L43
 785              		.cfi_endproc
 786              	.LFE12:
 788              		.align	2
 789              		.globl	putc
 791              	putc:
 792              	.LFB13:
 168:src/user/syscall_c.cpp **** 
 169:src/user/syscall_c.cpp **** extern "C" void putc(char c){
 793              		.loc 1 169 29 is_stmt 1
 794              		.cfi_startproc
 795              	.LVL62:
 796 02f0 130101FF 		addi	sp,sp,-16
 797              		.cfi_def_cfa_offset 16
 798 02f4 23348100 		sd	s0,8(sp)
 799              		.cfi_offset 8, -8
 800 02f8 13040101 		addi	s0,sp,16
 801              		.cfi_def_cfa 8, 0
 170:src/user/syscall_c.cpp ****     asm volatile("mv a1, a0");
 802              		.loc 1 170 5
 803              		.loc 1 170 30 is_stmt 0
 804              	 #APP
 805              	# 170 "src/user/syscall_c.cpp" 1
 171              	    asm volatile("li a0, 0x42");
 806              		mv a1, a0
 807              	# 0 "" 2
 808              		.loc 1 171 5 is_stmt 1
 809              		.loc 1 171 32 is_stmt 0
 810              	# 171 "src/user/syscall_c.cpp" 1
 172              	    asm volatile("ecall");
 811              		li a0, 0x42
 812              	# 0 "" 2
GAS LISTING /tmp/ccL60lXz.s 			page 18


 813              		.loc 1 172 5 is_stmt 1
 814              		.loc 1 172 26 is_stmt 0
 815              	# 172 "src/user/syscall_c.cpp" 1
 173              	}...
 816              		ecall
 817              	# 0 "" 2
 818              		.loc 1 173 1
 819              	 #NO_APP
 820 0308 03348100 		ld	s0,8(sp)
 821              		.cfi_restore 8
 822              		.cfi_def_cfa 2, 16
 823 030c 13010101 		addi	sp,sp,16
 824              		.cfi_def_cfa_offset 0
 825 0310 67800000 		jr	ra
 826              		.cfi_endproc
 827              	.LFE13:
 829              	.Letext0:
 830              		.file 2 "src/user/../../lib/hw.h"
 831              		.file 3 "src/user/../../h/_thread.h"
 832              		.file 4 "src/user/../../h/_semaphore.h"
GAS LISTING /tmp/ccL60lXz.s 			page 19


DEFINED SYMBOLS
                            *ABS*:0000000000000000 syscall_c.cpp
     /tmp/ccL60lXz.s:12     .text:0000000000000000 thread_delete
     /tmp/ccL60lXz.s:16     .text:0000000000000000 .L0 
     /tmp/ccL60lXz.s:18     .text:0000000000000000 .L0 
     /tmp/ccL60lXz.s:19     .text:0000000000000004 .L0 
     /tmp/ccL60lXz.s:21     .text:0000000000000008 .L0 
     /tmp/ccL60lXz.s:23     .text:000000000000000c .L0 
     /tmp/ccL60lXz.s:26     .text:000000000000000c .L0 
     /tmp/ccL60lXz.s:27     .text:000000000000000c .L0 
src/user/syscall_c.cpp:10     .text:000000000000000c .L0 
     /tmp/ccL60lXz.s:33     .text:0000000000000010 .L0 
     /tmp/ccL60lXz.s:35     .text:0000000000000010 .L0 
     /tmp/ccL60lXz.s:41     .text:0000000000000018 .L0 
src/user/syscall_c.cpp:12     .text:0000000000000018 .L0 
     /tmp/ccL60lXz.s:46     .text:000000000000001c .L0 
     /tmp/ccL60lXz.s:48     .text:000000000000001c .L0 
     /tmp/ccL60lXz.s:51     .text:0000000000000024 .L0 
     /tmp/ccL60lXz.s:52     .text:0000000000000024 .L0 
     /tmp/ccL60lXz.s:54     .text:0000000000000028 .L0 
     /tmp/ccL60lXz.s:56     .text:000000000000002c .L0 
     /tmp/ccL60lXz.s:62     .text:000000000000002c _ZN7_threaddlEPv
     /tmp/ccL60lXz.s:65     .text:000000000000002c .L0 
     /tmp/ccL60lXz.s:67     .text:000000000000002c .L0 
     /tmp/ccL60lXz.s:68     .text:0000000000000030 .L0 
     /tmp/ccL60lXz.s:71     .text:0000000000000038 .L0 
     /tmp/ccL60lXz.s:72     .text:0000000000000038 .L0 
     /tmp/ccL60lXz.s:74     .text:000000000000003c .L0 
     /tmp/ccL60lXz.s:76     .text:000000000000003c .L0 
     /tmp/ccL60lXz.s:77     .text:000000000000003c .L0 
     /tmp/ccL60lXz.s:80     .text:0000000000000044 .L0 
     /tmp/ccL60lXz.s:81     .text:0000000000000048 .L0 
     /tmp/ccL60lXz.s:83     .text:000000000000004c .L0 
     /tmp/ccL60lXz.s:84     .text:000000000000004c .L0 
     /tmp/ccL60lXz.s:86     .text:0000000000000050 .L0 
     /tmp/ccL60lXz.s:88     .text:0000000000000054 .L0 
     /tmp/ccL60lXz.s:94     .text:0000000000000054 mem_alloc
     /tmp/ccL60lXz.s:97     .text:0000000000000054 .L0 
     /tmp/ccL60lXz.s:99     .text:0000000000000054 .L0 
     /tmp/ccL60lXz.s:100    .text:0000000000000058 .L0 
     /tmp/ccL60lXz.s:102    .text:000000000000005c .L0 
     /tmp/ccL60lXz.s:104    .text:0000000000000060 .L0 
     /tmp/ccL60lXz.s:106    .text:0000000000000060 .L0 
     /tmp/ccL60lXz.s:107    .text:0000000000000060 .L0 
     /tmp/ccL60lXz.s:110    .text:0000000000000064 .L0 
     /tmp/ccL60lXz.s:113    .text:0000000000000068 .L0 
     /tmp/ccL60lXz.s:116    .text:000000000000006c .L0 
     /tmp/ccL60lXz.s:117    .text:000000000000006c .L0 
src/user/syscall_c.cpp:29     .text:000000000000006c .L0 
     /tmp/ccL60lXz.s:123    .text:0000000000000070 .L0 
     /tmp/ccL60lXz.s:125    .text:0000000000000070 .L0 
     /tmp/ccL60lXz.s:131    .text:0000000000000078 .L0 
src/user/syscall_c.cpp:31     .text:0000000000000078 .L0 
     /tmp/ccL60lXz.s:136    .text:000000000000007c .L0 
src/user/syscall_c.cpp:32     .text:000000000000007c .L0 
     /tmp/ccL60lXz.s:142    .text:0000000000000080 .L0 
     /tmp/ccL60lXz.s:144    .text:0000000000000080 .L0 
GAS LISTING /tmp/ccL60lXz.s 			page 20


     /tmp/ccL60lXz.s:145    .text:0000000000000084 .L0 
     /tmp/ccL60lXz.s:146    .text:0000000000000084 .L0 
     /tmp/ccL60lXz.s:148    .text:0000000000000088 .L0 
     /tmp/ccL60lXz.s:150    .text:000000000000008c .L0 
     /tmp/ccL60lXz.s:156    .text:000000000000008c mem_free
     /tmp/ccL60lXz.s:159    .text:000000000000008c .L0 
     /tmp/ccL60lXz.s:161    .text:000000000000008c .L0 
     /tmp/ccL60lXz.s:162    .text:0000000000000090 .L0 
     /tmp/ccL60lXz.s:164    .text:0000000000000094 .L0 
     /tmp/ccL60lXz.s:166    .text:0000000000000098 .L0 
     /tmp/ccL60lXz.s:168    .text:0000000000000098 .L0 
     /tmp/ccL60lXz.s:169    .text:0000000000000098 .L0 
src/user/syscall_c.cpp:41     .text:0000000000000098 .L0 
     /tmp/ccL60lXz.s:175    .text:000000000000009c .L0 
     /tmp/ccL60lXz.s:177    .text:000000000000009c .L0 
     /tmp/ccL60lXz.s:183    .text:00000000000000a4 .L0 
src/user/syscall_c.cpp:43     .text:00000000000000a4 .L0 
     /tmp/ccL60lXz.s:188    .text:00000000000000a8 .L0 
src/user/syscall_c.cpp:44     .text:00000000000000a8 .L0 
     /tmp/ccL60lXz.s:194    .text:00000000000000ac .L0 
     /tmp/ccL60lXz.s:196    .text:00000000000000ac .L0 
     /tmp/ccL60lXz.s:198    .text:00000000000000b4 .L0 
     /tmp/ccL60lXz.s:199    .text:00000000000000b4 .L0 
     /tmp/ccL60lXz.s:201    .text:00000000000000b8 .L0 
     /tmp/ccL60lXz.s:203    .text:00000000000000bc .L0 
     /tmp/ccL60lXz.s:209    .text:00000000000000bc thread_dispatch
     /tmp/ccL60lXz.s:212    .text:00000000000000bc .L0 
     /tmp/ccL60lXz.s:213    .text:00000000000000bc .L0 
     /tmp/ccL60lXz.s:214    .text:00000000000000c0 .L0 
     /tmp/ccL60lXz.s:216    .text:00000000000000c4 .L0 
     /tmp/ccL60lXz.s:218    .text:00000000000000c8 .L0 
     /tmp/ccL60lXz.s:220    .text:00000000000000c8 .L0 
     /tmp/ccL60lXz.s:221    .text:00000000000000c8 .L0 
     /tmp/ccL60lXz.s:227    .text:00000000000000d0 .L0 
src/user/syscall_c.cpp:52     .text:00000000000000d0 .L0 
     /tmp/ccL60lXz.s:233    .text:00000000000000d4 .L0 
     /tmp/ccL60lXz.s:234    .text:00000000000000d8 .L0 
     /tmp/ccL60lXz.s:235    .text:00000000000000d8 .L0 
     /tmp/ccL60lXz.s:237    .text:00000000000000dc .L0 
     /tmp/ccL60lXz.s:239    .text:00000000000000e0 .L0 
     /tmp/ccL60lXz.s:245    .text:00000000000000e0 thread_create
     /tmp/ccL60lXz.s:248    .text:00000000000000e0 .L0 
     /tmp/ccL60lXz.s:250    .text:00000000000000e0 .L0 
     /tmp/ccL60lXz.s:251    .text:00000000000000e0 .L0 
     /tmp/ccL60lXz.s:253    .text:00000000000000e4 .L0 
     /tmp/ccL60lXz.s:255    .text:00000000000000e8 .L0 
     /tmp/ccL60lXz.s:256    .text:00000000000000ec .L0 
     /tmp/ccL60lXz.s:262    .text:0000000000000100 .L0 
     /tmp/ccL60lXz.s:263    .text:0000000000000100 .L0 
     /tmp/ccL60lXz.s:264    .text:0000000000000100 .L0 
     /tmp/ccL60lXz.s:265    .text:0000000000000100 .L0 
     /tmp/ccL60lXz.s:266    .text:0000000000000100 .L0 
     /tmp/ccL60lXz.s:268    .text:0000000000000104 .L0 
     /tmp/ccL60lXz.s:273    .text:0000000000000110 .L0 
     /tmp/ccL60lXz.s:274    .text:0000000000000110 .L0 
     /tmp/ccL60lXz.s:279    .text:000000000000011c .L0 
     /tmp/ccL60lXz.s:282    .text:0000000000000120 .L0 
GAS LISTING /tmp/ccL60lXz.s 			page 21


     /tmp/ccL60lXz.s:283    .text:0000000000000120 .L0 
src/user/syscall_c.cpp:68     .text:0000000000000120 .L0 
     /tmp/ccL60lXz.s:289    .text:0000000000000124 .L0 
src/user/syscall_c.cpp:69     .text:0000000000000124 .L0 
     /tmp/ccL60lXz.s:294    .text:0000000000000128 .L0 
src/user/syscall_c.cpp:70     .text:0000000000000128 .L0 
     /tmp/ccL60lXz.s:299    .text:000000000000012c .L0 
src/user/syscall_c.cpp:71     .text:000000000000012c .L0 
     /tmp/ccL60lXz.s:304    .text:0000000000000130 .L0 
src/user/syscall_c.cpp:72     .text:0000000000000130 .L0 
     /tmp/ccL60lXz.s:309    .text:0000000000000134 .L0 
src/user/syscall_c.cpp:74     .text:0000000000000134 .L0 
     /tmp/ccL60lXz.s:314    .text:0000000000000138 .L0 
src/user/syscall_c.cpp:76     .text:0000000000000138 .L0 
     /tmp/ccL60lXz.s:324    .text:0000000000000140 .L0 
     /tmp/ccL60lXz.s:325    .text:0000000000000140 .L0 
     /tmp/ccL60lXz.s:326    .text:0000000000000144 .L0 
     /tmp/ccL60lXz.s:328    .text:0000000000000148 .L0 
     /tmp/ccL60lXz.s:329    .text:0000000000000148 .L0 
     /tmp/ccL60lXz.s:331    .text:000000000000014c .L0 
     /tmp/ccL60lXz.s:334    .text:0000000000000150 .L0 
     /tmp/ccL60lXz.s:337    .text:0000000000000154 .L0 
     /tmp/ccL60lXz.s:340    .text:0000000000000158 .L0 
     /tmp/ccL60lXz.s:345    .text:000000000000015c .L0 
     /tmp/ccL60lXz.s:351    .text:0000000000000164 .L0 
     /tmp/ccL60lXz.s:354    .text:0000000000000168 .L0 
     /tmp/ccL60lXz.s:357    .text:000000000000016c .L0 
     /tmp/ccL60lXz.s:358    .text:000000000000016c .L0 
     /tmp/ccL60lXz.s:359    .text:000000000000016c .L0 
     /tmp/ccL60lXz.s:360    .text:000000000000016c .L0 
     /tmp/ccL60lXz.s:361    .text:000000000000016c .L0 
     /tmp/ccL60lXz.s:362    .text:000000000000016c .L0 
     /tmp/ccL60lXz.s:364    .text:000000000000016c .L0 
     /tmp/ccL60lXz.s:367    .text:0000000000000174 .L0 
     /tmp/ccL60lXz.s:373    .text:0000000000000174 thread_exit
     /tmp/ccL60lXz.s:376    .text:0000000000000174 .L0 
     /tmp/ccL60lXz.s:377    .text:0000000000000174 .L0 
     /tmp/ccL60lXz.s:378    .text:0000000000000178 .L0 
     /tmp/ccL60lXz.s:380    .text:000000000000017c .L0 
     /tmp/ccL60lXz.s:382    .text:0000000000000180 .L0 
     /tmp/ccL60lXz.s:385    .text:0000000000000180 .L0 
     /tmp/ccL60lXz.s:386    .text:0000000000000180 .L0 
src/user/syscall_c.cpp:84     .text:0000000000000180 .L0 
     /tmp/ccL60lXz.s:392    .text:0000000000000184 .L0 
src/user/syscall_c.cpp:85     .text:0000000000000184 .L0 
     /tmp/ccL60lXz.s:397    .text:0000000000000188 .L0 
     /tmp/ccL60lXz.s:399    .text:0000000000000188 .L0 
     /tmp/ccL60lXz.s:401    .text:0000000000000190 .L0 
     /tmp/ccL60lXz.s:402    .text:0000000000000190 .L0 
     /tmp/ccL60lXz.s:404    .text:0000000000000194 .L0 
     /tmp/ccL60lXz.s:406    .text:0000000000000198 .L0 
     /tmp/ccL60lXz.s:412    .text:0000000000000198 sem_open
     /tmp/ccL60lXz.s:415    .text:0000000000000198 .L0 
     /tmp/ccL60lXz.s:417    .text:0000000000000198 .L0 
     /tmp/ccL60lXz.s:418    .text:000000000000019c .L0 
     /tmp/ccL60lXz.s:420    .text:00000000000001a0 .L0 
     /tmp/ccL60lXz.s:422    .text:00000000000001a4 .L0 
GAS LISTING /tmp/ccL60lXz.s 			page 22


     /tmp/ccL60lXz.s:425    .text:00000000000001a4 .L0 
     /tmp/ccL60lXz.s:426    .text:00000000000001a4 .L0 
     /tmp/ccL60lXz.s:428    .text:00000000000001a8 .L0 
src/user/syscall_c.cpp:97     .text:00000000000001a8 .L0 
     /tmp/ccL60lXz.s:434    .text:00000000000001ac .L0 
src/user/syscall_c.cpp:98     .text:00000000000001ac .L0 
     /tmp/ccL60lXz.s:439    .text:00000000000001b0 .L0 
src/user/syscall_c.cpp:99     .text:00000000000001b0 .L0 
     /tmp/ccL60lXz.s:444    .text:00000000000001b4 .L0 
src/user/syscall_c.cpp:100    .text:00000000000001b4 .L0 
     /tmp/ccL60lXz.s:449    .text:00000000000001b8 .L0 
src/user/syscall_c.cpp:102    .text:00000000000001b8 .L0 
     /tmp/ccL60lXz.s:459    .text:00000000000001c0 .L0 
     /tmp/ccL60lXz.s:460    .text:00000000000001c0 .L0 
     /tmp/ccL60lXz.s:461    .text:00000000000001c4 .L0 
     /tmp/ccL60lXz.s:462    .text:00000000000001c4 .L0 
     /tmp/ccL60lXz.s:463    .text:00000000000001c4 .L0 
     /tmp/ccL60lXz.s:465    .text:00000000000001c8 .L0 
     /tmp/ccL60lXz.s:469    .text:00000000000001cc .L0 
     /tmp/ccL60lXz.s:471    .text:00000000000001cc .L0 
     /tmp/ccL60lXz.s:474    .text:00000000000001d4 .L0 
     /tmp/ccL60lXz.s:480    .text:00000000000001d4 sem_close
     /tmp/ccL60lXz.s:483    .text:00000000000001d4 .L0 
     /tmp/ccL60lXz.s:485    .text:00000000000001d4 .L0 
     /tmp/ccL60lXz.s:486    .text:00000000000001d8 .L0 
     /tmp/ccL60lXz.s:488    .text:00000000000001dc .L0 
     /tmp/ccL60lXz.s:490    .text:00000000000001e0 .L0 
     /tmp/ccL60lXz.s:493    .text:00000000000001e0 .L0 
     /tmp/ccL60lXz.s:494    .text:00000000000001e0 .L0 
     /tmp/ccL60lXz.s:496    .text:00000000000001e4 .L0 
src/user/syscall_c.cpp:111    .text:00000000000001e4 .L0 
     /tmp/ccL60lXz.s:502    .text:00000000000001e8 .L0 
src/user/syscall_c.cpp:112    .text:00000000000001e8 .L0 
     /tmp/ccL60lXz.s:507    .text:00000000000001ec .L0 
src/user/syscall_c.cpp:113    .text:00000000000001ec .L0 
     /tmp/ccL60lXz.s:512    .text:00000000000001f0 .L0 
src/user/syscall_c.cpp:115    .text:00000000000001f0 .L0 
     /tmp/ccL60lXz.s:522    .text:00000000000001f8 .L0 
     /tmp/ccL60lXz.s:523    .text:00000000000001f8 .L0 
     /tmp/ccL60lXz.s:524    .text:00000000000001fc .L0 
     /tmp/ccL60lXz.s:525    .text:00000000000001fc .L0 
     /tmp/ccL60lXz.s:526    .text:00000000000001fc .L0 
     /tmp/ccL60lXz.s:528    .text:0000000000000200 .L0 
     /tmp/ccL60lXz.s:532    .text:0000000000000204 .L0 
     /tmp/ccL60lXz.s:534    .text:0000000000000204 .L0 
     /tmp/ccL60lXz.s:537    .text:000000000000020c .L0 
     /tmp/ccL60lXz.s:543    .text:000000000000020c sem_wait
     /tmp/ccL60lXz.s:546    .text:000000000000020c .L0 
     /tmp/ccL60lXz.s:548    .text:000000000000020c .L0 
     /tmp/ccL60lXz.s:549    .text:0000000000000210 .L0 
     /tmp/ccL60lXz.s:551    .text:0000000000000214 .L0 
     /tmp/ccL60lXz.s:553    .text:0000000000000218 .L0 
     /tmp/ccL60lXz.s:556    .text:0000000000000218 .L0 
     /tmp/ccL60lXz.s:557    .text:0000000000000218 .L0 
     /tmp/ccL60lXz.s:559    .text:000000000000021c .L0 
src/user/syscall_c.cpp:124    .text:000000000000021c .L0 
     /tmp/ccL60lXz.s:565    .text:0000000000000220 .L0 
GAS LISTING /tmp/ccL60lXz.s 			page 23


src/user/syscall_c.cpp:125    .text:0000000000000220 .L0 
     /tmp/ccL60lXz.s:570    .text:0000000000000224 .L0 
src/user/syscall_c.cpp:126    .text:0000000000000224 .L0 
     /tmp/ccL60lXz.s:575    .text:0000000000000228 .L0 
src/user/syscall_c.cpp:128    .text:0000000000000228 .L0 
     /tmp/ccL60lXz.s:585    .text:0000000000000230 .L0 
     /tmp/ccL60lXz.s:586    .text:0000000000000230 .L0 
     /tmp/ccL60lXz.s:587    .text:0000000000000234 .L0 
     /tmp/ccL60lXz.s:588    .text:0000000000000234 .L0 
     /tmp/ccL60lXz.s:589    .text:0000000000000234 .L0 
     /tmp/ccL60lXz.s:591    .text:0000000000000238 .L0 
     /tmp/ccL60lXz.s:595    .text:000000000000023c .L0 
     /tmp/ccL60lXz.s:597    .text:000000000000023c .L0 
     /tmp/ccL60lXz.s:600    .text:0000000000000244 .L0 
     /tmp/ccL60lXz.s:606    .text:0000000000000244 sem_signal
     /tmp/ccL60lXz.s:609    .text:0000000000000244 .L0 
     /tmp/ccL60lXz.s:611    .text:0000000000000244 .L0 
     /tmp/ccL60lXz.s:612    .text:0000000000000248 .L0 
     /tmp/ccL60lXz.s:614    .text:000000000000024c .L0 
     /tmp/ccL60lXz.s:616    .text:0000000000000250 .L0 
     /tmp/ccL60lXz.s:619    .text:0000000000000250 .L0 
     /tmp/ccL60lXz.s:620    .text:0000000000000250 .L0 
     /tmp/ccL60lXz.s:622    .text:0000000000000254 .L0 
src/user/syscall_c.cpp:137    .text:0000000000000254 .L0 
     /tmp/ccL60lXz.s:628    .text:0000000000000258 .L0 
src/user/syscall_c.cpp:138    .text:0000000000000258 .L0 
     /tmp/ccL60lXz.s:633    .text:000000000000025c .L0 
src/user/syscall_c.cpp:139    .text:000000000000025c .L0 
     /tmp/ccL60lXz.s:638    .text:0000000000000260 .L0 
src/user/syscall_c.cpp:141    .text:0000000000000260 .L0 
     /tmp/ccL60lXz.s:648    .text:0000000000000268 .L0 
     /tmp/ccL60lXz.s:649    .text:0000000000000268 .L0 
     /tmp/ccL60lXz.s:650    .text:000000000000026c .L0 
     /tmp/ccL60lXz.s:651    .text:000000000000026c .L0 
     /tmp/ccL60lXz.s:652    .text:000000000000026c .L0 
     /tmp/ccL60lXz.s:654    .text:0000000000000270 .L0 
     /tmp/ccL60lXz.s:658    .text:0000000000000274 .L0 
     /tmp/ccL60lXz.s:660    .text:0000000000000274 .L0 
     /tmp/ccL60lXz.s:663    .text:000000000000027c .L0 
     /tmp/ccL60lXz.s:669    .text:000000000000027c time_sleep
     /tmp/ccL60lXz.s:672    .text:000000000000027c .L0 
     /tmp/ccL60lXz.s:674    .text:000000000000027c .L0 
     /tmp/ccL60lXz.s:675    .text:0000000000000280 .L0 
     /tmp/ccL60lXz.s:677    .text:0000000000000284 .L0 
     /tmp/ccL60lXz.s:679    .text:0000000000000288 .L0 
     /tmp/ccL60lXz.s:682    .text:0000000000000288 .L0 
     /tmp/ccL60lXz.s:683    .text:0000000000000288 .L0 
     /tmp/ccL60lXz.s:685    .text:000000000000028c .L0 
src/user/syscall_c.cpp:149    .text:000000000000028c .L0 
     /tmp/ccL60lXz.s:691    .text:0000000000000290 .L0 
src/user/syscall_c.cpp:150    .text:0000000000000290 .L0 
     /tmp/ccL60lXz.s:696    .text:0000000000000294 .L0 
src/user/syscall_c.cpp:151    .text:0000000000000294 .L0 
     /tmp/ccL60lXz.s:701    .text:0000000000000298 .L0 
src/user/syscall_c.cpp:153    .text:0000000000000298 .L0 
     /tmp/ccL60lXz.s:711    .text:00000000000002a0 .L0 
     /tmp/ccL60lXz.s:712    .text:00000000000002a0 .L0 
GAS LISTING /tmp/ccL60lXz.s 			page 24


     /tmp/ccL60lXz.s:713    .text:00000000000002a4 .L0 
     /tmp/ccL60lXz.s:714    .text:00000000000002a4 .L0 
     /tmp/ccL60lXz.s:715    .text:00000000000002a4 .L0 
     /tmp/ccL60lXz.s:717    .text:00000000000002a8 .L0 
     /tmp/ccL60lXz.s:721    .text:00000000000002ac .L0 
     /tmp/ccL60lXz.s:723    .text:00000000000002ac .L0 
     /tmp/ccL60lXz.s:726    .text:00000000000002b4 .L0 
     /tmp/ccL60lXz.s:732    .text:00000000000002b4 getc
     /tmp/ccL60lXz.s:735    .text:00000000000002b4 .L0 
     /tmp/ccL60lXz.s:736    .text:00000000000002b4 .L0 
     /tmp/ccL60lXz.s:737    .text:00000000000002b8 .L0 
     /tmp/ccL60lXz.s:739    .text:00000000000002bc .L0 
     /tmp/ccL60lXz.s:741    .text:00000000000002c0 .L0 
     /tmp/ccL60lXz.s:743    .text:00000000000002c0 .L0 
     /tmp/ccL60lXz.s:744    .text:00000000000002c0 .L0 
src/user/syscall_c.cpp:161    .text:00000000000002c0 .L0 
     /tmp/ccL60lXz.s:750    .text:00000000000002c4 .L0 
src/user/syscall_c.cpp:162    .text:00000000000002c4 .L0 
     /tmp/ccL60lXz.s:755    .text:00000000000002c8 .L0 
src/user/syscall_c.cpp:164    .text:00000000000002c8 .L0 
     /tmp/ccL60lXz.s:763    .text:00000000000002d0 .L0 
     /tmp/ccL60lXz.s:766    .text:00000000000002d8 .L0 
     /tmp/ccL60lXz.s:767    .text:00000000000002d8 .L0 
     /tmp/ccL60lXz.s:771    .text:00000000000002dc .L0 
     /tmp/ccL60lXz.s:772    .text:00000000000002e0 .L0 
     /tmp/ccL60lXz.s:773    .text:00000000000002e0 .L0 
     /tmp/ccL60lXz.s:774    .text:00000000000002e0 .L0 
     /tmp/ccL60lXz.s:776    .text:00000000000002e4 .L0 
     /tmp/ccL60lXz.s:780    .text:00000000000002e8 .L0 
     /tmp/ccL60lXz.s:782    .text:00000000000002e8 .L0 
     /tmp/ccL60lXz.s:785    .text:00000000000002f0 .L0 
     /tmp/ccL60lXz.s:791    .text:00000000000002f0 putc
     /tmp/ccL60lXz.s:794    .text:00000000000002f0 .L0 
     /tmp/ccL60lXz.s:796    .text:00000000000002f0 .L0 
     /tmp/ccL60lXz.s:797    .text:00000000000002f4 .L0 
     /tmp/ccL60lXz.s:799    .text:00000000000002f8 .L0 
     /tmp/ccL60lXz.s:801    .text:00000000000002fc .L0 
     /tmp/ccL60lXz.s:803    .text:00000000000002fc .L0 
src/user/syscall_c.cpp:170    .text:00000000000002fc .L0 
     /tmp/ccL60lXz.s:809    .text:0000000000000300 .L0 
src/user/syscall_c.cpp:171    .text:0000000000000300 .L0 
     /tmp/ccL60lXz.s:814    .text:0000000000000304 .L0 
src/user/syscall_c.cpp:172    .text:0000000000000304 .L0 
     /tmp/ccL60lXz.s:820    .text:0000000000000308 .L0 
     /tmp/ccL60lXz.s:821    .text:000000000000030c .L0 
     /tmp/ccL60lXz.s:822    .text:000000000000030c .L0 
     /tmp/ccL60lXz.s:824    .text:0000000000000310 .L0 
     /tmp/ccL60lXz.s:826    .text:0000000000000314 .L0 
     /tmp/ccL60lXz.s:833    .text:0000000000000314 .L0 
     /tmp/ccL60lXz.s:343    .text:000000000000015c .L13
     /tmp/ccL60lXz.s:349    .text:0000000000000164 .L14
     /tmp/ccL60lXz.s:356    .text:000000000000016c .L15
     /tmp/ccL60lXz.s:323    .text:0000000000000140 .L12
     /tmp/ccL60lXz.s:468    .text:00000000000001cc .L24
     /tmp/ccL60lXz.s:458    .text:00000000000001c0 .L23
     /tmp/ccL60lXz.s:531    .text:0000000000000204 .L28
     /tmp/ccL60lXz.s:521    .text:00000000000001f8 .L27
GAS LISTING /tmp/ccL60lXz.s 			page 25


     /tmp/ccL60lXz.s:594    .text:000000000000023c .L32
     /tmp/ccL60lXz.s:584    .text:0000000000000230 .L31
     /tmp/ccL60lXz.s:657    .text:0000000000000274 .L36
     /tmp/ccL60lXz.s:647    .text:0000000000000268 .L35
     /tmp/ccL60lXz.s:720    .text:00000000000002ac .L40
     /tmp/ccL60lXz.s:710    .text:00000000000002a0 .L39
     /tmp/ccL60lXz.s:779    .text:00000000000002e8 .L44
     /tmp/ccL60lXz.s:769    .text:00000000000002dc .L43
     /tmp/ccL60lXz.s:1412   .debug_abbrev:0000000000000000 .Ldebug_abbrev0
     /tmp/ccL60lXz.s:2326   .debug_str:0000000000000035 .LASF40
     /tmp/ccL60lXz.s:2382   .debug_str:000000000000024e .LASF41
     /tmp/ccL60lXz.s:2400   .debug_str:00000000000002b7 .LASF42
     /tmp/ccL60lXz.s:8      .text:0000000000000000 .Ltext0
     /tmp/ccL60lXz.s:829    .text:0000000000000314 .Letext0
     /tmp/ccL60lXz.s:2314   .debug_line:0000000000000000 .Ldebug_line0
     /tmp/ccL60lXz.s:2364   .debug_str:00000000000001e6 .LASF0
     /tmp/ccL60lXz.s:2346   .debug_str:000000000000017a .LASF1
     /tmp/ccL60lXz.s:2336   .debug_str:0000000000000142 .LASF2
     /tmp/ccL60lXz.s:2324   .debug_str:000000000000002e .LASF4
     /tmp/ccL60lXz.s:2344   .debug_str:0000000000000168 .LASF3
     /tmp/ccL60lXz.s:2318   .debug_str:0000000000000013 .LASF5
     /tmp/ccL60lXz.s:2372   .debug_str:0000000000000213 .LASF6
     /tmp/ccL60lXz.s:2316   .debug_str:0000000000000000 .LASF7
     /tmp/ccL60lXz.s:2332   .debug_str:0000000000000120 .LASF8
     /tmp/ccL60lXz.s:2374   .debug_str:000000000000021a .LASF9
     /tmp/ccL60lXz.s:2322   .debug_str:0000000000000020 .LASF10
     /tmp/ccL60lXz.s:2410   .debug_str:0000000000000305 .LASF11
     /tmp/ccL60lXz.s:2334   .debug_str:0000000000000133 .LASF12
     /tmp/ccL60lXz.s:2402   .debug_str:00000000000002da .LASF13
     /tmp/ccL60lXz.s:2384   .debug_str:0000000000000265 .LASF14
     /tmp/ccL60lXz.s:2350   .debug_str:000000000000019b .LASF15
     /tmp/ccL60lXz.s:2328   .debug_str:00000000000000f9 .LASF16
     /tmp/ccL60lXz.s:2378   .debug_str:000000000000022f .LASF17
     /tmp/ccL60lXz.s:2396   .debug_str:00000000000002a4 .LASF43
     /tmp/ccL60lXz.s:2368   .debug_str:00000000000001fe .LASF44
     /tmp/ccL60lXz.s:2330   .debug_str:000000000000010f .LASF45
     /tmp/ccL60lXz.s:2380   .debug_str:0000000000000245 .LASF18
     /tmp/ccL60lXz.s:2320   .debug_str:000000000000001a .LASF19
     /tmp/ccL60lXz.s:2398   .debug_str:00000000000002ac .LASF46
     /tmp/ccL60lXz.s:2392   .debug_str:000000000000029a .LASF37
     /tmp/ccL60lXz.s:792    .text:00000000000002f0 .LFB13
     /tmp/ccL60lXz.s:827    .text:0000000000000314 .LFE13
     /tmp/ccL60lXz.s:2370   .debug_str:000000000000020e .LASF20
     /tmp/ccL60lXz.s:2338   .debug_str:0000000000000150 .LASF21
     /tmp/ccL60lXz.s:733    .text:00000000000002b4 .LFB12
     /tmp/ccL60lXz.s:786    .text:00000000000002f0 .LFE12
     /tmp/ccL60lXz.s:1891   .debug_loc:0000000000000000 .LLST21
     /tmp/ccL60lXz.s:2366   .debug_str:00000000000001f3 .LASF22
     /tmp/ccL60lXz.s:670    .text:000000000000027c .LFB11
     /tmp/ccL60lXz.s:727    .text:00000000000002b4 .LFE11
     /tmp/ccL60lXz.s:2376   .debug_str:000000000000022a .LASF23
     /tmp/ccL60lXz.s:1902   .debug_loc:0000000000000036 .LLST19
     /tmp/ccL60lXz.s:1927   .debug_loc:0000000000000098 .LLST20
     /tmp/ccL60lXz.s:2356   .debug_str:00000000000001b6 .LASF24
     /tmp/ccL60lXz.s:607    .text:0000000000000244 .LFB10
     /tmp/ccL60lXz.s:664    .text:000000000000027c .LFE10
     /tmp/ccL60lXz.s:1940   .debug_loc:00000000000000d0 .LLST17
GAS LISTING /tmp/ccL60lXz.s 			page 26


     /tmp/ccL60lXz.s:1965   .debug_loc:0000000000000132 .LLST18
     /tmp/ccL60lXz.s:2362   .debug_str:00000000000001dd .LASF25
     /tmp/ccL60lXz.s:544    .text:000000000000020c .LFB9
     /tmp/ccL60lXz.s:601    .text:0000000000000244 .LFE9
     /tmp/ccL60lXz.s:1978   .debug_loc:000000000000016a .LLST15
     /tmp/ccL60lXz.s:2003   .debug_loc:00000000000001cc .LLST16
     /tmp/ccL60lXz.s:2342   .debug_str:000000000000015e .LASF26
     /tmp/ccL60lXz.s:481    .text:00000000000001d4 .LFB8
     /tmp/ccL60lXz.s:538    .text:000000000000020c .LFE8
     /tmp/ccL60lXz.s:2354   .debug_str:00000000000001af .LASF27
     /tmp/ccL60lXz.s:2016   .debug_loc:0000000000000204 .LLST13
     /tmp/ccL60lXz.s:2041   .debug_loc:0000000000000266 .LLST14
     /tmp/ccL60lXz.s:2340   .debug_str:0000000000000155 .LASF28
     /tmp/ccL60lXz.s:413    .text:0000000000000198 .LFB7
     /tmp/ccL60lXz.s:475    .text:00000000000001d4 .LFE7
     /tmp/ccL60lXz.s:2054   .debug_loc:000000000000029e .LLST11
     /tmp/ccL60lXz.s:2079   .debug_loc:0000000000000300 .LLST12
     /tmp/ccL60lXz.s:2404   .debug_str:00000000000002ea .LASF29
     /tmp/ccL60lXz.s:374    .text:0000000000000174 .LFB6
     /tmp/ccL60lXz.s:407    .text:0000000000000198 .LFE6
     /tmp/ccL60lXz.s:2348   .debug_str:000000000000018d .LASF30
     /tmp/ccL60lXz.s:246    .text:00000000000000e0 .LFB5
     /tmp/ccL60lXz.s:368    .text:0000000000000174 .LFE5
     /tmp/ccL60lXz.s:2092   .debug_loc:0000000000000338 .LLST6
     /tmp/ccL60lXz.s:2360   .debug_str:00000000000001cf .LASF31
     /tmp/ccL60lXz.s:2136   .debug_loc:00000000000003e9 .LLST7
     /tmp/ccL60lXz.s:2162   .debug_loc:000000000000045b .LLST8
     /tmp/ccL60lXz.s:2390   .debug_str:000000000000028e .LASF32
     /tmp/ccL60lXz.s:2188   .debug_loc:00000000000004cd .LLST9
     /tmp/ccL60lXz.s:2199   .debug_loc:0000000000000503 .LLST10
     /tmp/ccL60lXz.s:277    .text:000000000000011c .LVL14
     /tmp/ccL60lXz.s:2388   .debug_str:000000000000027e .LASF47
     /tmp/ccL60lXz.s:210    .text:00000000000000bc .LFB4
     /tmp/ccL60lXz.s:240    .text:00000000000000e0 .LFE4
     /tmp/ccL60lXz.s:2386   .debug_str:0000000000000275 .LASF33
     /tmp/ccL60lXz.s:157    .text:000000000000008c .LFB3
     /tmp/ccL60lXz.s:204    .text:00000000000000bc .LFE3
     /tmp/ccL60lXz.s:2207   .debug_loc:0000000000000527 .LLST5
     /tmp/ccL60lXz.s:2406   .debug_str:00000000000002f6 .LASF34
     /tmp/ccL60lXz.s:95     .text:0000000000000054 .LFB2
     /tmp/ccL60lXz.s:151    .text:000000000000008c .LFE2
     /tmp/ccL60lXz.s:2408   .debug_str:0000000000000300 .LASF35
     /tmp/ccL60lXz.s:2221   .debug_loc:0000000000000560 .LLST2
     /tmp/ccL60lXz.s:2352   .debug_str:00000000000001a7 .LASF36
     /tmp/ccL60lXz.s:2241   .debug_loc:00000000000005ae .LLST3
     /tmp/ccL60lXz.s:2261   .debug_loc:00000000000005ed .LLST4
     /tmp/ccL60lXz.s:63     .text:000000000000002c .LFB1
     /tmp/ccL60lXz.s:89     .text:0000000000000054 .LFE1
     /tmp/ccL60lXz.s:2273   .debug_loc:0000000000000624 .LLST1
     /tmp/ccL60lXz.s:78     .text:0000000000000044 .LVL4
     /tmp/ccL60lXz.s:2358   .debug_str:00000000000001c1 .LASF38
     /tmp/ccL60lXz.s:13     .text:0000000000000000 .LFB0
     /tmp/ccL60lXz.s:57     .text:000000000000002c .LFE0
     /tmp/ccL60lXz.s:2394   .debug_str:000000000000029f .LASF39
     /tmp/ccL60lXz.s:2287   .debug_loc:000000000000065d .LLST0
     /tmp/ccL60lXz.s:761    .text:00000000000002d0 .LVL58
     /tmp/ccL60lXz.s:768    .text:00000000000002dc .LVL59
GAS LISTING /tmp/ccL60lXz.s 			page 27


     /tmp/ccL60lXz.s:778    .text:00000000000002e8 .LVL60
     /tmp/ccL60lXz.s:783    .text:00000000000002ec .LVL61
     /tmp/ccL60lXz.s:673    .text:000000000000027c .LVL52
     /tmp/ccL60lXz.s:705    .text:000000000000029c .LVL54
     /tmp/ccL60lXz.s:719    .text:00000000000002ac .LVL56
     /tmp/ccL60lXz.s:724    .text:00000000000002b0 .LVL57
     /tmp/ccL60lXz.s:681    .text:0000000000000288 .LVL53
     /tmp/ccL60lXz.s:610    .text:0000000000000244 .LVL46
     /tmp/ccL60lXz.s:642    .text:0000000000000264 .LVL48
     /tmp/ccL60lXz.s:656    .text:0000000000000274 .LVL50
     /tmp/ccL60lXz.s:661    .text:0000000000000278 .LVL51
     /tmp/ccL60lXz.s:618    .text:0000000000000250 .LVL47
     /tmp/ccL60lXz.s:547    .text:000000000000020c .LVL40
     /tmp/ccL60lXz.s:579    .text:000000000000022c .LVL42
     /tmp/ccL60lXz.s:593    .text:000000000000023c .LVL44
     /tmp/ccL60lXz.s:598    .text:0000000000000240 .LVL45
     /tmp/ccL60lXz.s:555    .text:0000000000000218 .LVL41
     /tmp/ccL60lXz.s:484    .text:00000000000001d4 .LVL34
     /tmp/ccL60lXz.s:516    .text:00000000000001f4 .LVL36
     /tmp/ccL60lXz.s:530    .text:0000000000000204 .LVL38
     /tmp/ccL60lXz.s:535    .text:0000000000000208 .LVL39
     /tmp/ccL60lXz.s:492    .text:00000000000001e0 .LVL35
     /tmp/ccL60lXz.s:416    .text:0000000000000198 .LVL28
     /tmp/ccL60lXz.s:453    .text:00000000000001bc .LVL30
     /tmp/ccL60lXz.s:467    .text:00000000000001cc .LVL32
     /tmp/ccL60lXz.s:472    .text:00000000000001d0 .LVL33
     /tmp/ccL60lXz.s:424    .text:00000000000001a4 .LVL29
     /tmp/ccL60lXz.s:249    .text:00000000000000e0 .LVL12
     /tmp/ccL60lXz.s:275    .text:0000000000000114 .LVL13
     /tmp/ccL60lXz.s:332    .text:000000000000014c .LVL18
     /tmp/ccL60lXz.s:342    .text:000000000000015c .LVL21
     /tmp/ccL60lXz.s:346    .text:0000000000000160 .LVL22
     /tmp/ccL60lXz.s:348    .text:0000000000000164 .LVL23
     /tmp/ccL60lXz.s:352    .text:0000000000000168 .LVL24
     /tmp/ccL60lXz.s:355    .text:000000000000016c .LVL25
     /tmp/ccL60lXz.s:335    .text:0000000000000150 .LVL19
     /tmp/ccL60lXz.s:338    .text:0000000000000154 .LVL20
     /tmp/ccL60lXz.s:318    .text:000000000000013c .LVL16
     /tmp/ccL60lXz.s:365    .text:0000000000000170 .LVL26
     /tmp/ccL60lXz.s:281    .text:0000000000000120 .LVL15
     /tmp/ccL60lXz.s:160    .text:000000000000008c .LVL10
     /tmp/ccL60lXz.s:192    .text:00000000000000ac .LVL11
     /tmp/ccL60lXz.s:98     .text:0000000000000054 .LVL5
     /tmp/ccL60lXz.s:108    .text:0000000000000064 .LVL6
     /tmp/ccL60lXz.s:111    .text:0000000000000068 .LVL7
     /tmp/ccL60lXz.s:114    .text:000000000000006c .LVL8
     /tmp/ccL60lXz.s:140    .text:0000000000000080 .LVL9
     /tmp/ccL60lXz.s:66     .text:000000000000002c .LVL3
     /tmp/ccL60lXz.s:17     .text:0000000000000000 .LVL0
     /tmp/ccL60lXz.s:49     .text:0000000000000020 .LVL2
     /tmp/ccL60lXz.s:834    .debug_info:0000000000000000 .Ldebug_info0

NO UNDEFINED SYMBOLS
