GAS LISTING /tmp/ccq86itW.s 			page 1


   1              		.file	"syscall_cpp.cpp"
   2              		.option nopic
   3              		.option norelax
   4              		.attribute arch, "rv64i2p0_m2p0_a2p0"
   5              		.attribute unaligned_access, 0
   6              		.attribute stack_align, 16
   7              		.text
   8              	.Ltext0:
   9              		.section	.text._ZN6Thread3runEv,"axG",@progbits,_ZN6Thread3runEv,comdat
  10              		.align	2
  11              		.weak	_ZN6Thread3runEv
  13              	_ZN6Thread3runEv:
  14              	.LFB7:
  15              		.file 1 "src/user/../../h/syscall_cpp.hpp"
   1:src/user/../../h/syscall_cpp.hpp **** #ifndef _syscall_cpp
   2:src/user/../../h/syscall_cpp.hpp **** #define _syscall_cpp
   3:src/user/../../h/syscall_cpp.hpp **** #include "syscall_c.h"
   4:src/user/../../h/syscall_cpp.hpp **** 
   5:src/user/../../h/syscall_cpp.hpp **** void* operator new (size_t);
   6:src/user/../../h/syscall_cpp.hpp **** void operator delete (void*);
   7:src/user/../../h/syscall_cpp.hpp **** 
   8:src/user/../../h/syscall_cpp.hpp **** class Thread {
   9:src/user/../../h/syscall_cpp.hpp **** public:
  10:src/user/../../h/syscall_cpp.hpp ****     Thread (void (*body)(void*), void* arg);
  11:src/user/../../h/syscall_cpp.hpp ****     virtual ~Thread ();
  12:src/user/../../h/syscall_cpp.hpp ****     void start ();
  13:src/user/../../h/syscall_cpp.hpp ****     static void dispatch () { thread_dispatch(); }
  14:src/user/../../h/syscall_cpp.hpp ****     static void sleep (time_t time){ time_sleep(time); }
  15:src/user/../../h/syscall_cpp.hpp **** protected:
  16:src/user/../../h/syscall_cpp.hpp ****     Thread (){ myHandle = nullptr;}
  17:src/user/../../h/syscall_cpp.hpp ****     virtual void run () {}
  16              		.loc 1 17 18
  17              		.cfi_startproc
  18              	.LVL0:
  19 0000 130101FF 		addi	sp,sp,-16
  20              		.cfi_def_cfa_offset 16
  21 0004 23348100 		sd	s0,8(sp)
  22              		.cfi_offset 8, -8
  23 0008 13040101 		addi	s0,sp,16
  24              		.cfi_def_cfa 8, 0
  25              		.loc 1 17 26 is_stmt 0
  26 000c 03348100 		ld	s0,8(sp)
  27              		.cfi_restore 8
  28              		.cfi_def_cfa 2, 16
  29 0010 13010101 		addi	sp,sp,16
  30              		.cfi_def_cfa_offset 0
  31 0014 67800000 		jr	ra
  32              		.cfi_endproc
  33              	.LFE7:
  35              		.section	.text._ZN14PeriodicThread18periodicActivationEv,"axG",@progbits,_ZN14PeriodicThread18peri
  36              		.align	2
  37              		.weak	_ZN14PeriodicThread18periodicActivationEv
  39              	_ZN14PeriodicThread18periodicActivationEv:
  40              	.LFB17:
  18:src/user/../../h/syscall_cpp.hpp **** private:
  19:src/user/../../h/syscall_cpp.hpp ****     static void runWrapper(void*);
  20:src/user/../../h/syscall_cpp.hpp ****     thread_t myHandle;
GAS LISTING /tmp/ccq86itW.s 			page 2


  21:src/user/../../h/syscall_cpp.hpp **** };
  22:src/user/../../h/syscall_cpp.hpp **** 
  23:src/user/../../h/syscall_cpp.hpp **** class Semaphore {
  24:src/user/../../h/syscall_cpp.hpp **** public:
  25:src/user/../../h/syscall_cpp.hpp ****     Semaphore (unsigned init = 1) { sem_open(&myHandle, init); } 
  26:src/user/../../h/syscall_cpp.hpp ****     virtual ~Semaphore (){ sem_close(myHandle); }
  27:src/user/../../h/syscall_cpp.hpp ****     void wait (){ sem_wait(myHandle); }
  28:src/user/../../h/syscall_cpp.hpp ****     void signal (){ sem_signal(myHandle); }
  29:src/user/../../h/syscall_cpp.hpp **** private:
  30:src/user/../../h/syscall_cpp.hpp ****     sem_t myHandle;
  31:src/user/../../h/syscall_cpp.hpp **** };
  32:src/user/../../h/syscall_cpp.hpp **** 
  33:src/user/../../h/syscall_cpp.hpp **** class PeriodicThread : public Thread {
  34:src/user/../../h/syscall_cpp.hpp **** protected:
  35:src/user/../../h/syscall_cpp.hpp ****     PeriodicThread (time_t period);
  36:src/user/../../h/syscall_cpp.hpp ****     virtual void periodicActivation () {}
  41              		.loc 1 36 18 is_stmt 1
  42              		.cfi_startproc
  43              	.LVL1:
  44 0000 130101FF 		addi	sp,sp,-16
  45              		.cfi_def_cfa_offset 16
  46 0004 23348100 		sd	s0,8(sp)
  47              		.cfi_offset 8, -8
  48 0008 13040101 		addi	s0,sp,16
  49              		.cfi_def_cfa 8, 0
  50              		.loc 1 36 41 is_stmt 0
  51 000c 03348100 		ld	s0,8(sp)
  52              		.cfi_restore 8
  53              		.cfi_def_cfa 2, 16
  54 0010 13010101 		addi	sp,sp,16
  55              		.cfi_def_cfa_offset 0
  56 0014 67800000 		jr	ra
  57              		.cfi_endproc
  58              	.LFE17:
  60              		.text
  61              		.align	2
  62              		.globl	_ZN6Thread10runWrapperEPv
  64              	_ZN6Thread10runWrapperEPv:
  65              	.LFB28:
  66              		.file 2 "src/user/syscall_cpp.cpp"
   1:src/user/syscall_cpp.cpp **** #include"../../h/syscall_cpp.hpp"
   2:src/user/syscall_cpp.cpp **** //#include"../test/printing.hpp"
   3:src/user/syscall_cpp.cpp **** 
   4:src/user/syscall_cpp.cpp **** void* operator new(size_t sz){return mem_alloc(sz);}
   5:src/user/syscall_cpp.cpp **** void operator delete(void* ptr){mem_free(ptr);}
   6:src/user/syscall_cpp.cpp **** 
   7:src/user/syscall_cpp.cpp **** void* operator new[](size_t sz){return mem_alloc(sz);}
   8:src/user/syscall_cpp.cpp **** void operator delete[](void* ptr){mem_free(ptr);}
   9:src/user/syscall_cpp.cpp **** 
  10:src/user/syscall_cpp.cpp **** typedef void (*Body)(void*);
  11:src/user/syscall_cpp.cpp **** 
  12:src/user/syscall_cpp.cpp **** struct _Wrap
  13:src/user/syscall_cpp.cpp **** {
  14:src/user/syscall_cpp.cpp ****     thread_t handle;
  15:src/user/syscall_cpp.cpp ****     Body body;
  16:src/user/syscall_cpp.cpp ****     void* arg;
  17:src/user/syscall_cpp.cpp **** };
GAS LISTING /tmp/ccq86itW.s 			page 3


  18:src/user/syscall_cpp.cpp **** 
  19:src/user/syscall_cpp.cpp **** Thread::Thread(void (*body)(void*), void* arg)
  20:src/user/syscall_cpp.cpp **** {
  21:src/user/syscall_cpp.cpp ****     myHandle = (thread_t)(new _Wrap{nullptr, body, arg});
  22:src/user/syscall_cpp.cpp **** }
  23:src/user/syscall_cpp.cpp **** 
  24:src/user/syscall_cpp.cpp **** void Thread::start(){
  25:src/user/syscall_cpp.cpp ****     if(myHandle)
  26:src/user/syscall_cpp.cpp ****     {
  27:src/user/syscall_cpp.cpp ****         _Wrap* w = (_Wrap*) myHandle;
  28:src/user/syscall_cpp.cpp ****         thread_create(&w->handle, w->body, w->arg);    
  29:src/user/syscall_cpp.cpp ****     }
  30:src/user/syscall_cpp.cpp ****     else 
  31:src/user/syscall_cpp.cpp ****     {
  32:src/user/syscall_cpp.cpp ****         _Wrap* w = new _Wrap{nullptr, nullptr, nullptr};
  33:src/user/syscall_cpp.cpp ****         myHandle = (thread_t)w;
  34:src/user/syscall_cpp.cpp ****         thread_create(&w->handle, &runWrapper, this);   
  35:src/user/syscall_cpp.cpp ****     }
  36:src/user/syscall_cpp.cpp **** }
  37:src/user/syscall_cpp.cpp **** 
  38:src/user/syscall_cpp.cpp **** void Thread::runWrapper(void* thread)
  39:src/user/syscall_cpp.cpp **** {
  67              		.loc 2 39 1 is_stmt 1
  68              		.cfi_startproc
  69              	.LVL2:
  70 0000 130101FF 		addi	sp,sp,-16
  71              		.cfi_def_cfa_offset 16
  72 0004 23341100 		sd	ra,8(sp)
  73 0008 23308100 		sd	s0,0(sp)
  74              		.cfi_offset 1, -8
  75              		.cfi_offset 8, -16
  76 000c 13040101 		addi	s0,sp,16
  77              		.cfi_def_cfa 8, 0
  40:src/user/syscall_cpp.cpp ****     Thread* t = (Thread*)thread;
  78              		.loc 2 40 5
  79              	.LVL3:
  41:src/user/syscall_cpp.cpp ****     t->run();
  80              		.loc 2 41 5
  81              		.loc 2 41 12 is_stmt 0
  82 0010 83370500 		ld	a5,0(a0)
  83 0014 83B70701 		ld	a5,16(a5)
  84              		.loc 2 41 11
  85 0018 E7800700 		jalr	a5
  86              	.LVL4:
  42:src/user/syscall_cpp.cpp **** }
  87              		.loc 2 42 1
  88 001c 83308100 		ld	ra,8(sp)
  89              		.cfi_restore 1
  90 0020 03340100 		ld	s0,0(sp)
  91              		.cfi_restore 8
  92              		.cfi_def_cfa 2, 16
  93 0024 13010101 		addi	sp,sp,16
  94              		.cfi_def_cfa_offset 0
  95 0028 67800000 		jr	ra
  96              		.cfi_endproc
  97              	.LFE28:
  99              		.align	2
GAS LISTING /tmp/ccq86itW.s 			page 4


 100              		.globl	_ZN14PeriodicThread15periodicWrapperEPv
 102              	_ZN14PeriodicThread15periodicWrapperEPv:
 103              	.LFB36:
  43:src/user/syscall_cpp.cpp **** 
  44:src/user/syscall_cpp.cpp **** Thread::~Thread()
  45:src/user/syscall_cpp.cpp **** {
  46:src/user/syscall_cpp.cpp ****     _Wrap* w = (_Wrap*)myHandle;
  47:src/user/syscall_cpp.cpp ****     delete w->handle;
  48:src/user/syscall_cpp.cpp ****     delete w;
  49:src/user/syscall_cpp.cpp **** }
  50:src/user/syscall_cpp.cpp **** 
  51:src/user/syscall_cpp.cpp **** struct _WrapPeriod
  52:src/user/syscall_cpp.cpp **** {
  53:src/user/syscall_cpp.cpp ****     PeriodicThread* thread;
  54:src/user/syscall_cpp.cpp ****     time_t period;
  55:src/user/syscall_cpp.cpp **** };
  56:src/user/syscall_cpp.cpp **** 
  57:src/user/syscall_cpp.cpp **** typedef void (PeriodicThread::*fun)();
  58:src/user/syscall_cpp.cpp **** PeriodicThread::PeriodicThread(time_t period):
  59:src/user/syscall_cpp.cpp **** Thread(periodicWrapper, new _WrapPeriod{this, period}){}
  60:src/user/syscall_cpp.cpp **** 
  61:src/user/syscall_cpp.cpp **** void PeriodicThread::periodicWrapper(void* arg){
 104              		.loc 2 61 48 is_stmt 1
 105              		.cfi_startproc
 106              	.LVL5:
 107 002c 130101FE 		addi	sp,sp,-32
 108              		.cfi_def_cfa_offset 32
 109 0030 233C1100 		sd	ra,24(sp)
 110 0034 23388100 		sd	s0,16(sp)
 111 0038 23349100 		sd	s1,8(sp)
 112              		.cfi_offset 1, -8
 113              		.cfi_offset 8, -16
 114              		.cfi_offset 9, -24
 115 003c 13040102 		addi	s0,sp,32
 116              		.cfi_def_cfa 8, 0
 117 0040 93040500 		mv	s1,a0
  62:src/user/syscall_cpp.cpp ****     _WrapPeriod* wp = (_WrapPeriod*)arg;
 118              		.loc 2 62 5
 119              	.LVL6:
  63:src/user/syscall_cpp.cpp ****     if(!wp) return;
 120              		.loc 2 63 5
 121 0044 63020502 		beq	a0,zero,.L9
 122              	.LVL7:
 123              	.L8:
  64:src/user/syscall_cpp.cpp ****     while(true){
 124              		.loc 2 64 5 discriminator 1
  65:src/user/syscall_cpp.cpp ****         wp->thread->periodicActivation();
 125              		.loc 2 65 9 discriminator 1
 126              		.loc 2 65 13 is_stmt 0 discriminator 1
 127 0048 03B50400 		ld	a0,0(s1)
 128              		.loc 2 65 40 discriminator 1
 129 004c 83370500 		ld	a5,0(a0)
 130 0050 83B78701 		ld	a5,24(a5)
 131              		.loc 2 65 39 discriminator 1
 132 0054 E7800700 		jalr	a5
 133              	.LVL8:
  66:src/user/syscall_cpp.cpp ****         time_sleep(wp->period);
GAS LISTING /tmp/ccq86itW.s 			page 5


 134              		.loc 2 66 9 is_stmt 1 discriminator 1
 135              		.loc 2 66 19 is_stmt 0 discriminator 1
 136 0058 03B58400 		ld	a0,8(s1)
 137 005c 97000000 		call	time_sleep
 137      E7800000 
 138              	.LVL9:
 139 0064 6FF05FFE 		j	.L8
 140              	.L9:
  67:src/user/syscall_cpp.cpp ****     }
  68:src/user/syscall_cpp.cpp **** }
 141              		.loc 2 68 1
 142 0068 83308101 		ld	ra,24(sp)
 143              		.cfi_restore 1
 144 006c 03340101 		ld	s0,16(sp)
 145              		.cfi_restore 8
 146              		.cfi_def_cfa 2, 32
 147 0070 83348100 		ld	s1,8(sp)
 148              		.cfi_restore 9
 149              	.LVL10:
 150 0074 13010102 		addi	sp,sp,32
 151              		.cfi_def_cfa_offset 0
 152 0078 67800000 		jr	ra
 153              		.cfi_endproc
 154              	.LFE36:
 156              		.align	2
 157              		.globl	_Znwm
 159              	_Znwm:
 160              	.LFB20:
   4:src/user/syscall_cpp.cpp **** void operator delete(void* ptr){mem_free(ptr);}
 161              		.loc 2 4 30 is_stmt 1
 162              		.cfi_startproc
 163              	.LVL11:
 164 007c 130101FF 		addi	sp,sp,-16
 165              		.cfi_def_cfa_offset 16
 166 0080 23341100 		sd	ra,8(sp)
 167 0084 23308100 		sd	s0,0(sp)
 168              		.cfi_offset 1, -8
 169              		.cfi_offset 8, -16
 170 0088 13040101 		addi	s0,sp,16
 171              		.cfi_def_cfa 8, 0
   4:src/user/syscall_cpp.cpp **** void operator delete(void* ptr){mem_free(ptr);}
 172              		.loc 2 4 31
   4:src/user/syscall_cpp.cpp **** void operator delete(void* ptr){mem_free(ptr);}
 173              		.loc 2 4 47 is_stmt 0
 174 008c 97000000 		call	mem_alloc
 174      E7800000 
 175              	.LVL12:
   4:src/user/syscall_cpp.cpp **** void operator delete(void* ptr){mem_free(ptr);}
 176              		.loc 2 4 52
 177 0094 83308100 		ld	ra,8(sp)
 178              		.cfi_restore 1
 179 0098 03340100 		ld	s0,0(sp)
 180              		.cfi_restore 8
 181              		.cfi_def_cfa 2, 16
 182 009c 13010101 		addi	sp,sp,16
 183              		.cfi_def_cfa_offset 0
 184 00a0 67800000 		jr	ra
GAS LISTING /tmp/ccq86itW.s 			page 6


 185              		.cfi_endproc
 186              	.LFE20:
 188              		.align	2
 189              		.globl	_ZdlPv
 191              	_ZdlPv:
 192              	.LFB21:
   5:src/user/syscall_cpp.cpp **** 
 193              		.loc 2 5 32 is_stmt 1
 194              		.cfi_startproc
 195              	.LVL13:
 196 00a4 130101FF 		addi	sp,sp,-16
 197              		.cfi_def_cfa_offset 16
 198 00a8 23341100 		sd	ra,8(sp)
 199 00ac 23308100 		sd	s0,0(sp)
 200              		.cfi_offset 1, -8
 201              		.cfi_offset 8, -16
 202 00b0 13040101 		addi	s0,sp,16
 203              		.cfi_def_cfa 8, 0
   5:src/user/syscall_cpp.cpp **** 
 204              		.loc 2 5 33
   5:src/user/syscall_cpp.cpp **** 
 205              		.loc 2 5 41 is_stmt 0
 206 00b4 97000000 		call	mem_free
 206      E7800000 
 207              	.LVL14:
   5:src/user/syscall_cpp.cpp **** 
 208              		.loc 2 5 47
 209 00bc 83308100 		ld	ra,8(sp)
 210              		.cfi_restore 1
 211 00c0 03340100 		ld	s0,0(sp)
 212              		.cfi_restore 8
 213              		.cfi_def_cfa 2, 16
 214 00c4 13010101 		addi	sp,sp,16
 215              		.cfi_def_cfa_offset 0
 216 00c8 67800000 		jr	ra
 217              		.cfi_endproc
 218              	.LFE21:
 220              		.align	2
 221              		.globl	_ZN6ThreadD2Ev
 223              	_ZN6ThreadD2Ev:
 224              	.LFB30:
  44:src/user/syscall_cpp.cpp **** {
 225              		.loc 2 44 1 is_stmt 1
 226              		.cfi_startproc
 227              		.cfi_personality 0x9b,DW.ref.__gxx_personality_v0
 228              		.cfi_lsda 0x1b,.LLSDA30
 229              	.LVL15:
 230 00cc 130101FF 		addi	sp,sp,-16
 231              		.cfi_def_cfa_offset 16
 232 00d0 23341100 		sd	ra,8(sp)
 233 00d4 23308100 		sd	s0,0(sp)
 234              		.cfi_offset 1, -8
 235              		.cfi_offset 8, -16
 236 00d8 13040101 		addi	s0,sp,16
 237              		.cfi_def_cfa 8, 0
 238              	.LBB9:
  44:src/user/syscall_cpp.cpp **** {
GAS LISTING /tmp/ccq86itW.s 			page 7


 239              		.loc 2 44 17 is_stmt 0
 240 00dc 97070000 		lla	a5,_ZTV6Thread+16
 240      93870700 
 241 00e4 2330F500 		sd	a5,0(a0)
 242              	.LBB10:
  46:src/user/syscall_cpp.cpp ****     delete w->handle;
 243              		.loc 2 46 5 is_stmt 1
  46:src/user/syscall_cpp.cpp ****     delete w->handle;
 244              		.loc 2 46 12 is_stmt 0
 245 00e8 03358500 		ld	a0,8(a0)
 246              	.LVL16:
  47:src/user/syscall_cpp.cpp ****     delete w;
 247              		.loc 2 47 5 is_stmt 1
  47:src/user/syscall_cpp.cpp ****     delete w;
 248              		.loc 2 47 15 is_stmt 0
 249 00ec 83370500 		ld	a5,0(a0)
 250              	.LVL17:
 251              	.LBB11:
 252              	.LBB12:
 253              		.file 3 "src/user/../../h/../h/_thread.h"
   1:src/user/../../h/../h/_thread.h **** #ifndef ___thread___hpp
   2:src/user/../../h/../h/_thread.h **** #define ___thread___hpp
   3:src/user/../../h/../h/_thread.h **** 
   4:src/user/../../h/../h/_thread.h **** #include"../lib/hw.h"
   5:src/user/../../h/../h/_thread.h **** 
   6:src/user/../../h/../h/_thread.h **** class _thread{
   7:src/user/../../h/../h/_thread.h **** public:
   8:src/user/../../h/../h/_thread.h ****     void operator delete(void* ptr){
   9:src/user/../../h/../h/_thread.h ****         asm volatile("li a0, 0x69");
 254              		.loc 3 9 9 is_stmt 1
 255              		.loc 3 9 36 is_stmt 0
 256              	 #APP
 257              	# 9 "src/user/../../h/../h/_thread.h" 1
  10              	        asm volatile("mv a1, %0" ::"r" ((uint64)ptr));
 258              		li a0, 0x69
 259              	# 0 "" 2
 260              		.loc 3 10 9 is_stmt 1
 261              		.loc 3 10 54 is_stmt 0
 262              	# 10 "src/user/../../h/../h/_thread.h" 1
  11              	        asm volatile("ecall");
 263              		mv a1, a5
 264              	# 0 "" 2
 265              		.loc 3 11 9 is_stmt 1
 266              		.loc 3 11 30 is_stmt 0
 267              	# 11 "src/user/../../h/../h/_thread.h" 1
  12              	    }
 268              		ecall
 269              	# 0 "" 2
 270              	.LVL18:
 271              	 #NO_APP
 272              	.LBE12:
 273              	.LBE11:
  48:src/user/syscall_cpp.cpp **** }
 274              		.loc 2 48 5 is_stmt 1
  48:src/user/syscall_cpp.cpp **** }
 275              		.loc 2 48 12 is_stmt 0
 276 00fc 97000000 		call	_ZdlPv
GAS LISTING /tmp/ccq86itW.s 			page 8


 276      E7800000 
 277              	.LVL19:
 278              	.LBE10:
 279              	.LBE9:
  49:src/user/syscall_cpp.cpp **** 
 280              		.loc 2 49 1
 281 0104 83308100 		ld	ra,8(sp)
 282              		.cfi_restore 1
 283 0108 03340100 		ld	s0,0(sp)
 284              		.cfi_restore 8
 285              		.cfi_def_cfa 2, 16
 286 010c 13010101 		addi	sp,sp,16
 287              		.cfi_def_cfa_offset 0
 288 0110 67800000 		jr	ra
 289              		.cfi_endproc
 290              	.LFE30:
 291              		.globl	__gxx_personality_v0
 292              		.section	.gcc_except_table,"aw",@progbits
 293              	.LLSDA30:
 294 0000 FF       		.byte	0xff
 295 0001 FF       		.byte	0xff
 296 0002 03       		.byte	0x3
 297 0003 00       		.byte	0
 298              		.text
 300              		.globl	_ZN6ThreadD1Ev
 301              		.set	_ZN6ThreadD1Ev,_ZN6ThreadD2Ev
 302              		.section	.text._ZN14PeriodicThreadD2Ev,"axG",@progbits,_ZN14PeriodicThreadD5Ev,comdat
 303              		.align	2
 304              		.weak	_ZN14PeriodicThreadD2Ev
 306              	_ZN14PeriodicThreadD2Ev:
 307              	.LFB38:
  33:src/user/../../h/syscall_cpp.hpp **** protected:
 308              		.loc 1 33 7 is_stmt 1
 309              		.cfi_startproc
 310              	.LVL20:
 311 0000 130101FF 		addi	sp,sp,-16
 312              		.cfi_def_cfa_offset 16
 313 0004 23341100 		sd	ra,8(sp)
 314 0008 23308100 		sd	s0,0(sp)
 315              		.cfi_offset 1, -8
 316              		.cfi_offset 8, -16
 317 000c 13040101 		addi	s0,sp,16
 318              		.cfi_def_cfa 8, 0
 319              	.LBB13:
  33:src/user/../../h/syscall_cpp.hpp **** protected:
 320              		.loc 1 33 7 is_stmt 0
 321 0010 97070000 		lla	a5,_ZTV14PeriodicThread+16
 321      93870700 
 322 0018 2330F500 		sd	a5,0(a0)
 323 001c 97000000 		call	_ZN6ThreadD2Ev
 323      E7800000 
 324              	.LVL21:
 325              	.LBE13:
 326 0024 83308100 		ld	ra,8(sp)
 327              		.cfi_restore 1
 328 0028 03340100 		ld	s0,0(sp)
 329              		.cfi_restore 8
GAS LISTING /tmp/ccq86itW.s 			page 9


 330              		.cfi_def_cfa 2, 16
 331 002c 13010101 		addi	sp,sp,16
 332              		.cfi_def_cfa_offset 0
 333 0030 67800000 		jr	ra
 334              		.cfi_endproc
 335              	.LFE38:
 337              		.weak	_ZN14PeriodicThreadD1Ev
 338              		.set	_ZN14PeriodicThreadD1Ev,_ZN14PeriodicThreadD2Ev
 339              		.text
 340              		.align	2
 341              		.globl	_ZN6ThreadD0Ev
 343              	_ZN6ThreadD0Ev:
 344              	.LFB32:
  44:src/user/syscall_cpp.cpp **** {
 345              		.loc 2 44 1 is_stmt 1
 346              		.cfi_startproc
 347              	.LVL22:
 348 0114 130101FE 		addi	sp,sp,-32
 349              		.cfi_def_cfa_offset 32
 350 0118 233C1100 		sd	ra,24(sp)
 351 011c 23388100 		sd	s0,16(sp)
 352 0120 23349100 		sd	s1,8(sp)
 353              		.cfi_offset 1, -8
 354              		.cfi_offset 8, -16
 355              		.cfi_offset 9, -24
 356 0124 13040102 		addi	s0,sp,32
 357              		.cfi_def_cfa 8, 0
 358 0128 93040500 		mv	s1,a0
  49:src/user/syscall_cpp.cpp **** 
 359              		.loc 2 49 1 is_stmt 0
 360 012c 97000000 		call	_ZN6ThreadD1Ev
 360      E7800000 
 361              	.LVL23:
 362 0134 13850400 		mv	a0,s1
 363 0138 97000000 		call	_ZdlPv
 363      E7800000 
 364              	.LVL24:
 365 0140 83308101 		ld	ra,24(sp)
 366              		.cfi_restore 1
 367 0144 03340101 		ld	s0,16(sp)
 368              		.cfi_restore 8
 369              		.cfi_def_cfa 2, 32
 370 0148 83348100 		ld	s1,8(sp)
 371              		.cfi_restore 9
 372              	.LVL25:
 373 014c 13010102 		addi	sp,sp,32
 374              		.cfi_def_cfa_offset 0
 375 0150 67800000 		jr	ra
 376              		.cfi_endproc
 377              	.LFE32:
 379              		.section	.text._ZN14PeriodicThreadD0Ev,"axG",@progbits,_ZN14PeriodicThreadD5Ev,comdat
 380              		.align	2
 381              		.weak	_ZN14PeriodicThreadD0Ev
 383              	_ZN14PeriodicThreadD0Ev:
 384              	.LFB40:
  33:src/user/../../h/syscall_cpp.hpp **** protected:
 385              		.loc 1 33 7 is_stmt 1
GAS LISTING /tmp/ccq86itW.s 			page 10


 386              		.cfi_startproc
 387              	.LVL26:
 388 0000 130101FE 		addi	sp,sp,-32
 389              		.cfi_def_cfa_offset 32
 390 0004 233C1100 		sd	ra,24(sp)
 391 0008 23388100 		sd	s0,16(sp)
 392 000c 23349100 		sd	s1,8(sp)
 393              		.cfi_offset 1, -8
 394              		.cfi_offset 8, -16
 395              		.cfi_offset 9, -24
 396 0010 13040102 		addi	s0,sp,32
 397              		.cfi_def_cfa 8, 0
 398 0014 93040500 		mv	s1,a0
 399              	.LVL27:
 400              	.LBB14:
 401              	.LBB15:
  33:src/user/../../h/syscall_cpp.hpp **** protected:
 402              		.loc 1 33 7 is_stmt 0
 403 0018 97070000 		lla	a5,_ZTV14PeriodicThread+16
 403      93870700 
 404 0020 2330F500 		sd	a5,0(a0)
 405 0024 97000000 		call	_ZN6ThreadD2Ev
 405      E7800000 
 406              	.LVL28:
 407              	.LBE15:
 408              	.LBE14:
 409 002c 13850400 		mv	a0,s1
 410 0030 97000000 		call	_ZdlPv
 410      E7800000 
 411              	.LVL29:
 412 0038 83308101 		ld	ra,24(sp)
 413              		.cfi_restore 1
 414 003c 03340101 		ld	s0,16(sp)
 415              		.cfi_restore 8
 416              		.cfi_def_cfa 2, 32
 417 0040 83348100 		ld	s1,8(sp)
 418              		.cfi_restore 9
 419              	.LVL30:
 420 0044 13010102 		addi	sp,sp,32
 421              		.cfi_def_cfa_offset 0
 422 0048 67800000 		jr	ra
 423              		.cfi_endproc
 424              	.LFE40:
 426              		.text
 427              		.align	2
 428              		.globl	_Znam
 430              	_Znam:
 431              	.LFB22:
   7:src/user/syscall_cpp.cpp **** void operator delete[](void* ptr){mem_free(ptr);}
 432              		.loc 2 7 32 is_stmt 1
 433              		.cfi_startproc
 434              	.LVL31:
 435 0154 130101FF 		addi	sp,sp,-16
 436              		.cfi_def_cfa_offset 16
 437 0158 23341100 		sd	ra,8(sp)
 438 015c 23308100 		sd	s0,0(sp)
 439              		.cfi_offset 1, -8
GAS LISTING /tmp/ccq86itW.s 			page 11


 440              		.cfi_offset 8, -16
 441 0160 13040101 		addi	s0,sp,16
 442              		.cfi_def_cfa 8, 0
   7:src/user/syscall_cpp.cpp **** void operator delete[](void* ptr){mem_free(ptr);}
 443              		.loc 2 7 33
   7:src/user/syscall_cpp.cpp **** void operator delete[](void* ptr){mem_free(ptr);}
 444              		.loc 2 7 49 is_stmt 0
 445 0164 97000000 		call	mem_alloc
 445      E7800000 
 446              	.LVL32:
   7:src/user/syscall_cpp.cpp **** void operator delete[](void* ptr){mem_free(ptr);}
 447              		.loc 2 7 54
 448 016c 83308100 		ld	ra,8(sp)
 449              		.cfi_restore 1
 450 0170 03340100 		ld	s0,0(sp)
 451              		.cfi_restore 8
 452              		.cfi_def_cfa 2, 16
 453 0174 13010101 		addi	sp,sp,16
 454              		.cfi_def_cfa_offset 0
 455 0178 67800000 		jr	ra
 456              		.cfi_endproc
 457              	.LFE22:
 459              		.align	2
 460              		.globl	_ZdaPv
 462              	_ZdaPv:
 463              	.LFB23:
   8:src/user/syscall_cpp.cpp **** 
 464              		.loc 2 8 34 is_stmt 1
 465              		.cfi_startproc
 466              	.LVL33:
 467 017c 130101FF 		addi	sp,sp,-16
 468              		.cfi_def_cfa_offset 16
 469 0180 23341100 		sd	ra,8(sp)
 470 0184 23308100 		sd	s0,0(sp)
 471              		.cfi_offset 1, -8
 472              		.cfi_offset 8, -16
 473 0188 13040101 		addi	s0,sp,16
 474              		.cfi_def_cfa 8, 0
   8:src/user/syscall_cpp.cpp **** 
 475              		.loc 2 8 35
   8:src/user/syscall_cpp.cpp **** 
 476              		.loc 2 8 43 is_stmt 0
 477 018c 97000000 		call	mem_free
 477      E7800000 
 478              	.LVL34:
   8:src/user/syscall_cpp.cpp **** 
 479              		.loc 2 8 49
 480 0194 83308100 		ld	ra,8(sp)
 481              		.cfi_restore 1
 482 0198 03340100 		ld	s0,0(sp)
 483              		.cfi_restore 8
 484              		.cfi_def_cfa 2, 16
 485 019c 13010101 		addi	sp,sp,16
 486              		.cfi_def_cfa_offset 0
 487 01a0 67800000 		jr	ra
 488              		.cfi_endproc
 489              	.LFE23:
GAS LISTING /tmp/ccq86itW.s 			page 12


 491              		.align	2
 492              		.globl	_ZN6ThreadC2EPFvPvES0_
 494              	_ZN6ThreadC2EPFvPvES0_:
 495              	.LFB25:
  19:src/user/syscall_cpp.cpp **** {
 496              		.loc 2 19 1 is_stmt 1
 497              		.cfi_startproc
 498              	.LVL35:
 499 01a4 130101FD 		addi	sp,sp,-48
 500              		.cfi_def_cfa_offset 48
 501 01a8 23341102 		sd	ra,40(sp)
 502 01ac 23308102 		sd	s0,32(sp)
 503 01b0 233C9100 		sd	s1,24(sp)
 504 01b4 23382101 		sd	s2,16(sp)
 505 01b8 23343101 		sd	s3,8(sp)
 506              		.cfi_offset 1, -8
 507              		.cfi_offset 8, -16
 508              		.cfi_offset 9, -24
 509              		.cfi_offset 18, -32
 510              		.cfi_offset 19, -40
 511 01bc 13040103 		addi	s0,sp,48
 512              		.cfi_def_cfa 8, 0
 513 01c0 93040500 		mv	s1,a0
 514 01c4 93890500 		mv	s3,a1
 515 01c8 13090600 		mv	s2,a2
 516              	.LBB16:
  19:src/user/syscall_cpp.cpp **** {
 517              		.loc 2 19 46 is_stmt 0
 518 01cc 97070000 		lla	a5,_ZTV6Thread+16
 518      93870700 
 519 01d4 2330F500 		sd	a5,0(a0)
  21:src/user/syscall_cpp.cpp **** }
 520              		.loc 2 21 5 is_stmt 1
  21:src/user/syscall_cpp.cpp **** }
 521              		.loc 2 21 55 is_stmt 0
 522 01d8 13058001 		li	a0,24
 523              	.LVL36:
 524 01dc 97000000 		call	_Znwm
 524      E7800000 
 525              	.LVL37:
 526 01e4 23300500 		sd	zero,0(a0)
 527 01e8 23343501 		sd	s3,8(a0)
 528 01ec 23382501 		sd	s2,16(a0)
  21:src/user/syscall_cpp.cpp **** }
 529              		.loc 2 21 14
 530 01f0 23B4A400 		sd	a0,8(s1)
 531              	.LBE16:
  22:src/user/syscall_cpp.cpp **** 
 532              		.loc 2 22 1
 533 01f4 83308102 		ld	ra,40(sp)
 534              		.cfi_restore 1
 535 01f8 03340102 		ld	s0,32(sp)
 536              		.cfi_restore 8
 537              		.cfi_def_cfa 2, 48
 538 01fc 83348101 		ld	s1,24(sp)
 539              		.cfi_restore 9
 540              	.LVL38:
GAS LISTING /tmp/ccq86itW.s 			page 13


 541 0200 03390101 		ld	s2,16(sp)
 542              		.cfi_restore 18
 543              	.LVL39:
 544 0204 83398100 		ld	s3,8(sp)
 545              		.cfi_restore 19
 546              	.LVL40:
 547 0208 13010103 		addi	sp,sp,48
 548              		.cfi_def_cfa_offset 0
 549 020c 67800000 		jr	ra
 550              		.cfi_endproc
 551              	.LFE25:
 553              		.globl	_ZN6ThreadC1EPFvPvES0_
 554              		.set	_ZN6ThreadC1EPFvPvES0_,_ZN6ThreadC2EPFvPvES0_
 555              		.align	2
 556              		.globl	_ZN6Thread5startEv
 558              	_ZN6Thread5startEv:
 559              	.LFB27:
  24:src/user/syscall_cpp.cpp ****     if(myHandle)
 560              		.loc 2 24 21 is_stmt 1
 561              		.cfi_startproc
 562              	.LVL41:
 563 0210 130101FE 		addi	sp,sp,-32
 564              		.cfi_def_cfa_offset 32
 565 0214 233C1100 		sd	ra,24(sp)
 566 0218 23388100 		sd	s0,16(sp)
 567 021c 23349100 		sd	s1,8(sp)
 568              		.cfi_offset 1, -8
 569              		.cfi_offset 8, -16
 570              		.cfi_offset 9, -24
 571 0220 13040102 		addi	s0,sp,32
 572              		.cfi_def_cfa 8, 0
 573 0224 93040500 		mv	s1,a0
  25:src/user/syscall_cpp.cpp ****     {
 574              		.loc 2 25 5
 575              	.LBB17:
  25:src/user/syscall_cpp.cpp ****     {
 576              		.loc 2 25 8 is_stmt 0
 577 0228 03358500 		ld	a0,8(a0)
 578              	.LVL42:
  25:src/user/syscall_cpp.cpp ****     {
 579              		.loc 2 25 5
 580 022c 63040502 		beq	a0,zero,.L30
 581              	.LBB18:
  27:src/user/syscall_cpp.cpp ****         thread_create(&w->handle, w->body, w->arg);    
 582              		.loc 2 27 9 is_stmt 1
 583              	.LVL43:
  28:src/user/syscall_cpp.cpp ****     }
 584              		.loc 2 28 9
  28:src/user/syscall_cpp.cpp ****     }
 585              		.loc 2 28 22 is_stmt 0
 586 0230 03360501 		ld	a2,16(a0)
 587 0234 83358500 		ld	a1,8(a0)
 588 0238 97000000 		call	thread_create
 588      E7800000 
 589              	.LVL44:
 590              	.L29:
 591              	.LBE18:
GAS LISTING /tmp/ccq86itW.s 			page 14


 592              	.LBE17:
  36:src/user/syscall_cpp.cpp **** 
 593              		.loc 2 36 1
 594 0240 83308101 		ld	ra,24(sp)
 595              		.cfi_remember_state
 596              		.cfi_restore 1
 597 0244 03340101 		ld	s0,16(sp)
 598              		.cfi_restore 8
 599              		.cfi_def_cfa 2, 32
 600 0248 83348100 		ld	s1,8(sp)
 601              		.cfi_restore 9
 602              	.LVL45:
 603 024c 13010102 		addi	sp,sp,32
 604              		.cfi_def_cfa_offset 0
 605 0250 67800000 		jr	ra
 606              	.LVL46:
 607              	.L30:
 608              		.cfi_restore_state
 609              	.LBB20:
 610              	.LBB19:
  32:src/user/syscall_cpp.cpp ****         myHandle = (thread_t)w;
 611              		.loc 2 32 9 is_stmt 1
  32:src/user/syscall_cpp.cpp ****         myHandle = (thread_t)w;
 612              		.loc 2 32 55 is_stmt 0
 613 0254 13058001 		li	a0,24
 614 0258 97000000 		call	_Znwm
 614      E7800000 
 615              	.LVL47:
 616 0260 23300500 		sd	zero,0(a0)
 617 0264 23340500 		sd	zero,8(a0)
 618 0268 23380500 		sd	zero,16(a0)
 619              	.LVL48:
  33:src/user/syscall_cpp.cpp ****         thread_create(&w->handle, &runWrapper, this);   
 620              		.loc 2 33 9 is_stmt 1
  33:src/user/syscall_cpp.cpp ****         thread_create(&w->handle, &runWrapper, this);   
 621              		.loc 2 33 18 is_stmt 0
 622 026c 23B4A400 		sd	a0,8(s1)
  34:src/user/syscall_cpp.cpp ****     }
 623              		.loc 2 34 9 is_stmt 1
  34:src/user/syscall_cpp.cpp ****     }
 624              		.loc 2 34 22 is_stmt 0
 625 0270 13860400 		mv	a2,s1
 626 0274 97050000 		lla	a1,_ZN6Thread10runWrapperEPv
 626      93850500 
 627 027c 97000000 		call	thread_create
 627      E7800000 
 628              	.LVL49:
 629              	.LBE19:
 630              	.LBE20:
  36:src/user/syscall_cpp.cpp **** 
 631              		.loc 2 36 1
 632 0284 6FF0DFFB 		j	.L29
 633              		.cfi_endproc
 634              	.LFE27:
 636              		.align	2
 637              		.globl	_ZN14PeriodicThreadC2Em
 639              	_ZN14PeriodicThreadC2Em:
GAS LISTING /tmp/ccq86itW.s 			page 15


 640              	.LFB34:
  58:src/user/syscall_cpp.cpp **** Thread(periodicWrapper, new _WrapPeriod{this, period}){}
 641              		.loc 2 58 1 is_stmt 1
 642              		.cfi_startproc
 643              	.LVL50:
 644 0288 130101FE 		addi	sp,sp,-32
 645              		.cfi_def_cfa_offset 32
 646 028c 233C1100 		sd	ra,24(sp)
 647 0290 23388100 		sd	s0,16(sp)
 648 0294 23349100 		sd	s1,8(sp)
 649 0298 23302101 		sd	s2,0(sp)
 650              		.cfi_offset 1, -8
 651              		.cfi_offset 8, -16
 652              		.cfi_offset 9, -24
 653              		.cfi_offset 18, -32
 654 029c 13040102 		addi	s0,sp,32
 655              		.cfi_def_cfa 8, 0
 656 02a0 93040500 		mv	s1,a0
 657 02a4 13890500 		mv	s2,a1
 658              	.LBB21:
  59:src/user/syscall_cpp.cpp **** 
 659              		.loc 2 59 53 is_stmt 0
 660 02a8 13050001 		li	a0,16
 661              	.LVL51:
 662 02ac 97000000 		call	_Znwm
 662      E7800000 
 663              	.LVL52:
 664 02b4 13060500 		mv	a2,a0
 665 02b8 23309500 		sd	s1,0(a0)
 666 02bc 23342501 		sd	s2,8(a0)
  59:src/user/syscall_cpp.cpp **** 
 667              		.loc 2 59 54
 668 02c0 97050000 		lla	a1,_ZN14PeriodicThread15periodicWrapperEPv
 668      93850500 
 669 02c8 13850400 		mv	a0,s1
 670 02cc 97000000 		call	_ZN6ThreadC2EPFvPvES0_
 670      E7800000 
 671              	.LVL53:
 672 02d4 97070000 		lla	a5,_ZTV14PeriodicThread+16
 672      93870700 
 673 02dc 23B0F400 		sd	a5,0(s1)
 674              	.LBE21:
  59:src/user/syscall_cpp.cpp **** 
 675              		.loc 2 59 56
 676 02e0 83308101 		ld	ra,24(sp)
 677              		.cfi_restore 1
 678 02e4 03340101 		ld	s0,16(sp)
 679              		.cfi_restore 8
 680              		.cfi_def_cfa 2, 32
 681 02e8 83348100 		ld	s1,8(sp)
 682              		.cfi_restore 9
 683              	.LVL54:
 684 02ec 03390100 		ld	s2,0(sp)
 685              		.cfi_restore 18
 686              	.LVL55:
 687 02f0 13010102 		addi	sp,sp,32
 688              		.cfi_def_cfa_offset 0
GAS LISTING /tmp/ccq86itW.s 			page 16


 689 02f4 67800000 		jr	ra
 690              		.cfi_endproc
 691              	.LFE34:
 693              		.globl	_ZN14PeriodicThreadC1Em
 694              		.set	_ZN14PeriodicThreadC1Em,_ZN14PeriodicThreadC2Em
 695              		.weak	_ZTV14PeriodicThread
 696              		.section	.rodata._ZTV14PeriodicThread,"aG",@progbits,_ZTV14PeriodicThread,comdat
 697              		.align	3
 700              	_ZTV14PeriodicThread:
 701 0000 00000000 		.dword	0
 701      00000000 
 702 0008 00000000 		.dword	0
 702      00000000 
 703 0010 00000000 		.dword	_ZN14PeriodicThreadD1Ev
 703      00000000 
 704 0018 00000000 		.dword	_ZN14PeriodicThreadD0Ev
 704      00000000 
 705 0020 00000000 		.dword	_ZN6Thread3runEv
 705      00000000 
 706 0028 00000000 		.dword	_ZN14PeriodicThread18periodicActivationEv
 706      00000000 
 707              		.weak	_ZTV6Thread
 708              		.section	.rodata._ZTV6Thread,"aG",@progbits,_ZTV6Thread,comdat
 709              		.align	3
 712              	_ZTV6Thread:
 713 0000 00000000 		.dword	0
 713      00000000 
 714 0008 00000000 		.dword	0
 714      00000000 
 715 0010 00000000 		.dword	_ZN6ThreadD1Ev
 715      00000000 
 716 0018 00000000 		.dword	_ZN6ThreadD0Ev
 716      00000000 
 717 0020 00000000 		.dword	_ZN6Thread3runEv
 717      00000000 
 718              		.text
 719              	.Letext0:
 720              		.file 4 "src/user/../../h/../lib/hw.h"
 721              		.file 5 "src/user/../../h/syscall_c.h"
 3373              		.align	3
 3376              	DW.ref.__gxx_personality_v0:
 3377 0000 00000000 		.dword	__gxx_personality_v0
 3377      00000000 
 3378              		.ident	"GCC: () 8.3.0"
GAS LISTING /tmp/ccq86itW.s 			page 17


DEFINED SYMBOLS
                            *ABS*:0000000000000000 syscall_cpp.cpp
     /tmp/ccq86itW.s:13     .text._ZN6Thread3runEv:0000000000000000 _ZN6Thread3runEv
     /tmp/ccq86itW.s:17     .text._ZN6Thread3runEv:0000000000000000 .L0 
     /tmp/ccq86itW.s:19     .text._ZN6Thread3runEv:0000000000000000 .L0 
     /tmp/ccq86itW.s:20     .text._ZN6Thread3runEv:0000000000000004 .L0 
     /tmp/ccq86itW.s:22     .text._ZN6Thread3runEv:0000000000000008 .L0 
     /tmp/ccq86itW.s:24     .text._ZN6Thread3runEv:000000000000000c .L0 
     /tmp/ccq86itW.s:26     .text._ZN6Thread3runEv:000000000000000c .L0 
     /tmp/ccq86itW.s:27     .text._ZN6Thread3runEv:0000000000000010 .L0 
     /tmp/ccq86itW.s:28     .text._ZN6Thread3runEv:0000000000000010 .L0 
     /tmp/ccq86itW.s:30     .text._ZN6Thread3runEv:0000000000000014 .L0 
     /tmp/ccq86itW.s:32     .text._ZN6Thread3runEv:0000000000000018 .L0 
     /tmp/ccq86itW.s:39     .text._ZN14PeriodicThread18periodicActivationEv:0000000000000000 _ZN14PeriodicThread18periodicActivationEv
     /tmp/ccq86itW.s:42     .text._ZN14PeriodicThread18periodicActivationEv:0000000000000000 .L0 
     /tmp/ccq86itW.s:44     .text._ZN14PeriodicThread18periodicActivationEv:0000000000000000 .L0 
     /tmp/ccq86itW.s:45     .text._ZN14PeriodicThread18periodicActivationEv:0000000000000004 .L0 
     /tmp/ccq86itW.s:47     .text._ZN14PeriodicThread18periodicActivationEv:0000000000000008 .L0 
     /tmp/ccq86itW.s:49     .text._ZN14PeriodicThread18periodicActivationEv:000000000000000c .L0 
     /tmp/ccq86itW.s:51     .text._ZN14PeriodicThread18periodicActivationEv:000000000000000c .L0 
     /tmp/ccq86itW.s:52     .text._ZN14PeriodicThread18periodicActivationEv:0000000000000010 .L0 
     /tmp/ccq86itW.s:53     .text._ZN14PeriodicThread18periodicActivationEv:0000000000000010 .L0 
     /tmp/ccq86itW.s:55     .text._ZN14PeriodicThread18periodicActivationEv:0000000000000014 .L0 
     /tmp/ccq86itW.s:57     .text._ZN14PeriodicThread18periodicActivationEv:0000000000000018 .L0 
     /tmp/ccq86itW.s:64     .text:0000000000000000 _ZN6Thread10runWrapperEPv
     /tmp/ccq86itW.s:68     .text:0000000000000000 .L0 
     /tmp/ccq86itW.s:70     .text:0000000000000000 .L0 
     /tmp/ccq86itW.s:71     .text:0000000000000004 .L0 
     /tmp/ccq86itW.s:74     .text:000000000000000c .L0 
     /tmp/ccq86itW.s:75     .text:000000000000000c .L0 
     /tmp/ccq86itW.s:77     .text:0000000000000010 .L0 
     /tmp/ccq86itW.s:80     .text:0000000000000010 .L0 
     /tmp/ccq86itW.s:81     .text:0000000000000010 .L0 
     /tmp/ccq86itW.s:82     .text:0000000000000010 .L0 
     /tmp/ccq86itW.s:85     .text:0000000000000018 .L0 
     /tmp/ccq86itW.s:88     .text:000000000000001c .L0 
     /tmp/ccq86itW.s:89     .text:0000000000000020 .L0 
     /tmp/ccq86itW.s:91     .text:0000000000000024 .L0 
     /tmp/ccq86itW.s:92     .text:0000000000000024 .L0 
     /tmp/ccq86itW.s:94     .text:0000000000000028 .L0 
     /tmp/ccq86itW.s:96     .text:000000000000002c .L0 
     /tmp/ccq86itW.s:102    .text:000000000000002c _ZN14PeriodicThread15periodicWrapperEPv
     /tmp/ccq86itW.s:105    .text:000000000000002c .L0 
     /tmp/ccq86itW.s:107    .text:000000000000002c .L0 
     /tmp/ccq86itW.s:108    .text:0000000000000030 .L0 
     /tmp/ccq86itW.s:112    .text:000000000000003c .L0 
     /tmp/ccq86itW.s:113    .text:000000000000003c .L0 
     /tmp/ccq86itW.s:114    .text:000000000000003c .L0 
     /tmp/ccq86itW.s:116    .text:0000000000000040 .L0 
     /tmp/ccq86itW.s:120    .text:0000000000000044 .L0 
     /tmp/ccq86itW.s:121    .text:0000000000000044 .L0 
     /tmp/ccq86itW.s:125    .text:0000000000000048 .L0 
     /tmp/ccq86itW.s:126    .text:0000000000000048 .L0 
     /tmp/ccq86itW.s:127    .text:0000000000000048 .L0 
     /tmp/ccq86itW.s:129    .text:000000000000004c .L0 
     /tmp/ccq86itW.s:132    .text:0000000000000054 .L0 
     /tmp/ccq86itW.s:135    .text:0000000000000058 .L0 
GAS LISTING /tmp/ccq86itW.s 			page 18


     /tmp/ccq86itW.s:136    .text:0000000000000058 .L0 
     /tmp/ccq86itW.s:142    .text:0000000000000068 .L0 
     /tmp/ccq86itW.s:143    .text:000000000000006c .L0 
     /tmp/ccq86itW.s:145    .text:0000000000000070 .L0 
     /tmp/ccq86itW.s:146    .text:0000000000000070 .L0 
     /tmp/ccq86itW.s:148    .text:0000000000000074 .L0 
     /tmp/ccq86itW.s:151    .text:0000000000000078 .L0 
     /tmp/ccq86itW.s:153    .text:000000000000007c .L0 
     /tmp/ccq86itW.s:159    .text:000000000000007c _Znwm
     /tmp/ccq86itW.s:162    .text:000000000000007c .L0 
     /tmp/ccq86itW.s:164    .text:000000000000007c .L0 
     /tmp/ccq86itW.s:165    .text:0000000000000080 .L0 
     /tmp/ccq86itW.s:168    .text:0000000000000088 .L0 
     /tmp/ccq86itW.s:169    .text:0000000000000088 .L0 
     /tmp/ccq86itW.s:171    .text:000000000000008c .L0 
     /tmp/ccq86itW.s:173    .text:000000000000008c .L0 
     /tmp/ccq86itW.s:174    .text:000000000000008c .L0 
     /tmp/ccq86itW.s:177    .text:0000000000000094 .L0 
     /tmp/ccq86itW.s:178    .text:0000000000000098 .L0 
     /tmp/ccq86itW.s:180    .text:000000000000009c .L0 
     /tmp/ccq86itW.s:181    .text:000000000000009c .L0 
     /tmp/ccq86itW.s:183    .text:00000000000000a0 .L0 
     /tmp/ccq86itW.s:185    .text:00000000000000a4 .L0 
     /tmp/ccq86itW.s:191    .text:00000000000000a4 _ZdlPv
     /tmp/ccq86itW.s:194    .text:00000000000000a4 .L0 
     /tmp/ccq86itW.s:196    .text:00000000000000a4 .L0 
     /tmp/ccq86itW.s:197    .text:00000000000000a8 .L0 
     /tmp/ccq86itW.s:200    .text:00000000000000b0 .L0 
     /tmp/ccq86itW.s:201    .text:00000000000000b0 .L0 
     /tmp/ccq86itW.s:203    .text:00000000000000b4 .L0 
     /tmp/ccq86itW.s:205    .text:00000000000000b4 .L0 
     /tmp/ccq86itW.s:206    .text:00000000000000b4 .L0 
     /tmp/ccq86itW.s:209    .text:00000000000000bc .L0 
     /tmp/ccq86itW.s:210    .text:00000000000000c0 .L0 
     /tmp/ccq86itW.s:212    .text:00000000000000c4 .L0 
     /tmp/ccq86itW.s:213    .text:00000000000000c4 .L0 
     /tmp/ccq86itW.s:215    .text:00000000000000c8 .L0 
     /tmp/ccq86itW.s:217    .text:00000000000000cc .L0 
     /tmp/ccq86itW.s:223    .text:00000000000000cc _ZN6ThreadD2Ev
     /tmp/ccq86itW.s:226    .text:00000000000000cc .L0 
     /tmp/ccq86itW.s:3376   .sdata.DW.ref.__gxx_personality_v0:0000000000000000 DW.ref.__gxx_personality_v0
     /tmp/ccq86itW.s:230    .text:00000000000000cc .L0 
     /tmp/ccq86itW.s:231    .text:00000000000000d0 .L0 
     /tmp/ccq86itW.s:234    .text:00000000000000d8 .L0 
     /tmp/ccq86itW.s:235    .text:00000000000000d8 .L0 
     /tmp/ccq86itW.s:237    .text:00000000000000dc .L0 
     /tmp/ccq86itW.s:712    .rodata._ZTV6Thread:0000000000000000 _ZTV6Thread
     /tmp/ccq86itW.s:240    .text:00000000000000dc .L0 
     /tmp/ccq86itW.s:244    .text:00000000000000e8 .L0 
     /tmp/ccq86itW.s:245    .text:00000000000000e8 .L0 
     /tmp/ccq86itW.s:248    .text:00000000000000ec .L0 
     /tmp/ccq86itW.s:249    .text:00000000000000ec .L0 
     /tmp/ccq86itW.s:255    .text:00000000000000f0 .L0 
src/user/../../h/../h/_thread.h:9      .text:00000000000000f0 .L0 
     /tmp/ccq86itW.s:261    .text:00000000000000f4 .L0 
src/user/../../h/../h/_thread.h:10     .text:00000000000000f4 .L0 
     /tmp/ccq86itW.s:266    .text:00000000000000f8 .L0 
GAS LISTING /tmp/ccq86itW.s 			page 19


src/user/../../h/../h/_thread.h:11     .text:00000000000000f8 .L0 
     /tmp/ccq86itW.s:275    .text:00000000000000fc .L0 
     /tmp/ccq86itW.s:276    .text:00000000000000fc .L0 
     /tmp/ccq86itW.s:281    .text:0000000000000104 .L0 
     /tmp/ccq86itW.s:282    .text:0000000000000108 .L0 
     /tmp/ccq86itW.s:284    .text:000000000000010c .L0 
     /tmp/ccq86itW.s:285    .text:000000000000010c .L0 
     /tmp/ccq86itW.s:287    .text:0000000000000110 .L0 
     /tmp/ccq86itW.s:289    .text:0000000000000114 .L0 
     /tmp/ccq86itW.s:223    .text:00000000000000cc _ZN6ThreadD1Ev
     /tmp/ccq86itW.s:306    .text._ZN14PeriodicThreadD2Ev:0000000000000000 _ZN14PeriodicThreadD2Ev
     /tmp/ccq86itW.s:309    .text._ZN14PeriodicThreadD2Ev:0000000000000000 .L0 
     /tmp/ccq86itW.s:311    .text._ZN14PeriodicThreadD2Ev:0000000000000000 .L0 
     /tmp/ccq86itW.s:312    .text._ZN14PeriodicThreadD2Ev:0000000000000004 .L0 
     /tmp/ccq86itW.s:315    .text._ZN14PeriodicThreadD2Ev:000000000000000c .L0 
     /tmp/ccq86itW.s:316    .text._ZN14PeriodicThreadD2Ev:000000000000000c .L0 
     /tmp/ccq86itW.s:318    .text._ZN14PeriodicThreadD2Ev:0000000000000010 .L0 
     /tmp/ccq86itW.s:700    .rodata._ZTV14PeriodicThread:0000000000000000 _ZTV14PeriodicThread
     /tmp/ccq86itW.s:321    .text._ZN14PeriodicThreadD2Ev:0000000000000010 .L0 
     /tmp/ccq86itW.s:327    .text._ZN14PeriodicThreadD2Ev:0000000000000028 .L0 
     /tmp/ccq86itW.s:329    .text._ZN14PeriodicThreadD2Ev:000000000000002c .L0 
     /tmp/ccq86itW.s:330    .text._ZN14PeriodicThreadD2Ev:000000000000002c .L0 
     /tmp/ccq86itW.s:332    .text._ZN14PeriodicThreadD2Ev:0000000000000030 .L0 
     /tmp/ccq86itW.s:334    .text._ZN14PeriodicThreadD2Ev:0000000000000034 .L0 
     /tmp/ccq86itW.s:306    .text._ZN14PeriodicThreadD2Ev:0000000000000000 _ZN14PeriodicThreadD1Ev
     /tmp/ccq86itW.s:343    .text:0000000000000114 _ZN6ThreadD0Ev
     /tmp/ccq86itW.s:346    .text:0000000000000114 .L0 
     /tmp/ccq86itW.s:348    .text:0000000000000114 .L0 
     /tmp/ccq86itW.s:349    .text:0000000000000118 .L0 
     /tmp/ccq86itW.s:353    .text:0000000000000124 .L0 
     /tmp/ccq86itW.s:354    .text:0000000000000124 .L0 
     /tmp/ccq86itW.s:355    .text:0000000000000124 .L0 
     /tmp/ccq86itW.s:357    .text:0000000000000128 .L0 
     /tmp/ccq86itW.s:360    .text:000000000000012c .L0 
     /tmp/ccq86itW.s:366    .text:0000000000000144 .L0 
     /tmp/ccq86itW.s:368    .text:0000000000000148 .L0 
     /tmp/ccq86itW.s:369    .text:0000000000000148 .L0 
     /tmp/ccq86itW.s:371    .text:000000000000014c .L0 
     /tmp/ccq86itW.s:374    .text:0000000000000150 .L0 
     /tmp/ccq86itW.s:376    .text:0000000000000154 .L0 
     /tmp/ccq86itW.s:383    .text._ZN14PeriodicThreadD0Ev:0000000000000000 _ZN14PeriodicThreadD0Ev
     /tmp/ccq86itW.s:386    .text._ZN14PeriodicThreadD0Ev:0000000000000000 .L0 
     /tmp/ccq86itW.s:388    .text._ZN14PeriodicThreadD0Ev:0000000000000000 .L0 
     /tmp/ccq86itW.s:389    .text._ZN14PeriodicThreadD0Ev:0000000000000004 .L0 
     /tmp/ccq86itW.s:393    .text._ZN14PeriodicThreadD0Ev:0000000000000010 .L0 
     /tmp/ccq86itW.s:394    .text._ZN14PeriodicThreadD0Ev:0000000000000010 .L0 
     /tmp/ccq86itW.s:395    .text._ZN14PeriodicThreadD0Ev:0000000000000010 .L0 
     /tmp/ccq86itW.s:397    .text._ZN14PeriodicThreadD0Ev:0000000000000014 .L0 
     /tmp/ccq86itW.s:403    .text._ZN14PeriodicThreadD0Ev:0000000000000018 .L0 
     /tmp/ccq86itW.s:413    .text._ZN14PeriodicThreadD0Ev:000000000000003c .L0 
     /tmp/ccq86itW.s:415    .text._ZN14PeriodicThreadD0Ev:0000000000000040 .L0 
     /tmp/ccq86itW.s:416    .text._ZN14PeriodicThreadD0Ev:0000000000000040 .L0 
     /tmp/ccq86itW.s:418    .text._ZN14PeriodicThreadD0Ev:0000000000000044 .L0 
     /tmp/ccq86itW.s:421    .text._ZN14PeriodicThreadD0Ev:0000000000000048 .L0 
     /tmp/ccq86itW.s:423    .text._ZN14PeriodicThreadD0Ev:000000000000004c .L0 
     /tmp/ccq86itW.s:430    .text:0000000000000154 _Znam
     /tmp/ccq86itW.s:433    .text:0000000000000154 .L0 
GAS LISTING /tmp/ccq86itW.s 			page 20


     /tmp/ccq86itW.s:435    .text:0000000000000154 .L0 
     /tmp/ccq86itW.s:436    .text:0000000000000158 .L0 
     /tmp/ccq86itW.s:439    .text:0000000000000160 .L0 
     /tmp/ccq86itW.s:440    .text:0000000000000160 .L0 
     /tmp/ccq86itW.s:442    .text:0000000000000164 .L0 
     /tmp/ccq86itW.s:444    .text:0000000000000164 .L0 
     /tmp/ccq86itW.s:445    .text:0000000000000164 .L0 
     /tmp/ccq86itW.s:448    .text:000000000000016c .L0 
     /tmp/ccq86itW.s:449    .text:0000000000000170 .L0 
     /tmp/ccq86itW.s:451    .text:0000000000000174 .L0 
     /tmp/ccq86itW.s:452    .text:0000000000000174 .L0 
     /tmp/ccq86itW.s:454    .text:0000000000000178 .L0 
     /tmp/ccq86itW.s:456    .text:000000000000017c .L0 
     /tmp/ccq86itW.s:462    .text:000000000000017c _ZdaPv
     /tmp/ccq86itW.s:465    .text:000000000000017c .L0 
     /tmp/ccq86itW.s:467    .text:000000000000017c .L0 
     /tmp/ccq86itW.s:468    .text:0000000000000180 .L0 
     /tmp/ccq86itW.s:471    .text:0000000000000188 .L0 
     /tmp/ccq86itW.s:472    .text:0000000000000188 .L0 
     /tmp/ccq86itW.s:474    .text:000000000000018c .L0 
     /tmp/ccq86itW.s:476    .text:000000000000018c .L0 
     /tmp/ccq86itW.s:477    .text:000000000000018c .L0 
     /tmp/ccq86itW.s:480    .text:0000000000000194 .L0 
     /tmp/ccq86itW.s:481    .text:0000000000000198 .L0 
     /tmp/ccq86itW.s:483    .text:000000000000019c .L0 
     /tmp/ccq86itW.s:484    .text:000000000000019c .L0 
     /tmp/ccq86itW.s:486    .text:00000000000001a0 .L0 
     /tmp/ccq86itW.s:488    .text:00000000000001a4 .L0 
     /tmp/ccq86itW.s:494    .text:00000000000001a4 _ZN6ThreadC2EPFvPvES0_
     /tmp/ccq86itW.s:497    .text:00000000000001a4 .L0 
     /tmp/ccq86itW.s:499    .text:00000000000001a4 .L0 
     /tmp/ccq86itW.s:500    .text:00000000000001a8 .L0 
     /tmp/ccq86itW.s:506    .text:00000000000001bc .L0 
     /tmp/ccq86itW.s:507    .text:00000000000001bc .L0 
     /tmp/ccq86itW.s:508    .text:00000000000001bc .L0 
     /tmp/ccq86itW.s:509    .text:00000000000001bc .L0 
     /tmp/ccq86itW.s:510    .text:00000000000001bc .L0 
     /tmp/ccq86itW.s:512    .text:00000000000001c0 .L0 
     /tmp/ccq86itW.s:518    .text:00000000000001cc .L0 
     /tmp/ccq86itW.s:521    .text:00000000000001d8 .L0 
     /tmp/ccq86itW.s:522    .text:00000000000001d8 .L0 
     /tmp/ccq86itW.s:530    .text:00000000000001f0 .L0 
     /tmp/ccq86itW.s:533    .text:00000000000001f4 .L0 
     /tmp/ccq86itW.s:534    .text:00000000000001f8 .L0 
     /tmp/ccq86itW.s:536    .text:00000000000001fc .L0 
     /tmp/ccq86itW.s:537    .text:00000000000001fc .L0 
     /tmp/ccq86itW.s:539    .text:0000000000000200 .L0 
     /tmp/ccq86itW.s:542    .text:0000000000000204 .L0 
     /tmp/ccq86itW.s:545    .text:0000000000000208 .L0 
     /tmp/ccq86itW.s:548    .text:000000000000020c .L0 
     /tmp/ccq86itW.s:550    .text:0000000000000210 .L0 
     /tmp/ccq86itW.s:494    .text:00000000000001a4 _ZN6ThreadC1EPFvPvES0_
     /tmp/ccq86itW.s:558    .text:0000000000000210 _ZN6Thread5startEv
     /tmp/ccq86itW.s:561    .text:0000000000000210 .L0 
     /tmp/ccq86itW.s:563    .text:0000000000000210 .L0 
     /tmp/ccq86itW.s:564    .text:0000000000000214 .L0 
     /tmp/ccq86itW.s:568    .text:0000000000000220 .L0 
GAS LISTING /tmp/ccq86itW.s 			page 21


     /tmp/ccq86itW.s:569    .text:0000000000000220 .L0 
     /tmp/ccq86itW.s:570    .text:0000000000000220 .L0 
     /tmp/ccq86itW.s:572    .text:0000000000000224 .L0 
     /tmp/ccq86itW.s:576    .text:0000000000000228 .L0 
     /tmp/ccq86itW.s:577    .text:0000000000000228 .L0 
     /tmp/ccq86itW.s:580    .text:000000000000022c .L0 
     /tmp/ccq86itW.s:584    .text:0000000000000230 .L0 
     /tmp/ccq86itW.s:585    .text:0000000000000230 .L0 
     /tmp/ccq86itW.s:586    .text:0000000000000230 .L0 
     /tmp/ccq86itW.s:594    .text:0000000000000240 .L0 
     /tmp/ccq86itW.s:595    .text:0000000000000244 .L0 
     /tmp/ccq86itW.s:596    .text:0000000000000244 .L0 
     /tmp/ccq86itW.s:598    .text:0000000000000248 .L0 
     /tmp/ccq86itW.s:599    .text:0000000000000248 .L0 
     /tmp/ccq86itW.s:601    .text:000000000000024c .L0 
     /tmp/ccq86itW.s:604    .text:0000000000000250 .L0 
     /tmp/ccq86itW.s:608    .text:0000000000000254 .L0 
     /tmp/ccq86itW.s:612    .text:0000000000000254 .L0 
     /tmp/ccq86itW.s:613    .text:0000000000000254 .L0 
     /tmp/ccq86itW.s:621    .text:000000000000026c .L0 
     /tmp/ccq86itW.s:622    .text:000000000000026c .L0 
     /tmp/ccq86itW.s:624    .text:0000000000000270 .L0 
     /tmp/ccq86itW.s:625    .text:0000000000000270 .L0 
     /tmp/ccq86itW.s:632    .text:0000000000000284 .L0 
     /tmp/ccq86itW.s:633    .text:0000000000000288 .L0 
     /tmp/ccq86itW.s:639    .text:0000000000000288 _ZN14PeriodicThreadC2Em
     /tmp/ccq86itW.s:642    .text:0000000000000288 .L0 
     /tmp/ccq86itW.s:644    .text:0000000000000288 .L0 
     /tmp/ccq86itW.s:645    .text:000000000000028c .L0 
     /tmp/ccq86itW.s:650    .text:000000000000029c .L0 
     /tmp/ccq86itW.s:651    .text:000000000000029c .L0 
     /tmp/ccq86itW.s:652    .text:000000000000029c .L0 
     /tmp/ccq86itW.s:653    .text:000000000000029c .L0 
     /tmp/ccq86itW.s:655    .text:00000000000002a0 .L0 
     /tmp/ccq86itW.s:660    .text:00000000000002a8 .L0 
     /tmp/ccq86itW.s:668    .text:00000000000002c0 .L0 
     /tmp/ccq86itW.s:676    .text:00000000000002e0 .L0 
     /tmp/ccq86itW.s:677    .text:00000000000002e4 .L0 
     /tmp/ccq86itW.s:679    .text:00000000000002e8 .L0 
     /tmp/ccq86itW.s:680    .text:00000000000002e8 .L0 
     /tmp/ccq86itW.s:682    .text:00000000000002ec .L0 
     /tmp/ccq86itW.s:685    .text:00000000000002f0 .L0 
     /tmp/ccq86itW.s:688    .text:00000000000002f4 .L0 
     /tmp/ccq86itW.s:690    .text:00000000000002f8 .L0 
     /tmp/ccq86itW.s:639    .text:0000000000000288 _ZN14PeriodicThreadC1Em
     /tmp/ccq86itW.s:35     .text._ZN6Thread3runEv:0000000000000018 .L0 
     /tmp/ccq86itW.s:60     .text._ZN14PeriodicThread18periodicActivationEv:0000000000000018 .L0 
     /tmp/ccq86itW.s:722    .text:00000000000002f8 .L0 
     /tmp/ccq86itW.s:339    .text._ZN14PeriodicThreadD2Ev:0000000000000034 .L0 
     /tmp/ccq86itW.s:426    .text._ZN14PeriodicThreadD0Ev:000000000000004c .L0 
     /tmp/ccq86itW.s:240    .text:00000000000000dc .L0 
     /tmp/ccq86itW.s:518    .text:00000000000001cc .L0 
     /tmp/ccq86itW.s:626    .text:0000000000000274 .L0 
     /tmp/ccq86itW.s:668    .text:00000000000002c0 .L0 
     /tmp/ccq86itW.s:672    .text:00000000000002d4 .L0 
     /tmp/ccq86itW.s:140    .text:0000000000000068 .L9
     /tmp/ccq86itW.s:123    .text:0000000000000048 .L8
GAS LISTING /tmp/ccq86itW.s 			page 22


     /tmp/ccq86itW.s:607    .text:0000000000000254 .L30
     /tmp/ccq86itW.s:590    .text:0000000000000240 .L29
     /tmp/ccq86itW.s:321    .text._ZN14PeriodicThreadD2Ev:0000000000000010 .L0 
     /tmp/ccq86itW.s:403    .text._ZN14PeriodicThreadD0Ev:0000000000000018 .L0 
     /tmp/ccq86itW.s:1810   .debug_abbrev:0000000000000000 .Ldebug_abbrev0
     /tmp/ccq86itW.s:3286   .debug_str:0000000000000256 .LASF68
     /tmp/ccq86itW.s:3226   .debug_str:000000000000008d .LASF69
     /tmp/ccq86itW.s:3354   .debug_str:00000000000004f9 .LASF70
     /tmp/ccq86itW.s:3194   .debug_ranges:0000000000000000 .Ldebug_ranges0
     /tmp/ccq86itW.s:3208   .debug_line:0000000000000000 .Ldebug_line0
     /tmp/ccq86itW.s:3290   .debug_str:000000000000032d .LASF0
     /tmp/ccq86itW.s:3302   .debug_str:0000000000000399 .LASF1
     /tmp/ccq86itW.s:3284   .debug_str:0000000000000248 .LASF2
     /tmp/ccq86itW.s:3266   .debug_str:00000000000001e5 .LASF4
     /tmp/ccq86itW.s:3332   .debug_str:0000000000000456 .LASF3
     /tmp/ccq86itW.s:3228   .debug_str:00000000000000a6 .LASF5
     /tmp/ccq86itW.s:3240   .debug_str:0000000000000117 .LASF6
     /tmp/ccq86itW.s:3306   .debug_str:00000000000003be .LASF7
     /tmp/ccq86itW.s:3288   .debug_str:000000000000031a .LASF8
     /tmp/ccq86itW.s:3350   .debug_str:00000000000004d9 .LASF9
     /tmp/ccq86itW.s:3256   .debug_str:000000000000019f .LASF10
     /tmp/ccq86itW.s:3314   .debug_str:00000000000003eb .LASF11
     /tmp/ccq86itW.s:3344   .debug_str:00000000000004ab .LASF12
     /tmp/ccq86itW.s:3230   .debug_str:00000000000000ad .LASF13
     /tmp/ccq86itW.s:3212   .debug_str:0000000000000009 .LASF14
     /tmp/ccq86itW.s:3232   .debug_str:00000000000000bd .LASF15
     /tmp/ccq86itW.s:3326   .debug_str:000000000000042e .LASF16
     /tmp/ccq86itW.s:3236   .debug_str:00000000000000f3 .LASF17
     /tmp/ccq86itW.s:3264   .debug_str:00000000000001dd .LASF71
     /tmp/ccq86itW.s:3336   .debug_str:0000000000000472 .LASF27
     /tmp/ccq86itW.s:3268   .debug_str:00000000000001ec .LASF32
     /tmp/ccq86itW.s:3210   .debug_str:0000000000000000 .LASF18
     /tmp/ccq86itW.s:3308   .debug_str:00000000000003d1 .LASF19
     /tmp/ccq86itW.s:3324   .debug_str:0000000000000429 .LASF20
     /tmp/ccq86itW.s:3218   .debug_str:000000000000003b .LASF23
     /tmp/ccq86itW.s:3340   .debug_str:0000000000000495 .LASF21
     /tmp/ccq86itW.s:3274   .debug_str:000000000000021c .LASF22
     /tmp/ccq86itW.s:3276   .debug_str:0000000000000221 .LASF24
     /tmp/ccq86itW.s:3300   .debug_str:0000000000000392 .LASF25
     /tmp/ccq86itW.s:3270   .debug_str:00000000000001fd .LASF26
     /tmp/ccq86itW.s:3310   .debug_str:00000000000003d6 .LASF28
     /tmp/ccq86itW.s:3220   .debug_str:0000000000000041 .LASF29
     /tmp/ccq86itW.s:3360   .debug_str:0000000000000534 .LASF30
     /tmp/ccq86itW.s:3224   .debug_str:0000000000000075 .LASF36
     /tmp/ccq86itW.s:3214   .debug_str:0000000000000019 .LASF43
     /tmp/ccq86itW.s:3234   .debug_str:00000000000000c9 .LASF72
     /tmp/ccq86itW.s:3244   .debug_str:000000000000012f .LASF31
     /tmp/ccq86itW.s:3298   .debug_str:000000000000036a .LASF33
     /tmp/ccq86itW.s:3362   .debug_str:000000000000054f .LASF40
     /tmp/ccq86itW.s:3272   .debug_str:0000000000000204 .LASF73
     /tmp/ccq86itW.s:3348   .debug_str:00000000000004d2 .LASF34
     /tmp/ccq86itW.s:3304   .debug_str:00000000000003ac .LASF35
     /tmp/ccq86itW.s:3282   .debug_str:000000000000023b .LASF74
     /tmp/ccq86itW.s:3318   .debug_str:0000000000000404 .LASF37
     /tmp/ccq86itW.s:3278   .debug_str:000000000000022d .LASF55
     /tmp/ccq86itW.s:3296   .debug_str:000000000000035b .LASF57
     /tmp/ccq86itW.s:3260   .debug_str:00000000000001c0 .LASF38
GAS LISTING /tmp/ccq86itW.s 			page 23


     /tmp/ccq86itW.s:3252   .debug_str:000000000000017d .LASF39
     /tmp/ccq86itW.s:3292   .debug_str:000000000000033a .LASF75
     /tmp/ccq86itW.s:3246   .debug_str:000000000000013f .LASF76
     /tmp/ccq86itW.s:3366   .debug_str:0000000000000568 .LASF41
     /tmp/ccq86itW.s:3258   .debug_str:00000000000001ad .LASF77
     /tmp/ccq86itW.s:3254   .debug_str:0000000000000190 .LASF42
     /tmp/ccq86itW.s:3242   .debug_str:000000000000011e .LASF78
     /tmp/ccq86itW.s:3358   .debug_str:0000000000000529 .LASF44
     /tmp/ccq86itW.s:3222   .debug_str:000000000000005b .LASF45
     /tmp/ccq86itW.s:3364   .debug_str:000000000000055f .LASF46
     /tmp/ccq86itW.s:3352   .debug_str:00000000000004e9 .LASF79
     /tmp/ccq86itW.s:3322   .debug_str:0000000000000424 .LASF47
     /tmp/ccq86itW.s:3316   .debug_str:00000000000003fa .LASF48
     /tmp/ccq86itW.s:3346   .debug_str:00000000000004ba .LASF49
     /tmp/ccq86itW.s:384    .text._ZN14PeriodicThreadD0Ev:0000000000000000 .LFB40
     /tmp/ccq86itW.s:424    .text._ZN14PeriodicThreadD0Ev:000000000000004c .LFE40
     /tmp/ccq86itW.s:2844   .debug_loc:0000000000000000 .LLST11
     /tmp/ccq86itW.s:400    .text._ZN14PeriodicThreadD0Ev:0000000000000018 .LBB14
     /tmp/ccq86itW.s:408    .text._ZN14PeriodicThreadD0Ev:000000000000002c .LBE14
     /tmp/ccq86itW.s:2862   .debug_loc:000000000000004c .LLST12
     /tmp/ccq86itW.s:406    .text._ZN14PeriodicThreadD0Ev:000000000000002c .LVL28
     /tmp/ccq86itW.s:411    .text._ZN14PeriodicThreadD0Ev:0000000000000038 .LVL29
     /tmp/ccq86itW.s:3294   .debug_str:0000000000000343 .LASF50
     /tmp/ccq86itW.s:307    .text._ZN14PeriodicThreadD2Ev:0000000000000000 .LFB38
     /tmp/ccq86itW.s:335    .text._ZN14PeriodicThreadD2Ev:0000000000000034 .LFE38
     /tmp/ccq86itW.s:2873   .debug_loc:0000000000000082 .LLST9
     /tmp/ccq86itW.s:324    .text._ZN14PeriodicThreadD2Ev:0000000000000024 .LVL21
     /tmp/ccq86itW.s:103    .text:000000000000002c .LFB36
     /tmp/ccq86itW.s:154    .text:000000000000007c .LFE36
     /tmp/ccq86itW.s:2887   .debug_loc:00000000000000bb .LLST2
     /tmp/ccq86itW.s:2902   .debug_loc:0000000000000104 .LLST3
     /tmp/ccq86itW.s:138    .text:0000000000000064 .LVL9
     /tmp/ccq86itW.s:3248   .debug_str:0000000000000155 .LASF51
     /tmp/ccq86itW.s:640    .text:0000000000000288 .LFB34
     /tmp/ccq86itW.s:691    .text:00000000000002f8 .LFE34
     /tmp/ccq86itW.s:2917   .debug_loc:000000000000014d .LLST21
     /tmp/ccq86itW.s:2935   .debug_loc:0000000000000199 .LLST22
     /tmp/ccq86itW.s:663    .text:00000000000002b4 .LVL52
     /tmp/ccq86itW.s:671    .text:00000000000002d4 .LVL53
     /tmp/ccq86itW.s:3216   .debug_str:000000000000002c .LASF52
     /tmp/ccq86itW.s:344    .text:0000000000000114 .LFB32
     /tmp/ccq86itW.s:377    .text:0000000000000154 .LFE32
     /tmp/ccq86itW.s:2953   .debug_loc:00000000000001e5 .LLST10
     /tmp/ccq86itW.s:361    .text:0000000000000134 .LVL23
     /tmp/ccq86itW.s:364    .text:0000000000000140 .LVL24
     /tmp/ccq86itW.s:3342   .debug_str:000000000000049c .LASF53
     /tmp/ccq86itW.s:224    .text:00000000000000cc .LFB30
     /tmp/ccq86itW.s:290    .text:0000000000000114 .LFE30
     /tmp/ccq86itW.s:2971   .debug_loc:0000000000000231 .LLST6
     /tmp/ccq86itW.s:242    .text:00000000000000e8 .LBB10
     /tmp/ccq86itW.s:278    .text:0000000000000104 .LBE10
     /tmp/ccq86itW.s:2985   .debug_loc:000000000000026a .LLST7
     /tmp/ccq86itW.s:251    .text:00000000000000f0 .LBB11
     /tmp/ccq86itW.s:273    .text:00000000000000fc .LBE11
     /tmp/ccq86itW.s:2992   .debug_loc:000000000000028d .LLST8
     /tmp/ccq86itW.s:277    .text:0000000000000104 .LVL19
     /tmp/ccq86itW.s:65     .text:0000000000000000 .LFB28
GAS LISTING /tmp/ccq86itW.s 			page 24


     /tmp/ccq86itW.s:97     .text:000000000000002c .LFE28
     /tmp/ccq86itW.s:2999   .debug_loc:00000000000002b0 .LLST0
     /tmp/ccq86itW.s:3013   .debug_loc:00000000000002e9 .LLST1
     /tmp/ccq86itW.s:86     .text:000000000000001c .LVL4
     /tmp/ccq86itW.s:559    .text:0000000000000210 .LFB27
     /tmp/ccq86itW.s:634    .text:0000000000000288 .LFE27
     /tmp/ccq86itW.s:3027   .debug_loc:0000000000000322 .LLST18
     /tmp/ccq86itW.s:581    .text:0000000000000230 .LBB18
     /tmp/ccq86itW.s:591    .text:0000000000000240 .LBE18
     /tmp/ccq86itW.s:3049   .debug_loc:0000000000000381 .LLST19
     /tmp/ccq86itW.s:589    .text:0000000000000240 .LVL44
     /tmp/ccq86itW.s:610    .text:0000000000000254 .LBB19
     /tmp/ccq86itW.s:629    .text:0000000000000284 .LBE19
     /tmp/ccq86itW.s:3056   .debug_loc:00000000000003a4 .LLST20
     /tmp/ccq86itW.s:615    .text:0000000000000260 .LVL47
     /tmp/ccq86itW.s:628    .text:0000000000000284 .LVL49
     /tmp/ccq86itW.s:3262   .debug_str:00000000000001c6 .LASF54
     /tmp/ccq86itW.s:495    .text:00000000000001a4 .LFB25
     /tmp/ccq86itW.s:551    .text:0000000000000210 .LFE25
     /tmp/ccq86itW.s:3063   .debug_loc:00000000000003c7 .LLST15
     /tmp/ccq86itW.s:3081   .debug_loc:0000000000000413 .LLST16
     /tmp/ccq86itW.s:3099   .debug_loc:000000000000045f .LLST17
     /tmp/ccq86itW.s:525    .text:00000000000001e4 .LVL37
     /tmp/ccq86itW.s:3338   .debug_str:0000000000000482 .LASF59
     /tmp/ccq86itW.s:3330   .debug_str:000000000000044f .LASF60
     /tmp/ccq86itW.s:463    .text:000000000000017c .LFB23
     /tmp/ccq86itW.s:489    .text:00000000000001a4 .LFE23
     /tmp/ccq86itW.s:3117   .debug_loc:00000000000004ab .LLST14
     /tmp/ccq86itW.s:478    .text:0000000000000194 .LVL34
     /tmp/ccq86itW.s:3250   .debug_str:000000000000016d .LASF56
     /tmp/ccq86itW.s:3312   .debug_str:00000000000003e5 .LASF58
     /tmp/ccq86itW.s:431    .text:0000000000000154 .LFB22
     /tmp/ccq86itW.s:457    .text:000000000000017c .LFE22
     /tmp/ccq86itW.s:3131   .debug_loc:00000000000004e4 .LLST13
     /tmp/ccq86itW.s:446    .text:000000000000016c .LVL32
     /tmp/ccq86itW.s:3368   .debug_str:000000000000056e .LASF61
     /tmp/ccq86itW.s:192    .text:00000000000000a4 .LFB21
     /tmp/ccq86itW.s:218    .text:00000000000000cc .LFE21
     /tmp/ccq86itW.s:3145   .debug_loc:000000000000051d .LLST5
     /tmp/ccq86itW.s:207    .text:00000000000000bc .LVL14
     /tmp/ccq86itW.s:3356   .debug_str:000000000000051c .LASF62
     /tmp/ccq86itW.s:3280   .debug_str:0000000000000235 .LASF63
     /tmp/ccq86itW.s:160    .text:000000000000007c .LFB20
     /tmp/ccq86itW.s:186    .text:00000000000000a4 .LFE20
     /tmp/ccq86itW.s:3159   .debug_loc:0000000000000556 .LLST4
     /tmp/ccq86itW.s:175    .text:0000000000000094 .LVL12
     /tmp/ccq86itW.s:40     .text._ZN14PeriodicThread18periodicActivationEv:0000000000000000 .LFB17
     /tmp/ccq86itW.s:58     .text._ZN14PeriodicThread18periodicActivationEv:0000000000000018 .LFE17
     /tmp/ccq86itW.s:14     .text._ZN6Thread3runEv:0000000000000000 .LFB7
     /tmp/ccq86itW.s:33     .text._ZN6Thread3runEv:0000000000000018 .LFE7
     /tmp/ccq86itW.s:3328   .debug_str:0000000000000444 .LASF64
     /tmp/ccq86itW.s:3238   .debug_str:0000000000000109 .LASF65
     /tmp/ccq86itW.s:3320   .debug_str:000000000000041b .LASF66
     /tmp/ccq86itW.s:3334   .debug_str:0000000000000468 .LASF67
     /tmp/ccq86itW.s:387    .text._ZN14PeriodicThreadD0Ev:0000000000000000 .LVL26
     /tmp/ccq86itW.s:419    .text._ZN14PeriodicThreadD0Ev:0000000000000044 .LVL30
     /tmp/ccq86itW.s:399    .text._ZN14PeriodicThreadD0Ev:0000000000000018 .LVL27
GAS LISTING /tmp/ccq86itW.s 			page 25


     /tmp/ccq86itW.s:310    .text._ZN14PeriodicThreadD2Ev:0000000000000000 .LVL20
     /tmp/ccq86itW.s:106    .text:000000000000002c .LVL5
     /tmp/ccq86itW.s:122    .text:0000000000000048 .LVL7
     /tmp/ccq86itW.s:149    .text:0000000000000074 .LVL10
     /tmp/ccq86itW.s:119    .text:0000000000000044 .LVL6
     /tmp/ccq86itW.s:643    .text:0000000000000288 .LVL50
     /tmp/ccq86itW.s:661    .text:00000000000002ac .LVL51
     /tmp/ccq86itW.s:683    .text:00000000000002ec .LVL54
     /tmp/ccq86itW.s:686    .text:00000000000002f0 .LVL55
     /tmp/ccq86itW.s:347    .text:0000000000000114 .LVL22
     /tmp/ccq86itW.s:372    .text:000000000000014c .LVL25
     /tmp/ccq86itW.s:229    .text:00000000000000cc .LVL15
     /tmp/ccq86itW.s:246    .text:00000000000000ec .LVL16
     /tmp/ccq86itW.s:250    .text:00000000000000f0 .LVL17
     /tmp/ccq86itW.s:270    .text:00000000000000fc .LVL18
     /tmp/ccq86itW.s:69     .text:0000000000000000 .LVL2
     /tmp/ccq86itW.s:79     .text:0000000000000010 .LVL3
     /tmp/ccq86itW.s:562    .text:0000000000000210 .LVL41
     /tmp/ccq86itW.s:578    .text:000000000000022c .LVL42
     /tmp/ccq86itW.s:602    .text:000000000000024c .LVL45
     /tmp/ccq86itW.s:606    .text:0000000000000254 .LVL46
     /tmp/ccq86itW.s:583    .text:0000000000000230 .LVL43
     /tmp/ccq86itW.s:619    .text:000000000000026c .LVL48
     /tmp/ccq86itW.s:498    .text:00000000000001a4 .LVL35
     /tmp/ccq86itW.s:523    .text:00000000000001dc .LVL36
     /tmp/ccq86itW.s:540    .text:0000000000000200 .LVL38
     /tmp/ccq86itW.s:546    .text:0000000000000208 .LVL40
     /tmp/ccq86itW.s:543    .text:0000000000000204 .LVL39
     /tmp/ccq86itW.s:466    .text:000000000000017c .LVL33
     /tmp/ccq86itW.s:434    .text:0000000000000154 .LVL31
     /tmp/ccq86itW.s:195    .text:00000000000000a4 .LVL13
     /tmp/ccq86itW.s:163    .text:000000000000007c .LVL11
     /tmp/ccq86itW.s:723    .debug_info:0000000000000000 .Ldebug_info0
     /tmp/ccq86itW.s:8      .text:0000000000000000 .Ltext0
     /tmp/ccq86itW.s:719    .text:00000000000002f8 .Letext0
     /tmp/ccq86itW.s:293    .gcc_except_table:0000000000000000 .LLSDA30
                           .group:0000000000000000 _ZN14PeriodicThreadD5Ev

UNDEFINED SYMBOLS
time_sleep
mem_alloc
mem_free
__gxx_personality_v0
thread_create
