GAS LISTING /tmp/cc8AT9ge.s 			page 1


   1              		.file	"userMain.cpp"
   2              		.option nopic
   3              		.option norelax
   4              		.attribute arch, "rv64i2p0_m2p0_a2p0"
   5              		.attribute unaligned_access, 0
   6              		.attribute stack_align, 16
   7              		.text
   8              	.Ltext0:
   9              		.section	.text._ZN9SemaphoreD2Ev,"axG",@progbits,_ZN9SemaphoreD5Ev,comdat
  10              		.align	2
  11              		.weak	_ZN9SemaphoreD2Ev
  13              	_ZN9SemaphoreD2Ev:
  14              	.LFB11:
  15              		.file 1 "src/user/test/../../../h/syscall_cpp.hpp"
   1:src/user/test/../../../h/syscall_cpp.hpp **** #ifndef _syscall_cpp
   2:src/user/test/../../../h/syscall_cpp.hpp **** #define _syscall_cpp
   3:src/user/test/../../../h/syscall_cpp.hpp **** #include "syscall_c.h"
   4:src/user/test/../../../h/syscall_cpp.hpp **** 
   5:src/user/test/../../../h/syscall_cpp.hpp **** void* operator new (size_t);
   6:src/user/test/../../../h/syscall_cpp.hpp **** void operator delete (void*);
   7:src/user/test/../../../h/syscall_cpp.hpp **** 
   8:src/user/test/../../../h/syscall_cpp.hpp **** class Thread {
   9:src/user/test/../../../h/syscall_cpp.hpp **** public:
  10:src/user/test/../../../h/syscall_cpp.hpp ****     Thread (void (*body)(void*), void* arg);
  11:src/user/test/../../../h/syscall_cpp.hpp ****     virtual ~Thread ();
  12:src/user/test/../../../h/syscall_cpp.hpp ****     void start ();
  13:src/user/test/../../../h/syscall_cpp.hpp ****     static void dispatch () { thread_dispatch(); }
  14:src/user/test/../../../h/syscall_cpp.hpp ****     static void sleep (time_t time){ time_sleep(time); }
  15:src/user/test/../../../h/syscall_cpp.hpp **** protected:
  16:src/user/test/../../../h/syscall_cpp.hpp ****     Thread (){ myHandle = nullptr;}
  17:src/user/test/../../../h/syscall_cpp.hpp ****     virtual void run () {}
  18:src/user/test/../../../h/syscall_cpp.hpp **** private:
  19:src/user/test/../../../h/syscall_cpp.hpp ****     static void runWrapper(void*);
  20:src/user/test/../../../h/syscall_cpp.hpp ****     thread_t myHandle;
  21:src/user/test/../../../h/syscall_cpp.hpp **** };
  22:src/user/test/../../../h/syscall_cpp.hpp **** 
  23:src/user/test/../../../h/syscall_cpp.hpp **** class Semaphore {
  24:src/user/test/../../../h/syscall_cpp.hpp **** public:
  25:src/user/test/../../../h/syscall_cpp.hpp ****     Semaphore (unsigned init = 1) { sem_open(&myHandle, init); } 
  26:src/user/test/../../../h/syscall_cpp.hpp ****     virtual ~Semaphore (){ sem_close(myHandle); }
  16              		.loc 1 26 13
  17              		.cfi_startproc
  18              		.cfi_personality 0x9b,DW.ref.__gxx_personality_v0
  19              		.cfi_lsda 0x1b,.LLSDA11
  20              	.LVL0:
  21 0000 130101FF 		addi	sp,sp,-16
  22              		.cfi_def_cfa_offset 16
  23 0004 23341100 		sd	ra,8(sp)
  24 0008 23308100 		sd	s0,0(sp)
  25              		.cfi_offset 1, -8
  26              		.cfi_offset 8, -16
  27 000c 13040101 		addi	s0,sp,16
  28              		.cfi_def_cfa 8, 0
  29              	.LBB70:
  30              		.loc 1 26 26 is_stmt 0
  31 0010 97070000 		lla	a5,_ZTV9Semaphore+16
  31      93870700 
GAS LISTING /tmp/cc8AT9ge.s 			page 2


  32 0018 2330F500 		sd	a5,0(a0)
  33              		.loc 1 26 28 is_stmt 1
  34              		.loc 1 26 37 is_stmt 0
  35 001c 03358500 		ld	a0,8(a0)
  36              	.LVL1:
  37 0020 97000000 		call	sem_close
  37      E7800000 
  38              	.LVL2:
  39              	.LBE70:
  40              		.loc 1 26 49
  41 0028 83308100 		ld	ra,8(sp)
  42              		.cfi_restore 1
  43 002c 03340100 		ld	s0,0(sp)
  44              		.cfi_restore 8
  45              		.cfi_def_cfa 2, 16
  46 0030 13010101 		addi	sp,sp,16
  47              		.cfi_def_cfa_offset 0
  48 0034 67800000 		jr	ra
  49              		.cfi_endproc
  50              	.LFE11:
  51              		.globl	__gxx_personality_v0
  52              		.section	.gcc_except_table._ZN9SemaphoreD2Ev,"awG",@progbits,_ZN9SemaphoreD5Ev,comdat
  53              	.LLSDA11:
  54 0000 FF       		.byte	0xff
  55 0001 FF       		.byte	0xff
  56 0002 03       		.byte	0x3
  57 0003 00       		.byte	0
  58              		.section	.text._ZN9SemaphoreD2Ev,"axG",@progbits,_ZN9SemaphoreD5Ev,comdat
  60              		.weak	_ZN9SemaphoreD1Ev
  61              		.set	_ZN9SemaphoreD1Ev,_ZN9SemaphoreD2Ev
  62              		.section	.text._ZN9SemaphoreD0Ev,"axG",@progbits,_ZN9SemaphoreD5Ev,comdat
  63              		.align	2
  64              		.weak	_ZN9SemaphoreD0Ev
  66              	_ZN9SemaphoreD0Ev:
  67              	.LFB13:
  68              		.loc 1 26 13 is_stmt 1
  69              		.cfi_startproc
  70              		.cfi_personality 0x9b,DW.ref.__gxx_personality_v0
  71              		.cfi_lsda 0x1b,.LLSDA13
  72              	.LVL3:
  73 0000 130101FE 		addi	sp,sp,-32
  74              		.cfi_def_cfa_offset 32
  75 0004 233C1100 		sd	ra,24(sp)
  76 0008 23388100 		sd	s0,16(sp)
  77 000c 23349100 		sd	s1,8(sp)
  78              		.cfi_offset 1, -8
  79              		.cfi_offset 8, -16
  80              		.cfi_offset 9, -24
  81 0010 13040102 		addi	s0,sp,32
  82              		.cfi_def_cfa 8, 0
  83 0014 93040500 		mv	s1,a0
  84              	.LVL4:
  85              	.LBB71:
  86              	.LBB72:
  87              		.loc 1 26 26 is_stmt 0
  88 0018 97070000 		lla	a5,_ZTV9Semaphore+16
  88      93870700 
GAS LISTING /tmp/cc8AT9ge.s 			page 3


  89 0020 2330F500 		sd	a5,0(a0)
  90              		.loc 1 26 28 is_stmt 1
  91              		.loc 1 26 37 is_stmt 0
  92 0024 03358500 		ld	a0,8(a0)
  93              	.LVL5:
  94 0028 97000000 		call	sem_close
  94      E7800000 
  95              	.LVL6:
  96              	.LBE72:
  97              	.LBE71:
  98              		.loc 1 26 49
  99 0030 13850400 		mv	a0,s1
 100              	.LEHB0:
 101 0034 97000000 		call	_ZdlPv
 101      E7800000 
 102              	.LVL7:
 103              	.LEHE0:
 104 003c 83308101 		ld	ra,24(sp)
 105              		.cfi_restore 1
 106 0040 03340101 		ld	s0,16(sp)
 107              		.cfi_restore 8
 108              		.cfi_def_cfa 2, 32
 109 0044 83348100 		ld	s1,8(sp)
 110              		.cfi_restore 9
 111              	.LVL8:
 112 0048 13010102 		addi	sp,sp,32
 113              		.cfi_def_cfa_offset 0
 114 004c 67800000 		jr	ra
 115              		.cfi_endproc
 116              	.LFE13:
 117              		.section	.gcc_except_table._ZN9SemaphoreD0Ev,"awG",@progbits,_ZN9SemaphoreD5Ev,comdat
 118              	.LLSDA13:
 119 0000 FF       		.byte	0xff
 120 0001 FF       		.byte	0xff
 121 0002 03       		.byte	0x3
 122 0003 0D       		.byte	0xd
 123 0004 00000000 		.4byte	.LEHB0-.LFB13
 124 0008 00000000 		.4byte	.LEHE0-.LEHB0
 125 000c 00000000 		.4byte	0
 126 0010 00       		.byte	0
 127              		.section	.text._ZN9SemaphoreD0Ev,"axG",@progbits,_ZN9SemaphoreD5Ev,comdat
 129              		.section	.text._ZN19ConsumerProducerCPP8Consumer3runEv,"axG",@progbits,_ZN19ConsumerProducerCPP8Co
 130              		.align	2
 131              		.weak	_ZN19ConsumerProducerCPP8Consumer3runEv
 133              	_ZN19ConsumerProducerCPP8Consumer3runEv:
 134              	.LFB30:
 135              		.file 2 "src/user/test/ConsumerProducer_CPP_API_test.hpp"
   1:src/user/test/ConsumerProducer_CPP_API_test.hpp **** //
   2:src/user/test/ConsumerProducer_CPP_API_test.hpp **** // Created by os on 4/17/22.
   3:src/user/test/ConsumerProducer_CPP_API_test.hpp **** //
   4:src/user/test/ConsumerProducer_CPP_API_test.hpp **** 
   5:src/user/test/ConsumerProducer_CPP_API_test.hpp **** #ifndef XV6_CONSUMERPRODUCER_CPP_API_TEST_HPP
   6:src/user/test/ConsumerProducer_CPP_API_test.hpp **** #define XV6_CONSUMERPRODUCER_CPP_API_TEST_HPP
   7:src/user/test/ConsumerProducer_CPP_API_test.hpp **** 
   8:src/user/test/ConsumerProducer_CPP_API_test.hpp **** #include "../../../h/syscall_cpp.hpp"
   9:src/user/test/ConsumerProducer_CPP_API_test.hpp **** 
  10:src/user/test/ConsumerProducer_CPP_API_test.hpp **** #include "buffer_CPP_API.hpp"
GAS LISTING /tmp/cc8AT9ge.s 			page 4


  11:src/user/test/ConsumerProducer_CPP_API_test.hpp **** #include "printing.hpp"
  12:src/user/test/ConsumerProducer_CPP_API_test.hpp **** 
  13:src/user/test/ConsumerProducer_CPP_API_test.hpp **** namespace ConsumerProducerCPP {
  14:src/user/test/ConsumerProducer_CPP_API_test.hpp **** 
  15:src/user/test/ConsumerProducer_CPP_API_test.hpp ****     Semaphore *waitForAll;
  16:src/user/test/ConsumerProducer_CPP_API_test.hpp **** 
  17:src/user/test/ConsumerProducer_CPP_API_test.hpp ****     struct thread_data {
  18:src/user/test/ConsumerProducer_CPP_API_test.hpp ****         int id;
  19:src/user/test/ConsumerProducer_CPP_API_test.hpp ****         BufferCPP *buffer;
  20:src/user/test/ConsumerProducer_CPP_API_test.hpp ****         Semaphore *sem;
  21:src/user/test/ConsumerProducer_CPP_API_test.hpp ****     };
  22:src/user/test/ConsumerProducer_CPP_API_test.hpp **** 
  23:src/user/test/ConsumerProducer_CPP_API_test.hpp ****     volatile int threadEnd = 0;
  24:src/user/test/ConsumerProducer_CPP_API_test.hpp **** 
  25:src/user/test/ConsumerProducer_CPP_API_test.hpp ****     class ProducerKeyborad : public Thread {
  26:src/user/test/ConsumerProducer_CPP_API_test.hpp ****         thread_data *td;
  27:src/user/test/ConsumerProducer_CPP_API_test.hpp ****     public:
  28:src/user/test/ConsumerProducer_CPP_API_test.hpp ****         ProducerKeyborad(thread_data *_td) : Thread(), td(_td) {}
  29:src/user/test/ConsumerProducer_CPP_API_test.hpp **** 
  30:src/user/test/ConsumerProducer_CPP_API_test.hpp ****         void run() override {
  31:src/user/test/ConsumerProducer_CPP_API_test.hpp ****             int key;
  32:src/user/test/ConsumerProducer_CPP_API_test.hpp ****             int i = 0;
  33:src/user/test/ConsumerProducer_CPP_API_test.hpp ****             while ((key = getc()) != 0x1b) {
  34:src/user/test/ConsumerProducer_CPP_API_test.hpp ****                 td->buffer->put(key);
  35:src/user/test/ConsumerProducer_CPP_API_test.hpp ****                 i++;
  36:src/user/test/ConsumerProducer_CPP_API_test.hpp ****             }
  37:src/user/test/ConsumerProducer_CPP_API_test.hpp **** 
  38:src/user/test/ConsumerProducer_CPP_API_test.hpp ****             threadEnd = 1;
  39:src/user/test/ConsumerProducer_CPP_API_test.hpp ****             td->buffer->put('!');
  40:src/user/test/ConsumerProducer_CPP_API_test.hpp **** 
  41:src/user/test/ConsumerProducer_CPP_API_test.hpp ****             td->sem->signal();
  42:src/user/test/ConsumerProducer_CPP_API_test.hpp ****         }
  43:src/user/test/ConsumerProducer_CPP_API_test.hpp ****     };
  44:src/user/test/ConsumerProducer_CPP_API_test.hpp **** 
  45:src/user/test/ConsumerProducer_CPP_API_test.hpp ****     class Producer : public Thread {
  46:src/user/test/ConsumerProducer_CPP_API_test.hpp ****         thread_data *td;
  47:src/user/test/ConsumerProducer_CPP_API_test.hpp ****     public:
  48:src/user/test/ConsumerProducer_CPP_API_test.hpp ****         Producer(thread_data *_td) : Thread(), td(_td) {}
  49:src/user/test/ConsumerProducer_CPP_API_test.hpp **** 
  50:src/user/test/ConsumerProducer_CPP_API_test.hpp ****         void run() override {
  51:src/user/test/ConsumerProducer_CPP_API_test.hpp ****             int i = 0;
  52:src/user/test/ConsumerProducer_CPP_API_test.hpp ****             while (!threadEnd) {
  53:src/user/test/ConsumerProducer_CPP_API_test.hpp ****                 td->buffer->put(td->id + '0');
  54:src/user/test/ConsumerProducer_CPP_API_test.hpp ****                 i++;
  55:src/user/test/ConsumerProducer_CPP_API_test.hpp ****                 Thread::sleep((i+td->id)%5);
  56:src/user/test/ConsumerProducer_CPP_API_test.hpp ****             }
  57:src/user/test/ConsumerProducer_CPP_API_test.hpp **** 
  58:src/user/test/ConsumerProducer_CPP_API_test.hpp ****             td->sem->signal();
  59:src/user/test/ConsumerProducer_CPP_API_test.hpp ****         }
  60:src/user/test/ConsumerProducer_CPP_API_test.hpp ****     };
  61:src/user/test/ConsumerProducer_CPP_API_test.hpp **** 
  62:src/user/test/ConsumerProducer_CPP_API_test.hpp ****     class Consumer : public Thread {
  63:src/user/test/ConsumerProducer_CPP_API_test.hpp ****         thread_data *td;
  64:src/user/test/ConsumerProducer_CPP_API_test.hpp ****     public:
  65:src/user/test/ConsumerProducer_CPP_API_test.hpp ****         Consumer(thread_data *_td) : Thread(), td(_td) {}
  66:src/user/test/ConsumerProducer_CPP_API_test.hpp **** 
  67:src/user/test/ConsumerProducer_CPP_API_test.hpp ****         void run() override {
GAS LISTING /tmp/cc8AT9ge.s 			page 5


 136              		.loc 2 67 14 is_stmt 1
 137              		.cfi_startproc
 138              	.LVL9:
 139 0000 130101FD 		addi	sp,sp,-48
 140              		.cfi_def_cfa_offset 48
 141 0004 23341102 		sd	ra,40(sp)
 142 0008 23308102 		sd	s0,32(sp)
 143 000c 233C9100 		sd	s1,24(sp)
 144 0010 23382101 		sd	s2,16(sp)
 145 0014 23343101 		sd	s3,8(sp)
 146              		.cfi_offset 1, -8
 147              		.cfi_offset 8, -16
 148              		.cfi_offset 9, -24
 149              		.cfi_offset 18, -32
 150              		.cfi_offset 19, -40
 151 0018 13040103 		addi	s0,sp,48
 152              		.cfi_def_cfa 8, 0
 153 001c 13090500 		mv	s2,a0
  68:src/user/test/ConsumerProducer_CPP_API_test.hpp ****             int i = 0;
 154              		.loc 2 68 13
 155              	.LVL10:
 156              		.loc 2 68 17 is_stmt 0
 157 0020 93090000 		li	s3,0
 158 0024 6F000001 		j	.L6
 159              	.LVL11:
 160              	.L11:
 161              	.LBB73:
  69:src/user/test/ConsumerProducer_CPP_API_test.hpp ****             while (!threadEnd) {
  70:src/user/test/ConsumerProducer_CPP_API_test.hpp ****                 int key = td->buffer->get();
  71:src/user/test/ConsumerProducer_CPP_API_test.hpp ****                 i++;
  72:src/user/test/ConsumerProducer_CPP_API_test.hpp **** 
  73:src/user/test/ConsumerProducer_CPP_API_test.hpp ****                 Console::putc(key);
  74:src/user/test/ConsumerProducer_CPP_API_test.hpp **** 
  75:src/user/test/ConsumerProducer_CPP_API_test.hpp ****                 if (i % 80 == 0) {
  76:src/user/test/ConsumerProducer_CPP_API_test.hpp ****                     Console::putc('\n');
 162              		.loc 2 76 21 is_stmt 1
 163              	.LBB74:
 164              	.LBB75:
  27:src/user/test/../../../h/syscall_cpp.hpp ****     void wait (){ sem_wait(myHandle); }
  28:src/user/test/../../../h/syscall_cpp.hpp ****     void signal (){ sem_signal(myHandle); }
  29:src/user/test/../../../h/syscall_cpp.hpp **** private:
  30:src/user/test/../../../h/syscall_cpp.hpp ****     sem_t myHandle;
  31:src/user/test/../../../h/syscall_cpp.hpp **** };
  32:src/user/test/../../../h/syscall_cpp.hpp **** 
  33:src/user/test/../../../h/syscall_cpp.hpp **** class PeriodicThread : public Thread {
  34:src/user/test/../../../h/syscall_cpp.hpp **** protected:
  35:src/user/test/../../../h/syscall_cpp.hpp ****     PeriodicThread (time_t period);
  36:src/user/test/../../../h/syscall_cpp.hpp ****     virtual void periodicActivation () {}
  37:src/user/test/../../../h/syscall_cpp.hpp **** private:
  38:src/user/test/../../../h/syscall_cpp.hpp ****     static void periodicWrapper(void*);
  39:src/user/test/../../../h/syscall_cpp.hpp **** };
  40:src/user/test/../../../h/syscall_cpp.hpp **** 
  41:src/user/test/../../../h/syscall_cpp.hpp **** class Console {
  42:src/user/test/../../../h/syscall_cpp.hpp **** public:
  43:src/user/test/../../../h/syscall_cpp.hpp ****     static char getc (){ return ::getc(); }
  44:src/user/test/../../../h/syscall_cpp.hpp ****     static void putc (char c){ ::putc(c); }
 165              		.loc 1 44 32
GAS LISTING /tmp/cc8AT9ge.s 			page 6


 166              		.loc 1 44 38 is_stmt 0
 167 0028 1305A000 		li	a0,10
 168 002c 97000000 		call	putc
 168      E7800000 
 169              	.LVL12:
 170              	.L6:
 171              	.LBE75:
 172              	.LBE74:
 173              	.LBE73:
  69:src/user/test/ConsumerProducer_CPP_API_test.hpp ****             while (!threadEnd) {
 174              		.loc 2 69 13 is_stmt 1
  69:src/user/test/ConsumerProducer_CPP_API_test.hpp ****             while (!threadEnd) {
 175              		.loc 2 69 20 is_stmt 0
 176 0034 97070000 		lla	a5,_ZN19ConsumerProducerCPP9threadEndE
 176      93870700 
 177 003c 83A70700 		lw	a5,0(a5)
 178 0040 9B870700 		sext.w	a5,a5
 179 0044 639C0702 		bne	a5,zero,.L7
 180              	.LBB78:
  70:src/user/test/ConsumerProducer_CPP_API_test.hpp ****                 i++;
 181              		.loc 2 70 17 is_stmt 1
  70:src/user/test/ConsumerProducer_CPP_API_test.hpp ****                 i++;
 182              		.loc 2 70 27 is_stmt 0
 183 0048 83370901 		ld	a5,16(s2)
  70:src/user/test/ConsumerProducer_CPP_API_test.hpp ****                 i++;
 184              		.loc 2 70 42
 185 004c 03B58700 		ld	a0,8(a5)
 186 0050 97000000 		call	_ZN9BufferCPP3getEv
 186      E7800000 
 187              	.LVL13:
  71:src/user/test/ConsumerProducer_CPP_API_test.hpp **** 
 188              		.loc 2 71 17 is_stmt 1
  71:src/user/test/ConsumerProducer_CPP_API_test.hpp **** 
 189              		.loc 2 71 18 is_stmt 0
 190 0058 9B841900 		addiw	s1,s3,1
 191 005c 9B890400 		sext.w	s3,s1
 192              	.LVL14:
  73:src/user/test/ConsumerProducer_CPP_API_test.hpp **** 
 193              		.loc 2 73 17 is_stmt 1
 194              	.LBB76:
 195              	.LBB77:
 196              		.loc 1 44 32
 197              		.loc 1 44 38 is_stmt 0
 198 0060 1375F50F 		andi	a0,a0,0xff
 199              	.LVL15:
 200 0064 97000000 		call	putc
 200      E7800000 
 201              	.LVL16:
 202              	.LBE77:
 203              	.LBE76:
  75:src/user/test/ConsumerProducer_CPP_API_test.hpp ****                     Console::putc('\n');
 204              		.loc 2 75 17 is_stmt 1
  75:src/user/test/ConsumerProducer_CPP_API_test.hpp ****                     Console::putc('\n');
 205              		.loc 2 75 23 is_stmt 0
 206 006c 93070005 		li	a5,80
 207 0070 BBE4F402 		remw	s1,s1,a5
 208              	.LVL17:
GAS LISTING /tmp/cc8AT9ge.s 			page 7


  75:src/user/test/ConsumerProducer_CPP_API_test.hpp ****                     Console::putc('\n');
 209              		.loc 2 75 17
 210 0074 E39004FC 		bne	s1,zero,.L6
 211 0078 6FF01FFB 		j	.L11
 212              	.L7:
 213              	.LBE78:
  77:src/user/test/ConsumerProducer_CPP_API_test.hpp ****                 }
  78:src/user/test/ConsumerProducer_CPP_API_test.hpp ****             }
  79:src/user/test/ConsumerProducer_CPP_API_test.hpp **** 
  80:src/user/test/ConsumerProducer_CPP_API_test.hpp ****             while (td->buffer->getCnt() > 0) {
 214              		.loc 2 80 13 is_stmt 1
 215              		.loc 2 80 20 is_stmt 0
 216 007c 83370901 		ld	a5,16(s2)
 217              		.loc 2 80 38
 218 0080 03B58700 		ld	a0,8(a5)
 219 0084 97000000 		call	_ZN9BufferCPP6getCntEv
 219      E7800000 
 220              	.LVL18:
 221              		.loc 2 80 41
 222 008c 6352A002 		ble	a0,zero,.L9
 223              	.LBB79:
  81:src/user/test/ConsumerProducer_CPP_API_test.hpp ****                 int key = td->buffer->get();
 224              		.loc 2 81 17 is_stmt 1
 225              		.loc 2 81 27 is_stmt 0
 226 0090 83370901 		ld	a5,16(s2)
 227              		.loc 2 81 42
 228 0094 03B58700 		ld	a0,8(a5)
 229 0098 97000000 		call	_ZN9BufferCPP3getEv
 229      E7800000 
 230              	.LVL19:
  82:src/user/test/ConsumerProducer_CPP_API_test.hpp ****                 Console::putc(key);
 231              		.loc 2 82 17 is_stmt 1
 232              	.LBB80:
 233              	.LBB81:
 234              		.loc 1 44 32
 235              		.loc 1 44 38 is_stmt 0
 236 00a0 1375F50F 		andi	a0,a0,0xff
 237              	.LVL20:
 238 00a4 97000000 		call	putc
 238      E7800000 
 239              	.LVL21:
 240 00ac 6FF01FFD 		j	.L7
 241              	.L9:
 242              	.LBE81:
 243              	.LBE80:
 244              	.LBE79:
  83:src/user/test/ConsumerProducer_CPP_API_test.hpp ****             }
  84:src/user/test/ConsumerProducer_CPP_API_test.hpp **** 
  85:src/user/test/ConsumerProducer_CPP_API_test.hpp ****             td->sem->signal();
 245              		.loc 2 85 13 is_stmt 1
 246 00b0 83370901 		ld	a5,16(s2)
 247              		.loc 2 85 17 is_stmt 0
 248 00b4 83B70701 		ld	a5,16(a5)
 249              	.LVL22:
 250              	.LBB82:
 251              	.LBB83:
  28:src/user/test/../../../h/syscall_cpp.hpp **** private:
GAS LISTING /tmp/cc8AT9ge.s 			page 8


 252              		.loc 1 28 21 is_stmt 1
  28:src/user/test/../../../h/syscall_cpp.hpp **** private:
 253              		.loc 1 28 31 is_stmt 0
 254 00b8 03B58700 		ld	a0,8(a5)
 255 00bc 97000000 		call	sem_signal
 255      E7800000 
 256              	.LVL23:
 257              	.LBE83:
 258              	.LBE82:
  86:src/user/test/ConsumerProducer_CPP_API_test.hpp ****         }
 259              		.loc 2 86 9
 260 00c4 83308102 		ld	ra,40(sp)
 261              		.cfi_restore 1
 262 00c8 03340102 		ld	s0,32(sp)
 263              		.cfi_restore 8
 264              		.cfi_def_cfa 2, 48
 265 00cc 83348101 		ld	s1,24(sp)
 266              		.cfi_restore 9
 267 00d0 03390101 		ld	s2,16(sp)
 268              		.cfi_restore 18
 269              	.LVL24:
 270 00d4 83398100 		ld	s3,8(sp)
 271              		.cfi_restore 19
 272              	.LVL25:
 273 00d8 13010103 		addi	sp,sp,48
 274              		.cfi_def_cfa_offset 0
 275 00dc 67800000 		jr	ra
 276              		.cfi_endproc
 277              	.LFE30:
 279              		.section	.text._ZN19ConsumerProducerCPP8ConsumerD2Ev,"axG",@progbits,_ZN19ConsumerProducerCPP8Cons
 280              		.align	2
 281              		.weak	_ZN19ConsumerProducerCPP8ConsumerD2Ev
 283              	_ZN19ConsumerProducerCPP8ConsumerD2Ev:
 284              	.LFB35:
  62:src/user/test/ConsumerProducer_CPP_API_test.hpp ****         thread_data *td;
 285              		.loc 2 62 11 is_stmt 1
 286              		.cfi_startproc
 287              	.LVL26:
 288 0000 130101FF 		addi	sp,sp,-16
 289              		.cfi_def_cfa_offset 16
 290 0004 23341100 		sd	ra,8(sp)
 291 0008 23308100 		sd	s0,0(sp)
 292              		.cfi_offset 1, -8
 293              		.cfi_offset 8, -16
 294 000c 13040101 		addi	s0,sp,16
 295              		.cfi_def_cfa 8, 0
 296              	.LBB84:
  62:src/user/test/ConsumerProducer_CPP_API_test.hpp ****         thread_data *td;
 297              		.loc 2 62 11 is_stmt 0
 298 0010 97070000 		lla	a5,_ZTVN19ConsumerProducerCPP8ConsumerE+16
 298      93870700 
 299 0018 2330F500 		sd	a5,0(a0)
 300 001c 97000000 		call	_ZN6ThreadD2Ev
 300      E7800000 
 301              	.LVL27:
 302              	.LBE84:
 303 0024 83308100 		ld	ra,8(sp)
GAS LISTING /tmp/cc8AT9ge.s 			page 9


 304              		.cfi_restore 1
 305 0028 03340100 		ld	s0,0(sp)
 306              		.cfi_restore 8
 307              		.cfi_def_cfa 2, 16
 308 002c 13010101 		addi	sp,sp,16
 309              		.cfi_def_cfa_offset 0
 310 0030 67800000 		jr	ra
 311              		.cfi_endproc
 312              	.LFE35:
 314              		.weak	_ZN19ConsumerProducerCPP8ConsumerD1Ev
 315              		.set	_ZN19ConsumerProducerCPP8ConsumerD1Ev,_ZN19ConsumerProducerCPP8ConsumerD2Ev
 316              		.section	.text._ZN19ConsumerProducerCPP8ConsumerD0Ev,"axG",@progbits,_ZN19ConsumerProducerCPP8Cons
 317              		.align	2
 318              		.weak	_ZN19ConsumerProducerCPP8ConsumerD0Ev
 320              	_ZN19ConsumerProducerCPP8ConsumerD0Ev:
 321              	.LFB37:
  62:src/user/test/ConsumerProducer_CPP_API_test.hpp ****         thread_data *td;
 322              		.loc 2 62 11 is_stmt 1
 323              		.cfi_startproc
 324              	.LVL28:
 325 0000 130101FE 		addi	sp,sp,-32
 326              		.cfi_def_cfa_offset 32
 327 0004 233C1100 		sd	ra,24(sp)
 328 0008 23388100 		sd	s0,16(sp)
 329 000c 23349100 		sd	s1,8(sp)
 330              		.cfi_offset 1, -8
 331              		.cfi_offset 8, -16
 332              		.cfi_offset 9, -24
 333 0010 13040102 		addi	s0,sp,32
 334              		.cfi_def_cfa 8, 0
 335 0014 93040500 		mv	s1,a0
 336              	.LVL29:
 337              	.LBB85:
 338              	.LBB86:
  62:src/user/test/ConsumerProducer_CPP_API_test.hpp ****         thread_data *td;
 339              		.loc 2 62 11 is_stmt 0
 340 0018 97070000 		lla	a5,_ZTVN19ConsumerProducerCPP8ConsumerE+16
 340      93870700 
 341 0020 2330F500 		sd	a5,0(a0)
 342 0024 97000000 		call	_ZN6ThreadD2Ev
 342      E7800000 
 343              	.LVL30:
 344              	.LBE86:
 345              	.LBE85:
 346 002c 13850400 		mv	a0,s1
 347 0030 97000000 		call	_ZdlPv
 347      E7800000 
 348              	.LVL31:
 349 0038 83308101 		ld	ra,24(sp)
 350              		.cfi_restore 1
 351 003c 03340101 		ld	s0,16(sp)
 352              		.cfi_restore 8
 353              		.cfi_def_cfa 2, 32
 354 0040 83348100 		ld	s1,8(sp)
 355              		.cfi_restore 9
 356              	.LVL32:
 357 0044 13010102 		addi	sp,sp,32
GAS LISTING /tmp/cc8AT9ge.s 			page 10


 358              		.cfi_def_cfa_offset 0
 359 0048 67800000 		jr	ra
 360              		.cfi_endproc
 361              	.LFE37:
 363              		.section	.text._ZN19ConsumerProducerCPP16ProducerKeyboradD2Ev,"axG",@progbits,_ZN19ConsumerProduce
 364              		.align	2
 365              		.weak	_ZN19ConsumerProducerCPP16ProducerKeyboradD2Ev
 367              	_ZN19ConsumerProducerCPP16ProducerKeyboradD2Ev:
 368              	.LFB43:
  25:src/user/test/ConsumerProducer_CPP_API_test.hpp ****         thread_data *td;
 369              		.loc 2 25 11 is_stmt 1
 370              		.cfi_startproc
 371              	.LVL33:
 372 0000 130101FF 		addi	sp,sp,-16
 373              		.cfi_def_cfa_offset 16
 374 0004 23341100 		sd	ra,8(sp)
 375 0008 23308100 		sd	s0,0(sp)
 376              		.cfi_offset 1, -8
 377              		.cfi_offset 8, -16
 378 000c 13040101 		addi	s0,sp,16
 379              		.cfi_def_cfa 8, 0
 380              	.LBB87:
  25:src/user/test/ConsumerProducer_CPP_API_test.hpp ****         thread_data *td;
 381              		.loc 2 25 11 is_stmt 0
 382 0010 97070000 		lla	a5,_ZTVN19ConsumerProducerCPP16ProducerKeyboradE+16
 382      93870700 
 383 0018 2330F500 		sd	a5,0(a0)
 384 001c 97000000 		call	_ZN6ThreadD2Ev
 384      E7800000 
 385              	.LVL34:
 386              	.LBE87:
 387 0024 83308100 		ld	ra,8(sp)
 388              		.cfi_restore 1
 389 0028 03340100 		ld	s0,0(sp)
 390              		.cfi_restore 8
 391              		.cfi_def_cfa 2, 16
 392 002c 13010101 		addi	sp,sp,16
 393              		.cfi_def_cfa_offset 0
 394 0030 67800000 		jr	ra
 395              		.cfi_endproc
 396              	.LFE43:
 398              		.weak	_ZN19ConsumerProducerCPP16ProducerKeyboradD1Ev
 399              		.set	_ZN19ConsumerProducerCPP16ProducerKeyboradD1Ev,_ZN19ConsumerProducerCPP16ProducerKeyboradD2Ev
 400              		.section	.text._ZN19ConsumerProducerCPP16ProducerKeyboradD0Ev,"axG",@progbits,_ZN19ConsumerProduce
 401              		.align	2
 402              		.weak	_ZN19ConsumerProducerCPP16ProducerKeyboradD0Ev
 404              	_ZN19ConsumerProducerCPP16ProducerKeyboradD0Ev:
 405              	.LFB45:
  25:src/user/test/ConsumerProducer_CPP_API_test.hpp ****         thread_data *td;
 406              		.loc 2 25 11 is_stmt 1
 407              		.cfi_startproc
 408              	.LVL35:
 409 0000 130101FE 		addi	sp,sp,-32
 410              		.cfi_def_cfa_offset 32
 411 0004 233C1100 		sd	ra,24(sp)
 412 0008 23388100 		sd	s0,16(sp)
 413 000c 23349100 		sd	s1,8(sp)
GAS LISTING /tmp/cc8AT9ge.s 			page 11


 414              		.cfi_offset 1, -8
 415              		.cfi_offset 8, -16
 416              		.cfi_offset 9, -24
 417 0010 13040102 		addi	s0,sp,32
 418              		.cfi_def_cfa 8, 0
 419 0014 93040500 		mv	s1,a0
 420              	.LVL36:
 421              	.LBB88:
 422              	.LBB89:
  25:src/user/test/ConsumerProducer_CPP_API_test.hpp ****         thread_data *td;
 423              		.loc 2 25 11 is_stmt 0
 424 0018 97070000 		lla	a5,_ZTVN19ConsumerProducerCPP16ProducerKeyboradE+16
 424      93870700 
 425 0020 2330F500 		sd	a5,0(a0)
 426 0024 97000000 		call	_ZN6ThreadD2Ev
 426      E7800000 
 427              	.LVL37:
 428              	.LBE89:
 429              	.LBE88:
 430 002c 13850400 		mv	a0,s1
 431 0030 97000000 		call	_ZdlPv
 431      E7800000 
 432              	.LVL38:
 433 0038 83308101 		ld	ra,24(sp)
 434              		.cfi_restore 1
 435 003c 03340101 		ld	s0,16(sp)
 436              		.cfi_restore 8
 437              		.cfi_def_cfa 2, 32
 438 0040 83348100 		ld	s1,8(sp)
 439              		.cfi_restore 9
 440              	.LVL39:
 441 0044 13010102 		addi	sp,sp,32
 442              		.cfi_def_cfa_offset 0
 443 0048 67800000 		jr	ra
 444              		.cfi_endproc
 445              	.LFE45:
 447              		.section	.text._ZN19ConsumerProducerCPP8ProducerD2Ev,"axG",@progbits,_ZN19ConsumerProducerCPP8Prod
 448              		.align	2
 449              		.weak	_ZN19ConsumerProducerCPP8ProducerD2Ev
 451              	_ZN19ConsumerProducerCPP8ProducerD2Ev:
 452              	.LFB39:
  45:src/user/test/ConsumerProducer_CPP_API_test.hpp ****         thread_data *td;
 453              		.loc 2 45 11 is_stmt 1
 454              		.cfi_startproc
 455              	.LVL40:
 456 0000 130101FF 		addi	sp,sp,-16
 457              		.cfi_def_cfa_offset 16
 458 0004 23341100 		sd	ra,8(sp)
 459 0008 23308100 		sd	s0,0(sp)
 460              		.cfi_offset 1, -8
 461              		.cfi_offset 8, -16
 462 000c 13040101 		addi	s0,sp,16
 463              		.cfi_def_cfa 8, 0
 464              	.LBB90:
  45:src/user/test/ConsumerProducer_CPP_API_test.hpp ****         thread_data *td;
 465              		.loc 2 45 11 is_stmt 0
 466 0010 97070000 		lla	a5,_ZTVN19ConsumerProducerCPP8ProducerE+16
GAS LISTING /tmp/cc8AT9ge.s 			page 12


 466      93870700 
 467 0018 2330F500 		sd	a5,0(a0)
 468 001c 97000000 		call	_ZN6ThreadD2Ev
 468      E7800000 
 469              	.LVL41:
 470              	.LBE90:
 471 0024 83308100 		ld	ra,8(sp)
 472              		.cfi_restore 1
 473 0028 03340100 		ld	s0,0(sp)
 474              		.cfi_restore 8
 475              		.cfi_def_cfa 2, 16
 476 002c 13010101 		addi	sp,sp,16
 477              		.cfi_def_cfa_offset 0
 478 0030 67800000 		jr	ra
 479              		.cfi_endproc
 480              	.LFE39:
 482              		.weak	_ZN19ConsumerProducerCPP8ProducerD1Ev
 483              		.set	_ZN19ConsumerProducerCPP8ProducerD1Ev,_ZN19ConsumerProducerCPP8ProducerD2Ev
 484              		.section	.text._ZN19ConsumerProducerCPP8ProducerD0Ev,"axG",@progbits,_ZN19ConsumerProducerCPP8Prod
 485              		.align	2
 486              		.weak	_ZN19ConsumerProducerCPP8ProducerD0Ev
 488              	_ZN19ConsumerProducerCPP8ProducerD0Ev:
 489              	.LFB41:
  45:src/user/test/ConsumerProducer_CPP_API_test.hpp ****         thread_data *td;
 490              		.loc 2 45 11 is_stmt 1
 491              		.cfi_startproc
 492              	.LVL42:
 493 0000 130101FE 		addi	sp,sp,-32
 494              		.cfi_def_cfa_offset 32
 495 0004 233C1100 		sd	ra,24(sp)
 496 0008 23388100 		sd	s0,16(sp)
 497 000c 23349100 		sd	s1,8(sp)
 498              		.cfi_offset 1, -8
 499              		.cfi_offset 8, -16
 500              		.cfi_offset 9, -24
 501 0010 13040102 		addi	s0,sp,32
 502              		.cfi_def_cfa 8, 0
 503 0014 93040500 		mv	s1,a0
 504              	.LVL43:
 505              	.LBB91:
 506              	.LBB92:
  45:src/user/test/ConsumerProducer_CPP_API_test.hpp ****         thread_data *td;
 507              		.loc 2 45 11 is_stmt 0
 508 0018 97070000 		lla	a5,_ZTVN19ConsumerProducerCPP8ProducerE+16
 508      93870700 
 509 0020 2330F500 		sd	a5,0(a0)
 510 0024 97000000 		call	_ZN6ThreadD2Ev
 510      E7800000 
 511              	.LVL44:
 512              	.LBE92:
 513              	.LBE91:
 514 002c 13850400 		mv	a0,s1
 515 0030 97000000 		call	_ZdlPv
 515      E7800000 
 516              	.LVL45:
 517 0038 83308101 		ld	ra,24(sp)
 518              		.cfi_restore 1
GAS LISTING /tmp/cc8AT9ge.s 			page 13


 519 003c 03340101 		ld	s0,16(sp)
 520              		.cfi_restore 8
 521              		.cfi_def_cfa 2, 32
 522 0040 83348100 		ld	s1,8(sp)
 523              		.cfi_restore 9
 524              	.LVL46:
 525 0044 13010102 		addi	sp,sp,32
 526              		.cfi_def_cfa_offset 0
 527 0048 67800000 		jr	ra
 528              		.cfi_endproc
 529              	.LFE41:
 531              		.section	.text._ZN19ConsumerProducerCPP16ProducerKeyborad3runEv,"axG",@progbits,_ZN19ConsumerProdu
 532              		.align	2
 533              		.weak	_ZN19ConsumerProducerCPP16ProducerKeyborad3runEv
 535              	_ZN19ConsumerProducerCPP16ProducerKeyborad3runEv:
 536              	.LFB22:
  30:src/user/test/ConsumerProducer_CPP_API_test.hpp ****             int key;
 537              		.loc 2 30 14 is_stmt 1
 538              		.cfi_startproc
 539              	.LVL47:
 540 0000 130101FE 		addi	sp,sp,-32
 541              		.cfi_def_cfa_offset 32
 542 0004 233C1100 		sd	ra,24(sp)
 543 0008 23388100 		sd	s0,16(sp)
 544 000c 23349100 		sd	s1,8(sp)
 545              		.cfi_offset 1, -8
 546              		.cfi_offset 8, -16
 547              		.cfi_offset 9, -24
 548 0010 13040102 		addi	s0,sp,32
 549              		.cfi_def_cfa 8, 0
 550 0014 93040500 		mv	s1,a0
  31:src/user/test/ConsumerProducer_CPP_API_test.hpp ****             int i = 0;
 551              		.loc 2 31 13
  32:src/user/test/ConsumerProducer_CPP_API_test.hpp ****             while ((key = getc()) != 0x1b) {
 552              		.loc 2 32 13
 553              	.LVL48:
 554              	.L26:
  33:src/user/test/ConsumerProducer_CPP_API_test.hpp ****                 td->buffer->put(key);
 555              		.loc 2 33 13
  33:src/user/test/ConsumerProducer_CPP_API_test.hpp ****                 td->buffer->put(key);
 556              		.loc 2 33 31 is_stmt 0
 557 0018 97000000 		call	getc
 557      E7800000 
 558              	.LVL49:
  33:src/user/test/ConsumerProducer_CPP_API_test.hpp ****                 td->buffer->put(key);
 559              		.loc 2 33 25
 560 0020 9B050500 		sext.w	a1,a0
 561              	.LVL50:
  33:src/user/test/ConsumerProducer_CPP_API_test.hpp ****                 td->buffer->put(key);
 562              		.loc 2 33 35
 563 0024 9307B001 		li	a5,27
 564 0028 638CF500 		beq	a1,a5,.L25
  34:src/user/test/ConsumerProducer_CPP_API_test.hpp ****                 i++;
 565              		.loc 2 34 17 is_stmt 1
 566 002c 83B70401 		ld	a5,16(s1)
  34:src/user/test/ConsumerProducer_CPP_API_test.hpp ****                 i++;
 567              		.loc 2 34 32 is_stmt 0
GAS LISTING /tmp/cc8AT9ge.s 			page 14


 568 0030 03B58700 		ld	a0,8(a5)
 569 0034 97000000 		call	_ZN9BufferCPP3putEi
 569      E7800000 
 570              	.LVL51:
  35:src/user/test/ConsumerProducer_CPP_API_test.hpp ****             }
 571              		.loc 2 35 17 is_stmt 1
  33:src/user/test/ConsumerProducer_CPP_API_test.hpp ****                 td->buffer->put(key);
 572              		.loc 2 33 13 is_stmt 0
 573 003c 6FF0DFFD 		j	.L26
 574              	.LVL52:
 575              	.L25:
  38:src/user/test/ConsumerProducer_CPP_API_test.hpp ****             td->buffer->put('!');
 576              		.loc 2 38 13 is_stmt 1
  38:src/user/test/ConsumerProducer_CPP_API_test.hpp ****             td->buffer->put('!');
 577              		.loc 2 38 23 is_stmt 0
 578 0040 93071000 		li	a5,1
 579 0044 17070000 		sw	a5,_ZN19ConsumerProducerCPP9threadEndE,a4
 579      2320F700 
  39:src/user/test/ConsumerProducer_CPP_API_test.hpp **** 
 580              		.loc 2 39 13 is_stmt 1
 581 004c 83B70401 		ld	a5,16(s1)
  39:src/user/test/ConsumerProducer_CPP_API_test.hpp **** 
 582              		.loc 2 39 28 is_stmt 0
 583 0050 93051002 		li	a1,33
 584              	.LVL53:
 585 0054 03B58700 		ld	a0,8(a5)
 586              	.LVL54:
 587 0058 97000000 		call	_ZN9BufferCPP3putEi
 587      E7800000 
 588              	.LVL55:
  41:src/user/test/ConsumerProducer_CPP_API_test.hpp ****         }
 589              		.loc 2 41 13 is_stmt 1
 590 0060 83B70401 		ld	a5,16(s1)
  41:src/user/test/ConsumerProducer_CPP_API_test.hpp ****         }
 591              		.loc 2 41 17 is_stmt 0
 592 0064 83B70701 		ld	a5,16(a5)
 593              	.LVL56:
 594              	.LBB93:
 595              	.LBB94:
  28:src/user/test/../../../h/syscall_cpp.hpp **** private:
 596              		.loc 1 28 21 is_stmt 1
  28:src/user/test/../../../h/syscall_cpp.hpp **** private:
 597              		.loc 1 28 31 is_stmt 0
 598 0068 03B58700 		ld	a0,8(a5)
 599 006c 97000000 		call	sem_signal
 599      E7800000 
 600              	.LVL57:
 601              	.LBE94:
 602              	.LBE93:
  42:src/user/test/ConsumerProducer_CPP_API_test.hpp ****     };
 603              		.loc 2 42 9
 604 0074 83308101 		ld	ra,24(sp)
 605              		.cfi_restore 1
 606 0078 03340101 		ld	s0,16(sp)
 607              		.cfi_restore 8
 608              		.cfi_def_cfa 2, 32
 609 007c 83348100 		ld	s1,8(sp)
GAS LISTING /tmp/cc8AT9ge.s 			page 15


 610              		.cfi_restore 9
 611              	.LVL58:
 612 0080 13010102 		addi	sp,sp,32
 613              		.cfi_def_cfa_offset 0
 614 0084 67800000 		jr	ra
 615              		.cfi_endproc
 616              	.LFE22:
 618              		.section	.text._ZN19ConsumerProducerCPP8Producer3runEv,"axG",@progbits,_ZN19ConsumerProducerCPP8Pr
 619              		.align	2
 620              		.weak	_ZN19ConsumerProducerCPP8Producer3runEv
 622              	_ZN19ConsumerProducerCPP8Producer3runEv:
 623              	.LFB26:
  50:src/user/test/ConsumerProducer_CPP_API_test.hpp ****             int i = 0;
 624              		.loc 2 50 14 is_stmt 1
 625              		.cfi_startproc
 626              	.LVL59:
 627 0000 130101FE 		addi	sp,sp,-32
 628              		.cfi_def_cfa_offset 32
 629 0004 233C1100 		sd	ra,24(sp)
 630 0008 23388100 		sd	s0,16(sp)
 631 000c 23349100 		sd	s1,8(sp)
 632 0010 23302101 		sd	s2,0(sp)
 633              		.cfi_offset 1, -8
 634              		.cfi_offset 8, -16
 635              		.cfi_offset 9, -24
 636              		.cfi_offset 18, -32
 637 0014 13040102 		addi	s0,sp,32
 638              		.cfi_def_cfa 8, 0
 639 0018 93040500 		mv	s1,a0
  51:src/user/test/ConsumerProducer_CPP_API_test.hpp ****             while (!threadEnd) {
 640              		.loc 2 51 13
 641              	.LVL60:
  51:src/user/test/ConsumerProducer_CPP_API_test.hpp ****             while (!threadEnd) {
 642              		.loc 2 51 17 is_stmt 0
 643 001c 13090000 		li	s2,0
 644              	.LVL61:
 645              	.L30:
  52:src/user/test/ConsumerProducer_CPP_API_test.hpp ****                 td->buffer->put(td->id + '0');
 646              		.loc 2 52 13 is_stmt 1
  52:src/user/test/ConsumerProducer_CPP_API_test.hpp ****                 td->buffer->put(td->id + '0');
 647              		.loc 2 52 20 is_stmt 0
 648 0020 97070000 		lla	a5,_ZN19ConsumerProducerCPP9threadEndE
 648      93870700 
 649 0028 83A70700 		lw	a5,0(a5)
 650 002c 9B870700 		sext.w	a5,a5
 651 0030 63920704 		bne	a5,zero,.L29
  53:src/user/test/ConsumerProducer_CPP_API_test.hpp ****                 i++;
 652              		.loc 2 53 17 is_stmt 1
 653 0034 83B70401 		ld	a5,16(s1)
  53:src/user/test/ConsumerProducer_CPP_API_test.hpp ****                 i++;
 654              		.loc 2 53 37 is_stmt 0
 655 0038 83A50700 		lw	a1,0(a5)
  53:src/user/test/ConsumerProducer_CPP_API_test.hpp ****                 i++;
 656              		.loc 2 53 32
 657 003c 9B850503 		addiw	a1,a1,48
 658 0040 03B58700 		ld	a0,8(a5)
 659 0044 97000000 		call	_ZN9BufferCPP3putEi
GAS LISTING /tmp/cc8AT9ge.s 			page 16


 659      E7800000 
 660              	.LVL62:
  54:src/user/test/ConsumerProducer_CPP_API_test.hpp ****                 Thread::sleep((i+td->id)%5);
 661              		.loc 2 54 17 is_stmt 1
  54:src/user/test/ConsumerProducer_CPP_API_test.hpp ****                 Thread::sleep((i+td->id)%5);
 662              		.loc 2 54 18 is_stmt 0
 663 004c 1B051900 		addiw	a0,s2,1
 664 0050 1B090500 		sext.w	s2,a0
 665              	.LVL63:
  55:src/user/test/ConsumerProducer_CPP_API_test.hpp ****             }
 666              		.loc 2 55 17 is_stmt 1
  55:src/user/test/ConsumerProducer_CPP_API_test.hpp ****             }
 667              		.loc 2 55 34 is_stmt 0
 668 0054 83B70401 		ld	a5,16(s1)
  55:src/user/test/ConsumerProducer_CPP_API_test.hpp ****             }
 669              		.loc 2 55 38
 670 0058 83A70700 		lw	a5,0(a5)
  55:src/user/test/ConsumerProducer_CPP_API_test.hpp ****             }
 671              		.loc 2 55 33
 672 005c BB87A700 		addw	a5,a5,a0
 673              	.LVL64:
 674              	.LBB95:
 675              	.LBB96:
  14:src/user/test/../../../h/syscall_cpp.hpp **** protected:
 676              		.loc 1 14 38 is_stmt 1
  14:src/user/test/../../../h/syscall_cpp.hpp **** protected:
 677              		.loc 1 14 48 is_stmt 0
 678 0060 13055000 		li	a0,5
 679              	.LVL65:
 680 0064 3BE5A702 		remw	a0,a5,a0
 681              	.LVL66:
 682 0068 97000000 		call	time_sleep
 682      E7800000 
 683              	.LVL67:
 684 0070 6FF01FFB 		j	.L30
 685              	.L29:
 686              	.LBE96:
 687              	.LBE95:
  58:src/user/test/ConsumerProducer_CPP_API_test.hpp ****         }
 688              		.loc 2 58 13 is_stmt 1
 689 0074 83B70401 		ld	a5,16(s1)
  58:src/user/test/ConsumerProducer_CPP_API_test.hpp ****         }
 690              		.loc 2 58 17 is_stmt 0
 691 0078 83B70701 		ld	a5,16(a5)
 692              	.LVL68:
 693              	.LBB97:
 694              	.LBB98:
  28:src/user/test/../../../h/syscall_cpp.hpp **** private:
 695              		.loc 1 28 21 is_stmt 1
  28:src/user/test/../../../h/syscall_cpp.hpp **** private:
 696              		.loc 1 28 31 is_stmt 0
 697 007c 03B58700 		ld	a0,8(a5)
 698 0080 97000000 		call	sem_signal
 698      E7800000 
 699              	.LVL69:
 700              	.LBE98:
 701              	.LBE97:
GAS LISTING /tmp/cc8AT9ge.s 			page 17


  59:src/user/test/ConsumerProducer_CPP_API_test.hpp ****     };
 702              		.loc 2 59 9
 703 0088 83308101 		ld	ra,24(sp)
 704              		.cfi_restore 1
 705 008c 03340101 		ld	s0,16(sp)
 706              		.cfi_restore 8
 707              		.cfi_def_cfa 2, 32
 708 0090 83348100 		ld	s1,8(sp)
 709              		.cfi_restore 9
 710              	.LVL70:
 711 0094 03390100 		ld	s2,0(sp)
 712              		.cfi_restore 18
 713              	.LVL71:
 714 0098 13010102 		addi	sp,sp,32
 715              		.cfi_def_cfa_offset 0
 716 009c 67800000 		jr	ra
 717              		.cfi_endproc
 718              	.LFE26:
 720              		.text
 721              		.align	2
 722              		.globl	_ZN19ConsumerProducerCPP20testConsumerProducerEv
 724              	_ZN19ConsumerProducerCPP20testConsumerProducerEv:
 725              	.LFB31:
  87:src/user/test/ConsumerProducer_CPP_API_test.hpp ****     };
  88:src/user/test/ConsumerProducer_CPP_API_test.hpp **** 
  89:src/user/test/ConsumerProducer_CPP_API_test.hpp ****     void testConsumerProducer() {
 726              		.loc 2 89 33 is_stmt 1
 727              		.cfi_startproc
 728              		.cfi_personality 0x9b,DW.ref.__gxx_personality_v0
 729              		.cfi_lsda 0x1b,.LLSDA31
 730 0000 130101F9 		addi	sp,sp,-112
 731              		.cfi_def_cfa_offset 112
 732 0004 23341106 		sd	ra,104(sp)
 733 0008 23308106 		sd	s0,96(sp)
 734 000c 233C9104 		sd	s1,88(sp)
 735 0010 23382105 		sd	s2,80(sp)
 736 0014 23343105 		sd	s3,72(sp)
 737 0018 23304105 		sd	s4,64(sp)
 738 001c 233C5103 		sd	s5,56(sp)
 739 0020 23386103 		sd	s6,48(sp)
 740 0024 23347103 		sd	s7,40(sp)
 741 0028 23308103 		sd	s8,32(sp)
 742              		.cfi_offset 1, -8
 743              		.cfi_offset 8, -16
 744              		.cfi_offset 9, -24
 745              		.cfi_offset 18, -32
 746              		.cfi_offset 19, -40
 747              		.cfi_offset 20, -48
 748              		.cfi_offset 21, -56
 749              		.cfi_offset 22, -64
 750              		.cfi_offset 23, -72
 751              		.cfi_offset 24, -80
 752 002c 13040107 		addi	s0,sp,112
 753              		.cfi_def_cfa 8, 0
  90:src/user/test/ConsumerProducer_CPP_API_test.hpp ****         char input[30];
  91:src/user/test/ConsumerProducer_CPP_API_test.hpp ****         int n, threadNum;
  92:src/user/test/ConsumerProducer_CPP_API_test.hpp **** 
GAS LISTING /tmp/cc8AT9ge.s 			page 18


  93:src/user/test/ConsumerProducer_CPP_API_test.hpp ****         printString("Unesite broj proizvodjaca?\n");
  94:src/user/test/ConsumerProducer_CPP_API_test.hpp ****         getString(input, 30);
  95:src/user/test/ConsumerProducer_CPP_API_test.hpp ****         threadNum = stringToInt(input);
  96:src/user/test/ConsumerProducer_CPP_API_test.hpp **** 
  97:src/user/test/ConsumerProducer_CPP_API_test.hpp ****         printString("Unesite velicinu bafera?\n");
  98:src/user/test/ConsumerProducer_CPP_API_test.hpp ****         getString(input, 30);
  99:src/user/test/ConsumerProducer_CPP_API_test.hpp ****         n = stringToInt(input);
 100:src/user/test/ConsumerProducer_CPP_API_test.hpp **** 
 101:src/user/test/ConsumerProducer_CPP_API_test.hpp ****         printString("Broj proizvodjaca "); printInt(threadNum);
 102:src/user/test/ConsumerProducer_CPP_API_test.hpp ****         printString(" i velicina bafera "); printInt(n);
 103:src/user/test/ConsumerProducer_CPP_API_test.hpp ****         printString(".\n");
 104:src/user/test/ConsumerProducer_CPP_API_test.hpp **** 
 105:src/user/test/ConsumerProducer_CPP_API_test.hpp ****         if(threadNum > n) {
 106:src/user/test/ConsumerProducer_CPP_API_test.hpp ****             printString("Broj proizvodjaca ne sme biti manji od velicine bafera!\n");
 107:src/user/test/ConsumerProducer_CPP_API_test.hpp ****             return;
 108:src/user/test/ConsumerProducer_CPP_API_test.hpp ****         } else if (threadNum < 1) {
 109:src/user/test/ConsumerProducer_CPP_API_test.hpp ****             printString("Broj proizvodjaca mora biti veci od nula!\n");
 110:src/user/test/ConsumerProducer_CPP_API_test.hpp ****             return;
 111:src/user/test/ConsumerProducer_CPP_API_test.hpp ****         }
 112:src/user/test/ConsumerProducer_CPP_API_test.hpp **** 
 113:src/user/test/ConsumerProducer_CPP_API_test.hpp ****         printString("\n-----USER---NIT-----\nAlokacija BufferCpp: ");
 114:src/user/test/ConsumerProducer_CPP_API_test.hpp ****         BufferCPP *buffer = new BufferCPP(n);
 115:src/user/test/ConsumerProducer_CPP_API_test.hpp ****         printInt((uint64)buffer, 16);
 116:src/user/test/ConsumerProducer_CPP_API_test.hpp ****         printString("\nsizeof(BufferCPP): "); printInt(sizeof(BufferCPP), 16); printString(".\n");
 117:src/user/test/ConsumerProducer_CPP_API_test.hpp ****         printString("\n----USER-NIT---\n");
 118:src/user/test/ConsumerProducer_CPP_API_test.hpp ****         waitForAll = new Semaphore(0);
 119:src/user/test/ConsumerProducer_CPP_API_test.hpp ****         Thread *producers[threadNum];
 120:src/user/test/ConsumerProducer_CPP_API_test.hpp ****         thread_data threadData[threadNum + 1];
 121:src/user/test/ConsumerProducer_CPP_API_test.hpp **** 
 122:src/user/test/ConsumerProducer_CPP_API_test.hpp ****         threadData[threadNum].id = threadNum;
 123:src/user/test/ConsumerProducer_CPP_API_test.hpp ****         threadData[threadNum].buffer = buffer;
 124:src/user/test/ConsumerProducer_CPP_API_test.hpp ****         threadData[threadNum].sem = waitForAll;
 125:src/user/test/ConsumerProducer_CPP_API_test.hpp **** 
 126:src/user/test/ConsumerProducer_CPP_API_test.hpp ****         printString("\n-----USER---NIT-----\nAlokacija Consumer: ");
 127:src/user/test/ConsumerProducer_CPP_API_test.hpp ****         Thread *consumer = new Consumer(&threadData[threadNum]);
 128:src/user/test/ConsumerProducer_CPP_API_test.hpp ****         printInt((uint64)consumer, 16);
 129:src/user/test/ConsumerProducer_CPP_API_test.hpp ****         printString("\nsizeof(Consumer): "); printInt(sizeof(Consumer), 16); printString(".\n");
 130:src/user/test/ConsumerProducer_CPP_API_test.hpp ****         printString("\n----USER-NIT---\n");
 131:src/user/test/ConsumerProducer_CPP_API_test.hpp ****         
 132:src/user/test/ConsumerProducer_CPP_API_test.hpp ****         consumer->start();
 133:src/user/test/ConsumerProducer_CPP_API_test.hpp **** 
 134:src/user/test/ConsumerProducer_CPP_API_test.hpp ****         threadData[0].id = 0;
 135:src/user/test/ConsumerProducer_CPP_API_test.hpp ****         threadData[0].buffer = buffer;
 136:src/user/test/ConsumerProducer_CPP_API_test.hpp ****         threadData[0].sem = waitForAll;
 137:src/user/test/ConsumerProducer_CPP_API_test.hpp ****         producers[0] = new ProducerKeyborad(&threadData[0]);
 138:src/user/test/ConsumerProducer_CPP_API_test.hpp ****         producers[0]->start();
 139:src/user/test/ConsumerProducer_CPP_API_test.hpp **** 
 140:src/user/test/ConsumerProducer_CPP_API_test.hpp ****         for (int i = 1; i < threadNum; i++) {
 141:src/user/test/ConsumerProducer_CPP_API_test.hpp ****             threadData[i].id = i;
 142:src/user/test/ConsumerProducer_CPP_API_test.hpp ****             threadData[i].buffer = buffer;
 143:src/user/test/ConsumerProducer_CPP_API_test.hpp ****             threadData[i].sem = waitForAll;
 144:src/user/test/ConsumerProducer_CPP_API_test.hpp **** 
 145:src/user/test/ConsumerProducer_CPP_API_test.hpp ****             printString("\n-----USER---NIT-----\nAlokacija Producer: ");
 146:src/user/test/ConsumerProducer_CPP_API_test.hpp ****             producers[i] = new Producer(&threadData[i]);
 147:src/user/test/ConsumerProducer_CPP_API_test.hpp ****             printInt((uint64)producers[i], 16);
 148:src/user/test/ConsumerProducer_CPP_API_test.hpp ****             printString("\nsizeof(Producer): "); printInt(sizeof(Producer), 16); printString(".\n")
 149:src/user/test/ConsumerProducer_CPP_API_test.hpp ****             printString("\n");
GAS LISTING /tmp/cc8AT9ge.s 			page 19


 150:src/user/test/ConsumerProducer_CPP_API_test.hpp **** 
 151:src/user/test/ConsumerProducer_CPP_API_test.hpp ****             producers[i]->start();
 152:src/user/test/ConsumerProducer_CPP_API_test.hpp **** 
 153:src/user/test/ConsumerProducer_CPP_API_test.hpp ****         }
 154:src/user/test/ConsumerProducer_CPP_API_test.hpp **** 
 155:src/user/test/ConsumerProducer_CPP_API_test.hpp ****         Thread::dispatch();
 156:src/user/test/ConsumerProducer_CPP_API_test.hpp **** 
 157:src/user/test/ConsumerProducer_CPP_API_test.hpp ****         for (int i = 0; i <= threadNum; i++) {
 158:src/user/test/ConsumerProducer_CPP_API_test.hpp ****             waitForAll->wait();
 159:src/user/test/ConsumerProducer_CPP_API_test.hpp ****         }
 160:src/user/test/ConsumerProducer_CPP_API_test.hpp **** 
 161:src/user/test/ConsumerProducer_CPP_API_test.hpp ****         delete waitForAll;
 162:src/user/test/ConsumerProducer_CPP_API_test.hpp ****         for (int i = 0; i < threadNum; i++) {
 163:src/user/test/ConsumerProducer_CPP_API_test.hpp ****             delete producers[i];
 164:src/user/test/ConsumerProducer_CPP_API_test.hpp ****         }
 165:src/user/test/ConsumerProducer_CPP_API_test.hpp ****         delete consumer;
 166:src/user/test/ConsumerProducer_CPP_API_test.hpp ****         delete buffer;
 754              		.loc 2 166 22 is_stmt 0
 755 0030 130C0100 		mv	s8,sp
  90:src/user/test/ConsumerProducer_CPP_API_test.hpp ****         char input[30];
 756              		.loc 2 90 9 is_stmt 1
  91:src/user/test/ConsumerProducer_CPP_API_test.hpp **** 
 757              		.loc 2 91 9
  93:src/user/test/ConsumerProducer_CPP_API_test.hpp ****         getString(input, 30);
 758              		.loc 2 93 9
  93:src/user/test/ConsumerProducer_CPP_API_test.hpp ****         getString(input, 30);
 759              		.loc 2 93 20 is_stmt 0
 760 0034 17050000 		lla	a0,.LC0
 760      13050500 
 761              	.LEHB1:
 762 003c 97000000 		call	_Z11printStringPKc
 762      E7800000 
 763              	.LVL72:
  94:src/user/test/ConsumerProducer_CPP_API_test.hpp ****         threadNum = stringToInt(input);
 764              		.loc 2 94 9 is_stmt 1
  94:src/user/test/ConsumerProducer_CPP_API_test.hpp ****         threadNum = stringToInt(input);
 765              		.loc 2 94 18 is_stmt 0
 766 0044 9305E001 		li	a1,30
 767 0048 130504F9 		addi	a0,s0,-112
 768 004c 97000000 		call	_Z9getStringPci
 768      E7800000 
 769              	.LVL73:
  95:src/user/test/ConsumerProducer_CPP_API_test.hpp **** 
 770              		.loc 2 95 9 is_stmt 1
  95:src/user/test/ConsumerProducer_CPP_API_test.hpp **** 
 771              		.loc 2 95 32 is_stmt 0
 772 0054 130504F9 		addi	a0,s0,-112
 773 0058 97000000 		call	_Z11stringToIntPKc
 773      E7800000 
 774              	.LVL74:
 775 0060 93090500 		mv	s3,a0
 776              	.LVL75:
  97:src/user/test/ConsumerProducer_CPP_API_test.hpp ****         getString(input, 30);
 777              		.loc 2 97 9 is_stmt 1
  97:src/user/test/ConsumerProducer_CPP_API_test.hpp ****         getString(input, 30);
 778              		.loc 2 97 20 is_stmt 0
 779 0064 17050000 		lla	a0,.LC1
GAS LISTING /tmp/cc8AT9ge.s 			page 20


 779      13050500 
 780 006c 97000000 		call	_Z11printStringPKc
 780      E7800000 
 781              	.LVL76:
  98:src/user/test/ConsumerProducer_CPP_API_test.hpp ****         n = stringToInt(input);
 782              		.loc 2 98 9 is_stmt 1
  98:src/user/test/ConsumerProducer_CPP_API_test.hpp ****         n = stringToInt(input);
 783              		.loc 2 98 18 is_stmt 0
 784 0074 9305E001 		li	a1,30
 785 0078 130504F9 		addi	a0,s0,-112
 786 007c 97000000 		call	_Z9getStringPci
 786      E7800000 
 787              	.LVL77:
  99:src/user/test/ConsumerProducer_CPP_API_test.hpp **** 
 788              		.loc 2 99 9 is_stmt 1
  99:src/user/test/ConsumerProducer_CPP_API_test.hpp **** 
 789              		.loc 2 99 24 is_stmt 0
 790 0084 130504F9 		addi	a0,s0,-112
 791 0088 97000000 		call	_Z11stringToIntPKc
 791      E7800000 
 792              	.LVL78:
 793 0090 93040500 		mv	s1,a0
 794              	.LVL79:
 101:src/user/test/ConsumerProducer_CPP_API_test.hpp ****         printString(" i velicina bafera "); printInt(n);
 795              		.loc 2 101 9 is_stmt 1
 101:src/user/test/ConsumerProducer_CPP_API_test.hpp ****         printString(" i velicina bafera "); printInt(n);
 796              		.loc 2 101 20 is_stmt 0
 797 0094 17050000 		lla	a0,.LC2
 797      13050500 
 798 009c 97000000 		call	_Z11printStringPKc
 798      E7800000 
 799              	.LVL80:
 101:src/user/test/ConsumerProducer_CPP_API_test.hpp ****         printString(" i velicina bafera "); printInt(n);
 800              		.loc 2 101 44 is_stmt 1
 101:src/user/test/ConsumerProducer_CPP_API_test.hpp ****         printString(" i velicina bafera "); printInt(n);
 801              		.loc 2 101 52 is_stmt 0
 802 00a4 9305A000 		li	a1,10
 803 00a8 13850900 		mv	a0,s3
 804 00ac 97000000 		call	_Z8printIntmi
 804      E7800000 
 805              	.LVL81:
 102:src/user/test/ConsumerProducer_CPP_API_test.hpp ****         printString(".\n");
 806              		.loc 2 102 9 is_stmt 1
 102:src/user/test/ConsumerProducer_CPP_API_test.hpp ****         printString(".\n");
 807              		.loc 2 102 20 is_stmt 0
 808 00b4 17050000 		lla	a0,.LC3
 808      13050500 
 809 00bc 97000000 		call	_Z11printStringPKc
 809      E7800000 
 810              	.LVL82:
 102:src/user/test/ConsumerProducer_CPP_API_test.hpp ****         printString(".\n");
 811              		.loc 2 102 45 is_stmt 1
 102:src/user/test/ConsumerProducer_CPP_API_test.hpp ****         printString(".\n");
 812              		.loc 2 102 53 is_stmt 0
 813 00c4 9305A000 		li	a1,10
 814 00c8 13850400 		mv	a0,s1
 815 00cc 97000000 		call	_Z8printIntmi
GAS LISTING /tmp/cc8AT9ge.s 			page 21


 815      E7800000 
 816              	.LVL83:
 103:src/user/test/ConsumerProducer_CPP_API_test.hpp **** 
 817              		.loc 2 103 9 is_stmt 1
 103:src/user/test/ConsumerProducer_CPP_API_test.hpp **** 
 818              		.loc 2 103 20 is_stmt 0
 819 00d4 17050000 		lla	a0,.LC4
 819      13050500 
 820 00dc 97000000 		call	_Z11printStringPKc
 820      E7800000 
 821              	.LVL84:
 105:src/user/test/ConsumerProducer_CPP_API_test.hpp ****             printString("Broj proizvodjaca ne sme biti manji od velicine bafera!\n");
 822              		.loc 2 105 9 is_stmt 1
 823 00e4 63CC3403 		bgt	s3,s1,.L52
 108:src/user/test/ConsumerProducer_CPP_API_test.hpp ****             printString("Broj proizvodjaca mora biti veci od nula!\n");
 824              		.loc 2 108 16
 825 00e8 63543005 		ble	s3,zero,.L53
 113:src/user/test/ConsumerProducer_CPP_API_test.hpp ****         BufferCPP *buffer = new BufferCPP(n);
 826              		.loc 2 113 9
 113:src/user/test/ConsumerProducer_CPP_API_test.hpp ****         BufferCPP *buffer = new BufferCPP(n);
 827              		.loc 2 113 20 is_stmt 0
 828 00ec 17050000 		lla	a0,.LC7
 828      13050500 
 829 00f4 97000000 		call	_Z11printStringPKc
 829      E7800000 
 830              	.LVL85:
 114:src/user/test/ConsumerProducer_CPP_API_test.hpp ****         printInt((uint64)buffer, 16);
 831              		.loc 2 114 9 is_stmt 1
 114:src/user/test/ConsumerProducer_CPP_API_test.hpp ****         printInt((uint64)buffer, 16);
 832              		.loc 2 114 44 is_stmt 0
 833 00fc 13058003 		li	a0,56
 834 0100 97000000 		call	_Znwm
 834      E7800000 
 835              	.LVL86:
 836              	.LEHE1:
 837 0108 930A0500 		mv	s5,a0
 838 010c 93850400 		mv	a1,s1
 839              	.LEHB2:
 840 0110 97000000 		call	_ZN9BufferCPPC1Ei
 840      E7800000 
 841              	.LVL87:
 842              	.LEHE2:
 843 0118 6F000003 		j	.L54
 844              	.L52:
 106:src/user/test/ConsumerProducer_CPP_API_test.hpp ****             return;
 845              		.loc 2 106 13 is_stmt 1
 106:src/user/test/ConsumerProducer_CPP_API_test.hpp ****             return;
 846              		.loc 2 106 24 is_stmt 0
 847 011c 17050000 		lla	a0,.LC5
 847      13050500 
 848              	.LEHB3:
 849 0124 97000000 		call	_Z11printStringPKc
 849      E7800000 
 850              	.LVL88:
 107:src/user/test/ConsumerProducer_CPP_API_test.hpp ****         } else if (threadNum < 1) {
 851              		.loc 2 107 13 is_stmt 1
 852 012c 6F004001 		j	.L34
GAS LISTING /tmp/cc8AT9ge.s 			page 22


 853              	.L53:
 109:src/user/test/ConsumerProducer_CPP_API_test.hpp ****             return;
 854              		.loc 2 109 13
 109:src/user/test/ConsumerProducer_CPP_API_test.hpp ****             return;
 855              		.loc 2 109 24 is_stmt 0
 856 0130 17050000 		lla	a0,.LC6
 856      13050500 
 857 0138 97000000 		call	_Z11printStringPKc
 857      E7800000 
 858              	.LVL89:
 110:src/user/test/ConsumerProducer_CPP_API_test.hpp ****         }
 859              		.loc 2 110 13 is_stmt 1
 860              	.L34:
 861 0140 13010C00 		mv	sp,s8
 862 0144 6F004032 		j	.L32
 863              	.L54:
 864              	.LVL90:
 115:src/user/test/ConsumerProducer_CPP_API_test.hpp ****         printString("\nsizeof(BufferCPP): "); printInt(sizeof(BufferCPP), 16); printString(".\n");
 865              		.loc 2 115 9 discriminator 3
 115:src/user/test/ConsumerProducer_CPP_API_test.hpp ****         printString("\nsizeof(BufferCPP): "); printInt(sizeof(BufferCPP), 16); printString(".\n");
 866              		.loc 2 115 17 is_stmt 0 discriminator 3
 867 0148 93050001 		li	a1,16
 868 014c 13850A00 		mv	a0,s5
 869 0150 97000000 		call	_Z8printIntmi
 869      E7800000 
 870              	.LVL91:
 116:src/user/test/ConsumerProducer_CPP_API_test.hpp ****         printString("\n----USER-NIT---\n");
 871              		.loc 2 116 9 is_stmt 1 discriminator 3
 116:src/user/test/ConsumerProducer_CPP_API_test.hpp ****         printString("\n----USER-NIT---\n");
 872              		.loc 2 116 20 is_stmt 0 discriminator 3
 873 0158 17050000 		lla	a0,.LC8
 873      13050500 
 874 0160 97000000 		call	_Z11printStringPKc
 874      E7800000 
 875              	.LVL92:
 116:src/user/test/ConsumerProducer_CPP_API_test.hpp ****         printString("\n----USER-NIT---\n");
 876              		.loc 2 116 47 is_stmt 1 discriminator 3
 116:src/user/test/ConsumerProducer_CPP_API_test.hpp ****         printString("\n----USER-NIT---\n");
 877              		.loc 2 116 55 is_stmt 0 discriminator 3
 878 0168 93050001 		li	a1,16
 879 016c 13058003 		li	a0,56
 880 0170 97000000 		call	_Z8printIntmi
 880      E7800000 
 881              	.LVL93:
 116:src/user/test/ConsumerProducer_CPP_API_test.hpp ****         printString("\n----USER-NIT---\n");
 882              		.loc 2 116 80 is_stmt 1 discriminator 3
 116:src/user/test/ConsumerProducer_CPP_API_test.hpp ****         printString("\n----USER-NIT---\n");
 883              		.loc 2 116 91 is_stmt 0 discriminator 3
 884 0178 17050000 		lla	a0,.LC4
 884      13050500 
 885 0180 97000000 		call	_Z11printStringPKc
 885      E7800000 
 886              	.LVL94:
 117:src/user/test/ConsumerProducer_CPP_API_test.hpp ****         waitForAll = new Semaphore(0);
 887              		.loc 2 117 9 is_stmt 1 discriminator 3
 117:src/user/test/ConsumerProducer_CPP_API_test.hpp ****         waitForAll = new Semaphore(0);
 888              		.loc 2 117 20 is_stmt 0 discriminator 3
GAS LISTING /tmp/cc8AT9ge.s 			page 23


 889 0188 17050000 		lla	a0,.LC9
 889      13050500 
 890 0190 97000000 		call	_Z11printStringPKc
 890      E7800000 
 891              	.LVL95:
 118:src/user/test/ConsumerProducer_CPP_API_test.hpp ****         Thread *producers[threadNum];
 892              		.loc 2 118 9 is_stmt 1 discriminator 3
 118:src/user/test/ConsumerProducer_CPP_API_test.hpp ****         Thread *producers[threadNum];
 893              		.loc 2 118 37 is_stmt 0 discriminator 3
 894 0198 13050001 		li	a0,16
 895 019c 97000000 		call	_Znwm
 895      E7800000 
 896              	.LVL96:
 897              	.LEHE3:
 898 01a4 93040500 		mv	s1,a0
 899              	.LVL97:
 900              	.LBB99:
 901              	.LBB100:
  25:src/user/test/../../../h/syscall_cpp.hpp ****     virtual ~Semaphore (){ sem_close(myHandle); }
 902              		.loc 1 25 35 discriminator 3
 903 01a8 97070000 		lla	a5,_ZTV9Semaphore+16
 903      93870700 
 904 01b0 2330F500 		sd	a5,0(a0)
  25:src/user/test/../../../h/syscall_cpp.hpp ****     virtual ~Semaphore (){ sem_close(myHandle); }
 905              		.loc 1 25 37 is_stmt 1 discriminator 3
  25:src/user/test/../../../h/syscall_cpp.hpp ****     virtual ~Semaphore (){ sem_close(myHandle); }
 906              		.loc 1 25 45 is_stmt 0 discriminator 3
 907 01b4 93050000 		li	a1,0
 908 01b8 13058500 		addi	a0,a0,8
 909              	.LEHB4:
 910 01bc 97000000 		call	sem_open
 910      E7800000 
 911              	.LVL98:
 912              	.LEHE4:
 913              	.LBE100:
 914              	.LBE99:
 118:src/user/test/ConsumerProducer_CPP_API_test.hpp ****         Thread *producers[threadNum];
 915              		.loc 2 118 20 discriminator 3
 916 01c4 17090000 		lla	s2,_ZN19ConsumerProducerCPP10waitForAllE
 916      13090900 
 917 01cc 23309900 		sd	s1,0(s2)
 119:src/user/test/ConsumerProducer_CPP_API_test.hpp ****         thread_data threadData[threadNum + 1];
 918              		.loc 2 119 9 is_stmt 1 discriminator 3
 919              	.LVL99:
 119:src/user/test/ConsumerProducer_CPP_API_test.hpp ****         thread_data threadData[threadNum + 1];
 920              		.loc 2 119 17 is_stmt 0 discriminator 3
 921 01d0 93973900 		slli	a5,s3,3
 922 01d4 9387F700 		addi	a5,a5,15
 923 01d8 93F707FF 		andi	a5,a5,-16
 924 01dc 3301F140 		sub	sp,sp,a5
 925 01e0 130A0100 		mv	s4,sp
 926              	.LVL100:
 120:src/user/test/ConsumerProducer_CPP_API_test.hpp **** 
 927              		.loc 2 120 9 is_stmt 1 discriminator 3
 120:src/user/test/ConsumerProducer_CPP_API_test.hpp **** 
 928              		.loc 2 120 42 is_stmt 0 discriminator 3
 929 01e4 9B871900 		addiw	a5,s3,1
GAS LISTING /tmp/cc8AT9ge.s 			page 24


 930              	.LVL101:
 120:src/user/test/ConsumerProducer_CPP_API_test.hpp **** 
 931              		.loc 2 120 21 discriminator 3
 932 01e8 13971700 		slli	a4,a5,1
 933 01ec 3307F700 		add	a4,a4,a5
 934 01f0 93173700 		slli	a5,a4,3
 935 01f4 9387F700 		addi	a5,a5,15
 936 01f8 93F707FF 		andi	a5,a5,-16
 937 01fc 3301F140 		sub	sp,sp,a5
 938              	.LVL102:
 939 0200 130B0100 		mv	s6,sp
 940              	.LVL103:
 122:src/user/test/ConsumerProducer_CPP_API_test.hpp ****         threadData[threadNum].buffer = buffer;
 941              		.loc 2 122 9 is_stmt 1 discriminator 3
 122:src/user/test/ConsumerProducer_CPP_API_test.hpp ****         threadData[threadNum].buffer = buffer;
 942              		.loc 2 122 34 is_stmt 0 discriminator 3
 943 0204 93971900 		slli	a5,s3,1
 944 0208 B3873701 		add	a5,a5,s3
 945 020c 93943700 		slli	s1,a5,3
 946 0210 B3049B00 		add	s1,s6,s1
 947 0214 23A03401 		sw	s3,0(s1)
 123:src/user/test/ConsumerProducer_CPP_API_test.hpp ****         threadData[threadNum].sem = waitForAll;
 948              		.loc 2 123 9 is_stmt 1 discriminator 3
 123:src/user/test/ConsumerProducer_CPP_API_test.hpp ****         threadData[threadNum].sem = waitForAll;
 949              		.loc 2 123 38 is_stmt 0 discriminator 3
 950 0218 23B45401 		sd	s5,8(s1)
 124:src/user/test/ConsumerProducer_CPP_API_test.hpp **** 
 951              		.loc 2 124 9 is_stmt 1 discriminator 3
 124:src/user/test/ConsumerProducer_CPP_API_test.hpp **** 
 952              		.loc 2 124 35 is_stmt 0 discriminator 3
 953 021c 83370900 		ld	a5,0(s2)
 954 0220 23B8F400 		sd	a5,16(s1)
 126:src/user/test/ConsumerProducer_CPP_API_test.hpp ****         Thread *consumer = new Consumer(&threadData[threadNum]);
 955              		.loc 2 126 9 is_stmt 1 discriminator 3
 126:src/user/test/ConsumerProducer_CPP_API_test.hpp ****         Thread *consumer = new Consumer(&threadData[threadNum]);
 956              		.loc 2 126 20 is_stmt 0 discriminator 3
 957 0224 17050000 		lla	a0,.LC10
 957      13050500 
 958              	.LEHB5:
 959 022c 97000000 		call	_Z11printStringPKc
 959      E7800000 
 960              	.LVL104:
 127:src/user/test/ConsumerProducer_CPP_API_test.hpp ****         printInt((uint64)consumer, 16);
 961              		.loc 2 127 9 is_stmt 1 discriminator 3
 127:src/user/test/ConsumerProducer_CPP_API_test.hpp ****         printInt((uint64)consumer, 16);
 962              		.loc 2 127 63 is_stmt 0 discriminator 3
 963 0234 13058001 		li	a0,24
 964 0238 97000000 		call	_Znwm
 964      E7800000 
 965              	.LVL105:
 966 0240 930B0500 		mv	s7,a0
 967              	.LVL106:
 968              	.LBB101:
 969              	.LBB102:
 970              	.LBB103:
 971              	.LBB104:
  16:src/user/test/../../../h/syscall_cpp.hpp ****     virtual void run () {}
GAS LISTING /tmp/cc8AT9ge.s 			page 25


 972              		.loc 1 16 16 is_stmt 1 discriminator 3
  16:src/user/test/../../../h/syscall_cpp.hpp ****     virtual void run () {}
 973              		.loc 1 16 25 is_stmt 0 discriminator 3
 974 0244 23340500 		sd	zero,8(a0)
 975              	.LVL107:
 976              	.LBE104:
 977              	.LBE103:
  65:src/user/test/ConsumerProducer_CPP_API_test.hpp **** 
 978              		.loc 2 65 54 discriminator 3
 979 0248 97070000 		lla	a5,_ZTVN19ConsumerProducerCPP8ConsumerE+16
 979      93870700 
 980 0250 2330F500 		sd	a5,0(a0)
 981 0254 23389500 		sd	s1,16(a0)
 982              	.LVL108:
 983              	.LBE102:
 984              	.LBE101:
 128:src/user/test/ConsumerProducer_CPP_API_test.hpp ****         printString("\nsizeof(Consumer): "); printInt(sizeof(Consumer), 16); printString(".\n");
 985              		.loc 2 128 9 is_stmt 1 discriminator 3
 128:src/user/test/ConsumerProducer_CPP_API_test.hpp ****         printString("\nsizeof(Consumer): "); printInt(sizeof(Consumer), 16); printString(".\n");
 986              		.loc 2 128 17 is_stmt 0 discriminator 3
 987 0258 93050001 		li	a1,16
 988 025c 97000000 		call	_Z8printIntmi
 988      E7800000 
 989              	.LVL109:
 129:src/user/test/ConsumerProducer_CPP_API_test.hpp ****         printString("\n----USER-NIT---\n");
 990              		.loc 2 129 9 is_stmt 1 discriminator 3
 129:src/user/test/ConsumerProducer_CPP_API_test.hpp ****         printString("\n----USER-NIT---\n");
 991              		.loc 2 129 20 is_stmt 0 discriminator 3
 992 0264 17050000 		lla	a0,.LC11
 992      13050500 
 993 026c 97000000 		call	_Z11printStringPKc
 993      E7800000 
 994              	.LVL110:
 129:src/user/test/ConsumerProducer_CPP_API_test.hpp ****         printString("\n----USER-NIT---\n");
 995              		.loc 2 129 46 is_stmt 1 discriminator 3
 129:src/user/test/ConsumerProducer_CPP_API_test.hpp ****         printString("\n----USER-NIT---\n");
 996              		.loc 2 129 54 is_stmt 0 discriminator 3
 997 0274 93050001 		li	a1,16
 998 0278 13058001 		li	a0,24
 999 027c 97000000 		call	_Z8printIntmi
 999      E7800000 
 1000              	.LVL111:
 129:src/user/test/ConsumerProducer_CPP_API_test.hpp ****         printString("\n----USER-NIT---\n");
 1001              		.loc 2 129 78 is_stmt 1 discriminator 3
 129:src/user/test/ConsumerProducer_CPP_API_test.hpp ****         printString("\n----USER-NIT---\n");
 1002              		.loc 2 129 89 is_stmt 0 discriminator 3
 1003 0284 17050000 		lla	a0,.LC4
 1003      13050500 
 1004 028c 97000000 		call	_Z11printStringPKc
 1004      E7800000 
 1005              	.LVL112:
 130:src/user/test/ConsumerProducer_CPP_API_test.hpp ****         
 1006              		.loc 2 130 9 is_stmt 1 discriminator 3
 130:src/user/test/ConsumerProducer_CPP_API_test.hpp ****         
 1007              		.loc 2 130 20 is_stmt 0 discriminator 3
 1008 0294 17050000 		lla	a0,.LC9
 1008      13050500 
GAS LISTING /tmp/cc8AT9ge.s 			page 26


 1009 029c 97000000 		call	_Z11printStringPKc
 1009      E7800000 
 1010              	.LVL113:
 132:src/user/test/ConsumerProducer_CPP_API_test.hpp **** 
 1011              		.loc 2 132 9 is_stmt 1 discriminator 3
 132:src/user/test/ConsumerProducer_CPP_API_test.hpp **** 
 1012              		.loc 2 132 24 is_stmt 0 discriminator 3
 1013 02a4 13850B00 		mv	a0,s7
 1014 02a8 97000000 		call	_ZN6Thread5startEv
 1014      E7800000 
 1015              	.LVL114:
 134:src/user/test/ConsumerProducer_CPP_API_test.hpp ****         threadData[0].buffer = buffer;
 1016              		.loc 2 134 9 is_stmt 1 discriminator 3
 134:src/user/test/ConsumerProducer_CPP_API_test.hpp ****         threadData[0].buffer = buffer;
 1017              		.loc 2 134 26 is_stmt 0 discriminator 3
 1018 02b0 23200B00 		sw	zero,0(s6)
 135:src/user/test/ConsumerProducer_CPP_API_test.hpp ****         threadData[0].sem = waitForAll;
 1019              		.loc 2 135 9 is_stmt 1 discriminator 3
 135:src/user/test/ConsumerProducer_CPP_API_test.hpp ****         threadData[0].sem = waitForAll;
 1020              		.loc 2 135 30 is_stmt 0 discriminator 3
 1021 02b4 23345B01 		sd	s5,8(s6)
 136:src/user/test/ConsumerProducer_CPP_API_test.hpp ****         producers[0] = new ProducerKeyborad(&threadData[0]);
 1022              		.loc 2 136 9 is_stmt 1 discriminator 3
 136:src/user/test/ConsumerProducer_CPP_API_test.hpp ****         producers[0] = new ProducerKeyborad(&threadData[0]);
 1023              		.loc 2 136 27 is_stmt 0 discriminator 3
 1024 02b8 83370900 		ld	a5,0(s2)
 1025 02bc 2338FB00 		sd	a5,16(s6)
 137:src/user/test/ConsumerProducer_CPP_API_test.hpp ****         producers[0]->start();
 1026              		.loc 2 137 9 is_stmt 1 discriminator 3
 137:src/user/test/ConsumerProducer_CPP_API_test.hpp ****         producers[0]->start();
 1027              		.loc 2 137 59 is_stmt 0 discriminator 3
 1028 02c0 13058001 		li	a0,24
 1029 02c4 97000000 		call	_Znwm
 1029      E7800000 
 1030              	.LVL115:
 1031              	.LBB105:
 1032              	.LBB106:
 1033              	.LBB107:
 1034              	.LBB108:
  16:src/user/test/../../../h/syscall_cpp.hpp ****     virtual void run () {}
 1035              		.loc 1 16 16 is_stmt 1 discriminator 3
  16:src/user/test/../../../h/syscall_cpp.hpp ****     virtual void run () {}
 1036              		.loc 1 16 25 is_stmt 0 discriminator 3
 1037 02cc 23340500 		sd	zero,8(a0)
 1038              	.LVL116:
 1039              	.LBE108:
 1040              	.LBE107:
  28:src/user/test/ConsumerProducer_CPP_API_test.hpp **** 
 1041              		.loc 2 28 62 discriminator 3
 1042 02d0 17070000 		lla	a4,_ZTVN19ConsumerProducerCPP16ProducerKeyboradE+16
 1042      13070700 
 1043 02d8 2330E500 		sd	a4,0(a0)
 1044 02dc 23386501 		sd	s6,16(a0)
 1045              	.LVL117:
 1046              	.LBE106:
 1047              	.LBE105:
 137:src/user/test/ConsumerProducer_CPP_API_test.hpp ****         producers[0]->start();
GAS LISTING /tmp/cc8AT9ge.s 			page 27


 1048              		.loc 2 137 22 discriminator 3
 1049 02e0 2330AA00 		sd	a0,0(s4)
 138:src/user/test/ConsumerProducer_CPP_API_test.hpp **** 
 1050              		.loc 2 138 9 is_stmt 1 discriminator 3
 138:src/user/test/ConsumerProducer_CPP_API_test.hpp **** 
 1051              		.loc 2 138 28 is_stmt 0 discriminator 3
 1052 02e4 97000000 		call	_ZN6Thread5startEv
 1052      E7800000 
 1053              	.LVL118:
 1054              	.LBB109:
 140:src/user/test/ConsumerProducer_CPP_API_test.hpp ****             threadData[i].id = i;
 1055              		.loc 2 140 18 discriminator 3
 1056 02ec 13091000 		li	s2,1
 1057              	.L37:
 1058              	.LVL119:
 140:src/user/test/ConsumerProducer_CPP_API_test.hpp ****             threadData[i].id = i;
 1059              		.loc 2 140 27 discriminator 1
 1060 02f0 6354390D 		bge	s2,s3,.L36
 141:src/user/test/ConsumerProducer_CPP_API_test.hpp ****             threadData[i].buffer = buffer;
 1061              		.loc 2 141 13 is_stmt 1
 141:src/user/test/ConsumerProducer_CPP_API_test.hpp ****             threadData[i].buffer = buffer;
 1062              		.loc 2 141 30 is_stmt 0
 1063 02f4 93171900 		slli	a5,s2,1
 1064 02f8 B3872701 		add	a5,a5,s2
 1065 02fc 93943700 		slli	s1,a5,3
 1066 0300 B3049B00 		add	s1,s6,s1
 1067 0304 23A02401 		sw	s2,0(s1)
 142:src/user/test/ConsumerProducer_CPP_API_test.hpp ****             threadData[i].sem = waitForAll;
 1068              		.loc 2 142 13 is_stmt 1
 142:src/user/test/ConsumerProducer_CPP_API_test.hpp ****             threadData[i].sem = waitForAll;
 1069              		.loc 2 142 34 is_stmt 0
 1070 0308 23B45401 		sd	s5,8(s1)
 143:src/user/test/ConsumerProducer_CPP_API_test.hpp **** 
 1071              		.loc 2 143 13 is_stmt 1
 143:src/user/test/ConsumerProducer_CPP_API_test.hpp **** 
 1072              		.loc 2 143 31 is_stmt 0
 1073 030c 97070000 		lla	a5,_ZN19ConsumerProducerCPP10waitForAllE
 1073      93870700 
 1074 0314 83B70700 		ld	a5,0(a5)
 1075 0318 23B8F400 		sd	a5,16(s1)
 145:src/user/test/ConsumerProducer_CPP_API_test.hpp ****             producers[i] = new Producer(&threadData[i]);
 1076              		.loc 2 145 13 is_stmt 1
 145:src/user/test/ConsumerProducer_CPP_API_test.hpp ****             producers[i] = new Producer(&threadData[i]);
 1077              		.loc 2 145 24 is_stmt 0
 1078 031c 17050000 		lla	a0,.LC12
 1078      13050500 
 1079 0324 97000000 		call	_Z11printStringPKc
 1079      E7800000 
 1080              	.LVL120:
 146:src/user/test/ConsumerProducer_CPP_API_test.hpp ****             printInt((uint64)producers[i], 16);
 1081              		.loc 2 146 13 is_stmt 1
 146:src/user/test/ConsumerProducer_CPP_API_test.hpp ****             printInt((uint64)producers[i], 16);
 1082              		.loc 2 146 55 is_stmt 0
 1083 032c 13058001 		li	a0,24
 1084 0330 97000000 		call	_Znwm
 1084      E7800000 
 1085              	.LVL121:
GAS LISTING /tmp/cc8AT9ge.s 			page 28


 1086              	.LBB110:
 1087              	.LBB111:
 1088              	.LBB112:
 1089              	.LBB113:
  16:src/user/test/../../../h/syscall_cpp.hpp ****     virtual void run () {}
 1090              		.loc 1 16 16 is_stmt 1
  16:src/user/test/../../../h/syscall_cpp.hpp ****     virtual void run () {}
 1091              		.loc 1 16 25 is_stmt 0
 1092 0338 23340500 		sd	zero,8(a0)
 1093              	.LVL122:
 1094              	.LBE113:
 1095              	.LBE112:
  48:src/user/test/ConsumerProducer_CPP_API_test.hpp **** 
 1096              		.loc 2 48 54
 1097 033c 17070000 		lla	a4,_ZTVN19ConsumerProducerCPP8ProducerE+16
 1097      13070700 
 1098 0344 2330E500 		sd	a4,0(a0)
 1099 0348 23389500 		sd	s1,16(a0)
 1100              	.LVL123:
 1101              	.LBE111:
 1102              	.LBE110:
 146:src/user/test/ConsumerProducer_CPP_API_test.hpp ****             printInt((uint64)producers[i], 16);
 1103              		.loc 2 146 26
 1104 034c 93143900 		slli	s1,s2,3
 1105 0350 B3049A00 		add	s1,s4,s1
 1106 0354 23B0A400 		sd	a0,0(s1)
 147:src/user/test/ConsumerProducer_CPP_API_test.hpp ****             printString("\nsizeof(Producer): "); printInt(sizeof(Producer), 16); printString(".\n")
 1107              		.loc 2 147 13 is_stmt 1
 147:src/user/test/ConsumerProducer_CPP_API_test.hpp ****             printString("\nsizeof(Producer): "); printInt(sizeof(Producer), 16); printString(".\n")
 1108              		.loc 2 147 21 is_stmt 0
 1109 0358 93050001 		li	a1,16
 1110 035c 97000000 		call	_Z8printIntmi
 1110      E7800000 
 1111              	.LVL124:
 148:src/user/test/ConsumerProducer_CPP_API_test.hpp ****             printString("\n");
 1112              		.loc 2 148 13 is_stmt 1
 148:src/user/test/ConsumerProducer_CPP_API_test.hpp ****             printString("\n");
 1113              		.loc 2 148 24 is_stmt 0
 1114 0364 17050000 		lla	a0,.LC13
 1114      13050500 
 1115 036c 97000000 		call	_Z11printStringPKc
 1115      E7800000 
 1116              	.LVL125:
 148:src/user/test/ConsumerProducer_CPP_API_test.hpp ****             printString("\n");
 1117              		.loc 2 148 50 is_stmt 1
 148:src/user/test/ConsumerProducer_CPP_API_test.hpp ****             printString("\n");
 1118              		.loc 2 148 58 is_stmt 0
 1119 0374 93050001 		li	a1,16
 1120 0378 13058001 		li	a0,24
 1121 037c 97000000 		call	_Z8printIntmi
 1121      E7800000 
 1122              	.LVL126:
 148:src/user/test/ConsumerProducer_CPP_API_test.hpp ****             printString("\n");
 1123              		.loc 2 148 82 is_stmt 1
 148:src/user/test/ConsumerProducer_CPP_API_test.hpp ****             printString("\n");
 1124              		.loc 2 148 93 is_stmt 0
 1125 0384 17050000 		lla	a0,.LC4
GAS LISTING /tmp/cc8AT9ge.s 			page 29


 1125      13050500 
 1126 038c 97000000 		call	_Z11printStringPKc
 1126      E7800000 
 1127              	.LVL127:
 149:src/user/test/ConsumerProducer_CPP_API_test.hpp **** 
 1128              		.loc 2 149 13 is_stmt 1
 149:src/user/test/ConsumerProducer_CPP_API_test.hpp **** 
 1129              		.loc 2 149 24 is_stmt 0
 1130 0394 17050000 		lla	a0,.LC14
 1130      13050500 
 1131 039c 97000000 		call	_Z11printStringPKc
 1131      E7800000 
 1132              	.LVL128:
 151:src/user/test/ConsumerProducer_CPP_API_test.hpp **** 
 1133              		.loc 2 151 13 is_stmt 1
 151:src/user/test/ConsumerProducer_CPP_API_test.hpp **** 
 1134              		.loc 2 151 32 is_stmt 0
 1135 03a4 03B50400 		ld	a0,0(s1)
 1136 03a8 97000000 		call	_ZN6Thread5startEv
 1136      E7800000 
 1137              	.LVL129:
 140:src/user/test/ConsumerProducer_CPP_API_test.hpp ****             threadData[i].id = i;
 1138              		.loc 2 140 9
 1139 03b0 1B091900 		addiw	s2,s2,1
 1140              	.LVL130:
 1141 03b4 6FF0DFF3 		j	.L37
 1142              	.LVL131:
 1143              	.L36:
 1144              	.LBE109:
 155:src/user/test/ConsumerProducer_CPP_API_test.hpp **** 
 1145              		.loc 2 155 9 is_stmt 1
 1146              	.LBB114:
 1147              	.LBB115:
  13:src/user/test/../../../h/syscall_cpp.hpp ****     static void sleep (time_t time){ time_sleep(time); }
 1148              		.loc 1 13 31
  13:src/user/test/../../../h/syscall_cpp.hpp ****     static void sleep (time_t time){ time_sleep(time); }
 1149              		.loc 1 13 46 is_stmt 0
 1150 03b8 97000000 		call	thread_dispatch
 1150      E7800000 
 1151              	.LVL132:
 1152              	.LBE115:
 1153              	.LBE114:
 1154              	.LBB116:
 157:src/user/test/ConsumerProducer_CPP_API_test.hpp ****             waitForAll->wait();
 1155              		.loc 2 157 18
 1156 03c0 93040000 		li	s1,0
 1157              	.L39:
 1158              	.LVL133:
 157:src/user/test/ConsumerProducer_CPP_API_test.hpp ****             waitForAll->wait();
 1159              		.loc 2 157 27 discriminator 1
 1160 03c4 63C29902 		bgt	s1,s3,.L38
 158:src/user/test/ConsumerProducer_CPP_API_test.hpp ****         }
 1161              		.loc 2 158 13 is_stmt 1
 158:src/user/test/ConsumerProducer_CPP_API_test.hpp ****         }
 1162              		.loc 2 158 29 is_stmt 0
 1163 03c8 97070000 		lla	a5,_ZN19ConsumerProducerCPP10waitForAllE
 1163      93870700 
GAS LISTING /tmp/cc8AT9ge.s 			page 30


 1164 03d0 83B70700 		ld	a5,0(a5)
 1165              	.LVL134:
 1166              	.LBB117:
 1167              	.LBB118:
  27:src/user/test/../../../h/syscall_cpp.hpp ****     void signal (){ sem_signal(myHandle); }
 1168              		.loc 1 27 19 is_stmt 1
  27:src/user/test/../../../h/syscall_cpp.hpp ****     void signal (){ sem_signal(myHandle); }
 1169              		.loc 1 27 27 is_stmt 0
 1170 03d4 03B58700 		ld	a0,8(a5)
 1171 03d8 97000000 		call	sem_wait
 1171      E7800000 
 1172              	.LVL135:
 1173              	.LBE118:
 1174              	.LBE117:
 157:src/user/test/ConsumerProducer_CPP_API_test.hpp ****             waitForAll->wait();
 1175              		.loc 2 157 9
 1176 03e0 9B841400 		addiw	s1,s1,1
 1177              	.LVL136:
 1178 03e4 6FF01FFE 		j	.L39
 1179              	.LVL137:
 1180              	.L38:
 1181              	.LBE116:
 161:src/user/test/ConsumerProducer_CPP_API_test.hpp ****         for (int i = 0; i < threadNum; i++) {
 1182              		.loc 2 161 9 is_stmt 1
 161:src/user/test/ConsumerProducer_CPP_API_test.hpp ****         for (int i = 0; i < threadNum; i++) {
 1183              		.loc 2 161 16 is_stmt 0
 1184 03e8 97070000 		lla	a5,_ZN19ConsumerProducerCPP10waitForAllE
 1184      93870700 
 1185 03f0 03B50700 		ld	a0,0(a5)
 161:src/user/test/ConsumerProducer_CPP_API_test.hpp ****         for (int i = 0; i < threadNum; i++) {
 1186              		.loc 2 161 26
 1187 03f4 63080500 		beq	a0,zero,.L40
 161:src/user/test/ConsumerProducer_CPP_API_test.hpp ****         for (int i = 0; i < threadNum; i++) {
 1188              		.loc 2 161 16 discriminator 1
 1189 03f8 83370500 		ld	a5,0(a0)
 1190 03fc 83B78700 		ld	a5,8(a5)
 1191 0400 E7800700 		jalr	a5
 1192              	.LVL138:
 1193              	.L40:
 1194              	.LBB119:
 157:src/user/test/ConsumerProducer_CPP_API_test.hpp ****             waitForAll->wait();
 1195              		.loc 2 157 18 discriminator 1
 1196 0404 93040000 		li	s1,0
 1197              	.LVL139:
 1198 0408 6F008000 		j	.L43
 1199              	.LVL140:
 1200              	.L42:
 1201              	.LBE119:
 1202              	.LBB120:
 162:src/user/test/ConsumerProducer_CPP_API_test.hpp ****             delete producers[i];
 1203              		.loc 2 162 9 discriminator 2
 1204 040c 9B841400 		addiw	s1,s1,1
 1205              	.LVL141:
 1206              	.L43:
 162:src/user/test/ConsumerProducer_CPP_API_test.hpp ****             delete producers[i];
 1207              		.loc 2 162 27 discriminator 1
 1208 0410 63D23403 		bge	s1,s3,.L41
GAS LISTING /tmp/cc8AT9ge.s 			page 31


 163:src/user/test/ConsumerProducer_CPP_API_test.hpp ****         }
 1209              		.loc 2 163 13 is_stmt 1
 163:src/user/test/ConsumerProducer_CPP_API_test.hpp ****         }
 1210              		.loc 2 163 31 is_stmt 0
 1211 0414 93973400 		slli	a5,s1,3
 1212 0418 B307FA00 		add	a5,s4,a5
 1213 041c 03B50700 		ld	a0,0(a5)
 163:src/user/test/ConsumerProducer_CPP_API_test.hpp ****         }
 1214              		.loc 2 163 32
 1215 0420 E30605FE 		beq	a0,zero,.L42
 163:src/user/test/ConsumerProducer_CPP_API_test.hpp ****         }
 1216              		.loc 2 163 31 discriminator 1
 1217 0424 83370500 		ld	a5,0(a0)
 1218 0428 83B78700 		ld	a5,8(a5)
 1219 042c E7800700 		jalr	a5
 1220              	.LVL142:
 1221 0430 6FF0DFFD 		j	.L42
 1222              	.L41:
 1223              	.LBE120:
 165:src/user/test/ConsumerProducer_CPP_API_test.hpp ****         delete buffer;
 1224              		.loc 2 165 9 is_stmt 1
 165:src/user/test/ConsumerProducer_CPP_API_test.hpp ****         delete buffer;
 1225              		.loc 2 165 24 is_stmt 0
 1226 0434 638A0B00 		beq	s7,zero,.L44
 165:src/user/test/ConsumerProducer_CPP_API_test.hpp ****         delete buffer;
 1227              		.loc 2 165 16 discriminator 1
 1228 0438 83B70B00 		ld	a5,0(s7)
 1229 043c 83B78700 		ld	a5,8(a5)
 1230 0440 13850B00 		mv	a0,s7
 1231 0444 E7800700 		jalr	a5
 1232              	.LVL143:
 1233              	.L44:
 1234              		.loc 2 166 9 is_stmt 1
 1235              		.loc 2 166 22 is_stmt 0
 1236 0448 638E0A00 		beq	s5,zero,.L45
 1237              		.loc 2 166 16 discriminator 1
 1238 044c 13850A00 		mv	a0,s5
 1239 0450 97000000 		call	_ZN9BufferCPPD1Ev
 1239      E7800000 
 1240              	.LVL144:
 1241 0458 13850A00 		mv	a0,s5
 1242 045c 97000000 		call	_ZdlPv
 1242      E7800000 
 1243              	.LVL145:
 1244              	.LEHE5:
 1245              	.L45:
 1246 0464 13010C00 		mv	sp,s8
 1247              	.LVL146:
 1248              	.L32:
 167:src/user/test/ConsumerProducer_CPP_API_test.hpp ****     }
 1249              		.loc 2 167 5
 1250 0468 130104F9 		addi	sp,s0,-112
 1251              		.cfi_remember_state
 1252              		.cfi_def_cfa 2, 112
 1253 046c 83308106 		ld	ra,104(sp)
 1254              		.cfi_restore 1
 1255 0470 03340106 		ld	s0,96(sp)
GAS LISTING /tmp/cc8AT9ge.s 			page 32


 1256              		.cfi_restore 8
 1257 0474 83348105 		ld	s1,88(sp)
 1258              		.cfi_restore 9
 1259 0478 03390105 		ld	s2,80(sp)
 1260              		.cfi_restore 18
 1261 047c 83398104 		ld	s3,72(sp)
 1262              		.cfi_restore 19
 1263              	.LVL147:
 1264 0480 033A0104 		ld	s4,64(sp)
 1265              		.cfi_restore 20
 1266 0484 833A8103 		ld	s5,56(sp)
 1267              		.cfi_restore 21
 1268 0488 033B0103 		ld	s6,48(sp)
 1269              		.cfi_restore 22
 1270 048c 833B8102 		ld	s7,40(sp)
 1271              		.cfi_restore 23
 1272 0490 033C0102 		ld	s8,32(sp)
 1273              		.cfi_restore 24
 1274 0494 13010107 		addi	sp,sp,112
 1275              		.cfi_def_cfa_offset 0
 1276 0498 67800000 		jr	ra
 1277              	.LVL148:
 1278              	.L49:
 1279              		.cfi_restore_state
 1280 049c 93040500 		mv	s1,a0
 1281              	.LVL149:
 114:src/user/test/ConsumerProducer_CPP_API_test.hpp ****         printInt((uint64)buffer, 16);
 1282              		.loc 2 114 44
 1283 04a0 13850A00 		mv	a0,s5
 1284 04a4 97000000 		call	_ZdlPv
 1284      E7800000 
 1285              	.LVL150:
 1286 04ac 13850400 		mv	a0,s1
 1287              	.LEHB6:
 1288 04b0 97000000 		call	_Unwind_Resume
 1288      E7800000 
 1289              	.LVL151:
 1290              	.LEHE6:
 1291              	.L50:
 1292 04b8 13090500 		mv	s2,a0
 118:src/user/test/ConsumerProducer_CPP_API_test.hpp ****         Thread *producers[threadNum];
 1293              		.loc 2 118 37
 1294 04bc 13850400 		mv	a0,s1
 1295 04c0 97000000 		call	_ZdlPv
 1295      E7800000 
 1296              	.LVL152:
 1297 04c8 13050900 		mv	a0,s2
 1298              	.LEHB7:
 1299 04cc 97000000 		call	_Unwind_Resume
 1299      E7800000 
 1300              	.LVL153:
 1301              	.LEHE7:
 1302              		.cfi_endproc
 1303              	.LFE31:
 1304              		.section	.gcc_except_table,"aw",@progbits
 1305              	.LLSDA31:
 1306 0000 FF       		.byte	0xff
GAS LISTING /tmp/cc8AT9ge.s 			page 33


 1307 0001 FF       		.byte	0xff
 1308 0002 03       		.byte	0x3
 1309 0003 5B       		.byte	0x5b
 1310 0004 00000000 		.4byte	.LEHB1-.LFB31
 1311 0008 00000000 		.4byte	.LEHE1-.LEHB1
 1312 000c 00000000 		.4byte	0
 1313 0010 00       		.byte	0
 1314 0011 00000000 		.4byte	.LEHB2-.LFB31
 1315 0015 00000000 		.4byte	.LEHE2-.LEHB2
 1316 0019 00000000 		.4byte	.L49-.LFB31
 1317 001d 00       		.byte	0
 1318 001e 00000000 		.4byte	.LEHB3-.LFB31
 1319 0022 00000000 		.4byte	.LEHE3-.LEHB3
 1320 0026 00000000 		.4byte	0
 1321 002a 00       		.byte	0
 1322 002b 00000000 		.4byte	.LEHB4-.LFB31
 1323 002f 00000000 		.4byte	.LEHE4-.LEHB4
 1324 0033 00000000 		.4byte	.L50-.LFB31
 1325 0037 00       		.byte	0
 1326 0038 00000000 		.4byte	.LEHB5-.LFB31
 1327 003c 00000000 		.4byte	.LEHE5-.LEHB5
 1328 0040 00000000 		.4byte	0
 1329 0044 00       		.byte	0
 1330 0045 00000000 		.4byte	.LEHB6-.LFB31
 1331 0049 00000000 		.4byte	.LEHE6-.LEHB6
 1332 004d 00000000 		.4byte	0
 1333 0051 00       		.byte	0
 1334 0052 00000000 		.4byte	.LEHB7-.LFB31
 1335 0056 00000000 		.4byte	.LEHE7-.LEHB7
 1336 005a 00000000 		.4byte	0
 1337 005e 00       		.byte	0
 1338              		.text
 1340              		.align	2
 1341              		.globl	_Z8userMainv
 1343              	_Z8userMainv:
 1344              	.LFB32:
 1345              		.file 3 "src/user/userMain.cpp"
   1:src/user/userMain.cpp **** //RADI: #include "test/Threads_C_API_test.hpp" // zadatak 2, niti C API i sinhrona promena kontekst
   2:src/user/userMain.cpp **** //#include "test/Threads_CPP_API_test.hpp" // zadatak 2., niti CPP API i sinhrona promena konteksta
   3:src/user/userMain.cpp **** 
   4:src/user/userMain.cpp **** //#include "test/ConsumerProducer_C_API_test.h" // zadatak 3., kompletan C API sa semaforima, sinhr
   5:src/user/userMain.cpp **** //#include "test/ConsumerProducer_CPP_Sync_API_test.hpp" // zadatak 3., kompletan CPP API sa semafo
   6:src/user/userMain.cpp **** 
   7:src/user/userMain.cpp **** //RADI: #include "../test/ThreadSleep_C_API_test.hpp" // thread_sleep test C API
   8:src/user/userMain.cpp **** #include "test/ConsumerProducer_CPP_API_test.hpp" // zadatak 4. CPP API i asinhrona promena konteks
   9:src/user/userMain.cpp **** //#include"test/testing.hpp"
  10:src/user/userMain.cpp **** //#include"../../h/syscall_c.h"
  11:src/user/userMain.cpp **** //#include"test/printing.hpp"
  12:src/user/userMain.cpp **** 
  13:src/user/userMain.cpp **** 
  14:src/user/userMain.cpp **** 
  15:src/user/userMain.cpp **** void userMain() {
 1346              		.loc 3 15 17 is_stmt 1
 1347              		.cfi_startproc
 1348 04d4 130101FF 		addi	sp,sp,-16
 1349              		.cfi_def_cfa_offset 16
 1350 04d8 23341100 		sd	ra,8(sp)
GAS LISTING /tmp/cc8AT9ge.s 			page 34


 1351 04dc 23308100 		sd	s0,0(sp)
 1352              		.cfi_offset 1, -8
 1353              		.cfi_offset 8, -16
 1354 04e0 13040101 		addi	s0,sp,16
 1355              		.cfi_def_cfa 8, 0
  16:src/user/userMain.cpp ****     //RADI: Threads_C_API_test(); // zadatak 2., niti C API i sinhrona promena konteksta
  17:src/user/userMain.cpp ****     //RADI: Threads_CPP_API_test(); // zadatak 2., niti CPP API i sinhrona promena konteksta
  18:src/user/userMain.cpp **** 
  19:src/user/userMain.cpp ****     //NZM? producerConsumer_C_API(); // zadatak 3., kompletan C API sa semaforima, sinhrona promena
  20:src/user/userMain.cpp ****     //NZM? producerConsumer_CPP_Sync_API(); // zadatak 3., kompletan CPP API sa semaforima, sinhron
  21:src/user/userMain.cpp **** 
  22:src/user/userMain.cpp ****     //RADI: testSleeping(); // thread_sleep test C API
  23:src/user/userMain.cpp ****     ConsumerProducerCPP::testConsumerProducer(); // zadatak 4. CPP API i asinhrona promena kontekst
 1356              		.loc 3 23 5
 1357              		.loc 3 23 46 is_stmt 0
 1358 04e4 97000000 		call	_ZN19ConsumerProducerCPP20testConsumerProducerEv
 1358      E7800000 
 1359              	.LVL154:
  24:src/user/userMain.cpp ****     //testPeriodicWorker();
  25:src/user/userMain.cpp ****     //printString("User thread eo ga\n");
  26:src/user/userMain.cpp ****     //mem_alloc(64);
  27:src/user/userMain.cpp ****     //asm volatile("csrw sstatus, 0");
  28:src/user/userMain.cpp ****     
  29:src/user/userMain.cpp **** }
 1360              		.loc 3 29 1
 1361 04ec 83308100 		ld	ra,8(sp)
 1362              		.cfi_restore 1
 1363 04f0 03340100 		ld	s0,0(sp)
 1364              		.cfi_restore 8
 1365              		.cfi_def_cfa 2, 16
 1366 04f4 13010101 		addi	sp,sp,16
 1367              		.cfi_def_cfa_offset 0
 1368 04f8 67800000 		jr	ra
 1369              		.cfi_endproc
 1370              	.LFE32:
 1372              		.align	2
 1373              		.globl	_Z15userMainWrapperPv
 1375              	_Z15userMainWrapperPv:
 1376              	.LFB33:
  30:src/user/userMain.cpp **** 
  31:src/user/userMain.cpp **** void userMainWrapper(void*)
  32:src/user/userMain.cpp **** {
 1377              		.loc 3 32 1 is_stmt 1
 1378              		.cfi_startproc
 1379 04fc 130101FF 		addi	sp,sp,-16
 1380              		.cfi_def_cfa_offset 16
 1381 0500 23341100 		sd	ra,8(sp)
 1382 0504 23308100 		sd	s0,0(sp)
 1383              		.cfi_offset 1, -8
 1384              		.cfi_offset 8, -16
 1385 0508 13040101 		addi	s0,sp,16
 1386              		.cfi_def_cfa 8, 0
  33:src/user/userMain.cpp ****     userMain();
 1387              		.loc 3 33 5
 1388              		.loc 3 33 13 is_stmt 0
 1389 050c 97000000 		call	_Z8userMainv
 1389      E7800000 
GAS LISTING /tmp/cc8AT9ge.s 			page 35


 1390              	.LVL155:
  34:src/user/userMain.cpp **** }...
 1391              		.loc 3 34 1
 1392 0514 83308100 		ld	ra,8(sp)
 1393              		.cfi_restore 1
 1394 0518 03340100 		ld	s0,0(sp)
 1395              		.cfi_restore 8
 1396              		.cfi_def_cfa 2, 16
 1397 051c 13010101 		addi	sp,sp,16
 1398              		.cfi_def_cfa_offset 0
 1399 0520 67800000 		jr	ra
 1400              		.cfi_endproc
 1401              	.LFE33:
 1403              		.weak	_ZTV9Semaphore
 1404              		.section	.rodata._ZTV9Semaphore,"aG",@progbits,_ZTV9Semaphore,comdat
 1405              		.align	3
 1408              	_ZTV9Semaphore:
 1409 0000 00000000 		.dword	0
 1409      00000000 
 1410 0008 00000000 		.dword	0
 1410      00000000 
 1411 0010 00000000 		.dword	_ZN9SemaphoreD1Ev
 1411      00000000 
 1412 0018 00000000 		.dword	_ZN9SemaphoreD0Ev
 1412      00000000 
 1413              		.weak	_ZTVN19ConsumerProducerCPP16ProducerKeyboradE
 1414              		.section	.rodata._ZTVN19ConsumerProducerCPP16ProducerKeyboradE,"aG",@progbits,_ZTVN19ConsumerProdu
 1415              		.align	3
 1418              	_ZTVN19ConsumerProducerCPP16ProducerKeyboradE:
 1419 0000 00000000 		.dword	0
 1419      00000000 
 1420 0008 00000000 		.dword	0
 1420      00000000 
 1421 0010 00000000 		.dword	_ZN19ConsumerProducerCPP16ProducerKeyboradD1Ev
 1421      00000000 
 1422 0018 00000000 		.dword	_ZN19ConsumerProducerCPP16ProducerKeyboradD0Ev
 1422      00000000 
 1423 0020 00000000 		.dword	_ZN19ConsumerProducerCPP16ProducerKeyborad3runEv
 1423      00000000 
 1424              		.weak	_ZTVN19ConsumerProducerCPP8ProducerE
 1425              		.section	.rodata._ZTVN19ConsumerProducerCPP8ProducerE,"aG",@progbits,_ZTVN19ConsumerProducerCPP8Pr
 1426              		.align	3
 1429              	_ZTVN19ConsumerProducerCPP8ProducerE:
 1430 0000 00000000 		.dword	0
 1430      00000000 
 1431 0008 00000000 		.dword	0
 1431      00000000 
 1432 0010 00000000 		.dword	_ZN19ConsumerProducerCPP8ProducerD1Ev
 1432      00000000 
 1433 0018 00000000 		.dword	_ZN19ConsumerProducerCPP8ProducerD0Ev
 1433      00000000 
 1434 0020 00000000 		.dword	_ZN19ConsumerProducerCPP8Producer3runEv
 1434      00000000 
 1435              		.weak	_ZTVN19ConsumerProducerCPP8ConsumerE
 1436              		.section	.rodata._ZTVN19ConsumerProducerCPP8ConsumerE,"aG",@progbits,_ZTVN19ConsumerProducerCPP8Co
 1437              		.align	3
 1440              	_ZTVN19ConsumerProducerCPP8ConsumerE:
GAS LISTING /tmp/cc8AT9ge.s 			page 36


 1441 0000 00000000 		.dword	0
 1441      00000000 
 1442 0008 00000000 		.dword	0
 1442      00000000 
 1443 0010 00000000 		.dword	_ZN19ConsumerProducerCPP8ConsumerD1Ev
 1443      00000000 
 1444 0018 00000000 		.dword	_ZN19ConsumerProducerCPP8ConsumerD0Ev
 1444      00000000 
 1445 0020 00000000 		.dword	_ZN19ConsumerProducerCPP8Consumer3runEv
 1445      00000000 
 1446              		.globl	_ZN19ConsumerProducerCPP9threadEndE
 1447              		.globl	_ZN19ConsumerProducerCPP10waitForAllE
 1448              		.section	.rodata.str1.8,"aMS",@progbits,1
 1449              		.align	3
 1450              	.LC0:
 1451 0000 556E6573 		.string	"Unesite broj proizvodjaca?\n"
 1451      69746520 
 1451      62726F6A 
 1451      2070726F 
 1451      697A766F 
 1452 001c 00000000 		.zero	4
 1453              	.LC1:
 1454 0020 556E6573 		.string	"Unesite velicinu bafera?\n"
 1454      69746520 
 1454      76656C69 
 1454      63696E75 
 1454      20626166 
 1455 003a 00000000 		.zero	6
 1455      0000
 1456              	.LC2:
 1457 0040 42726F6A 		.string	"Broj proizvodjaca "
 1457      2070726F 
 1457      697A766F 
 1457      646A6163 
 1457      612000
 1458 0053 00000000 		.zero	5
 1458      00
 1459              	.LC3:
 1460 0058 20692076 		.string	" i velicina bafera "
 1460      656C6963 
 1460      696E6120 
 1460      62616665 
 1460      72612000 
 1461 006c 00000000 		.zero	4
 1462              	.LC4:
 1463 0070 2E0A00   		.string	".\n"
 1464 0073 00000000 		.zero	5
 1464      00
 1465              	.LC5:
 1466 0078 42726F6A 		.string	"Broj proizvodjaca ne sme biti manji od velicine bafera!\n"
 1466      2070726F 
 1466      697A766F 
 1466      646A6163 
 1466      61206E65 
 1467 00b1 00000000 		.zero	7
 1467      000000
 1468              	.LC6:
GAS LISTING /tmp/cc8AT9ge.s 			page 37


 1469 00b8 42726F6A 		.string	"Broj proizvodjaca mora biti veci od nula!\n"
 1469      2070726F 
 1469      697A766F 
 1469      646A6163 
 1469      61206D6F 
 1470 00e3 00000000 		.zero	5
 1470      00
 1471              	.LC7:
 1472 00e8 0A2D2D2D 		.string	"\n-----USER---NIT-----\nAlokacija BufferCpp: "
 1472      2D2D5553 
 1472      45522D2D 
 1472      2D4E4954 
 1472      2D2D2D2D 
 1473 0114 00000000 		.zero	4
 1474              	.LC8:
 1475 0118 0A73697A 		.string	"\nsizeof(BufferCPP): "
 1475      656F6628 
 1475      42756666 
 1475      65724350 
 1475      50293A20 
 1476 012d 000000   		.zero	3
 1477              	.LC9:
 1478 0130 0A2D2D2D 		.string	"\n----USER-NIT---\n"
 1478      2D555345 
 1478      522D4E49 
 1478      542D2D2D 
 1478      0A00
 1479 0142 00000000 		.zero	6
 1479      0000
 1480              	.LC10:
 1481 0148 0A2D2D2D 		.string	"\n-----USER---NIT-----\nAlokacija Consumer: "
 1481      2D2D5553 
 1481      45522D2D 
 1481      2D4E4954 
 1481      2D2D2D2D 
 1482 0173 00000000 		.zero	5
 1482      00
 1483              	.LC11:
 1484 0178 0A73697A 		.string	"\nsizeof(Consumer): "
 1484      656F6628 
 1484      436F6E73 
 1484      756D6572 
 1484      293A2000 
 1485 018c 00000000 		.zero	4
 1486              	.LC12:
 1487 0190 0A2D2D2D 		.string	"\n-----USER---NIT-----\nAlokacija Producer: "
 1487      2D2D5553 
 1487      45522D2D 
 1487      2D4E4954 
 1487      2D2D2D2D 
 1488 01bb 00000000 		.zero	5
 1488      00
 1489              	.LC13:
 1490 01c0 0A73697A 		.string	"\nsizeof(Producer): "
 1490      656F6628 
 1490      50726F64 
 1490      75636572 
GAS LISTING /tmp/cc8AT9ge.s 			page 38


 1490      293A2000 
 1491 01d4 00000000 		.zero	4
 1492              	.LC14:
 1493 01d8 0A00     		.string	"\n"
 1494              		.section	.sbss,"aw",@nobits
 1495              		.align	3
 1498              	_ZN19ConsumerProducerCPP9threadEndE:
 1499 0000 00000000 		.zero	4
 1500 0004 00000000 		.zero	4
 1503              	_ZN19ConsumerProducerCPP10waitForAllE:
 1504 0008 00000000 		.zero	8
 1504      00000000 
 1505              		.text
 1506              	.Letext0:
 1507              		.file 4 "src/user/test/../../../h/../lib/hw.h"
 1508              		.file 5 "src/user/test/../../../h/../h/_semaphore.h"
 1509              		.file 6 "src/user/test/../../../h/syscall_c.h"
 1510              		.file 7 "src/user/test/buffer_CPP_API.hpp"
 1511              		.file 8 "src/user/test/printing.hpp"
 6094              		.align	3
 6097              	DW.ref.__gxx_personality_v0:
 6098 0000 00000000 		.dword	__gxx_personality_v0
 6098      00000000 
 6099              		.ident	"GCC: () 8.3.0"
GAS LISTING /tmp/cc8AT9ge.s 			page 39


DEFINED SYMBOLS
                            *ABS*:0000000000000000 userMain.cpp
     /tmp/cc8AT9ge.s:13     .text._ZN9SemaphoreD2Ev:0000000000000000 _ZN9SemaphoreD2Ev
     /tmp/cc8AT9ge.s:17     .text._ZN9SemaphoreD2Ev:0000000000000000 .L0 
     /tmp/cc8AT9ge.s:6097   .sdata.DW.ref.__gxx_personality_v0:0000000000000000 DW.ref.__gxx_personality_v0
     /tmp/cc8AT9ge.s:21     .text._ZN9SemaphoreD2Ev:0000000000000000 .L0 
     /tmp/cc8AT9ge.s:22     .text._ZN9SemaphoreD2Ev:0000000000000004 .L0 
     /tmp/cc8AT9ge.s:25     .text._ZN9SemaphoreD2Ev:000000000000000c .L0 
     /tmp/cc8AT9ge.s:26     .text._ZN9SemaphoreD2Ev:000000000000000c .L0 
     /tmp/cc8AT9ge.s:28     .text._ZN9SemaphoreD2Ev:0000000000000010 .L0 
     /tmp/cc8AT9ge.s:1408   .rodata._ZTV9Semaphore:0000000000000000 _ZTV9Semaphore
     /tmp/cc8AT9ge.s:31     .text._ZN9SemaphoreD2Ev:0000000000000010 .L0 
     /tmp/cc8AT9ge.s:34     .text._ZN9SemaphoreD2Ev:000000000000001c .L0 
     /tmp/cc8AT9ge.s:35     .text._ZN9SemaphoreD2Ev:000000000000001c .L0 
     /tmp/cc8AT9ge.s:41     .text._ZN9SemaphoreD2Ev:0000000000000028 .L0 
     /tmp/cc8AT9ge.s:42     .text._ZN9SemaphoreD2Ev:000000000000002c .L0 
     /tmp/cc8AT9ge.s:44     .text._ZN9SemaphoreD2Ev:0000000000000030 .L0 
     /tmp/cc8AT9ge.s:45     .text._ZN9SemaphoreD2Ev:0000000000000030 .L0 
     /tmp/cc8AT9ge.s:47     .text._ZN9SemaphoreD2Ev:0000000000000034 .L0 
     /tmp/cc8AT9ge.s:49     .text._ZN9SemaphoreD2Ev:0000000000000038 .L0 
     /tmp/cc8AT9ge.s:13     .text._ZN9SemaphoreD2Ev:0000000000000000 _ZN9SemaphoreD1Ev
     /tmp/cc8AT9ge.s:66     .text._ZN9SemaphoreD0Ev:0000000000000000 _ZN9SemaphoreD0Ev
     /tmp/cc8AT9ge.s:69     .text._ZN9SemaphoreD0Ev:0000000000000000 .L0 
     /tmp/cc8AT9ge.s:73     .text._ZN9SemaphoreD0Ev:0000000000000000 .L0 
     /tmp/cc8AT9ge.s:74     .text._ZN9SemaphoreD0Ev:0000000000000004 .L0 
     /tmp/cc8AT9ge.s:78     .text._ZN9SemaphoreD0Ev:0000000000000010 .L0 
     /tmp/cc8AT9ge.s:79     .text._ZN9SemaphoreD0Ev:0000000000000010 .L0 
     /tmp/cc8AT9ge.s:80     .text._ZN9SemaphoreD0Ev:0000000000000010 .L0 
     /tmp/cc8AT9ge.s:82     .text._ZN9SemaphoreD0Ev:0000000000000014 .L0 
     /tmp/cc8AT9ge.s:88     .text._ZN9SemaphoreD0Ev:0000000000000018 .L0 
     /tmp/cc8AT9ge.s:91     .text._ZN9SemaphoreD0Ev:0000000000000024 .L0 
     /tmp/cc8AT9ge.s:92     .text._ZN9SemaphoreD0Ev:0000000000000024 .L0 
     /tmp/cc8AT9ge.s:99     .text._ZN9SemaphoreD0Ev:0000000000000030 .L0 
     /tmp/cc8AT9ge.s:105    .text._ZN9SemaphoreD0Ev:0000000000000040 .L0 
     /tmp/cc8AT9ge.s:107    .text._ZN9SemaphoreD0Ev:0000000000000044 .L0 
     /tmp/cc8AT9ge.s:108    .text._ZN9SemaphoreD0Ev:0000000000000044 .L0 
     /tmp/cc8AT9ge.s:110    .text._ZN9SemaphoreD0Ev:0000000000000048 .L0 
     /tmp/cc8AT9ge.s:113    .text._ZN9SemaphoreD0Ev:000000000000004c .L0 
     /tmp/cc8AT9ge.s:115    .text._ZN9SemaphoreD0Ev:0000000000000050 .L0 
     /tmp/cc8AT9ge.s:133    .text._ZN19ConsumerProducerCPP8Consumer3runEv:0000000000000000 _ZN19ConsumerProducerCPP8Consumer3runEv
     /tmp/cc8AT9ge.s:137    .text._ZN19ConsumerProducerCPP8Consumer3runEv:0000000000000000 .L0 
     /tmp/cc8AT9ge.s:139    .text._ZN19ConsumerProducerCPP8Consumer3runEv:0000000000000000 .L0 
     /tmp/cc8AT9ge.s:140    .text._ZN19ConsumerProducerCPP8Consumer3runEv:0000000000000004 .L0 
     /tmp/cc8AT9ge.s:146    .text._ZN19ConsumerProducerCPP8Consumer3runEv:0000000000000018 .L0 
     /tmp/cc8AT9ge.s:147    .text._ZN19ConsumerProducerCPP8Consumer3runEv:0000000000000018 .L0 
     /tmp/cc8AT9ge.s:148    .text._ZN19ConsumerProducerCPP8Consumer3runEv:0000000000000018 .L0 
     /tmp/cc8AT9ge.s:149    .text._ZN19ConsumerProducerCPP8Consumer3runEv:0000000000000018 .L0 
     /tmp/cc8AT9ge.s:150    .text._ZN19ConsumerProducerCPP8Consumer3runEv:0000000000000018 .L0 
     /tmp/cc8AT9ge.s:152    .text._ZN19ConsumerProducerCPP8Consumer3runEv:000000000000001c .L0 
     /tmp/cc8AT9ge.s:156    .text._ZN19ConsumerProducerCPP8Consumer3runEv:0000000000000020 .L0 
     /tmp/cc8AT9ge.s:157    .text._ZN19ConsumerProducerCPP8Consumer3runEv:0000000000000020 .L0 
     /tmp/cc8AT9ge.s:165    .text._ZN19ConsumerProducerCPP8Consumer3runEv:0000000000000028 .L0 
     /tmp/cc8AT9ge.s:166    .text._ZN19ConsumerProducerCPP8Consumer3runEv:0000000000000028 .L0 
     /tmp/cc8AT9ge.s:167    .text._ZN19ConsumerProducerCPP8Consumer3runEv:0000000000000028 .L0 
     /tmp/cc8AT9ge.s:175    .text._ZN19ConsumerProducerCPP8Consumer3runEv:0000000000000034 .L0 
     /tmp/cc8AT9ge.s:1498   .sbss:0000000000000000 _ZN19ConsumerProducerCPP9threadEndE
     /tmp/cc8AT9ge.s:176    .text._ZN19ConsumerProducerCPP8Consumer3runEv:0000000000000034 .L0 
GAS LISTING /tmp/cc8AT9ge.s 			page 40


     /tmp/cc8AT9ge.s:182    .text._ZN19ConsumerProducerCPP8Consumer3runEv:0000000000000048 .L0 
     /tmp/cc8AT9ge.s:183    .text._ZN19ConsumerProducerCPP8Consumer3runEv:0000000000000048 .L0 
     /tmp/cc8AT9ge.s:185    .text._ZN19ConsumerProducerCPP8Consumer3runEv:000000000000004c .L0 
     /tmp/cc8AT9ge.s:189    .text._ZN19ConsumerProducerCPP8Consumer3runEv:0000000000000058 .L0 
     /tmp/cc8AT9ge.s:190    .text._ZN19ConsumerProducerCPP8Consumer3runEv:0000000000000058 .L0 
     /tmp/cc8AT9ge.s:196    .text._ZN19ConsumerProducerCPP8Consumer3runEv:0000000000000060 .L0 
     /tmp/cc8AT9ge.s:197    .text._ZN19ConsumerProducerCPP8Consumer3runEv:0000000000000060 .L0 
     /tmp/cc8AT9ge.s:198    .text._ZN19ConsumerProducerCPP8Consumer3runEv:0000000000000060 .L0 
     /tmp/cc8AT9ge.s:205    .text._ZN19ConsumerProducerCPP8Consumer3runEv:000000000000006c .L0 
     /tmp/cc8AT9ge.s:206    .text._ZN19ConsumerProducerCPP8Consumer3runEv:000000000000006c .L0 
     /tmp/cc8AT9ge.s:210    .text._ZN19ConsumerProducerCPP8Consumer3runEv:0000000000000074 .L0 
     /tmp/cc8AT9ge.s:215    .text._ZN19ConsumerProducerCPP8Consumer3runEv:000000000000007c .L0 
     /tmp/cc8AT9ge.s:216    .text._ZN19ConsumerProducerCPP8Consumer3runEv:000000000000007c .L0 
     /tmp/cc8AT9ge.s:218    .text._ZN19ConsumerProducerCPP8Consumer3runEv:0000000000000080 .L0 
     /tmp/cc8AT9ge.s:222    .text._ZN19ConsumerProducerCPP8Consumer3runEv:000000000000008c .L0 
     /tmp/cc8AT9ge.s:225    .text._ZN19ConsumerProducerCPP8Consumer3runEv:0000000000000090 .L0 
     /tmp/cc8AT9ge.s:226    .text._ZN19ConsumerProducerCPP8Consumer3runEv:0000000000000090 .L0 
     /tmp/cc8AT9ge.s:228    .text._ZN19ConsumerProducerCPP8Consumer3runEv:0000000000000094 .L0 
     /tmp/cc8AT9ge.s:234    .text._ZN19ConsumerProducerCPP8Consumer3runEv:00000000000000a0 .L0 
     /tmp/cc8AT9ge.s:235    .text._ZN19ConsumerProducerCPP8Consumer3runEv:00000000000000a0 .L0 
     /tmp/cc8AT9ge.s:236    .text._ZN19ConsumerProducerCPP8Consumer3runEv:00000000000000a0 .L0 
     /tmp/cc8AT9ge.s:246    .text._ZN19ConsumerProducerCPP8Consumer3runEv:00000000000000b0 .L0 
     /tmp/cc8AT9ge.s:248    .text._ZN19ConsumerProducerCPP8Consumer3runEv:00000000000000b4 .L0 
     /tmp/cc8AT9ge.s:253    .text._ZN19ConsumerProducerCPP8Consumer3runEv:00000000000000b8 .L0 
     /tmp/cc8AT9ge.s:254    .text._ZN19ConsumerProducerCPP8Consumer3runEv:00000000000000b8 .L0 
     /tmp/cc8AT9ge.s:260    .text._ZN19ConsumerProducerCPP8Consumer3runEv:00000000000000c4 .L0 
     /tmp/cc8AT9ge.s:261    .text._ZN19ConsumerProducerCPP8Consumer3runEv:00000000000000c8 .L0 
     /tmp/cc8AT9ge.s:263    .text._ZN19ConsumerProducerCPP8Consumer3runEv:00000000000000cc .L0 
     /tmp/cc8AT9ge.s:264    .text._ZN19ConsumerProducerCPP8Consumer3runEv:00000000000000cc .L0 
     /tmp/cc8AT9ge.s:266    .text._ZN19ConsumerProducerCPP8Consumer3runEv:00000000000000d0 .L0 
     /tmp/cc8AT9ge.s:268    .text._ZN19ConsumerProducerCPP8Consumer3runEv:00000000000000d4 .L0 
     /tmp/cc8AT9ge.s:271    .text._ZN19ConsumerProducerCPP8Consumer3runEv:00000000000000d8 .L0 
     /tmp/cc8AT9ge.s:274    .text._ZN19ConsumerProducerCPP8Consumer3runEv:00000000000000dc .L0 
     /tmp/cc8AT9ge.s:276    .text._ZN19ConsumerProducerCPP8Consumer3runEv:00000000000000e0 .L0 
     /tmp/cc8AT9ge.s:283    .text._ZN19ConsumerProducerCPP8ConsumerD2Ev:0000000000000000 _ZN19ConsumerProducerCPP8ConsumerD2Ev
     /tmp/cc8AT9ge.s:286    .text._ZN19ConsumerProducerCPP8ConsumerD2Ev:0000000000000000 .L0 
     /tmp/cc8AT9ge.s:288    .text._ZN19ConsumerProducerCPP8ConsumerD2Ev:0000000000000000 .L0 
     /tmp/cc8AT9ge.s:289    .text._ZN19ConsumerProducerCPP8ConsumerD2Ev:0000000000000004 .L0 
     /tmp/cc8AT9ge.s:292    .text._ZN19ConsumerProducerCPP8ConsumerD2Ev:000000000000000c .L0 
     /tmp/cc8AT9ge.s:293    .text._ZN19ConsumerProducerCPP8ConsumerD2Ev:000000000000000c .L0 
     /tmp/cc8AT9ge.s:295    .text._ZN19ConsumerProducerCPP8ConsumerD2Ev:0000000000000010 .L0 
     /tmp/cc8AT9ge.s:1440   .rodata._ZTVN19ConsumerProducerCPP8ConsumerE:0000000000000000 _ZTVN19ConsumerProducerCPP8ConsumerE
     /tmp/cc8AT9ge.s:298    .text._ZN19ConsumerProducerCPP8ConsumerD2Ev:0000000000000010 .L0 
     /tmp/cc8AT9ge.s:304    .text._ZN19ConsumerProducerCPP8ConsumerD2Ev:0000000000000028 .L0 
     /tmp/cc8AT9ge.s:306    .text._ZN19ConsumerProducerCPP8ConsumerD2Ev:000000000000002c .L0 
     /tmp/cc8AT9ge.s:307    .text._ZN19ConsumerProducerCPP8ConsumerD2Ev:000000000000002c .L0 
     /tmp/cc8AT9ge.s:309    .text._ZN19ConsumerProducerCPP8ConsumerD2Ev:0000000000000030 .L0 
     /tmp/cc8AT9ge.s:311    .text._ZN19ConsumerProducerCPP8ConsumerD2Ev:0000000000000034 .L0 
     /tmp/cc8AT9ge.s:283    .text._ZN19ConsumerProducerCPP8ConsumerD2Ev:0000000000000000 _ZN19ConsumerProducerCPP8ConsumerD1Ev
     /tmp/cc8AT9ge.s:320    .text._ZN19ConsumerProducerCPP8ConsumerD0Ev:0000000000000000 _ZN19ConsumerProducerCPP8ConsumerD0Ev
     /tmp/cc8AT9ge.s:323    .text._ZN19ConsumerProducerCPP8ConsumerD0Ev:0000000000000000 .L0 
     /tmp/cc8AT9ge.s:325    .text._ZN19ConsumerProducerCPP8ConsumerD0Ev:0000000000000000 .L0 
     /tmp/cc8AT9ge.s:326    .text._ZN19ConsumerProducerCPP8ConsumerD0Ev:0000000000000004 .L0 
     /tmp/cc8AT9ge.s:330    .text._ZN19ConsumerProducerCPP8ConsumerD0Ev:0000000000000010 .L0 
     /tmp/cc8AT9ge.s:331    .text._ZN19ConsumerProducerCPP8ConsumerD0Ev:0000000000000010 .L0 
     /tmp/cc8AT9ge.s:332    .text._ZN19ConsumerProducerCPP8ConsumerD0Ev:0000000000000010 .L0 
     /tmp/cc8AT9ge.s:334    .text._ZN19ConsumerProducerCPP8ConsumerD0Ev:0000000000000014 .L0 
GAS LISTING /tmp/cc8AT9ge.s 			page 41


     /tmp/cc8AT9ge.s:340    .text._ZN19ConsumerProducerCPP8ConsumerD0Ev:0000000000000018 .L0 
     /tmp/cc8AT9ge.s:350    .text._ZN19ConsumerProducerCPP8ConsumerD0Ev:000000000000003c .L0 
     /tmp/cc8AT9ge.s:352    .text._ZN19ConsumerProducerCPP8ConsumerD0Ev:0000000000000040 .L0 
     /tmp/cc8AT9ge.s:353    .text._ZN19ConsumerProducerCPP8ConsumerD0Ev:0000000000000040 .L0 
     /tmp/cc8AT9ge.s:355    .text._ZN19ConsumerProducerCPP8ConsumerD0Ev:0000000000000044 .L0 
     /tmp/cc8AT9ge.s:358    .text._ZN19ConsumerProducerCPP8ConsumerD0Ev:0000000000000048 .L0 
     /tmp/cc8AT9ge.s:360    .text._ZN19ConsumerProducerCPP8ConsumerD0Ev:000000000000004c .L0 
     /tmp/cc8AT9ge.s:367    .text._ZN19ConsumerProducerCPP16ProducerKeyboradD2Ev:0000000000000000 _ZN19ConsumerProducerCPP16ProducerKeyboradD2Ev
     /tmp/cc8AT9ge.s:370    .text._ZN19ConsumerProducerCPP16ProducerKeyboradD2Ev:0000000000000000 .L0 
     /tmp/cc8AT9ge.s:372    .text._ZN19ConsumerProducerCPP16ProducerKeyboradD2Ev:0000000000000000 .L0 
     /tmp/cc8AT9ge.s:373    .text._ZN19ConsumerProducerCPP16ProducerKeyboradD2Ev:0000000000000004 .L0 
     /tmp/cc8AT9ge.s:376    .text._ZN19ConsumerProducerCPP16ProducerKeyboradD2Ev:000000000000000c .L0 
     /tmp/cc8AT9ge.s:377    .text._ZN19ConsumerProducerCPP16ProducerKeyboradD2Ev:000000000000000c .L0 
     /tmp/cc8AT9ge.s:379    .text._ZN19ConsumerProducerCPP16ProducerKeyboradD2Ev:0000000000000010 .L0 
     /tmp/cc8AT9ge.s:1418   .rodata._ZTVN19ConsumerProducerCPP16ProducerKeyboradE:0000000000000000 _ZTVN19ConsumerProducerCPP16ProducerKeyboradE
     /tmp/cc8AT9ge.s:382    .text._ZN19ConsumerProducerCPP16ProducerKeyboradD2Ev:0000000000000010 .L0 
     /tmp/cc8AT9ge.s:388    .text._ZN19ConsumerProducerCPP16ProducerKeyboradD2Ev:0000000000000028 .L0 
     /tmp/cc8AT9ge.s:390    .text._ZN19ConsumerProducerCPP16ProducerKeyboradD2Ev:000000000000002c .L0 
     /tmp/cc8AT9ge.s:391    .text._ZN19ConsumerProducerCPP16ProducerKeyboradD2Ev:000000000000002c .L0 
     /tmp/cc8AT9ge.s:393    .text._ZN19ConsumerProducerCPP16ProducerKeyboradD2Ev:0000000000000030 .L0 
     /tmp/cc8AT9ge.s:395    .text._ZN19ConsumerProducerCPP16ProducerKeyboradD2Ev:0000000000000034 .L0 
     /tmp/cc8AT9ge.s:367    .text._ZN19ConsumerProducerCPP16ProducerKeyboradD2Ev:0000000000000000 _ZN19ConsumerProducerCPP16ProducerKeyboradD1Ev
     /tmp/cc8AT9ge.s:404    .text._ZN19ConsumerProducerCPP16ProducerKeyboradD0Ev:0000000000000000 _ZN19ConsumerProducerCPP16ProducerKeyboradD0Ev
     /tmp/cc8AT9ge.s:407    .text._ZN19ConsumerProducerCPP16ProducerKeyboradD0Ev:0000000000000000 .L0 
     /tmp/cc8AT9ge.s:409    .text._ZN19ConsumerProducerCPP16ProducerKeyboradD0Ev:0000000000000000 .L0 
     /tmp/cc8AT9ge.s:410    .text._ZN19ConsumerProducerCPP16ProducerKeyboradD0Ev:0000000000000004 .L0 
     /tmp/cc8AT9ge.s:414    .text._ZN19ConsumerProducerCPP16ProducerKeyboradD0Ev:0000000000000010 .L0 
     /tmp/cc8AT9ge.s:415    .text._ZN19ConsumerProducerCPP16ProducerKeyboradD0Ev:0000000000000010 .L0 
     /tmp/cc8AT9ge.s:416    .text._ZN19ConsumerProducerCPP16ProducerKeyboradD0Ev:0000000000000010 .L0 
     /tmp/cc8AT9ge.s:418    .text._ZN19ConsumerProducerCPP16ProducerKeyboradD0Ev:0000000000000014 .L0 
     /tmp/cc8AT9ge.s:424    .text._ZN19ConsumerProducerCPP16ProducerKeyboradD0Ev:0000000000000018 .L0 
     /tmp/cc8AT9ge.s:434    .text._ZN19ConsumerProducerCPP16ProducerKeyboradD0Ev:000000000000003c .L0 
     /tmp/cc8AT9ge.s:436    .text._ZN19ConsumerProducerCPP16ProducerKeyboradD0Ev:0000000000000040 .L0 
     /tmp/cc8AT9ge.s:437    .text._ZN19ConsumerProducerCPP16ProducerKeyboradD0Ev:0000000000000040 .L0 
     /tmp/cc8AT9ge.s:439    .text._ZN19ConsumerProducerCPP16ProducerKeyboradD0Ev:0000000000000044 .L0 
     /tmp/cc8AT9ge.s:442    .text._ZN19ConsumerProducerCPP16ProducerKeyboradD0Ev:0000000000000048 .L0 
     /tmp/cc8AT9ge.s:444    .text._ZN19ConsumerProducerCPP16ProducerKeyboradD0Ev:000000000000004c .L0 
     /tmp/cc8AT9ge.s:451    .text._ZN19ConsumerProducerCPP8ProducerD2Ev:0000000000000000 _ZN19ConsumerProducerCPP8ProducerD2Ev
     /tmp/cc8AT9ge.s:454    .text._ZN19ConsumerProducerCPP8ProducerD2Ev:0000000000000000 .L0 
     /tmp/cc8AT9ge.s:456    .text._ZN19ConsumerProducerCPP8ProducerD2Ev:0000000000000000 .L0 
     /tmp/cc8AT9ge.s:457    .text._ZN19ConsumerProducerCPP8ProducerD2Ev:0000000000000004 .L0 
     /tmp/cc8AT9ge.s:460    .text._ZN19ConsumerProducerCPP8ProducerD2Ev:000000000000000c .L0 
     /tmp/cc8AT9ge.s:461    .text._ZN19ConsumerProducerCPP8ProducerD2Ev:000000000000000c .L0 
     /tmp/cc8AT9ge.s:463    .text._ZN19ConsumerProducerCPP8ProducerD2Ev:0000000000000010 .L0 
     /tmp/cc8AT9ge.s:1429   .rodata._ZTVN19ConsumerProducerCPP8ProducerE:0000000000000000 _ZTVN19ConsumerProducerCPP8ProducerE
     /tmp/cc8AT9ge.s:466    .text._ZN19ConsumerProducerCPP8ProducerD2Ev:0000000000000010 .L0 
     /tmp/cc8AT9ge.s:472    .text._ZN19ConsumerProducerCPP8ProducerD2Ev:0000000000000028 .L0 
     /tmp/cc8AT9ge.s:474    .text._ZN19ConsumerProducerCPP8ProducerD2Ev:000000000000002c .L0 
     /tmp/cc8AT9ge.s:475    .text._ZN19ConsumerProducerCPP8ProducerD2Ev:000000000000002c .L0 
     /tmp/cc8AT9ge.s:477    .text._ZN19ConsumerProducerCPP8ProducerD2Ev:0000000000000030 .L0 
     /tmp/cc8AT9ge.s:479    .text._ZN19ConsumerProducerCPP8ProducerD2Ev:0000000000000034 .L0 
     /tmp/cc8AT9ge.s:451    .text._ZN19ConsumerProducerCPP8ProducerD2Ev:0000000000000000 _ZN19ConsumerProducerCPP8ProducerD1Ev
     /tmp/cc8AT9ge.s:488    .text._ZN19ConsumerProducerCPP8ProducerD0Ev:0000000000000000 _ZN19ConsumerProducerCPP8ProducerD0Ev
     /tmp/cc8AT9ge.s:491    .text._ZN19ConsumerProducerCPP8ProducerD0Ev:0000000000000000 .L0 
     /tmp/cc8AT9ge.s:493    .text._ZN19ConsumerProducerCPP8ProducerD0Ev:0000000000000000 .L0 
     /tmp/cc8AT9ge.s:494    .text._ZN19ConsumerProducerCPP8ProducerD0Ev:0000000000000004 .L0 
     /tmp/cc8AT9ge.s:498    .text._ZN19ConsumerProducerCPP8ProducerD0Ev:0000000000000010 .L0 
GAS LISTING /tmp/cc8AT9ge.s 			page 42


     /tmp/cc8AT9ge.s:499    .text._ZN19ConsumerProducerCPP8ProducerD0Ev:0000000000000010 .L0 
     /tmp/cc8AT9ge.s:500    .text._ZN19ConsumerProducerCPP8ProducerD0Ev:0000000000000010 .L0 
     /tmp/cc8AT9ge.s:502    .text._ZN19ConsumerProducerCPP8ProducerD0Ev:0000000000000014 .L0 
     /tmp/cc8AT9ge.s:508    .text._ZN19ConsumerProducerCPP8ProducerD0Ev:0000000000000018 .L0 
     /tmp/cc8AT9ge.s:518    .text._ZN19ConsumerProducerCPP8ProducerD0Ev:000000000000003c .L0 
     /tmp/cc8AT9ge.s:520    .text._ZN19ConsumerProducerCPP8ProducerD0Ev:0000000000000040 .L0 
     /tmp/cc8AT9ge.s:521    .text._ZN19ConsumerProducerCPP8ProducerD0Ev:0000000000000040 .L0 
     /tmp/cc8AT9ge.s:523    .text._ZN19ConsumerProducerCPP8ProducerD0Ev:0000000000000044 .L0 
     /tmp/cc8AT9ge.s:526    .text._ZN19ConsumerProducerCPP8ProducerD0Ev:0000000000000048 .L0 
     /tmp/cc8AT9ge.s:528    .text._ZN19ConsumerProducerCPP8ProducerD0Ev:000000000000004c .L0 
     /tmp/cc8AT9ge.s:535    .text._ZN19ConsumerProducerCPP16ProducerKeyborad3runEv:0000000000000000 _ZN19ConsumerProducerCPP16ProducerKeyborad3runEv
     /tmp/cc8AT9ge.s:538    .text._ZN19ConsumerProducerCPP16ProducerKeyborad3runEv:0000000000000000 .L0 
     /tmp/cc8AT9ge.s:540    .text._ZN19ConsumerProducerCPP16ProducerKeyborad3runEv:0000000000000000 .L0 
     /tmp/cc8AT9ge.s:541    .text._ZN19ConsumerProducerCPP16ProducerKeyborad3runEv:0000000000000004 .L0 
     /tmp/cc8AT9ge.s:545    .text._ZN19ConsumerProducerCPP16ProducerKeyborad3runEv:0000000000000010 .L0 
     /tmp/cc8AT9ge.s:546    .text._ZN19ConsumerProducerCPP16ProducerKeyborad3runEv:0000000000000010 .L0 
     /tmp/cc8AT9ge.s:547    .text._ZN19ConsumerProducerCPP16ProducerKeyborad3runEv:0000000000000010 .L0 
     /tmp/cc8AT9ge.s:549    .text._ZN19ConsumerProducerCPP16ProducerKeyborad3runEv:0000000000000014 .L0 
     /tmp/cc8AT9ge.s:552    .text._ZN19ConsumerProducerCPP16ProducerKeyborad3runEv:0000000000000018 .L0 
     /tmp/cc8AT9ge.s:555    .text._ZN19ConsumerProducerCPP16ProducerKeyborad3runEv:0000000000000018 .L0 
     /tmp/cc8AT9ge.s:556    .text._ZN19ConsumerProducerCPP16ProducerKeyborad3runEv:0000000000000018 .L0 
     /tmp/cc8AT9ge.s:557    .text._ZN19ConsumerProducerCPP16ProducerKeyborad3runEv:0000000000000018 .L0 
     /tmp/cc8AT9ge.s:560    .text._ZN19ConsumerProducerCPP16ProducerKeyborad3runEv:0000000000000020 .L0 
     /tmp/cc8AT9ge.s:563    .text._ZN19ConsumerProducerCPP16ProducerKeyborad3runEv:0000000000000024 .L0 
     /tmp/cc8AT9ge.s:566    .text._ZN19ConsumerProducerCPP16ProducerKeyborad3runEv:000000000000002c .L0 
     /tmp/cc8AT9ge.s:568    .text._ZN19ConsumerProducerCPP16ProducerKeyborad3runEv:0000000000000030 .L0 
     /tmp/cc8AT9ge.s:572    .text._ZN19ConsumerProducerCPP16ProducerKeyborad3runEv:000000000000003c .L0 
     /tmp/cc8AT9ge.s:573    .text._ZN19ConsumerProducerCPP16ProducerKeyborad3runEv:000000000000003c .L0 
     /tmp/cc8AT9ge.s:577    .text._ZN19ConsumerProducerCPP16ProducerKeyborad3runEv:0000000000000040 .L0 
     /tmp/cc8AT9ge.s:578    .text._ZN19ConsumerProducerCPP16ProducerKeyborad3runEv:0000000000000040 .L0 
     /tmp/cc8AT9ge.s:581    .text._ZN19ConsumerProducerCPP16ProducerKeyborad3runEv:000000000000004c .L0 
     /tmp/cc8AT9ge.s:583    .text._ZN19ConsumerProducerCPP16ProducerKeyborad3runEv:0000000000000050 .L0 
     /tmp/cc8AT9ge.s:590    .text._ZN19ConsumerProducerCPP16ProducerKeyborad3runEv:0000000000000060 .L0 
     /tmp/cc8AT9ge.s:592    .text._ZN19ConsumerProducerCPP16ProducerKeyborad3runEv:0000000000000064 .L0 
     /tmp/cc8AT9ge.s:597    .text._ZN19ConsumerProducerCPP16ProducerKeyborad3runEv:0000000000000068 .L0 
     /tmp/cc8AT9ge.s:598    .text._ZN19ConsumerProducerCPP16ProducerKeyborad3runEv:0000000000000068 .L0 
     /tmp/cc8AT9ge.s:604    .text._ZN19ConsumerProducerCPP16ProducerKeyborad3runEv:0000000000000074 .L0 
     /tmp/cc8AT9ge.s:605    .text._ZN19ConsumerProducerCPP16ProducerKeyborad3runEv:0000000000000078 .L0 
     /tmp/cc8AT9ge.s:607    .text._ZN19ConsumerProducerCPP16ProducerKeyborad3runEv:000000000000007c .L0 
     /tmp/cc8AT9ge.s:608    .text._ZN19ConsumerProducerCPP16ProducerKeyborad3runEv:000000000000007c .L0 
     /tmp/cc8AT9ge.s:610    .text._ZN19ConsumerProducerCPP16ProducerKeyborad3runEv:0000000000000080 .L0 
     /tmp/cc8AT9ge.s:613    .text._ZN19ConsumerProducerCPP16ProducerKeyborad3runEv:0000000000000084 .L0 
     /tmp/cc8AT9ge.s:615    .text._ZN19ConsumerProducerCPP16ProducerKeyborad3runEv:0000000000000088 .L0 
     /tmp/cc8AT9ge.s:622    .text._ZN19ConsumerProducerCPP8Producer3runEv:0000000000000000 _ZN19ConsumerProducerCPP8Producer3runEv
     /tmp/cc8AT9ge.s:625    .text._ZN19ConsumerProducerCPP8Producer3runEv:0000000000000000 .L0 
     /tmp/cc8AT9ge.s:627    .text._ZN19ConsumerProducerCPP8Producer3runEv:0000000000000000 .L0 
     /tmp/cc8AT9ge.s:628    .text._ZN19ConsumerProducerCPP8Producer3runEv:0000000000000004 .L0 
     /tmp/cc8AT9ge.s:633    .text._ZN19ConsumerProducerCPP8Producer3runEv:0000000000000014 .L0 
     /tmp/cc8AT9ge.s:634    .text._ZN19ConsumerProducerCPP8Producer3runEv:0000000000000014 .L0 
     /tmp/cc8AT9ge.s:635    .text._ZN19ConsumerProducerCPP8Producer3runEv:0000000000000014 .L0 
     /tmp/cc8AT9ge.s:636    .text._ZN19ConsumerProducerCPP8Producer3runEv:0000000000000014 .L0 
     /tmp/cc8AT9ge.s:638    .text._ZN19ConsumerProducerCPP8Producer3runEv:0000000000000018 .L0 
     /tmp/cc8AT9ge.s:642    .text._ZN19ConsumerProducerCPP8Producer3runEv:000000000000001c .L0 
     /tmp/cc8AT9ge.s:643    .text._ZN19ConsumerProducerCPP8Producer3runEv:000000000000001c .L0 
     /tmp/cc8AT9ge.s:647    .text._ZN19ConsumerProducerCPP8Producer3runEv:0000000000000020 .L0 
     /tmp/cc8AT9ge.s:648    .text._ZN19ConsumerProducerCPP8Producer3runEv:0000000000000020 .L0 
     /tmp/cc8AT9ge.s:653    .text._ZN19ConsumerProducerCPP8Producer3runEv:0000000000000034 .L0 
GAS LISTING /tmp/cc8AT9ge.s 			page 43


     /tmp/cc8AT9ge.s:655    .text._ZN19ConsumerProducerCPP8Producer3runEv:0000000000000038 .L0 
     /tmp/cc8AT9ge.s:657    .text._ZN19ConsumerProducerCPP8Producer3runEv:000000000000003c .L0 
     /tmp/cc8AT9ge.s:662    .text._ZN19ConsumerProducerCPP8Producer3runEv:000000000000004c .L0 
     /tmp/cc8AT9ge.s:663    .text._ZN19ConsumerProducerCPP8Producer3runEv:000000000000004c .L0 
     /tmp/cc8AT9ge.s:667    .text._ZN19ConsumerProducerCPP8Producer3runEv:0000000000000054 .L0 
     /tmp/cc8AT9ge.s:668    .text._ZN19ConsumerProducerCPP8Producer3runEv:0000000000000054 .L0 
     /tmp/cc8AT9ge.s:670    .text._ZN19ConsumerProducerCPP8Producer3runEv:0000000000000058 .L0 
     /tmp/cc8AT9ge.s:672    .text._ZN19ConsumerProducerCPP8Producer3runEv:000000000000005c .L0 
     /tmp/cc8AT9ge.s:677    .text._ZN19ConsumerProducerCPP8Producer3runEv:0000000000000060 .L0 
     /tmp/cc8AT9ge.s:678    .text._ZN19ConsumerProducerCPP8Producer3runEv:0000000000000060 .L0 
     /tmp/cc8AT9ge.s:689    .text._ZN19ConsumerProducerCPP8Producer3runEv:0000000000000074 .L0 
     /tmp/cc8AT9ge.s:691    .text._ZN19ConsumerProducerCPP8Producer3runEv:0000000000000078 .L0 
     /tmp/cc8AT9ge.s:696    .text._ZN19ConsumerProducerCPP8Producer3runEv:000000000000007c .L0 
     /tmp/cc8AT9ge.s:697    .text._ZN19ConsumerProducerCPP8Producer3runEv:000000000000007c .L0 
     /tmp/cc8AT9ge.s:703    .text._ZN19ConsumerProducerCPP8Producer3runEv:0000000000000088 .L0 
     /tmp/cc8AT9ge.s:704    .text._ZN19ConsumerProducerCPP8Producer3runEv:000000000000008c .L0 
     /tmp/cc8AT9ge.s:706    .text._ZN19ConsumerProducerCPP8Producer3runEv:0000000000000090 .L0 
     /tmp/cc8AT9ge.s:707    .text._ZN19ConsumerProducerCPP8Producer3runEv:0000000000000090 .L0 
     /tmp/cc8AT9ge.s:709    .text._ZN19ConsumerProducerCPP8Producer3runEv:0000000000000094 .L0 
     /tmp/cc8AT9ge.s:712    .text._ZN19ConsumerProducerCPP8Producer3runEv:0000000000000098 .L0 
     /tmp/cc8AT9ge.s:715    .text._ZN19ConsumerProducerCPP8Producer3runEv:000000000000009c .L0 
     /tmp/cc8AT9ge.s:717    .text._ZN19ConsumerProducerCPP8Producer3runEv:00000000000000a0 .L0 
     /tmp/cc8AT9ge.s:724    .text:0000000000000000 _ZN19ConsumerProducerCPP20testConsumerProducerEv
     /tmp/cc8AT9ge.s:727    .text:0000000000000000 .L0 
     /tmp/cc8AT9ge.s:730    .text:0000000000000000 .L0 
     /tmp/cc8AT9ge.s:731    .text:0000000000000004 .L0 
     /tmp/cc8AT9ge.s:742    .text:000000000000002c .L0 
     /tmp/cc8AT9ge.s:743    .text:000000000000002c .L0 
     /tmp/cc8AT9ge.s:744    .text:000000000000002c .L0 
     /tmp/cc8AT9ge.s:745    .text:000000000000002c .L0 
     /tmp/cc8AT9ge.s:746    .text:000000000000002c .L0 
     /tmp/cc8AT9ge.s:747    .text:000000000000002c .L0 
     /tmp/cc8AT9ge.s:748    .text:000000000000002c .L0 
     /tmp/cc8AT9ge.s:749    .text:000000000000002c .L0 
     /tmp/cc8AT9ge.s:750    .text:000000000000002c .L0 
     /tmp/cc8AT9ge.s:751    .text:000000000000002c .L0 
     /tmp/cc8AT9ge.s:753    .text:0000000000000030 .L0 
     /tmp/cc8AT9ge.s:755    .text:0000000000000030 .L0 
     /tmp/cc8AT9ge.s:757    .text:0000000000000034 .L0 
     /tmp/cc8AT9ge.s:758    .text:0000000000000034 .L0 
     /tmp/cc8AT9ge.s:759    .text:0000000000000034 .L0 
     /tmp/cc8AT9ge.s:760    .text:0000000000000034 .L0 
     /tmp/cc8AT9ge.s:765    .text:0000000000000044 .L0 
     /tmp/cc8AT9ge.s:766    .text:0000000000000044 .L0 
     /tmp/cc8AT9ge.s:771    .text:0000000000000054 .L0 
     /tmp/cc8AT9ge.s:772    .text:0000000000000054 .L0 
     /tmp/cc8AT9ge.s:778    .text:0000000000000064 .L0 
     /tmp/cc8AT9ge.s:779    .text:0000000000000064 .L0 
     /tmp/cc8AT9ge.s:783    .text:0000000000000074 .L0 
     /tmp/cc8AT9ge.s:784    .text:0000000000000074 .L0 
     /tmp/cc8AT9ge.s:789    .text:0000000000000084 .L0 
     /tmp/cc8AT9ge.s:790    .text:0000000000000084 .L0 
     /tmp/cc8AT9ge.s:796    .text:0000000000000094 .L0 
     /tmp/cc8AT9ge.s:797    .text:0000000000000094 .L0 
     /tmp/cc8AT9ge.s:801    .text:00000000000000a4 .L0 
     /tmp/cc8AT9ge.s:802    .text:00000000000000a4 .L0 
     /tmp/cc8AT9ge.s:807    .text:00000000000000b4 .L0 
GAS LISTING /tmp/cc8AT9ge.s 			page 44


     /tmp/cc8AT9ge.s:808    .text:00000000000000b4 .L0 
     /tmp/cc8AT9ge.s:812    .text:00000000000000c4 .L0 
     /tmp/cc8AT9ge.s:813    .text:00000000000000c4 .L0 
     /tmp/cc8AT9ge.s:818    .text:00000000000000d4 .L0 
     /tmp/cc8AT9ge.s:819    .text:00000000000000d4 .L0 
     /tmp/cc8AT9ge.s:823    .text:00000000000000e4 .L0 
     /tmp/cc8AT9ge.s:825    .text:00000000000000e8 .L0 
     /tmp/cc8AT9ge.s:827    .text:00000000000000ec .L0 
     /tmp/cc8AT9ge.s:828    .text:00000000000000ec .L0 
     /tmp/cc8AT9ge.s:832    .text:00000000000000fc .L0 
     /tmp/cc8AT9ge.s:833    .text:00000000000000fc .L0 
     /tmp/cc8AT9ge.s:846    .text:000000000000011c .L0 
     /tmp/cc8AT9ge.s:847    .text:000000000000011c .L0 
     /tmp/cc8AT9ge.s:852    .text:000000000000012c .L0 
     /tmp/cc8AT9ge.s:855    .text:0000000000000130 .L0 
     /tmp/cc8AT9ge.s:856    .text:0000000000000130 .L0 
     /tmp/cc8AT9ge.s:861    .text:0000000000000140 .L0 
     /tmp/cc8AT9ge.s:866    .text:0000000000000148 .L0 
     /tmp/cc8AT9ge.s:867    .text:0000000000000148 .L0 
     /tmp/cc8AT9ge.s:872    .text:0000000000000158 .L0 
     /tmp/cc8AT9ge.s:873    .text:0000000000000158 .L0 
     /tmp/cc8AT9ge.s:877    .text:0000000000000168 .L0 
     /tmp/cc8AT9ge.s:878    .text:0000000000000168 .L0 
     /tmp/cc8AT9ge.s:883    .text:0000000000000178 .L0 
     /tmp/cc8AT9ge.s:884    .text:0000000000000178 .L0 
     /tmp/cc8AT9ge.s:888    .text:0000000000000188 .L0 
     /tmp/cc8AT9ge.s:889    .text:0000000000000188 .L0 
     /tmp/cc8AT9ge.s:893    .text:0000000000000198 .L0 
     /tmp/cc8AT9ge.s:894    .text:0000000000000198 .L0 
     /tmp/cc8AT9ge.s:903    .text:00000000000001a8 .L0 
     /tmp/cc8AT9ge.s:906    .text:00000000000001b4 .L0 
     /tmp/cc8AT9ge.s:907    .text:00000000000001b4 .L0 
     /tmp/cc8AT9ge.s:1503   .sbss:0000000000000008 _ZN19ConsumerProducerCPP10waitForAllE
     /tmp/cc8AT9ge.s:916    .text:00000000000001c4 .L0 
     /tmp/cc8AT9ge.s:920    .text:00000000000001d0 .L0 
     /tmp/cc8AT9ge.s:921    .text:00000000000001d0 .L0 
     /tmp/cc8AT9ge.s:928    .text:00000000000001e4 .L0 
     /tmp/cc8AT9ge.s:929    .text:00000000000001e4 .L0 
     /tmp/cc8AT9ge.s:932    .text:00000000000001e8 .L0 
     /tmp/cc8AT9ge.s:942    .text:0000000000000204 .L0 
     /tmp/cc8AT9ge.s:943    .text:0000000000000204 .L0 
     /tmp/cc8AT9ge.s:949    .text:0000000000000218 .L0 
     /tmp/cc8AT9ge.s:950    .text:0000000000000218 .L0 
     /tmp/cc8AT9ge.s:952    .text:000000000000021c .L0 
     /tmp/cc8AT9ge.s:953    .text:000000000000021c .L0 
     /tmp/cc8AT9ge.s:956    .text:0000000000000224 .L0 
     /tmp/cc8AT9ge.s:957    .text:0000000000000224 .L0 
     /tmp/cc8AT9ge.s:962    .text:0000000000000234 .L0 
     /tmp/cc8AT9ge.s:963    .text:0000000000000234 .L0 
     /tmp/cc8AT9ge.s:973    .text:0000000000000244 .L0 
     /tmp/cc8AT9ge.s:974    .text:0000000000000244 .L0 
     /tmp/cc8AT9ge.s:979    .text:0000000000000248 .L0 
     /tmp/cc8AT9ge.s:986    .text:0000000000000258 .L0 
     /tmp/cc8AT9ge.s:987    .text:0000000000000258 .L0 
     /tmp/cc8AT9ge.s:991    .text:0000000000000264 .L0 
     /tmp/cc8AT9ge.s:992    .text:0000000000000264 .L0 
     /tmp/cc8AT9ge.s:996    .text:0000000000000274 .L0 
GAS LISTING /tmp/cc8AT9ge.s 			page 45


     /tmp/cc8AT9ge.s:997    .text:0000000000000274 .L0 
     /tmp/cc8AT9ge.s:1002   .text:0000000000000284 .L0 
     /tmp/cc8AT9ge.s:1003   .text:0000000000000284 .L0 
     /tmp/cc8AT9ge.s:1007   .text:0000000000000294 .L0 
     /tmp/cc8AT9ge.s:1008   .text:0000000000000294 .L0 
     /tmp/cc8AT9ge.s:1012   .text:00000000000002a4 .L0 
     /tmp/cc8AT9ge.s:1013   .text:00000000000002a4 .L0 
     /tmp/cc8AT9ge.s:1017   .text:00000000000002b0 .L0 
     /tmp/cc8AT9ge.s:1018   .text:00000000000002b0 .L0 
     /tmp/cc8AT9ge.s:1020   .text:00000000000002b4 .L0 
     /tmp/cc8AT9ge.s:1021   .text:00000000000002b4 .L0 
     /tmp/cc8AT9ge.s:1023   .text:00000000000002b8 .L0 
     /tmp/cc8AT9ge.s:1024   .text:00000000000002b8 .L0 
     /tmp/cc8AT9ge.s:1027   .text:00000000000002c0 .L0 
     /tmp/cc8AT9ge.s:1028   .text:00000000000002c0 .L0 
     /tmp/cc8AT9ge.s:1036   .text:00000000000002cc .L0 
     /tmp/cc8AT9ge.s:1037   .text:00000000000002cc .L0 
     /tmp/cc8AT9ge.s:1042   .text:00000000000002d0 .L0 
     /tmp/cc8AT9ge.s:1049   .text:00000000000002e0 .L0 
     /tmp/cc8AT9ge.s:1051   .text:00000000000002e4 .L0 
     /tmp/cc8AT9ge.s:1052   .text:00000000000002e4 .L0 
     /tmp/cc8AT9ge.s:1056   .text:00000000000002ec .L0 
     /tmp/cc8AT9ge.s:1060   .text:00000000000002f0 .L0 
     /tmp/cc8AT9ge.s:1062   .text:00000000000002f4 .L0 
     /tmp/cc8AT9ge.s:1063   .text:00000000000002f4 .L0 
     /tmp/cc8AT9ge.s:1069   .text:0000000000000308 .L0 
     /tmp/cc8AT9ge.s:1070   .text:0000000000000308 .L0 
     /tmp/cc8AT9ge.s:1072   .text:000000000000030c .L0 
     /tmp/cc8AT9ge.s:1073   .text:000000000000030c .L0 
     /tmp/cc8AT9ge.s:1077   .text:000000000000031c .L0 
     /tmp/cc8AT9ge.s:1078   .text:000000000000031c .L0 
     /tmp/cc8AT9ge.s:1082   .text:000000000000032c .L0 
     /tmp/cc8AT9ge.s:1083   .text:000000000000032c .L0 
     /tmp/cc8AT9ge.s:1091   .text:0000000000000338 .L0 
     /tmp/cc8AT9ge.s:1092   .text:0000000000000338 .L0 
     /tmp/cc8AT9ge.s:1097   .text:000000000000033c .L0 
     /tmp/cc8AT9ge.s:1104   .text:000000000000034c .L0 
     /tmp/cc8AT9ge.s:1108   .text:0000000000000358 .L0 
     /tmp/cc8AT9ge.s:1109   .text:0000000000000358 .L0 
     /tmp/cc8AT9ge.s:1113   .text:0000000000000364 .L0 
     /tmp/cc8AT9ge.s:1114   .text:0000000000000364 .L0 
     /tmp/cc8AT9ge.s:1118   .text:0000000000000374 .L0 
     /tmp/cc8AT9ge.s:1119   .text:0000000000000374 .L0 
     /tmp/cc8AT9ge.s:1124   .text:0000000000000384 .L0 
     /tmp/cc8AT9ge.s:1125   .text:0000000000000384 .L0 
     /tmp/cc8AT9ge.s:1129   .text:0000000000000394 .L0 
     /tmp/cc8AT9ge.s:1130   .text:0000000000000394 .L0 
     /tmp/cc8AT9ge.s:1134   .text:00000000000003a4 .L0 
     /tmp/cc8AT9ge.s:1135   .text:00000000000003a4 .L0 
     /tmp/cc8AT9ge.s:1139   .text:00000000000003b0 .L0 
     /tmp/cc8AT9ge.s:1148   .text:00000000000003b8 .L0 
     /tmp/cc8AT9ge.s:1149   .text:00000000000003b8 .L0 
     /tmp/cc8AT9ge.s:1150   .text:00000000000003b8 .L0 
     /tmp/cc8AT9ge.s:1156   .text:00000000000003c0 .L0 
     /tmp/cc8AT9ge.s:1160   .text:00000000000003c4 .L0 
     /tmp/cc8AT9ge.s:1162   .text:00000000000003c8 .L0 
     /tmp/cc8AT9ge.s:1163   .text:00000000000003c8 .L0 
GAS LISTING /tmp/cc8AT9ge.s 			page 46


     /tmp/cc8AT9ge.s:1169   .text:00000000000003d4 .L0 
     /tmp/cc8AT9ge.s:1170   .text:00000000000003d4 .L0 
     /tmp/cc8AT9ge.s:1176   .text:00000000000003e0 .L0 
     /tmp/cc8AT9ge.s:1183   .text:00000000000003e8 .L0 
     /tmp/cc8AT9ge.s:1184   .text:00000000000003e8 .L0 
     /tmp/cc8AT9ge.s:1187   .text:00000000000003f4 .L0 
     /tmp/cc8AT9ge.s:1189   .text:00000000000003f8 .L0 
     /tmp/cc8AT9ge.s:1196   .text:0000000000000404 .L0 
     /tmp/cc8AT9ge.s:1204   .text:000000000000040c .L0 
     /tmp/cc8AT9ge.s:1208   .text:0000000000000410 .L0 
     /tmp/cc8AT9ge.s:1210   .text:0000000000000414 .L0 
     /tmp/cc8AT9ge.s:1211   .text:0000000000000414 .L0 
     /tmp/cc8AT9ge.s:1215   .text:0000000000000420 .L0 
     /tmp/cc8AT9ge.s:1217   .text:0000000000000424 .L0 
     /tmp/cc8AT9ge.s:1225   .text:0000000000000434 .L0 
     /tmp/cc8AT9ge.s:1226   .text:0000000000000434 .L0 
     /tmp/cc8AT9ge.s:1228   .text:0000000000000438 .L0 
     /tmp/cc8AT9ge.s:1235   .text:0000000000000448 .L0 
     /tmp/cc8AT9ge.s:1236   .text:0000000000000448 .L0 
     /tmp/cc8AT9ge.s:1238   .text:000000000000044c .L0 
     /tmp/cc8AT9ge.s:1250   .text:0000000000000468 .L0 
     /tmp/cc8AT9ge.s:1251   .text:000000000000046c .L0 
     /tmp/cc8AT9ge.s:1252   .text:000000000000046c .L0 
     /tmp/cc8AT9ge.s:1254   .text:0000000000000470 .L0 
     /tmp/cc8AT9ge.s:1256   .text:0000000000000474 .L0 
     /tmp/cc8AT9ge.s:1258   .text:0000000000000478 .L0 
     /tmp/cc8AT9ge.s:1260   .text:000000000000047c .L0 
     /tmp/cc8AT9ge.s:1262   .text:0000000000000480 .L0 
     /tmp/cc8AT9ge.s:1265   .text:0000000000000484 .L0 
     /tmp/cc8AT9ge.s:1267   .text:0000000000000488 .L0 
     /tmp/cc8AT9ge.s:1269   .text:000000000000048c .L0 
     /tmp/cc8AT9ge.s:1271   .text:0000000000000490 .L0 
     /tmp/cc8AT9ge.s:1273   .text:0000000000000494 .L0 
     /tmp/cc8AT9ge.s:1275   .text:0000000000000498 .L0 
     /tmp/cc8AT9ge.s:1279   .text:000000000000049c .L0 
     /tmp/cc8AT9ge.s:1283   .text:00000000000004a0 .L0 
     /tmp/cc8AT9ge.s:1294   .text:00000000000004bc .L0 
     /tmp/cc8AT9ge.s:1302   .text:00000000000004d4 .L0 
     /tmp/cc8AT9ge.s:1343   .text:00000000000004d4 _Z8userMainv
     /tmp/cc8AT9ge.s:1347   .text:00000000000004d4 .L0 
     /tmp/cc8AT9ge.s:1348   .text:00000000000004d4 .L0 
     /tmp/cc8AT9ge.s:1349   .text:00000000000004d8 .L0 
     /tmp/cc8AT9ge.s:1352   .text:00000000000004e0 .L0 
     /tmp/cc8AT9ge.s:1353   .text:00000000000004e0 .L0 
     /tmp/cc8AT9ge.s:1355   .text:00000000000004e4 .L0 
     /tmp/cc8AT9ge.s:1357   .text:00000000000004e4 .L0 
     /tmp/cc8AT9ge.s:1358   .text:00000000000004e4 .L0 
     /tmp/cc8AT9ge.s:1361   .text:00000000000004ec .L0 
     /tmp/cc8AT9ge.s:1362   .text:00000000000004f0 .L0 
     /tmp/cc8AT9ge.s:1364   .text:00000000000004f4 .L0 
     /tmp/cc8AT9ge.s:1365   .text:00000000000004f4 .L0 
     /tmp/cc8AT9ge.s:1367   .text:00000000000004f8 .L0 
     /tmp/cc8AT9ge.s:1369   .text:00000000000004fc .L0 
     /tmp/cc8AT9ge.s:1375   .text:00000000000004fc _Z15userMainWrapperPv
     /tmp/cc8AT9ge.s:1378   .text:00000000000004fc .L0 
     /tmp/cc8AT9ge.s:1379   .text:00000000000004fc .L0 
     /tmp/cc8AT9ge.s:1380   .text:0000000000000500 .L0 
GAS LISTING /tmp/cc8AT9ge.s 			page 47


     /tmp/cc8AT9ge.s:1383   .text:0000000000000508 .L0 
     /tmp/cc8AT9ge.s:1384   .text:0000000000000508 .L0 
     /tmp/cc8AT9ge.s:1386   .text:000000000000050c .L0 
     /tmp/cc8AT9ge.s:1388   .text:000000000000050c .L0 
     /tmp/cc8AT9ge.s:1389   .text:000000000000050c .L0 
     /tmp/cc8AT9ge.s:1392   .text:0000000000000514 .L0 
     /tmp/cc8AT9ge.s:1393   .text:0000000000000518 .L0 
     /tmp/cc8AT9ge.s:1395   .text:000000000000051c .L0 
     /tmp/cc8AT9ge.s:1396   .text:000000000000051c .L0 
     /tmp/cc8AT9ge.s:1398   .text:0000000000000520 .L0 
     /tmp/cc8AT9ge.s:1400   .text:0000000000000524 .L0 
     /tmp/cc8AT9ge.s:62     .text._ZN9SemaphoreD2Ev:0000000000000038 .L0 
     /tmp/cc8AT9ge.s:129    .text._ZN9SemaphoreD0Ev:0000000000000050 .L0 
     /tmp/cc8AT9ge.s:279    .text._ZN19ConsumerProducerCPP8Consumer3runEv:00000000000000e0 .L0 
     /tmp/cc8AT9ge.s:316    .text._ZN19ConsumerProducerCPP8ConsumerD2Ev:0000000000000034 .L0 
     /tmp/cc8AT9ge.s:363    .text._ZN19ConsumerProducerCPP8ConsumerD0Ev:000000000000004c .L0 
     /tmp/cc8AT9ge.s:400    .text._ZN19ConsumerProducerCPP16ProducerKeyboradD2Ev:0000000000000034 .L0 
     /tmp/cc8AT9ge.s:447    .text._ZN19ConsumerProducerCPP16ProducerKeyboradD0Ev:000000000000004c .L0 
     /tmp/cc8AT9ge.s:484    .text._ZN19ConsumerProducerCPP8ProducerD2Ev:0000000000000034 .L0 
     /tmp/cc8AT9ge.s:531    .text._ZN19ConsumerProducerCPP8ProducerD0Ev:000000000000004c .L0 
     /tmp/cc8AT9ge.s:618    .text._ZN19ConsumerProducerCPP16ProducerKeyborad3runEv:0000000000000088 .L0 
     /tmp/cc8AT9ge.s:720    .text._ZN19ConsumerProducerCPP8Producer3runEv:00000000000000a0 .L0 
     /tmp/cc8AT9ge.s:1512   .text:0000000000000524 .L0 
     /tmp/cc8AT9ge.s:1450   .rodata.str1.8:0000000000000000 .LC0
     /tmp/cc8AT9ge.s:760    .text:0000000000000034 .L0 
     /tmp/cc8AT9ge.s:1453   .rodata.str1.8:0000000000000020 .LC1
     /tmp/cc8AT9ge.s:779    .text:0000000000000064 .L0 
     /tmp/cc8AT9ge.s:1456   .rodata.str1.8:0000000000000040 .LC2
     /tmp/cc8AT9ge.s:797    .text:0000000000000094 .L0 
     /tmp/cc8AT9ge.s:1459   .rodata.str1.8:0000000000000058 .LC3
     /tmp/cc8AT9ge.s:808    .text:00000000000000b4 .L0 
     /tmp/cc8AT9ge.s:1462   .rodata.str1.8:0000000000000070 .LC4
     /tmp/cc8AT9ge.s:819    .text:00000000000000d4 .L0 
     /tmp/cc8AT9ge.s:1471   .rodata.str1.8:00000000000000e8 .LC7
     /tmp/cc8AT9ge.s:828    .text:00000000000000ec .L0 
     /tmp/cc8AT9ge.s:1465   .rodata.str1.8:0000000000000078 .LC5
     /tmp/cc8AT9ge.s:847    .text:000000000000011c .L0 
     /tmp/cc8AT9ge.s:1468   .rodata.str1.8:00000000000000b8 .LC6
     /tmp/cc8AT9ge.s:856    .text:0000000000000130 .L0 
     /tmp/cc8AT9ge.s:1474   .rodata.str1.8:0000000000000118 .LC8
     /tmp/cc8AT9ge.s:873    .text:0000000000000158 .L0 
     /tmp/cc8AT9ge.s:884    .text:0000000000000178 .L0 
     /tmp/cc8AT9ge.s:1477   .rodata.str1.8:0000000000000130 .LC9
     /tmp/cc8AT9ge.s:889    .text:0000000000000188 .L0 
     /tmp/cc8AT9ge.s:903    .text:00000000000001a8 .L0 
     /tmp/cc8AT9ge.s:916    .text:00000000000001c4 .L0 
     /tmp/cc8AT9ge.s:1480   .rodata.str1.8:0000000000000148 .LC10
     /tmp/cc8AT9ge.s:957    .text:0000000000000224 .L0 
     /tmp/cc8AT9ge.s:979    .text:0000000000000248 .L0 
     /tmp/cc8AT9ge.s:1483   .rodata.str1.8:0000000000000178 .LC11
     /tmp/cc8AT9ge.s:992    .text:0000000000000264 .L0 
     /tmp/cc8AT9ge.s:1003   .text:0000000000000284 .L0 
     /tmp/cc8AT9ge.s:1008   .text:0000000000000294 .L0 
     /tmp/cc8AT9ge.s:1042   .text:00000000000002d0 .L0 
     /tmp/cc8AT9ge.s:1073   .text:000000000000030c .L0 
     /tmp/cc8AT9ge.s:1486   .rodata.str1.8:0000000000000190 .LC12
     /tmp/cc8AT9ge.s:1078   .text:000000000000031c .L0 
GAS LISTING /tmp/cc8AT9ge.s 			page 48


     /tmp/cc8AT9ge.s:1097   .text:000000000000033c .L0 
     /tmp/cc8AT9ge.s:1489   .rodata.str1.8:00000000000001c0 .LC13
     /tmp/cc8AT9ge.s:1114   .text:0000000000000364 .L0 
     /tmp/cc8AT9ge.s:1125   .text:0000000000000384 .L0 
     /tmp/cc8AT9ge.s:1492   .rodata.str1.8:00000000000001d8 .LC14
     /tmp/cc8AT9ge.s:1130   .text:0000000000000394 .L0 
     /tmp/cc8AT9ge.s:1163   .text:00000000000003c8 .L0 
     /tmp/cc8AT9ge.s:1184   .text:00000000000003e8 .L0 
     /tmp/cc8AT9ge.s:844    .text:000000000000011c .L52
     /tmp/cc8AT9ge.s:853    .text:0000000000000130 .L53
     /tmp/cc8AT9ge.s:863    .text:0000000000000148 .L54
     /tmp/cc8AT9ge.s:860    .text:0000000000000140 .L34
     /tmp/cc8AT9ge.s:1248   .text:0000000000000468 .L32
     /tmp/cc8AT9ge.s:1143   .text:00000000000003b8 .L36
     /tmp/cc8AT9ge.s:1057   .text:00000000000002f0 .L37
     /tmp/cc8AT9ge.s:1180   .text:00000000000003e8 .L38
     /tmp/cc8AT9ge.s:1157   .text:00000000000003c4 .L39
     /tmp/cc8AT9ge.s:1193   .text:0000000000000404 .L40
     /tmp/cc8AT9ge.s:1206   .text:0000000000000410 .L43
     /tmp/cc8AT9ge.s:1222   .text:0000000000000434 .L41
     /tmp/cc8AT9ge.s:1200   .text:000000000000040c .L42
     /tmp/cc8AT9ge.s:1233   .text:0000000000000448 .L44
     /tmp/cc8AT9ge.s:1245   .text:0000000000000464 .L45
     /tmp/cc8AT9ge.s:31     .text._ZN9SemaphoreD2Ev:0000000000000010 .L0 
     /tmp/cc8AT9ge.s:88     .text._ZN9SemaphoreD0Ev:0000000000000018 .L0 
     /tmp/cc8AT9ge.s:100    .text._ZN9SemaphoreD0Ev:0000000000000034 .LEHB0
     /tmp/cc8AT9ge.s:67     .text._ZN9SemaphoreD0Ev:0000000000000000 .LFB13
     /tmp/cc8AT9ge.s:103    .text._ZN9SemaphoreD0Ev:000000000000003c .LEHE0
     /tmp/cc8AT9ge.s:176    .text._ZN19ConsumerProducerCPP8Consumer3runEv:0000000000000034 .L0 
     /tmp/cc8AT9ge.s:170    .text._ZN19ConsumerProducerCPP8Consumer3runEv:0000000000000034 .L6
     /tmp/cc8AT9ge.s:212    .text._ZN19ConsumerProducerCPP8Consumer3runEv:000000000000007c .L7
     /tmp/cc8AT9ge.s:160    .text._ZN19ConsumerProducerCPP8Consumer3runEv:0000000000000028 .L11
     /tmp/cc8AT9ge.s:241    .text._ZN19ConsumerProducerCPP8Consumer3runEv:00000000000000b0 .L9
     /tmp/cc8AT9ge.s:298    .text._ZN19ConsumerProducerCPP8ConsumerD2Ev:0000000000000010 .L0 
     /tmp/cc8AT9ge.s:340    .text._ZN19ConsumerProducerCPP8ConsumerD0Ev:0000000000000018 .L0 
     /tmp/cc8AT9ge.s:382    .text._ZN19ConsumerProducerCPP16ProducerKeyboradD2Ev:0000000000000010 .L0 
     /tmp/cc8AT9ge.s:424    .text._ZN19ConsumerProducerCPP16ProducerKeyboradD0Ev:0000000000000018 .L0 
     /tmp/cc8AT9ge.s:466    .text._ZN19ConsumerProducerCPP8ProducerD2Ev:0000000000000010 .L0 
     /tmp/cc8AT9ge.s:508    .text._ZN19ConsumerProducerCPP8ProducerD0Ev:0000000000000018 .L0 
     /tmp/cc8AT9ge.s:579    .text._ZN19ConsumerProducerCPP16ProducerKeyborad3runEv:0000000000000044 .L0 
     /tmp/cc8AT9ge.s:575    .text._ZN19ConsumerProducerCPP16ProducerKeyborad3runEv:0000000000000040 .L25
     /tmp/cc8AT9ge.s:554    .text._ZN19ConsumerProducerCPP16ProducerKeyborad3runEv:0000000000000018 .L26
     /tmp/cc8AT9ge.s:648    .text._ZN19ConsumerProducerCPP8Producer3runEv:0000000000000020 .L0 
     /tmp/cc8AT9ge.s:685    .text._ZN19ConsumerProducerCPP8Producer3runEv:0000000000000074 .L29
     /tmp/cc8AT9ge.s:645    .text._ZN19ConsumerProducerCPP8Producer3runEv:0000000000000020 .L30
     /tmp/cc8AT9ge.s:761    .text:000000000000003c .LEHB1
     /tmp/cc8AT9ge.s:725    .text:0000000000000000 .LFB31
     /tmp/cc8AT9ge.s:836    .text:0000000000000108 .LEHE1
     /tmp/cc8AT9ge.s:839    .text:0000000000000110 .LEHB2
     /tmp/cc8AT9ge.s:842    .text:0000000000000118 .LEHE2
     /tmp/cc8AT9ge.s:1278   .text:000000000000049c .L49
     /tmp/cc8AT9ge.s:848    .text:0000000000000124 .LEHB3
     /tmp/cc8AT9ge.s:897    .text:00000000000001a4 .LEHE3
     /tmp/cc8AT9ge.s:909    .text:00000000000001bc .LEHB4
     /tmp/cc8AT9ge.s:912    .text:00000000000001c4 .LEHE4
     /tmp/cc8AT9ge.s:1291   .text:00000000000004b8 .L50
     /tmp/cc8AT9ge.s:958    .text:000000000000022c .LEHB5
GAS LISTING /tmp/cc8AT9ge.s 			page 49


     /tmp/cc8AT9ge.s:1244   .text:0000000000000464 .LEHE5
     /tmp/cc8AT9ge.s:1287   .text:00000000000004b0 .LEHB6
     /tmp/cc8AT9ge.s:1290   .text:00000000000004b8 .LEHE6
     /tmp/cc8AT9ge.s:1298   .text:00000000000004cc .LEHB7
     /tmp/cc8AT9ge.s:1301   .text:00000000000004d4 .LEHE7
     /tmp/cc8AT9ge.s:4018   .debug_abbrev:0000000000000000 .Ldebug_abbrev0
     /tmp/cc8AT9ge.s:5951   .debug_str:0000000000000515 .LASF122
     /tmp/cc8AT9ge.s:5889   .debug_str:00000000000002ec .LASF123
     /tmp/cc8AT9ge.s:6063   .debug_str:0000000000000a6f .LASF124
     /tmp/cc8AT9ge.s:5767   .debug_ranges:0000000000000000 .Ldebug_ranges0
     /tmp/cc8AT9ge.s:5807   .debug_line:0000000000000000 .Ldebug_line0
     /tmp/cc8AT9ge.s:5959   .debug_str:0000000000000603 .LASF0
     /tmp/cc8AT9ge.s:5981   .debug_str:00000000000006da .LASF1
     /tmp/cc8AT9ge.s:5947   .debug_str:00000000000004d0 .LASF2
     /tmp/cc8AT9ge.s:5917   .debug_str:00000000000003f6 .LASF4
     /tmp/cc8AT9ge.s:6025   .debug_str:000000000000089e .LASF3
     /tmp/cc8AT9ge.s:5833   .debug_str:00000000000000d2 .LASF5
     /tmp/cc8AT9ge.s:5871   .debug_str:0000000000000271 .LASF6
     /tmp/cc8AT9ge.s:5987   .debug_str:0000000000000726 .LASF7
     /tmp/cc8AT9ge.s:5957   .debug_str:00000000000005f0 .LASF8
     /tmp/cc8AT9ge.s:6057   .debug_str:0000000000000a3d .LASF9
     /tmp/cc8AT9ge.s:5901   .debug_str:000000000000037e .LASF10
     /tmp/cc8AT9ge.s:6001   .debug_str:000000000000076a .LASF11
     /tmp/cc8AT9ge.s:6043   .debug_str:0000000000000998 .LASF12
     /tmp/cc8AT9ge.s:5837   .debug_str:00000000000000ed .LASF13
     /tmp/cc8AT9ge.s:5815   .debug_str:0000000000000058 .LASF14
     /tmp/cc8AT9ge.s:5851   .debug_str:0000000000000174 .LASF15
     /tmp/cc8AT9ge.s:6021   .debug_str:000000000000085e .LASF16
     /tmp/cc8AT9ge.s:5865   .debug_str:0000000000000247 .LASF17
     /tmp/cc8AT9ge.s:5881   .debug_str:00000000000002c7 .LASF18
     /tmp/cc8AT9ge.s:5933   .debug_str:000000000000046a .LASF19
     /tmp/cc8AT9ge.s:6031   .debug_str:00000000000008cf .LASF21
     /tmp/cc8AT9ge.s:5821   .debug_str:0000000000000073 .LASF23
     /tmp/cc8AT9ge.s:5911   .debug_str:00000000000003d0 .LASF20
     /tmp/cc8AT9ge.s:5817   .debug_str:0000000000000068 .LASF120
     /tmp/cc8AT9ge.s:5845   .debug_str:0000000000000146 .LASF125
     /tmp/cc8AT9ge.s:5953   .debug_str:00000000000005d9 .LASF22
     /tmp/cc8AT9ge.s:5983   .debug_str:00000000000006ed .LASF24
     /tmp/cc8AT9ge.s:5991   .debug_str:0000000000000744 .LASF25
     /tmp/cc8AT9ge.s:6017   .debug_str:000000000000084d .LASF26
     /tmp/cc8AT9ge.s:6019   .debug_str:0000000000000857 .LASF27
     /tmp/cc8AT9ge.s:5867   .debug_str:000000000000025d .LASF28
     /tmp/cc8AT9ge.s:5943   .debug_str:00000000000004a1 .LASF29
     /tmp/cc8AT9ge.s:5879   .debug_str:00000000000002b8 .LASF30
     /tmp/cc8AT9ge.s:5905   .debug_str:000000000000039f .LASF31
     /tmp/cc8AT9ge.s:5939   .debug_str:0000000000000486 .LASF32
     /tmp/cc8AT9ge.s:5967   .debug_str:000000000000068c .LASF33
     /tmp/cc8AT9ge.s:5969   .debug_str:0000000000000696 .LASF35
     /tmp/cc8AT9ge.s:5935   .debug_str:0000000000000475 .LASF34
     /tmp/cc8AT9ge.s:6061   .debug_str:0000000000000a5d .LASF36
     /tmp/cc8AT9ge.s:5907   .debug_str:00000000000003ad .LASF126
     /tmp/cc8AT9ge.s:5835   .debug_str:00000000000000d9 .LASF127
     /tmp/cc8AT9ge.s:5827   .debug_str:00000000000000a4 .LASF37
     /tmp/cc8AT9ge.s:5829   .debug_str:00000000000000ab .LASF38
     /tmp/cc8AT9ge.s:5809   .debug_str:0000000000000000 .LASF39
     /tmp/cc8AT9ge.s:6079   .debug_str:0000000000000b1d .LASF51
     /tmp/cc8AT9ge.s:5831   .debug_str:00000000000000c2 .LASF128
GAS LISTING /tmp/cc8AT9ge.s 			page 50


     /tmp/cc8AT9ge.s:6045   .debug_str:00000000000009a7 .LASF40
     /tmp/cc8AT9ge.s:5923   .debug_str:000000000000042d .LASF129
     /tmp/cc8AT9ge.s:5847   .debug_str:0000000000000159 .LASF130
     /tmp/cc8AT9ge.s:5885   .debug_str:00000000000002d6 .LASF41
     /tmp/cc8AT9ge.s:6013   .debug_str:0000000000000821 .LASF42
     /tmp/cc8AT9ge.s:5993   .debug_str:0000000000000749 .LASF43
     /tmp/cc8AT9ge.s:6015   .debug_str:0000000000000836 .LASF44
     /tmp/cc8AT9ge.s:6085   .debug_str:0000000000000b68 .LASF45
     /tmp/cc8AT9ge.s:6035   .debug_str:0000000000000908 .LASF131
     /tmp/cc8AT9ge.s:5893   .debug_str:0000000000000342 .LASF46
     /tmp/cc8AT9ge.s:5861   .debug_str:00000000000001ea .LASF48
     /tmp/cc8AT9ge.s:5897   .debug_str:0000000000000363 .LASF132
     /tmp/cc8AT9ge.s:5921   .debug_str:0000000000000423 .LASF47
     /tmp/cc8AT9ge.s:5961   .debug_str:0000000000000610 .LASF49
     /tmp/cc8AT9ge.s:5839   .debug_str:00000000000000fd .LASF50
     /tmp/cc8AT9ge.s:6033   .debug_str:00000000000008df .LASF52
     /tmp/cc8AT9ge.s:5945   .debug_str:00000000000004a6 .LASF53
     /tmp/cc8AT9ge.s:5949   .debug_str:00000000000004de .LASF54
     /tmp/cc8AT9ge.s:5859   .debug_str:00000000000001c2 .LASF59
     /tmp/cc8AT9ge.s:5971   .debug_str:00000000000006a8 .LASF61
     /tmp/cc8AT9ge.s:5985   .debug_str:0000000000000700 .LASF63
     /tmp/cc8AT9ge.s:5977   .debug_str:00000000000006cb .LASF55
     /tmp/cc8AT9ge.s:5965   .debug_str:0000000000000663 .LASF56
     /tmp/cc8AT9ge.s:6023   .debug_str:0000000000000874 .LASF57
     /tmp/cc8AT9ge.s:5863   .debug_str:0000000000000210 .LASF58
     /tmp/cc8AT9ge.s:5813   .debug_str:0000000000000030 .LASF60
     /tmp/cc8AT9ge.s:5823   .debug_str:0000000000000088 .LASF62
     /tmp/cc8AT9ge.s:5875   .debug_str:0000000000000288 .LASF64
     /tmp/cc8AT9ge.s:5941   .debug_str:0000000000000490 .LASF65
     /tmp/cc8AT9ge.s:6005   .debug_str:00000000000007ac .LASF66
     /tmp/cc8AT9ge.s:6003   .debug_str:0000000000000779 .LASF67
     /tmp/cc8AT9ge.s:6037   .debug_str:000000000000091c .LASF68
     /tmp/cc8AT9ge.s:6053   .debug_str:0000000000000a01 .LASF69
     /tmp/cc8AT9ge.s:5955   .debug_str:00000000000005de .LASF70
     /tmp/cc8AT9ge.s:5963   .debug_str:0000000000000634 .LASF71
     /tmp/cc8AT9ge.s:6027   .debug_str:00000000000008b0 .LASF133
     /tmp/cc8AT9ge.s:6049   .debug_str:00000000000009c9 .LASF134
     /tmp/cc8AT9ge.s:6051   .debug_str:00000000000009fa .LASF73
     /tmp/cc8AT9ge.s:5887   .debug_str:00000000000002db .LASF72
     /tmp/cc8AT9ge.s:5899   .debug_str:000000000000036f .LASF74
     /tmp/cc8AT9ge.s:5973   .debug_str:00000000000006b2 .LASF75
     /tmp/cc8AT9ge.s:5903   .debug_str:000000000000038c .LASF135
     /tmp/cc8AT9ge.s:6075   .debug_str:0000000000000b01 .LASF136
     /tmp/cc8AT9ge.s:5895   .debug_str:000000000000034d .LASF137
     /tmp/cc8AT9ge.s:6069   .debug_str:0000000000000ab5 .LASF102
     /tmp/cc8AT9ge.s:5979   .debug_str:00000000000006d4 .LASF104
     /tmp/cc8AT9ge.s:6059   .debug_str:0000000000000a4d .LASF138
     /tmp/cc8AT9ge.s:6007   .debug_str:00000000000007de .LASF76
     /tmp/cc8AT9ge.s:6029   .debug_str:00000000000008c5 .LASF77
     /tmp/cc8AT9ge.s:5855   .debug_str:0000000000000189 .LASF78
     /tmp/cc8AT9ge.s:405    .text._ZN19ConsumerProducerCPP16ProducerKeyboradD0Ev:0000000000000000 .LFB45
     /tmp/cc8AT9ge.s:445    .text._ZN19ConsumerProducerCPP16ProducerKeyboradD0Ev:000000000000004c .LFE45
     /tmp/cc8AT9ge.s:5181   .debug_loc:0000000000000000 .LLST15
     /tmp/cc8AT9ge.s:421    .text._ZN19ConsumerProducerCPP16ProducerKeyboradD0Ev:0000000000000018 .LBB88
     /tmp/cc8AT9ge.s:429    .text._ZN19ConsumerProducerCPP16ProducerKeyboradD0Ev:000000000000002c .LBE88
     /tmp/cc8AT9ge.s:5199   .debug_loc:000000000000004c .LLST16
     /tmp/cc8AT9ge.s:427    .text._ZN19ConsumerProducerCPP16ProducerKeyboradD0Ev:000000000000002c .LVL37
GAS LISTING /tmp/cc8AT9ge.s 			page 51


     /tmp/cc8AT9ge.s:432    .text._ZN19ConsumerProducerCPP16ProducerKeyboradD0Ev:0000000000000038 .LVL38
     /tmp/cc8AT9ge.s:6073   .debug_str:0000000000000ad2 .LASF79
     /tmp/cc8AT9ge.s:368    .text._ZN19ConsumerProducerCPP16ProducerKeyboradD2Ev:0000000000000000 .LFB43
     /tmp/cc8AT9ge.s:396    .text._ZN19ConsumerProducerCPP16ProducerKeyboradD2Ev:0000000000000034 .LFE43
     /tmp/cc8AT9ge.s:5210   .debug_loc:0000000000000082 .LLST14
     /tmp/cc8AT9ge.s:385    .text._ZN19ConsumerProducerCPP16ProducerKeyboradD2Ev:0000000000000024 .LVL34
     /tmp/cc8AT9ge.s:6009   .debug_str:00000000000007e3 .LASF80
     /tmp/cc8AT9ge.s:489    .text._ZN19ConsumerProducerCPP8ProducerD0Ev:0000000000000000 .LFB41
     /tmp/cc8AT9ge.s:529    .text._ZN19ConsumerProducerCPP8ProducerD0Ev:000000000000004c .LFE41
     /tmp/cc8AT9ge.s:5224   .debug_loc:00000000000000bb .LLST18
     /tmp/cc8AT9ge.s:505    .text._ZN19ConsumerProducerCPP8ProducerD0Ev:0000000000000018 .LBB91
     /tmp/cc8AT9ge.s:513    .text._ZN19ConsumerProducerCPP8ProducerD0Ev:000000000000002c .LBE91
     /tmp/cc8AT9ge.s:5242   .debug_loc:0000000000000107 .LLST19
     /tmp/cc8AT9ge.s:511    .text._ZN19ConsumerProducerCPP8ProducerD0Ev:000000000000002c .LVL44
     /tmp/cc8AT9ge.s:516    .text._ZN19ConsumerProducerCPP8ProducerD0Ev:0000000000000038 .LVL45
     /tmp/cc8AT9ge.s:5811   .debug_str:000000000000000a .LASF81
     /tmp/cc8AT9ge.s:452    .text._ZN19ConsumerProducerCPP8ProducerD2Ev:0000000000000000 .LFB39
     /tmp/cc8AT9ge.s:480    .text._ZN19ConsumerProducerCPP8ProducerD2Ev:0000000000000034 .LFE39
     /tmp/cc8AT9ge.s:5253   .debug_loc:000000000000013d .LLST17
     /tmp/cc8AT9ge.s:469    .text._ZN19ConsumerProducerCPP8ProducerD2Ev:0000000000000024 .LVL41
     /tmp/cc8AT9ge.s:6083   .debug_str:0000000000000b42 .LASF82
     /tmp/cc8AT9ge.s:321    .text._ZN19ConsumerProducerCPP8ConsumerD0Ev:0000000000000000 .LFB37
     /tmp/cc8AT9ge.s:361    .text._ZN19ConsumerProducerCPP8ConsumerD0Ev:000000000000004c .LFE37
     /tmp/cc8AT9ge.s:5267   .debug_loc:0000000000000176 .LLST12
     /tmp/cc8AT9ge.s:337    .text._ZN19ConsumerProducerCPP8ConsumerD0Ev:0000000000000018 .LBB85
     /tmp/cc8AT9ge.s:345    .text._ZN19ConsumerProducerCPP8ConsumerD0Ev:000000000000002c .LBE85
     /tmp/cc8AT9ge.s:5285   .debug_loc:00000000000001c2 .LLST13
     /tmp/cc8AT9ge.s:343    .text._ZN19ConsumerProducerCPP8ConsumerD0Ev:000000000000002c .LVL30
     /tmp/cc8AT9ge.s:348    .text._ZN19ConsumerProducerCPP8ConsumerD0Ev:0000000000000038 .LVL31
     /tmp/cc8AT9ge.s:5919   .debug_str:00000000000003fd .LASF83
     /tmp/cc8AT9ge.s:284    .text._ZN19ConsumerProducerCPP8ConsumerD2Ev:0000000000000000 .LFB35
     /tmp/cc8AT9ge.s:312    .text._ZN19ConsumerProducerCPP8ConsumerD2Ev:0000000000000034 .LFE35
     /tmp/cc8AT9ge.s:5296   .debug_loc:00000000000001f8 .LLST11
     /tmp/cc8AT9ge.s:301    .text._ZN19ConsumerProducerCPP8ConsumerD2Ev:0000000000000024 .LVL27
     /tmp/cc8AT9ge.s:5873   .debug_str:0000000000000278 .LASF84
     /tmp/cc8AT9ge.s:6065   .debug_str:0000000000000a92 .LASF86
     /tmp/cc8AT9ge.s:1376   .text:00000000000004fc .LFB33
     /tmp/cc8AT9ge.s:1401   .text:0000000000000524 .LFE33
     /tmp/cc8AT9ge.s:1390   .text:0000000000000514 .LVL155
     /tmp/cc8AT9ge.s:5999   .debug_str:0000000000000761 .LASF85
     /tmp/cc8AT9ge.s:5931   .debug_str:000000000000045d .LASF87
     /tmp/cc8AT9ge.s:1344   .text:00000000000004d4 .LFB32
     /tmp/cc8AT9ge.s:1370   .text:00000000000004fc .LFE32
     /tmp/cc8AT9ge.s:1359   .text:00000000000004ec .LVL154
     /tmp/cc8AT9ge.s:1303   .text:00000000000004d4 .LFE31
     /tmp/cc8AT9ge.s:5819   .debug_str:000000000000006d .LASF88
     /tmp/cc8AT9ge.s:5310   .debug_loc:0000000000000231 .LLST29
     /tmp/cc8AT9ge.s:5877   .debug_str:00000000000002ae .LASF89
     /tmp/cc8AT9ge.s:5321   .debug_loc:0000000000000267 .LLST30
     /tmp/cc8AT9ge.s:5332   .debug_loc:000000000000029d .LLST31
     /tmp/cc8AT9ge.s:6071   .debug_str:0000000000000ac8 .LASF90
     /tmp/cc8AT9ge.s:5343   .debug_loc:00000000000002d3 .LLST32
     /tmp/cc8AT9ge.s:5989   .debug_str:0000000000000739 .LASF91
     /tmp/cc8AT9ge.s:5356   .debug_loc:000000000000030b .LLST33
     /tmp/cc8AT9ge.s:5841   .debug_str:0000000000000106 .LASF92
     /tmp/cc8AT9ge.s:5364   .debug_loc:000000000000032f .LLST34
     /tmp/cc8AT9ge.s:1054   .text:00000000000002ec .LBB109
GAS LISTING /tmp/cc8AT9ge.s 			page 52


     /tmp/cc8AT9ge.s:1144   .text:00000000000003b8 .LBE109
     /tmp/cc8AT9ge.s:5375   .debug_loc:0000000000000365 .LLST43
     /tmp/cc8AT9ge.s:1086   .text:0000000000000338 .LBB110
     /tmp/cc8AT9ge.s:1102   .text:000000000000034c .LBE110
     /tmp/cc8AT9ge.s:5386   .debug_loc:000000000000039b .LLST44
     /tmp/cc8AT9ge.s:5393   .debug_loc:00000000000003be .LLST45
     /tmp/cc8AT9ge.s:1088   .text:0000000000000338 .LBB112
     /tmp/cc8AT9ge.s:1095   .text:000000000000033c .LBE112
     /tmp/cc8AT9ge.s:5400   .debug_loc:00000000000003e1 .LLST46
     /tmp/cc8AT9ge.s:1080   .text:000000000000032c .LVL120
     /tmp/cc8AT9ge.s:1085   .text:0000000000000338 .LVL121
     /tmp/cc8AT9ge.s:1111   .text:0000000000000364 .LVL124
     /tmp/cc8AT9ge.s:1116   .text:0000000000000374 .LVL125
     /tmp/cc8AT9ge.s:1122   .text:0000000000000384 .LVL126
     /tmp/cc8AT9ge.s:1127   .text:0000000000000394 .LVL127
     /tmp/cc8AT9ge.s:1132   .text:00000000000003a4 .LVL128
     /tmp/cc8AT9ge.s:1137   .text:00000000000003b0 .LVL129
     /tmp/cc8AT9ge.s:5407   .debug_loc:0000000000000404 .LLST47
     /tmp/cc8AT9ge.s:1166   .text:00000000000003d4 .LBB117
     /tmp/cc8AT9ge.s:1174   .text:00000000000003e0 .LBE117
     /tmp/cc8AT9ge.s:5418   .debug_loc:000000000000043a .LLST48
     /tmp/cc8AT9ge.s:1172   .text:00000000000003e0 .LVL135
     /tmp/cc8AT9ge.s:1202   .text:000000000000040c .LBB120
     /tmp/cc8AT9ge.s:1223   .text:0000000000000434 .LBE120
     /tmp/cc8AT9ge.s:5425   .debug_loc:000000000000045d .LLST49
     /tmp/cc8AT9ge.s:900    .text:00000000000001a8 .LBB99
     /tmp/cc8AT9ge.s:914    .text:00000000000001c4 .LBE99
     /tmp/cc8AT9ge.s:5432   .debug_loc:0000000000000480 .LLST35
     /tmp/cc8AT9ge.s:5445   .debug_loc:00000000000004b8 .LLST36
     /tmp/cc8AT9ge.s:911    .text:00000000000001c4 .LVL98
     /tmp/cc8AT9ge.s:968    .text:0000000000000244 .LBB101
     /tmp/cc8AT9ge.s:984    .text:0000000000000258 .LBE101
     /tmp/cc8AT9ge.s:5456   .debug_loc:00000000000004ee .LLST37
     /tmp/cc8AT9ge.s:5463   .debug_loc:0000000000000511 .LLST38
     /tmp/cc8AT9ge.s:970    .text:0000000000000244 .LBB103
     /tmp/cc8AT9ge.s:977    .text:0000000000000248 .LBE103
     /tmp/cc8AT9ge.s:5470   .debug_loc:0000000000000534 .LLST39
     /tmp/cc8AT9ge.s:1031   .text:00000000000002cc .LBB105
     /tmp/cc8AT9ge.s:1047   .text:00000000000002e0 .LBE105
     /tmp/cc8AT9ge.s:5477   .debug_loc:0000000000000557 .LLST40
     /tmp/cc8AT9ge.s:5484   .debug_loc:000000000000057a .LLST41
     /tmp/cc8AT9ge.s:1033   .text:00000000000002cc .LBB107
     /tmp/cc8AT9ge.s:1040   .text:00000000000002d0 .LBE107
     /tmp/cc8AT9ge.s:5491   .debug_loc:000000000000059d .LLST42
     /tmp/cc8AT9ge.s:1146   .text:00000000000003b8 .LBB114
     /tmp/cc8AT9ge.s:1153   .text:00000000000003c0 .LBE114
     /tmp/cc8AT9ge.s:1151   .text:00000000000003c0 .LVL132
     /tmp/cc8AT9ge.s:763    .text:0000000000000044 .LVL72
     /tmp/cc8AT9ge.s:769    .text:0000000000000054 .LVL73
     /tmp/cc8AT9ge.s:774    .text:0000000000000060 .LVL74
     /tmp/cc8AT9ge.s:781    .text:0000000000000074 .LVL76
     /tmp/cc8AT9ge.s:787    .text:0000000000000084 .LVL77
     /tmp/cc8AT9ge.s:792    .text:0000000000000090 .LVL78
     /tmp/cc8AT9ge.s:799    .text:00000000000000a4 .LVL80
     /tmp/cc8AT9ge.s:805    .text:00000000000000b4 .LVL81
     /tmp/cc8AT9ge.s:810    .text:00000000000000c4 .LVL82
     /tmp/cc8AT9ge.s:816    .text:00000000000000d4 .LVL83
GAS LISTING /tmp/cc8AT9ge.s 			page 53


     /tmp/cc8AT9ge.s:821    .text:00000000000000e4 .LVL84
     /tmp/cc8AT9ge.s:830    .text:00000000000000fc .LVL85
     /tmp/cc8AT9ge.s:835    .text:0000000000000108 .LVL86
     /tmp/cc8AT9ge.s:841    .text:0000000000000118 .LVL87
     /tmp/cc8AT9ge.s:850    .text:000000000000012c .LVL88
     /tmp/cc8AT9ge.s:858    .text:0000000000000140 .LVL89
     /tmp/cc8AT9ge.s:870    .text:0000000000000158 .LVL91
     /tmp/cc8AT9ge.s:875    .text:0000000000000168 .LVL92
     /tmp/cc8AT9ge.s:881    .text:0000000000000178 .LVL93
     /tmp/cc8AT9ge.s:886    .text:0000000000000188 .LVL94
     /tmp/cc8AT9ge.s:891    .text:0000000000000198 .LVL95
     /tmp/cc8AT9ge.s:896    .text:00000000000001a4 .LVL96
     /tmp/cc8AT9ge.s:960    .text:0000000000000234 .LVL104
     /tmp/cc8AT9ge.s:965    .text:0000000000000240 .LVL105
     /tmp/cc8AT9ge.s:989    .text:0000000000000264 .LVL109
     /tmp/cc8AT9ge.s:994    .text:0000000000000274 .LVL110
     /tmp/cc8AT9ge.s:1000   .text:0000000000000284 .LVL111
     /tmp/cc8AT9ge.s:1005   .text:0000000000000294 .LVL112
     /tmp/cc8AT9ge.s:1010   .text:00000000000002a4 .LVL113
     /tmp/cc8AT9ge.s:1015   .text:00000000000002b0 .LVL114
     /tmp/cc8AT9ge.s:1030   .text:00000000000002cc .LVL115
     /tmp/cc8AT9ge.s:1053   .text:00000000000002ec .LVL118
     /tmp/cc8AT9ge.s:1232   .text:0000000000000448 .LVL143
     /tmp/cc8AT9ge.s:1240   .text:0000000000000458 .LVL144
     /tmp/cc8AT9ge.s:1243   .text:0000000000000464 .LVL145
     /tmp/cc8AT9ge.s:1285   .text:00000000000004ac .LVL150
     /tmp/cc8AT9ge.s:1289   .text:00000000000004b8 .LVL151
     /tmp/cc8AT9ge.s:1296   .text:00000000000004c8 .LVL152
     /tmp/cc8AT9ge.s:1300   .text:00000000000004d4 .LVL153
     /tmp/cc8AT9ge.s:134    .text._ZN19ConsumerProducerCPP8Consumer3runEv:0000000000000000 .LFB30
     /tmp/cc8AT9ge.s:277    .text._ZN19ConsumerProducerCPP8Consumer3runEv:00000000000000e0 .LFE30
     /tmp/cc8AT9ge.s:5498   .debug_loc:00000000000005c0 .LLST3
     /tmp/cc8AT9ge.s:5516   .debug_loc:000000000000060c .LLST4
     /tmp/cc8AT9ge.s:5536   .debug_loc:0000000000000669 .LLST5
     /tmp/cc8AT9ge.s:163    .text._ZN19ConsumerProducerCPP8Consumer3runEv:0000000000000028 .LBB74
     /tmp/cc8AT9ge.s:172    .text._ZN19ConsumerProducerCPP8Consumer3runEv:0000000000000034 .LBE74
     /tmp/cc8AT9ge.s:5543   .debug_loc:000000000000068c .LLST6
     /tmp/cc8AT9ge.s:169    .text._ZN19ConsumerProducerCPP8Consumer3runEv:0000000000000034 .LVL12
     /tmp/cc8AT9ge.s:194    .text._ZN19ConsumerProducerCPP8Consumer3runEv:0000000000000060 .LBB76
     /tmp/cc8AT9ge.s:203    .text._ZN19ConsumerProducerCPP8Consumer3runEv:000000000000006c .LBE76
     /tmp/cc8AT9ge.s:5551   .debug_loc:00000000000006b0 .LLST7
     /tmp/cc8AT9ge.s:201    .text._ZN19ConsumerProducerCPP8Consumer3runEv:000000000000006c .LVL16
     /tmp/cc8AT9ge.s:187    .text._ZN19ConsumerProducerCPP8Consumer3runEv:0000000000000058 .LVL13
     /tmp/cc8AT9ge.s:223    .text._ZN19ConsumerProducerCPP8Consumer3runEv:0000000000000090 .LBB79
     /tmp/cc8AT9ge.s:244    .text._ZN19ConsumerProducerCPP8Consumer3runEv:00000000000000b0 .LBE79
     /tmp/cc8AT9ge.s:5558   .debug_loc:00000000000006d3 .LLST8
     /tmp/cc8AT9ge.s:232    .text._ZN19ConsumerProducerCPP8Consumer3runEv:00000000000000a0 .LBB80
     /tmp/cc8AT9ge.s:243    .text._ZN19ConsumerProducerCPP8Consumer3runEv:00000000000000b0 .LBE80
     /tmp/cc8AT9ge.s:5565   .debug_loc:00000000000006f6 .LLST9
     /tmp/cc8AT9ge.s:239    .text._ZN19ConsumerProducerCPP8Consumer3runEv:00000000000000ac .LVL21
     /tmp/cc8AT9ge.s:230    .text._ZN19ConsumerProducerCPP8Consumer3runEv:00000000000000a0 .LVL19
     /tmp/cc8AT9ge.s:250    .text._ZN19ConsumerProducerCPP8Consumer3runEv:00000000000000b8 .LBB82
     /tmp/cc8AT9ge.s:258    .text._ZN19ConsumerProducerCPP8Consumer3runEv:00000000000000c4 .LBE82
     /tmp/cc8AT9ge.s:5572   .debug_loc:0000000000000719 .LLST10
     /tmp/cc8AT9ge.s:256    .text._ZN19ConsumerProducerCPP8Consumer3runEv:00000000000000c4 .LVL23
     /tmp/cc8AT9ge.s:220    .text._ZN19ConsumerProducerCPP8Consumer3runEv:000000000000008c .LVL18
     /tmp/cc8AT9ge.s:5843   .debug_str:000000000000010f .LASF93
GAS LISTING /tmp/cc8AT9ge.s 			page 54


     /tmp/cc8AT9ge.s:623    .text._ZN19ConsumerProducerCPP8Producer3runEv:0000000000000000 .LFB26
     /tmp/cc8AT9ge.s:718    .text._ZN19ConsumerProducerCPP8Producer3runEv:00000000000000a0 .LFE26
     /tmp/cc8AT9ge.s:5579   .debug_loc:000000000000073c .LLST23
     /tmp/cc8AT9ge.s:5597   .debug_loc:0000000000000788 .LLST24
     /tmp/cc8AT9ge.s:674    .text._ZN19ConsumerProducerCPP8Producer3runEv:0000000000000060 .LBB95
     /tmp/cc8AT9ge.s:687    .text._ZN19ConsumerProducerCPP8Producer3runEv:0000000000000074 .LBE95
     /tmp/cc8AT9ge.s:5617   .debug_loc:00000000000007e5 .LLST25
     /tmp/cc8AT9ge.s:683    .text._ZN19ConsumerProducerCPP8Producer3runEv:0000000000000070 .LVL67
     /tmp/cc8AT9ge.s:693    .text._ZN19ConsumerProducerCPP8Producer3runEv:000000000000007c .LBB97
     /tmp/cc8AT9ge.s:701    .text._ZN19ConsumerProducerCPP8Producer3runEv:0000000000000088 .LBE97
     /tmp/cc8AT9ge.s:5642   .debug_loc:0000000000000829 .LLST26
     /tmp/cc8AT9ge.s:699    .text._ZN19ConsumerProducerCPP8Producer3runEv:0000000000000088 .LVL69
     /tmp/cc8AT9ge.s:660    .text._ZN19ConsumerProducerCPP8Producer3runEv:000000000000004c .LVL62
     /tmp/cc8AT9ge.s:6041   .debug_str:0000000000000961 .LASF94
     /tmp/cc8AT9ge.s:536    .text._ZN19ConsumerProducerCPP16ProducerKeyborad3runEv:0000000000000000 .LFB22
     /tmp/cc8AT9ge.s:616    .text._ZN19ConsumerProducerCPP16ProducerKeyborad3runEv:0000000000000088 .LFE22
     /tmp/cc8AT9ge.s:5649   .debug_loc:000000000000084c .LLST20
     /tmp/cc8AT9ge.s:5667   .debug_loc:0000000000000898 .LLST21
     /tmp/cc8AT9ge.s:594    .text._ZN19ConsumerProducerCPP16ProducerKeyborad3runEv:0000000000000068 .LBB93
     /tmp/cc8AT9ge.s:602    .text._ZN19ConsumerProducerCPP16ProducerKeyborad3runEv:0000000000000074 .LBE93
     /tmp/cc8AT9ge.s:5682   .debug_loc:00000000000008e1 .LLST22
     /tmp/cc8AT9ge.s:600    .text._ZN19ConsumerProducerCPP16ProducerKeyborad3runEv:0000000000000074 .LVL57
     /tmp/cc8AT9ge.s:558    .text._ZN19ConsumerProducerCPP16ProducerKeyborad3runEv:0000000000000020 .LVL49
     /tmp/cc8AT9ge.s:570    .text._ZN19ConsumerProducerCPP16ProducerKeyborad3runEv:000000000000003c .LVL51
     /tmp/cc8AT9ge.s:588    .text._ZN19ConsumerProducerCPP16ProducerKeyborad3runEv:0000000000000060 .LVL55
     /tmp/cc8AT9ge.s:5891   .debug_str:0000000000000302 .LASF95
     /tmp/cc8AT9ge.s:6089   .debug_str:0000000000000b76 .LASF96
     /tmp/cc8AT9ge.s:116    .text._ZN9SemaphoreD0Ev:0000000000000050 .LFE13
     /tmp/cc8AT9ge.s:5689   .debug_loc:0000000000000904 .LLST1
     /tmp/cc8AT9ge.s:85     .text._ZN9SemaphoreD0Ev:0000000000000018 .LBB71
     /tmp/cc8AT9ge.s:97     .text._ZN9SemaphoreD0Ev:0000000000000030 .LBE71
     /tmp/cc8AT9ge.s:5707   .debug_loc:0000000000000950 .LLST2
     /tmp/cc8AT9ge.s:95     .text._ZN9SemaphoreD0Ev:0000000000000030 .LVL6
     /tmp/cc8AT9ge.s:102    .text._ZN9SemaphoreD0Ev:000000000000003c .LVL7
     /tmp/cc8AT9ge.s:5915   .debug_str:00000000000003e4 .LASF97
     /tmp/cc8AT9ge.s:14     .text._ZN9SemaphoreD2Ev:0000000000000000 .LFB11
     /tmp/cc8AT9ge.s:50     .text._ZN9SemaphoreD2Ev:0000000000000038 .LFE11
     /tmp/cc8AT9ge.s:5718   .debug_loc:0000000000000986 .LLST0
     /tmp/cc8AT9ge.s:38     .text._ZN9SemaphoreD2Ev:0000000000000028 .LVL2
     /tmp/cc8AT9ge.s:6087   .debug_str:0000000000000b71 .LASF98
     /tmp/cc8AT9ge.s:5825   .debug_str:0000000000000092 .LASF99
     /tmp/cc8AT9ge.s:5869   .debug_str:0000000000000262 .LASF100
     /tmp/cc8AT9ge.s:6039   .debug_str:000000000000095c .LASF101
     /tmp/cc8AT9ge.s:5997   .debug_str:000000000000075a .LASF103
     /tmp/cc8AT9ge.s:6077   .debug_str:0000000000000b0a .LASF105
     /tmp/cc8AT9ge.s:5927   .debug_str:0000000000000443 .LASF106
     /tmp/cc8AT9ge.s:5937   .debug_str:0000000000000480 .LASF107
     /tmp/cc8AT9ge.s:6067   .debug_str:0000000000000aa8 .LASF108
     /tmp/cc8AT9ge.s:5929   .debug_str:000000000000044f .LASF109
     /tmp/cc8AT9ge.s:5849   .debug_str:000000000000016b .LASF110
     /tmp/cc8AT9ge.s:5853   .debug_str:0000000000000180 .LASF111
     /tmp/cc8AT9ge.s:5883   .debug_str:00000000000002cd .LASF112
     /tmp/cc8AT9ge.s:6047   .debug_str:00000000000009b9 .LASF113
     /tmp/cc8AT9ge.s:6081   .debug_str:0000000000000b32 .LASF114
     /tmp/cc8AT9ge.s:5995   .debug_str:0000000000000750 .LASF115
     /tmp/cc8AT9ge.s:5975   .debug_str:00000000000006b8 .LASF116
     /tmp/cc8AT9ge.s:5913   .debug_str:00000000000003d8 .LASF117
GAS LISTING /tmp/cc8AT9ge.s 			page 55


     /tmp/cc8AT9ge.s:5909   .debug_str:00000000000003c1 .LASF139
     /tmp/cc8AT9ge.s:6011   .debug_str:0000000000000809 .LASF140
     /tmp/cc8AT9ge.s:6055   .debug_str:0000000000000a32 .LASF118
     /tmp/cc8AT9ge.s:5925   .debug_str:0000000000000438 .LASF119
     /tmp/cc8AT9ge.s:5857   .debug_str:00000000000001b8 .LASF121
     /tmp/cc8AT9ge.s:408    .text._ZN19ConsumerProducerCPP16ProducerKeyboradD0Ev:0000000000000000 .LVL35
     /tmp/cc8AT9ge.s:440    .text._ZN19ConsumerProducerCPP16ProducerKeyboradD0Ev:0000000000000044 .LVL39
     /tmp/cc8AT9ge.s:420    .text._ZN19ConsumerProducerCPP16ProducerKeyboradD0Ev:0000000000000018 .LVL36
     /tmp/cc8AT9ge.s:371    .text._ZN19ConsumerProducerCPP16ProducerKeyboradD2Ev:0000000000000000 .LVL33
     /tmp/cc8AT9ge.s:492    .text._ZN19ConsumerProducerCPP8ProducerD0Ev:0000000000000000 .LVL42
     /tmp/cc8AT9ge.s:524    .text._ZN19ConsumerProducerCPP8ProducerD0Ev:0000000000000044 .LVL46
     /tmp/cc8AT9ge.s:504    .text._ZN19ConsumerProducerCPP8ProducerD0Ev:0000000000000018 .LVL43
     /tmp/cc8AT9ge.s:455    .text._ZN19ConsumerProducerCPP8ProducerD2Ev:0000000000000000 .LVL40
     /tmp/cc8AT9ge.s:324    .text._ZN19ConsumerProducerCPP8ConsumerD0Ev:0000000000000000 .LVL28
     /tmp/cc8AT9ge.s:356    .text._ZN19ConsumerProducerCPP8ConsumerD0Ev:0000000000000044 .LVL32
     /tmp/cc8AT9ge.s:336    .text._ZN19ConsumerProducerCPP8ConsumerD0Ev:0000000000000018 .LVL29
     /tmp/cc8AT9ge.s:287    .text._ZN19ConsumerProducerCPP8ConsumerD2Ev:0000000000000000 .LVL26
     /tmp/cc8AT9ge.s:794    .text:0000000000000094 .LVL79
     /tmp/cc8AT9ge.s:899    .text:00000000000001a8 .LVL97
     /tmp/cc8AT9ge.s:1277   .text:000000000000049c .LVL148
     /tmp/cc8AT9ge.s:1281   .text:00000000000004a0 .LVL149
     /tmp/cc8AT9ge.s:776    .text:0000000000000064 .LVL75
     /tmp/cc8AT9ge.s:1263   .text:0000000000000480 .LVL147
     /tmp/cc8AT9ge.s:864    .text:0000000000000148 .LVL90
     /tmp/cc8AT9ge.s:1247   .text:0000000000000468 .LVL146
     /tmp/cc8AT9ge.s:926    .text:00000000000001e4 .LVL100
     /tmp/cc8AT9ge.s:938    .text:0000000000000200 .LVL102
     /tmp/cc8AT9ge.s:940    .text:0000000000000204 .LVL103
     /tmp/cc8AT9ge.s:982    .text:0000000000000258 .LVL108
     /tmp/cc8AT9ge.s:1058   .text:00000000000002f0 .LVL119
     /tmp/cc8AT9ge.s:1140   .text:00000000000003b4 .LVL130
     /tmp/cc8AT9ge.s:1142   .text:00000000000003b8 .LVL131
     /tmp/cc8AT9ge.s:1100   .text:000000000000034c .LVL123
     /tmp/cc8AT9ge.s:1093   .text:000000000000033c .LVL122
     /tmp/cc8AT9ge.s:1158   .text:00000000000003c4 .LVL133
     /tmp/cc8AT9ge.s:1177   .text:00000000000003e4 .LVL136
     /tmp/cc8AT9ge.s:1179   .text:00000000000003e8 .LVL137
     /tmp/cc8AT9ge.s:1197   .text:0000000000000408 .LVL139
     /tmp/cc8AT9ge.s:1165   .text:00000000000003d4 .LVL134
     /tmp/cc8AT9ge.s:1199   .text:000000000000040c .LVL140
     /tmp/cc8AT9ge.s:967    .text:0000000000000244 .LVL106
     /tmp/cc8AT9ge.s:975    .text:0000000000000248 .LVL107
     /tmp/cc8AT9ge.s:1045   .text:00000000000002e0 .LVL117
     /tmp/cc8AT9ge.s:1038   .text:00000000000002d0 .LVL116
     /tmp/cc8AT9ge.s:138    .text._ZN19ConsumerProducerCPP8Consumer3runEv:0000000000000000 .LVL9
     /tmp/cc8AT9ge.s:159    .text._ZN19ConsumerProducerCPP8Consumer3runEv:0000000000000028 .LVL11
     /tmp/cc8AT9ge.s:269    .text._ZN19ConsumerProducerCPP8Consumer3runEv:00000000000000d4 .LVL24
     /tmp/cc8AT9ge.s:155    .text._ZN19ConsumerProducerCPP8Consumer3runEv:0000000000000020 .LVL10
     /tmp/cc8AT9ge.s:192    .text._ZN19ConsumerProducerCPP8Consumer3runEv:0000000000000060 .LVL14
     /tmp/cc8AT9ge.s:208    .text._ZN19ConsumerProducerCPP8Consumer3runEv:0000000000000074 .LVL17
     /tmp/cc8AT9ge.s:272    .text._ZN19ConsumerProducerCPP8Consumer3runEv:00000000000000d8 .LVL25
     /tmp/cc8AT9ge.s:199    .text._ZN19ConsumerProducerCPP8Consumer3runEv:0000000000000064 .LVL15
     /tmp/cc8AT9ge.s:237    .text._ZN19ConsumerProducerCPP8Consumer3runEv:00000000000000a4 .LVL20
     /tmp/cc8AT9ge.s:249    .text._ZN19ConsumerProducerCPP8Consumer3runEv:00000000000000b8 .LVL22
     /tmp/cc8AT9ge.s:626    .text._ZN19ConsumerProducerCPP8Producer3runEv:0000000000000000 .LVL59
     /tmp/cc8AT9ge.s:644    .text._ZN19ConsumerProducerCPP8Producer3runEv:0000000000000020 .LVL61
     /tmp/cc8AT9ge.s:710    .text._ZN19ConsumerProducerCPP8Producer3runEv:0000000000000094 .LVL70
GAS LISTING /tmp/cc8AT9ge.s 			page 56


     /tmp/cc8AT9ge.s:641    .text._ZN19ConsumerProducerCPP8Producer3runEv:000000000000001c .LVL60
     /tmp/cc8AT9ge.s:665    .text._ZN19ConsumerProducerCPP8Producer3runEv:0000000000000054 .LVL63
     /tmp/cc8AT9ge.s:679    .text._ZN19ConsumerProducerCPP8Producer3runEv:0000000000000064 .LVL65
     /tmp/cc8AT9ge.s:713    .text._ZN19ConsumerProducerCPP8Producer3runEv:0000000000000098 .LVL71
     /tmp/cc8AT9ge.s:673    .text._ZN19ConsumerProducerCPP8Producer3runEv:0000000000000060 .LVL64
     /tmp/cc8AT9ge.s:681    .text._ZN19ConsumerProducerCPP8Producer3runEv:0000000000000068 .LVL66
     /tmp/cc8AT9ge.s:692    .text._ZN19ConsumerProducerCPP8Producer3runEv:000000000000007c .LVL68
     /tmp/cc8AT9ge.s:539    .text._ZN19ConsumerProducerCPP16ProducerKeyborad3runEv:0000000000000000 .LVL47
     /tmp/cc8AT9ge.s:553    .text._ZN19ConsumerProducerCPP16ProducerKeyborad3runEv:0000000000000018 .LVL48
     /tmp/cc8AT9ge.s:611    .text._ZN19ConsumerProducerCPP16ProducerKeyborad3runEv:0000000000000080 .LVL58
     /tmp/cc8AT9ge.s:561    .text._ZN19ConsumerProducerCPP16ProducerKeyborad3runEv:0000000000000024 .LVL50
     /tmp/cc8AT9ge.s:574    .text._ZN19ConsumerProducerCPP16ProducerKeyborad3runEv:0000000000000040 .LVL52
     /tmp/cc8AT9ge.s:584    .text._ZN19ConsumerProducerCPP16ProducerKeyborad3runEv:0000000000000054 .LVL53
     /tmp/cc8AT9ge.s:586    .text._ZN19ConsumerProducerCPP16ProducerKeyborad3runEv:0000000000000058 .LVL54
     /tmp/cc8AT9ge.s:593    .text._ZN19ConsumerProducerCPP16ProducerKeyborad3runEv:0000000000000068 .LVL56
     /tmp/cc8AT9ge.s:72     .text._ZN9SemaphoreD0Ev:0000000000000000 .LVL3
     /tmp/cc8AT9ge.s:93     .text._ZN9SemaphoreD0Ev:0000000000000028 .LVL5
     /tmp/cc8AT9ge.s:111    .text._ZN9SemaphoreD0Ev:0000000000000048 .LVL8
     /tmp/cc8AT9ge.s:84     .text._ZN9SemaphoreD0Ev:0000000000000018 .LVL4
     /tmp/cc8AT9ge.s:20     .text._ZN9SemaphoreD2Ev:0000000000000000 .LVL0
     /tmp/cc8AT9ge.s:36     .text._ZN9SemaphoreD2Ev:0000000000000020 .LVL1
     /tmp/cc8AT9ge.s:1513   .debug_info:0000000000000000 .Ldebug_info0
     /tmp/cc8AT9ge.s:8      .text:0000000000000000 .Ltext0
     /tmp/cc8AT9ge.s:1506   .text:0000000000000524 .Letext0
     /tmp/cc8AT9ge.s:161    .text._ZN19ConsumerProducerCPP8Consumer3runEv:0000000000000028 .LBB73
     /tmp/cc8AT9ge.s:173    .text._ZN19ConsumerProducerCPP8Consumer3runEv:0000000000000034 .LBE73
     /tmp/cc8AT9ge.s:180    .text._ZN19ConsumerProducerCPP8Consumer3runEv:0000000000000048 .LBB78
     /tmp/cc8AT9ge.s:213    .text._ZN19ConsumerProducerCPP8Consumer3runEv:000000000000007c .LBE78
     /tmp/cc8AT9ge.s:1154   .text:00000000000003c0 .LBB116
     /tmp/cc8AT9ge.s:1181   .text:00000000000003e8 .LBE116
     /tmp/cc8AT9ge.s:1194   .text:0000000000000404 .LBB119
     /tmp/cc8AT9ge.s:1201   .text:000000000000040c .LBE119
     /tmp/cc8AT9ge.s:53     .gcc_except_table._ZN9SemaphoreD2Ev:0000000000000000 .LLSDA11
     /tmp/cc8AT9ge.s:118    .gcc_except_table._ZN9SemaphoreD0Ev:0000000000000000 .LLSDA13
     /tmp/cc8AT9ge.s:1305   .gcc_except_table:0000000000000000 .LLSDA31
                           .group:0000000000000000 _ZN9SemaphoreD5Ev
                           .group:0000000000000000 _ZN19ConsumerProducerCPP8ConsumerD5Ev
                           .group:0000000000000000 _ZN19ConsumerProducerCPP16ProducerKeyboradD5Ev
                           .group:0000000000000000 _ZN19ConsumerProducerCPP8ProducerD5Ev

UNDEFINED SYMBOLS
sem_close
__gxx_personality_v0
_ZdlPv
putc
_ZN9BufferCPP3getEv
_ZN9BufferCPP6getCntEv
sem_signal
_ZN6ThreadD2Ev
getc
_ZN9BufferCPP3putEi
time_sleep
_Z11printStringPKc
_Z9getStringPci
_Z11stringToIntPKc
_Z8printIntmi
_Znwm
GAS LISTING /tmp/cc8AT9ge.s 			page 57


_ZN9BufferCPPC1Ei
sem_open
_ZN6Thread5startEv
thread_dispatch
sem_wait
_ZN9BufferCPPD1Ev
_Unwind_Resume
