GAS LISTING /tmp/ccICFWVD.s 			page 1


   1              		.file	"userMain.cpp"
   2              		.option nopic
   3              		.option norelax
   4              		.attribute arch, "rv64i2p0_m2p0_a2p0"
   5              		.attribute unaligned_access, 0
   6              		.attribute stack_align, 16
   7              		.text
   8              	.Ltext0:
   9              		.section	.text._ZN9SemaphoreD2Ev,"axG",@progbits,_ZN9SemaphoreD5Ev,comdat
  10              		.align	2
  11              		.weak	_ZN9SemaphoreD2Ev
  13              	_ZN9SemaphoreD2Ev:
  14              	.LFB12:
  15              		.file 1 "src/user/test/../../../h/syscall_cpp.hpp"
   1:src/user/test/../../../h/syscall_cpp.hpp **** #ifndef _syscall_cpp
   2:src/user/test/../../../h/syscall_cpp.hpp **** #define _syscall_cpp
   3:src/user/test/../../../h/syscall_cpp.hpp **** #include "syscall_c.h"
   4:src/user/test/../../../h/syscall_cpp.hpp **** 
   5:src/user/test/../../../h/syscall_cpp.hpp **** void* operator new (size_t);
   6:src/user/test/../../../h/syscall_cpp.hpp **** void operator delete (void*);
   7:src/user/test/../../../h/syscall_cpp.hpp **** 
   8:src/user/test/../../../h/syscall_cpp.hpp **** class Thread {
   9:src/user/test/../../../h/syscall_cpp.hpp **** public:
  10:src/user/test/../../../h/syscall_cpp.hpp ****     Thread (void (*body)(void*), void* arg);
  11:src/user/test/../../../h/syscall_cpp.hpp ****     virtual ~Thread ();
  12:src/user/test/../../../h/syscall_cpp.hpp ****     void start ();
  13:src/user/test/../../../h/syscall_cpp.hpp ****     static void dispatch () { thread_dispatch(); }
  14:src/user/test/../../../h/syscall_cpp.hpp ****     static void sleep (time_t time){ time_sleep(time); }
  15:src/user/test/../../../h/syscall_cpp.hpp **** protected:
  16:src/user/test/../../../h/syscall_cpp.hpp ****     Thread (){ myHandle = nullptr;}
  17:src/user/test/../../../h/syscall_cpp.hpp ****     virtual void run () {}
  18:src/user/test/../../../h/syscall_cpp.hpp **** private:
  19:src/user/test/../../../h/syscall_cpp.hpp ****     static void runWrapper(void*);
  20:src/user/test/../../../h/syscall_cpp.hpp ****     thread_t myHandle;
  21:src/user/test/../../../h/syscall_cpp.hpp **** };
  22:src/user/test/../../../h/syscall_cpp.hpp **** 
  23:src/user/test/../../../h/syscall_cpp.hpp **** class Semaphore {
  24:src/user/test/../../../h/syscall_cpp.hpp **** public:
  25:src/user/test/../../../h/syscall_cpp.hpp ****     Semaphore (unsigned init = 1) { sem_open(&myHandle, init); } 
  26:src/user/test/../../../h/syscall_cpp.hpp ****     virtual ~Semaphore (){ sem_close(myHandle); }
  16              		.loc 1 26 13
  17              		.cfi_startproc
  18              		.cfi_personality 0x9b,DW.ref.__gxx_personality_v0
  19              		.cfi_lsda 0x1b,.LLSDA12
  20              	.LVL0:
  21 0000 130101FF 		addi	sp,sp,-16
  22              		.cfi_def_cfa_offset 16
  23 0004 23341100 		sd	ra,8(sp)
  24 0008 23308100 		sd	s0,0(sp)
  25              		.cfi_offset 1, -8
  26              		.cfi_offset 8, -16
  27 000c 13040101 		addi	s0,sp,16
  28              		.cfi_def_cfa 8, 0
  29              	.LBB70:
  30              		.loc 1 26 26 is_stmt 0
  31 0010 97070000 		lla	a5,_ZTV9Semaphore+16
  31      93870700 
GAS LISTING /tmp/ccICFWVD.s 			page 2


  32 0018 2330F500 		sd	a5,0(a0)
  33              		.loc 1 26 28 is_stmt 1
  34              		.loc 1 26 37 is_stmt 0
  35 001c 03358500 		ld	a0,8(a0)
  36              	.LVL1:
  37 0020 97000000 		call	sem_close
  37      E7800000 
  38              	.LVL2:
  39              	.LBE70:
  40              		.loc 1 26 49
  41 0028 83308100 		ld	ra,8(sp)
  42              		.cfi_restore 1
  43 002c 03340100 		ld	s0,0(sp)
  44              		.cfi_restore 8
  45              		.cfi_def_cfa 2, 16
  46 0030 13010101 		addi	sp,sp,16
  47              		.cfi_def_cfa_offset 0
  48 0034 67800000 		jr	ra
  49              		.cfi_endproc
  50              	.LFE12:
  51              		.globl	__gxx_personality_v0
  52              		.section	.gcc_except_table._ZN9SemaphoreD2Ev,"awG",@progbits,_ZN9SemaphoreD5Ev,comdat
  53              	.LLSDA12:
  54 0000 FF       		.byte	0xff
  55 0001 FF       		.byte	0xff
  56 0002 03       		.byte	0x3
  57 0003 00       		.byte	0
  58              		.section	.text._ZN9SemaphoreD2Ev,"axG",@progbits,_ZN9SemaphoreD5Ev,comdat
  60              		.weak	_ZN9SemaphoreD1Ev
  61              		.set	_ZN9SemaphoreD1Ev,_ZN9SemaphoreD2Ev
  62              		.section	.text._ZN9SemaphoreD0Ev,"axG",@progbits,_ZN9SemaphoreD5Ev,comdat
  63              		.align	2
  64              		.weak	_ZN9SemaphoreD0Ev
  66              	_ZN9SemaphoreD0Ev:
  67              	.LFB14:
  68              		.loc 1 26 13 is_stmt 1
  69              		.cfi_startproc
  70              		.cfi_personality 0x9b,DW.ref.__gxx_personality_v0
  71              		.cfi_lsda 0x1b,.LLSDA14
  72              	.LVL3:
  73 0000 130101FE 		addi	sp,sp,-32
  74              		.cfi_def_cfa_offset 32
  75 0004 233C1100 		sd	ra,24(sp)
  76 0008 23388100 		sd	s0,16(sp)
  77 000c 23349100 		sd	s1,8(sp)
  78              		.cfi_offset 1, -8
  79              		.cfi_offset 8, -16
  80              		.cfi_offset 9, -24
  81 0010 13040102 		addi	s0,sp,32
  82              		.cfi_def_cfa 8, 0
  83 0014 93040500 		mv	s1,a0
  84              	.LVL4:
  85              	.LBB71:
  86              	.LBB72:
  87              		.loc 1 26 26 is_stmt 0
  88 0018 97070000 		lla	a5,_ZTV9Semaphore+16
  88      93870700 
GAS LISTING /tmp/ccICFWVD.s 			page 3


  89 0020 2330F500 		sd	a5,0(a0)
  90              		.loc 1 26 28 is_stmt 1
  91              		.loc 1 26 37 is_stmt 0
  92 0024 03358500 		ld	a0,8(a0)
  93              	.LVL5:
  94 0028 97000000 		call	sem_close
  94      E7800000 
  95              	.LVL6:
  96              	.LBE72:
  97              	.LBE71:
  98              		.loc 1 26 49
  99 0030 13850400 		mv	a0,s1
 100              	.LEHB0:
 101 0034 97000000 		call	_ZdlPv
 101      E7800000 
 102              	.LVL7:
 103              	.LEHE0:
 104 003c 83308101 		ld	ra,24(sp)
 105              		.cfi_restore 1
 106 0040 03340101 		ld	s0,16(sp)
 107              		.cfi_restore 8
 108              		.cfi_def_cfa 2, 32
 109 0044 83348100 		ld	s1,8(sp)
 110              		.cfi_restore 9
 111              	.LVL8:
 112 0048 13010102 		addi	sp,sp,32
 113              		.cfi_def_cfa_offset 0
 114 004c 67800000 		jr	ra
 115              		.cfi_endproc
 116              	.LFE14:
 117              		.section	.gcc_except_table._ZN9SemaphoreD0Ev,"awG",@progbits,_ZN9SemaphoreD5Ev,comdat
 118              	.LLSDA14:
 119 0000 FF       		.byte	0xff
 120 0001 FF       		.byte	0xff
 121 0002 03       		.byte	0x3
 122 0003 0D       		.byte	0xd
 123 0004 00000000 		.4byte	.LEHB0-.LFB14
 124 0008 00000000 		.4byte	.LEHE0-.LEHB0
 125 000c 00000000 		.4byte	0
 126 0010 00       		.byte	0
 127              		.section	.text._ZN9SemaphoreD0Ev,"axG",@progbits,_ZN9SemaphoreD5Ev,comdat
 129              		.section	.text._ZN19ConsumerProducerCPP8Consumer3runEv,"axG",@progbits,_ZN19ConsumerProducerCPP8Co
 130              		.align	2
 131              		.weak	_ZN19ConsumerProducerCPP8Consumer3runEv
 133              	_ZN19ConsumerProducerCPP8Consumer3runEv:
 134              	.LFB31:
 135              		.file 2 "src/user/test/ConsumerProducer_CPP_API_test.hpp"
   1:src/user/test/ConsumerProducer_CPP_API_test.hpp **** //
   2:src/user/test/ConsumerProducer_CPP_API_test.hpp **** // Created by os on 4/17/22.
   3:src/user/test/ConsumerProducer_CPP_API_test.hpp **** //
   4:src/user/test/ConsumerProducer_CPP_API_test.hpp **** 
   5:src/user/test/ConsumerProducer_CPP_API_test.hpp **** #ifndef XV6_CONSUMERPRODUCER_CPP_API_TEST_HPP
   6:src/user/test/ConsumerProducer_CPP_API_test.hpp **** #define XV6_CONSUMERPRODUCER_CPP_API_TEST_HPP
   7:src/user/test/ConsumerProducer_CPP_API_test.hpp **** 
   8:src/user/test/ConsumerProducer_CPP_API_test.hpp **** #include "../../../h/syscall_cpp.hpp"
   9:src/user/test/ConsumerProducer_CPP_API_test.hpp **** 
  10:src/user/test/ConsumerProducer_CPP_API_test.hpp **** #include "buffer_CPP_API.hpp"
GAS LISTING /tmp/ccICFWVD.s 			page 4


  11:src/user/test/ConsumerProducer_CPP_API_test.hpp **** #include "printing.hpp"
  12:src/user/test/ConsumerProducer_CPP_API_test.hpp **** 
  13:src/user/test/ConsumerProducer_CPP_API_test.hpp **** namespace ConsumerProducerCPP {
  14:src/user/test/ConsumerProducer_CPP_API_test.hpp **** 
  15:src/user/test/ConsumerProducer_CPP_API_test.hpp ****     Semaphore *waitForAll;
  16:src/user/test/ConsumerProducer_CPP_API_test.hpp **** 
  17:src/user/test/ConsumerProducer_CPP_API_test.hpp ****     struct thread_data {
  18:src/user/test/ConsumerProducer_CPP_API_test.hpp ****         int id;
  19:src/user/test/ConsumerProducer_CPP_API_test.hpp ****         BufferCPP *buffer;
  20:src/user/test/ConsumerProducer_CPP_API_test.hpp ****         Semaphore *sem;
  21:src/user/test/ConsumerProducer_CPP_API_test.hpp ****     };
  22:src/user/test/ConsumerProducer_CPP_API_test.hpp **** 
  23:src/user/test/ConsumerProducer_CPP_API_test.hpp ****     volatile int threadEnd = 0;
  24:src/user/test/ConsumerProducer_CPP_API_test.hpp **** 
  25:src/user/test/ConsumerProducer_CPP_API_test.hpp ****     class ProducerKeyborad : public Thread {
  26:src/user/test/ConsumerProducer_CPP_API_test.hpp ****         thread_data *td;
  27:src/user/test/ConsumerProducer_CPP_API_test.hpp ****     public:
  28:src/user/test/ConsumerProducer_CPP_API_test.hpp ****         ProducerKeyborad(thread_data *_td) : Thread(), td(_td) {}
  29:src/user/test/ConsumerProducer_CPP_API_test.hpp **** 
  30:src/user/test/ConsumerProducer_CPP_API_test.hpp ****         void run() override {
  31:src/user/test/ConsumerProducer_CPP_API_test.hpp ****             int key;
  32:src/user/test/ConsumerProducer_CPP_API_test.hpp ****             int i = 0;
  33:src/user/test/ConsumerProducer_CPP_API_test.hpp ****             while ((key = getc()) != 0x1b) {
  34:src/user/test/ConsumerProducer_CPP_API_test.hpp ****                 td->buffer->put(key);
  35:src/user/test/ConsumerProducer_CPP_API_test.hpp ****                 i++;
  36:src/user/test/ConsumerProducer_CPP_API_test.hpp ****             }
  37:src/user/test/ConsumerProducer_CPP_API_test.hpp **** 
  38:src/user/test/ConsumerProducer_CPP_API_test.hpp ****             threadEnd = 1;
  39:src/user/test/ConsumerProducer_CPP_API_test.hpp ****             td->buffer->put('!');
  40:src/user/test/ConsumerProducer_CPP_API_test.hpp **** 
  41:src/user/test/ConsumerProducer_CPP_API_test.hpp ****             td->sem->signal();
  42:src/user/test/ConsumerProducer_CPP_API_test.hpp ****         }
  43:src/user/test/ConsumerProducer_CPP_API_test.hpp ****     };
  44:src/user/test/ConsumerProducer_CPP_API_test.hpp **** 
  45:src/user/test/ConsumerProducer_CPP_API_test.hpp ****     class Producer : public Thread {
  46:src/user/test/ConsumerProducer_CPP_API_test.hpp ****         thread_data *td;
  47:src/user/test/ConsumerProducer_CPP_API_test.hpp ****     public:
  48:src/user/test/ConsumerProducer_CPP_API_test.hpp ****         Producer(thread_data *_td) : Thread(), td(_td) {}
  49:src/user/test/ConsumerProducer_CPP_API_test.hpp **** 
  50:src/user/test/ConsumerProducer_CPP_API_test.hpp ****         void run() override {
  51:src/user/test/ConsumerProducer_CPP_API_test.hpp ****             int i = 0;
  52:src/user/test/ConsumerProducer_CPP_API_test.hpp ****             while (!threadEnd) {
  53:src/user/test/ConsumerProducer_CPP_API_test.hpp ****                 td->buffer->put(td->id + '0');
  54:src/user/test/ConsumerProducer_CPP_API_test.hpp ****                 i++;
  55:src/user/test/ConsumerProducer_CPP_API_test.hpp ****                 Thread::sleep((i+td->id)%5);
  56:src/user/test/ConsumerProducer_CPP_API_test.hpp ****             }
  57:src/user/test/ConsumerProducer_CPP_API_test.hpp **** 
  58:src/user/test/ConsumerProducer_CPP_API_test.hpp ****             td->sem->signal();
  59:src/user/test/ConsumerProducer_CPP_API_test.hpp ****         }
  60:src/user/test/ConsumerProducer_CPP_API_test.hpp ****     };
  61:src/user/test/ConsumerProducer_CPP_API_test.hpp **** 
  62:src/user/test/ConsumerProducer_CPP_API_test.hpp ****     class Consumer : public Thread {
  63:src/user/test/ConsumerProducer_CPP_API_test.hpp ****         thread_data *td;
  64:src/user/test/ConsumerProducer_CPP_API_test.hpp ****     public:
  65:src/user/test/ConsumerProducer_CPP_API_test.hpp ****         Consumer(thread_data *_td) : Thread(), td(_td) {}
  66:src/user/test/ConsumerProducer_CPP_API_test.hpp **** 
  67:src/user/test/ConsumerProducer_CPP_API_test.hpp ****         void run() override {
GAS LISTING /tmp/ccICFWVD.s 			page 5


 136              		.loc 2 67 14 is_stmt 1
 137              		.cfi_startproc
 138              	.LVL9:
 139 0000 130101FD 		addi	sp,sp,-48
 140              		.cfi_def_cfa_offset 48
 141 0004 23341102 		sd	ra,40(sp)
 142 0008 23308102 		sd	s0,32(sp)
 143 000c 233C9100 		sd	s1,24(sp)
 144 0010 23382101 		sd	s2,16(sp)
 145 0014 23343101 		sd	s3,8(sp)
 146              		.cfi_offset 1, -8
 147              		.cfi_offset 8, -16
 148              		.cfi_offset 9, -24
 149              		.cfi_offset 18, -32
 150              		.cfi_offset 19, -40
 151 0018 13040103 		addi	s0,sp,48
 152              		.cfi_def_cfa 8, 0
 153 001c 13090500 		mv	s2,a0
  68:src/user/test/ConsumerProducer_CPP_API_test.hpp ****             int i = 0;
 154              		.loc 2 68 13
 155              	.LVL10:
 156              		.loc 2 68 17 is_stmt 0
 157 0020 93090000 		li	s3,0
 158 0024 6F000001 		j	.L6
 159              	.LVL11:
 160              	.L11:
 161              	.LBB73:
  69:src/user/test/ConsumerProducer_CPP_API_test.hpp ****             while (!threadEnd) {
  70:src/user/test/ConsumerProducer_CPP_API_test.hpp ****                 int key = td->buffer->get();
  71:src/user/test/ConsumerProducer_CPP_API_test.hpp ****                 i++;
  72:src/user/test/ConsumerProducer_CPP_API_test.hpp **** 
  73:src/user/test/ConsumerProducer_CPP_API_test.hpp ****                 Console::putc(key);
  74:src/user/test/ConsumerProducer_CPP_API_test.hpp **** 
  75:src/user/test/ConsumerProducer_CPP_API_test.hpp ****                 if (i % 80 == 0) {
  76:src/user/test/ConsumerProducer_CPP_API_test.hpp ****                     Console::putc('\n');
 162              		.loc 2 76 21 is_stmt 1
 163              	.LBB74:
 164              	.LBB75:
  27:src/user/test/../../../h/syscall_cpp.hpp ****     void wait (){ sem_wait(myHandle); }
  28:src/user/test/../../../h/syscall_cpp.hpp ****     void signal (){ sem_signal(myHandle); }
  29:src/user/test/../../../h/syscall_cpp.hpp **** private:
  30:src/user/test/../../../h/syscall_cpp.hpp ****     sem_t myHandle;
  31:src/user/test/../../../h/syscall_cpp.hpp **** };
  32:src/user/test/../../../h/syscall_cpp.hpp **** 
  33:src/user/test/../../../h/syscall_cpp.hpp **** class PeriodicThread : public Thread {
  34:src/user/test/../../../h/syscall_cpp.hpp **** protected:
  35:src/user/test/../../../h/syscall_cpp.hpp ****     PeriodicThread (time_t period);
  36:src/user/test/../../../h/syscall_cpp.hpp ****     virtual void periodicActivation () {}
  37:src/user/test/../../../h/syscall_cpp.hpp **** private:
  38:src/user/test/../../../h/syscall_cpp.hpp ****     static void periodicWrapper(void*);
  39:src/user/test/../../../h/syscall_cpp.hpp **** };
  40:src/user/test/../../../h/syscall_cpp.hpp **** 
  41:src/user/test/../../../h/syscall_cpp.hpp **** class Console {
  42:src/user/test/../../../h/syscall_cpp.hpp **** public:
  43:src/user/test/../../../h/syscall_cpp.hpp ****     static char getc (){ return ::getc(); }
  44:src/user/test/../../../h/syscall_cpp.hpp ****     static void putc (char c){ ::putc(c); }
 165              		.loc 1 44 32
GAS LISTING /tmp/ccICFWVD.s 			page 6


 166              		.loc 1 44 38 is_stmt 0
 167 0028 1305A000 		li	a0,10
 168 002c 97000000 		call	putc
 168      E7800000 
 169              	.LVL12:
 170              	.L6:
 171              	.LBE75:
 172              	.LBE74:
 173              	.LBE73:
  69:src/user/test/ConsumerProducer_CPP_API_test.hpp ****             while (!threadEnd) {
 174              		.loc 2 69 13 is_stmt 1
  69:src/user/test/ConsumerProducer_CPP_API_test.hpp ****             while (!threadEnd) {
 175              		.loc 2 69 20 is_stmt 0
 176 0034 97070000 		lla	a5,_ZN19ConsumerProducerCPP9threadEndE
 176      93870700 
 177 003c 83A70700 		lw	a5,0(a5)
 178 0040 9B870700 		sext.w	a5,a5
 179 0044 639C0702 		bne	a5,zero,.L7
 180              	.LBB78:
  70:src/user/test/ConsumerProducer_CPP_API_test.hpp ****                 i++;
 181              		.loc 2 70 17 is_stmt 1
  70:src/user/test/ConsumerProducer_CPP_API_test.hpp ****                 i++;
 182              		.loc 2 70 27 is_stmt 0
 183 0048 83370901 		ld	a5,16(s2)
  70:src/user/test/ConsumerProducer_CPP_API_test.hpp ****                 i++;
 184              		.loc 2 70 42
 185 004c 03B58700 		ld	a0,8(a5)
 186 0050 97000000 		call	_ZN9BufferCPP3getEv
 186      E7800000 
 187              	.LVL13:
  71:src/user/test/ConsumerProducer_CPP_API_test.hpp **** 
 188              		.loc 2 71 17 is_stmt 1
  71:src/user/test/ConsumerProducer_CPP_API_test.hpp **** 
 189              		.loc 2 71 18 is_stmt 0
 190 0058 9B841900 		addiw	s1,s3,1
 191 005c 9B890400 		sext.w	s3,s1
 192              	.LVL14:
  73:src/user/test/ConsumerProducer_CPP_API_test.hpp **** 
 193              		.loc 2 73 17 is_stmt 1
 194              	.LBB76:
 195              	.LBB77:
 196              		.loc 1 44 32
 197              		.loc 1 44 38 is_stmt 0
 198 0060 1375F50F 		andi	a0,a0,0xff
 199              	.LVL15:
 200 0064 97000000 		call	putc
 200      E7800000 
 201              	.LVL16:
 202              	.LBE77:
 203              	.LBE76:
  75:src/user/test/ConsumerProducer_CPP_API_test.hpp ****                     Console::putc('\n');
 204              		.loc 2 75 17 is_stmt 1
  75:src/user/test/ConsumerProducer_CPP_API_test.hpp ****                     Console::putc('\n');
 205              		.loc 2 75 23 is_stmt 0
 206 006c 93070005 		li	a5,80
 207 0070 BBE4F402 		remw	s1,s1,a5
 208              	.LVL17:
GAS LISTING /tmp/ccICFWVD.s 			page 7


  75:src/user/test/ConsumerProducer_CPP_API_test.hpp ****                     Console::putc('\n');
 209              		.loc 2 75 17
 210 0074 E39004FC 		bne	s1,zero,.L6
 211 0078 6FF01FFB 		j	.L11
 212              	.L7:
 213              	.LBE78:
  77:src/user/test/ConsumerProducer_CPP_API_test.hpp ****                 }
  78:src/user/test/ConsumerProducer_CPP_API_test.hpp ****             }
  79:src/user/test/ConsumerProducer_CPP_API_test.hpp **** 
  80:src/user/test/ConsumerProducer_CPP_API_test.hpp ****             while (td->buffer->getCnt() > 0) {
 214              		.loc 2 80 13 is_stmt 1
 215              		.loc 2 80 20 is_stmt 0
 216 007c 83370901 		ld	a5,16(s2)
 217              		.loc 2 80 38
 218 0080 03B58700 		ld	a0,8(a5)
 219 0084 97000000 		call	_ZN9BufferCPP6getCntEv
 219      E7800000 
 220              	.LVL18:
 221              		.loc 2 80 41
 222 008c 6352A002 		ble	a0,zero,.L9
 223              	.LBB79:
  81:src/user/test/ConsumerProducer_CPP_API_test.hpp ****                 int key = td->buffer->get();
 224              		.loc 2 81 17 is_stmt 1
 225              		.loc 2 81 27 is_stmt 0
 226 0090 83370901 		ld	a5,16(s2)
 227              		.loc 2 81 42
 228 0094 03B58700 		ld	a0,8(a5)
 229 0098 97000000 		call	_ZN9BufferCPP3getEv
 229      E7800000 
 230              	.LVL19:
  82:src/user/test/ConsumerProducer_CPP_API_test.hpp ****                 Console::putc(key);
 231              		.loc 2 82 17 is_stmt 1
 232              	.LBB80:
 233              	.LBB81:
 234              		.loc 1 44 32
 235              		.loc 1 44 38 is_stmt 0
 236 00a0 1375F50F 		andi	a0,a0,0xff
 237              	.LVL20:
 238 00a4 97000000 		call	putc
 238      E7800000 
 239              	.LVL21:
 240 00ac 6FF01FFD 		j	.L7
 241              	.L9:
 242              	.LBE81:
 243              	.LBE80:
 244              	.LBE79:
  83:src/user/test/ConsumerProducer_CPP_API_test.hpp ****             }
  84:src/user/test/ConsumerProducer_CPP_API_test.hpp **** 
  85:src/user/test/ConsumerProducer_CPP_API_test.hpp ****             td->sem->signal();
 245              		.loc 2 85 13 is_stmt 1
 246 00b0 83370901 		ld	a5,16(s2)
 247              		.loc 2 85 17 is_stmt 0
 248 00b4 83B70701 		ld	a5,16(a5)
 249              	.LVL22:
 250              	.LBB82:
 251              	.LBB83:
  28:src/user/test/../../../h/syscall_cpp.hpp **** private:
GAS LISTING /tmp/ccICFWVD.s 			page 8


 252              		.loc 1 28 21 is_stmt 1
  28:src/user/test/../../../h/syscall_cpp.hpp **** private:
 253              		.loc 1 28 31 is_stmt 0
 254 00b8 03B58700 		ld	a0,8(a5)
 255 00bc 97000000 		call	sem_signal
 255      E7800000 
 256              	.LVL23:
 257              	.LBE83:
 258              	.LBE82:
  86:src/user/test/ConsumerProducer_CPP_API_test.hpp ****         }
 259              		.loc 2 86 9
 260 00c4 83308102 		ld	ra,40(sp)
 261              		.cfi_restore 1
 262 00c8 03340102 		ld	s0,32(sp)
 263              		.cfi_restore 8
 264              		.cfi_def_cfa 2, 48
 265 00cc 83348101 		ld	s1,24(sp)
 266              		.cfi_restore 9
 267 00d0 03390101 		ld	s2,16(sp)
 268              		.cfi_restore 18
 269              	.LVL24:
 270 00d4 83398100 		ld	s3,8(sp)
 271              		.cfi_restore 19
 272              	.LVL25:
 273 00d8 13010103 		addi	sp,sp,48
 274              		.cfi_def_cfa_offset 0
 275 00dc 67800000 		jr	ra
 276              		.cfi_endproc
 277              	.LFE31:
 279              		.section	.text._ZN19ConsumerProducerCPP8ConsumerD2Ev,"axG",@progbits,_ZN19ConsumerProducerCPP8Cons
 280              		.align	2
 281              		.weak	_ZN19ConsumerProducerCPP8ConsumerD2Ev
 283              	_ZN19ConsumerProducerCPP8ConsumerD2Ev:
 284              	.LFB35:
  62:src/user/test/ConsumerProducer_CPP_API_test.hpp ****         thread_data *td;
 285              		.loc 2 62 11 is_stmt 1
 286              		.cfi_startproc
 287              	.LVL26:
 288 0000 130101FF 		addi	sp,sp,-16
 289              		.cfi_def_cfa_offset 16
 290 0004 23341100 		sd	ra,8(sp)
 291 0008 23308100 		sd	s0,0(sp)
 292              		.cfi_offset 1, -8
 293              		.cfi_offset 8, -16
 294 000c 13040101 		addi	s0,sp,16
 295              		.cfi_def_cfa 8, 0
 296              	.LBB84:
  62:src/user/test/ConsumerProducer_CPP_API_test.hpp ****         thread_data *td;
 297              		.loc 2 62 11 is_stmt 0
 298 0010 97070000 		lla	a5,_ZTVN19ConsumerProducerCPP8ConsumerE+16
 298      93870700 
 299 0018 2330F500 		sd	a5,0(a0)
 300 001c 97000000 		call	_ZN6ThreadD2Ev
 300      E7800000 
 301              	.LVL27:
 302              	.LBE84:
 303 0024 83308100 		ld	ra,8(sp)
GAS LISTING /tmp/ccICFWVD.s 			page 9


 304              		.cfi_restore 1
 305 0028 03340100 		ld	s0,0(sp)
 306              		.cfi_restore 8
 307              		.cfi_def_cfa 2, 16
 308 002c 13010101 		addi	sp,sp,16
 309              		.cfi_def_cfa_offset 0
 310 0030 67800000 		jr	ra
 311              		.cfi_endproc
 312              	.LFE35:
 314              		.weak	_ZN19ConsumerProducerCPP8ConsumerD1Ev
 315              		.set	_ZN19ConsumerProducerCPP8ConsumerD1Ev,_ZN19ConsumerProducerCPP8ConsumerD2Ev
 316              		.section	.text._ZN19ConsumerProducerCPP8ConsumerD0Ev,"axG",@progbits,_ZN19ConsumerProducerCPP8Cons
 317              		.align	2
 318              		.weak	_ZN19ConsumerProducerCPP8ConsumerD0Ev
 320              	_ZN19ConsumerProducerCPP8ConsumerD0Ev:
 321              	.LFB37:
  62:src/user/test/ConsumerProducer_CPP_API_test.hpp ****         thread_data *td;
 322              		.loc 2 62 11 is_stmt 1
 323              		.cfi_startproc
 324              	.LVL28:
 325 0000 130101FE 		addi	sp,sp,-32
 326              		.cfi_def_cfa_offset 32
 327 0004 233C1100 		sd	ra,24(sp)
 328 0008 23388100 		sd	s0,16(sp)
 329 000c 23349100 		sd	s1,8(sp)
 330              		.cfi_offset 1, -8
 331              		.cfi_offset 8, -16
 332              		.cfi_offset 9, -24
 333 0010 13040102 		addi	s0,sp,32
 334              		.cfi_def_cfa 8, 0
 335 0014 93040500 		mv	s1,a0
 336              	.LVL29:
 337              	.LBB85:
 338              	.LBB86:
  62:src/user/test/ConsumerProducer_CPP_API_test.hpp ****         thread_data *td;
 339              		.loc 2 62 11 is_stmt 0
 340 0018 97070000 		lla	a5,_ZTVN19ConsumerProducerCPP8ConsumerE+16
 340      93870700 
 341 0020 2330F500 		sd	a5,0(a0)
 342 0024 97000000 		call	_ZN6ThreadD2Ev
 342      E7800000 
 343              	.LVL30:
 344              	.LBE86:
 345              	.LBE85:
 346 002c 13850400 		mv	a0,s1
 347 0030 97000000 		call	_ZdlPv
 347      E7800000 
 348              	.LVL31:
 349 0038 83308101 		ld	ra,24(sp)
 350              		.cfi_restore 1
 351 003c 03340101 		ld	s0,16(sp)
 352              		.cfi_restore 8
 353              		.cfi_def_cfa 2, 32
 354 0040 83348100 		ld	s1,8(sp)
 355              		.cfi_restore 9
 356              	.LVL32:
 357 0044 13010102 		addi	sp,sp,32
GAS LISTING /tmp/ccICFWVD.s 			page 10


 358              		.cfi_def_cfa_offset 0
 359 0048 67800000 		jr	ra
 360              		.cfi_endproc
 361              	.LFE37:
 363              		.section	.text._ZN19ConsumerProducerCPP16ProducerKeyboradD2Ev,"axG",@progbits,_ZN19ConsumerProduce
 364              		.align	2
 365              		.weak	_ZN19ConsumerProducerCPP16ProducerKeyboradD2Ev
 367              	_ZN19ConsumerProducerCPP16ProducerKeyboradD2Ev:
 368              	.LFB43:
  25:src/user/test/ConsumerProducer_CPP_API_test.hpp ****         thread_data *td;
 369              		.loc 2 25 11 is_stmt 1
 370              		.cfi_startproc
 371              	.LVL33:
 372 0000 130101FF 		addi	sp,sp,-16
 373              		.cfi_def_cfa_offset 16
 374 0004 23341100 		sd	ra,8(sp)
 375 0008 23308100 		sd	s0,0(sp)
 376              		.cfi_offset 1, -8
 377              		.cfi_offset 8, -16
 378 000c 13040101 		addi	s0,sp,16
 379              		.cfi_def_cfa 8, 0
 380              	.LBB87:
  25:src/user/test/ConsumerProducer_CPP_API_test.hpp ****         thread_data *td;
 381              		.loc 2 25 11 is_stmt 0
 382 0010 97070000 		lla	a5,_ZTVN19ConsumerProducerCPP16ProducerKeyboradE+16
 382      93870700 
 383 0018 2330F500 		sd	a5,0(a0)
 384 001c 97000000 		call	_ZN6ThreadD2Ev
 384      E7800000 
 385              	.LVL34:
 386              	.LBE87:
 387 0024 83308100 		ld	ra,8(sp)
 388              		.cfi_restore 1
 389 0028 03340100 		ld	s0,0(sp)
 390              		.cfi_restore 8
 391              		.cfi_def_cfa 2, 16
 392 002c 13010101 		addi	sp,sp,16
 393              		.cfi_def_cfa_offset 0
 394 0030 67800000 		jr	ra
 395              		.cfi_endproc
 396              	.LFE43:
 398              		.weak	_ZN19ConsumerProducerCPP16ProducerKeyboradD1Ev
 399              		.set	_ZN19ConsumerProducerCPP16ProducerKeyboradD1Ev,_ZN19ConsumerProducerCPP16ProducerKeyboradD2Ev
 400              		.section	.text._ZN19ConsumerProducerCPP16ProducerKeyboradD0Ev,"axG",@progbits,_ZN19ConsumerProduce
 401              		.align	2
 402              		.weak	_ZN19ConsumerProducerCPP16ProducerKeyboradD0Ev
 404              	_ZN19ConsumerProducerCPP16ProducerKeyboradD0Ev:
 405              	.LFB45:
  25:src/user/test/ConsumerProducer_CPP_API_test.hpp ****         thread_data *td;
 406              		.loc 2 25 11 is_stmt 1
 407              		.cfi_startproc
 408              	.LVL35:
 409 0000 130101FE 		addi	sp,sp,-32
 410              		.cfi_def_cfa_offset 32
 411 0004 233C1100 		sd	ra,24(sp)
 412 0008 23388100 		sd	s0,16(sp)
 413 000c 23349100 		sd	s1,8(sp)
GAS LISTING /tmp/ccICFWVD.s 			page 11


 414              		.cfi_offset 1, -8
 415              		.cfi_offset 8, -16
 416              		.cfi_offset 9, -24
 417 0010 13040102 		addi	s0,sp,32
 418              		.cfi_def_cfa 8, 0
 419 0014 93040500 		mv	s1,a0
 420              	.LVL36:
 421              	.LBB88:
 422              	.LBB89:
  25:src/user/test/ConsumerProducer_CPP_API_test.hpp ****         thread_data *td;
 423              		.loc 2 25 11 is_stmt 0
 424 0018 97070000 		lla	a5,_ZTVN19ConsumerProducerCPP16ProducerKeyboradE+16
 424      93870700 
 425 0020 2330F500 		sd	a5,0(a0)
 426 0024 97000000 		call	_ZN6ThreadD2Ev
 426      E7800000 
 427              	.LVL37:
 428              	.LBE89:
 429              	.LBE88:
 430 002c 13850400 		mv	a0,s1
 431 0030 97000000 		call	_ZdlPv
 431      E7800000 
 432              	.LVL38:
 433 0038 83308101 		ld	ra,24(sp)
 434              		.cfi_restore 1
 435 003c 03340101 		ld	s0,16(sp)
 436              		.cfi_restore 8
 437              		.cfi_def_cfa 2, 32
 438 0040 83348100 		ld	s1,8(sp)
 439              		.cfi_restore 9
 440              	.LVL39:
 441 0044 13010102 		addi	sp,sp,32
 442              		.cfi_def_cfa_offset 0
 443 0048 67800000 		jr	ra
 444              		.cfi_endproc
 445              	.LFE45:
 447              		.section	.text._ZN19ConsumerProducerCPP8ProducerD2Ev,"axG",@progbits,_ZN19ConsumerProducerCPP8Prod
 448              		.align	2
 449              		.weak	_ZN19ConsumerProducerCPP8ProducerD2Ev
 451              	_ZN19ConsumerProducerCPP8ProducerD2Ev:
 452              	.LFB39:
  45:src/user/test/ConsumerProducer_CPP_API_test.hpp ****         thread_data *td;
 453              		.loc 2 45 11 is_stmt 1
 454              		.cfi_startproc
 455              	.LVL40:
 456 0000 130101FF 		addi	sp,sp,-16
 457              		.cfi_def_cfa_offset 16
 458 0004 23341100 		sd	ra,8(sp)
 459 0008 23308100 		sd	s0,0(sp)
 460              		.cfi_offset 1, -8
 461              		.cfi_offset 8, -16
 462 000c 13040101 		addi	s0,sp,16
 463              		.cfi_def_cfa 8, 0
 464              	.LBB90:
  45:src/user/test/ConsumerProducer_CPP_API_test.hpp ****         thread_data *td;
 465              		.loc 2 45 11 is_stmt 0
 466 0010 97070000 		lla	a5,_ZTVN19ConsumerProducerCPP8ProducerE+16
GAS LISTING /tmp/ccICFWVD.s 			page 12


 466      93870700 
 467 0018 2330F500 		sd	a5,0(a0)
 468 001c 97000000 		call	_ZN6ThreadD2Ev
 468      E7800000 
 469              	.LVL41:
 470              	.LBE90:
 471 0024 83308100 		ld	ra,8(sp)
 472              		.cfi_restore 1
 473 0028 03340100 		ld	s0,0(sp)
 474              		.cfi_restore 8
 475              		.cfi_def_cfa 2, 16
 476 002c 13010101 		addi	sp,sp,16
 477              		.cfi_def_cfa_offset 0
 478 0030 67800000 		jr	ra
 479              		.cfi_endproc
 480              	.LFE39:
 482              		.weak	_ZN19ConsumerProducerCPP8ProducerD1Ev
 483              		.set	_ZN19ConsumerProducerCPP8ProducerD1Ev,_ZN19ConsumerProducerCPP8ProducerD2Ev
 484              		.section	.text._ZN19ConsumerProducerCPP8ProducerD0Ev,"axG",@progbits,_ZN19ConsumerProducerCPP8Prod
 485              		.align	2
 486              		.weak	_ZN19ConsumerProducerCPP8ProducerD0Ev
 488              	_ZN19ConsumerProducerCPP8ProducerD0Ev:
 489              	.LFB41:
  45:src/user/test/ConsumerProducer_CPP_API_test.hpp ****         thread_data *td;
 490              		.loc 2 45 11 is_stmt 1
 491              		.cfi_startproc
 492              	.LVL42:
 493 0000 130101FE 		addi	sp,sp,-32
 494              		.cfi_def_cfa_offset 32
 495 0004 233C1100 		sd	ra,24(sp)
 496 0008 23388100 		sd	s0,16(sp)
 497 000c 23349100 		sd	s1,8(sp)
 498              		.cfi_offset 1, -8
 499              		.cfi_offset 8, -16
 500              		.cfi_offset 9, -24
 501 0010 13040102 		addi	s0,sp,32
 502              		.cfi_def_cfa 8, 0
 503 0014 93040500 		mv	s1,a0
 504              	.LVL43:
 505              	.LBB91:
 506              	.LBB92:
  45:src/user/test/ConsumerProducer_CPP_API_test.hpp ****         thread_data *td;
 507              		.loc 2 45 11 is_stmt 0
 508 0018 97070000 		lla	a5,_ZTVN19ConsumerProducerCPP8ProducerE+16
 508      93870700 
 509 0020 2330F500 		sd	a5,0(a0)
 510 0024 97000000 		call	_ZN6ThreadD2Ev
 510      E7800000 
 511              	.LVL44:
 512              	.LBE92:
 513              	.LBE91:
 514 002c 13850400 		mv	a0,s1
 515 0030 97000000 		call	_ZdlPv
 515      E7800000 
 516              	.LVL45:
 517 0038 83308101 		ld	ra,24(sp)
 518              		.cfi_restore 1
GAS LISTING /tmp/ccICFWVD.s 			page 13


 519 003c 03340101 		ld	s0,16(sp)
 520              		.cfi_restore 8
 521              		.cfi_def_cfa 2, 32
 522 0040 83348100 		ld	s1,8(sp)
 523              		.cfi_restore 9
 524              	.LVL46:
 525 0044 13010102 		addi	sp,sp,32
 526              		.cfi_def_cfa_offset 0
 527 0048 67800000 		jr	ra
 528              		.cfi_endproc
 529              	.LFE41:
 531              		.section	.text._ZN19ConsumerProducerCPP16ProducerKeyborad3runEv,"axG",@progbits,_ZN19ConsumerProdu
 532              		.align	2
 533              		.weak	_ZN19ConsumerProducerCPP16ProducerKeyborad3runEv
 535              	_ZN19ConsumerProducerCPP16ProducerKeyborad3runEv:
 536              	.LFB23:
  30:src/user/test/ConsumerProducer_CPP_API_test.hpp ****             int key;
 537              		.loc 2 30 14 is_stmt 1
 538              		.cfi_startproc
 539              	.LVL47:
 540 0000 130101FE 		addi	sp,sp,-32
 541              		.cfi_def_cfa_offset 32
 542 0004 233C1100 		sd	ra,24(sp)
 543 0008 23388100 		sd	s0,16(sp)
 544 000c 23349100 		sd	s1,8(sp)
 545              		.cfi_offset 1, -8
 546              		.cfi_offset 8, -16
 547              		.cfi_offset 9, -24
 548 0010 13040102 		addi	s0,sp,32
 549              		.cfi_def_cfa 8, 0
 550 0014 93040500 		mv	s1,a0
  31:src/user/test/ConsumerProducer_CPP_API_test.hpp ****             int i = 0;
 551              		.loc 2 31 13
  32:src/user/test/ConsumerProducer_CPP_API_test.hpp ****             while ((key = getc()) != 0x1b) {
 552              		.loc 2 32 13
 553              	.LVL48:
 554              	.L26:
  33:src/user/test/ConsumerProducer_CPP_API_test.hpp ****                 td->buffer->put(key);
 555              		.loc 2 33 13
  33:src/user/test/ConsumerProducer_CPP_API_test.hpp ****                 td->buffer->put(key);
 556              		.loc 2 33 31 is_stmt 0
 557 0018 97000000 		call	getc
 557      E7800000 
 558              	.LVL49:
  33:src/user/test/ConsumerProducer_CPP_API_test.hpp ****                 td->buffer->put(key);
 559              		.loc 2 33 25
 560 0020 9B050500 		sext.w	a1,a0
 561              	.LVL50:
  33:src/user/test/ConsumerProducer_CPP_API_test.hpp ****                 td->buffer->put(key);
 562              		.loc 2 33 35
 563 0024 9307B001 		li	a5,27
 564 0028 638CF500 		beq	a1,a5,.L25
  34:src/user/test/ConsumerProducer_CPP_API_test.hpp ****                 i++;
 565              		.loc 2 34 17 is_stmt 1
 566 002c 83B70401 		ld	a5,16(s1)
  34:src/user/test/ConsumerProducer_CPP_API_test.hpp ****                 i++;
 567              		.loc 2 34 32 is_stmt 0
GAS LISTING /tmp/ccICFWVD.s 			page 14


 568 0030 03B58700 		ld	a0,8(a5)
 569 0034 97000000 		call	_ZN9BufferCPP3putEi
 569      E7800000 
 570              	.LVL51:
  35:src/user/test/ConsumerProducer_CPP_API_test.hpp ****             }
 571              		.loc 2 35 17 is_stmt 1
  33:src/user/test/ConsumerProducer_CPP_API_test.hpp ****                 td->buffer->put(key);
 572              		.loc 2 33 13 is_stmt 0
 573 003c 6FF0DFFD 		j	.L26
 574              	.LVL52:
 575              	.L25:
  38:src/user/test/ConsumerProducer_CPP_API_test.hpp ****             td->buffer->put('!');
 576              		.loc 2 38 13 is_stmt 1
  38:src/user/test/ConsumerProducer_CPP_API_test.hpp ****             td->buffer->put('!');
 577              		.loc 2 38 23 is_stmt 0
 578 0040 93071000 		li	a5,1
 579 0044 17070000 		sw	a5,_ZN19ConsumerProducerCPP9threadEndE,a4
 579      2320F700 
  39:src/user/test/ConsumerProducer_CPP_API_test.hpp **** 
 580              		.loc 2 39 13 is_stmt 1
 581 004c 83B70401 		ld	a5,16(s1)
  39:src/user/test/ConsumerProducer_CPP_API_test.hpp **** 
 582              		.loc 2 39 28 is_stmt 0
 583 0050 93051002 		li	a1,33
 584              	.LVL53:
 585 0054 03B58700 		ld	a0,8(a5)
 586              	.LVL54:
 587 0058 97000000 		call	_ZN9BufferCPP3putEi
 587      E7800000 
 588              	.LVL55:
  41:src/user/test/ConsumerProducer_CPP_API_test.hpp ****         }
 589              		.loc 2 41 13 is_stmt 1
 590 0060 83B70401 		ld	a5,16(s1)
  41:src/user/test/ConsumerProducer_CPP_API_test.hpp ****         }
 591              		.loc 2 41 17 is_stmt 0
 592 0064 83B70701 		ld	a5,16(a5)
 593              	.LVL56:
 594              	.LBB93:
 595              	.LBB94:
  28:src/user/test/../../../h/syscall_cpp.hpp **** private:
 596              		.loc 1 28 21 is_stmt 1
  28:src/user/test/../../../h/syscall_cpp.hpp **** private:
 597              		.loc 1 28 31 is_stmt 0
 598 0068 03B58700 		ld	a0,8(a5)
 599 006c 97000000 		call	sem_signal
 599      E7800000 
 600              	.LVL57:
 601              	.LBE94:
 602              	.LBE93:
  42:src/user/test/ConsumerProducer_CPP_API_test.hpp ****     };
 603              		.loc 2 42 9
 604 0074 83308101 		ld	ra,24(sp)
 605              		.cfi_restore 1
 606 0078 03340101 		ld	s0,16(sp)
 607              		.cfi_restore 8
 608              		.cfi_def_cfa 2, 32
 609 007c 83348100 		ld	s1,8(sp)
GAS LISTING /tmp/ccICFWVD.s 			page 15


 610              		.cfi_restore 9
 611              	.LVL58:
 612 0080 13010102 		addi	sp,sp,32
 613              		.cfi_def_cfa_offset 0
 614 0084 67800000 		jr	ra
 615              		.cfi_endproc
 616              	.LFE23:
 618              		.section	.text._ZN19ConsumerProducerCPP8Producer3runEv,"axG",@progbits,_ZN19ConsumerProducerCPP8Pr
 619              		.align	2
 620              		.weak	_ZN19ConsumerProducerCPP8Producer3runEv
 622              	_ZN19ConsumerProducerCPP8Producer3runEv:
 623              	.LFB27:
  50:src/user/test/ConsumerProducer_CPP_API_test.hpp ****             int i = 0;
 624              		.loc 2 50 14 is_stmt 1
 625              		.cfi_startproc
 626              	.LVL59:
 627 0000 130101FE 		addi	sp,sp,-32
 628              		.cfi_def_cfa_offset 32
 629 0004 233C1100 		sd	ra,24(sp)
 630 0008 23388100 		sd	s0,16(sp)
 631 000c 23349100 		sd	s1,8(sp)
 632 0010 23302101 		sd	s2,0(sp)
 633              		.cfi_offset 1, -8
 634              		.cfi_offset 8, -16
 635              		.cfi_offset 9, -24
 636              		.cfi_offset 18, -32
 637 0014 13040102 		addi	s0,sp,32
 638              		.cfi_def_cfa 8, 0
 639 0018 93040500 		mv	s1,a0
  51:src/user/test/ConsumerProducer_CPP_API_test.hpp ****             while (!threadEnd) {
 640              		.loc 2 51 13
 641              	.LVL60:
  51:src/user/test/ConsumerProducer_CPP_API_test.hpp ****             while (!threadEnd) {
 642              		.loc 2 51 17 is_stmt 0
 643 001c 13090000 		li	s2,0
 644              	.LVL61:
 645              	.L30:
  52:src/user/test/ConsumerProducer_CPP_API_test.hpp ****                 td->buffer->put(td->id + '0');
 646              		.loc 2 52 13 is_stmt 1
  52:src/user/test/ConsumerProducer_CPP_API_test.hpp ****                 td->buffer->put(td->id + '0');
 647              		.loc 2 52 20 is_stmt 0
 648 0020 97070000 		lla	a5,_ZN19ConsumerProducerCPP9threadEndE
 648      93870700 
 649 0028 83A70700 		lw	a5,0(a5)
 650 002c 9B870700 		sext.w	a5,a5
 651 0030 63920704 		bne	a5,zero,.L29
  53:src/user/test/ConsumerProducer_CPP_API_test.hpp ****                 i++;
 652              		.loc 2 53 17 is_stmt 1
 653 0034 83B70401 		ld	a5,16(s1)
  53:src/user/test/ConsumerProducer_CPP_API_test.hpp ****                 i++;
 654              		.loc 2 53 37 is_stmt 0
 655 0038 83A50700 		lw	a1,0(a5)
  53:src/user/test/ConsumerProducer_CPP_API_test.hpp ****                 i++;
 656              		.loc 2 53 32
 657 003c 9B850503 		addiw	a1,a1,48
 658 0040 03B58700 		ld	a0,8(a5)
 659 0044 97000000 		call	_ZN9BufferCPP3putEi
GAS LISTING /tmp/ccICFWVD.s 			page 16


 659      E7800000 
 660              	.LVL62:
  54:src/user/test/ConsumerProducer_CPP_API_test.hpp ****                 Thread::sleep((i+td->id)%5);
 661              		.loc 2 54 17 is_stmt 1
  54:src/user/test/ConsumerProducer_CPP_API_test.hpp ****                 Thread::sleep((i+td->id)%5);
 662              		.loc 2 54 18 is_stmt 0
 663 004c 1B051900 		addiw	a0,s2,1
 664 0050 1B090500 		sext.w	s2,a0
 665              	.LVL63:
  55:src/user/test/ConsumerProducer_CPP_API_test.hpp ****             }
 666              		.loc 2 55 17 is_stmt 1
  55:src/user/test/ConsumerProducer_CPP_API_test.hpp ****             }
 667              		.loc 2 55 34 is_stmt 0
 668 0054 83B70401 		ld	a5,16(s1)
  55:src/user/test/ConsumerProducer_CPP_API_test.hpp ****             }
 669              		.loc 2 55 38
 670 0058 83A70700 		lw	a5,0(a5)
  55:src/user/test/ConsumerProducer_CPP_API_test.hpp ****             }
 671              		.loc 2 55 33
 672 005c BB87A700 		addw	a5,a5,a0
 673              	.LVL64:
 674              	.LBB95:
 675              	.LBB96:
  14:src/user/test/../../../h/syscall_cpp.hpp **** protected:
 676              		.loc 1 14 38 is_stmt 1
  14:src/user/test/../../../h/syscall_cpp.hpp **** protected:
 677              		.loc 1 14 48 is_stmt 0
 678 0060 13055000 		li	a0,5
 679              	.LVL65:
 680 0064 3BE5A702 		remw	a0,a5,a0
 681              	.LVL66:
 682 0068 97000000 		call	time_sleep
 682      E7800000 
 683              	.LVL67:
 684 0070 6FF01FFB 		j	.L30
 685              	.L29:
 686              	.LBE96:
 687              	.LBE95:
  58:src/user/test/ConsumerProducer_CPP_API_test.hpp ****         }
 688              		.loc 2 58 13 is_stmt 1
 689 0074 83B70401 		ld	a5,16(s1)
  58:src/user/test/ConsumerProducer_CPP_API_test.hpp ****         }
 690              		.loc 2 58 17 is_stmt 0
 691 0078 83B70701 		ld	a5,16(a5)
 692              	.LVL68:
 693              	.LBB97:
 694              	.LBB98:
  28:src/user/test/../../../h/syscall_cpp.hpp **** private:
 695              		.loc 1 28 21 is_stmt 1
  28:src/user/test/../../../h/syscall_cpp.hpp **** private:
 696              		.loc 1 28 31 is_stmt 0
 697 007c 03B58700 		ld	a0,8(a5)
 698 0080 97000000 		call	sem_signal
 698      E7800000 
 699              	.LVL69:
 700              	.LBE98:
 701              	.LBE97:
GAS LISTING /tmp/ccICFWVD.s 			page 17


  59:src/user/test/ConsumerProducer_CPP_API_test.hpp ****     };
 702              		.loc 2 59 9
 703 0088 83308101 		ld	ra,24(sp)
 704              		.cfi_restore 1
 705 008c 03340101 		ld	s0,16(sp)
 706              		.cfi_restore 8
 707              		.cfi_def_cfa 2, 32
 708 0090 83348100 		ld	s1,8(sp)
 709              		.cfi_restore 9
 710              	.LVL70:
 711 0094 03390100 		ld	s2,0(sp)
 712              		.cfi_restore 18
 713              	.LVL71:
 714 0098 13010102 		addi	sp,sp,32
 715              		.cfi_def_cfa_offset 0
 716 009c 67800000 		jr	ra
 717              		.cfi_endproc
 718              	.LFE27:
 720              		.text
 721              		.align	2
 722              		.globl	_ZN19ConsumerProducerCPP20testConsumerProducerEv
 724              	_ZN19ConsumerProducerCPP20testConsumerProducerEv:
 725              	.LFB32:
  87:src/user/test/ConsumerProducer_CPP_API_test.hpp ****     };
  88:src/user/test/ConsumerProducer_CPP_API_test.hpp **** 
  89:src/user/test/ConsumerProducer_CPP_API_test.hpp ****     void testConsumerProducer() {
 726              		.loc 2 89 33 is_stmt 1
 727              		.cfi_startproc
 728              		.cfi_personality 0x9b,DW.ref.__gxx_personality_v0
 729              		.cfi_lsda 0x1b,.LLSDA32
 730 0000 130101F9 		addi	sp,sp,-112
 731              		.cfi_def_cfa_offset 112
 732 0004 23341106 		sd	ra,104(sp)
 733 0008 23308106 		sd	s0,96(sp)
 734 000c 233C9104 		sd	s1,88(sp)
 735 0010 23382105 		sd	s2,80(sp)
 736 0014 23343105 		sd	s3,72(sp)
 737 0018 23304105 		sd	s4,64(sp)
 738 001c 233C5103 		sd	s5,56(sp)
 739 0020 23386103 		sd	s6,48(sp)
 740 0024 23347103 		sd	s7,40(sp)
 741 0028 23308103 		sd	s8,32(sp)
 742              		.cfi_offset 1, -8
 743              		.cfi_offset 8, -16
 744              		.cfi_offset 9, -24
 745              		.cfi_offset 18, -32
 746              		.cfi_offset 19, -40
 747              		.cfi_offset 20, -48
 748              		.cfi_offset 21, -56
 749              		.cfi_offset 22, -64
 750              		.cfi_offset 23, -72
 751              		.cfi_offset 24, -80
 752 002c 13040107 		addi	s0,sp,112
 753              		.cfi_def_cfa 8, 0
  90:src/user/test/ConsumerProducer_CPP_API_test.hpp ****         char input[30];
  91:src/user/test/ConsumerProducer_CPP_API_test.hpp ****         int n, threadNum;
  92:src/user/test/ConsumerProducer_CPP_API_test.hpp **** 
GAS LISTING /tmp/ccICFWVD.s 			page 18


  93:src/user/test/ConsumerProducer_CPP_API_test.hpp ****         printString("Unesite broj proizvodjaca?\n");
  94:src/user/test/ConsumerProducer_CPP_API_test.hpp ****         getString(input, 30);
  95:src/user/test/ConsumerProducer_CPP_API_test.hpp ****         threadNum = stringToInt(input);
  96:src/user/test/ConsumerProducer_CPP_API_test.hpp **** 
  97:src/user/test/ConsumerProducer_CPP_API_test.hpp ****         printString("Unesite velicinu bafera?\n");
  98:src/user/test/ConsumerProducer_CPP_API_test.hpp ****         getString(input, 30);
  99:src/user/test/ConsumerProducer_CPP_API_test.hpp ****         n = stringToInt(input);
 100:src/user/test/ConsumerProducer_CPP_API_test.hpp **** 
 101:src/user/test/ConsumerProducer_CPP_API_test.hpp ****         printString("Broj proizvodjaca "); printInt(threadNum);
 102:src/user/test/ConsumerProducer_CPP_API_test.hpp ****         printString(" i velicina bafera "); printInt(n);
 103:src/user/test/ConsumerProducer_CPP_API_test.hpp ****         printString(".\n");
 104:src/user/test/ConsumerProducer_CPP_API_test.hpp **** 
 105:src/user/test/ConsumerProducer_CPP_API_test.hpp ****         if(threadNum > n) {
 106:src/user/test/ConsumerProducer_CPP_API_test.hpp ****             printString("Broj proizvodjaca ne sme biti manji od velicine bafera!\n");
 107:src/user/test/ConsumerProducer_CPP_API_test.hpp ****             return;
 108:src/user/test/ConsumerProducer_CPP_API_test.hpp ****         } else if (threadNum < 1) {
 109:src/user/test/ConsumerProducer_CPP_API_test.hpp ****             printString("Broj proizvodjaca mora biti veci od nula!\n");
 110:src/user/test/ConsumerProducer_CPP_API_test.hpp ****             return;
 111:src/user/test/ConsumerProducer_CPP_API_test.hpp ****         }
 112:src/user/test/ConsumerProducer_CPP_API_test.hpp **** 
 113:src/user/test/ConsumerProducer_CPP_API_test.hpp ****         BufferCPP *buffer = new BufferCPP(n);
 114:src/user/test/ConsumerProducer_CPP_API_test.hpp **** 
 115:src/user/test/ConsumerProducer_CPP_API_test.hpp ****         waitForAll = new Semaphore(0);
 116:src/user/test/ConsumerProducer_CPP_API_test.hpp ****         Thread *producers[threadNum];
 117:src/user/test/ConsumerProducer_CPP_API_test.hpp ****         thread_data threadData[threadNum + 1];
 118:src/user/test/ConsumerProducer_CPP_API_test.hpp **** 
 119:src/user/test/ConsumerProducer_CPP_API_test.hpp ****         threadData[threadNum].id = threadNum;
 120:src/user/test/ConsumerProducer_CPP_API_test.hpp ****         threadData[threadNum].buffer = buffer;
 121:src/user/test/ConsumerProducer_CPP_API_test.hpp ****         threadData[threadNum].sem = waitForAll;
 122:src/user/test/ConsumerProducer_CPP_API_test.hpp ****         Thread *consumer = new Consumer(&threadData[threadNum]);
 123:src/user/test/ConsumerProducer_CPP_API_test.hpp ****         consumer->start();
 124:src/user/test/ConsumerProducer_CPP_API_test.hpp **** 
 125:src/user/test/ConsumerProducer_CPP_API_test.hpp ****         threadData[0].id = 0;
 126:src/user/test/ConsumerProducer_CPP_API_test.hpp ****         threadData[0].buffer = buffer;
 127:src/user/test/ConsumerProducer_CPP_API_test.hpp ****         threadData[0].sem = waitForAll;
 128:src/user/test/ConsumerProducer_CPP_API_test.hpp ****         producers[0] = new ProducerKeyborad(&threadData[0]);
 129:src/user/test/ConsumerProducer_CPP_API_test.hpp ****         producers[0]->start();
 130:src/user/test/ConsumerProducer_CPP_API_test.hpp **** 
 131:src/user/test/ConsumerProducer_CPP_API_test.hpp ****         for (int i = 1; i < threadNum; i++) {
 132:src/user/test/ConsumerProducer_CPP_API_test.hpp ****             threadData[i].id = i;
 133:src/user/test/ConsumerProducer_CPP_API_test.hpp ****             threadData[i].buffer = buffer;
 134:src/user/test/ConsumerProducer_CPP_API_test.hpp ****             threadData[i].sem = waitForAll;
 135:src/user/test/ConsumerProducer_CPP_API_test.hpp **** 
 136:src/user/test/ConsumerProducer_CPP_API_test.hpp ****             producers[i] = new Producer(&threadData[i]);
 137:src/user/test/ConsumerProducer_CPP_API_test.hpp ****             producers[i]->start();
 138:src/user/test/ConsumerProducer_CPP_API_test.hpp **** 
 139:src/user/test/ConsumerProducer_CPP_API_test.hpp ****         }
 140:src/user/test/ConsumerProducer_CPP_API_test.hpp **** 
 141:src/user/test/ConsumerProducer_CPP_API_test.hpp ****         Thread::dispatch();
 142:src/user/test/ConsumerProducer_CPP_API_test.hpp **** 
 143:src/user/test/ConsumerProducer_CPP_API_test.hpp ****         for (int i = 0; i <= threadNum; i++) {
 144:src/user/test/ConsumerProducer_CPP_API_test.hpp ****             waitForAll->wait();
 145:src/user/test/ConsumerProducer_CPP_API_test.hpp ****         }
 146:src/user/test/ConsumerProducer_CPP_API_test.hpp **** 
 147:src/user/test/ConsumerProducer_CPP_API_test.hpp ****         delete waitForAll;
 148:src/user/test/ConsumerProducer_CPP_API_test.hpp ****         for (int i = 0; i < threadNum; i++) {
 149:src/user/test/ConsumerProducer_CPP_API_test.hpp ****             delete producers[i];
GAS LISTING /tmp/ccICFWVD.s 			page 19


 150:src/user/test/ConsumerProducer_CPP_API_test.hpp ****         }
 151:src/user/test/ConsumerProducer_CPP_API_test.hpp ****         delete consumer;
 152:src/user/test/ConsumerProducer_CPP_API_test.hpp ****         delete buffer;
 754              		.loc 2 152 22 is_stmt 0
 755 0030 930B0100 		mv	s7,sp
  90:src/user/test/ConsumerProducer_CPP_API_test.hpp ****         char input[30];
 756              		.loc 2 90 9 is_stmt 1
  91:src/user/test/ConsumerProducer_CPP_API_test.hpp **** 
 757              		.loc 2 91 9
  93:src/user/test/ConsumerProducer_CPP_API_test.hpp ****         getString(input, 30);
 758              		.loc 2 93 9
  93:src/user/test/ConsumerProducer_CPP_API_test.hpp ****         getString(input, 30);
 759              		.loc 2 93 20 is_stmt 0
 760 0034 17050000 		lla	a0,.LC0
 760      13050500 
 761              	.LEHB1:
 762 003c 97000000 		call	_Z11printStringPKc
 762      E7800000 
 763              	.LVL72:
  94:src/user/test/ConsumerProducer_CPP_API_test.hpp ****         threadNum = stringToInt(input);
 764              		.loc 2 94 9 is_stmt 1
  94:src/user/test/ConsumerProducer_CPP_API_test.hpp ****         threadNum = stringToInt(input);
 765              		.loc 2 94 18 is_stmt 0
 766 0044 9305E001 		li	a1,30
 767 0048 130504F9 		addi	a0,s0,-112
 768 004c 97000000 		call	_Z9getStringPci
 768      E7800000 
 769              	.LVL73:
  95:src/user/test/ConsumerProducer_CPP_API_test.hpp **** 
 770              		.loc 2 95 9 is_stmt 1
  95:src/user/test/ConsumerProducer_CPP_API_test.hpp **** 
 771              		.loc 2 95 32 is_stmt 0
 772 0054 130504F9 		addi	a0,s0,-112
 773 0058 97000000 		call	_Z11stringToIntPKc
 773      E7800000 
 774              	.LVL74:
 775 0060 93090500 		mv	s3,a0
 776              	.LVL75:
  97:src/user/test/ConsumerProducer_CPP_API_test.hpp ****         getString(input, 30);
 777              		.loc 2 97 9 is_stmt 1
  97:src/user/test/ConsumerProducer_CPP_API_test.hpp ****         getString(input, 30);
 778              		.loc 2 97 20 is_stmt 0
 779 0064 17050000 		lla	a0,.LC1
 779      13050500 
 780 006c 97000000 		call	_Z11printStringPKc
 780      E7800000 
 781              	.LVL76:
  98:src/user/test/ConsumerProducer_CPP_API_test.hpp ****         n = stringToInt(input);
 782              		.loc 2 98 9 is_stmt 1
  98:src/user/test/ConsumerProducer_CPP_API_test.hpp ****         n = stringToInt(input);
 783              		.loc 2 98 18 is_stmt 0
 784 0074 9305E001 		li	a1,30
 785 0078 130504F9 		addi	a0,s0,-112
 786 007c 97000000 		call	_Z9getStringPci
 786      E7800000 
 787              	.LVL77:
  99:src/user/test/ConsumerProducer_CPP_API_test.hpp **** 
GAS LISTING /tmp/ccICFWVD.s 			page 20


 788              		.loc 2 99 9 is_stmt 1
  99:src/user/test/ConsumerProducer_CPP_API_test.hpp **** 
 789              		.loc 2 99 24 is_stmt 0
 790 0084 130504F9 		addi	a0,s0,-112
 791 0088 97000000 		call	_Z11stringToIntPKc
 791      E7800000 
 792              	.LVL78:
 793 0090 93040500 		mv	s1,a0
 794              	.LVL79:
 101:src/user/test/ConsumerProducer_CPP_API_test.hpp ****         printString(" i velicina bafera "); printInt(n);
 795              		.loc 2 101 9 is_stmt 1
 101:src/user/test/ConsumerProducer_CPP_API_test.hpp ****         printString(" i velicina bafera "); printInt(n);
 796              		.loc 2 101 20 is_stmt 0
 797 0094 17050000 		lla	a0,.LC2
 797      13050500 
 798 009c 97000000 		call	_Z11printStringPKc
 798      E7800000 
 799              	.LVL80:
 101:src/user/test/ConsumerProducer_CPP_API_test.hpp ****         printString(" i velicina bafera "); printInt(n);
 800              		.loc 2 101 44 is_stmt 1
 101:src/user/test/ConsumerProducer_CPP_API_test.hpp ****         printString(" i velicina bafera "); printInt(n);
 801              		.loc 2 101 52 is_stmt 0
 802 00a4 9305A000 		li	a1,10
 803 00a8 13850900 		mv	a0,s3
 804 00ac 97000000 		call	_Z8printIntmi
 804      E7800000 
 805              	.LVL81:
 102:src/user/test/ConsumerProducer_CPP_API_test.hpp ****         printString(".\n");
 806              		.loc 2 102 9 is_stmt 1
 102:src/user/test/ConsumerProducer_CPP_API_test.hpp ****         printString(".\n");
 807              		.loc 2 102 20 is_stmt 0
 808 00b4 17050000 		lla	a0,.LC3
 808      13050500 
 809 00bc 97000000 		call	_Z11printStringPKc
 809      E7800000 
 810              	.LVL82:
 102:src/user/test/ConsumerProducer_CPP_API_test.hpp ****         printString(".\n");
 811              		.loc 2 102 45 is_stmt 1
 102:src/user/test/ConsumerProducer_CPP_API_test.hpp ****         printString(".\n");
 812              		.loc 2 102 53 is_stmt 0
 813 00c4 9305A000 		li	a1,10
 814 00c8 13850400 		mv	a0,s1
 815 00cc 97000000 		call	_Z8printIntmi
 815      E7800000 
 816              	.LVL83:
 103:src/user/test/ConsumerProducer_CPP_API_test.hpp **** 
 817              		.loc 2 103 9 is_stmt 1
 103:src/user/test/ConsumerProducer_CPP_API_test.hpp **** 
 818              		.loc 2 103 20 is_stmt 0
 819 00d4 17050000 		lla	a0,.LC4
 819      13050500 
 820 00dc 97000000 		call	_Z11printStringPKc
 820      E7800000 
 821              	.LVL84:
 105:src/user/test/ConsumerProducer_CPP_API_test.hpp ****             printString("Broj proizvodjaca ne sme biti manji od velicine bafera!\n");
 822              		.loc 2 105 9 is_stmt 1
 823 00e4 63C43403 		bgt	s3,s1,.L52
GAS LISTING /tmp/ccICFWVD.s 			page 21


 108:src/user/test/ConsumerProducer_CPP_API_test.hpp ****             printString("Broj proizvodjaca mora biti veci od nula!\n");
 824              		.loc 2 108 16
 825 00e8 635C3003 		ble	s3,zero,.L53
 113:src/user/test/ConsumerProducer_CPP_API_test.hpp **** 
 826              		.loc 2 113 9
 113:src/user/test/ConsumerProducer_CPP_API_test.hpp **** 
 827              		.loc 2 113 44 is_stmt 0
 828 00ec 13058003 		li	a0,56
 829 00f0 97000000 		call	_Znwm
 829      E7800000 
 830              	.LVL85:
 831              	.LEHE1:
 832 00f8 930A0500 		mv	s5,a0
 833 00fc 93850400 		mv	a1,s1
 834              	.LEHB2:
 835 0100 97000000 		call	_ZN9BufferCPPC1Ei
 835      E7800000 
 836              	.LVL86:
 837              	.LEHE2:
 838 0108 6F000003 		j	.L54
 839              	.L52:
 106:src/user/test/ConsumerProducer_CPP_API_test.hpp ****             return;
 840              		.loc 2 106 13 is_stmt 1
 106:src/user/test/ConsumerProducer_CPP_API_test.hpp ****             return;
 841              		.loc 2 106 24 is_stmt 0
 842 010c 17050000 		lla	a0,.LC5
 842      13050500 
 843              	.LEHB3:
 844 0114 97000000 		call	_Z11printStringPKc
 844      E7800000 
 845              	.LVL87:
 107:src/user/test/ConsumerProducer_CPP_API_test.hpp ****         } else if (threadNum < 1) {
 846              		.loc 2 107 13 is_stmt 1
 847 011c 6F004001 		j	.L34
 848              	.L53:
 109:src/user/test/ConsumerProducer_CPP_API_test.hpp ****             return;
 849              		.loc 2 109 13
 109:src/user/test/ConsumerProducer_CPP_API_test.hpp ****             return;
 850              		.loc 2 109 24 is_stmt 0
 851 0120 17050000 		lla	a0,.LC6
 851      13050500 
 852 0128 97000000 		call	_Z11printStringPKc
 852      E7800000 
 853              	.LVL88:
 110:src/user/test/ConsumerProducer_CPP_API_test.hpp ****         }
 854              		.loc 2 110 13 is_stmt 1
 855              	.L34:
 856 0130 13810B00 		mv	sp,s7
 857 0134 6F004021 		j	.L32
 858              	.L54:
 859              	.LVL89:
 115:src/user/test/ConsumerProducer_CPP_API_test.hpp ****         Thread *producers[threadNum];
 860              		.loc 2 115 9 discriminator 3
 115:src/user/test/ConsumerProducer_CPP_API_test.hpp ****         Thread *producers[threadNum];
 861              		.loc 2 115 37 is_stmt 0 discriminator 3
 862 0138 13050001 		li	a0,16
 863 013c 97000000 		call	_Znwm
GAS LISTING /tmp/ccICFWVD.s 			page 22


 863      E7800000 
 864              	.LVL90:
 865              	.LEHE3:
 866 0144 93040500 		mv	s1,a0
 867              	.LVL91:
 868              	.LBB99:
 869              	.LBB100:
  25:src/user/test/../../../h/syscall_cpp.hpp ****     virtual ~Semaphore (){ sem_close(myHandle); }
 870              		.loc 1 25 35 discriminator 3
 871 0148 97070000 		lla	a5,_ZTV9Semaphore+16
 871      93870700 
 872 0150 2330F500 		sd	a5,0(a0)
  25:src/user/test/../../../h/syscall_cpp.hpp ****     virtual ~Semaphore (){ sem_close(myHandle); }
 873              		.loc 1 25 37 is_stmt 1 discriminator 3
  25:src/user/test/../../../h/syscall_cpp.hpp ****     virtual ~Semaphore (){ sem_close(myHandle); }
 874              		.loc 1 25 45 is_stmt 0 discriminator 3
 875 0154 93050000 		li	a1,0
 876 0158 13058500 		addi	a0,a0,8
 877              	.LEHB4:
 878 015c 97000000 		call	sem_open
 878      E7800000 
 879              	.LVL92:
 880              	.LEHE4:
 881              	.LBE100:
 882              	.LBE99:
 115:src/user/test/ConsumerProducer_CPP_API_test.hpp ****         Thread *producers[threadNum];
 883              		.loc 2 115 20 discriminator 3
 884 0164 17090000 		lla	s2,_ZN19ConsumerProducerCPP10waitForAllE
 884      13090900 
 885 016c 23309900 		sd	s1,0(s2)
 116:src/user/test/ConsumerProducer_CPP_API_test.hpp ****         thread_data threadData[threadNum + 1];
 886              		.loc 2 116 9 is_stmt 1 discriminator 3
 887              	.LVL93:
 116:src/user/test/ConsumerProducer_CPP_API_test.hpp ****         thread_data threadData[threadNum + 1];
 888              		.loc 2 116 17 is_stmt 0 discriminator 3
 889 0170 93973900 		slli	a5,s3,3
 890 0174 9387F700 		addi	a5,a5,15
 891 0178 93F707FF 		andi	a5,a5,-16
 892 017c 3301F140 		sub	sp,sp,a5
 893 0180 130A0100 		mv	s4,sp
 894              	.LVL94:
 117:src/user/test/ConsumerProducer_CPP_API_test.hpp **** 
 895              		.loc 2 117 9 is_stmt 1 discriminator 3
 117:src/user/test/ConsumerProducer_CPP_API_test.hpp **** 
 896              		.loc 2 117 42 is_stmt 0 discriminator 3
 897 0184 9B871900 		addiw	a5,s3,1
 898              	.LVL95:
 117:src/user/test/ConsumerProducer_CPP_API_test.hpp **** 
 899              		.loc 2 117 21 discriminator 3
 900 0188 13971700 		slli	a4,a5,1
 901 018c 3307F700 		add	a4,a4,a5
 902 0190 93173700 		slli	a5,a4,3
 903 0194 9387F700 		addi	a5,a5,15
 904 0198 93F707FF 		andi	a5,a5,-16
 905 019c 3301F140 		sub	sp,sp,a5
 906              	.LVL96:
 907 01a0 130C0100 		mv	s8,sp
GAS LISTING /tmp/ccICFWVD.s 			page 23


 908              	.LVL97:
 119:src/user/test/ConsumerProducer_CPP_API_test.hpp ****         threadData[threadNum].buffer = buffer;
 909              		.loc 2 119 9 is_stmt 1 discriminator 3
 119:src/user/test/ConsumerProducer_CPP_API_test.hpp ****         threadData[threadNum].buffer = buffer;
 910              		.loc 2 119 34 is_stmt 0 discriminator 3
 911 01a4 93971900 		slli	a5,s3,1
 912 01a8 B3873701 		add	a5,a5,s3
 913 01ac 93943700 		slli	s1,a5,3
 914 01b0 B3049C00 		add	s1,s8,s1
 915 01b4 23A03401 		sw	s3,0(s1)
 120:src/user/test/ConsumerProducer_CPP_API_test.hpp ****         threadData[threadNum].sem = waitForAll;
 916              		.loc 2 120 9 is_stmt 1 discriminator 3
 120:src/user/test/ConsumerProducer_CPP_API_test.hpp ****         threadData[threadNum].sem = waitForAll;
 917              		.loc 2 120 38 is_stmt 0 discriminator 3
 918 01b8 23B45401 		sd	s5,8(s1)
 121:src/user/test/ConsumerProducer_CPP_API_test.hpp ****         Thread *consumer = new Consumer(&threadData[threadNum]);
 919              		.loc 2 121 9 is_stmt 1 discriminator 3
 121:src/user/test/ConsumerProducer_CPP_API_test.hpp ****         Thread *consumer = new Consumer(&threadData[threadNum]);
 920              		.loc 2 121 35 is_stmt 0 discriminator 3
 921 01bc 83370900 		ld	a5,0(s2)
 922 01c0 23B8F400 		sd	a5,16(s1)
 122:src/user/test/ConsumerProducer_CPP_API_test.hpp ****         consumer->start();
 923              		.loc 2 122 9 is_stmt 1 discriminator 3
 122:src/user/test/ConsumerProducer_CPP_API_test.hpp ****         consumer->start();
 924              		.loc 2 122 63 is_stmt 0 discriminator 3
 925 01c4 13058001 		li	a0,24
 926              	.LEHB5:
 927 01c8 97000000 		call	_Znwm
 927      E7800000 
 928              	.LVL98:
 929 01d0 130B0500 		mv	s6,a0
 930              	.LVL99:
 931              	.LBB101:
 932              	.LBB102:
 933              	.LBB103:
 934              	.LBB104:
  16:src/user/test/../../../h/syscall_cpp.hpp ****     virtual void run () {}
 935              		.loc 1 16 16 is_stmt 1 discriminator 3
  16:src/user/test/../../../h/syscall_cpp.hpp ****     virtual void run () {}
 936              		.loc 1 16 25 is_stmt 0 discriminator 3
 937 01d4 23340500 		sd	zero,8(a0)
 938              	.LVL100:
 939              	.LBE104:
 940              	.LBE103:
  65:src/user/test/ConsumerProducer_CPP_API_test.hpp **** 
 941              		.loc 2 65 54 discriminator 3
 942 01d8 97070000 		lla	a5,_ZTVN19ConsumerProducerCPP8ConsumerE+16
 942      93870700 
 943 01e0 2330F500 		sd	a5,0(a0)
 944 01e4 23389500 		sd	s1,16(a0)
 945              	.LVL101:
 946              	.LBE102:
 947              	.LBE101:
 123:src/user/test/ConsumerProducer_CPP_API_test.hpp **** 
 948              		.loc 2 123 9 is_stmt 1 discriminator 3
 123:src/user/test/ConsumerProducer_CPP_API_test.hpp **** 
 949              		.loc 2 123 24 is_stmt 0 discriminator 3
GAS LISTING /tmp/ccICFWVD.s 			page 24


 950 01e8 97000000 		call	_ZN6Thread5startEv
 950      E7800000 
 951              	.LVL102:
 125:src/user/test/ConsumerProducer_CPP_API_test.hpp ****         threadData[0].buffer = buffer;
 952              		.loc 2 125 9 is_stmt 1 discriminator 3
 125:src/user/test/ConsumerProducer_CPP_API_test.hpp ****         threadData[0].buffer = buffer;
 953              		.loc 2 125 26 is_stmt 0 discriminator 3
 954 01f0 23200C00 		sw	zero,0(s8)
 126:src/user/test/ConsumerProducer_CPP_API_test.hpp ****         threadData[0].sem = waitForAll;
 955              		.loc 2 126 9 is_stmt 1 discriminator 3
 126:src/user/test/ConsumerProducer_CPP_API_test.hpp ****         threadData[0].sem = waitForAll;
 956              		.loc 2 126 30 is_stmt 0 discriminator 3
 957 01f4 23345C01 		sd	s5,8(s8)
 127:src/user/test/ConsumerProducer_CPP_API_test.hpp ****         producers[0] = new ProducerKeyborad(&threadData[0]);
 958              		.loc 2 127 9 is_stmt 1 discriminator 3
 127:src/user/test/ConsumerProducer_CPP_API_test.hpp ****         producers[0] = new ProducerKeyborad(&threadData[0]);
 959              		.loc 2 127 27 is_stmt 0 discriminator 3
 960 01f8 83370900 		ld	a5,0(s2)
 961 01fc 2338FC00 		sd	a5,16(s8)
 128:src/user/test/ConsumerProducer_CPP_API_test.hpp ****         producers[0]->start();
 962              		.loc 2 128 9 is_stmt 1 discriminator 3
 128:src/user/test/ConsumerProducer_CPP_API_test.hpp ****         producers[0]->start();
 963              		.loc 2 128 59 is_stmt 0 discriminator 3
 964 0200 13058001 		li	a0,24
 965 0204 97000000 		call	_Znwm
 965      E7800000 
 966              	.LVL103:
 967              	.LBB105:
 968              	.LBB106:
 969              	.LBB107:
 970              	.LBB108:
  16:src/user/test/../../../h/syscall_cpp.hpp ****     virtual void run () {}
 971              		.loc 1 16 16 is_stmt 1 discriminator 3
  16:src/user/test/../../../h/syscall_cpp.hpp ****     virtual void run () {}
 972              		.loc 1 16 25 is_stmt 0 discriminator 3
 973 020c 23340500 		sd	zero,8(a0)
 974              	.LVL104:
 975              	.LBE108:
 976              	.LBE107:
  28:src/user/test/ConsumerProducer_CPP_API_test.hpp **** 
 977              		.loc 2 28 62 discriminator 3
 978 0210 17070000 		lla	a4,_ZTVN19ConsumerProducerCPP16ProducerKeyboradE+16
 978      13070700 
 979 0218 2330E500 		sd	a4,0(a0)
 980 021c 23388501 		sd	s8,16(a0)
 981              	.LVL105:
 982              	.LBE106:
 983              	.LBE105:
 128:src/user/test/ConsumerProducer_CPP_API_test.hpp ****         producers[0]->start();
 984              		.loc 2 128 22 discriminator 3
 985 0220 2330AA00 		sd	a0,0(s4)
 129:src/user/test/ConsumerProducer_CPP_API_test.hpp **** 
 986              		.loc 2 129 9 is_stmt 1 discriminator 3
 129:src/user/test/ConsumerProducer_CPP_API_test.hpp **** 
 987              		.loc 2 129 28 is_stmt 0 discriminator 3
 988 0224 97000000 		call	_ZN6Thread5startEv
 988      E7800000 
GAS LISTING /tmp/ccICFWVD.s 			page 25


 989              	.LVL106:
 990              	.LBB109:
 131:src/user/test/ConsumerProducer_CPP_API_test.hpp ****             threadData[i].id = i;
 991              		.loc 2 131 18 discriminator 3
 992 022c 13091000 		li	s2,1
 993              	.L37:
 994              	.LVL107:
 131:src/user/test/ConsumerProducer_CPP_API_test.hpp ****             threadData[i].id = i;
 995              		.loc 2 131 27 discriminator 1
 996 0230 63543907 		bge	s2,s3,.L36
 132:src/user/test/ConsumerProducer_CPP_API_test.hpp ****             threadData[i].buffer = buffer;
 997              		.loc 2 132 13 is_stmt 1
 132:src/user/test/ConsumerProducer_CPP_API_test.hpp ****             threadData[i].buffer = buffer;
 998              		.loc 2 132 30 is_stmt 0
 999 0234 93171900 		slli	a5,s2,1
 1000 0238 B3872701 		add	a5,a5,s2
 1001 023c 93943700 		slli	s1,a5,3
 1002 0240 B3049C00 		add	s1,s8,s1
 1003 0244 23A02401 		sw	s2,0(s1)
 133:src/user/test/ConsumerProducer_CPP_API_test.hpp ****             threadData[i].sem = waitForAll;
 1004              		.loc 2 133 13 is_stmt 1
 133:src/user/test/ConsumerProducer_CPP_API_test.hpp ****             threadData[i].sem = waitForAll;
 1005              		.loc 2 133 34 is_stmt 0
 1006 0248 23B45401 		sd	s5,8(s1)
 134:src/user/test/ConsumerProducer_CPP_API_test.hpp **** 
 1007              		.loc 2 134 13 is_stmt 1
 134:src/user/test/ConsumerProducer_CPP_API_test.hpp **** 
 1008              		.loc 2 134 31 is_stmt 0
 1009 024c 97070000 		lla	a5,_ZN19ConsumerProducerCPP10waitForAllE
 1009      93870700 
 1010 0254 83B70700 		ld	a5,0(a5)
 1011 0258 23B8F400 		sd	a5,16(s1)
 136:src/user/test/ConsumerProducer_CPP_API_test.hpp ****             producers[i]->start();
 1012              		.loc 2 136 13 is_stmt 1
 136:src/user/test/ConsumerProducer_CPP_API_test.hpp ****             producers[i]->start();
 1013              		.loc 2 136 55 is_stmt 0
 1014 025c 13058001 		li	a0,24
 1015 0260 97000000 		call	_Znwm
 1015      E7800000 
 1016              	.LVL108:
 1017              	.LBB110:
 1018              	.LBB111:
 1019              	.LBB112:
 1020              	.LBB113:
  16:src/user/test/../../../h/syscall_cpp.hpp ****     virtual void run () {}
 1021              		.loc 1 16 16 is_stmt 1
  16:src/user/test/../../../h/syscall_cpp.hpp ****     virtual void run () {}
 1022              		.loc 1 16 25 is_stmt 0
 1023 0268 23340500 		sd	zero,8(a0)
 1024              	.LVL109:
 1025              	.LBE113:
 1026              	.LBE112:
  48:src/user/test/ConsumerProducer_CPP_API_test.hpp **** 
 1027              		.loc 2 48 54
 1028 026c 17070000 		lla	a4,_ZTVN19ConsumerProducerCPP8ProducerE+16
 1028      13070700 
 1029 0274 2330E500 		sd	a4,0(a0)
GAS LISTING /tmp/ccICFWVD.s 			page 26


 1030 0278 23389500 		sd	s1,16(a0)
 1031              	.LVL110:
 1032              	.LBE111:
 1033              	.LBE110:
 136:src/user/test/ConsumerProducer_CPP_API_test.hpp ****             producers[i]->start();
 1034              		.loc 2 136 26
 1035 027c 13173900 		slli	a4,s2,3
 1036 0280 3307EA00 		add	a4,s4,a4
 1037 0284 2330A700 		sd	a0,0(a4)
 137:src/user/test/ConsumerProducer_CPP_API_test.hpp **** 
 1038              		.loc 2 137 13 is_stmt 1
 137:src/user/test/ConsumerProducer_CPP_API_test.hpp **** 
 1039              		.loc 2 137 32 is_stmt 0
 1040 0288 97000000 		call	_ZN6Thread5startEv
 1040      E7800000 
 1041              	.LVL111:
 131:src/user/test/ConsumerProducer_CPP_API_test.hpp ****             threadData[i].id = i;
 1042              		.loc 2 131 9
 1043 0290 1B091900 		addiw	s2,s2,1
 1044              	.LVL112:
 1045 0294 6FF0DFF9 		j	.L37
 1046              	.LVL113:
 1047              	.L36:
 1048              	.LBE109:
 141:src/user/test/ConsumerProducer_CPP_API_test.hpp **** 
 1049              		.loc 2 141 9 is_stmt 1
 1050              	.LBB114:
 1051              	.LBB115:
  13:src/user/test/../../../h/syscall_cpp.hpp ****     static void sleep (time_t time){ time_sleep(time); }
 1052              		.loc 1 13 31
  13:src/user/test/../../../h/syscall_cpp.hpp ****     static void sleep (time_t time){ time_sleep(time); }
 1053              		.loc 1 13 46 is_stmt 0
 1054 0298 97000000 		call	thread_dispatch
 1054      E7800000 
 1055              	.LVL114:
 1056              	.LBE115:
 1057              	.LBE114:
 1058              	.LBB116:
 143:src/user/test/ConsumerProducer_CPP_API_test.hpp ****             waitForAll->wait();
 1059              		.loc 2 143 18
 1060 02a0 93040000 		li	s1,0
 1061              	.L39:
 1062              	.LVL115:
 143:src/user/test/ConsumerProducer_CPP_API_test.hpp ****             waitForAll->wait();
 1063              		.loc 2 143 27 discriminator 1
 1064 02a4 63C29902 		bgt	s1,s3,.L38
 144:src/user/test/ConsumerProducer_CPP_API_test.hpp ****         }
 1065              		.loc 2 144 13 is_stmt 1
 144:src/user/test/ConsumerProducer_CPP_API_test.hpp ****         }
 1066              		.loc 2 144 29 is_stmt 0
 1067 02a8 97070000 		lla	a5,_ZN19ConsumerProducerCPP10waitForAllE
 1067      93870700 
 1068 02b0 83B70700 		ld	a5,0(a5)
 1069              	.LVL116:
 1070              	.LBB117:
 1071              	.LBB118:
  27:src/user/test/../../../h/syscall_cpp.hpp ****     void signal (){ sem_signal(myHandle); }
GAS LISTING /tmp/ccICFWVD.s 			page 27


 1072              		.loc 1 27 19 is_stmt 1
  27:src/user/test/../../../h/syscall_cpp.hpp ****     void signal (){ sem_signal(myHandle); }
 1073              		.loc 1 27 27 is_stmt 0
 1074 02b4 03B58700 		ld	a0,8(a5)
 1075 02b8 97000000 		call	sem_wait
 1075      E7800000 
 1076              	.LVL117:
 1077              	.LBE118:
 1078              	.LBE117:
 143:src/user/test/ConsumerProducer_CPP_API_test.hpp ****             waitForAll->wait();
 1079              		.loc 2 143 9
 1080 02c0 9B841400 		addiw	s1,s1,1
 1081              	.LVL118:
 1082 02c4 6FF01FFE 		j	.L39
 1083              	.LVL119:
 1084              	.L38:
 1085              	.LBE116:
 147:src/user/test/ConsumerProducer_CPP_API_test.hpp ****         for (int i = 0; i < threadNum; i++) {
 1086              		.loc 2 147 9 is_stmt 1
 147:src/user/test/ConsumerProducer_CPP_API_test.hpp ****         for (int i = 0; i < threadNum; i++) {
 1087              		.loc 2 147 16 is_stmt 0
 1088 02c8 97070000 		lla	a5,_ZN19ConsumerProducerCPP10waitForAllE
 1088      93870700 
 1089 02d0 03B50700 		ld	a0,0(a5)
 147:src/user/test/ConsumerProducer_CPP_API_test.hpp ****         for (int i = 0; i < threadNum; i++) {
 1090              		.loc 2 147 26
 1091 02d4 63080500 		beq	a0,zero,.L40
 147:src/user/test/ConsumerProducer_CPP_API_test.hpp ****         for (int i = 0; i < threadNum; i++) {
 1092              		.loc 2 147 16 discriminator 1
 1093 02d8 83370500 		ld	a5,0(a0)
 1094 02dc 83B78700 		ld	a5,8(a5)
 1095 02e0 E7800700 		jalr	a5
 1096              	.LVL120:
 1097              	.L40:
 1098              	.LBB119:
 143:src/user/test/ConsumerProducer_CPP_API_test.hpp ****             waitForAll->wait();
 1099              		.loc 2 143 18 discriminator 1
 1100 02e4 93040000 		li	s1,0
 1101              	.LVL121:
 1102 02e8 6F008000 		j	.L43
 1103              	.LVL122:
 1104              	.L42:
 1105              	.LBE119:
 1106              	.LBB120:
 148:src/user/test/ConsumerProducer_CPP_API_test.hpp ****             delete producers[i];
 1107              		.loc 2 148 9 discriminator 2
 1108 02ec 9B841400 		addiw	s1,s1,1
 1109              	.LVL123:
 1110              	.L43:
 148:src/user/test/ConsumerProducer_CPP_API_test.hpp ****             delete producers[i];
 1111              		.loc 2 148 27 discriminator 1
 1112 02f0 63D23403 		bge	s1,s3,.L41
 149:src/user/test/ConsumerProducer_CPP_API_test.hpp ****         }
 1113              		.loc 2 149 13 is_stmt 1
 149:src/user/test/ConsumerProducer_CPP_API_test.hpp ****         }
 1114              		.loc 2 149 31 is_stmt 0
 1115 02f4 93973400 		slli	a5,s1,3
GAS LISTING /tmp/ccICFWVD.s 			page 28


 1116 02f8 B307FA00 		add	a5,s4,a5
 1117 02fc 03B50700 		ld	a0,0(a5)
 149:src/user/test/ConsumerProducer_CPP_API_test.hpp ****         }
 1118              		.loc 2 149 32
 1119 0300 E30605FE 		beq	a0,zero,.L42
 149:src/user/test/ConsumerProducer_CPP_API_test.hpp ****         }
 1120              		.loc 2 149 31 discriminator 1
 1121 0304 83370500 		ld	a5,0(a0)
 1122 0308 83B78700 		ld	a5,8(a5)
 1123 030c E7800700 		jalr	a5
 1124              	.LVL124:
 1125 0310 6FF0DFFD 		j	.L42
 1126              	.L41:
 1127              	.LBE120:
 151:src/user/test/ConsumerProducer_CPP_API_test.hpp ****         delete buffer;
 1128              		.loc 2 151 9 is_stmt 1
 151:src/user/test/ConsumerProducer_CPP_API_test.hpp ****         delete buffer;
 1129              		.loc 2 151 24 is_stmt 0
 1130 0314 630A0B00 		beq	s6,zero,.L44
 151:src/user/test/ConsumerProducer_CPP_API_test.hpp ****         delete buffer;
 1131              		.loc 2 151 16 discriminator 1
 1132 0318 83370B00 		ld	a5,0(s6)
 1133 031c 83B78700 		ld	a5,8(a5)
 1134 0320 13050B00 		mv	a0,s6
 1135 0324 E7800700 		jalr	a5
 1136              	.LVL125:
 1137              	.L44:
 1138              		.loc 2 152 9 is_stmt 1
 1139              		.loc 2 152 22 is_stmt 0
 1140 0328 638E0A00 		beq	s5,zero,.L45
 1141              		.loc 2 152 16 discriminator 1
 1142 032c 13850A00 		mv	a0,s5
 1143 0330 97000000 		call	_ZN9BufferCPPD1Ev
 1143      E7800000 
 1144              	.LVL126:
 1145 0338 13850A00 		mv	a0,s5
 1146 033c 97000000 		call	_ZdlPv
 1146      E7800000 
 1147              	.LVL127:
 1148              	.LEHE5:
 1149              	.L45:
 1150 0344 13810B00 		mv	sp,s7
 1151              	.LVL128:
 1152              	.L32:
 153:src/user/test/ConsumerProducer_CPP_API_test.hpp ****     }
 1153              		.loc 2 153 5
 1154 0348 130104F9 		addi	sp,s0,-112
 1155              		.cfi_remember_state
 1156              		.cfi_def_cfa 2, 112
 1157 034c 83308106 		ld	ra,104(sp)
 1158              		.cfi_restore 1
 1159 0350 03340106 		ld	s0,96(sp)
 1160              		.cfi_restore 8
 1161 0354 83348105 		ld	s1,88(sp)
 1162              		.cfi_restore 9
 1163 0358 03390105 		ld	s2,80(sp)
 1164              		.cfi_restore 18
GAS LISTING /tmp/ccICFWVD.s 			page 29


 1165 035c 83398104 		ld	s3,72(sp)
 1166              		.cfi_restore 19
 1167              	.LVL129:
 1168 0360 033A0104 		ld	s4,64(sp)
 1169              		.cfi_restore 20
 1170 0364 833A8103 		ld	s5,56(sp)
 1171              		.cfi_restore 21
 1172 0368 033B0103 		ld	s6,48(sp)
 1173              		.cfi_restore 22
 1174 036c 833B8102 		ld	s7,40(sp)
 1175              		.cfi_restore 23
 1176 0370 033C0102 		ld	s8,32(sp)
 1177              		.cfi_restore 24
 1178 0374 13010107 		addi	sp,sp,112
 1179              		.cfi_def_cfa_offset 0
 1180 0378 67800000 		jr	ra
 1181              	.LVL130:
 1182              	.L49:
 1183              		.cfi_restore_state
 1184 037c 93040500 		mv	s1,a0
 1185              	.LVL131:
 113:src/user/test/ConsumerProducer_CPP_API_test.hpp **** 
 1186              		.loc 2 113 44
 1187 0380 13850A00 		mv	a0,s5
 1188 0384 97000000 		call	_ZdlPv
 1188      E7800000 
 1189              	.LVL132:
 1190 038c 13850400 		mv	a0,s1
 1191              	.LEHB6:
 1192 0390 97000000 		call	_Unwind_Resume
 1192      E7800000 
 1193              	.LVL133:
 1194              	.LEHE6:
 1195              	.L50:
 1196 0398 13090500 		mv	s2,a0
 115:src/user/test/ConsumerProducer_CPP_API_test.hpp ****         Thread *producers[threadNum];
 1197              		.loc 2 115 37
 1198 039c 13850400 		mv	a0,s1
 1199 03a0 97000000 		call	_ZdlPv
 1199      E7800000 
 1200              	.LVL134:
 1201 03a8 13050900 		mv	a0,s2
 1202              	.LEHB7:
 1203 03ac 97000000 		call	_Unwind_Resume
 1203      E7800000 
 1204              	.LVL135:
 1205              	.LEHE7:
 1206              		.cfi_endproc
 1207              	.LFE32:
 1208              		.section	.gcc_except_table,"aw",@progbits
 1209              	.LLSDA32:
 1210 0000 FF       		.byte	0xff
 1211 0001 FF       		.byte	0xff
 1212 0002 03       		.byte	0x3
 1213 0003 5B       		.byte	0x5b
 1214 0004 00000000 		.4byte	.LEHB1-.LFB32
 1215 0008 00000000 		.4byte	.LEHE1-.LEHB1
GAS LISTING /tmp/ccICFWVD.s 			page 30


 1216 000c 00000000 		.4byte	0
 1217 0010 00       		.byte	0
 1218 0011 00000000 		.4byte	.LEHB2-.LFB32
 1219 0015 00000000 		.4byte	.LEHE2-.LEHB2
 1220 0019 00000000 		.4byte	.L49-.LFB32
 1221 001d 00       		.byte	0
 1222 001e 00000000 		.4byte	.LEHB3-.LFB32
 1223 0022 00000000 		.4byte	.LEHE3-.LEHB3
 1224 0026 00000000 		.4byte	0
 1225 002a 00       		.byte	0
 1226 002b 00000000 		.4byte	.LEHB4-.LFB32
 1227 002f 00000000 		.4byte	.LEHE4-.LEHB4
 1228 0033 00000000 		.4byte	.L50-.LFB32
 1229 0037 00       		.byte	0
 1230 0038 00000000 		.4byte	.LEHB5-.LFB32
 1231 003c 00000000 		.4byte	.LEHE5-.LEHB5
 1232 0040 00000000 		.4byte	0
 1233 0044 00       		.byte	0
 1234 0045 00000000 		.4byte	.LEHB6-.LFB32
 1235 0049 00000000 		.4byte	.LEHE6-.LEHB6
 1236 004d 00000000 		.4byte	0
 1237 0051 00       		.byte	0
 1238 0052 00000000 		.4byte	.LEHB7-.LFB32
 1239 0056 00000000 		.4byte	.LEHE7-.LEHB7
 1240 005a 00000000 		.4byte	0
 1241 005e 00       		.byte	0
 1242              		.text
 1244              		.align	2
 1245              		.globl	_Z8userMainv
 1247              	_Z8userMainv:
 1248              	.LFB33:
 1249              		.file 3 "src/user/userMain.cpp"
   1:src/user/userMain.cpp **** //RADI: #include "test/Threads_C_API_test.hpp" // zadatak 2, niti C API i sinhrona promena kontekst
   2:src/user/userMain.cpp **** //#include "test/Threads_CPP_API_test.hpp" // zadatak 2., niti CPP API i sinhrona promena konteksta
   3:src/user/userMain.cpp **** 
   4:src/user/userMain.cpp **** //#include "test/ConsumerProducer_C_API_test.h" // zadatak 3., kompletan C API sa semaforima, sinhr
   5:src/user/userMain.cpp **** //#include "test/ConsumerProducer_CPP_Sync_API_test.hpp" // zadatak 3., kompletan CPP API sa semafo
   6:src/user/userMain.cpp **** 
   7:src/user/userMain.cpp **** //RADI: #include "../test/ThreadSleep_C_API_test.hpp" // thread_sleep test C API
   8:src/user/userMain.cpp **** #include "test/ConsumerProducer_CPP_API_test.hpp" // zadatak 4. CPP API i asinhrona promena konteks
   9:src/user/userMain.cpp **** //#include"test/testing.hpp"
  10:src/user/userMain.cpp **** //#include"../../h/syscall_c.h"
  11:src/user/userMain.cpp **** //#include"test/printing.hpp"
  12:src/user/userMain.cpp **** void userMain() {
 1250              		.loc 3 12 17 is_stmt 1
 1251              		.cfi_startproc
 1252 03b4 130101FF 		addi	sp,sp,-16
 1253              		.cfi_def_cfa_offset 16
 1254 03b8 23341100 		sd	ra,8(sp)
 1255 03bc 23308100 		sd	s0,0(sp)
 1256              		.cfi_offset 1, -8
 1257              		.cfi_offset 8, -16
 1258 03c0 13040101 		addi	s0,sp,16
 1259              		.cfi_def_cfa 8, 0
  13:src/user/userMain.cpp ****     //RADI: Threads_C_API_test(); // zadatak 2., niti C API i sinhrona promena konteksta
  14:src/user/userMain.cpp ****     //RADI: Threads_CPP_API_test(); // zadatak 2., niti CPP API i sinhrona promena konteksta
  15:src/user/userMain.cpp **** 
GAS LISTING /tmp/ccICFWVD.s 			page 31


  16:src/user/userMain.cpp ****     //NZM? producerConsumer_C_API(); // zadatak 3., kompletan C API sa semaforima, sinhrona promena
  17:src/user/userMain.cpp ****     //NZM? producerConsumer_CPP_Sync_API(); // zadatak 3., kompletan CPP API sa semaforima, sinhron
  18:src/user/userMain.cpp **** 
  19:src/user/userMain.cpp ****     //RADI: testSleeping(); // thread_sleep test C API
  20:src/user/userMain.cpp ****     ConsumerProducerCPP::testConsumerProducer(); // zadatak 4. CPP API i asinhrona promena kontekst
 1260              		.loc 3 20 5
 1261              		.loc 3 20 46 is_stmt 0
 1262 03c4 97000000 		call	_ZN19ConsumerProducerCPP20testConsumerProducerEv
 1262      E7800000 
 1263              	.LVL136:
  21:src/user/userMain.cpp ****     //testPeriodicWorker();
  22:src/user/userMain.cpp ****     //printString("User thread eo ga\n");
  23:src/user/userMain.cpp ****     //mem_alloc(64);
  24:src/user/userMain.cpp ****     //asm volatile("csrw sstatus, 0");
  25:src/user/userMain.cpp ****     
  26:src/user/userMain.cpp **** }...
 1264              		.loc 3 26 1
 1265 03cc 83308100 		ld	ra,8(sp)
 1266              		.cfi_restore 1
 1267 03d0 03340100 		ld	s0,0(sp)
 1268              		.cfi_restore 8
 1269              		.cfi_def_cfa 2, 16
 1270 03d4 13010101 		addi	sp,sp,16
 1271              		.cfi_def_cfa_offset 0
 1272 03d8 67800000 		jr	ra
 1273              		.cfi_endproc
 1274              	.LFE33:
 1276              		.weak	_ZTV9Semaphore
 1277              		.section	.rodata._ZTV9Semaphore,"aG",@progbits,_ZTV9Semaphore,comdat
 1278              		.align	3
 1281              	_ZTV9Semaphore:
 1282 0000 00000000 		.dword	0
 1282      00000000 
 1283 0008 00000000 		.dword	0
 1283      00000000 
 1284 0010 00000000 		.dword	_ZN9SemaphoreD1Ev
 1284      00000000 
 1285 0018 00000000 		.dword	_ZN9SemaphoreD0Ev
 1285      00000000 
 1286              		.weak	_ZTVN19ConsumerProducerCPP16ProducerKeyboradE
 1287              		.section	.rodata._ZTVN19ConsumerProducerCPP16ProducerKeyboradE,"aG",@progbits,_ZTVN19ConsumerProdu
 1288              		.align	3
 1291              	_ZTVN19ConsumerProducerCPP16ProducerKeyboradE:
 1292 0000 00000000 		.dword	0
 1292      00000000 
 1293 0008 00000000 		.dword	0
 1293      00000000 
 1294 0010 00000000 		.dword	_ZN19ConsumerProducerCPP16ProducerKeyboradD1Ev
 1294      00000000 
 1295 0018 00000000 		.dword	_ZN19ConsumerProducerCPP16ProducerKeyboradD0Ev
 1295      00000000 
 1296 0020 00000000 		.dword	_ZN19ConsumerProducerCPP16ProducerKeyborad3runEv
 1296      00000000 
 1297              		.weak	_ZTVN19ConsumerProducerCPP8ProducerE
 1298              		.section	.rodata._ZTVN19ConsumerProducerCPP8ProducerE,"aG",@progbits,_ZTVN19ConsumerProducerCPP8Pr
 1299              		.align	3
 1302              	_ZTVN19ConsumerProducerCPP8ProducerE:
GAS LISTING /tmp/ccICFWVD.s 			page 32


 1303 0000 00000000 		.dword	0
 1303      00000000 
 1304 0008 00000000 		.dword	0
 1304      00000000 
 1305 0010 00000000 		.dword	_ZN19ConsumerProducerCPP8ProducerD1Ev
 1305      00000000 
 1306 0018 00000000 		.dword	_ZN19ConsumerProducerCPP8ProducerD0Ev
 1306      00000000 
 1307 0020 00000000 		.dword	_ZN19ConsumerProducerCPP8Producer3runEv
 1307      00000000 
 1308              		.weak	_ZTVN19ConsumerProducerCPP8ConsumerE
 1309              		.section	.rodata._ZTVN19ConsumerProducerCPP8ConsumerE,"aG",@progbits,_ZTVN19ConsumerProducerCPP8Co
 1310              		.align	3
 1313              	_ZTVN19ConsumerProducerCPP8ConsumerE:
 1314 0000 00000000 		.dword	0
 1314      00000000 
 1315 0008 00000000 		.dword	0
 1315      00000000 
 1316 0010 00000000 		.dword	_ZN19ConsumerProducerCPP8ConsumerD1Ev
 1316      00000000 
 1317 0018 00000000 		.dword	_ZN19ConsumerProducerCPP8ConsumerD0Ev
 1317      00000000 
 1318 0020 00000000 		.dword	_ZN19ConsumerProducerCPP8Consumer3runEv
 1318      00000000 
 1319              		.globl	_ZN19ConsumerProducerCPP9threadEndE
 1320              		.globl	_ZN19ConsumerProducerCPP10waitForAllE
 1321              		.section	.rodata.str1.8,"aMS",@progbits,1
 1322              		.align	3
 1323              	.LC0:
 1324 0000 556E6573 		.string	"Unesite broj proizvodjaca?\n"
 1324      69746520 
 1324      62726F6A 
 1324      2070726F 
 1324      697A766F 
 1325 001c 00000000 		.zero	4
 1326              	.LC1:
 1327 0020 556E6573 		.string	"Unesite velicinu bafera?\n"
 1327      69746520 
 1327      76656C69 
 1327      63696E75 
 1327      20626166 
 1328 003a 00000000 		.zero	6
 1328      0000
 1329              	.LC2:
 1330 0040 42726F6A 		.string	"Broj proizvodjaca "
 1330      2070726F 
 1330      697A766F 
 1330      646A6163 
 1330      612000
 1331 0053 00000000 		.zero	5
 1331      00
 1332              	.LC3:
 1333 0058 20692076 		.string	" i velicina bafera "
 1333      656C6963 
 1333      696E6120 
 1333      62616665 
 1333      72612000 
GAS LISTING /tmp/ccICFWVD.s 			page 33


 1334 006c 00000000 		.zero	4
 1335              	.LC4:
 1336 0070 2E0A00   		.string	".\n"
 1337 0073 00000000 		.zero	5
 1337      00
 1338              	.LC5:
 1339 0078 42726F6A 		.string	"Broj proizvodjaca ne sme biti manji od velicine bafera!\n"
 1339      2070726F 
 1339      697A766F 
 1339      646A6163 
 1339      61206E65 
 1340 00b1 00000000 		.zero	7
 1340      000000
 1341              	.LC6:
 1342 00b8 42726F6A 		.string	"Broj proizvodjaca mora biti veci od nula!\n"
 1342      2070726F 
 1342      697A766F 
 1342      646A6163 
 1342      61206D6F 
 1343              		.section	.sbss,"aw",@nobits
 1344              		.align	3
 1347              	_ZN19ConsumerProducerCPP9threadEndE:
 1348 0000 00000000 		.zero	4
 1349 0004 00000000 		.zero	4
 1352              	_ZN19ConsumerProducerCPP10waitForAllE:
 1353 0008 00000000 		.zero	8
 1353      00000000 
 1354              		.text
 1355              	.Letext0:
 1356              		.file 4 "src/user/test/../../../h/../lib/hw.h"
 1357              		.file 5 "src/user/test/../../../h/../h/_semaphore.h"
 1358              		.file 6 "src/user/test/../../../h/syscall_c.h"
 1359              		.file 7 "src/user/test/buffer_CPP_API.hpp"
 1360              		.file 8 "src/user/test/printing.hpp"
 5691              		.align	3
 5694              	DW.ref.__gxx_personality_v0:
 5695 0000 00000000 		.dword	__gxx_personality_v0
 5695      00000000 
 5696              		.ident	"GCC: () 8.3.0"
GAS LISTING /tmp/ccICFWVD.s 			page 34

