GAS LISTING /tmp/ccvtk9xj.s 			page 1


   1              		.file	"buddy_allocator.cpp"
   2              		.option nopic
   3              		.option norelax
   4              		.attribute arch, "rv64i2p0_m2p0_a2p0"
   5              		.attribute unaligned_access, 0
   6              		.attribute stack_align, 16
   7              		.text
   8              	.Ltext0:
   9              		.align	2
  10              		.globl	_ZN5Buddy11getInstanceEv
  12              	_ZN5Buddy11getInstanceEv:
  13              	.LFB117:
  14              		.file 1 "src/kernel/mmanagement/buddy_allocator.cpp"
   1:src/kernel/mmanagement/buddy_allocator.cpp **** #include"../../../h/kernel_lib.h"
   2:src/kernel/mmanagement/buddy_allocator.cpp **** #define BLOCK_IND(addr) \
   3:src/kernel/mmanagement/buddy_allocator.cpp **** ( ((uint64)addr - (uint64)start_address) >> BLOCK_SIZE_BIT_LEN)
   4:src/kernel/mmanagement/buddy_allocator.cpp ****  
   5:src/kernel/mmanagement/buddy_allocator.cpp **** Buddy* Buddy::buddy = nullptr;
   6:src/kernel/mmanagement/buddy_allocator.cpp **** uchar Buddy::BLOCK_SIZE_BIT_LEN = 0;
   7:src/kernel/mmanagement/buddy_allocator.cpp **** 
   8:src/kernel/mmanagement/buddy_allocator.cpp **** Buddy::Buddy(void* saddr, uchar level){
   9:src/kernel/mmanagement/buddy_allocator.cpp ****     start_address = saddr;
  10:src/kernel/mmanagement/buddy_allocator.cpp ****     max_level = level;
  11:src/kernel/mmanagement/buddy_allocator.cpp ****     
  12:src/kernel/mmanagement/buddy_allocator.cpp ****     /* reserve memory */
  13:src/kernel/mmanagement/buddy_allocator.cpp ****     uint64 x = (uint64)NoAlloc::getEndAddress();
  14:src/kernel/mmanagement/buddy_allocator.cpp ****     uint64 y = (uint64)saddr + (BLOCK_SIZE << max_level);
  15:src/kernel/mmanagement/buddy_allocator.cpp ****     void* ind = NoAlloc::mem_alloc(y - x);
  16:src/kernel/mmanagement/buddy_allocator.cpp **** 
  17:src/kernel/mmanagement/buddy_allocator.cpp ****     if(!ind) { /* panic */ }
  18:src/kernel/mmanagement/buddy_allocator.cpp **** 
  19:src/kernel/mmanagement/buddy_allocator.cpp ****     /* alloc free map */
  20:src/kernel/mmanagement/buddy_allocator.cpp ****     x = 1 << (BLOCK_SIZE_BIT_LEN - 3);
  21:src/kernel/mmanagement/buddy_allocator.cpp ****     fmap = (uchar*)NoAlloc::mem_alloc(x);
  22:src/kernel/mmanagement/buddy_allocator.cpp ****     if(!fmap) { /* panic */ }
  23:src/kernel/mmanagement/buddy_allocator.cpp ****     for(uint64 i = 0; i < x; i++) fmap[i] = 0;
  24:src/kernel/mmanagement/buddy_allocator.cpp ****     
  25:src/kernel/mmanagement/buddy_allocator.cpp ****     /* alloc list heads */
  26:src/kernel/mmanagement/buddy_allocator.cpp ****     lhp = (mmeta_t**)NoAlloc::mem_alloc((level+1)*sizeof(mmeta_t*));
  27:src/kernel/mmanagement/buddy_allocator.cpp ****     if(!lhp) { /* panic */ }
  28:src/kernel/mmanagement/buddy_allocator.cpp ****     for(uchar i = 0; i < max_level + 1; i++)
  29:src/kernel/mmanagement/buddy_allocator.cpp ****         lhp[i] = nullptr;
  30:src/kernel/mmanagement/buddy_allocator.cpp **** 
  31:src/kernel/mmanagement/buddy_allocator.cpp **** 
  32:src/kernel/mmanagement/buddy_allocator.cpp ****     /* add just biggest element (whole memory) to last list */
  33:src/kernel/mmanagement/buddy_allocator.cpp ****     fmap[0] |= 1;
  34:src/kernel/mmanagement/buddy_allocator.cpp ****     int code = add_to_list(max_level, (mmeta_t*)start_address);
  35:src/kernel/mmanagement/buddy_allocator.cpp ****     if ( code < 0) {
  36:src/kernel/mmanagement/buddy_allocator.cpp ****         kprintString("addtolist panic: ");
  37:src/kernel/mmanagement/buddy_allocator.cpp ****         kprintInt(code, 16);
  38:src/kernel/mmanagement/buddy_allocator.cpp ****         kprintString("\n");
  39:src/kernel/mmanagement/buddy_allocator.cpp ****     }
  40:src/kernel/mmanagement/buddy_allocator.cpp **** }
  41:src/kernel/mmanagement/buddy_allocator.cpp **** 
  42:src/kernel/mmanagement/buddy_allocator.cpp **** int Buddy::initalize(void* saddr, uchar level){
  43:src/kernel/mmanagement/buddy_allocator.cpp ****     BLOCK_SIZE_BIT_LEN = log2(BLOCK_SIZE);
  44:src/kernel/mmanagement/buddy_allocator.cpp ****     uint64 laa = (uint64)NoAlloc::getEndAddress();
GAS LISTING /tmp/ccvtk9xj.s 			page 2


  45:src/kernel/mmanagement/buddy_allocator.cpp ****     if((uint64)saddr < laa + sizeof(Buddy))
  46:src/kernel/mmanagement/buddy_allocator.cpp ****         return 1;
  47:src/kernel/mmanagement/buddy_allocator.cpp ****     saddr = (void*) blockAlign((uint64)saddr);
  48:src/kernel/mmanagement/buddy_allocator.cpp ****     buddy = new Buddy(saddr, level);
  49:src/kernel/mmanagement/buddy_allocator.cpp ****     if(!buddy)  return 1;
  50:src/kernel/mmanagement/buddy_allocator.cpp **** 
  51:src/kernel/mmanagement/buddy_allocator.cpp ****     return 0;
  52:src/kernel/mmanagement/buddy_allocator.cpp **** }
  53:src/kernel/mmanagement/buddy_allocator.cpp **** 
  54:src/kernel/mmanagement/buddy_allocator.cpp **** Buddy& Buddy::getInstance(){
  15              		.loc 1 54 28
  16              		.cfi_startproc
  17 0000 130101FF 		addi	sp,sp,-16
  18              		.cfi_def_cfa_offset 16
  19 0004 23348100 		sd	s0,8(sp)
  20              		.cfi_offset 8, -8
  21 0008 13040101 		addi	s0,sp,16
  22              		.cfi_def_cfa 8, 0
  55:src/kernel/mmanagement/buddy_allocator.cpp ****     if(!buddy) {  /* panic */ }
  23              		.loc 1 55 5
  56:src/kernel/mmanagement/buddy_allocator.cpp ****     return (*buddy);
  24              		.loc 1 56 5
  57:src/kernel/mmanagement/buddy_allocator.cpp **** }
  25              		.loc 1 57 1 is_stmt 0
  26 000c 97070000 		lla	a5,_ZN5Buddy5buddyE
  26      93870700 
  27 0014 03B50700 		ld	a0,0(a5)
  28 0018 03348100 		ld	s0,8(sp)
  29              		.cfi_restore 8
  30              		.cfi_def_cfa 2, 16
  31 001c 13010101 		addi	sp,sp,16
  32              		.cfi_def_cfa_offset 0
  33 0020 67800000 		jr	ra
  34              		.cfi_endproc
  35              	.LFE117:
  37              		.align	2
  38              		.globl	_ZN5Buddy13get_from_listEh
  40              	_ZN5Buddy13get_from_listEh:
  41              	.LFB121:
  58:src/kernel/mmanagement/buddy_allocator.cpp **** 
  59:src/kernel/mmanagement/buddy_allocator.cpp **** void* Buddy::mem_alloc(uchar level){
  60:src/kernel/mmanagement/buddy_allocator.cpp ****     
  61:src/kernel/mmanagement/buddy_allocator.cpp ****     if(level > max_level) return nullptr;
  62:src/kernel/mmanagement/buddy_allocator.cpp ****     uchar i = level;
  63:src/kernel/mmanagement/buddy_allocator.cpp ****     /*  iterate through levels until we find not-empty list 
  64:src/kernel/mmanagement/buddy_allocator.cpp ****     *   and get free chunk
  65:src/kernel/mmanagement/buddy_allocator.cpp ****     */
  66:src/kernel/mmanagement/buddy_allocator.cpp ****     for(; i <= max_level; i++)
  67:src/kernel/mmanagement/buddy_allocator.cpp ****         if(lhp[i]) break;
  68:src/kernel/mmanagement/buddy_allocator.cpp ****     if(i > max_level) return nullptr;
  69:src/kernel/mmanagement/buddy_allocator.cpp ****     mmeta_t* chunk = get_from_list(i);
  70:src/kernel/mmanagement/buddy_allocator.cpp **** 
  71:src/kernel/mmanagement/buddy_allocator.cpp ****     /* split chunk until we get to given level */
  72:src/kernel/mmanagement/buddy_allocator.cpp ****     for(;i > level; i--){
  73:src/kernel/mmanagement/buddy_allocator.cpp ****         mmeta_t* t = split(chunk);
  74:src/kernel/mmanagement/buddy_allocator.cpp ****         set_bit(BLOCK_IND(t));
  75:src/kernel/mmanagement/buddy_allocator.cpp ****         add_to_list(i-1, t);
GAS LISTING /tmp/ccvtk9xj.s 			page 3


  76:src/kernel/mmanagement/buddy_allocator.cpp ****         chunk->level--;
  77:src/kernel/mmanagement/buddy_allocator.cpp ****     }
  78:src/kernel/mmanagement/buddy_allocator.cpp ****     /* set allocate curr chunk */
  79:src/kernel/mmanagement/buddy_allocator.cpp ****     clr_bit(BLOCK_IND(chunk));
  80:src/kernel/mmanagement/buddy_allocator.cpp ****     return chunk;
  81:src/kernel/mmanagement/buddy_allocator.cpp **** }
  82:src/kernel/mmanagement/buddy_allocator.cpp **** 
  83:src/kernel/mmanagement/buddy_allocator.cpp **** 
  84:src/kernel/mmanagement/buddy_allocator.cpp **** 
  85:src/kernel/mmanagement/buddy_allocator.cpp **** int Buddy::mem_free(void* addr, uchar level){
  86:src/kernel/mmanagement/buddy_allocator.cpp ****     
  87:src/kernel/mmanagement/buddy_allocator.cpp ****     if(( (uint64)addr & (BLOCK_SIZE - 1) )
  88:src/kernel/mmanagement/buddy_allocator.cpp ****     || addr < start_address) return -1;
  89:src/kernel/mmanagement/buddy_allocator.cpp ****     
  90:src/kernel/mmanagement/buddy_allocator.cpp ****     if(level > max_level) return -4;
  91:src/kernel/mmanagement/buddy_allocator.cpp ****     /* check bn */
  92:src/kernel/mmanagement/buddy_allocator.cpp ****     uint64 bind = BLOCK_IND(addr);
  93:src/kernel/mmanagement/buddy_allocator.cpp ****     if(bind >= (1ULL << max_level)) return -3;
  94:src/kernel/mmanagement/buddy_allocator.cpp ****     if(get_bit_val(bind)) return -2;
  95:src/kernel/mmanagement/buddy_allocator.cpp **** 
  96:src/kernel/mmanagement/buddy_allocator.cpp ****     /*let the merging begin */ 
  97:src/kernel/mmanagement/buddy_allocator.cpp ****     mmeta_t* chunk = (mmeta_t*)addr;
  98:src/kernel/mmanagement/buddy_allocator.cpp ****     chunk->level = level;
  99:src/kernel/mmanagement/buddy_allocator.cpp ****     chunk->prev = chunk->next = nullptr;
 100:src/kernel/mmanagement/buddy_allocator.cpp ****     set_bit(bind);
 101:src/kernel/mmanagement/buddy_allocator.cpp ****     while(chunk->level < max_level){
 102:src/kernel/mmanagement/buddy_allocator.cpp ****         mmeta_t* maddr = merge_ip(chunk);
 103:src/kernel/mmanagement/buddy_allocator.cpp ****         if(maddr)
 104:src/kernel/mmanagement/buddy_allocator.cpp ****             chunk = maddr;
 105:src/kernel/mmanagement/buddy_allocator.cpp ****         else
 106:src/kernel/mmanagement/buddy_allocator.cpp ****             break;
 107:src/kernel/mmanagement/buddy_allocator.cpp ****     }
 108:src/kernel/mmanagement/buddy_allocator.cpp ****     add_to_list(chunk->level, chunk);
 109:src/kernel/mmanagement/buddy_allocator.cpp ****     return 0;
 110:src/kernel/mmanagement/buddy_allocator.cpp **** }
 111:src/kernel/mmanagement/buddy_allocator.cpp **** 
 112:src/kernel/mmanagement/buddy_allocator.cpp **** 
 113:src/kernel/mmanagement/buddy_allocator.cpp **** 
 114:src/kernel/mmanagement/buddy_allocator.cpp **** int Buddy::add_to_list(uchar level, mmeta_t* chunk){
 115:src/kernel/mmanagement/buddy_allocator.cpp ****     if(level > max_level) return -4;
 116:src/kernel/mmanagement/buddy_allocator.cpp ****     if( !chunk || ((uint64)chunk & (BLOCK_SIZE - 1)) ) return -1;
 117:src/kernel/mmanagement/buddy_allocator.cpp ****     if(!get_bit_val(BLOCK_IND(chunk))) return -2;
 118:src/kernel/mmanagement/buddy_allocator.cpp ****     
 119:src/kernel/mmanagement/buddy_allocator.cpp ****     /* add it to the front of the list */
 120:src/kernel/mmanagement/buddy_allocator.cpp ****     chunk -> next = lhp[level];
 121:src/kernel/mmanagement/buddy_allocator.cpp ****     chunk -> prev = 0;
 122:src/kernel/mmanagement/buddy_allocator.cpp ****     chunk -> level = level;
 123:src/kernel/mmanagement/buddy_allocator.cpp ****     if(lhp[level]) lhp[level] -> prev = chunk;
 124:src/kernel/mmanagement/buddy_allocator.cpp ****     lhp[level] = chunk;
 125:src/kernel/mmanagement/buddy_allocator.cpp **** 
 126:src/kernel/mmanagement/buddy_allocator.cpp ****     return 0;
 127:src/kernel/mmanagement/buddy_allocator.cpp **** }
 128:src/kernel/mmanagement/buddy_allocator.cpp **** 
 129:src/kernel/mmanagement/buddy_allocator.cpp **** mmeta_t* Buddy::get_from_list(uchar level){
  42              		.loc 1 129 43 is_stmt 1
  43              		.cfi_startproc
  44              	.LVL0:
GAS LISTING /tmp/ccvtk9xj.s 			page 4


  45 0024 130101FF 		addi	sp,sp,-16
  46              		.cfi_def_cfa_offset 16
  47 0028 23348100 		sd	s0,8(sp)
  48              		.cfi_offset 8, -8
  49 002c 13040101 		addi	s0,sp,16
  50              		.cfi_def_cfa 8, 0
 130:src/kernel/mmanagement/buddy_allocator.cpp ****     /* chk if level is valid */
 131:src/kernel/mmanagement/buddy_allocator.cpp ****     if(level > max_level) return nullptr;
  51              		.loc 1 131 5
  52              		.loc 1 131 16 is_stmt 0
  53 0030 83378500 		ld	a5,8(a0)
  54              		.loc 1 131 5
  55 0034 63E4B704 		bgtu	a1,a5,.L7
 132:src/kernel/mmanagement/buddy_allocator.cpp ****     mmeta_t* ret = lhp[level];
  56              		.loc 1 132 5 is_stmt 1
  57              		.loc 1 132 20 is_stmt 0
  58 0038 83370501 		ld	a5,16(a0)
  59              		.loc 1 132 29
  60 003c 93953500 		slli	a1,a1,3
  61              	.LVL1:
  62 0040 B387B700 		add	a5,a5,a1
  63              		.loc 1 132 14
  64 0044 83B70700 		ld	a5,0(a5)
  65              	.LVL2:
 133:src/kernel/mmanagement/buddy_allocator.cpp ****     if(ret){
  66              		.loc 1 133 5 is_stmt 1
  67 0048 63800702 		beq	a5,zero,.L5
 134:src/kernel/mmanagement/buddy_allocator.cpp ****         if(ret->next) ret->next->prev = 0;
  68              		.loc 1 134 9
  69              		.loc 1 134 17 is_stmt 0
  70 004c 03B70700 		ld	a4,0(a5)
  71              		.loc 1 134 9
  72 0050 63040700 		beq	a4,zero,.L6
  73              		.loc 1 134 23 is_stmt 1 discriminator 1
  74              		.loc 1 134 39 is_stmt 0 discriminator 1
  75 0054 23340700 		sd	zero,8(a4)
  76              	.L6:
 135:src/kernel/mmanagement/buddy_allocator.cpp ****         lhp[level] = ret->next;    
  77              		.loc 1 135 9 is_stmt 1
  78 0058 03370501 		ld	a4,16(a0)
  79              		.loc 1 135 18 is_stmt 0
  80 005c B305B700 		add	a1,a4,a1
  81              		.loc 1 135 27
  82 0060 03B70700 		ld	a4,0(a5)
  83              		.loc 1 135 20
  84 0064 23B0E500 		sd	a4,0(a1)
  85              	.L5:
 136:src/kernel/mmanagement/buddy_allocator.cpp ****     }
 137:src/kernel/mmanagement/buddy_allocator.cpp ****     ret->next = 0;
  86              		.loc 1 137 5 is_stmt 1
  87              		.loc 1 137 15 is_stmt 0
  88 0068 23B00700 		sd	zero,0(a5)
 138:src/kernel/mmanagement/buddy_allocator.cpp ****     return ret;
  89              		.loc 1 138 5 is_stmt 1
  90              	.LVL3:
  91              	.L3:
 139:src/kernel/mmanagement/buddy_allocator.cpp **** }
GAS LISTING /tmp/ccvtk9xj.s 			page 5


  92              		.loc 1 139 1 is_stmt 0
  93 006c 13850700 		mv	a0,a5
  94              	.LVL4:
  95 0070 03348100 		ld	s0,8(sp)
  96              		.cfi_remember_state
  97              		.cfi_restore 8
  98              		.cfi_def_cfa 2, 16
  99 0074 13010101 		addi	sp,sp,16
 100              		.cfi_def_cfa_offset 0
 101 0078 67800000 		jr	ra
 102              	.LVL5:
 103              	.L7:
 104              		.cfi_restore_state
 131:src/kernel/mmanagement/buddy_allocator.cpp ****     mmeta_t* ret = lhp[level];
 105              		.loc 1 131 34
 106 007c 93070000 		li	a5,0
 107 0080 6FF0DFFE 		j	.L3
 108              		.cfi_endproc
 109              	.LFE121:
 111              		.align	2
 112              		.globl	_ZN5Buddy5splitEP7mmeta_t
 114              	_ZN5Buddy5splitEP7mmeta_t:
 115              	.LFB123:
 140:src/kernel/mmanagement/buddy_allocator.cpp **** 
 141:src/kernel/mmanagement/buddy_allocator.cpp **** int Buddy::remove_from_list(uchar level, mmeta_t* chunk){
 142:src/kernel/mmanagement/buddy_allocator.cpp ****     
 143:src/kernel/mmanagement/buddy_allocator.cpp ****     if(level > max_level) return -4;
 144:src/kernel/mmanagement/buddy_allocator.cpp ****     if( !chunk || ((uint64)chunk & (BLOCK_SIZE - 1)) ) return -1;
 145:src/kernel/mmanagement/buddy_allocator.cpp ****     if(!get_bit_val(BLOCK_IND(chunk))) return -2;
 146:src/kernel/mmanagement/buddy_allocator.cpp ****     if(!(chunk->level == level)) return -3;
 147:src/kernel/mmanagement/buddy_allocator.cpp **** 
 148:src/kernel/mmanagement/buddy_allocator.cpp ****     /* check if it is on the front */
 149:src/kernel/mmanagement/buddy_allocator.cpp ****     if(lhp[level] == chunk){
 150:src/kernel/mmanagement/buddy_allocator.cpp ****         get_from_list(level);
 151:src/kernel/mmanagement/buddy_allocator.cpp ****         return 0;
 152:src/kernel/mmanagement/buddy_allocator.cpp ****     }
 153:src/kernel/mmanagement/buddy_allocator.cpp **** 
 154:src/kernel/mmanagement/buddy_allocator.cpp ****     /* if it is not on the front */
 155:src/kernel/mmanagement/buddy_allocator.cpp ****     chunk->prev->next = chunk->next;
 156:src/kernel/mmanagement/buddy_allocator.cpp ****     /* if it isn't last */
 157:src/kernel/mmanagement/buddy_allocator.cpp ****     if(chunk->next) chunk->next->prev = chunk->prev;
 158:src/kernel/mmanagement/buddy_allocator.cpp ****     chunk->next = chunk->prev = 0;
 159:src/kernel/mmanagement/buddy_allocator.cpp ****     return 0;
 160:src/kernel/mmanagement/buddy_allocator.cpp **** 
 161:src/kernel/mmanagement/buddy_allocator.cpp **** }
 162:src/kernel/mmanagement/buddy_allocator.cpp **** 
 163:src/kernel/mmanagement/buddy_allocator.cpp **** 
 164:src/kernel/mmanagement/buddy_allocator.cpp **** mmeta_t* Buddy::split(mmeta_t* chunk){
 116              		.loc 1 164 38 is_stmt 1
 117              		.cfi_startproc
 118              	.LVL6:
 119 0084 130101FF 		addi	sp,sp,-16
 120              		.cfi_def_cfa_offset 16
 121 0088 23348100 		sd	s0,8(sp)
 122              		.cfi_offset 8, -8
 123 008c 13040101 		addi	s0,sp,16
 124              		.cfi_def_cfa 8, 0
GAS LISTING /tmp/ccvtk9xj.s 			page 6


 165:src/kernel/mmanagement/buddy_allocator.cpp ****     /* chk if address is valid */
 166:src/kernel/mmanagement/buddy_allocator.cpp ****     if( ((uint64)chunk & (BLOCK_SIZE - 1)) || chunk < start_address ) return nullptr;
 125              		.loc 1 166 5
 126              		.loc 1 166 24 is_stmt 0
 127 0090 B7170000 		li	a5,4096
 128 0094 9387F7FF 		addi	a5,a5,-1
 129 0098 B3F7F500 		and	a5,a1,a5
 130              		.loc 1 166 5
 131 009c 63960702 		bne	a5,zero,.L11
 132              		.loc 1 166 55 discriminator 2
 133 00a0 83370500 		ld	a5,0(a0)
 134              		.loc 1 166 44 discriminator 2
 135 00a4 63E6F502 		bgtu	a5,a1,.L12
 167:src/kernel/mmanagement/buddy_allocator.cpp ****     return (mmeta_t*)( (uint64)chunk + (BLOCK_SIZE << (chunk->level - 1)) ) ;
 136              		.loc 1 167 5 is_stmt 1
 137              		.loc 1 167 63 is_stmt 0
 138 00a8 03C50501 		lbu	a0,16(a1)
 139              	.LVL7:
 140              		.loc 1 167 69
 141 00ac 9B07F5FF 		addiw	a5,a0,-1
 142              		.loc 1 167 52
 143 00b0 37150000 		li	a0,4096
 144 00b4 3315F500 		sll	a0,a0,a5
 145              		.loc 1 167 38
 146 00b8 3385A500 		add	a0,a1,a0
 147              	.L9:
 168:src/kernel/mmanagement/buddy_allocator.cpp **** }
 148              		.loc 1 168 1
 149 00bc 03348100 		ld	s0,8(sp)
 150              		.cfi_remember_state
 151              		.cfi_restore 8
 152              		.cfi_def_cfa 2, 16
 153 00c0 13010101 		addi	sp,sp,16
 154              		.cfi_def_cfa_offset 0
 155 00c4 67800000 		jr	ra
 156              	.LVL8:
 157              	.L11:
 158              		.cfi_restore_state
 166:src/kernel/mmanagement/buddy_allocator.cpp ****     return (mmeta_t*)( (uint64)chunk + (BLOCK_SIZE << (chunk->level - 1)) ) ;
 159              		.loc 1 166 78
 160 00c8 13050000 		li	a0,0
 161              	.LVL9:
 162 00cc 6FF01FFF 		j	.L9
 163              	.LVL10:
 164              	.L12:
 165 00d0 13050000 		li	a0,0
 166              	.LVL11:
 167 00d4 6FF09FFE 		j	.L9
 168              		.cfi_endproc
 169              	.LFE123:
 171              		.align	2
 172              		.globl	_ZN5Buddy11get_bit_valEm
 174              	_ZN5Buddy11get_bit_valEm:
 175              	.LFB125:
 169:src/kernel/mmanagement/buddy_allocator.cpp **** 
 170:src/kernel/mmanagement/buddy_allocator.cpp **** mmeta_t* Buddy::merge_ip(mmeta_t* chunk){
 171:src/kernel/mmanagement/buddy_allocator.cpp ****     size_t bi = BLOCK_IND(chunk);
GAS LISTING /tmp/ccvtk9xj.s 			page 7


 172:src/kernel/mmanagement/buddy_allocator.cpp ****     size_t budd_bi;
 173:src/kernel/mmanagement/buddy_allocator.cpp **** 
 174:src/kernel/mmanagement/buddy_allocator.cpp ****     budd_bi = bi ^ (1ULL << chunk->level);
 175:src/kernel/mmanagement/buddy_allocator.cpp **** 
 176:src/kernel/mmanagement/buddy_allocator.cpp ****     if(!get_bit_val(bi)) return nullptr;
 177:src/kernel/mmanagement/buddy_allocator.cpp ****     /* get buddy address */
 178:src/kernel/mmanagement/buddy_allocator.cpp ****     mmeta_t* budd_addr = (mmeta_t*)((budd_bi << BLOCK_SIZE_BIT_LEN) + (size_t)start_address);
 179:src/kernel/mmanagement/buddy_allocator.cpp ****     if(budd_addr->level != chunk->level) return nullptr;
 180:src/kernel/mmanagement/buddy_allocator.cpp ****    
 181:src/kernel/mmanagement/buddy_allocator.cpp ****     int code = remove_from_list(budd_addr->level, budd_addr);    
 182:src/kernel/mmanagement/buddy_allocator.cpp ****     if(code < 0) return nullptr;
 183:src/kernel/mmanagement/buddy_allocator.cpp **** 
 184:src/kernel/mmanagement/buddy_allocator.cpp ****     if(budd_bi < bi){
 185:src/kernel/mmanagement/buddy_allocator.cpp ****         swap(bi, budd_bi);
 186:src/kernel/mmanagement/buddy_allocator.cpp ****         swap(chunk, budd_addr);
 187:src/kernel/mmanagement/buddy_allocator.cpp ****     }
 188:src/kernel/mmanagement/buddy_allocator.cpp ****     clr_bit(budd_bi);
 189:src/kernel/mmanagement/buddy_allocator.cpp ****     set_bit(bi);
 190:src/kernel/mmanagement/buddy_allocator.cpp ****     chunk->level = chunk->level + 1;
 191:src/kernel/mmanagement/buddy_allocator.cpp **** 
 192:src/kernel/mmanagement/buddy_allocator.cpp ****     return chunk;
 193:src/kernel/mmanagement/buddy_allocator.cpp **** }
 194:src/kernel/mmanagement/buddy_allocator.cpp **** 
 195:src/kernel/mmanagement/buddy_allocator.cpp **** bool Buddy::get_bit_val(size_t index){
 176              		.loc 1 195 38 is_stmt 1
 177              		.cfi_startproc
 178              	.LVL12:
 179 00d8 130101FF 		addi	sp,sp,-16
 180              		.cfi_def_cfa_offset 16
 181 00dc 23348100 		sd	s0,8(sp)
 182              		.cfi_offset 8, -8
 183 00e0 13040101 		addi	s0,sp,16
 184              		.cfi_def_cfa 8, 0
 196:src/kernel/mmanagement/buddy_allocator.cpp ****     size_t entry = index >> 3;
 185              		.loc 1 196 5
 186              		.loc 1 196 12 is_stmt 0
 187 00e4 13D73500 		srli	a4,a1,3
 188              	.LVL13:
 197:src/kernel/mmanagement/buddy_allocator.cpp ****     return fmap[entry] & ( 1 << (index & 7) );
 189              		.loc 1 197 5 is_stmt 1
 190              		.loc 1 197 12 is_stmt 0
 191 00e8 83378501 		ld	a5,24(a0)
 192              		.loc 1 197 22
 193 00ec B387E700 		add	a5,a5,a4
 194 00f0 03C50700 		lbu	a0,0(a5)
 195              	.LVL14:
 196              		.loc 1 197 40
 197 00f4 93F57500 		andi	a1,a1,7
 198              	.LVL15:
 199              		.loc 1 197 45
 200 00f8 3B55B540 		sraw	a0,a0,a1
 198:src/kernel/mmanagement/buddy_allocator.cpp **** }
 201              		.loc 1 198 1
 202 00fc 13751500 		andi	a0,a0,1
 203 0100 03348100 		ld	s0,8(sp)
 204              		.cfi_restore 8
 205              		.cfi_def_cfa 2, 16
GAS LISTING /tmp/ccvtk9xj.s 			page 8


 206 0104 13010101 		addi	sp,sp,16
 207              		.cfi_def_cfa_offset 0
 208 0108 67800000 		jr	ra
 209              		.cfi_endproc
 210              	.LFE125:
 212              		.align	2
 213              		.globl	_ZN5Buddy11add_to_listEhP7mmeta_t
 215              	_ZN5Buddy11add_to_listEhP7mmeta_t:
 216              	.LFB120:
 114:src/kernel/mmanagement/buddy_allocator.cpp ****     if(level > max_level) return -4;
 217              		.loc 1 114 52 is_stmt 1
 218              		.cfi_startproc
 219              	.LVL16:
 115:src/kernel/mmanagement/buddy_allocator.cpp ****     if( !chunk || ((uint64)chunk & (BLOCK_SIZE - 1)) ) return -1;
 220              		.loc 1 115 5
 115:src/kernel/mmanagement/buddy_allocator.cpp ****     if( !chunk || ((uint64)chunk & (BLOCK_SIZE - 1)) ) return -1;
 221              		.loc 1 115 16 is_stmt 0
 222 010c 83378500 		ld	a5,8(a0)
 115:src/kernel/mmanagement/buddy_allocator.cpp ****     if( !chunk || ((uint64)chunk & (BLOCK_SIZE - 1)) ) return -1;
 223              		.loc 1 115 5
 224 0110 63EEB70A 		bgtu	a1,a5,.L19
 116:src/kernel/mmanagement/buddy_allocator.cpp ****     if(!get_bit_val(BLOCK_IND(chunk))) return -2;
 225              		.loc 1 116 5 is_stmt 1
 226 0114 6300060C 		beq	a2,zero,.L20
 116:src/kernel/mmanagement/buddy_allocator.cpp ****     if(!get_bit_val(BLOCK_IND(chunk))) return -2;
 227              		.loc 1 116 34 is_stmt 0 discriminator 2
 228 0118 B7170000 		li	a5,4096
 229 011c 9387F7FF 		addi	a5,a5,-1
 230 0120 B377F600 		and	a5,a2,a5
 116:src/kernel/mmanagement/buddy_allocator.cpp ****     if(!get_bit_val(BLOCK_IND(chunk))) return -2;
 231              		.loc 1 116 16 discriminator 2
 232 0124 639C070A 		bne	a5,zero,.L21
 114:src/kernel/mmanagement/buddy_allocator.cpp ****     if(level > max_level) return -4;
 233              		.loc 1 114 52
 234 0128 130101FD 		addi	sp,sp,-48
 235              		.cfi_def_cfa_offset 48
 236 012c 23341102 		sd	ra,40(sp)
 237 0130 23308102 		sd	s0,32(sp)
 238 0134 233C9100 		sd	s1,24(sp)
 239 0138 23382101 		sd	s2,16(sp)
 240 013c 23343101 		sd	s3,8(sp)
 241              		.cfi_offset 1, -8
 242              		.cfi_offset 8, -16
 243              		.cfi_offset 9, -24
 244              		.cfi_offset 18, -32
 245              		.cfi_offset 19, -40
 246 0140 13040103 		addi	s0,sp,48
 247              		.cfi_def_cfa 8, 0
 248 0144 93040600 		mv	s1,a2
 249 0148 93890500 		mv	s3,a1
 250 014c 13090500 		mv	s2,a0
 117:src/kernel/mmanagement/buddy_allocator.cpp ****     
 251              		.loc 1 117 5 is_stmt 1
 117:src/kernel/mmanagement/buddy_allocator.cpp ****     
 252              		.loc 1 117 21 is_stmt 0
 253 0150 83370500 		ld	a5,0(a0)
 254 0154 B307F640 		sub	a5,a2,a5
GAS LISTING /tmp/ccvtk9xj.s 			page 9


 117:src/kernel/mmanagement/buddy_allocator.cpp ****     
 255              		.loc 1 117 20
 256 0158 97050000 		lbu	a1,_ZN5Buddy18BLOCK_SIZE_BIT_LENE
 256      83C50500 
 257              	.LVL17:
 258 0160 B3D5B700 		srl	a1,a5,a1
 259 0164 97000000 		call	_ZN5Buddy11get_bit_valEm
 259      E7800000 
 260              	.LVL18:
 117:src/kernel/mmanagement/buddy_allocator.cpp ****     
 261              		.loc 1 117 5
 262 016c 630C0506 		beq	a0,zero,.L22
 120:src/kernel/mmanagement/buddy_allocator.cpp ****     chunk -> prev = 0;
 263              		.loc 1 120 5 is_stmt 1
 120:src/kernel/mmanagement/buddy_allocator.cpp ****     chunk -> prev = 0;
 264              		.loc 1 120 21 is_stmt 0
 265 0170 83370901 		ld	a5,16(s2)
 120:src/kernel/mmanagement/buddy_allocator.cpp ****     chunk -> prev = 0;
 266              		.loc 1 120 30
 267 0174 13973900 		slli	a4,s3,3
 268 0178 B387E700 		add	a5,a5,a4
 269 017c 83B70700 		ld	a5,0(a5)
 120:src/kernel/mmanagement/buddy_allocator.cpp ****     chunk -> prev = 0;
 270              		.loc 1 120 19
 271 0180 23B0F400 		sd	a5,0(s1)
 121:src/kernel/mmanagement/buddy_allocator.cpp ****     chunk -> level = level;
 272              		.loc 1 121 5 is_stmt 1
 121:src/kernel/mmanagement/buddy_allocator.cpp ****     chunk -> level = level;
 273              		.loc 1 121 19 is_stmt 0
 274 0184 23B40400 		sd	zero,8(s1)
 122:src/kernel/mmanagement/buddy_allocator.cpp ****     if(lhp[level]) lhp[level] -> prev = chunk;
 275              		.loc 1 122 5 is_stmt 1
 122:src/kernel/mmanagement/buddy_allocator.cpp ****     if(lhp[level]) lhp[level] -> prev = chunk;
 276              		.loc 1 122 20 is_stmt 0
 277 0188 23883401 		sb	s3,16(s1)
 123:src/kernel/mmanagement/buddy_allocator.cpp ****     lhp[level] = chunk;
 278              		.loc 1 123 5 is_stmt 1
 123:src/kernel/mmanagement/buddy_allocator.cpp ****     lhp[level] = chunk;
 279              		.loc 1 123 8 is_stmt 0
 280 018c 83370901 		ld	a5,16(s2)
 123:src/kernel/mmanagement/buddy_allocator.cpp ****     lhp[level] = chunk;
 281              		.loc 1 123 17
 282 0190 B387E700 		add	a5,a5,a4
 283 0194 83B70700 		ld	a5,0(a5)
 123:src/kernel/mmanagement/buddy_allocator.cpp ****     lhp[level] = chunk;
 284              		.loc 1 123 5
 285 0198 63840700 		beq	a5,zero,.L18
 123:src/kernel/mmanagement/buddy_allocator.cpp ****     lhp[level] = chunk;
 286              		.loc 1 123 20 is_stmt 1 discriminator 1
 123:src/kernel/mmanagement/buddy_allocator.cpp ****     lhp[level] = chunk;
 287              		.loc 1 123 39 is_stmt 0 discriminator 1
 288 019c 23B49700 		sd	s1,8(a5)
 289              	.L18:
 124:src/kernel/mmanagement/buddy_allocator.cpp **** 
 290              		.loc 1 124 5 is_stmt 1
 291 01a0 83370901 		ld	a5,16(s2)
 124:src/kernel/mmanagement/buddy_allocator.cpp **** 
GAS LISTING /tmp/ccvtk9xj.s 			page 10


 292              		.loc 1 124 14 is_stmt 0
 293 01a4 B387E700 		add	a5,a5,a4
 124:src/kernel/mmanagement/buddy_allocator.cpp **** 
 294              		.loc 1 124 16
 295 01a8 23B09700 		sd	s1,0(a5)
 126:src/kernel/mmanagement/buddy_allocator.cpp **** }
 296              		.loc 1 126 5 is_stmt 1
 126:src/kernel/mmanagement/buddy_allocator.cpp **** }
 297              		.loc 1 126 12 is_stmt 0
 298 01ac 13050000 		li	a0,0
 299              	.L17:
 127:src/kernel/mmanagement/buddy_allocator.cpp **** 
 300              		.loc 1 127 1
 301 01b0 83308102 		ld	ra,40(sp)
 302              		.cfi_restore 1
 303 01b4 03340102 		ld	s0,32(sp)
 304              		.cfi_restore 8
 305              		.cfi_def_cfa 2, 48
 306 01b8 83348101 		ld	s1,24(sp)
 307              		.cfi_restore 9
 308              	.LVL19:
 309 01bc 03390101 		ld	s2,16(sp)
 310              		.cfi_restore 18
 311              	.LVL20:
 312 01c0 83398100 		ld	s3,8(sp)
 313              		.cfi_restore 19
 314 01c4 13010103 		addi	sp,sp,48
 315              		.cfi_def_cfa_offset 0
 316 01c8 67800000 		jr	ra
 317              	.LVL21:
 318              	.L19:
 115:src/kernel/mmanagement/buddy_allocator.cpp ****     if( !chunk || ((uint64)chunk & (BLOCK_SIZE - 1)) ) return -1;
 319              		.loc 1 115 35
 320 01cc 1305C0FF 		li	a0,-4
 321              	.LVL22:
 322 01d0 67800000 		ret
 323              	.LVL23:
 324              	.L20:
 116:src/kernel/mmanagement/buddy_allocator.cpp ****     if(!get_bit_val(BLOCK_IND(chunk))) return -2;
 325              		.loc 1 116 64
 326 01d4 1305F0FF 		li	a0,-1
 327              	.LVL24:
 328 01d8 67800000 		ret
 329              	.LVL25:
 330              	.L21:
 331 01dc 1305F0FF 		li	a0,-1
 332              	.LVL26:
 127:src/kernel/mmanagement/buddy_allocator.cpp **** 
 333              		.loc 1 127 1
 334 01e0 67800000 		ret
 335              	.LVL27:
 336              	.L22:
 337              		.cfi_def_cfa_register 8
 338              		.cfi_offset 1, -8
 339              		.cfi_offset 8, -16
 340              		.cfi_offset 9, -24
 341              		.cfi_offset 18, -32
GAS LISTING /tmp/ccvtk9xj.s 			page 11


 342              		.cfi_offset 19, -40
 117:src/kernel/mmanagement/buddy_allocator.cpp ****     
 343              		.loc 1 117 48
 344 01e4 1305E0FF 		li	a0,-2
 345 01e8 6FF09FFC 		j	.L17
 346              		.cfi_endproc
 347              	.LFE120:
 349              		.align	2
 350              		.globl	_ZN5BuddyC2EPvh
 352              	_ZN5BuddyC2EPvh:
 353              	.LFB114:
   8:src/kernel/mmanagement/buddy_allocator.cpp ****     start_address = saddr;
 354              		.loc 1 8 1 is_stmt 1
 355              		.cfi_startproc
 356              	.LVL28:
 357 01ec 130101FD 		addi	sp,sp,-48
 358              		.cfi_def_cfa_offset 48
 359 01f0 23341102 		sd	ra,40(sp)
 360 01f4 23308102 		sd	s0,32(sp)
 361 01f8 233C9100 		sd	s1,24(sp)
 362 01fc 23382101 		sd	s2,16(sp)
 363 0200 23343101 		sd	s3,8(sp)
 364              		.cfi_offset 1, -8
 365              		.cfi_offset 8, -16
 366              		.cfi_offset 9, -24
 367              		.cfi_offset 18, -32
 368              		.cfi_offset 19, -40
 369 0204 13040103 		addi	s0,sp,48
 370              		.cfi_def_cfa 8, 0
 371 0208 93040500 		mv	s1,a0
 372 020c 93090600 		mv	s3,a2
 373              	.LBB17:
   9:src/kernel/mmanagement/buddy_allocator.cpp ****     max_level = level;
 374              		.loc 1 9 5
   9:src/kernel/mmanagement/buddy_allocator.cpp ****     max_level = level;
 375              		.loc 1 9 19 is_stmt 0
 376 0210 2330B500 		sd	a1,0(a0)
  10:src/kernel/mmanagement/buddy_allocator.cpp ****     
 377              		.loc 1 10 5 is_stmt 1
  10:src/kernel/mmanagement/buddy_allocator.cpp ****     
 378              		.loc 1 10 15 is_stmt 0
 379 0214 23B4C400 		sd	a2,8(s1)
  13:src/kernel/mmanagement/buddy_allocator.cpp ****     uint64 y = (uint64)saddr + (BLOCK_SIZE << max_level);
 380              		.loc 1 13 5 is_stmt 1
 381              	.LBB18:
 382              	.LBB19:
 383              		.file 2 "src/kernel/mmanagement/../../../h/../h/noalloc_allocator.hpp"
   1:src/kernel/mmanagement/../../../h/../h/noalloc_allocator.hpp **** #ifndef NOALLOC_ALLOCATOR_H
   2:src/kernel/mmanagement/../../../h/../h/noalloc_allocator.hpp **** #define NOALLOC_ALLOCATOR_H
   3:src/kernel/mmanagement/../../../h/../h/noalloc_allocator.hpp **** 
   4:src/kernel/mmanagement/../../../h/../h/noalloc_allocator.hpp **** #include"../lib/hw.h"
   5:src/kernel/mmanagement/../../../h/../h/noalloc_allocator.hpp **** 
   6:src/kernel/mmanagement/../../../h/../h/noalloc_allocator.hpp **** /* CHECK THIS !!!!!
   7:src/kernel/mmanagement/../../../h/../h/noalloc_allocator.hpp **** *
   8:src/kernel/mmanagement/../../../h/../h/noalloc_allocator.hpp **** * No existing allocator operator functions;
   9:src/kernel/mmanagement/../../../h/../h/noalloc_allocator.hpp **** * Used for allocating allocator objects;
  10:src/kernel/mmanagement/../../../h/../h/noalloc_allocator.hpp **** * Allocators are not deallocated so operator delete is not needed;
GAS LISTING /tmp/ccvtk9xj.s 			page 12


  11:src/kernel/mmanagement/../../../h/../h/noalloc_allocator.hpp **** *
  12:src/kernel/mmanagement/../../../h/../h/noalloc_allocator.hpp **** */
  13:src/kernel/mmanagement/../../../h/../h/noalloc_allocator.hpp **** #define __NOALLOC_OPERATORS__ \
  14:src/kernel/mmanagement/../../../h/../h/noalloc_allocator.hpp **** void* operator new(size_t sz){ return NoAlloc::mem_alloc(sz); } \
  15:src/kernel/mmanagement/../../../h/../h/noalloc_allocator.hpp **** void* operator new[](size_t sz){ return NoAlloc::mem_alloc(sz); } \
  16:src/kernel/mmanagement/../../../h/../h/noalloc_allocator.hpp **** void operator delete(void* ptr){  } \
  17:src/kernel/mmanagement/../../../h/../h/noalloc_allocator.hpp **** void operator delete[](void* ptr){  }
  18:src/kernel/mmanagement/../../../h/../h/noalloc_allocator.hpp **** 
  19:src/kernel/mmanagement/../../../h/../h/noalloc_allocator.hpp **** 
  20:src/kernel/mmanagement/../../../h/../h/noalloc_allocator.hpp **** /* 
  21:src/kernel/mmanagement/../../../h/../h/noalloc_allocator.hpp **** * Continual allocation used when there is no allocator;
  22:src/kernel/mmanagement/../../../h/../h/noalloc_allocator.hpp **** * -----USED FOR ALLOCATING ALLOCATOR OBJECTS-----
  23:src/kernel/mmanagement/../../../h/../h/noalloc_allocator.hpp **** */
  24:src/kernel/mmanagement/../../../h/../h/noalloc_allocator.hpp **** class NoAlloc{ /* singleton */ 
  25:src/kernel/mmanagement/../../../h/../h/noalloc_allocator.hpp ****     static bool working;
  26:src/kernel/mmanagement/../../../h/../h/noalloc_allocator.hpp ****     static void* NOALLOC_END_ADDR; 
  27:src/kernel/mmanagement/../../../h/../h/noalloc_allocator.hpp **** public:
  28:src/kernel/mmanagement/../../../h/../h/noalloc_allocator.hpp ****     static void init(); /* set NOALLOC END ADDR = HEAP START ADDR */
  29:src/kernel/mmanagement/../../../h/../h/noalloc_allocator.hpp ****     static void* getEndAddress(){ return NOALLOC_END_ADDR; } /* get end address of allocated object
 384              		.loc 2 29 35
 385              		.loc 2 29 42 is_stmt 0
 386 0218 97070000 		lla	a5,_ZN7NoAlloc16NOALLOC_END_ADDRE
 386      93870700 
 387 0220 03B50700 		ld	a0,0(a5)
 388              	.LVL29:
 389              	.LBE19:
 390              	.LBE18:
  14:src/kernel/mmanagement/buddy_allocator.cpp ****     void* ind = NoAlloc::mem_alloc(y - x);
 391              		.loc 1 14 5 is_stmt 1
  14:src/kernel/mmanagement/buddy_allocator.cpp ****     void* ind = NoAlloc::mem_alloc(y - x);
 392              		.loc 1 14 44 is_stmt 0
 393 0224 B7170000 		li	a5,4096
 394 0228 B397C700 		sll	a5,a5,a2
  14:src/kernel/mmanagement/buddy_allocator.cpp ****     void* ind = NoAlloc::mem_alloc(y - x);
 395              		.loc 1 14 12
 396 022c B387B700 		add	a5,a5,a1
 397              	.LVL30:
  15:src/kernel/mmanagement/buddy_allocator.cpp **** 
 398              		.loc 1 15 5 is_stmt 1
  15:src/kernel/mmanagement/buddy_allocator.cpp **** 
 399              		.loc 1 15 35 is_stmt 0
 400 0230 3385A740 		sub	a0,a5,a0
 401              	.LVL31:
 402 0234 97000000 		call	_ZN7NoAlloc9mem_allocEm
 402      E7800000 
 403              	.LVL32:
  17:src/kernel/mmanagement/buddy_allocator.cpp **** 
 404              		.loc 1 17 5 is_stmt 1
  20:src/kernel/mmanagement/buddy_allocator.cpp ****     fmap = (uchar*)NoAlloc::mem_alloc(x);
 405              		.loc 1 20 5
  20:src/kernel/mmanagement/buddy_allocator.cpp ****     fmap = (uchar*)NoAlloc::mem_alloc(x);
 406              		.loc 1 20 34 is_stmt 0
 407 023c 17090000 		lbu	s2,_ZN5Buddy18BLOCK_SIZE_BIT_LENE
 407      03490900 
 408 0244 9B07D9FF 		addiw	a5,s2,-3
  20:src/kernel/mmanagement/buddy_allocator.cpp ****     fmap = (uchar*)NoAlloc::mem_alloc(x);
 409              		.loc 1 20 11
GAS LISTING /tmp/ccvtk9xj.s 			page 13


 410 0248 13091000 		li	s2,1
 411 024c 3B19F900 		sllw	s2,s2,a5
 412              	.LVL33:
  21:src/kernel/mmanagement/buddy_allocator.cpp ****     if(!fmap) { /* panic */ }
 413              		.loc 1 21 5 is_stmt 1
  21:src/kernel/mmanagement/buddy_allocator.cpp ****     if(!fmap) { /* panic */ }
 414              		.loc 1 21 38 is_stmt 0
 415 0250 13050900 		mv	a0,s2
 416 0254 97000000 		call	_ZN7NoAlloc9mem_allocEm
 416      E7800000 
 417              	.LVL34:
  21:src/kernel/mmanagement/buddy_allocator.cpp ****     if(!fmap) { /* panic */ }
 418              		.loc 1 21 10
 419 025c 23BCA400 		sd	a0,24(s1)
  22:src/kernel/mmanagement/buddy_allocator.cpp ****     for(uint64 i = 0; i < x; i++) fmap[i] = 0;
 420              		.loc 1 22 5 is_stmt 1
  23:src/kernel/mmanagement/buddy_allocator.cpp ****     
 421              		.loc 1 23 5
 422              	.LVL35:
 423              	.LBB20:
  23:src/kernel/mmanagement/buddy_allocator.cpp ****     
 424              		.loc 1 23 16 is_stmt 0
 425 0260 93070000 		li	a5,0
 426              	.LVL36:
 427              	.L29:
  23:src/kernel/mmanagement/buddy_allocator.cpp ****     
 428              		.loc 1 23 25 discriminator 3
 429 0264 63FC2701 		bgeu	a5,s2,.L28
  23:src/kernel/mmanagement/buddy_allocator.cpp ****     
 430              		.loc 1 23 35 is_stmt 1 discriminator 2
 431 0268 03B78401 		ld	a4,24(s1)
  23:src/kernel/mmanagement/buddy_allocator.cpp ****     
 432              		.loc 1 23 41 is_stmt 0 discriminator 2
 433 026c 3307F700 		add	a4,a4,a5
  23:src/kernel/mmanagement/buddy_allocator.cpp ****     
 434              		.loc 1 23 43 discriminator 2
 435 0270 23000700 		sb	zero,0(a4)
  23:src/kernel/mmanagement/buddy_allocator.cpp ****     
 436              		.loc 1 23 5 discriminator 2
 437 0274 93871700 		addi	a5,a5,1
 438              	.LVL37:
 439 0278 6FF0DFFE 		j	.L29
 440              	.L28:
 441              	.LBE20:
  26:src/kernel/mmanagement/buddy_allocator.cpp ****     if(!lhp) { /* panic */ }
 442              		.loc 1 26 5 is_stmt 1
  26:src/kernel/mmanagement/buddy_allocator.cpp ****     if(!lhp) { /* panic */ }
 443              		.loc 1 26 47 is_stmt 0
 444 027c 13851900 		addi	a0,s3,1
  26:src/kernel/mmanagement/buddy_allocator.cpp ****     if(!lhp) { /* panic */ }
 445              		.loc 1 26 40
 446 0280 13153500 		slli	a0,a0,3
 447 0284 97000000 		call	_ZN7NoAlloc9mem_allocEm
 447      E7800000 
 448              	.LVL38:
  26:src/kernel/mmanagement/buddy_allocator.cpp ****     if(!lhp) { /* panic */ }
 449              		.loc 1 26 9
GAS LISTING /tmp/ccvtk9xj.s 			page 14


 450 028c 23B8A400 		sd	a0,16(s1)
  27:src/kernel/mmanagement/buddy_allocator.cpp ****     for(uchar i = 0; i < max_level + 1; i++)
 451              		.loc 1 27 5 is_stmt 1
  28:src/kernel/mmanagement/buddy_allocator.cpp ****         lhp[i] = nullptr;
 452              		.loc 1 28 5
 453              	.LVL39:
 454              	.LBB21:
  28:src/kernel/mmanagement/buddy_allocator.cpp ****         lhp[i] = nullptr;
 455              		.loc 1 28 15 is_stmt 0
 456 0290 93070000 		li	a5,0
 457              	.LVL40:
 458              	.L31:
  28:src/kernel/mmanagement/buddy_allocator.cpp ****         lhp[i] = nullptr;
 459              		.loc 1 28 26 discriminator 3
 460 0294 03B78400 		ld	a4,8(s1)
  28:src/kernel/mmanagement/buddy_allocator.cpp ****         lhp[i] = nullptr;
 461              		.loc 1 28 36 discriminator 3
 462 0298 13071700 		addi	a4,a4,1
  28:src/kernel/mmanagement/buddy_allocator.cpp ****         lhp[i] = nullptr;
 463              		.loc 1 28 24 discriminator 3
 464 029c 63F0E702 		bgeu	a5,a4,.L30
  29:src/kernel/mmanagement/buddy_allocator.cpp **** 
 465              		.loc 1 29 9 is_stmt 1 discriminator 2
 466 02a0 03B70401 		ld	a4,16(s1)
  29:src/kernel/mmanagement/buddy_allocator.cpp **** 
 467              		.loc 1 29 14 is_stmt 0 discriminator 2
 468 02a4 93963700 		slli	a3,a5,3
 469 02a8 3307D700 		add	a4,a4,a3
  29:src/kernel/mmanagement/buddy_allocator.cpp **** 
 470              		.loc 1 29 16 discriminator 2
 471 02ac 23300700 		sd	zero,0(a4)
  28:src/kernel/mmanagement/buddy_allocator.cpp ****         lhp[i] = nullptr;
 472              		.loc 1 28 5 discriminator 2
 473 02b0 9B871700 		addiw	a5,a5,1
 474              	.LVL41:
 475 02b4 93F7F70F 		andi	a5,a5,0xff
 476              	.LVL42:
 477 02b8 6FF0DFFD 		j	.L31
 478              	.L30:
 479              	.LBE21:
  33:src/kernel/mmanagement/buddy_allocator.cpp ****     int code = add_to_list(max_level, (mmeta_t*)start_address);
 480              		.loc 1 33 5 is_stmt 1
 481 02bc 03B78401 		ld	a4,24(s1)
  33:src/kernel/mmanagement/buddy_allocator.cpp ****     int code = add_to_list(max_level, (mmeta_t*)start_address);
 482              		.loc 1 33 13 is_stmt 0
 483 02c0 83470700 		lbu	a5,0(a4)
 484              	.LVL43:
 485 02c4 93E71700 		ori	a5,a5,1
 486 02c8 2300F700 		sb	a5,0(a4)
  34:src/kernel/mmanagement/buddy_allocator.cpp ****     if ( code < 0) {
 487              		.loc 1 34 5 is_stmt 1
  34:src/kernel/mmanagement/buddy_allocator.cpp ****     if ( code < 0) {
 488              		.loc 1 34 27 is_stmt 0
 489 02cc 03B60400 		ld	a2,0(s1)
 490 02d0 83C58400 		lbu	a1,8(s1)
 491 02d4 13850400 		mv	a0,s1
 492 02d8 97000000 		call	_ZN5Buddy11add_to_listEhP7mmeta_t
GAS LISTING /tmp/ccvtk9xj.s 			page 15


 492      E7800000 
 493              	.LVL44:
 494 02e0 93040500 		mv	s1,a0
 495              	.LVL45:
  35:src/kernel/mmanagement/buddy_allocator.cpp ****         kprintString("addtolist panic: ");
 496              		.loc 1 35 5 is_stmt 1
 497 02e4 63400502 		blt	a0,zero,.L34
 498              	.LVL46:
 499              	.L27:
 500              	.LBE17:
  40:src/kernel/mmanagement/buddy_allocator.cpp **** 
 501              		.loc 1 40 1 is_stmt 0
 502 02e8 83308102 		ld	ra,40(sp)
 503              		.cfi_remember_state
 504              		.cfi_restore 1
 505 02ec 03340102 		ld	s0,32(sp)
 506              		.cfi_restore 8
 507              		.cfi_def_cfa 2, 48
 508 02f0 83348101 		ld	s1,24(sp)
 509              		.cfi_restore 9
 510 02f4 03390101 		ld	s2,16(sp)
 511              		.cfi_restore 18
 512              	.LVL47:
 513 02f8 83398100 		ld	s3,8(sp)
 514              		.cfi_restore 19
 515 02fc 13010103 		addi	sp,sp,48
 516              		.cfi_def_cfa_offset 0
 517 0300 67800000 		jr	ra
 518              	.LVL48:
 519              	.L34:
 520              		.cfi_restore_state
 521              	.LBB22:
  36:src/kernel/mmanagement/buddy_allocator.cpp ****         kprintInt(code, 16);
 522              		.loc 1 36 9 is_stmt 1
  36:src/kernel/mmanagement/buddy_allocator.cpp ****         kprintInt(code, 16);
 523              		.loc 1 36 21 is_stmt 0
 524 0304 17050000 		lla	a0,.LC0
 524      13050500 
 525              	.LVL49:
 526 030c 97000000 		call	_Z12kprintStringPKc
 526      E7800000 
 527              	.LVL50:
  37:src/kernel/mmanagement/buddy_allocator.cpp ****         kprintString("\n");
 528              		.loc 1 37 9 is_stmt 1
  37:src/kernel/mmanagement/buddy_allocator.cpp ****         kprintString("\n");
 529              		.loc 1 37 18 is_stmt 0
 530 0314 13060000 		li	a2,0
 531 0318 93050001 		li	a1,16
 532 031c 13850400 		mv	a0,s1
 533 0320 97000000 		call	_Z9kprintIntmib
 533      E7800000 
 534              	.LVL51:
  38:src/kernel/mmanagement/buddy_allocator.cpp ****     }
 535              		.loc 1 38 9 is_stmt 1
  38:src/kernel/mmanagement/buddy_allocator.cpp ****     }
 536              		.loc 1 38 21 is_stmt 0
 537 0328 17050000 		lla	a0,.LC1
GAS LISTING /tmp/ccvtk9xj.s 			page 16


 537      13050500 
 538 0330 97000000 		call	_Z12kprintStringPKc
 538      E7800000 
 539              	.LVL52:
 540              	.LBE22:
  40:src/kernel/mmanagement/buddy_allocator.cpp **** 
 541              		.loc 1 40 1
 542 0338 6FF01FFB 		j	.L27
 543              		.cfi_endproc
 544              	.LFE114:
 546              		.globl	_ZN5BuddyC1EPvh
 547              		.set	_ZN5BuddyC1EPvh,_ZN5BuddyC2EPvh
 548              		.align	2
 549              		.globl	_ZN5Buddy9initalizeEPvh
 551              	_ZN5Buddy9initalizeEPvh:
 552              	.LFB116:
  42:src/kernel/mmanagement/buddy_allocator.cpp ****     BLOCK_SIZE_BIT_LEN = log2(BLOCK_SIZE);
 553              		.loc 1 42 47 is_stmt 1
 554              		.cfi_startproc
 555              	.LVL53:
 556 033c 130101FD 		addi	sp,sp,-48
 557              		.cfi_def_cfa_offset 48
 558 0340 23341102 		sd	ra,40(sp)
 559 0344 23308102 		sd	s0,32(sp)
 560 0348 233C9100 		sd	s1,24(sp)
 561 034c 23382101 		sd	s2,16(sp)
 562 0350 23343101 		sd	s3,8(sp)
 563              		.cfi_offset 1, -8
 564              		.cfi_offset 8, -16
 565              		.cfi_offset 9, -24
 566              		.cfi_offset 18, -32
 567              		.cfi_offset 19, -40
 568 0354 13040103 		addi	s0,sp,48
 569              		.cfi_def_cfa 8, 0
 570 0358 93040500 		mv	s1,a0
 571 035c 93890500 		mv	s3,a1
  43:src/kernel/mmanagement/buddy_allocator.cpp ****     uint64 laa = (uint64)NoAlloc::getEndAddress();
 572              		.loc 1 43 5
  43:src/kernel/mmanagement/buddy_allocator.cpp ****     uint64 laa = (uint64)NoAlloc::getEndAddress();
 573              		.loc 1 43 30 is_stmt 0
 574 0360 37150000 		li	a0,4096
 575              	.LVL54:
 576 0364 97000000 		call	_Z4log2m
 576      E7800000 
 577              	.LVL55:
  43:src/kernel/mmanagement/buddy_allocator.cpp ****     uint64 laa = (uint64)NoAlloc::getEndAddress();
 578              		.loc 1 43 24
 579 036c 97070000 		sb	a0,_ZN5Buddy18BLOCK_SIZE_BIT_LENE,a5
 579      2380A700 
  44:src/kernel/mmanagement/buddy_allocator.cpp ****     if((uint64)saddr < laa + sizeof(Buddy))
 580              		.loc 1 44 5 is_stmt 1
 581              	.LBB23:
 582              	.LBB24:
 583              		.loc 2 29 35
 584              		.loc 2 29 42 is_stmt 0
 585 0374 97070000 		lla	a5,_ZN7NoAlloc16NOALLOC_END_ADDRE
 585      93870700 
GAS LISTING /tmp/ccvtk9xj.s 			page 17


 586 037c 83B70700 		ld	a5,0(a5)
 587              	.LVL56:
 588              	.LBE24:
 589              	.LBE23:
  45:src/kernel/mmanagement/buddy_allocator.cpp ****         return 1;
 590              		.loc 1 45 5 is_stmt 1
  45:src/kernel/mmanagement/buddy_allocator.cpp ****         return 1;
 591              		.loc 1 45 28 is_stmt 0
 592 0380 93870702 		addi	a5,a5,32
 593              	.LVL57:
  45:src/kernel/mmanagement/buddy_allocator.cpp ****         return 1;
 594              		.loc 1 45 5
 595 0384 63F2F402 		bgeu	s1,a5,.L41
  46:src/kernel/mmanagement/buddy_allocator.cpp ****     saddr = (void*) blockAlign((uint64)saddr);
 596              		.loc 1 46 16
 597 0388 13051000 		li	a0,1
 598              	.LVL58:
 599              	.L36:
  52:src/kernel/mmanagement/buddy_allocator.cpp **** 
 600              		.loc 1 52 1
 601 038c 83308102 		ld	ra,40(sp)
 602              		.cfi_remember_state
 603              		.cfi_restore 1
 604 0390 03340102 		ld	s0,32(sp)
 605              		.cfi_restore 8
 606              		.cfi_def_cfa 2, 48
 607 0394 83348101 		ld	s1,24(sp)
 608              		.cfi_restore 9
 609              	.LVL59:
 610 0398 03390101 		ld	s2,16(sp)
 611              		.cfi_restore 18
 612 039c 83398100 		ld	s3,8(sp)
 613              		.cfi_restore 19
 614 03a0 13010103 		addi	sp,sp,48
 615              		.cfi_def_cfa_offset 0
 616 03a4 67800000 		jr	ra
 617              	.LVL60:
 618              	.L41:
 619              		.cfi_restore_state
  47:src/kernel/mmanagement/buddy_allocator.cpp ****     buddy = new Buddy(saddr, level);
 620              		.loc 1 47 5 is_stmt 1
 621              	.LBB25:
 622              	.LBB26:
 623              		.file 3 "src/kernel/mmanagement/../../../h/../h/buddy.h"
   1:src/kernel/mmanagement/../../../h/../h/buddy.h **** #ifndef buddy_h
   2:src/kernel/mmanagement/../../../h/../h/buddy.h **** #define buddy_h
   3:src/kernel/mmanagement/../../../h/../h/buddy.h **** 
   4:src/kernel/mmanagement/../../../h/../h/buddy.h **** #include"../h/noalloc_allocator.hpp"
   5:src/kernel/mmanagement/../../../h/../h/buddy.h **** #define BUDDY_LEVEL(num) \
   6:src/kernel/mmanagement/../../../h/../h/buddy.h **** (log2( (( (uint64) num - 1 ) >> log2(Buddy::BLOCK_SIZE)) + 1))
   7:src/kernel/mmanagement/../../../h/../h/buddy.h **** 
   8:src/kernel/mmanagement/../../../h/../h/buddy.h **** struct mmeta_t{
   9:src/kernel/mmanagement/../../../h/../h/buddy.h ****     mmeta_t* next,*prev;
  10:src/kernel/mmanagement/../../../h/../h/buddy.h ****     uchar level;
  11:src/kernel/mmanagement/../../../h/../h/buddy.h **** };
  12:src/kernel/mmanagement/../../../h/../h/buddy.h **** 
  13:src/kernel/mmanagement/../../../h/../h/buddy.h **** class Buddy{
GAS LISTING /tmp/ccvtk9xj.s 			page 18


  14:src/kernel/mmanagement/../../../h/../h/buddy.h **** private:
  15:src/kernel/mmanagement/../../../h/../h/buddy.h ****     static uchar BLOCK_SIZE_BIT_LEN;
  16:src/kernel/mmanagement/../../../h/../h/buddy.h ****     /* singleton */
  17:src/kernel/mmanagement/../../../h/../h/buddy.h ****     static Buddy* buddy; 
  18:src/kernel/mmanagement/../../../h/../h/buddy.h ****     /* level is order of two */
  19:src/kernel/mmanagement/../../../h/../h/buddy.h ****     void* start_address; 
  20:src/kernel/mmanagement/../../../h/../h/buddy.h ****     size_t max_level; 
  21:src/kernel/mmanagement/../../../h/../h/buddy.h ****     mmeta_t** lhp;
  22:src/kernel/mmanagement/../../../h/../h/buddy.h ****     uchar* fmap; 
  23:src/kernel/mmanagement/../../../h/../h/buddy.h **** 
  24:src/kernel/mmanagement/../../../h/../h/buddy.h ****     __NOALLOC_OPERATORS__
  25:src/kernel/mmanagement/../../../h/../h/buddy.h ****     
  26:src/kernel/mmanagement/../../../h/../h/buddy.h ****     Buddy(void* saddr, uchar level);
  27:src/kernel/mmanagement/../../../h/../h/buddy.h ****     
  28:src/kernel/mmanagement/../../../h/../h/buddy.h ****     /* remove copy operator and constructor */
  29:src/kernel/mmanagement/../../../h/../h/buddy.h ****     Buddy(const Buddy&) = delete;
  30:src/kernel/mmanagement/../../../h/../h/buddy.h ****     void operator=(const Buddy&) = delete;
  31:src/kernel/mmanagement/../../../h/../h/buddy.h **** 
  32:src/kernel/mmanagement/../../../h/../h/buddy.h ****     /* working with lists */
  33:src/kernel/mmanagement/../../../h/../h/buddy.h ****     mmeta_t* get_from_list(uchar level);
  34:src/kernel/mmanagement/../../../h/../h/buddy.h ****     int add_to_list(uchar level, mmeta_t* chunk);
  35:src/kernel/mmanagement/../../../h/../h/buddy.h ****     int remove_from_list(uchar level, mmeta_t*);
  36:src/kernel/mmanagement/../../../h/../h/buddy.h ****     
  37:src/kernel/mmanagement/../../../h/../h/buddy.h ****     /* working with blocks */
  38:src/kernel/mmanagement/../../../h/../h/buddy.h ****     mmeta_t* split(mmeta_t*);
  39:src/kernel/mmanagement/../../../h/../h/buddy.h ****     mmeta_t* merge_ip(mmeta_t*);
  40:src/kernel/mmanagement/../../../h/../h/buddy.h ****  
  41:src/kernel/mmanagement/../../../h/../h/buddy.h ****     /* working with free map */
  42:src/kernel/mmanagement/../../../h/../h/buddy.h ****     bool get_bit_val(size_t index);
  43:src/kernel/mmanagement/../../../h/../h/buddy.h ****     void set_bit(size_t index);
  44:src/kernel/mmanagement/../../../h/../h/buddy.h ****     void clr_bit(size_t index);
  45:src/kernel/mmanagement/../../../h/../h/buddy.h **** 
  46:src/kernel/mmanagement/../../../h/../h/buddy.h ****     /* utility */
  47:src/kernel/mmanagement/../../../h/../h/buddy.h ****     void* get_buddy_addr(uchar level, void*);
  48:src/kernel/mmanagement/../../../h/../h/buddy.h ****     static uint64 blockAlign(uint64 input){
  49:src/kernel/mmanagement/../../../h/../h/buddy.h ****         return (input + BLOCK_SIZE - 1) & ( (~0ULL) << BLOCK_SIZE_BIT_LEN);
 624              		.loc 3 49 9
 625              		.loc 3 49 36 is_stmt 0
 626 03a8 B7170000 		li	a5,4096
 627 03ac 9387F7FF 		addi	a5,a5,-1
 628 03b0 B384F400 		add	s1,s1,a5
 629              	.LVL61:
 630              		.loc 3 49 53
 631 03b4 9307F0FF 		li	a5,-1
 632 03b8 3395A700 		sll	a0,a5,a0
 633              		.loc 3 49 74
 634 03bc B3F4A400 		and	s1,s1,a0
 635              	.LVL62:
 636              	.LBE26:
 637              	.LBE25:
  48:src/kernel/mmanagement/buddy_allocator.cpp ****     if(!buddy)  return 1;
 638              		.loc 1 48 5 is_stmt 1
 639              	.LBB27:
 640              	.LBB28:
  24:src/kernel/mmanagement/../../../h/../h/buddy.h ****     
 641              		.loc 3 24 5
 642 03c0 13050002 		li	a0,32
GAS LISTING /tmp/ccvtk9xj.s 			page 19


 643 03c4 97000000 		call	_ZN7NoAlloc9mem_allocEm
 643      E7800000 
 644              	.LVL63:
 645 03cc 13090500 		mv	s2,a0
 646              	.LVL64:
 647              	.LBE28:
 648              	.LBE27:
  48:src/kernel/mmanagement/buddy_allocator.cpp ****     if(!buddy)  return 1;
 649              		.loc 1 48 35 is_stmt 0
 650 03d0 630A0500 		beq	a0,zero,.L37
  48:src/kernel/mmanagement/buddy_allocator.cpp ****     if(!buddy)  return 1;
 651              		.loc 1 48 35 discriminator 1
 652 03d4 13860900 		mv	a2,s3
 653 03d8 93850400 		mv	a1,s1
 654 03dc 97000000 		call	_ZN5BuddyC1EPvh
 654      E7800000 
 655              	.LVL65:
 656              	.L37:
  48:src/kernel/mmanagement/buddy_allocator.cpp ****     if(!buddy)  return 1;
 657              		.loc 1 48 11 discriminator 6
 658 03e4 97070000 		sd	s2,_ZN5Buddy5buddyE,a5
 658      23B02701 
  49:src/kernel/mmanagement/buddy_allocator.cpp **** 
 659              		.loc 1 49 5 is_stmt 1 discriminator 6
 660 03ec 63060900 		beq	s2,zero,.L39
  51:src/kernel/mmanagement/buddy_allocator.cpp **** }
 661              		.loc 1 51 12 is_stmt 0
 662 03f0 13050000 		li	a0,0
 663 03f4 6FF09FF9 		j	.L36
 664              	.L39:
  49:src/kernel/mmanagement/buddy_allocator.cpp **** 
 665              		.loc 1 49 24
 666 03f8 13051000 		li	a0,1
 667 03fc 6FF01FF9 		j	.L36
 668              		.cfi_endproc
 669              	.LFE116:
 671              		.align	2
 672              		.globl	_ZN5Buddy16remove_from_listEhP7mmeta_t
 674              	_ZN5Buddy16remove_from_listEhP7mmeta_t:
 675              	.LFB122:
 141:src/kernel/mmanagement/buddy_allocator.cpp ****     
 676              		.loc 1 141 57 is_stmt 1
 677              		.cfi_startproc
 678              	.LVL66:
 143:src/kernel/mmanagement/buddy_allocator.cpp ****     if( !chunk || ((uint64)chunk & (BLOCK_SIZE - 1)) ) return -1;
 679              		.loc 1 143 5
 143:src/kernel/mmanagement/buddy_allocator.cpp ****     if( !chunk || ((uint64)chunk & (BLOCK_SIZE - 1)) ) return -1;
 680              		.loc 1 143 16 is_stmt 0
 681 0400 83378500 		ld	a5,8(a0)
 143:src/kernel/mmanagement/buddy_allocator.cpp ****     if( !chunk || ((uint64)chunk & (BLOCK_SIZE - 1)) ) return -1;
 682              		.loc 1 143 5
 683 0404 63EAB70C 		bgtu	a1,a5,.L46
 144:src/kernel/mmanagement/buddy_allocator.cpp ****     if(!get_bit_val(BLOCK_IND(chunk))) return -2;
 684              		.loc 1 144 5 is_stmt 1
 685 0408 630C060C 		beq	a2,zero,.L47
 144:src/kernel/mmanagement/buddy_allocator.cpp ****     if(!get_bit_val(BLOCK_IND(chunk))) return -2;
 686              		.loc 1 144 34 is_stmt 0 discriminator 2
GAS LISTING /tmp/ccvtk9xj.s 			page 20


 687 040c B7170000 		li	a5,4096
 688 0410 9387F7FF 		addi	a5,a5,-1
 689 0414 B377F600 		and	a5,a2,a5
 144:src/kernel/mmanagement/buddy_allocator.cpp ****     if(!get_bit_val(BLOCK_IND(chunk))) return -2;
 690              		.loc 1 144 16 discriminator 2
 691 0418 6398070C 		bne	a5,zero,.L48
 141:src/kernel/mmanagement/buddy_allocator.cpp ****     
 692              		.loc 1 141 57
 693 041c 130101FD 		addi	sp,sp,-48
 694              		.cfi_def_cfa_offset 48
 695 0420 23341102 		sd	ra,40(sp)
 696 0424 23308102 		sd	s0,32(sp)
 697 0428 233C9100 		sd	s1,24(sp)
 698 042c 23382101 		sd	s2,16(sp)
 699 0430 23343101 		sd	s3,8(sp)
 700              		.cfi_offset 1, -8
 701              		.cfi_offset 8, -16
 702              		.cfi_offset 9, -24
 703              		.cfi_offset 18, -32
 704              		.cfi_offset 19, -40
 705 0434 13040103 		addi	s0,sp,48
 706              		.cfi_def_cfa 8, 0
 707 0438 93040600 		mv	s1,a2
 708 043c 93890500 		mv	s3,a1
 709 0440 13090500 		mv	s2,a0
 145:src/kernel/mmanagement/buddy_allocator.cpp ****     if(!(chunk->level == level)) return -3;
 710              		.loc 1 145 5 is_stmt 1
 145:src/kernel/mmanagement/buddy_allocator.cpp ****     if(!(chunk->level == level)) return -3;
 711              		.loc 1 145 21 is_stmt 0
 712 0444 83370500 		ld	a5,0(a0)
 713 0448 B307F640 		sub	a5,a2,a5
 145:src/kernel/mmanagement/buddy_allocator.cpp ****     if(!(chunk->level == level)) return -3;
 714              		.loc 1 145 20
 715 044c 97050000 		lbu	a1,_ZN5Buddy18BLOCK_SIZE_BIT_LENE
 715      83C50500 
 716              	.LVL67:
 717 0454 B3D5B700 		srl	a1,a5,a1
 718 0458 97000000 		call	_ZN5Buddy11get_bit_valEm
 718      E7800000 
 719              	.LVL68:
 145:src/kernel/mmanagement/buddy_allocator.cpp ****     if(!(chunk->level == level)) return -3;
 720              		.loc 1 145 5
 721 0460 63080508 		beq	a0,zero,.L49
 146:src/kernel/mmanagement/buddy_allocator.cpp **** 
 722              		.loc 1 146 5 is_stmt 1
 146:src/kernel/mmanagement/buddy_allocator.cpp **** 
 723              		.loc 1 146 17 is_stmt 0
 724 0464 83C70401 		lbu	a5,16(s1)
 146:src/kernel/mmanagement/buddy_allocator.cpp **** 
 725              		.loc 1 146 5
 726 0468 63983709 		bne	a5,s3,.L50
 149:src/kernel/mmanagement/buddy_allocator.cpp ****         get_from_list(level);
 727              		.loc 1 149 5 is_stmt 1
 149:src/kernel/mmanagement/buddy_allocator.cpp ****         get_from_list(level);
 728              		.loc 1 149 8 is_stmt 0
 729 046c 83370901 		ld	a5,16(s2)
 149:src/kernel/mmanagement/buddy_allocator.cpp ****         get_from_list(level);
GAS LISTING /tmp/ccvtk9xj.s 			page 21


 730              		.loc 1 149 17
 731 0470 13973900 		slli	a4,s3,3
 732 0474 B387E700 		add	a5,a5,a4
 733 0478 83B70700 		ld	a5,0(a5)
 149:src/kernel/mmanagement/buddy_allocator.cpp ****         get_from_list(level);
 734              		.loc 1 149 5
 735 047c 63829704 		beq	a5,s1,.L55
 155:src/kernel/mmanagement/buddy_allocator.cpp ****     /* if it isn't last */
 736              		.loc 1 155 5 is_stmt 1
 155:src/kernel/mmanagement/buddy_allocator.cpp ****     /* if it isn't last */
 737              		.loc 1 155 12 is_stmt 0
 738 0480 03B78400 		ld	a4,8(s1)
 155:src/kernel/mmanagement/buddy_allocator.cpp ****     /* if it isn't last */
 739              		.loc 1 155 32
 740 0484 83B70400 		ld	a5,0(s1)
 155:src/kernel/mmanagement/buddy_allocator.cpp ****     /* if it isn't last */
 741              		.loc 1 155 23
 742 0488 2330F700 		sd	a5,0(a4)
 157:src/kernel/mmanagement/buddy_allocator.cpp ****     chunk->next = chunk->prev = 0;
 743              		.loc 1 157 5 is_stmt 1
 744 048c 63860700 		beq	a5,zero,.L45
 157:src/kernel/mmanagement/buddy_allocator.cpp ****     chunk->next = chunk->prev = 0;
 745              		.loc 1 157 21 discriminator 1
 157:src/kernel/mmanagement/buddy_allocator.cpp ****     chunk->next = chunk->prev = 0;
 746              		.loc 1 157 48 is_stmt 0 discriminator 1
 747 0490 03B78400 		ld	a4,8(s1)
 157:src/kernel/mmanagement/buddy_allocator.cpp ****     chunk->next = chunk->prev = 0;
 748              		.loc 1 157 39 discriminator 1
 749 0494 23B4E700 		sd	a4,8(a5)
 750              	.L45:
 158:src/kernel/mmanagement/buddy_allocator.cpp ****     return 0;
 751              		.loc 1 158 5 is_stmt 1
 158:src/kernel/mmanagement/buddy_allocator.cpp ****     return 0;
 752              		.loc 1 158 31 is_stmt 0
 753 0498 23B40400 		sd	zero,8(s1)
 158:src/kernel/mmanagement/buddy_allocator.cpp ****     return 0;
 754              		.loc 1 158 17
 755 049c 23B00400 		sd	zero,0(s1)
 159:src/kernel/mmanagement/buddy_allocator.cpp **** 
 756              		.loc 1 159 5 is_stmt 1
 159:src/kernel/mmanagement/buddy_allocator.cpp **** 
 757              		.loc 1 159 12 is_stmt 0
 758 04a0 13050000 		li	a0,0
 759              	.L43:
 161:src/kernel/mmanagement/buddy_allocator.cpp **** 
 760              		.loc 1 161 1
 761 04a4 83308102 		ld	ra,40(sp)
 762              		.cfi_remember_state
 763              		.cfi_restore 1
 764 04a8 03340102 		ld	s0,32(sp)
 765              		.cfi_restore 8
 766              		.cfi_def_cfa 2, 48
 767 04ac 83348101 		ld	s1,24(sp)
 768              		.cfi_restore 9
 769              	.LVL69:
 770 04b0 03390101 		ld	s2,16(sp)
 771              		.cfi_restore 18
GAS LISTING /tmp/ccvtk9xj.s 			page 22


 772              	.LVL70:
 773 04b4 83398100 		ld	s3,8(sp)
 774              		.cfi_restore 19
 775 04b8 13010103 		addi	sp,sp,48
 776              		.cfi_def_cfa_offset 0
 777 04bc 67800000 		jr	ra
 778              	.LVL71:
 779              	.L55:
 780              		.cfi_restore_state
 150:src/kernel/mmanagement/buddy_allocator.cpp ****         return 0;
 781              		.loc 1 150 9 is_stmt 1
 150:src/kernel/mmanagement/buddy_allocator.cpp ****         return 0;
 782              		.loc 1 150 22 is_stmt 0
 783 04c0 93850900 		mv	a1,s3
 784 04c4 13050900 		mv	a0,s2
 785 04c8 97000000 		call	_ZN5Buddy13get_from_listEh
 785      E7800000 
 786              	.LVL72:
 151:src/kernel/mmanagement/buddy_allocator.cpp ****     }
 787              		.loc 1 151 9 is_stmt 1
 151:src/kernel/mmanagement/buddy_allocator.cpp ****     }
 788              		.loc 1 151 16 is_stmt 0
 789 04d0 13050000 		li	a0,0
 790 04d4 6FF01FFD 		j	.L43
 791              	.LVL73:
 792              	.L46:
 793              		.cfi_def_cfa_register 2
 794              		.cfi_restore 1
 795              		.cfi_restore 8
 796              		.cfi_restore 9
 797              		.cfi_restore 18
 798              		.cfi_restore 19
 143:src/kernel/mmanagement/buddy_allocator.cpp ****     if( !chunk || ((uint64)chunk & (BLOCK_SIZE - 1)) ) return -1;
 799              		.loc 1 143 35
 800 04d8 1305C0FF 		li	a0,-4
 801              	.LVL74:
 802 04dc 67800000 		ret
 803              	.LVL75:
 804              	.L47:
 144:src/kernel/mmanagement/buddy_allocator.cpp ****     if(!get_bit_val(BLOCK_IND(chunk))) return -2;
 805              		.loc 1 144 64
 806 04e0 1305F0FF 		li	a0,-1
 807              	.LVL76:
 808 04e4 67800000 		ret
 809              	.LVL77:
 810              	.L48:
 811 04e8 1305F0FF 		li	a0,-1
 812              	.LVL78:
 161:src/kernel/mmanagement/buddy_allocator.cpp **** 
 813              		.loc 1 161 1
 814 04ec 67800000 		ret
 815              	.LVL79:
 816              	.L49:
 817              		.cfi_def_cfa_register 8
 818              		.cfi_offset 1, -8
 819              		.cfi_offset 8, -16
 820              		.cfi_offset 9, -24
GAS LISTING /tmp/ccvtk9xj.s 			page 23


 821              		.cfi_offset 18, -32
 822              		.cfi_offset 19, -40
 145:src/kernel/mmanagement/buddy_allocator.cpp ****     if(!(chunk->level == level)) return -3;
 823              		.loc 1 145 48
 824 04f0 1305E0FF 		li	a0,-2
 825 04f4 6FF01FFB 		j	.L43
 826              	.L50:
 146:src/kernel/mmanagement/buddy_allocator.cpp **** 
 827              		.loc 1 146 42
 828 04f8 1305D0FF 		li	a0,-3
 829 04fc 6FF09FFA 		j	.L43
 830              		.cfi_endproc
 831              	.LFE122:
 833              		.align	2
 834              		.globl	_ZN5Buddy7set_bitEm
 836              	_ZN5Buddy7set_bitEm:
 837              	.LFB126:
 199:src/kernel/mmanagement/buddy_allocator.cpp **** 
 200:src/kernel/mmanagement/buddy_allocator.cpp **** void Buddy::set_bit(size_t index){
 838              		.loc 1 200 34 is_stmt 1
 839              		.cfi_startproc
 840              	.LVL80:
 841 0500 130101FF 		addi	sp,sp,-16
 842              		.cfi_def_cfa_offset 16
 843 0504 23348100 		sd	s0,8(sp)
 844              		.cfi_offset 8, -8
 845 0508 13040101 		addi	s0,sp,16
 846              		.cfi_def_cfa 8, 0
 201:src/kernel/mmanagement/buddy_allocator.cpp ****     size_t entry = index >> 3;
 847              		.loc 1 201 5
 848              		.loc 1 201 12 is_stmt 0
 849 050c 13D73500 		srli	a4,a1,3
 850              	.LVL81:
 202:src/kernel/mmanagement/buddy_allocator.cpp ****     fmap[entry] |= ( 1 << (index & 7) );
 851              		.loc 1 202 5 is_stmt 1
 852 0510 83378501 		ld	a5,24(a0)
 853              		.loc 1 202 17 is_stmt 0
 854 0514 B387E700 		add	a5,a5,a4
 855              		.loc 1 202 34
 856 0518 13F77500 		andi	a4,a1,7
 857              	.LVL82:
 858              		.loc 1 202 24
 859 051c 93051000 		li	a1,1
 860              	.LVL83:
 861 0520 BB95E500 		sllw	a1,a1,a4
 862              		.loc 1 202 17
 863 0524 03C70700 		lbu	a4,0(a5)
 864 0528 B3E5E500 		or	a1,a1,a4
 865 052c 2380B700 		sb	a1,0(a5)
 203:src/kernel/mmanagement/buddy_allocator.cpp **** }
 866              		.loc 1 203 1
 867 0530 03348100 		ld	s0,8(sp)
 868              		.cfi_restore 8
 869              		.cfi_def_cfa 2, 16
 870 0534 13010101 		addi	sp,sp,16
 871              		.cfi_def_cfa_offset 0
 872 0538 67800000 		jr	ra
GAS LISTING /tmp/ccvtk9xj.s 			page 24


 873              		.cfi_endproc
 874              	.LFE126:
 876              		.align	2
 877              		.globl	_ZN5Buddy7clr_bitEm
 879              	_ZN5Buddy7clr_bitEm:
 880              	.LFB127:
 204:src/kernel/mmanagement/buddy_allocator.cpp **** 
 205:src/kernel/mmanagement/buddy_allocator.cpp **** void Buddy::clr_bit(size_t index){
 881              		.loc 1 205 34 is_stmt 1
 882              		.cfi_startproc
 883              	.LVL84:
 884 053c 130101FF 		addi	sp,sp,-16
 885              		.cfi_def_cfa_offset 16
 886 0540 23348100 		sd	s0,8(sp)
 887              		.cfi_offset 8, -8
 888 0544 13040101 		addi	s0,sp,16
 889              		.cfi_def_cfa 8, 0
 206:src/kernel/mmanagement/buddy_allocator.cpp ****     size_t entry = index >> 3;
 890              		.loc 1 206 5
 891              		.loc 1 206 12 is_stmt 0
 892 0548 93D73500 		srli	a5,a1,3
 893              	.LVL85:
 207:src/kernel/mmanagement/buddy_allocator.cpp ****     fmap[entry] &= ~( 1 << (index & 7) );
 894              		.loc 1 207 5 is_stmt 1
 895 054c 03378501 		ld	a4,24(a0)
 896              		.loc 1 207 17 is_stmt 0
 897 0550 3307F700 		add	a4,a4,a5
 898              		.loc 1 207 35
 899 0554 93F57500 		andi	a1,a1,7
 900              	.LVL86:
 901              		.loc 1 207 25
 902 0558 93071000 		li	a5,1
 903              	.LVL87:
 904 055c BB97B700 		sllw	a5,a5,a1
 905              		.loc 1 207 17
 906 0560 93C7F7FF 		not	a5,a5
 907 0564 83460700 		lbu	a3,0(a4)
 908 0568 B3F7D700 		and	a5,a5,a3
 909 056c 2300F700 		sb	a5,0(a4)
 208:src/kernel/mmanagement/buddy_allocator.cpp **** }
 910              		.loc 1 208 1
 911 0570 03348100 		ld	s0,8(sp)
 912              		.cfi_restore 8
 913              		.cfi_def_cfa 2, 16
 914 0574 13010101 		addi	sp,sp,16
 915              		.cfi_def_cfa_offset 0
 916 0578 67800000 		jr	ra
 917              		.cfi_endproc
 918              	.LFE127:
 920              		.align	2
 921              		.globl	_ZN5Buddy9mem_allocEh
 923              	_ZN5Buddy9mem_allocEh:
 924              	.LFB118:
  59:src/kernel/mmanagement/buddy_allocator.cpp ****     
 925              		.loc 1 59 36 is_stmt 1
 926              		.cfi_startproc
 927              	.LVL88:
GAS LISTING /tmp/ccvtk9xj.s 			page 25


 928 057c 130101FC 		addi	sp,sp,-64
 929              		.cfi_def_cfa_offset 64
 930 0580 233C1102 		sd	ra,56(sp)
 931 0584 23388102 		sd	s0,48(sp)
 932 0588 23349102 		sd	s1,40(sp)
 933 058c 23302103 		sd	s2,32(sp)
 934 0590 233C3101 		sd	s3,24(sp)
 935 0594 23384101 		sd	s4,16(sp)
 936 0598 23345101 		sd	s5,8(sp)
 937              		.cfi_offset 1, -8
 938              		.cfi_offset 8, -16
 939              		.cfi_offset 9, -24
 940              		.cfi_offset 18, -32
 941              		.cfi_offset 19, -40
 942              		.cfi_offset 20, -48
 943              		.cfi_offset 21, -56
 944 059c 13040104 		addi	s0,sp,64
 945              		.cfi_def_cfa 8, 0
  61:src/kernel/mmanagement/buddy_allocator.cpp ****     uchar i = level;
 946              		.loc 1 61 5
  61:src/kernel/mmanagement/buddy_allocator.cpp ****     uchar i = level;
 947              		.loc 1 61 16 is_stmt 0
 948 05a0 83368500 		ld	a3,8(a0)
  61:src/kernel/mmanagement/buddy_allocator.cpp ****     uchar i = level;
 949              		.loc 1 61 5
 950 05a4 63ECB60E 		bgtu	a1,a3,.L66
  62:src/kernel/mmanagement/buddy_allocator.cpp ****     /*  iterate through levels until we find not-empty list 
 951              		.loc 1 62 11
 952 05a8 93840500 		mv	s1,a1
 953              	.L63:
 954              	.LVL89:
  66:src/kernel/mmanagement/buddy_allocator.cpp ****         if(lhp[i]) break;
 955              		.loc 1 66 5 is_stmt 1 discriminator 1
  66:src/kernel/mmanagement/buddy_allocator.cpp ****         if(lhp[i]) break;
 956              		.loc 1 66 13 is_stmt 0 discriminator 1
 957 05ac 13860400 		mv	a2,s1
 958 05b0 63E29602 		bltu	a3,s1,.L62
  67:src/kernel/mmanagement/buddy_allocator.cpp ****     if(i > max_level) return nullptr;
 959              		.loc 1 67 9 is_stmt 1
  67:src/kernel/mmanagement/buddy_allocator.cpp ****     if(i > max_level) return nullptr;
 960              		.loc 1 67 12 is_stmt 0
 961 05b4 83370501 		ld	a5,16(a0)
  67:src/kernel/mmanagement/buddy_allocator.cpp ****     if(i > max_level) return nullptr;
 962              		.loc 1 67 17
 963 05b8 13973400 		slli	a4,s1,3
 964 05bc B387E700 		add	a5,a5,a4
 965 05c0 83B70700 		ld	a5,0(a5)
  67:src/kernel/mmanagement/buddy_allocator.cpp ****     if(i > max_level) return nullptr;
 966              		.loc 1 67 9
 967 05c4 63980700 		bne	a5,zero,.L62
  66:src/kernel/mmanagement/buddy_allocator.cpp ****         if(lhp[i]) break;
 968              		.loc 1 66 5
 969 05c8 9B841400 		addiw	s1,s1,1
 970              	.LVL90:
 971 05cc 93F4F40F 		andi	s1,s1,0xff
 972              	.LVL91:
 973 05d0 6FF0DFFD 		j	.L63
GAS LISTING /tmp/ccvtk9xj.s 			page 26


 974              	.L62:
  68:src/kernel/mmanagement/buddy_allocator.cpp ****     mmeta_t* chunk = get_from_list(i);
 975              		.loc 1 68 5 is_stmt 1
 976 05d4 63E8C60C 		bltu	a3,a2,.L67
 977 05d8 938A0500 		mv	s5,a1
 978 05dc 13090500 		mv	s2,a0
  69:src/kernel/mmanagement/buddy_allocator.cpp **** 
 979              		.loc 1 69 5
  69:src/kernel/mmanagement/buddy_allocator.cpp **** 
 980              		.loc 1 69 35 is_stmt 0
 981 05e0 93850400 		mv	a1,s1
 982              	.LVL92:
 983 05e4 97000000 		call	_ZN5Buddy13get_from_listEh
 983      E7800000 
 984              	.LVL93:
 985 05ec 93090500 		mv	s3,a0
 986              	.LVL94:
 987              	.L65:
  72:src/kernel/mmanagement/buddy_allocator.cpp ****         mmeta_t* t = split(chunk);
 988              		.loc 1 72 5 is_stmt 1 discriminator 2
 989              	.LBB29:
  72:src/kernel/mmanagement/buddy_allocator.cpp ****         mmeta_t* t = split(chunk);
 990              		.loc 1 72 12 is_stmt 0 discriminator 2
 991 05f0 63F29A06 		bleu	s1,s5,.L64
 992              	.LBB30:
  73:src/kernel/mmanagement/buddy_allocator.cpp ****         set_bit(BLOCK_IND(t));
 993              		.loc 1 73 9 is_stmt 1 discriminator 1
  73:src/kernel/mmanagement/buddy_allocator.cpp ****         set_bit(BLOCK_IND(t));
 994              		.loc 1 73 27 is_stmt 0 discriminator 1
 995 05f4 93850900 		mv	a1,s3
 996 05f8 13050900 		mv	a0,s2
 997 05fc 97000000 		call	_ZN5Buddy5splitEP7mmeta_t
 997      E7800000 
 998              	.LVL95:
 999 0604 130A0500 		mv	s4,a0
 1000              	.LVL96:
  74:src/kernel/mmanagement/buddy_allocator.cpp ****         add_to_list(i-1, t);
 1001              		.loc 1 74 9 is_stmt 1 discriminator 1
  74:src/kernel/mmanagement/buddy_allocator.cpp ****         add_to_list(i-1, t);
 1002              		.loc 1 74 17 is_stmt 0 discriminator 1
 1003 0608 83370900 		ld	a5,0(s2)
 1004 060c B307F540 		sub	a5,a0,a5
  74:src/kernel/mmanagement/buddy_allocator.cpp ****         add_to_list(i-1, t);
 1005              		.loc 1 74 16 discriminator 1
 1006 0610 97050000 		lbu	a1,_ZN5Buddy18BLOCK_SIZE_BIT_LENE
 1006      83C50500 
 1007 0618 B3D5B700 		srl	a1,a5,a1
 1008 061c 13050900 		mv	a0,s2
 1009              	.LVL97:
 1010 0620 97000000 		call	_ZN5Buddy7set_bitEm
 1010      E7800000 
 1011              	.LVL98:
  75:src/kernel/mmanagement/buddy_allocator.cpp ****         chunk->level--;
 1012              		.loc 1 75 9 is_stmt 1 discriminator 1
  75:src/kernel/mmanagement/buddy_allocator.cpp ****         chunk->level--;
 1013              		.loc 1 75 20 is_stmt 0 discriminator 1
 1014 0628 9B84F4FF 		addiw	s1,s1,-1
GAS LISTING /tmp/ccvtk9xj.s 			page 27


 1015              	.LVL99:
 1016 062c 93F4F40F 		andi	s1,s1,0xff
 1017 0630 13060A00 		mv	a2,s4
 1018 0634 93850400 		mv	a1,s1
 1019 0638 13050900 		mv	a0,s2
 1020 063c 97000000 		call	_ZN5Buddy11add_to_listEhP7mmeta_t
 1020      E7800000 
 1021              	.LVL100:
  76:src/kernel/mmanagement/buddy_allocator.cpp ****     }
 1022              		.loc 1 76 9 is_stmt 1 discriminator 1
  76:src/kernel/mmanagement/buddy_allocator.cpp ****     }
 1023              		.loc 1 76 16 is_stmt 0 discriminator 1
 1024 0644 83C70901 		lbu	a5,16(s3)
  76:src/kernel/mmanagement/buddy_allocator.cpp ****     }
 1025              		.loc 1 76 21 discriminator 1
 1026 0648 9B87F7FF 		addiw	a5,a5,-1
 1027 064c 2388F900 		sb	a5,16(s3)
 1028              	.LVL101:
 1029              	.LBE30:
  72:src/kernel/mmanagement/buddy_allocator.cpp ****         mmeta_t* t = split(chunk);
 1030              		.loc 1 72 5 discriminator 1
 1031 0650 6FF01FFA 		j	.L65
 1032              	.LVL102:
 1033              	.L64:
 1034              	.LBE29:
  79:src/kernel/mmanagement/buddy_allocator.cpp ****     return chunk;
 1035              		.loc 1 79 5 is_stmt 1
  79:src/kernel/mmanagement/buddy_allocator.cpp ****     return chunk;
 1036              		.loc 1 79 13 is_stmt 0
 1037 0654 83370900 		ld	a5,0(s2)
 1038 0658 B387F940 		sub	a5,s3,a5
  79:src/kernel/mmanagement/buddy_allocator.cpp ****     return chunk;
 1039              		.loc 1 79 12
 1040 065c 97050000 		lbu	a1,_ZN5Buddy18BLOCK_SIZE_BIT_LENE
 1040      83C50500 
 1041 0664 B3D5B700 		srl	a1,a5,a1
 1042 0668 13050900 		mv	a0,s2
 1043 066c 97000000 		call	_ZN5Buddy7clr_bitEm
 1043      E7800000 
 1044              	.LVL103:
  80:src/kernel/mmanagement/buddy_allocator.cpp **** }
 1045              		.loc 1 80 5 is_stmt 1
 1046              	.L60:
  81:src/kernel/mmanagement/buddy_allocator.cpp **** 
 1047              		.loc 1 81 1 is_stmt 0
 1048 0674 13850900 		mv	a0,s3
 1049 0678 83308103 		ld	ra,56(sp)
 1050              		.cfi_remember_state
 1051              		.cfi_restore 1
 1052 067c 03340103 		ld	s0,48(sp)
 1053              		.cfi_restore 8
 1054              		.cfi_def_cfa 2, 64
 1055 0680 83348102 		ld	s1,40(sp)
 1056              		.cfi_restore 9
 1057 0684 03390102 		ld	s2,32(sp)
 1058              		.cfi_restore 18
 1059 0688 83398101 		ld	s3,24(sp)
GAS LISTING /tmp/ccvtk9xj.s 			page 28


 1060              		.cfi_restore 19
 1061 068c 033A0101 		ld	s4,16(sp)
 1062              		.cfi_restore 20
 1063 0690 833A8100 		ld	s5,8(sp)
 1064              		.cfi_restore 21
 1065 0694 13010104 		addi	sp,sp,64
 1066              		.cfi_def_cfa_offset 0
 1067 0698 67800000 		jr	ra
 1068              	.LVL104:
 1069              	.L66:
 1070              		.cfi_restore_state
  61:src/kernel/mmanagement/buddy_allocator.cpp ****     uchar i = level;
 1071              		.loc 1 61 34
 1072 069c 93090000 		li	s3,0
 1073 06a0 6FF05FFD 		j	.L60
 1074              	.LVL105:
 1075              	.L67:
  68:src/kernel/mmanagement/buddy_allocator.cpp ****     mmeta_t* chunk = get_from_list(i);
 1076              		.loc 1 68 30
 1077 06a4 93090000 		li	s3,0
 1078 06a8 6FF0DFFC 		j	.L60
 1079              		.cfi_endproc
 1080              	.LFE118:
 1082              		.align	2
 1083              		.globl	_Z3kmiv
 1085              	_Z3kmiv:
 1086              	.LFB128:
 209:src/kernel/mmanagement/buddy_allocator.cpp **** 
 210:src/kernel/mmanagement/buddy_allocator.cpp **** int kmi(){
 1087              		.loc 1 210 10 is_stmt 1
 1088              		.cfi_startproc
 1089 06ac 130101FE 		addi	sp,sp,-32
 1090              		.cfi_def_cfa_offset 32
 1091 06b0 233C1100 		sd	ra,24(sp)
 1092 06b4 23388100 		sd	s0,16(sp)
 1093 06b8 23349100 		sd	s1,8(sp)
 1094 06bc 23302101 		sd	s2,0(sp)
 1095              		.cfi_offset 1, -8
 1096              		.cfi_offset 8, -16
 1097              		.cfi_offset 9, -24
 1098              		.cfi_offset 18, -32
 1099 06c0 13040102 		addi	s0,sp,32
 1100              		.cfi_def_cfa 8, 0
 211:src/kernel/mmanagement/buddy_allocator.cpp ****     /* start of reserved memory for buddy allocator */
 212:src/kernel/mmanagement/buddy_allocator.cpp ****     void* buddy_mem_start = (void*)( 
 1101              		.loc 1 212 5
 1102              	.LBB31:
 1103              	.LBB32:
 1104              		.loc 2 29 35
 1105              		.loc 2 29 42 is_stmt 0
 1106 06c4 97070000 		lla	a5,_ZN7NoAlloc16NOALLOC_END_ADDRE
 1106      93870700 
 1107 06cc 03B90700 		ld	s2,0(a5)
 1108              	.LBE32:
 1109              	.LBE31:
 213:src/kernel/mmanagement/buddy_allocator.cpp ****         (uint64)NoAlloc::getEndAddress() + sizeof(Buddy) ) ;
 1110              		.loc 1 213 42
GAS LISTING /tmp/ccvtk9xj.s 			page 29


 1111 06d0 13090902 		addi	s2,s2,32
 1112              	.LVL106:
 214:src/kernel/mmanagement/buddy_allocator.cpp **** 
 215:src/kernel/mmanagement/buddy_allocator.cpp ****     size_t buddy_mem_size = ((uint64)HEAP_END_ADDR - (uint64)buddy_mem_start) >> 3;
 1113              		.loc 1 215 5 is_stmt 1
 1114              		.loc 1 215 52 is_stmt 0
 1115 06d4 97070000 		lla	a5,HEAP_END_ADDR
 1115      93870700 
 1116 06dc 03B50700 		ld	a0,0(a5)
 1117 06e0 33052541 		sub	a0,a0,s2
 1118              		.loc 1 215 12
 1119 06e4 13553500 		srli	a0,a0,3
 1120              	.LVL107:
 216:src/kernel/mmanagement/buddy_allocator.cpp ****     if(!buddy_mem_size) return 2;
 1121              		.loc 1 216 5 is_stmt 1
 1122 06e8 63060506 		beq	a0,zero,.L71
 217:src/kernel/mmanagement/buddy_allocator.cpp ****     buddy_mem_size = ( (buddy_mem_size-1) >> log2(Buddy::BLOCK_SIZE) ) + 1;
 1123              		.loc 1 217 5
 1124              		.loc 1 217 39 is_stmt 0
 1125 06ec 9304F5FF 		addi	s1,a0,-1
 1126              		.loc 1 217 50
 1127 06f0 37150000 		li	a0,4096
 1128              	.LVL108:
 1129 06f4 97000000 		call	_Z4log2m
 1129      E7800000 
 1130              	.LVL109:
 1131              		.loc 1 217 43
 1132 06fc 33D5A400 		srl	a0,s1,a0
 1133              	.LVL110:
 218:src/kernel/mmanagement/buddy_allocator.cpp ****     uchar level = log2(closest2pow(buddy_mem_size));
 1134              		.loc 1 218 5 is_stmt 1
 1135              		.loc 1 218 23 is_stmt 0
 1136 0700 13051500 		addi	a0,a0,1
 1137              	.LVL111:
 1138 0704 97000000 		call	_Z11closest2powm
 1138      E7800000 
 1139              	.LVL112:
 1140 070c 97000000 		call	_Z4log2m
 1140      E7800000 
 1141              	.LVL113:
 219:src/kernel/mmanagement/buddy_allocator.cpp ****     
 220:src/kernel/mmanagement/buddy_allocator.cpp ****     int ret = Buddy::initalize(buddy_mem_start, level);
 1142              		.loc 1 220 5 is_stmt 1
 1143              		.loc 1 220 31 is_stmt 0
 1144 0714 93050500 		mv	a1,a0
 1145 0718 13050900 		mv	a0,s2
 1146              	.LVL114:
 1147 071c 97000000 		call	_ZN5Buddy9initalizeEPvh
 1147      E7800000 
 1148              	.LVL115:
 1149 0724 93040500 		mv	s1,a0
 1150              	.LVL116:
 221:src/kernel/mmanagement/buddy_allocator.cpp ****     if(!ret) SlabAllocator::getInstance();
 1151              		.loc 1 221 5 is_stmt 1
 1152 0728 63000502 		beq	a0,zero,.L73
 1153              	.LVL117:
 1154              	.L70:
GAS LISTING /tmp/ccvtk9xj.s 			page 30


 222:src/kernel/mmanagement/buddy_allocator.cpp ****     return ret;
 223:src/kernel/mmanagement/buddy_allocator.cpp **** }
 1155              		.loc 1 223 1 is_stmt 0
 1156 072c 13850400 		mv	a0,s1
 1157 0730 83308101 		ld	ra,24(sp)
 1158              		.cfi_remember_state
 1159              		.cfi_restore 1
 1160 0734 03340101 		ld	s0,16(sp)
 1161              		.cfi_restore 8
 1162              		.cfi_def_cfa 2, 32
 1163 0738 83348100 		ld	s1,8(sp)
 1164              		.cfi_restore 9
 1165 073c 03390100 		ld	s2,0(sp)
 1166              		.cfi_restore 18
 1167              	.LVL118:
 1168 0740 13010102 		addi	sp,sp,32
 1169              		.cfi_def_cfa_offset 0
 1170 0744 67800000 		jr	ra
 1171              	.LVL119:
 1172              	.L73:
 1173              		.cfi_restore_state
 221:src/kernel/mmanagement/buddy_allocator.cpp ****     if(!ret) SlabAllocator::getInstance();
 1174              		.loc 1 221 14 is_stmt 1 discriminator 1
 221:src/kernel/mmanagement/buddy_allocator.cpp ****     if(!ret) SlabAllocator::getInstance();
 1175              		.loc 1 221 41 is_stmt 0 discriminator 1
 1176 0748 97000000 		call	_ZN13SlabAllocator11getInstanceEv
 1176      E7800000 
 1177              	.LVL120:
 1178 0750 6FF0DFFD 		j	.L70
 1179              	.LVL121:
 1180              	.L71:
 216:src/kernel/mmanagement/buddy_allocator.cpp ****     buddy_mem_size = ( (buddy_mem_size-1) >> log2(Buddy::BLOCK_SIZE) ) + 1;
 1181              		.loc 1 216 32
 1182 0754 93042000 		li	s1,2
 1183 0758 6FF05FFD 		j	.L70
 1184              		.cfi_endproc
 1185              	.LFE128:
 1187              		.align	2
 1188              		.globl	_ZN5Buddy8print_beEm
 1190              	_ZN5Buddy8print_beEm:
 1191              	.LFB129:
 224:src/kernel/mmanagement/buddy_allocator.cpp **** 
 225:src/kernel/mmanagement/buddy_allocator.cpp **** void Buddy::print_be(size_t index){
 1192              		.loc 1 225 35 is_stmt 1
 1193              		.cfi_startproc
 1194              	.LVL122:
 1195 075c 130101FE 		addi	sp,sp,-32
 1196              		.cfi_def_cfa_offset 32
 1197 0760 233C1100 		sd	ra,24(sp)
 1198 0764 23388100 		sd	s0,16(sp)
 1199 0768 23349100 		sd	s1,8(sp)
 1200 076c 23302101 		sd	s2,0(sp)
 1201              		.cfi_offset 1, -8
 1202              		.cfi_offset 8, -16
 1203              		.cfi_offset 9, -24
 1204              		.cfi_offset 18, -32
 1205 0770 13040102 		addi	s0,sp,32
GAS LISTING /tmp/ccvtk9xj.s 			page 31


 1206              		.cfi_def_cfa 8, 0
 1207 0774 13090500 		mv	s2,a0
 1208 0778 93840500 		mv	s1,a1
 226:src/kernel/mmanagement/buddy_allocator.cpp ****     kprintString("blocks["); kprintInt( index, 10); kprintString("]: ");
 1209              		.loc 1 226 5
 1210              		.loc 1 226 17 is_stmt 0
 1211 077c 17050000 		lla	a0,.LC2
 1211      13050500 
 1212              	.LVL123:
 1213 0784 97000000 		call	_Z12kprintStringPKc
 1213      E7800000 
 1214              	.LVL124:
 1215              		.loc 1 226 30 is_stmt 1
 1216              		.loc 1 226 39 is_stmt 0
 1217 078c 13060000 		li	a2,0
 1218 0790 9305A000 		li	a1,10
 1219 0794 13850400 		mv	a0,s1
 1220 0798 97000000 		call	_Z9kprintIntmib
 1220      E7800000 
 1221              	.LVL125:
 1222              		.loc 1 226 53 is_stmt 1
 1223              		.loc 1 226 65 is_stmt 0
 1224 07a0 17050000 		lla	a0,.LC3
 1224      13050500 
 1225 07a8 97000000 		call	_Z12kprintStringPKc
 1225      E7800000 
 1226              	.LVL126:
 227:src/kernel/mmanagement/buddy_allocator.cpp ****     bool bit = get_bit_val(index);
 1227              		.loc 1 227 5 is_stmt 1
 1228              		.loc 1 227 27 is_stmt 0
 1229 07b0 93850400 		mv	a1,s1
 1230 07b4 13050900 		mv	a0,s2
 1231 07b8 97000000 		call	_ZN5Buddy11get_bit_valEm
 1231      E7800000 
 1232              	.LVL127:
 228:src/kernel/mmanagement/buddy_allocator.cpp ****     if(bit)
 1233              		.loc 1 228 5 is_stmt 1
 1234 07c0 63060502 		beq	a0,zero,.L75
 229:src/kernel/mmanagement/buddy_allocator.cpp ****         kprintString("FREE");
 1235              		.loc 1 229 9
 1236              		.loc 1 229 21 is_stmt 0
 1237 07c4 17050000 		lla	a0,.LC4
 1237      13050500 
 1238              	.LVL128:
 1239 07cc 97000000 		call	_Z12kprintStringPKc
 1239      E7800000 
 1240              	.LVL129:
 1241              	.L74:
 230:src/kernel/mmanagement/buddy_allocator.cpp ****     else
 231:src/kernel/mmanagement/buddy_allocator.cpp ****         kprintString("ALLOC");
 232:src/kernel/mmanagement/buddy_allocator.cpp **** }
 1242              		.loc 1 232 1
 1243 07d4 83308101 		ld	ra,24(sp)
 1244              		.cfi_remember_state
 1245              		.cfi_restore 1
 1246 07d8 03340101 		ld	s0,16(sp)
 1247              		.cfi_restore 8
GAS LISTING /tmp/ccvtk9xj.s 			page 32


 1248              		.cfi_def_cfa 2, 32
 1249 07dc 83348100 		ld	s1,8(sp)
 1250              		.cfi_restore 9
 1251              	.LVL130:
 1252 07e0 03390100 		ld	s2,0(sp)
 1253              		.cfi_restore 18
 1254              	.LVL131:
 1255 07e4 13010102 		addi	sp,sp,32
 1256              		.cfi_def_cfa_offset 0
 1257 07e8 67800000 		jr	ra
 1258              	.LVL132:
 1259              	.L75:
 1260              		.cfi_restore_state
 231:src/kernel/mmanagement/buddy_allocator.cpp **** }
 1261              		.loc 1 231 9 is_stmt 1
 231:src/kernel/mmanagement/buddy_allocator.cpp **** }
 1262              		.loc 1 231 21 is_stmt 0
 1263 07ec 17050000 		lla	a0,.LC5
 1263      13050500 
 1264              	.LVL133:
 1265 07f4 97000000 		call	_Z12kprintStringPKc
 1265      E7800000 
 1266              	.LVL134:
 1267              		.loc 1 232 1
 1268 07fc 6FF09FFD 		j	.L74
 1269              		.cfi_endproc
 1270              	.LFE129:
 1272              		.align	2
 1273              		.globl	_ZN5Buddy12status_printEb
 1275              	_ZN5Buddy12status_printEb:
 1276              	.LFB130:
 233:src/kernel/mmanagement/buddy_allocator.cpp **** 
 234:src/kernel/mmanagement/buddy_allocator.cpp **** void Buddy::status_print(bool f){
 1277              		.loc 1 234 33 is_stmt 1
 1278              		.cfi_startproc
 1279              	.LVL135:
 1280 0800 130101FD 		addi	sp,sp,-48
 1281              		.cfi_def_cfa_offset 48
 1282 0804 23341102 		sd	ra,40(sp)
 1283 0808 23308102 		sd	s0,32(sp)
 1284 080c 233C9100 		sd	s1,24(sp)
 1285 0810 23382101 		sd	s2,16(sp)
 1286 0814 23343101 		sd	s3,8(sp)
 1287 0818 23304101 		sd	s4,0(sp)
 1288              		.cfi_offset 1, -8
 1289              		.cfi_offset 8, -16
 1290              		.cfi_offset 9, -24
 1291              		.cfi_offset 18, -32
 1292              		.cfi_offset 19, -40
 1293              		.cfi_offset 20, -48
 1294 081c 13040103 		addi	s0,sp,48
 1295              		.cfi_def_cfa 8, 0
 235:src/kernel/mmanagement/buddy_allocator.cpp ****     if(!buddy){
 1296              		.loc 1 235 5
 1297              		.loc 1 235 8 is_stmt 0
 1298 0820 97070000 		lla	a5,_ZN5Buddy5buddyE
 1298      93870700 
GAS LISTING /tmp/ccvtk9xj.s 			page 33


 1299 0828 83B70700 		ld	a5,0(a5)
 1300              		.loc 1 235 5
 1301 082c 638C070C 		beq	a5,zero,.L90
 1302 0830 93090500 		mv	s3,a0
 1303 0834 138A0500 		mv	s4,a1
 236:src/kernel/mmanagement/buddy_allocator.cpp ****         kprintString("BUDDY NOT INITALIZED!!!");
 237:src/kernel/mmanagement/buddy_allocator.cpp ****         return;
 238:src/kernel/mmanagement/buddy_allocator.cpp ****     }
 239:src/kernel/mmanagement/buddy_allocator.cpp ****     kprintString("------BUDDY STATUS PRINT------\n");
 1304              		.loc 1 239 5 is_stmt 1
 1305              		.loc 1 239 17 is_stmt 0
 1306 0838 17050000 		lla	a0,.LC7
 1306      13050500 
 1307              	.LVL136:
 1308 0840 97000000 		call	_Z12kprintStringPKc
 1308      E7800000 
 1309              	.LVL137:
 240:src/kernel/mmanagement/buddy_allocator.cpp ****     KCHECKPRINT(buddy);
 1310              		.loc 1 240 5 is_stmt 1
 1311 0848 17050000 		lla	a0,.LC8
 1311      13050500 
 1312 0850 97000000 		call	_Z12kprintStringPKc
 1312      E7800000 
 1313              	.LVL138:
 1314              		.loc 1 240 5
 1315 0858 13060000 		li	a2,0
 1316 085c 93050001 		li	a1,16
 1317 0860 97070000 		lla	a5,_ZN5Buddy5buddyE
 1317      93870700 
 1318 0868 03B50700 		ld	a0,0(a5)
 1319 086c 97000000 		call	_Z9kprintIntmib
 1319      E7800000 
 1320              	.LVL139:
 1321              		.loc 1 240 5
 1322 0874 17050000 		lla	a0,.LC1
 1322      13050500 
 1323 087c 97000000 		call	_Z12kprintStringPKc
 1323      E7800000 
 1324              	.LVL140:
 241:src/kernel/mmanagement/buddy_allocator.cpp ****     KCHECKPRINT(start_address);
 1325              		.loc 1 241 5
 1326 0884 17050000 		lla	a0,.LC9
 1326      13050500 
 1327 088c 97000000 		call	_Z12kprintStringPKc
 1327      E7800000 
 1328              	.LVL141:
 1329              		.loc 1 241 5
 1330 0894 13060000 		li	a2,0
 1331 0898 93050001 		li	a1,16
 1332 089c 03B50900 		ld	a0,0(s3)
 1333 08a0 97000000 		call	_Z9kprintIntmib
 1333      E7800000 
 1334              	.LVL142:
 1335              		.loc 1 241 5
 1336 08a8 17050000 		lla	a0,.LC1
 1336      13050500 
 1337 08b0 97000000 		call	_Z12kprintStringPKc
GAS LISTING /tmp/ccvtk9xj.s 			page 34


 1337      E7800000 
 1338              	.LVL143:
 242:src/kernel/mmanagement/buddy_allocator.cpp ****     KCHECKPRINT(max_level);
 1339              		.loc 1 242 5
 1340 08b8 17050000 		lla	a0,.LC10
 1340      13050500 
 1341 08c0 97000000 		call	_Z12kprintStringPKc
 1341      E7800000 
 1342              	.LVL144:
 1343              		.loc 1 242 5
 1344 08c8 13060000 		li	a2,0
 1345 08cc 93050001 		li	a1,16
 1346 08d0 03B58900 		ld	a0,8(s3)
 1347 08d4 97000000 		call	_Z9kprintIntmib
 1347      E7800000 
 1348              	.LVL145:
 1349              		.loc 1 242 5
 1350 08dc 17050000 		lla	a0,.LC1
 1350      13050500 
 1351 08e4 97000000 		call	_Z12kprintStringPKc
 1351      E7800000 
 1352              	.LVL146:
 243:src/kernel/mmanagement/buddy_allocator.cpp **** 
 244:src/kernel/mmanagement/buddy_allocator.cpp ****     kprintString("\t------MEMORY META------\n");
 1353              		.loc 1 244 5
 1354              		.loc 1 244 17 is_stmt 0
 1355 08ec 17050000 		lla	a0,.LC11
 1355      13050500 
 1356 08f4 97000000 		call	_Z12kprintStringPKc
 1356      E7800000 
 1357              	.LVL147:
 245:src/kernel/mmanagement/buddy_allocator.cpp ****     for(uchar i = 0; i <= max_level; i++){
 1358              		.loc 1 245 5 is_stmt 1
 1359              	.LBB33:
 1360              		.loc 1 245 15 is_stmt 0
 1361 08fc 13090000 		li	s2,0
 1362 0900 6F008006 		j	.L85
 1363              	.LVL148:
 1364              	.L90:
 1365              	.LBE33:
 236:src/kernel/mmanagement/buddy_allocator.cpp ****         return;
 1366              		.loc 1 236 9 is_stmt 1
 236:src/kernel/mmanagement/buddy_allocator.cpp ****         return;
 1367              		.loc 1 236 21 is_stmt 0
 1368 0904 17050000 		lla	a0,.LC6
 1368      13050500 
 1369              	.LVL149:
 1370 090c 97000000 		call	_Z12kprintStringPKc
 1370      E7800000 
 1371              	.LVL150:
 237:src/kernel/mmanagement/buddy_allocator.cpp ****     }
 1372              		.loc 1 237 9 is_stmt 1
 1373 0914 6F00C018 		j	.L78
 1374              	.LVL151:
 1375              	.L91:
 1376              	.LBB38:
 1377              	.LBB34:
GAS LISTING /tmp/ccvtk9xj.s 			page 35


 1378              	.LBB35:
 246:src/kernel/mmanagement/buddy_allocator.cpp ****         kprintString("\t"); KPRINTARR(LEVEL, i, (lhp[i] != 0));
 247:src/kernel/mmanagement/buddy_allocator.cpp ****         kprintString("\t");
 248:src/kernel/mmanagement/buddy_allocator.cpp ****         for(mmeta_t* curr = lhp[i]; curr; curr = curr->next){
 249:src/kernel/mmanagement/buddy_allocator.cpp ****             kprintInt((uint64)curr, 16);
 250:src/kernel/mmanagement/buddy_allocator.cpp ****             if(curr->next)
 251:src/kernel/mmanagement/buddy_allocator.cpp ****                 kprintString(" -> ");
 1379              		.loc 1 251 17
 1380              		.loc 1 251 29 is_stmt 0
 1381 0918 17050000 		lla	a0,.LC14
 1381      13050500 
 1382 0920 97000000 		call	_Z12kprintStringPKc
 1382      E7800000 
 1383              	.LVL152:
 1384              	.L83:
 248:src/kernel/mmanagement/buddy_allocator.cpp ****             kprintInt((uint64)curr, 16);
 1385              		.loc 1 248 48 discriminator 2
 1386 0928 83B40400 		ld	s1,0(s1)
 1387              	.LVL153:
 1388              	.L84:
 248:src/kernel/mmanagement/buddy_allocator.cpp ****             kprintInt((uint64)curr, 16);
 1389              		.loc 1 248 37 discriminator 1
 1390 092c 63820402 		beq	s1,zero,.L82
 249:src/kernel/mmanagement/buddy_allocator.cpp ****             if(curr->next)
 1391              		.loc 1 249 13 is_stmt 1
 249:src/kernel/mmanagement/buddy_allocator.cpp ****             if(curr->next)
 1392              		.loc 1 249 22 is_stmt 0
 1393 0930 13060000 		li	a2,0
 1394 0934 93050001 		li	a1,16
 1395 0938 13850400 		mv	a0,s1
 1396 093c 97000000 		call	_Z9kprintIntmib
 1396      E7800000 
 1397              	.LVL154:
 250:src/kernel/mmanagement/buddy_allocator.cpp ****                 kprintString(" -> ");
 1398              		.loc 1 250 13 is_stmt 1
 250:src/kernel/mmanagement/buddy_allocator.cpp ****                 kprintString(" -> ");
 1399              		.loc 1 250 22 is_stmt 0
 1400 0944 83B70400 		ld	a5,0(s1)
 250:src/kernel/mmanagement/buddy_allocator.cpp ****                 kprintString(" -> ");
 1401              		.loc 1 250 13
 1402 0948 E39807FC 		bne	a5,zero,.L91
 1403 094c 6FF0DFFD 		j	.L83
 1404              	.L82:
 1405              	.LBE35:
 252:src/kernel/mmanagement/buddy_allocator.cpp ****         }
 253:src/kernel/mmanagement/buddy_allocator.cpp ****         kprintString("\n");
 1406              		.loc 1 253 9 is_stmt 1 discriminator 2
 1407              		.loc 1 253 21 is_stmt 0 discriminator 2
 1408 0950 17050000 		lla	a0,.LC1
 1408      13050500 
 1409 0958 97000000 		call	_Z12kprintStringPKc
 1409      E7800000 
 1410              	.LVL155:
 1411              	.LBE34:
 245:src/kernel/mmanagement/buddy_allocator.cpp ****         kprintString("\t"); KPRINTARR(LEVEL, i, (lhp[i] != 0));
 1412              		.loc 1 245 5 discriminator 2
 1413 0960 1B091900 		addiw	s2,s2,1
GAS LISTING /tmp/ccvtk9xj.s 			page 36


 1414              	.LVL156:
 1415 0964 1379F90F 		andi	s2,s2,0xff
 1416              	.LVL157:
 1417              	.L85:
 245:src/kernel/mmanagement/buddy_allocator.cpp ****         kprintString("\t"); KPRINTARR(LEVEL, i, (lhp[i] != 0));
 1418              		.loc 1 245 27 discriminator 1
 1419 0968 83B78900 		ld	a5,8(s3)
 245:src/kernel/mmanagement/buddy_allocator.cpp ****         kprintString("\t"); KPRINTARR(LEVEL, i, (lhp[i] != 0));
 1420              		.loc 1 245 24 discriminator 1
 1421 096c 63EE2709 		bgtu	s2,a5,.L81
 1422              	.LBB37:
 246:src/kernel/mmanagement/buddy_allocator.cpp ****         kprintString("\t");
 1423              		.loc 1 246 9 is_stmt 1
 246:src/kernel/mmanagement/buddy_allocator.cpp ****         kprintString("\t");
 1424              		.loc 1 246 21 is_stmt 0
 1425 0970 17050000 		lla	a0,.LC12
 1425      13050500 
 1426 0978 97000000 		call	_Z12kprintStringPKc
 1426      E7800000 
 1427              	.LVL158:
 246:src/kernel/mmanagement/buddy_allocator.cpp ****         kprintString("\t");
 1428              		.loc 1 246 29 is_stmt 1
 1429 0980 17050000 		lla	a0,.LC13
 1429      13050500 
 1430 0988 97000000 		call	_Z12kprintStringPKc
 1430      E7800000 
 1431              	.LVL159:
 246:src/kernel/mmanagement/buddy_allocator.cpp ****         kprintString("\t");
 1432              		.loc 1 246 29
 1433 0990 13060000 		li	a2,0
 1434 0994 9305A000 		li	a1,10
 1435 0998 13050900 		mv	a0,s2
 1436 099c 97000000 		call	_Z9kprintIntmib
 1436      E7800000 
 1437              	.LVL160:
 246:src/kernel/mmanagement/buddy_allocator.cpp ****         kprintString("\t");
 1438              		.loc 1 246 29
 1439 09a4 17050000 		lla	a0,.LC3
 1439      13050500 
 1440 09ac 97000000 		call	_Z12kprintStringPKc
 1440      E7800000 
 1441              	.LVL161:
 246:src/kernel/mmanagement/buddy_allocator.cpp ****         kprintString("\t");
 1442              		.loc 1 246 29
 1443 09b4 83B70901 		ld	a5,16(s3)
 1444 09b8 93143900 		slli	s1,s2,3
 1445 09bc B3879700 		add	a5,a5,s1
 1446 09c0 03B50700 		ld	a0,0(a5)
 1447 09c4 13060000 		li	a2,0
 1448 09c8 93050001 		li	a1,16
 1449 09cc 3335A000 		snez	a0,a0
 1450 09d0 97000000 		call	_Z9kprintIntmib
 1450      E7800000 
 1451              	.LVL162:
 246:src/kernel/mmanagement/buddy_allocator.cpp ****         kprintString("\t");
 1452              		.loc 1 246 29
 1453 09d8 17050000 		lla	a0,.LC1
GAS LISTING /tmp/ccvtk9xj.s 			page 37


 1453      13050500 
 1454 09e0 97000000 		call	_Z12kprintStringPKc
 1454      E7800000 
 1455              	.LVL163:
 247:src/kernel/mmanagement/buddy_allocator.cpp ****         for(mmeta_t* curr = lhp[i]; curr; curr = curr->next){
 1456              		.loc 1 247 9
 247:src/kernel/mmanagement/buddy_allocator.cpp ****         for(mmeta_t* curr = lhp[i]; curr; curr = curr->next){
 1457              		.loc 1 247 21 is_stmt 0
 1458 09e8 17050000 		lla	a0,.LC12
 1458      13050500 
 1459 09f0 97000000 		call	_Z12kprintStringPKc
 1459      E7800000 
 1460              	.LVL164:
 248:src/kernel/mmanagement/buddy_allocator.cpp ****             kprintInt((uint64)curr, 16);
 1461              		.loc 1 248 9 is_stmt 1
 1462              	.LBB36:
 248:src/kernel/mmanagement/buddy_allocator.cpp ****             kprintInt((uint64)curr, 16);
 1463              		.loc 1 248 29 is_stmt 0
 1464 09f8 83B70901 		ld	a5,16(s3)
 248:src/kernel/mmanagement/buddy_allocator.cpp ****             kprintInt((uint64)curr, 16);
 1465              		.loc 1 248 34
 1466 09fc B3879700 		add	a5,a5,s1
 248:src/kernel/mmanagement/buddy_allocator.cpp ****             kprintInt((uint64)curr, 16);
 1467              		.loc 1 248 22
 1468 0a00 83B40700 		ld	s1,0(a5)
 1469              	.LVL165:
 1470 0a04 6FF09FF2 		j	.L84
 1471              	.LVL166:
 1472              	.L81:
 1473              	.LBE36:
 1474              	.LBE37:
 1475              	.LBE38:
 254:src/kernel/mmanagement/buddy_allocator.cpp ****     }
 255:src/kernel/mmanagement/buddy_allocator.cpp ****     kprintString("\n");
 1476              		.loc 1 255 5 is_stmt 1
 1477              		.loc 1 255 17 is_stmt 0
 1478 0a08 17050000 		lla	a0,.LC1
 1478      13050500 
 1479 0a10 97000000 		call	_Z12kprintStringPKc
 1479      E7800000 
 1480              	.LVL167:
 256:src/kernel/mmanagement/buddy_allocator.cpp ****     if(f){
 1481              		.loc 1 256 5 is_stmt 1
 1482              	.LBB39:
 1483 0a18 63040A06 		beq	s4,zero,.L86
 1484              	.LBB40:
 257:src/kernel/mmanagement/buddy_allocator.cpp ****         for(size_t i = 0; i < (1ULL << max_level); i++){
 1485              		.loc 1 257 20 is_stmt 0
 1486 0a1c 93040000 		li	s1,0
 1487 0a20 6F008000 		j	.L88
 1488              	.LVL168:
 1489              	.L87:
 1490              		.loc 1 257 9 discriminator 2
 1491 0a24 93841400 		addi	s1,s1,1
 1492              	.LVL169:
 1493              	.L88:
 1494              		.loc 1 257 40 discriminator 1
GAS LISTING /tmp/ccvtk9xj.s 			page 38


 1495 0a28 03B78900 		ld	a4,8(s3)
 1496              		.loc 1 257 37 discriminator 1
 1497 0a2c 93071000 		li	a5,1
 1498 0a30 B397E700 		sll	a5,a5,a4
 1499              		.loc 1 257 29 discriminator 1
 1500 0a34 63F6F404 		bleu	a5,s1,.L86
 258:src/kernel/mmanagement/buddy_allocator.cpp ****             if(get_bit_val(i)){
 1501              		.loc 1 258 13 is_stmt 1
 1502              		.loc 1 258 27 is_stmt 0
 1503 0a38 93850400 		mv	a1,s1
 1504 0a3c 13850900 		mv	a0,s3
 1505 0a40 97000000 		call	_ZN5Buddy11get_bit_valEm
 1505      E7800000 
 1506              	.LVL170:
 1507              		.loc 1 258 13
 1508 0a48 E30E05FC 		beq	a0,zero,.L87
 259:src/kernel/mmanagement/buddy_allocator.cpp ****                 kprintString("\t"); print_be(i); kprintString("\n");
 1509              		.loc 1 259 17 is_stmt 1
 1510              		.loc 1 259 29 is_stmt 0
 1511 0a4c 17050000 		lla	a0,.LC12
 1511      13050500 
 1512 0a54 97000000 		call	_Z12kprintStringPKc
 1512      E7800000 
 1513              	.LVL171:
 1514              		.loc 1 259 37 is_stmt 1
 1515              		.loc 1 259 45 is_stmt 0
 1516 0a5c 93850400 		mv	a1,s1
 1517 0a60 13850900 		mv	a0,s3
 1518 0a64 97000000 		call	_ZN5Buddy8print_beEm
 1518      E7800000 
 1519              	.LVL172:
 1520              		.loc 1 259 50 is_stmt 1
 1521              		.loc 1 259 62 is_stmt 0
 1522 0a6c 17050000 		lla	a0,.LC1
 1522      13050500 
 1523 0a74 97000000 		call	_Z12kprintStringPKc
 1523      E7800000 
 1524              	.LVL173:
 1525 0a7c 6FF09FFA 		j	.L87
 1526              	.LVL174:
 1527              	.L86:
 1528              	.LBE40:
 1529              	.LBE39:
 260:src/kernel/mmanagement/buddy_allocator.cpp ****             }
 261:src/kernel/mmanagement/buddy_allocator.cpp ****         }
 262:src/kernel/mmanagement/buddy_allocator.cpp ****     }
 263:src/kernel/mmanagement/buddy_allocator.cpp ****     kprintString("\t----END MEMORY META----\n");
 1530              		.loc 1 263 5 is_stmt 1
 1531              		.loc 1 263 17 is_stmt 0
 1532 0a80 17050000 		lla	a0,.LC15
 1532      13050500 
 1533 0a88 97000000 		call	_Z12kprintStringPKc
 1533      E7800000 
 1534              	.LVL175:
 264:src/kernel/mmanagement/buddy_allocator.cpp **** 
 265:src/kernel/mmanagement/buddy_allocator.cpp ****     kprintString("-------END BUDDY STATUS-------\n");
 1535              		.loc 1 265 5 is_stmt 1
GAS LISTING /tmp/ccvtk9xj.s 			page 39


 1536              		.loc 1 265 17 is_stmt 0
 1537 0a90 17050000 		lla	a0,.LC16
 1537      13050500 
 1538 0a98 97000000 		call	_Z12kprintStringPKc
 1538      E7800000 
 1539              	.LVL176:
 1540              	.L78:
 266:src/kernel/mmanagement/buddy_allocator.cpp **** 
 267:src/kernel/mmanagement/buddy_allocator.cpp **** }...
 1541              		.loc 1 267 1
 1542 0aa0 83308102 		ld	ra,40(sp)
 1543              		.cfi_restore 1
 1544 0aa4 03340102 		ld	s0,32(sp)
 1545              		.cfi_restore 8
 1546              		.cfi_def_cfa 2, 48
 1547 0aa8 83348101 		ld	s1,24(sp)
 1548              		.cfi_restore 9
 1549 0aac 03390101 		ld	s2,16(sp)
 1550              		.cfi_restore 18
 1551 0ab0 83398100 		ld	s3,8(sp)
 1552              		.cfi_restore 19
 1553 0ab4 033A0100 		ld	s4,0(sp)
 1554              		.cfi_restore 20
 1555 0ab8 13010103 		addi	sp,sp,48
 1556              		.cfi_def_cfa_offset 0
 1557 0abc 67800000 		jr	ra
 1558              		.cfi_endproc
 1559              	.LFE130:
 1561              		.section	.text._Z4swapImEvRT_S1_,"axG",@progbits,_Z4swapImEvRT_S1_,comdat
 1562              		.align	2
 1563              		.weak	_Z4swapImEvRT_S1_
 1565              	_Z4swapImEvRT_S1_:
 1566              	.LFB131:
 1567              		.file 4 "src/kernel/mmanagement/../../../h/../h/kernel_funs.h"
   1:src/kernel/mmanagement/../../../h/../h/kernel_funs.h **** #ifndef ___kernel_funs___
   2:src/kernel/mmanagement/../../../h/../h/kernel_funs.h **** #define ___kernel_funs___
   3:src/kernel/mmanagement/../../../h/../h/kernel_funs.h **** 
   4:src/kernel/mmanagement/../../../h/../h/kernel_funs.h **** #include"../lib/hw.h"
   5:src/kernel/mmanagement/../../../h/../h/kernel_funs.h **** 
   6:src/kernel/mmanagement/../../../h/../h/kernel_funs.h **** /* interrupt vector function that handles interruptions */
   7:src/kernel/mmanagement/../../../h/../h/kernel_funs.h **** extern "C" void interruptvec(); 
   8:src/kernel/mmanagement/../../../h/../h/kernel_funs.h **** 
   9:src/kernel/mmanagement/../../../h/../h/kernel_funs.h **** /* user process that starts after initalizing kernel */
  10:src/kernel/mmanagement/../../../h/../h/kernel_funs.h **** extern void userMain(); 
  11:src/kernel/mmanagement/../../../h/../h/kernel_funs.h **** 
  12:src/kernel/mmanagement/../../../h/../h/kernel_funs.h **** /* kernel wrapper function for starting userMain */
  13:src/kernel/mmanagement/../../../h/../h/kernel_funs.h **** extern void userMainWrapper(void*); 
  14:src/kernel/mmanagement/../../../h/../h/kernel_funs.h **** 
  15:src/kernel/mmanagement/../../../h/../h/kernel_funs.h **** /* idle function in user mode that loops when scheduler is empty */
  16:src/kernel/mmanagement/../../../h/../h/kernel_funs.h **** void idleFunction(void*); 
  17:src/kernel/mmanagement/../../../h/../h/kernel_funs.h **** 
  18:src/kernel/mmanagement/../../../h/../h/kernel_funs.h **** /* kernel print string (UNFORMATED) (PRINTING WITHOUT NEWLINE) */
  19:src/kernel/mmanagement/../../../h/../h/kernel_funs.h **** void kprintString(const char*); 
  20:src/kernel/mmanagement/../../../h/../h/kernel_funs.h ****  
  21:src/kernel/mmanagement/../../../h/../h/kernel_funs.h **** /* kernel print integer (base is number base, exapmle: base = 16 <=> hex) */
  22:src/kernel/mmanagement/../../../h/../h/kernel_funs.h **** void kprintInt(uint64 num, int base = 10, bool sig=false); 
  23:src/kernel/mmanagement/../../../h/../h/kernel_funs.h **** 
GAS LISTING /tmp/ccvtk9xj.s 			page 40


  24:src/kernel/mmanagement/../../../h/../h/kernel_funs.h **** /* function to initalize whole kernel (it prints necessary information) - v1 (OS1)*/
  25:src/kernel/mmanagement/../../../h/../h/kernel_funs.h **** int kernelInit(); 
  26:src/kernel/mmanagement/../../../h/../h/kernel_funs.h **** 
  27:src/kernel/mmanagement/../../../h/../h/kernel_funs.h **** /* function to initalize whole kernel (it prints necessary information) - v2 (OS2)*/
  28:src/kernel/mmanagement/../../../h/../h/kernel_funs.h **** int newKernelInit();
  29:src/kernel/mmanagement/../../../h/../h/kernel_funs.h **** 
  30:src/kernel/mmanagement/../../../h/../h/kernel_funs.h **** /* closest greater number = n*4096 */
  31:src/kernel/mmanagement/../../../h/../h/kernel_funs.h **** uint64 align4kb(uint64);
  32:src/kernel/mmanagement/../../../h/../h/kernel_funs.h **** 
  33:src/kernel/mmanagement/../../../h/../h/kernel_funs.h **** /* closest greater number that is 2^n */
  34:src/kernel/mmanagement/../../../h/../h/kernel_funs.h **** uint64 closest2pow(uint64);
  35:src/kernel/mmanagement/../../../h/../h/kernel_funs.h **** 
  36:src/kernel/mmanagement/../../../h/../h/kernel_funs.h **** /* first set bit position */
  37:src/kernel/mmanagement/../../../h/../h/kernel_funs.h **** char log2(uint64);
  38:src/kernel/mmanagement/../../../h/../h/kernel_funs.h **** 
  39:src/kernel/mmanagement/../../../h/../h/kernel_funs.h **** /* one or less set bits */
  40:src/kernel/mmanagement/../../../h/../h/kernel_funs.h **** bool osb(uint64);
  41:src/kernel/mmanagement/../../../h/../h/kernel_funs.h **** 
  42:src/kernel/mmanagement/../../../h/../h/kernel_funs.h **** /* classic swap */
  43:src/kernel/mmanagement/../../../h/../h/kernel_funs.h **** template<typename T>
  44:src/kernel/mmanagement/../../../h/../h/kernel_funs.h **** void swap(T& a, T& b){
 1568              		.loc 4 44 6 is_stmt 1
 1569              		.cfi_startproc
 1570              	.LVL177:
 1571 0000 130101FF 		addi	sp,sp,-16
 1572              		.cfi_def_cfa_offset 16
 1573 0004 23348100 		sd	s0,8(sp)
 1574              		.cfi_offset 8, -8
 1575 0008 13040101 		addi	s0,sp,16
 1576              		.cfi_def_cfa 8, 0
  45:src/kernel/mmanagement/../../../h/../h/kernel_funs.h ****     T x = a;
 1577              		.loc 4 45 7 is_stmt 0
 1578 000c 83370500 		ld	a5,0(a0)
 1579              	.LVL178:
  46:src/kernel/mmanagement/../../../h/../h/kernel_funs.h ****     a = b;
 1580              		.loc 4 46 5
 1581 0010 03B70500 		ld	a4,0(a1)
 1582 0014 2330E500 		sd	a4,0(a0)
  47:src/kernel/mmanagement/../../../h/../h/kernel_funs.h ****     b = x;
 1583              		.loc 4 47 5
 1584 0018 23B0F500 		sd	a5,0(a1)
  48:src/kernel/mmanagement/../../../h/../h/kernel_funs.h **** }
 1585              		.loc 4 48 1
 1586 001c 03348100 		ld	s0,8(sp)
 1587              		.cfi_restore 8
 1588              		.cfi_def_cfa 2, 16
 1589 0020 13010101 		addi	sp,sp,16
 1590              		.cfi_def_cfa_offset 0
 1591 0024 67800000 		jr	ra
 1592              		.cfi_endproc
 1593              	.LFE131:
 1595              		.section	.text._Z4swapIP7mmeta_tEvRT_S3_,"axG",@progbits,_Z4swapIP7mmeta_tEvRT_S3_,comdat
 1596              		.align	2
 1597              		.weak	_Z4swapIP7mmeta_tEvRT_S3_
 1599              	_Z4swapIP7mmeta_tEvRT_S3_:
 1600              	.LFB132:
  44:src/kernel/mmanagement/../../../h/../h/kernel_funs.h ****     T x = a;
GAS LISTING /tmp/ccvtk9xj.s 			page 41


 1601              		.loc 4 44 6 is_stmt 1
 1602              		.cfi_startproc
 1603              	.LVL179:
 1604 0000 130101FF 		addi	sp,sp,-16
 1605              		.cfi_def_cfa_offset 16
 1606 0004 23348100 		sd	s0,8(sp)
 1607              		.cfi_offset 8, -8
 1608 0008 13040101 		addi	s0,sp,16
 1609              		.cfi_def_cfa 8, 0
  45:src/kernel/mmanagement/../../../h/../h/kernel_funs.h ****     a = b;
 1610              		.loc 4 45 7 is_stmt 0
 1611 000c 83370500 		ld	a5,0(a0)
 1612              	.LVL180:
  46:src/kernel/mmanagement/../../../h/../h/kernel_funs.h ****     b = x;
 1613              		.loc 4 46 5
 1614 0010 03B70500 		ld	a4,0(a1)
 1615 0014 2330E500 		sd	a4,0(a0)
  47:src/kernel/mmanagement/../../../h/../h/kernel_funs.h **** }
 1616              		.loc 4 47 5
 1617 0018 23B0F500 		sd	a5,0(a1)
 1618              		.loc 4 48 1
 1619 001c 03348100 		ld	s0,8(sp)
 1620              		.cfi_restore 8
 1621              		.cfi_def_cfa 2, 16
 1622 0020 13010101 		addi	sp,sp,16
 1623              		.cfi_def_cfa_offset 0
 1624 0024 67800000 		jr	ra
 1625              		.cfi_endproc
 1626              	.LFE132:
 1628              		.text
 1629              		.align	2
 1630              		.globl	_ZN5Buddy8merge_ipEP7mmeta_t
 1632              	_ZN5Buddy8merge_ipEP7mmeta_t:
 1633              	.LFB124:
 170:src/kernel/mmanagement/buddy_allocator.cpp **** mmeta_t* Buddy::merge_ip(mmeta_t* chunk){
 1634              		.loc 1 170 41 is_stmt 1
 1635              		.cfi_startproc
 1636              	.LVL181:
 1637 0ac0 130101FA 		addi	sp,sp,-96
 1638              		.cfi_def_cfa_offset 96
 1639 0ac4 233C1104 		sd	ra,88(sp)
 1640 0ac8 23388104 		sd	s0,80(sp)
 1641 0acc 23349104 		sd	s1,72(sp)
 1642 0ad0 23302105 		sd	s2,64(sp)
 1643 0ad4 233C3103 		sd	s3,56(sp)
 1644 0ad8 23384103 		sd	s4,48(sp)
 1645              		.cfi_offset 1, -8
 1646              		.cfi_offset 8, -16
 1647              		.cfi_offset 9, -24
 1648              		.cfi_offset 18, -32
 1649              		.cfi_offset 19, -40
 1650              		.cfi_offset 20, -48
 1651 0adc 13040106 		addi	s0,sp,96
 1652              		.cfi_def_cfa 8, 0
 1653 0ae0 13090500 		mv	s2,a0
 1654 0ae4 2334B4FA 		sd	a1,-88(s0)
 171:src/kernel/mmanagement/buddy_allocator.cpp ****     size_t bi = BLOCK_IND(chunk);
GAS LISTING /tmp/ccvtk9xj.s 			page 42


 1655              		.loc 1 171 5
 171:src/kernel/mmanagement/buddy_allocator.cpp ****     size_t bi = BLOCK_IND(chunk);
 1656              		.loc 1 171 17 is_stmt 0
 1657 0ae8 83370500 		ld	a5,0(a0)
 1658 0aec B387F540 		sub	a5,a1,a5
 1659 0af0 170A0000 		lbu	s4,_ZN5Buddy18BLOCK_SIZE_BIT_LENE
 1659      034A0A00 
 1660 0af8 B3D74701 		srl	a5,a5,s4
 171:src/kernel/mmanagement/buddy_allocator.cpp ****     size_t bi = BLOCK_IND(chunk);
 1661              		.loc 1 171 12
 1662 0afc 2334F4FC 		sd	a5,-56(s0)
 172:src/kernel/mmanagement/buddy_allocator.cpp ****     size_t budd_bi;
 1663              		.loc 1 172 5 is_stmt 1
 174:src/kernel/mmanagement/buddy_allocator.cpp ****     budd_bi = bi ^ (1ULL << chunk->level);
 1664              		.loc 1 174 5
 174:src/kernel/mmanagement/buddy_allocator.cpp ****     budd_bi = bi ^ (1ULL << chunk->level);
 1665              		.loc 1 174 36 is_stmt 0
 1666 0b00 83C90501 		lbu	s3,16(a1)
 174:src/kernel/mmanagement/buddy_allocator.cpp ****     budd_bi = bi ^ (1ULL << chunk->level);
 1667              		.loc 1 174 26
 1668 0b04 93041000 		li	s1,1
 1669 0b08 B3943401 		sll	s1,s1,s3
 174:src/kernel/mmanagement/buddy_allocator.cpp ****     budd_bi = bi ^ (1ULL << chunk->level);
 1670              		.loc 1 174 18
 1671 0b0c B3C49700 		xor	s1,a5,s1
 174:src/kernel/mmanagement/buddy_allocator.cpp ****     budd_bi = bi ^ (1ULL << chunk->level);
 1672              		.loc 1 174 13
 1673 0b10 233094FC 		sd	s1,-64(s0)
 176:src/kernel/mmanagement/buddy_allocator.cpp ****     if(!get_bit_val(bi)) return nullptr;
 1674              		.loc 1 176 5 is_stmt 1
 176:src/kernel/mmanagement/buddy_allocator.cpp ****     if(!get_bit_val(bi)) return nullptr;
 1675              		.loc 1 176 20 is_stmt 0
 1676 0b14 93850700 		mv	a1,a5
 1677              	.LVL182:
 1678 0b18 97000000 		call	_ZN5Buddy11get_bit_valEm
 1678      E7800000 
 1679              	.LVL183:
 176:src/kernel/mmanagement/buddy_allocator.cpp ****     if(!get_bit_val(bi)) return nullptr;
 1680              		.loc 1 176 5
 1681 0b20 6306050A 		beq	a0,zero,.L99
 178:src/kernel/mmanagement/buddy_allocator.cpp ****     mmeta_t* budd_addr = (mmeta_t*)((budd_bi << BLOCK_SIZE_BIT_LEN) + (size_t)start_address);
 1682              		.loc 1 178 5 is_stmt 1
 178:src/kernel/mmanagement/buddy_allocator.cpp ****     mmeta_t* budd_addr = (mmeta_t*)((budd_bi << BLOCK_SIZE_BIT_LEN) + (size_t)start_address);
 1683              		.loc 1 178 46 is_stmt 0
 1684 0b24 B3944401 		sll	s1,s1,s4
 178:src/kernel/mmanagement/buddy_allocator.cpp ****     mmeta_t* budd_addr = (mmeta_t*)((budd_bi << BLOCK_SIZE_BIT_LEN) + (size_t)start_address);
 1685              		.loc 1 178 79
 1686 0b28 03360900 		ld	a2,0(s2)
 178:src/kernel/mmanagement/buddy_allocator.cpp ****     mmeta_t* budd_addr = (mmeta_t*)((budd_bi << BLOCK_SIZE_BIT_LEN) + (size_t)start_address);
 1687              		.loc 1 178 69
 1688 0b2c 33069600 		add	a2,a2,s1
 178:src/kernel/mmanagement/buddy_allocator.cpp ****     mmeta_t* budd_addr = (mmeta_t*)((budd_bi << BLOCK_SIZE_BIT_LEN) + (size_t)start_address);
 1689              		.loc 1 178 14
 1690 0b30 233CC4FA 		sd	a2,-72(s0)
 179:src/kernel/mmanagement/buddy_allocator.cpp ****     if(budd_addr->level != chunk->level) return nullptr;
 1691              		.loc 1 179 5 is_stmt 1
 179:src/kernel/mmanagement/buddy_allocator.cpp ****     if(budd_addr->level != chunk->level) return nullptr;
GAS LISTING /tmp/ccvtk9xj.s 			page 43


 1692              		.loc 1 179 19 is_stmt 0
 1693 0b34 83450601 		lbu	a1,16(a2)
 179:src/kernel/mmanagement/buddy_allocator.cpp ****     if(budd_addr->level != chunk->level) return nullptr;
 1694              		.loc 1 179 5
 1695 0b38 639EB908 		bne	s3,a1,.L100
 181:src/kernel/mmanagement/buddy_allocator.cpp ****     int code = remove_from_list(budd_addr->level, budd_addr);    
 1696              		.loc 1 181 5 is_stmt 1
 181:src/kernel/mmanagement/buddy_allocator.cpp ****     int code = remove_from_list(budd_addr->level, budd_addr);    
 1697              		.loc 1 181 32 is_stmt 0
 1698 0b3c 13050900 		mv	a0,s2
 1699 0b40 97000000 		call	_ZN5Buddy16remove_from_listEhP7mmeta_t
 1699      E7800000 
 1700              	.LVL184:
 182:src/kernel/mmanagement/buddy_allocator.cpp ****     if(code < 0) return nullptr;
 1701              		.loc 1 182 5 is_stmt 1
 1702 0b48 634A0508 		blt	a0,zero,.L101
 184:src/kernel/mmanagement/buddy_allocator.cpp ****     if(budd_bi < bi){
 1703              		.loc 1 184 5
 184:src/kernel/mmanagement/buddy_allocator.cpp ****     if(budd_bi < bi){
 1704              		.loc 1 184 16 is_stmt 0
 1705 0b4c 033704FC 		ld	a4,-64(s0)
 1706 0b50 833784FC 		ld	a5,-56(s0)
 184:src/kernel/mmanagement/buddy_allocator.cpp ****     if(budd_bi < bi){
 1707              		.loc 1 184 5
 1708 0b54 636AF704 		bltu	a4,a5,.L103
 1709              	.LVL185:
 1710              	.L98:
 188:src/kernel/mmanagement/buddy_allocator.cpp ****     clr_bit(budd_bi);
 1711              		.loc 1 188 5 is_stmt 1
 188:src/kernel/mmanagement/buddy_allocator.cpp ****     clr_bit(budd_bi);
 1712              		.loc 1 188 12 is_stmt 0
 1713 0b58 833504FC 		ld	a1,-64(s0)
 1714 0b5c 13050900 		mv	a0,s2
 1715 0b60 97000000 		call	_ZN5Buddy7clr_bitEm
 1715      E7800000 
 1716              	.LVL186:
 189:src/kernel/mmanagement/buddy_allocator.cpp ****     set_bit(bi);
 1717              		.loc 1 189 5 is_stmt 1
 189:src/kernel/mmanagement/buddy_allocator.cpp ****     set_bit(bi);
 1718              		.loc 1 189 12 is_stmt 0
 1719 0b68 833584FC 		ld	a1,-56(s0)
 1720 0b6c 13050900 		mv	a0,s2
 1721 0b70 97000000 		call	_ZN5Buddy7set_bitEm
 1721      E7800000 
 1722              	.LVL187:
 190:src/kernel/mmanagement/buddy_allocator.cpp ****     chunk->level = chunk->level + 1;
 1723              		.loc 1 190 5 is_stmt 1
 190:src/kernel/mmanagement/buddy_allocator.cpp ****     chunk->level = chunk->level + 1;
 1724              		.loc 1 190 27 is_stmt 0
 1725 0b78 033584FA 		ld	a0,-88(s0)
 1726 0b7c 83470501 		lbu	a5,16(a0)
 190:src/kernel/mmanagement/buddy_allocator.cpp ****     chunk->level = chunk->level + 1;
 1727              		.loc 1 190 33
 1728 0b80 9B871700 		addiw	a5,a5,1
 190:src/kernel/mmanagement/buddy_allocator.cpp ****     chunk->level = chunk->level + 1;
 1729              		.loc 1 190 18
 1730 0b84 2308F500 		sb	a5,16(a0)
GAS LISTING /tmp/ccvtk9xj.s 			page 44


 192:src/kernel/mmanagement/buddy_allocator.cpp ****     return chunk;
 1731              		.loc 1 192 5 is_stmt 1
 1732              	.L96:
 193:src/kernel/mmanagement/buddy_allocator.cpp **** }
 1733              		.loc 1 193 1 is_stmt 0
 1734 0b88 83308105 		ld	ra,88(sp)
 1735              		.cfi_remember_state
 1736              		.cfi_restore 1
 1737 0b8c 03340105 		ld	s0,80(sp)
 1738              		.cfi_restore 8
 1739              		.cfi_def_cfa 2, 96
 1740 0b90 83348104 		ld	s1,72(sp)
 1741              		.cfi_restore 9
 1742 0b94 03390104 		ld	s2,64(sp)
 1743              		.cfi_restore 18
 1744              	.LVL188:
 1745 0b98 83398103 		ld	s3,56(sp)
 1746              		.cfi_restore 19
 1747 0b9c 033A0103 		ld	s4,48(sp)
 1748              		.cfi_restore 20
 1749 0ba0 13010106 		addi	sp,sp,96
 1750              		.cfi_def_cfa_offset 0
 1751 0ba4 67800000 		jr	ra
 1752              	.LVL189:
 1753              	.L103:
 1754              		.cfi_restore_state
 185:src/kernel/mmanagement/buddy_allocator.cpp ****         swap(bi, budd_bi);
 1755              		.loc 1 185 9 is_stmt 1
 185:src/kernel/mmanagement/buddy_allocator.cpp ****         swap(bi, budd_bi);
 1756              		.loc 1 185 13 is_stmt 0
 1757 0ba8 930504FC 		addi	a1,s0,-64
 1758 0bac 130584FC 		addi	a0,s0,-56
 1759              	.LVL190:
 1760 0bb0 97000000 		call	_Z4swapImEvRT_S1_
 1760      E7800000 
 1761              	.LVL191:
 186:src/kernel/mmanagement/buddy_allocator.cpp ****         swap(chunk, budd_addr);
 1762              		.loc 1 186 9 is_stmt 1
 186:src/kernel/mmanagement/buddy_allocator.cpp ****         swap(chunk, budd_addr);
 1763              		.loc 1 186 13 is_stmt 0
 1764 0bb8 930584FB 		addi	a1,s0,-72
 1765 0bbc 130584FA 		addi	a0,s0,-88
 1766 0bc0 97000000 		call	_Z4swapIP7mmeta_tEvRT_S3_
 1766      E7800000 
 1767              	.LVL192:
 1768 0bc8 6FF01FF9 		j	.L98
 1769              	.L99:
 176:src/kernel/mmanagement/buddy_allocator.cpp ****     if(!get_bit_val(bi)) return nullptr;
 1770              		.loc 1 176 33
 1771 0bcc 13050000 		li	a0,0
 1772 0bd0 6FF09FFB 		j	.L96
 1773              	.L100:
 179:src/kernel/mmanagement/buddy_allocator.cpp ****     if(budd_addr->level != chunk->level) return nullptr;
 1774              		.loc 1 179 49
 1775 0bd4 13050000 		li	a0,0
 1776 0bd8 6FF01FFB 		j	.L96
 1777              	.LVL193:
GAS LISTING /tmp/ccvtk9xj.s 			page 45


 1778              	.L101:
 182:src/kernel/mmanagement/buddy_allocator.cpp ****     if(code < 0) return nullptr;
 1779              		.loc 1 182 25
 1780 0bdc 13050000 		li	a0,0
 1781              	.LVL194:
 1782 0be0 6FF09FFA 		j	.L96
 1783              		.cfi_endproc
 1784              	.LFE124:
 1786              		.align	2
 1787              		.globl	_ZN5Buddy8mem_freeEPvh
 1789              	_ZN5Buddy8mem_freeEPvh:
 1790              	.LFB119:
  85:src/kernel/mmanagement/buddy_allocator.cpp **** int Buddy::mem_free(void* addr, uchar level){
 1791              		.loc 1 85 45 is_stmt 1
 1792              		.cfi_startproc
 1793              	.LVL195:
  87:src/kernel/mmanagement/buddy_allocator.cpp ****     if(( (uint64)addr & (BLOCK_SIZE - 1) )
 1794              		.loc 1 87 5
  87:src/kernel/mmanagement/buddy_allocator.cpp ****     if(( (uint64)addr & (BLOCK_SIZE - 1) )
 1795              		.loc 1 87 23 is_stmt 0
 1796 0be4 B7170000 		li	a5,4096
 1797 0be8 9387F7FF 		addi	a5,a5,-1
 1798 0bec B3F7F500 		and	a5,a1,a5
  87:src/kernel/mmanagement/buddy_allocator.cpp ****     if(( (uint64)addr & (BLOCK_SIZE - 1) )
 1799              		.loc 1 87 5
 1800 0bf0 6394070E 		bne	a5,zero,.L108
  85:src/kernel/mmanagement/buddy_allocator.cpp **** int Buddy::mem_free(void* addr, uchar level){
 1801              		.loc 1 85 45
 1802 0bf4 130101FD 		addi	sp,sp,-48
 1803              		.cfi_def_cfa_offset 48
 1804 0bf8 23341102 		sd	ra,40(sp)
 1805 0bfc 23308102 		sd	s0,32(sp)
 1806 0c00 233C9100 		sd	s1,24(sp)
 1807 0c04 23382101 		sd	s2,16(sp)
 1808 0c08 23343101 		sd	s3,8(sp)
 1809 0c0c 23304101 		sd	s4,0(sp)
 1810              		.cfi_offset 1, -8
 1811              		.cfi_offset 8, -16
 1812              		.cfi_offset 9, -24
 1813              		.cfi_offset 18, -32
 1814              		.cfi_offset 19, -40
 1815              		.cfi_offset 20, -48
 1816 0c10 13040103 		addi	s0,sp,48
 1817              		.cfi_def_cfa 8, 0
 1818 0c14 13090500 		mv	s2,a0
 1819 0c18 93840500 		mv	s1,a1
 1820 0c1c 130A0600 		mv	s4,a2
  88:src/kernel/mmanagement/buddy_allocator.cpp ****     || addr < start_address) return -1;
 1821              		.loc 1 88 15
 1822 0c20 03370500 		ld	a4,0(a0)
  88:src/kernel/mmanagement/buddy_allocator.cpp ****     || addr < start_address) return -1;
 1823              		.loc 1 88 5
 1824 0c24 63EEE50A 		bgtu	a4,a1,.L109
  90:src/kernel/mmanagement/buddy_allocator.cpp ****     if(level > max_level) return -4;
 1825              		.loc 1 90 5 is_stmt 1
  90:src/kernel/mmanagement/buddy_allocator.cpp ****     if(level > max_level) return -4;
 1826              		.loc 1 90 16 is_stmt 0
GAS LISTING /tmp/ccvtk9xj.s 			page 46


 1827 0c28 83368500 		ld	a3,8(a0)
  90:src/kernel/mmanagement/buddy_allocator.cpp ****     if(level > max_level) return -4;
 1828              		.loc 1 90 5
 1829 0c2c 63EEC60A 		bgtu	a2,a3,.L110
  92:src/kernel/mmanagement/buddy_allocator.cpp ****     uint64 bind = BLOCK_IND(addr);
 1830              		.loc 1 92 5 is_stmt 1
  92:src/kernel/mmanagement/buddy_allocator.cpp ****     uint64 bind = BLOCK_IND(addr);
 1831              		.loc 1 92 19 is_stmt 0
 1832 0c30 B389E540 		sub	s3,a1,a4
 1833 0c34 97070000 		lbu	a5,_ZN5Buddy18BLOCK_SIZE_BIT_LENE
 1833      83C70700 
  92:src/kernel/mmanagement/buddy_allocator.cpp ****     uint64 bind = BLOCK_IND(addr);
 1834              		.loc 1 92 12
 1835 0c3c B3D9F900 		srl	s3,s3,a5
 1836              	.LVL196:
  93:src/kernel/mmanagement/buddy_allocator.cpp ****     if(bind >= (1ULL << max_level)) return -3;
 1837              		.loc 1 93 5 is_stmt 1
  93:src/kernel/mmanagement/buddy_allocator.cpp ****     if(bind >= (1ULL << max_level)) return -3;
 1838              		.loc 1 93 22 is_stmt 0
 1839 0c40 93071000 		li	a5,1
 1840 0c44 B397D700 		sll	a5,a5,a3
  93:src/kernel/mmanagement/buddy_allocator.cpp ****     if(bind >= (1ULL << max_level)) return -3;
 1841              		.loc 1 93 5
 1842 0c48 63F4F90A 		bleu	a5,s3,.L111
  94:src/kernel/mmanagement/buddy_allocator.cpp ****     if(get_bit_val(bind)) return -2;
 1843              		.loc 1 94 5 is_stmt 1
  94:src/kernel/mmanagement/buddy_allocator.cpp ****     if(get_bit_val(bind)) return -2;
 1844              		.loc 1 94 19 is_stmt 0
 1845 0c4c 93850900 		mv	a1,s3
 1846              	.LVL197:
 1847 0c50 97000000 		call	_ZN5Buddy11get_bit_valEm
 1847      E7800000 
 1848              	.LVL198:
  94:src/kernel/mmanagement/buddy_allocator.cpp ****     if(get_bit_val(bind)) return -2;
 1849              		.loc 1 94 5
 1850 0c58 6310050A 		bne	a0,zero,.L112
  97:src/kernel/mmanagement/buddy_allocator.cpp ****     mmeta_t* chunk = (mmeta_t*)addr;
 1851              		.loc 1 97 5 is_stmt 1
 1852              	.LVL199:
  98:src/kernel/mmanagement/buddy_allocator.cpp ****     chunk->level = level;
 1853              		.loc 1 98 5
  98:src/kernel/mmanagement/buddy_allocator.cpp ****     chunk->level = level;
 1854              		.loc 1 98 18 is_stmt 0
 1855 0c5c 23884401 		sb	s4,16(s1)
  99:src/kernel/mmanagement/buddy_allocator.cpp ****     chunk->prev = chunk->next = nullptr;
 1856              		.loc 1 99 5 is_stmt 1
  99:src/kernel/mmanagement/buddy_allocator.cpp ****     chunk->prev = chunk->next = nullptr;
 1857              		.loc 1 99 31 is_stmt 0
 1858 0c60 23B00400 		sd	zero,0(s1)
  99:src/kernel/mmanagement/buddy_allocator.cpp ****     chunk->prev = chunk->next = nullptr;
 1859              		.loc 1 99 17
 1860 0c64 23B40400 		sd	zero,8(s1)
 100:src/kernel/mmanagement/buddy_allocator.cpp ****     set_bit(bind);
 1861              		.loc 1 100 5 is_stmt 1
 100:src/kernel/mmanagement/buddy_allocator.cpp ****     set_bit(bind);
 1862              		.loc 1 100 12 is_stmt 0
 1863 0c68 93850900 		mv	a1,s3
GAS LISTING /tmp/ccvtk9xj.s 			page 47


 1864 0c6c 13050900 		mv	a0,s2
 1865 0c70 97000000 		call	_ZN5Buddy7set_bitEm
 1865      E7800000 
 1866              	.LVL200:
 1867 0c78 6F008000 		j	.L107
 1868              	.LVL201:
 1869              	.L113:
 1870              	.LBB41:
 104:src/kernel/mmanagement/buddy_allocator.cpp ****             chunk = maddr;
 1871              		.loc 1 104 19
 1872 0c7c 93040500 		mv	s1,a0
 1873              	.LVL202:
 1874              	.L107:
 1875              	.LBE41:
 101:src/kernel/mmanagement/buddy_allocator.cpp ****     while(chunk->level < max_level){
 1876              		.loc 1 101 5 is_stmt 1
 101:src/kernel/mmanagement/buddy_allocator.cpp ****     while(chunk->level < max_level){
 1877              		.loc 1 101 18 is_stmt 0
 1878 0c80 03C70401 		lbu	a4,16(s1)
 101:src/kernel/mmanagement/buddy_allocator.cpp ****     while(chunk->level < max_level){
 1879              		.loc 1 101 26
 1880 0c84 83378900 		ld	a5,8(s2)
 101:src/kernel/mmanagement/buddy_allocator.cpp ****     while(chunk->level < max_level){
 1881              		.loc 1 101 24
 1882 0c88 637CF700 		bgeu	a4,a5,.L106
 1883              	.LBB42:
 102:src/kernel/mmanagement/buddy_allocator.cpp ****         mmeta_t* maddr = merge_ip(chunk);
 1884              		.loc 1 102 9 is_stmt 1
 102:src/kernel/mmanagement/buddy_allocator.cpp ****         mmeta_t* maddr = merge_ip(chunk);
 1885              		.loc 1 102 34 is_stmt 0
 1886 0c8c 93850400 		mv	a1,s1
 1887 0c90 13050900 		mv	a0,s2
 1888 0c94 97000000 		call	_ZN5Buddy8merge_ipEP7mmeta_t
 1888      E7800000 
 1889              	.LVL203:
 103:src/kernel/mmanagement/buddy_allocator.cpp ****         if(maddr)
 1890              		.loc 1 103 9 is_stmt 1
 1891 0c9c E31005FE 		bne	a0,zero,.L113
 1892              	.LVL204:
 1893              	.L106:
 1894              	.LBE42:
 108:src/kernel/mmanagement/buddy_allocator.cpp ****     add_to_list(chunk->level, chunk);
 1895              		.loc 1 108 5
 108:src/kernel/mmanagement/buddy_allocator.cpp ****     add_to_list(chunk->level, chunk);
 1896              		.loc 1 108 16 is_stmt 0
 1897 0ca0 13860400 		mv	a2,s1
 1898 0ca4 83C50401 		lbu	a1,16(s1)
 1899 0ca8 13050900 		mv	a0,s2
 1900 0cac 97000000 		call	_ZN5Buddy11add_to_listEhP7mmeta_t
 1900      E7800000 
 1901              	.LVL205:
 109:src/kernel/mmanagement/buddy_allocator.cpp ****     return 0;
 1902              		.loc 1 109 5 is_stmt 1
 109:src/kernel/mmanagement/buddy_allocator.cpp ****     return 0;
 1903              		.loc 1 109 12 is_stmt 0
 1904 0cb4 13050000 		li	a0,0
 1905              	.LVL206:
GAS LISTING /tmp/ccvtk9xj.s 			page 48


 1906              	.L105:
 110:src/kernel/mmanagement/buddy_allocator.cpp **** }
 1907              		.loc 1 110 1
 1908 0cb8 83308102 		ld	ra,40(sp)
 1909              		.cfi_restore 1
 1910 0cbc 03340102 		ld	s0,32(sp)
 1911              		.cfi_restore 8
 1912              		.cfi_def_cfa 2, 48
 1913 0cc0 83348101 		ld	s1,24(sp)
 1914              		.cfi_restore 9
 1915 0cc4 03390101 		ld	s2,16(sp)
 1916              		.cfi_restore 18
 1917              	.LVL207:
 1918 0cc8 83398100 		ld	s3,8(sp)
 1919              		.cfi_restore 19
 1920 0ccc 033A0100 		ld	s4,0(sp)
 1921              		.cfi_restore 20
 1922 0cd0 13010103 		addi	sp,sp,48
 1923              		.cfi_def_cfa_offset 0
 1924 0cd4 67800000 		jr	ra
 1925              	.LVL208:
 1926              	.L108:
  88:src/kernel/mmanagement/buddy_allocator.cpp ****     || addr < start_address) return -1;
 1927              		.loc 1 88 38
 1928 0cd8 1305F0FF 		li	a0,-1
 1929              	.LVL209:
 110:src/kernel/mmanagement/buddy_allocator.cpp **** }
 1930              		.loc 1 110 1
 1931 0cdc 67800000 		ret
 1932              	.LVL210:
 1933              	.L109:
 1934              		.cfi_def_cfa_register 8
 1935              		.cfi_offset 1, -8
 1936              		.cfi_offset 8, -16
 1937              		.cfi_offset 9, -24
 1938              		.cfi_offset 18, -32
 1939              		.cfi_offset 19, -40
 1940              		.cfi_offset 20, -48
  88:src/kernel/mmanagement/buddy_allocator.cpp ****     || addr < start_address) return -1;
 1941              		.loc 1 88 38
 1942 0ce0 1305F0FF 		li	a0,-1
 1943              	.LVL211:
 1944 0ce4 6FF05FFD 		j	.L105
 1945              	.LVL212:
 1946              	.L110:
  90:src/kernel/mmanagement/buddy_allocator.cpp ****     if(level > max_level) return -4;
 1947              		.loc 1 90 35
 1948 0ce8 1305C0FF 		li	a0,-4
 1949              	.LVL213:
 1950 0cec 6FF0DFFC 		j	.L105
 1951              	.LVL214:
 1952              	.L111:
  93:src/kernel/mmanagement/buddy_allocator.cpp ****     if(bind >= (1ULL << max_level)) return -3;
 1953              		.loc 1 93 45
 1954 0cf0 1305D0FF 		li	a0,-3
 1955              	.LVL215:
 1956 0cf4 6FF05FFC 		j	.L105
GAS LISTING /tmp/ccvtk9xj.s 			page 49


 1957              	.LVL216:
 1958              	.L112:
  94:src/kernel/mmanagement/buddy_allocator.cpp ****     if(get_bit_val(bind)) return -2;
 1959              		.loc 1 94 35
 1960 0cf8 1305E0FF 		li	a0,-2
 1961 0cfc 6FF0DFFB 		j	.L105
 1962              		.cfi_endproc
 1963              	.LFE119:
 1965              		.globl	_ZN5Buddy18BLOCK_SIZE_BIT_LENE
 1966              		.globl	_ZN5Buddy5buddyE
 1967              		.section	.rodata.str1.8,"aMS",@progbits,1
 1968              		.align	3
 1969              	.LC0:
 1970 0000 61646474 		.string	"addtolist panic: "
 1970      6F6C6973 
 1970      74207061 
 1970      6E69633A 
 1970      2000
 1971 0012 00000000 		.zero	6
 1971      0000
 1972              	.LC1:
 1973 0018 0A00     		.string	"\n"
 1974 001a 00000000 		.zero	6
 1974      0000
 1975              	.LC2:
 1976 0020 626C6F63 		.string	"blocks["
 1976      6B735B00 
 1977              	.LC3:
 1978 0028 5D3A2000 		.string	"]: "
 1979 002c 00000000 		.zero	4
 1980              	.LC4:
 1981 0030 46524545 		.string	"FREE"
 1981      00
 1982 0035 000000   		.zero	3
 1983              	.LC5:
 1984 0038 414C4C4F 		.string	"ALLOC"
 1984      4300
 1985 003e 0000     		.zero	2
 1986              	.LC6:
 1987 0040 42554444 		.string	"BUDDY NOT INITALIZED!!!"
 1987      59204E4F 
 1987      5420494E 
 1987      4954414C 
 1987      495A4544 
 1988              	.LC7:
 1989 0058 2D2D2D2D 		.string	"------BUDDY STATUS PRINT------\n"
 1989      2D2D4255 
 1989      44445920 
 1989      53544154 
 1989      55532050 
 1990              	.LC8:
 1991 0078 62756464 		.string	"buddy: "
 1991      793A2000 
 1992              	.LC9:
 1993 0080 73746172 		.string	"start_address: "
 1993      745F6164 
 1993      64726573 
GAS LISTING /tmp/ccvtk9xj.s 			page 50


 1993      733A2000 
 1994              	.LC10:
 1995 0090 6D61785F 		.string	"max_level: "
 1995      6C657665 
 1995      6C3A2000 
 1996 009c 00000000 		.zero	4
 1997              	.LC11:
 1998 00a0 092D2D2D 		.string	"\t------MEMORY META------\n"
 1998      2D2D2D4D 
 1998      454D4F52 
 1998      59204D45 
 1998      54412D2D 
 1999 00ba 00000000 		.zero	6
 1999      0000
 2000              	.LC12:
 2001 00c0 0900     		.string	"\t"
 2002 00c2 00000000 		.zero	6
 2002      0000
 2003              	.LC13:
 2004 00c8 4C455645 		.string	"LEVEL["
 2004      4C5B00
 2005 00cf 00       		.zero	1
 2006              	.LC14:
 2007 00d0 202D3E20 		.string	" -> "
 2007      00
 2008 00d5 000000   		.zero	3
 2009              	.LC15:
 2010 00d8 092D2D2D 		.string	"\t----END MEMORY META----\n"
 2010      2D454E44 
 2010      204D454D 
 2010      4F525920 
 2010      4D455441 
 2011 00f2 00000000 		.zero	6
 2011      0000
 2012              	.LC16:
 2013 00f8 2D2D2D2D 		.string	"-------END BUDDY STATUS-------\n"
 2013      2D2D2D45 
 2013      4E442042 
 2013      55444459 
 2013      20535441 
 2014              		.section	.sbss,"aw",@nobits
 2015              		.align	3
 2018              	_ZN5Buddy18BLOCK_SIZE_BIT_LENE:
 2019 0000 00       		.zero	1
 2020 0001 00000000 		.zero	7
 2020      000000
 2023              	_ZN5Buddy5buddyE:
 2024 0008 00000000 		.zero	8
 2024      00000000 
 2025              		.text
 2026              	.Letext0:
 2027              		.file 5 "src/kernel/mmanagement/../../../h/../h/../lib/hw.h"
 2028              		.file 6 "src/kernel/mmanagement/../../../h/../h/../h/../h/list.h"
 2029              		.file 7 "src/kernel/mmanagement/../../../h/../h/../h/object_cache.h"
 2030              		.file 8 "src/kernel/mmanagement/../../../h/../h/slab_allocator.h"
 2031              		.file 9 "src/kernel/mmanagement/../../../h/../h/slab.h"
 2032              		.file 10 "src/kernel/mmanagement/../../../h/kernel_lib.h"
GAS LISTING /tmp/ccvtk9xj.s 			page 51


GAS LISTING /tmp/ccvtk9xj.s 			page 52

