GAS LISTING /tmp/cciUv5bs.s 			page 1


   1              		.file	"buddy_allocator.cpp"
   2              		.option nopic
   3              		.option norelax
   4              		.attribute arch, "rv64i2p0_m2p0_a2p0"
   5              		.attribute unaligned_access, 0
   6              		.attribute stack_align, 16
   7              		.text
   8              	.Ltext0:
   9              		.align	2
  10              		.globl	_ZN5Buddy11getInstanceEv
  12              	_ZN5Buddy11getInstanceEv:
  13              	.LFB117:
  14              		.file 1 "src/kernel/mmanagement/buddy_allocator.cpp"
   1:src/kernel/mmanagement/buddy_allocator.cpp **** #include"../../../h/kernel_lib.h"
   2:src/kernel/mmanagement/buddy_allocator.cpp **** #define BLOCK_IND(addr) \
   3:src/kernel/mmanagement/buddy_allocator.cpp **** ( ((uint64)addr - (uint64)start_address) >> BLOCK_SIZE_BIT_LEN)
   4:src/kernel/mmanagement/buddy_allocator.cpp ****  
   5:src/kernel/mmanagement/buddy_allocator.cpp **** Buddy* Buddy::buddy = nullptr;
   6:src/kernel/mmanagement/buddy_allocator.cpp **** uchar Buddy::BLOCK_SIZE_BIT_LEN = 0;
   7:src/kernel/mmanagement/buddy_allocator.cpp **** 
   8:src/kernel/mmanagement/buddy_allocator.cpp **** Buddy::Buddy(void* saddr, uchar level){
   9:src/kernel/mmanagement/buddy_allocator.cpp ****     start_address = saddr;
  10:src/kernel/mmanagement/buddy_allocator.cpp ****     max_level = level;
  11:src/kernel/mmanagement/buddy_allocator.cpp ****     
  12:src/kernel/mmanagement/buddy_allocator.cpp ****     /* reserve memory */
  13:src/kernel/mmanagement/buddy_allocator.cpp ****     uint64 x = (uint64)NoAlloc::getEndAddress();
  14:src/kernel/mmanagement/buddy_allocator.cpp ****     uint64 y = (uint64)saddr + (BLOCK_SIZE << max_level);
  15:src/kernel/mmanagement/buddy_allocator.cpp ****     void* ind = NoAlloc::mem_alloc(y - x);
  16:src/kernel/mmanagement/buddy_allocator.cpp **** 
  17:src/kernel/mmanagement/buddy_allocator.cpp ****     if(!ind) { /* panic */ }
  18:src/kernel/mmanagement/buddy_allocator.cpp **** 
  19:src/kernel/mmanagement/buddy_allocator.cpp ****     /* alloc free map */
  20:src/kernel/mmanagement/buddy_allocator.cpp ****     x = 1 << (BLOCK_SIZE_BIT_LEN - 3);
  21:src/kernel/mmanagement/buddy_allocator.cpp ****     fmap = (uchar*)NoAlloc::mem_alloc(x);
  22:src/kernel/mmanagement/buddy_allocator.cpp ****     if(!fmap) { /* panic */ }
  23:src/kernel/mmanagement/buddy_allocator.cpp ****     for(uint64 i = 0; i < x; i++) fmap[i] = 0;
  24:src/kernel/mmanagement/buddy_allocator.cpp ****     
  25:src/kernel/mmanagement/buddy_allocator.cpp ****     /* alloc list heads */
  26:src/kernel/mmanagement/buddy_allocator.cpp ****     lhp = (mmeta_t**)NoAlloc::mem_alloc((level+1)*sizeof(mmeta_t*));
  27:src/kernel/mmanagement/buddy_allocator.cpp ****     if(!lhp) { /* panic */ }
  28:src/kernel/mmanagement/buddy_allocator.cpp ****     for(uchar i = 0; i < max_level + 1; i++)
  29:src/kernel/mmanagement/buddy_allocator.cpp ****         lhp[i] = nullptr;
  30:src/kernel/mmanagement/buddy_allocator.cpp **** 
  31:src/kernel/mmanagement/buddy_allocator.cpp **** 
  32:src/kernel/mmanagement/buddy_allocator.cpp ****     /* add just biggest element (whole memory) to last list */
  33:src/kernel/mmanagement/buddy_allocator.cpp ****     fmap[0] |= 1;
  34:src/kernel/mmanagement/buddy_allocator.cpp ****     int code = add_to_list(max_level, (mmeta_t*)start_address);
  35:src/kernel/mmanagement/buddy_allocator.cpp ****     if ( code < 0) {
  36:src/kernel/mmanagement/buddy_allocator.cpp ****         kprintString("addtolist panic: ");
  37:src/kernel/mmanagement/buddy_allocator.cpp ****         kprintInt(code, 16);
  38:src/kernel/mmanagement/buddy_allocator.cpp ****         kprintString("\n");
  39:src/kernel/mmanagement/buddy_allocator.cpp ****     }
  40:src/kernel/mmanagement/buddy_allocator.cpp **** }
  41:src/kernel/mmanagement/buddy_allocator.cpp **** 
  42:src/kernel/mmanagement/buddy_allocator.cpp **** int Buddy::initalize(void* saddr, uchar level){
  43:src/kernel/mmanagement/buddy_allocator.cpp ****     BLOCK_SIZE_BIT_LEN = log2(BLOCK_SIZE);
  44:src/kernel/mmanagement/buddy_allocator.cpp ****     uint64 laa = (uint64)NoAlloc::getEndAddress();
GAS LISTING /tmp/cciUv5bs.s 			page 2


  45:src/kernel/mmanagement/buddy_allocator.cpp ****     if((uint64)saddr < laa + sizeof(Buddy))
  46:src/kernel/mmanagement/buddy_allocator.cpp ****         return 1;
  47:src/kernel/mmanagement/buddy_allocator.cpp ****     saddr = (void*) blockAlign((uint64)saddr);
  48:src/kernel/mmanagement/buddy_allocator.cpp ****     buddy = new Buddy(saddr, level);
  49:src/kernel/mmanagement/buddy_allocator.cpp ****     if(!buddy)  return 1;
  50:src/kernel/mmanagement/buddy_allocator.cpp **** 
  51:src/kernel/mmanagement/buddy_allocator.cpp ****     return 0;
  52:src/kernel/mmanagement/buddy_allocator.cpp **** }
  53:src/kernel/mmanagement/buddy_allocator.cpp **** 
  54:src/kernel/mmanagement/buddy_allocator.cpp **** Buddy& Buddy::getInstance(){
  15              		.loc 1 54 28
  16              		.cfi_startproc
  17 0000 130101FF 		addi	sp,sp,-16
  18              		.cfi_def_cfa_offset 16
  19 0004 23348100 		sd	s0,8(sp)
  20              		.cfi_offset 8, -8
  21 0008 13040101 		addi	s0,sp,16
  22              		.cfi_def_cfa 8, 0
  55:src/kernel/mmanagement/buddy_allocator.cpp ****     if(!buddy) {  /* panic */ }
  23              		.loc 1 55 5
  56:src/kernel/mmanagement/buddy_allocator.cpp ****     return (*buddy);
  24              		.loc 1 56 5
  57:src/kernel/mmanagement/buddy_allocator.cpp **** }
  25              		.loc 1 57 1 is_stmt 0
  26 000c 97070000 		lla	a5,_ZN5Buddy5buddyE
  26      93870700 
  27 0014 03B50700 		ld	a0,0(a5)
  28 0018 03348100 		ld	s0,8(sp)
  29              		.cfi_restore 8
  30              		.cfi_def_cfa 2, 16
  31 001c 13010101 		addi	sp,sp,16
  32              		.cfi_def_cfa_offset 0
  33 0020 67800000 		jr	ra
  34              		.cfi_endproc
  35              	.LFE117:
  37              		.align	2
  38              		.globl	_ZN5Buddy13get_from_listEh
  40              	_ZN5Buddy13get_from_listEh:
  41              	.LFB121:
  58:src/kernel/mmanagement/buddy_allocator.cpp **** 
  59:src/kernel/mmanagement/buddy_allocator.cpp **** void* Buddy::mem_alloc(uchar level){
  60:src/kernel/mmanagement/buddy_allocator.cpp ****     
  61:src/kernel/mmanagement/buddy_allocator.cpp ****     if(level > max_level) return nullptr;
  62:src/kernel/mmanagement/buddy_allocator.cpp ****     uchar i = level;
  63:src/kernel/mmanagement/buddy_allocator.cpp ****     /*  iterate through levels until we find not-empty list 
  64:src/kernel/mmanagement/buddy_allocator.cpp ****     *   and get free chunk
  65:src/kernel/mmanagement/buddy_allocator.cpp ****     */
  66:src/kernel/mmanagement/buddy_allocator.cpp ****     for(; i <= max_level; i++)
  67:src/kernel/mmanagement/buddy_allocator.cpp ****         if(lhp[i]) break;
  68:src/kernel/mmanagement/buddy_allocator.cpp ****     if(i > max_level) return nullptr;
  69:src/kernel/mmanagement/buddy_allocator.cpp ****     mmeta_t* chunk = get_from_list(i);
  70:src/kernel/mmanagement/buddy_allocator.cpp **** 
  71:src/kernel/mmanagement/buddy_allocator.cpp ****     /* split chunk until we get to given level */
  72:src/kernel/mmanagement/buddy_allocator.cpp ****     for(;i > level; i--){
  73:src/kernel/mmanagement/buddy_allocator.cpp ****         mmeta_t* t = split(chunk);
  74:src/kernel/mmanagement/buddy_allocator.cpp ****         set_bit(BLOCK_IND(t));
  75:src/kernel/mmanagement/buddy_allocator.cpp ****         add_to_list(i-1, t);
GAS LISTING /tmp/cciUv5bs.s 			page 3


  76:src/kernel/mmanagement/buddy_allocator.cpp ****         chunk->level--;
  77:src/kernel/mmanagement/buddy_allocator.cpp ****     }
  78:src/kernel/mmanagement/buddy_allocator.cpp ****     /* set allocate curr chunk */
  79:src/kernel/mmanagement/buddy_allocator.cpp ****     clr_bit(BLOCK_IND(chunk));
  80:src/kernel/mmanagement/buddy_allocator.cpp ****     return chunk;
  81:src/kernel/mmanagement/buddy_allocator.cpp **** }
  82:src/kernel/mmanagement/buddy_allocator.cpp **** 
  83:src/kernel/mmanagement/buddy_allocator.cpp **** 
  84:src/kernel/mmanagement/buddy_allocator.cpp **** 
  85:src/kernel/mmanagement/buddy_allocator.cpp **** int Buddy::mem_free(void* addr, uchar level){
  86:src/kernel/mmanagement/buddy_allocator.cpp ****     
  87:src/kernel/mmanagement/buddy_allocator.cpp ****     if(( (uint64)addr & (BLOCK_SIZE - 1) )
  88:src/kernel/mmanagement/buddy_allocator.cpp ****     || addr < start_address) return -1;
  89:src/kernel/mmanagement/buddy_allocator.cpp ****     
  90:src/kernel/mmanagement/buddy_allocator.cpp ****     if(level > max_level) return -4;
  91:src/kernel/mmanagement/buddy_allocator.cpp ****     /* check bn */
  92:src/kernel/mmanagement/buddy_allocator.cpp ****     uint64 bind = BLOCK_IND(addr);
  93:src/kernel/mmanagement/buddy_allocator.cpp ****     if(bind >= (1ULL << max_level)) return -3;
  94:src/kernel/mmanagement/buddy_allocator.cpp ****     if(get_bit_val(bind)) return -2;
  95:src/kernel/mmanagement/buddy_allocator.cpp **** 
  96:src/kernel/mmanagement/buddy_allocator.cpp ****     /*let the merging begin */ 
  97:src/kernel/mmanagement/buddy_allocator.cpp ****     mmeta_t* chunk = (mmeta_t*)addr;
  98:src/kernel/mmanagement/buddy_allocator.cpp ****     chunk->level = level;
  99:src/kernel/mmanagement/buddy_allocator.cpp ****     chunk->prev = chunk->next = nullptr;
 100:src/kernel/mmanagement/buddy_allocator.cpp ****     set_bit(bind);
 101:src/kernel/mmanagement/buddy_allocator.cpp ****     while(chunk->level < max_level){
 102:src/kernel/mmanagement/buddy_allocator.cpp ****         mmeta_t* maddr = merge_ip(chunk);
 103:src/kernel/mmanagement/buddy_allocator.cpp ****         if(maddr)
 104:src/kernel/mmanagement/buddy_allocator.cpp ****             chunk = maddr;
 105:src/kernel/mmanagement/buddy_allocator.cpp ****         else
 106:src/kernel/mmanagement/buddy_allocator.cpp ****             break;
 107:src/kernel/mmanagement/buddy_allocator.cpp ****     }
 108:src/kernel/mmanagement/buddy_allocator.cpp ****     add_to_list(chunk->level, chunk);
 109:src/kernel/mmanagement/buddy_allocator.cpp ****     return 0;
 110:src/kernel/mmanagement/buddy_allocator.cpp **** }
 111:src/kernel/mmanagement/buddy_allocator.cpp **** 
 112:src/kernel/mmanagement/buddy_allocator.cpp **** 
 113:src/kernel/mmanagement/buddy_allocator.cpp **** 
 114:src/kernel/mmanagement/buddy_allocator.cpp **** int Buddy::add_to_list(uchar level, mmeta_t* chunk){
 115:src/kernel/mmanagement/buddy_allocator.cpp ****     if(level > max_level) return -4;
 116:src/kernel/mmanagement/buddy_allocator.cpp ****     if( !chunk || ((uint64)chunk & (BLOCK_SIZE - 1)) ) return -1;
 117:src/kernel/mmanagement/buddy_allocator.cpp ****     if(!get_bit_val(BLOCK_IND(chunk))) return -2;
 118:src/kernel/mmanagement/buddy_allocator.cpp ****     
 119:src/kernel/mmanagement/buddy_allocator.cpp ****     /* add it to the front of the list */
 120:src/kernel/mmanagement/buddy_allocator.cpp ****     chunk -> next = lhp[level];
 121:src/kernel/mmanagement/buddy_allocator.cpp ****     chunk -> prev = 0;
 122:src/kernel/mmanagement/buddy_allocator.cpp ****     chunk -> level = level;
 123:src/kernel/mmanagement/buddy_allocator.cpp ****     if(lhp[level]) lhp[level] -> prev = chunk;
 124:src/kernel/mmanagement/buddy_allocator.cpp ****     lhp[level] = chunk;
 125:src/kernel/mmanagement/buddy_allocator.cpp **** 
 126:src/kernel/mmanagement/buddy_allocator.cpp ****     return 0;
 127:src/kernel/mmanagement/buddy_allocator.cpp **** }
 128:src/kernel/mmanagement/buddy_allocator.cpp **** 
 129:src/kernel/mmanagement/buddy_allocator.cpp **** mmeta_t* Buddy::get_from_list(uchar level){
  42              		.loc 1 129 43 is_stmt 1
  43              		.cfi_startproc
  44              	.LVL0:
GAS LISTING /tmp/cciUv5bs.s 			page 4


  45 0024 130101FF 		addi	sp,sp,-16
  46              		.cfi_def_cfa_offset 16
  47 0028 23348100 		sd	s0,8(sp)
  48              		.cfi_offset 8, -8
  49 002c 13040101 		addi	s0,sp,16
  50              		.cfi_def_cfa 8, 0
 130:src/kernel/mmanagement/buddy_allocator.cpp ****     /* chk if level is valid */
 131:src/kernel/mmanagement/buddy_allocator.cpp ****     if(level > max_level) return nullptr;
  51              		.loc 1 131 5
  52              		.loc 1 131 16 is_stmt 0
  53 0030 83378500 		ld	a5,8(a0)
  54              		.loc 1 131 5
  55 0034 63E4B704 		bgtu	a1,a5,.L7
 132:src/kernel/mmanagement/buddy_allocator.cpp ****     mmeta_t* ret = lhp[level];
  56              		.loc 1 132 5 is_stmt 1
  57              		.loc 1 132 20 is_stmt 0
  58 0038 83370501 		ld	a5,16(a0)
  59              		.loc 1 132 29
  60 003c 93953500 		slli	a1,a1,3
  61              	.LVL1:
  62 0040 B387B700 		add	a5,a5,a1
  63              		.loc 1 132 14
  64 0044 83B70700 		ld	a5,0(a5)
  65              	.LVL2:
 133:src/kernel/mmanagement/buddy_allocator.cpp ****     if(ret){
  66              		.loc 1 133 5 is_stmt 1
  67 0048 63800702 		beq	a5,zero,.L5
 134:src/kernel/mmanagement/buddy_allocator.cpp ****         if(ret->next) ret->next->prev = 0;
  68              		.loc 1 134 9
  69              		.loc 1 134 17 is_stmt 0
  70 004c 03B70700 		ld	a4,0(a5)
  71              		.loc 1 134 9
  72 0050 63040700 		beq	a4,zero,.L6
  73              		.loc 1 134 23 is_stmt 1 discriminator 1
  74              		.loc 1 134 39 is_stmt 0 discriminator 1
  75 0054 23340700 		sd	zero,8(a4)
  76              	.L6:
 135:src/kernel/mmanagement/buddy_allocator.cpp ****         lhp[level] = ret->next;    
  77              		.loc 1 135 9 is_stmt 1
  78 0058 03370501 		ld	a4,16(a0)
  79              		.loc 1 135 18 is_stmt 0
  80 005c B305B700 		add	a1,a4,a1
  81              		.loc 1 135 27
  82 0060 03B70700 		ld	a4,0(a5)
  83              		.loc 1 135 20
  84 0064 23B0E500 		sd	a4,0(a1)
  85              	.L5:
 136:src/kernel/mmanagement/buddy_allocator.cpp ****     }
 137:src/kernel/mmanagement/buddy_allocator.cpp ****     ret->next = 0;
  86              		.loc 1 137 5 is_stmt 1
  87              		.loc 1 137 15 is_stmt 0
  88 0068 23B00700 		sd	zero,0(a5)
 138:src/kernel/mmanagement/buddy_allocator.cpp ****     return ret;
  89              		.loc 1 138 5 is_stmt 1
  90              	.LVL3:
  91              	.L3:
 139:src/kernel/mmanagement/buddy_allocator.cpp **** }
GAS LISTING /tmp/cciUv5bs.s 			page 5


  92              		.loc 1 139 1 is_stmt 0
  93 006c 13850700 		mv	a0,a5
  94              	.LVL4:
  95 0070 03348100 		ld	s0,8(sp)
  96              		.cfi_remember_state
  97              		.cfi_restore 8
  98              		.cfi_def_cfa 2, 16
  99 0074 13010101 		addi	sp,sp,16
 100              		.cfi_def_cfa_offset 0
 101 0078 67800000 		jr	ra
 102              	.LVL5:
 103              	.L7:
 104              		.cfi_restore_state
 131:src/kernel/mmanagement/buddy_allocator.cpp ****     mmeta_t* ret = lhp[level];
 105              		.loc 1 131 34
 106 007c 93070000 		li	a5,0
 107 0080 6FF0DFFE 		j	.L3
 108              		.cfi_endproc
 109              	.LFE121:
 111              		.align	2
 112              		.globl	_ZN5Buddy5splitEP7mmeta_t
 114              	_ZN5Buddy5splitEP7mmeta_t:
 115              	.LFB123:
 140:src/kernel/mmanagement/buddy_allocator.cpp **** 
 141:src/kernel/mmanagement/buddy_allocator.cpp **** int Buddy::remove_from_list(uchar level, mmeta_t* chunk){
 142:src/kernel/mmanagement/buddy_allocator.cpp ****     
 143:src/kernel/mmanagement/buddy_allocator.cpp ****     if(level > max_level) return -4;
 144:src/kernel/mmanagement/buddy_allocator.cpp ****     if( !chunk || ((uint64)chunk & (BLOCK_SIZE - 1)) ) return -1;
 145:src/kernel/mmanagement/buddy_allocator.cpp ****     if(!get_bit_val(BLOCK_IND(chunk))) return -2;
 146:src/kernel/mmanagement/buddy_allocator.cpp ****     if(!(chunk->level == level)) return -3;
 147:src/kernel/mmanagement/buddy_allocator.cpp **** 
 148:src/kernel/mmanagement/buddy_allocator.cpp ****     /* check if it is on the front */
 149:src/kernel/mmanagement/buddy_allocator.cpp ****     if(lhp[level] == chunk){
 150:src/kernel/mmanagement/buddy_allocator.cpp ****         get_from_list(level);
 151:src/kernel/mmanagement/buddy_allocator.cpp ****         return 0;
 152:src/kernel/mmanagement/buddy_allocator.cpp ****     }
 153:src/kernel/mmanagement/buddy_allocator.cpp **** 
 154:src/kernel/mmanagement/buddy_allocator.cpp ****     /* if it is not on the front */
 155:src/kernel/mmanagement/buddy_allocator.cpp ****     chunk->prev->next = chunk->next;
 156:src/kernel/mmanagement/buddy_allocator.cpp ****     /* if it isn't last */
 157:src/kernel/mmanagement/buddy_allocator.cpp ****     if(chunk->next) chunk->next->prev = chunk->prev;
 158:src/kernel/mmanagement/buddy_allocator.cpp ****     chunk->next = chunk->prev = 0;
 159:src/kernel/mmanagement/buddy_allocator.cpp ****     return 0;
 160:src/kernel/mmanagement/buddy_allocator.cpp **** 
 161:src/kernel/mmanagement/buddy_allocator.cpp **** }
 162:src/kernel/mmanagement/buddy_allocator.cpp **** 
 163:src/kernel/mmanagement/buddy_allocator.cpp **** 
 164:src/kernel/mmanagement/buddy_allocator.cpp **** mmeta_t* Buddy::split(mmeta_t* chunk){
 116              		.loc 1 164 38 is_stmt 1
 117              		.cfi_startproc
 118              	.LVL6:
 119 0084 130101FF 		addi	sp,sp,-16
 120              		.cfi_def_cfa_offset 16
 121 0088 23348100 		sd	s0,8(sp)
 122              		.cfi_offset 8, -8
 123 008c 13040101 		addi	s0,sp,16
 124              		.cfi_def_cfa 8, 0
GAS LISTING /tmp/cciUv5bs.s 			page 6


 165:src/kernel/mmanagement/buddy_allocator.cpp ****     /* chk if address is valid */
 166:src/kernel/mmanagement/buddy_allocator.cpp ****     if( ((uint64)chunk & (BLOCK_SIZE - 1)) || chunk < start_address ) return nullptr;
 125              		.loc 1 166 5
 126              		.loc 1 166 24 is_stmt 0
 127 0090 B7170000 		li	a5,4096
 128 0094 9387F7FF 		addi	a5,a5,-1
 129 0098 B3F7F500 		and	a5,a1,a5
 130              		.loc 1 166 5
 131 009c 63960702 		bne	a5,zero,.L11
 132              		.loc 1 166 55 discriminator 2
 133 00a0 83370500 		ld	a5,0(a0)
 134              		.loc 1 166 44 discriminator 2
 135 00a4 63E6F502 		bgtu	a5,a1,.L12
 167:src/kernel/mmanagement/buddy_allocator.cpp ****     return (mmeta_t*)( (uint64)chunk + (BLOCK_SIZE << (chunk->level - 1)) ) ;
 136              		.loc 1 167 5 is_stmt 1
 137              		.loc 1 167 63 is_stmt 0
 138 00a8 03C50501 		lbu	a0,16(a1)
 139              	.LVL7:
 140              		.loc 1 167 69
 141 00ac 9B07F5FF 		addiw	a5,a0,-1
 142              		.loc 1 167 52
 143 00b0 37150000 		li	a0,4096
 144 00b4 3315F500 		sll	a0,a0,a5
 145              		.loc 1 167 38
 146 00b8 3385A500 		add	a0,a1,a0
 147              	.L9:
 168:src/kernel/mmanagement/buddy_allocator.cpp **** }
 148              		.loc 1 168 1
 149 00bc 03348100 		ld	s0,8(sp)
 150              		.cfi_remember_state
 151              		.cfi_restore 8
 152              		.cfi_def_cfa 2, 16
 153 00c0 13010101 		addi	sp,sp,16
 154              		.cfi_def_cfa_offset 0
 155 00c4 67800000 		jr	ra
 156              	.LVL8:
 157              	.L11:
 158              		.cfi_restore_state
 166:src/kernel/mmanagement/buddy_allocator.cpp ****     return (mmeta_t*)( (uint64)chunk + (BLOCK_SIZE << (chunk->level - 1)) ) ;
 159              		.loc 1 166 78
 160 00c8 13050000 		li	a0,0
 161              	.LVL9:
 162 00cc 6FF01FFF 		j	.L9
 163              	.LVL10:
 164              	.L12:
 165 00d0 13050000 		li	a0,0
 166              	.LVL11:
 167 00d4 6FF09FFE 		j	.L9
 168              		.cfi_endproc
 169              	.LFE123:
 171              		.align	2
 172              		.globl	_ZN5Buddy11get_bit_valEm
 174              	_ZN5Buddy11get_bit_valEm:
 175              	.LFB125:
 169:src/kernel/mmanagement/buddy_allocator.cpp **** 
 170:src/kernel/mmanagement/buddy_allocator.cpp **** mmeta_t* Buddy::merge_ip(mmeta_t* chunk){
 171:src/kernel/mmanagement/buddy_allocator.cpp ****     size_t bi = BLOCK_IND(chunk);
GAS LISTING /tmp/cciUv5bs.s 			page 7


 172:src/kernel/mmanagement/buddy_allocator.cpp ****     size_t budd_bi;
 173:src/kernel/mmanagement/buddy_allocator.cpp **** 
 174:src/kernel/mmanagement/buddy_allocator.cpp ****     budd_bi = bi ^ (1ULL << chunk->level);
 175:src/kernel/mmanagement/buddy_allocator.cpp **** 
 176:src/kernel/mmanagement/buddy_allocator.cpp ****     if(!get_bit_val(bi)) return nullptr;
 177:src/kernel/mmanagement/buddy_allocator.cpp ****     /* get buddy address */
 178:src/kernel/mmanagement/buddy_allocator.cpp ****     mmeta_t* budd_addr = (mmeta_t*)((budd_bi << BLOCK_SIZE_BIT_LEN) + (size_t)start_address);
 179:src/kernel/mmanagement/buddy_allocator.cpp ****     if(budd_addr->level != chunk->level) return nullptr;
 180:src/kernel/mmanagement/buddy_allocator.cpp ****    
 181:src/kernel/mmanagement/buddy_allocator.cpp ****     int code = remove_from_list(budd_addr->level, budd_addr);    
 182:src/kernel/mmanagement/buddy_allocator.cpp ****     if(code < 0) return nullptr;
 183:src/kernel/mmanagement/buddy_allocator.cpp **** 
 184:src/kernel/mmanagement/buddy_allocator.cpp ****     if(budd_bi < bi){
 185:src/kernel/mmanagement/buddy_allocator.cpp ****         swap(bi, budd_bi);
 186:src/kernel/mmanagement/buddy_allocator.cpp ****         swap(chunk, budd_addr);
 187:src/kernel/mmanagement/buddy_allocator.cpp ****     }
 188:src/kernel/mmanagement/buddy_allocator.cpp ****     clr_bit(budd_bi);
 189:src/kernel/mmanagement/buddy_allocator.cpp ****     set_bit(bi);
 190:src/kernel/mmanagement/buddy_allocator.cpp ****     chunk->level = chunk->level + 1;
 191:src/kernel/mmanagement/buddy_allocator.cpp **** 
 192:src/kernel/mmanagement/buddy_allocator.cpp ****     return chunk;
 193:src/kernel/mmanagement/buddy_allocator.cpp **** }
 194:src/kernel/mmanagement/buddy_allocator.cpp **** 
 195:src/kernel/mmanagement/buddy_allocator.cpp **** bool Buddy::get_bit_val(size_t index){
 176              		.loc 1 195 38 is_stmt 1
 177              		.cfi_startproc
 178              	.LVL12:
 179 00d8 130101FF 		addi	sp,sp,-16
 180              		.cfi_def_cfa_offset 16
 181 00dc 23348100 		sd	s0,8(sp)
 182              		.cfi_offset 8, -8
 183 00e0 13040101 		addi	s0,sp,16
 184              		.cfi_def_cfa 8, 0
 196:src/kernel/mmanagement/buddy_allocator.cpp ****     size_t entry = index >> 3;
 185              		.loc 1 196 5
 186              		.loc 1 196 12 is_stmt 0
 187 00e4 13D73500 		srli	a4,a1,3
 188              	.LVL13:
 197:src/kernel/mmanagement/buddy_allocator.cpp ****     return fmap[entry] & ( 1 << (index & 7) );
 189              		.loc 1 197 5 is_stmt 1
 190              		.loc 1 197 12 is_stmt 0
 191 00e8 83378501 		ld	a5,24(a0)
 192              		.loc 1 197 22
 193 00ec B387E700 		add	a5,a5,a4
 194 00f0 03C50700 		lbu	a0,0(a5)
 195              	.LVL14:
 196              		.loc 1 197 40
 197 00f4 93F57500 		andi	a1,a1,7
 198              	.LVL15:
 199              		.loc 1 197 45
 200 00f8 3B55B540 		sraw	a0,a0,a1
 198:src/kernel/mmanagement/buddy_allocator.cpp **** }
 201              		.loc 1 198 1
 202 00fc 13751500 		andi	a0,a0,1
 203 0100 03348100 		ld	s0,8(sp)
 204              		.cfi_restore 8
 205              		.cfi_def_cfa 2, 16
GAS LISTING /tmp/cciUv5bs.s 			page 8


 206 0104 13010101 		addi	sp,sp,16
 207              		.cfi_def_cfa_offset 0
 208 0108 67800000 		jr	ra
 209              		.cfi_endproc
 210              	.LFE125:
 212              		.align	2
 213              		.globl	_ZN5Buddy11add_to_listEhP7mmeta_t
 215              	_ZN5Buddy11add_to_listEhP7mmeta_t:
 216              	.LFB120:
 114:src/kernel/mmanagement/buddy_allocator.cpp ****     if(level > max_level) return -4;
 217              		.loc 1 114 52 is_stmt 1
 218              		.cfi_startproc
 219              	.LVL16:
 115:src/kernel/mmanagement/buddy_allocator.cpp ****     if( !chunk || ((uint64)chunk & (BLOCK_SIZE - 1)) ) return -1;
 220              		.loc 1 115 5
 115:src/kernel/mmanagement/buddy_allocator.cpp ****     if( !chunk || ((uint64)chunk & (BLOCK_SIZE - 1)) ) return -1;
 221              		.loc 1 115 16 is_stmt 0
 222 010c 83378500 		ld	a5,8(a0)
 115:src/kernel/mmanagement/buddy_allocator.cpp ****     if( !chunk || ((uint64)chunk & (BLOCK_SIZE - 1)) ) return -1;
 223              		.loc 1 115 5
 224 0110 63EEB70A 		bgtu	a1,a5,.L19
 116:src/kernel/mmanagement/buddy_allocator.cpp ****     if(!get_bit_val(BLOCK_IND(chunk))) return -2;
 225              		.loc 1 116 5 is_stmt 1
 226 0114 6300060C 		beq	a2,zero,.L20
 116:src/kernel/mmanagement/buddy_allocator.cpp ****     if(!get_bit_val(BLOCK_IND(chunk))) return -2;
 227              		.loc 1 116 34 is_stmt 0 discriminator 2
 228 0118 B7170000 		li	a5,4096
 229 011c 9387F7FF 		addi	a5,a5,-1
 230 0120 B377F600 		and	a5,a2,a5
 116:src/kernel/mmanagement/buddy_allocator.cpp ****     if(!get_bit_val(BLOCK_IND(chunk))) return -2;
 231              		.loc 1 116 16 discriminator 2
 232 0124 639C070A 		bne	a5,zero,.L21
 114:src/kernel/mmanagement/buddy_allocator.cpp ****     if(level > max_level) return -4;
 233              		.loc 1 114 52
 234 0128 130101FD 		addi	sp,sp,-48
 235              		.cfi_def_cfa_offset 48
 236 012c 23341102 		sd	ra,40(sp)
 237 0130 23308102 		sd	s0,32(sp)
 238 0134 233C9100 		sd	s1,24(sp)
 239 0138 23382101 		sd	s2,16(sp)
 240 013c 23343101 		sd	s3,8(sp)
 241              		.cfi_offset 1, -8
 242              		.cfi_offset 8, -16
 243              		.cfi_offset 9, -24
 244              		.cfi_offset 18, -32
 245              		.cfi_offset 19, -40
 246 0140 13040103 		addi	s0,sp,48
 247              		.cfi_def_cfa 8, 0
 248 0144 93040600 		mv	s1,a2
 249 0148 93890500 		mv	s3,a1
 250 014c 13090500 		mv	s2,a0
 117:src/kernel/mmanagement/buddy_allocator.cpp ****     
 251              		.loc 1 117 5 is_stmt 1
 117:src/kernel/mmanagement/buddy_allocator.cpp ****     
 252              		.loc 1 117 21 is_stmt 0
 253 0150 83370500 		ld	a5,0(a0)
 254 0154 B307F640 		sub	a5,a2,a5
GAS LISTING /tmp/cciUv5bs.s 			page 9


 117:src/kernel/mmanagement/buddy_allocator.cpp ****     
 255              		.loc 1 117 20
 256 0158 97050000 		lbu	a1,_ZN5Buddy18BLOCK_SIZE_BIT_LENE
 256      83C50500 
 257              	.LVL17:
 258 0160 B3D5B700 		srl	a1,a5,a1
 259 0164 97000000 		call	_ZN5Buddy11get_bit_valEm
 259      E7800000 
 260              	.LVL18:
 117:src/kernel/mmanagement/buddy_allocator.cpp ****     
 261              		.loc 1 117 5
 262 016c 630C0506 		beq	a0,zero,.L22
 120:src/kernel/mmanagement/buddy_allocator.cpp ****     chunk -> prev = 0;
 263              		.loc 1 120 5 is_stmt 1
 120:src/kernel/mmanagement/buddy_allocator.cpp ****     chunk -> prev = 0;
 264              		.loc 1 120 21 is_stmt 0
 265 0170 83370901 		ld	a5,16(s2)
 120:src/kernel/mmanagement/buddy_allocator.cpp ****     chunk -> prev = 0;
 266              		.loc 1 120 30
 267 0174 13973900 		slli	a4,s3,3
 268 0178 B387E700 		add	a5,a5,a4
 269 017c 83B70700 		ld	a5,0(a5)
 120:src/kernel/mmanagement/buddy_allocator.cpp ****     chunk -> prev = 0;
 270              		.loc 1 120 19
 271 0180 23B0F400 		sd	a5,0(s1)
 121:src/kernel/mmanagement/buddy_allocator.cpp ****     chunk -> level = level;
 272              		.loc 1 121 5 is_stmt 1
 121:src/kernel/mmanagement/buddy_allocator.cpp ****     chunk -> level = level;
 273              		.loc 1 121 19 is_stmt 0
 274 0184 23B40400 		sd	zero,8(s1)
 122:src/kernel/mmanagement/buddy_allocator.cpp ****     if(lhp[level]) lhp[level] -> prev = chunk;
 275              		.loc 1 122 5 is_stmt 1
 122:src/kernel/mmanagement/buddy_allocator.cpp ****     if(lhp[level]) lhp[level] -> prev = chunk;
 276              		.loc 1 122 20 is_stmt 0
 277 0188 23883401 		sb	s3,16(s1)
 123:src/kernel/mmanagement/buddy_allocator.cpp ****     lhp[level] = chunk;
 278              		.loc 1 123 5 is_stmt 1
 123:src/kernel/mmanagement/buddy_allocator.cpp ****     lhp[level] = chunk;
 279              		.loc 1 123 8 is_stmt 0
 280 018c 83370901 		ld	a5,16(s2)
 123:src/kernel/mmanagement/buddy_allocator.cpp ****     lhp[level] = chunk;
 281              		.loc 1 123 17
 282 0190 B387E700 		add	a5,a5,a4
 283 0194 83B70700 		ld	a5,0(a5)
 123:src/kernel/mmanagement/buddy_allocator.cpp ****     lhp[level] = chunk;
 284              		.loc 1 123 5
 285 0198 63840700 		beq	a5,zero,.L18
 123:src/kernel/mmanagement/buddy_allocator.cpp ****     lhp[level] = chunk;
 286              		.loc 1 123 20 is_stmt 1 discriminator 1
 123:src/kernel/mmanagement/buddy_allocator.cpp ****     lhp[level] = chunk;
 287              		.loc 1 123 39 is_stmt 0 discriminator 1
 288 019c 23B49700 		sd	s1,8(a5)
 289              	.L18:
 124:src/kernel/mmanagement/buddy_allocator.cpp **** 
 290              		.loc 1 124 5 is_stmt 1
 291 01a0 83370901 		ld	a5,16(s2)
 124:src/kernel/mmanagement/buddy_allocator.cpp **** 
GAS LISTING /tmp/cciUv5bs.s 			page 10


 292              		.loc 1 124 14 is_stmt 0
 293 01a4 B387E700 		add	a5,a5,a4
 124:src/kernel/mmanagement/buddy_allocator.cpp **** 
 294              		.loc 1 124 16
 295 01a8 23B09700 		sd	s1,0(a5)
 126:src/kernel/mmanagement/buddy_allocator.cpp **** }
 296              		.loc 1 126 5 is_stmt 1
 126:src/kernel/mmanagement/buddy_allocator.cpp **** }
 297              		.loc 1 126 12 is_stmt 0
 298 01ac 13050000 		li	a0,0
 299              	.L17:
 127:src/kernel/mmanagement/buddy_allocator.cpp **** 
 300              		.loc 1 127 1
 301 01b0 83308102 		ld	ra,40(sp)
 302              		.cfi_restore 1
 303 01b4 03340102 		ld	s0,32(sp)
 304              		.cfi_restore 8
 305              		.cfi_def_cfa 2, 48
 306 01b8 83348101 		ld	s1,24(sp)
 307              		.cfi_restore 9
 308              	.LVL19:
 309 01bc 03390101 		ld	s2,16(sp)
 310              		.cfi_restore 18
 311              	.LVL20:
 312 01c0 83398100 		ld	s3,8(sp)
 313              		.cfi_restore 19
 314 01c4 13010103 		addi	sp,sp,48
 315              		.cfi_def_cfa_offset 0
 316 01c8 67800000 		jr	ra
 317              	.LVL21:
 318              	.L19:
 115:src/kernel/mmanagement/buddy_allocator.cpp ****     if( !chunk || ((uint64)chunk & (BLOCK_SIZE - 1)) ) return -1;
 319              		.loc 1 115 35
 320 01cc 1305C0FF 		li	a0,-4
 321              	.LVL22:
 322 01d0 67800000 		ret
 323              	.LVL23:
 324              	.L20:
 116:src/kernel/mmanagement/buddy_allocator.cpp ****     if(!get_bit_val(BLOCK_IND(chunk))) return -2;
 325              		.loc 1 116 64
 326 01d4 1305F0FF 		li	a0,-1
 327              	.LVL24:
 328 01d8 67800000 		ret
 329              	.LVL25:
 330              	.L21:
 331 01dc 1305F0FF 		li	a0,-1
 332              	.LVL26:
 127:src/kernel/mmanagement/buddy_allocator.cpp **** 
 333              		.loc 1 127 1
 334 01e0 67800000 		ret
 335              	.LVL27:
 336              	.L22:
 337              		.cfi_def_cfa_register 8
 338              		.cfi_offset 1, -8
 339              		.cfi_offset 8, -16
 340              		.cfi_offset 9, -24
 341              		.cfi_offset 18, -32
GAS LISTING /tmp/cciUv5bs.s 			page 11


 342              		.cfi_offset 19, -40
 117:src/kernel/mmanagement/buddy_allocator.cpp ****     
 343              		.loc 1 117 48
 344 01e4 1305E0FF 		li	a0,-2
 345 01e8 6FF09FFC 		j	.L17
 346              		.cfi_endproc
 347              	.LFE120:
 349              		.align	2
 350              		.globl	_ZN5BuddyC2EPvh
 352              	_ZN5BuddyC2EPvh:
 353              	.LFB114:
   8:src/kernel/mmanagement/buddy_allocator.cpp ****     start_address = saddr;
 354              		.loc 1 8 1 is_stmt 1
 355              		.cfi_startproc
 356              	.LVL28:
 357 01ec 130101FD 		addi	sp,sp,-48
 358              		.cfi_def_cfa_offset 48
 359 01f0 23341102 		sd	ra,40(sp)
 360 01f4 23308102 		sd	s0,32(sp)
 361 01f8 233C9100 		sd	s1,24(sp)
 362 01fc 23382101 		sd	s2,16(sp)
 363 0200 23343101 		sd	s3,8(sp)
 364              		.cfi_offset 1, -8
 365              		.cfi_offset 8, -16
 366              		.cfi_offset 9, -24
 367              		.cfi_offset 18, -32
 368              		.cfi_offset 19, -40
 369 0204 13040103 		addi	s0,sp,48
 370              		.cfi_def_cfa 8, 0
 371 0208 93040500 		mv	s1,a0
 372 020c 93090600 		mv	s3,a2
 373              	.LBB17:
   9:src/kernel/mmanagement/buddy_allocator.cpp ****     max_level = level;
 374              		.loc 1 9 5
   9:src/kernel/mmanagement/buddy_allocator.cpp ****     max_level = level;
 375              		.loc 1 9 19 is_stmt 0
 376 0210 2330B500 		sd	a1,0(a0)
  10:src/kernel/mmanagement/buddy_allocator.cpp ****     
 377              		.loc 1 10 5 is_stmt 1
  10:src/kernel/mmanagement/buddy_allocator.cpp ****     
 378              		.loc 1 10 15 is_stmt 0
 379 0214 23B4C400 		sd	a2,8(s1)
  13:src/kernel/mmanagement/buddy_allocator.cpp ****     uint64 y = (uint64)saddr + (BLOCK_SIZE << max_level);
 380              		.loc 1 13 5 is_stmt 1
 381              	.LBB18:
 382              	.LBB19:
 383              		.file 2 "src/kernel/mmanagement/../../../h/../h/noalloc_allocator.hpp"
   1:src/kernel/mmanagement/../../../h/../h/noalloc_allocator.hpp **** #ifndef NOALLOC_ALLOCATOR_H
   2:src/kernel/mmanagement/../../../h/../h/noalloc_allocator.hpp **** #define NOALLOC_ALLOCATOR_H
   3:src/kernel/mmanagement/../../../h/../h/noalloc_allocator.hpp **** 
   4:src/kernel/mmanagement/../../../h/../h/noalloc_allocator.hpp **** #include"../lib/hw.h"
   5:src/kernel/mmanagement/../../../h/../h/noalloc_allocator.hpp **** 
   6:src/kernel/mmanagement/../../../h/../h/noalloc_allocator.hpp **** /* CHECK THIS !!!!!
   7:src/kernel/mmanagement/../../../h/../h/noalloc_allocator.hpp **** *
   8:src/kernel/mmanagement/../../../h/../h/noalloc_allocator.hpp **** * No existing allocator operator functions;
   9:src/kernel/mmanagement/../../../h/../h/noalloc_allocator.hpp **** * Used for allocating allocator objects;
  10:src/kernel/mmanagement/../../../h/../h/noalloc_allocator.hpp **** * Allocators are not deallocated so operator delete is not needed;
GAS LISTING /tmp/cciUv5bs.s 			page 12


  11:src/kernel/mmanagement/../../../h/../h/noalloc_allocator.hpp **** *
  12:src/kernel/mmanagement/../../../h/../h/noalloc_allocator.hpp **** */
  13:src/kernel/mmanagement/../../../h/../h/noalloc_allocator.hpp **** #define __NOALLOC_OPERATORS__ \
  14:src/kernel/mmanagement/../../../h/../h/noalloc_allocator.hpp **** void* operator new(size_t sz){ return NoAlloc::mem_alloc(sz); } \
  15:src/kernel/mmanagement/../../../h/../h/noalloc_allocator.hpp **** void* operator new[](size_t sz){ return NoAlloc::mem_alloc(sz); } \
  16:src/kernel/mmanagement/../../../h/../h/noalloc_allocator.hpp **** void operator delete(void* ptr){  } \
  17:src/kernel/mmanagement/../../../h/../h/noalloc_allocator.hpp **** void operator delete[](void* ptr){  }
  18:src/kernel/mmanagement/../../../h/../h/noalloc_allocator.hpp **** 
  19:src/kernel/mmanagement/../../../h/../h/noalloc_allocator.hpp **** 
  20:src/kernel/mmanagement/../../../h/../h/noalloc_allocator.hpp **** /* 
  21:src/kernel/mmanagement/../../../h/../h/noalloc_allocator.hpp **** * Continual allocation used when there is no allocator;
  22:src/kernel/mmanagement/../../../h/../h/noalloc_allocator.hpp **** * -----USED FOR ALLOCATING ALLOCATOR OBJECTS-----
  23:src/kernel/mmanagement/../../../h/../h/noalloc_allocator.hpp **** */
  24:src/kernel/mmanagement/../../../h/../h/noalloc_allocator.hpp **** class NoAlloc{ /* singleton */ 
  25:src/kernel/mmanagement/../../../h/../h/noalloc_allocator.hpp ****     static bool working;
  26:src/kernel/mmanagement/../../../h/../h/noalloc_allocator.hpp ****     static void* NOALLOC_END_ADDR; 
  27:src/kernel/mmanagement/../../../h/../h/noalloc_allocator.hpp **** public:
  28:src/kernel/mmanagement/../../../h/../h/noalloc_allocator.hpp ****     static void init(); /* set NOALLOC END ADDR = HEAP START ADDR */
  29:src/kernel/mmanagement/../../../h/../h/noalloc_allocator.hpp ****     static void* getEndAddress(){ return NOALLOC_END_ADDR; } /* get end address of allocated object
 384              		.loc 2 29 35
 385              		.loc 2 29 42 is_stmt 0
 386 0218 97070000 		lla	a5,_ZN7NoAlloc16NOALLOC_END_ADDRE
 386      93870700 
 387 0220 03B50700 		ld	a0,0(a5)
 388              	.LVL29:
 389              	.LBE19:
 390              	.LBE18:
  14:src/kernel/mmanagement/buddy_allocator.cpp ****     void* ind = NoAlloc::mem_alloc(y - x);
 391              		.loc 1 14 5 is_stmt 1
  14:src/kernel/mmanagement/buddy_allocator.cpp ****     void* ind = NoAlloc::mem_alloc(y - x);
 392              		.loc 1 14 44 is_stmt 0
 393 0224 B7170000 		li	a5,4096
 394 0228 B397C700 		sll	a5,a5,a2
  14:src/kernel/mmanagement/buddy_allocator.cpp ****     void* ind = NoAlloc::mem_alloc(y - x);
 395              		.loc 1 14 12
 396 022c B387B700 		add	a5,a5,a1
 397              	.LVL30:
  15:src/kernel/mmanagement/buddy_allocator.cpp **** 
 398              		.loc 1 15 5 is_stmt 1
  15:src/kernel/mmanagement/buddy_allocator.cpp **** 
 399              		.loc 1 15 35 is_stmt 0
 400 0230 3385A740 		sub	a0,a5,a0
 401              	.LVL31:
 402 0234 97000000 		call	_ZN7NoAlloc9mem_allocEm
 402      E7800000 
 403              	.LVL32:
  17:src/kernel/mmanagement/buddy_allocator.cpp **** 
 404              		.loc 1 17 5 is_stmt 1
  20:src/kernel/mmanagement/buddy_allocator.cpp ****     fmap = (uchar*)NoAlloc::mem_alloc(x);
 405              		.loc 1 20 5
  20:src/kernel/mmanagement/buddy_allocator.cpp ****     fmap = (uchar*)NoAlloc::mem_alloc(x);
 406              		.loc 1 20 34 is_stmt 0
 407 023c 17090000 		lbu	s2,_ZN5Buddy18BLOCK_SIZE_BIT_LENE
 407      03490900 
 408 0244 9B07D9FF 		addiw	a5,s2,-3
  20:src/kernel/mmanagement/buddy_allocator.cpp ****     fmap = (uchar*)NoAlloc::mem_alloc(x);
 409              		.loc 1 20 11
GAS LISTING /tmp/cciUv5bs.s 			page 13


 410 0248 13091000 		li	s2,1
 411 024c 3B19F900 		sllw	s2,s2,a5
 412              	.LVL33:
  21:src/kernel/mmanagement/buddy_allocator.cpp ****     if(!fmap) { /* panic */ }
 413              		.loc 1 21 5 is_stmt 1
  21:src/kernel/mmanagement/buddy_allocator.cpp ****     if(!fmap) { /* panic */ }
 414              		.loc 1 21 38 is_stmt 0
 415 0250 13050900 		mv	a0,s2
 416 0254 97000000 		call	_ZN7NoAlloc9mem_allocEm
 416      E7800000 
 417              	.LVL34:
  21:src/kernel/mmanagement/buddy_allocator.cpp ****     if(!fmap) { /* panic */ }
 418              		.loc 1 21 10
 419 025c 23BCA400 		sd	a0,24(s1)
  22:src/kernel/mmanagement/buddy_allocator.cpp ****     for(uint64 i = 0; i < x; i++) fmap[i] = 0;
 420              		.loc 1 22 5 is_stmt 1
  23:src/kernel/mmanagement/buddy_allocator.cpp ****     
 421              		.loc 1 23 5
 422              	.LVL35:
 423              	.LBB20:
  23:src/kernel/mmanagement/buddy_allocator.cpp ****     
 424              		.loc 1 23 16 is_stmt 0
 425 0260 93070000 		li	a5,0
 426              	.LVL36:
 427              	.L29:
  23:src/kernel/mmanagement/buddy_allocator.cpp ****     
 428              		.loc 1 23 25 discriminator 3
 429 0264 63FC2701 		bgeu	a5,s2,.L28
  23:src/kernel/mmanagement/buddy_allocator.cpp ****     
 430              		.loc 1 23 35 is_stmt 1 discriminator 2
 431 0268 03B78401 		ld	a4,24(s1)
  23:src/kernel/mmanagement/buddy_allocator.cpp ****     
 432              		.loc 1 23 41 is_stmt 0 discriminator 2
 433 026c 3307F700 		add	a4,a4,a5
  23:src/kernel/mmanagement/buddy_allocator.cpp ****     
 434              		.loc 1 23 43 discriminator 2
 435 0270 23000700 		sb	zero,0(a4)
  23:src/kernel/mmanagement/buddy_allocator.cpp ****     
 436              		.loc 1 23 5 discriminator 2
 437 0274 93871700 		addi	a5,a5,1
 438              	.LVL37:
 439 0278 6FF0DFFE 		j	.L29
 440              	.L28:
 441              	.LBE20:
  26:src/kernel/mmanagement/buddy_allocator.cpp ****     if(!lhp) { /* panic */ }
 442              		.loc 1 26 5 is_stmt 1
  26:src/kernel/mmanagement/buddy_allocator.cpp ****     if(!lhp) { /* panic */ }
 443              		.loc 1 26 47 is_stmt 0
 444 027c 13851900 		addi	a0,s3,1
  26:src/kernel/mmanagement/buddy_allocator.cpp ****     if(!lhp) { /* panic */ }
 445              		.loc 1 26 40
 446 0280 13153500 		slli	a0,a0,3
 447 0284 97000000 		call	_ZN7NoAlloc9mem_allocEm
 447      E7800000 
 448              	.LVL38:
  26:src/kernel/mmanagement/buddy_allocator.cpp ****     if(!lhp) { /* panic */ }
 449              		.loc 1 26 9
GAS LISTING /tmp/cciUv5bs.s 			page 14


 450 028c 23B8A400 		sd	a0,16(s1)
  27:src/kernel/mmanagement/buddy_allocator.cpp ****     for(uchar i = 0; i < max_level + 1; i++)
 451              		.loc 1 27 5 is_stmt 1
  28:src/kernel/mmanagement/buddy_allocator.cpp ****         lhp[i] = nullptr;
 452              		.loc 1 28 5
 453              	.LVL39:
 454              	.LBB21:
  28:src/kernel/mmanagement/buddy_allocator.cpp ****         lhp[i] = nullptr;
 455              		.loc 1 28 15 is_stmt 0
 456 0290 93070000 		li	a5,0
 457              	.LVL40:
 458              	.L31:
  28:src/kernel/mmanagement/buddy_allocator.cpp ****         lhp[i] = nullptr;
 459              		.loc 1 28 26 discriminator 3
 460 0294 03B78400 		ld	a4,8(s1)
  28:src/kernel/mmanagement/buddy_allocator.cpp ****         lhp[i] = nullptr;
 461              		.loc 1 28 36 discriminator 3
 462 0298 13071700 		addi	a4,a4,1
  28:src/kernel/mmanagement/buddy_allocator.cpp ****         lhp[i] = nullptr;
 463              		.loc 1 28 24 discriminator 3
 464 029c 63F0E702 		bgeu	a5,a4,.L30
  29:src/kernel/mmanagement/buddy_allocator.cpp **** 
 465              		.loc 1 29 9 is_stmt 1 discriminator 2
 466 02a0 03B70401 		ld	a4,16(s1)
  29:src/kernel/mmanagement/buddy_allocator.cpp **** 
 467              		.loc 1 29 14 is_stmt 0 discriminator 2
 468 02a4 93963700 		slli	a3,a5,3
 469 02a8 3307D700 		add	a4,a4,a3
  29:src/kernel/mmanagement/buddy_allocator.cpp **** 
 470              		.loc 1 29 16 discriminator 2
 471 02ac 23300700 		sd	zero,0(a4)
  28:src/kernel/mmanagement/buddy_allocator.cpp ****         lhp[i] = nullptr;
 472              		.loc 1 28 5 discriminator 2
 473 02b0 9B871700 		addiw	a5,a5,1
 474              	.LVL41:
 475 02b4 93F7F70F 		andi	a5,a5,0xff
 476              	.LVL42:
 477 02b8 6FF0DFFD 		j	.L31
 478              	.L30:
 479              	.LBE21:
  33:src/kernel/mmanagement/buddy_allocator.cpp ****     int code = add_to_list(max_level, (mmeta_t*)start_address);
 480              		.loc 1 33 5 is_stmt 1
 481 02bc 03B78401 		ld	a4,24(s1)
  33:src/kernel/mmanagement/buddy_allocator.cpp ****     int code = add_to_list(max_level, (mmeta_t*)start_address);
 482              		.loc 1 33 13 is_stmt 0
 483 02c0 83470700 		lbu	a5,0(a4)
 484              	.LVL43:
 485 02c4 93E71700 		ori	a5,a5,1
 486 02c8 2300F700 		sb	a5,0(a4)
  34:src/kernel/mmanagement/buddy_allocator.cpp ****     if ( code < 0) {
 487              		.loc 1 34 5 is_stmt 1
  34:src/kernel/mmanagement/buddy_allocator.cpp ****     if ( code < 0) {
 488              		.loc 1 34 27 is_stmt 0
 489 02cc 03B60400 		ld	a2,0(s1)
 490 02d0 83C58400 		lbu	a1,8(s1)
 491 02d4 13850400 		mv	a0,s1
 492 02d8 97000000 		call	_ZN5Buddy11add_to_listEhP7mmeta_t
GAS LISTING /tmp/cciUv5bs.s 			page 15


 492      E7800000 
 493              	.LVL44:
 494 02e0 93040500 		mv	s1,a0
 495              	.LVL45:
  35:src/kernel/mmanagement/buddy_allocator.cpp ****         kprintString("addtolist panic: ");
 496              		.loc 1 35 5 is_stmt 1
 497 02e4 63400502 		blt	a0,zero,.L34
 498              	.LVL46:
 499              	.L27:
 500              	.LBE17:
  40:src/kernel/mmanagement/buddy_allocator.cpp **** 
 501              		.loc 1 40 1 is_stmt 0
 502 02e8 83308102 		ld	ra,40(sp)
 503              		.cfi_remember_state
 504              		.cfi_restore 1
 505 02ec 03340102 		ld	s0,32(sp)
 506              		.cfi_restore 8
 507              		.cfi_def_cfa 2, 48
 508 02f0 83348101 		ld	s1,24(sp)
 509              		.cfi_restore 9
 510 02f4 03390101 		ld	s2,16(sp)
 511              		.cfi_restore 18
 512              	.LVL47:
 513 02f8 83398100 		ld	s3,8(sp)
 514              		.cfi_restore 19
 515 02fc 13010103 		addi	sp,sp,48
 516              		.cfi_def_cfa_offset 0
 517 0300 67800000 		jr	ra
 518              	.LVL48:
 519              	.L34:
 520              		.cfi_restore_state
 521              	.LBB22:
  36:src/kernel/mmanagement/buddy_allocator.cpp ****         kprintInt(code, 16);
 522              		.loc 1 36 9 is_stmt 1
  36:src/kernel/mmanagement/buddy_allocator.cpp ****         kprintInt(code, 16);
 523              		.loc 1 36 21 is_stmt 0
 524 0304 17050000 		lla	a0,.LC0
 524      13050500 
 525              	.LVL49:
 526 030c 97000000 		call	_Z12kprintStringPKc
 526      E7800000 
 527              	.LVL50:
  37:src/kernel/mmanagement/buddy_allocator.cpp ****         kprintString("\n");
 528              		.loc 1 37 9 is_stmt 1
  37:src/kernel/mmanagement/buddy_allocator.cpp ****         kprintString("\n");
 529              		.loc 1 37 18 is_stmt 0
 530 0314 13060000 		li	a2,0
 531 0318 93050001 		li	a1,16
 532 031c 13850400 		mv	a0,s1
 533 0320 97000000 		call	_Z9kprintIntmib
 533      E7800000 
 534              	.LVL51:
  38:src/kernel/mmanagement/buddy_allocator.cpp ****     }
 535              		.loc 1 38 9 is_stmt 1
  38:src/kernel/mmanagement/buddy_allocator.cpp ****     }
 536              		.loc 1 38 21 is_stmt 0
 537 0328 17050000 		lla	a0,.LC1
GAS LISTING /tmp/cciUv5bs.s 			page 16


 537      13050500 
 538 0330 97000000 		call	_Z12kprintStringPKc
 538      E7800000 
 539              	.LVL52:
 540              	.LBE22:
  40:src/kernel/mmanagement/buddy_allocator.cpp **** 
 541              		.loc 1 40 1
 542 0338 6FF01FFB 		j	.L27
 543              		.cfi_endproc
 544              	.LFE114:
 546              		.globl	_ZN5BuddyC1EPvh
 547              		.set	_ZN5BuddyC1EPvh,_ZN5BuddyC2EPvh
 548              		.align	2
 549              		.globl	_ZN5Buddy9initalizeEPvh
 551              	_ZN5Buddy9initalizeEPvh:
 552              	.LFB116:
  42:src/kernel/mmanagement/buddy_allocator.cpp ****     BLOCK_SIZE_BIT_LEN = log2(BLOCK_SIZE);
 553              		.loc 1 42 47 is_stmt 1
 554              		.cfi_startproc
 555              	.LVL53:
 556 033c 130101FD 		addi	sp,sp,-48
 557              		.cfi_def_cfa_offset 48
 558 0340 23341102 		sd	ra,40(sp)
 559 0344 23308102 		sd	s0,32(sp)
 560 0348 233C9100 		sd	s1,24(sp)
 561 034c 23382101 		sd	s2,16(sp)
 562 0350 23343101 		sd	s3,8(sp)
 563              		.cfi_offset 1, -8
 564              		.cfi_offset 8, -16
 565              		.cfi_offset 9, -24
 566              		.cfi_offset 18, -32
 567              		.cfi_offset 19, -40
 568 0354 13040103 		addi	s0,sp,48
 569              		.cfi_def_cfa 8, 0
 570 0358 93040500 		mv	s1,a0
 571 035c 13890500 		mv	s2,a1
  43:src/kernel/mmanagement/buddy_allocator.cpp ****     uint64 laa = (uint64)NoAlloc::getEndAddress();
 572              		.loc 1 43 5
  43:src/kernel/mmanagement/buddy_allocator.cpp ****     uint64 laa = (uint64)NoAlloc::getEndAddress();
 573              		.loc 1 43 30 is_stmt 0
 574 0360 37150000 		li	a0,4096
 575              	.LVL54:
 576 0364 97000000 		call	_Z4log2m
 576      E7800000 
 577              	.LVL55:
  43:src/kernel/mmanagement/buddy_allocator.cpp ****     uint64 laa = (uint64)NoAlloc::getEndAddress();
 578              		.loc 1 43 24
 579 036c 97070000 		sb	a0,_ZN5Buddy18BLOCK_SIZE_BIT_LENE,a5
 579      2380A700 
  44:src/kernel/mmanagement/buddy_allocator.cpp ****     if((uint64)saddr < laa + sizeof(Buddy))
 580              		.loc 1 44 5 is_stmt 1
 581              	.LBB23:
 582              	.LBB24:
 583              		.loc 2 29 35
 584              		.loc 2 29 42 is_stmt 0
 585 0374 97070000 		lla	a5,_ZN7NoAlloc16NOALLOC_END_ADDRE
 585      93870700 
GAS LISTING /tmp/cciUv5bs.s 			page 17


 586 037c 83B70700 		ld	a5,0(a5)
 587              	.LVL56:
 588              	.LBE24:
 589              	.LBE23:
  45:src/kernel/mmanagement/buddy_allocator.cpp ****         return 1;
 590              		.loc 1 45 5 is_stmt 1
  45:src/kernel/mmanagement/buddy_allocator.cpp ****         return 1;
 591              		.loc 1 45 28 is_stmt 0
 592 0380 93870702 		addi	a5,a5,32
 593              	.LVL57:
  45:src/kernel/mmanagement/buddy_allocator.cpp ****         return 1;
 594              		.loc 1 45 5
 595 0384 63F2F402 		bgeu	s1,a5,.L40
  46:src/kernel/mmanagement/buddy_allocator.cpp ****     saddr = (void*) blockAlign((uint64)saddr);
 596              		.loc 1 46 16
 597 0388 13051000 		li	a0,1
 598              	.LVL58:
 599              	.L36:
  52:src/kernel/mmanagement/buddy_allocator.cpp **** 
 600              		.loc 1 52 1
 601 038c 83308102 		ld	ra,40(sp)
 602              		.cfi_remember_state
 603              		.cfi_restore 1
 604 0390 03340102 		ld	s0,32(sp)
 605              		.cfi_restore 8
 606              		.cfi_def_cfa 2, 48
 607 0394 83348101 		ld	s1,24(sp)
 608              		.cfi_restore 9
 609              	.LVL59:
 610 0398 03390101 		ld	s2,16(sp)
 611              		.cfi_restore 18
 612 039c 83398100 		ld	s3,8(sp)
 613              		.cfi_restore 19
 614 03a0 13010103 		addi	sp,sp,48
 615              		.cfi_def_cfa_offset 0
 616 03a4 67800000 		jr	ra
 617              	.LVL60:
 618              	.L40:
 619              		.cfi_restore_state
  47:src/kernel/mmanagement/buddy_allocator.cpp ****     buddy = new Buddy(saddr, level);
 620              		.loc 1 47 5 is_stmt 1
 621              	.LBB25:
 622              	.LBB26:
 623              		.file 3 "src/kernel/mmanagement/../../../h/../h/buddy.h"
   1:src/kernel/mmanagement/../../../h/../h/buddy.h **** #ifndef buddy_h
   2:src/kernel/mmanagement/../../../h/../h/buddy.h **** #define buddy_h
   3:src/kernel/mmanagement/../../../h/../h/buddy.h **** 
   4:src/kernel/mmanagement/../../../h/../h/buddy.h **** #include"../h/noalloc_allocator.hpp"
   5:src/kernel/mmanagement/../../../h/../h/buddy.h **** #define BUDDY_LEVEL(num) \
   6:src/kernel/mmanagement/../../../h/../h/buddy.h **** (log2( (( (uint64) num - 1 ) >> log2(Buddy::BLOCK_SIZE)) + 1))
   7:src/kernel/mmanagement/../../../h/../h/buddy.h **** 
   8:src/kernel/mmanagement/../../../h/../h/buddy.h **** struct mmeta_t{
   9:src/kernel/mmanagement/../../../h/../h/buddy.h ****     mmeta_t* next,*prev;
  10:src/kernel/mmanagement/../../../h/../h/buddy.h ****     uchar level;
  11:src/kernel/mmanagement/../../../h/../h/buddy.h **** };
  12:src/kernel/mmanagement/../../../h/../h/buddy.h **** 
  13:src/kernel/mmanagement/../../../h/../h/buddy.h **** class Buddy{
GAS LISTING /tmp/cciUv5bs.s 			page 18


  14:src/kernel/mmanagement/../../../h/../h/buddy.h **** private:
  15:src/kernel/mmanagement/../../../h/../h/buddy.h ****     static uchar BLOCK_SIZE_BIT_LEN;
  16:src/kernel/mmanagement/../../../h/../h/buddy.h ****     /* singleton */
  17:src/kernel/mmanagement/../../../h/../h/buddy.h ****     static Buddy* buddy; 
  18:src/kernel/mmanagement/../../../h/../h/buddy.h ****     /* level is order of two */
  19:src/kernel/mmanagement/../../../h/../h/buddy.h ****     void* start_address; 
  20:src/kernel/mmanagement/../../../h/../h/buddy.h ****     size_t max_level; 
  21:src/kernel/mmanagement/../../../h/../h/buddy.h ****     mmeta_t** lhp;
  22:src/kernel/mmanagement/../../../h/../h/buddy.h ****     uchar* fmap; 
  23:src/kernel/mmanagement/../../../h/../h/buddy.h **** 
  24:src/kernel/mmanagement/../../../h/../h/buddy.h ****     __NOALLOC_OPERATORS__
  25:src/kernel/mmanagement/../../../h/../h/buddy.h ****     
  26:src/kernel/mmanagement/../../../h/../h/buddy.h ****     Buddy(void* saddr, uchar level);
  27:src/kernel/mmanagement/../../../h/../h/buddy.h ****     
  28:src/kernel/mmanagement/../../../h/../h/buddy.h ****     /* remove copy operator and constructor */
  29:src/kernel/mmanagement/../../../h/../h/buddy.h ****     Buddy(const Buddy&) = delete;
  30:src/kernel/mmanagement/../../../h/../h/buddy.h ****     void operator=(const Buddy&) = delete;
  31:src/kernel/mmanagement/../../../h/../h/buddy.h **** 
  32:src/kernel/mmanagement/../../../h/../h/buddy.h ****     /* working with lists */
  33:src/kernel/mmanagement/../../../h/../h/buddy.h ****     mmeta_t* get_from_list(uchar level);
  34:src/kernel/mmanagement/../../../h/../h/buddy.h ****     int add_to_list(uchar level, mmeta_t* chunk);
  35:src/kernel/mmanagement/../../../h/../h/buddy.h ****     int remove_from_list(uchar level, mmeta_t*);
  36:src/kernel/mmanagement/../../../h/../h/buddy.h ****     
  37:src/kernel/mmanagement/../../../h/../h/buddy.h ****     /* working with blocks */
  38:src/kernel/mmanagement/../../../h/../h/buddy.h ****     mmeta_t* split(mmeta_t*);
  39:src/kernel/mmanagement/../../../h/../h/buddy.h ****     mmeta_t* merge_ip(mmeta_t*);
  40:src/kernel/mmanagement/../../../h/../h/buddy.h ****  
  41:src/kernel/mmanagement/../../../h/../h/buddy.h ****     /* working with free map */
  42:src/kernel/mmanagement/../../../h/../h/buddy.h ****     bool get_bit_val(size_t index);
  43:src/kernel/mmanagement/../../../h/../h/buddy.h ****     void set_bit(size_t index);
  44:src/kernel/mmanagement/../../../h/../h/buddy.h ****     void clr_bit(size_t index);
  45:src/kernel/mmanagement/../../../h/../h/buddy.h **** 
  46:src/kernel/mmanagement/../../../h/../h/buddy.h ****     /* utility */
  47:src/kernel/mmanagement/../../../h/../h/buddy.h ****     void* get_buddy_addr(uchar level, void*);
  48:src/kernel/mmanagement/../../../h/../h/buddy.h ****     static uint64 blockAlign(uint64 input){
  49:src/kernel/mmanagement/../../../h/../h/buddy.h ****         return (input + BLOCK_SIZE - 1) & ( (~0ULL) << BLOCK_SIZE_BIT_LEN);
 624              		.loc 3 49 9
 625              		.loc 3 49 36 is_stmt 0
 626 03a8 B7170000 		li	a5,4096
 627 03ac 9387F7FF 		addi	a5,a5,-1
 628 03b0 B384F400 		add	s1,s1,a5
 629              	.LVL61:
 630              		.loc 3 49 53
 631 03b4 9307F0FF 		li	a5,-1
 632 03b8 3395A700 		sll	a0,a5,a0
 633              		.loc 3 49 74
 634 03bc B3F4A400 		and	s1,s1,a0
 635              	.LVL62:
 636              	.LBE26:
 637              	.LBE25:
  48:src/kernel/mmanagement/buddy_allocator.cpp ****     if(!buddy)  return 1;
 638              		.loc 1 48 5 is_stmt 1
 639              	.LBB27:
 640              	.LBB28:
  24:src/kernel/mmanagement/../../../h/../h/buddy.h ****     
 641              		.loc 3 24 5
 642 03c0 13050002 		li	a0,32
GAS LISTING /tmp/cciUv5bs.s 			page 19


 643 03c4 97000000 		call	_ZN7NoAlloc9mem_allocEm
 643      E7800000 
 644              	.LVL63:
 645 03cc 93090500 		mv	s3,a0
 646              	.LVL64:
 647              	.LBE28:
 648              	.LBE27:
  48:src/kernel/mmanagement/buddy_allocator.cpp ****     if(!buddy)  return 1;
 649              		.loc 1 48 35 is_stmt 0
 650 03d0 13060900 		mv	a2,s2
 651 03d4 93850400 		mv	a1,s1
 652 03d8 97000000 		call	_ZN5BuddyC1EPvh
 652      E7800000 
 653              	.LVL65:
  48:src/kernel/mmanagement/buddy_allocator.cpp ****     if(!buddy)  return 1;
 654              		.loc 1 48 11
 655 03e0 97070000 		sd	s3,_ZN5Buddy5buddyE,a5
 655      23B03701 
  49:src/kernel/mmanagement/buddy_allocator.cpp **** 
 656              		.loc 1 49 5 is_stmt 1
 657 03e8 63860900 		beq	s3,zero,.L38
  51:src/kernel/mmanagement/buddy_allocator.cpp **** }
 658              		.loc 1 51 12 is_stmt 0
 659 03ec 13050000 		li	a0,0
 660 03f0 6FF0DFF9 		j	.L36
 661              	.L38:
  49:src/kernel/mmanagement/buddy_allocator.cpp **** 
 662              		.loc 1 49 24
 663 03f4 13051000 		li	a0,1
 664 03f8 6FF05FF9 		j	.L36
 665              		.cfi_endproc
 666              	.LFE116:
 668              		.align	2
 669              		.globl	_ZN5Buddy16remove_from_listEhP7mmeta_t
 671              	_ZN5Buddy16remove_from_listEhP7mmeta_t:
 672              	.LFB122:
 141:src/kernel/mmanagement/buddy_allocator.cpp ****     
 673              		.loc 1 141 57 is_stmt 1
 674              		.cfi_startproc
 675              	.LVL66:
 143:src/kernel/mmanagement/buddy_allocator.cpp ****     if( !chunk || ((uint64)chunk & (BLOCK_SIZE - 1)) ) return -1;
 676              		.loc 1 143 5
 143:src/kernel/mmanagement/buddy_allocator.cpp ****     if( !chunk || ((uint64)chunk & (BLOCK_SIZE - 1)) ) return -1;
 677              		.loc 1 143 16 is_stmt 0
 678 03fc 83378500 		ld	a5,8(a0)
 143:src/kernel/mmanagement/buddy_allocator.cpp ****     if( !chunk || ((uint64)chunk & (BLOCK_SIZE - 1)) ) return -1;
 679              		.loc 1 143 5
 680 0400 63EAB70C 		bgtu	a1,a5,.L45
 144:src/kernel/mmanagement/buddy_allocator.cpp ****     if(!get_bit_val(BLOCK_IND(chunk))) return -2;
 681              		.loc 1 144 5 is_stmt 1
 682 0404 630C060C 		beq	a2,zero,.L46
 144:src/kernel/mmanagement/buddy_allocator.cpp ****     if(!get_bit_val(BLOCK_IND(chunk))) return -2;
 683              		.loc 1 144 34 is_stmt 0 discriminator 2
 684 0408 B7170000 		li	a5,4096
 685 040c 9387F7FF 		addi	a5,a5,-1
 686 0410 B377F600 		and	a5,a2,a5
 144:src/kernel/mmanagement/buddy_allocator.cpp ****     if(!get_bit_val(BLOCK_IND(chunk))) return -2;
GAS LISTING /tmp/cciUv5bs.s 			page 20


 687              		.loc 1 144 16 discriminator 2
 688 0414 6398070C 		bne	a5,zero,.L47
 141:src/kernel/mmanagement/buddy_allocator.cpp ****     
 689              		.loc 1 141 57
 690 0418 130101FD 		addi	sp,sp,-48
 691              		.cfi_def_cfa_offset 48
 692 041c 23341102 		sd	ra,40(sp)
 693 0420 23308102 		sd	s0,32(sp)
 694 0424 233C9100 		sd	s1,24(sp)
 695 0428 23382101 		sd	s2,16(sp)
 696 042c 23343101 		sd	s3,8(sp)
 697              		.cfi_offset 1, -8
 698              		.cfi_offset 8, -16
 699              		.cfi_offset 9, -24
 700              		.cfi_offset 18, -32
 701              		.cfi_offset 19, -40
 702 0430 13040103 		addi	s0,sp,48
 703              		.cfi_def_cfa 8, 0
 704 0434 93040600 		mv	s1,a2
 705 0438 93890500 		mv	s3,a1
 706 043c 13090500 		mv	s2,a0
 145:src/kernel/mmanagement/buddy_allocator.cpp ****     if(!(chunk->level == level)) return -3;
 707              		.loc 1 145 5 is_stmt 1
 145:src/kernel/mmanagement/buddy_allocator.cpp ****     if(!(chunk->level == level)) return -3;
 708              		.loc 1 145 21 is_stmt 0
 709 0440 83370500 		ld	a5,0(a0)
 710 0444 B307F640 		sub	a5,a2,a5
 145:src/kernel/mmanagement/buddy_allocator.cpp ****     if(!(chunk->level == level)) return -3;
 711              		.loc 1 145 20
 712 0448 97050000 		lbu	a1,_ZN5Buddy18BLOCK_SIZE_BIT_LENE
 712      83C50500 
 713              	.LVL67:
 714 0450 B3D5B700 		srl	a1,a5,a1
 715 0454 97000000 		call	_ZN5Buddy11get_bit_valEm
 715      E7800000 
 716              	.LVL68:
 145:src/kernel/mmanagement/buddy_allocator.cpp ****     if(!(chunk->level == level)) return -3;
 717              		.loc 1 145 5
 718 045c 63080508 		beq	a0,zero,.L48
 146:src/kernel/mmanagement/buddy_allocator.cpp **** 
 719              		.loc 1 146 5 is_stmt 1
 146:src/kernel/mmanagement/buddy_allocator.cpp **** 
 720              		.loc 1 146 17 is_stmt 0
 721 0460 83C70401 		lbu	a5,16(s1)
 146:src/kernel/mmanagement/buddy_allocator.cpp **** 
 722              		.loc 1 146 5
 723 0464 63983709 		bne	a5,s3,.L49
 149:src/kernel/mmanagement/buddy_allocator.cpp ****         get_from_list(level);
 724              		.loc 1 149 5 is_stmt 1
 149:src/kernel/mmanagement/buddy_allocator.cpp ****         get_from_list(level);
 725              		.loc 1 149 8 is_stmt 0
 726 0468 83370901 		ld	a5,16(s2)
 149:src/kernel/mmanagement/buddy_allocator.cpp ****         get_from_list(level);
 727              		.loc 1 149 17
 728 046c 13973900 		slli	a4,s3,3
 729 0470 B387E700 		add	a5,a5,a4
 730 0474 83B70700 		ld	a5,0(a5)
GAS LISTING /tmp/cciUv5bs.s 			page 21


 149:src/kernel/mmanagement/buddy_allocator.cpp ****         get_from_list(level);
 731              		.loc 1 149 5
 732 0478 63829704 		beq	a5,s1,.L54
 155:src/kernel/mmanagement/buddy_allocator.cpp ****     /* if it isn't last */
 733              		.loc 1 155 5 is_stmt 1
 155:src/kernel/mmanagement/buddy_allocator.cpp ****     /* if it isn't last */
 734              		.loc 1 155 12 is_stmt 0
 735 047c 03B78400 		ld	a4,8(s1)
 155:src/kernel/mmanagement/buddy_allocator.cpp ****     /* if it isn't last */
 736              		.loc 1 155 32
 737 0480 83B70400 		ld	a5,0(s1)
 155:src/kernel/mmanagement/buddy_allocator.cpp ****     /* if it isn't last */
 738              		.loc 1 155 23
 739 0484 2330F700 		sd	a5,0(a4)
 157:src/kernel/mmanagement/buddy_allocator.cpp ****     chunk->next = chunk->prev = 0;
 740              		.loc 1 157 5 is_stmt 1
 741 0488 63860700 		beq	a5,zero,.L44
 157:src/kernel/mmanagement/buddy_allocator.cpp ****     chunk->next = chunk->prev = 0;
 742              		.loc 1 157 21 discriminator 1
 157:src/kernel/mmanagement/buddy_allocator.cpp ****     chunk->next = chunk->prev = 0;
 743              		.loc 1 157 48 is_stmt 0 discriminator 1
 744 048c 03B78400 		ld	a4,8(s1)
 157:src/kernel/mmanagement/buddy_allocator.cpp ****     chunk->next = chunk->prev = 0;
 745              		.loc 1 157 39 discriminator 1
 746 0490 23B4E700 		sd	a4,8(a5)
 747              	.L44:
 158:src/kernel/mmanagement/buddy_allocator.cpp ****     return 0;
 748              		.loc 1 158 5 is_stmt 1
 158:src/kernel/mmanagement/buddy_allocator.cpp ****     return 0;
 749              		.loc 1 158 31 is_stmt 0
 750 0494 23B40400 		sd	zero,8(s1)
 158:src/kernel/mmanagement/buddy_allocator.cpp ****     return 0;
 751              		.loc 1 158 17
 752 0498 23B00400 		sd	zero,0(s1)
 159:src/kernel/mmanagement/buddy_allocator.cpp **** 
 753              		.loc 1 159 5 is_stmt 1
 159:src/kernel/mmanagement/buddy_allocator.cpp **** 
 754              		.loc 1 159 12 is_stmt 0
 755 049c 13050000 		li	a0,0
 756              	.L42:
 161:src/kernel/mmanagement/buddy_allocator.cpp **** 
 757              		.loc 1 161 1
 758 04a0 83308102 		ld	ra,40(sp)
 759              		.cfi_remember_state
 760              		.cfi_restore 1
 761 04a4 03340102 		ld	s0,32(sp)
 762              		.cfi_restore 8
 763              		.cfi_def_cfa 2, 48
 764 04a8 83348101 		ld	s1,24(sp)
 765              		.cfi_restore 9
 766              	.LVL69:
 767 04ac 03390101 		ld	s2,16(sp)
 768              		.cfi_restore 18
 769              	.LVL70:
 770 04b0 83398100 		ld	s3,8(sp)
 771              		.cfi_restore 19
 772 04b4 13010103 		addi	sp,sp,48
GAS LISTING /tmp/cciUv5bs.s 			page 22


 773              		.cfi_def_cfa_offset 0
 774 04b8 67800000 		jr	ra
 775              	.LVL71:
 776              	.L54:
 777              		.cfi_restore_state
 150:src/kernel/mmanagement/buddy_allocator.cpp ****         return 0;
 778              		.loc 1 150 9 is_stmt 1
 150:src/kernel/mmanagement/buddy_allocator.cpp ****         return 0;
 779              		.loc 1 150 22 is_stmt 0
 780 04bc 93850900 		mv	a1,s3
 781 04c0 13050900 		mv	a0,s2
 782 04c4 97000000 		call	_ZN5Buddy13get_from_listEh
 782      E7800000 
 783              	.LVL72:
 151:src/kernel/mmanagement/buddy_allocator.cpp ****     }
 784              		.loc 1 151 9 is_stmt 1
 151:src/kernel/mmanagement/buddy_allocator.cpp ****     }
 785              		.loc 1 151 16 is_stmt 0
 786 04cc 13050000 		li	a0,0
 787 04d0 6FF01FFD 		j	.L42
 788              	.LVL73:
 789              	.L45:
 790              		.cfi_def_cfa_register 2
 791              		.cfi_restore 1
 792              		.cfi_restore 8
 793              		.cfi_restore 9
 794              		.cfi_restore 18
 795              		.cfi_restore 19
 143:src/kernel/mmanagement/buddy_allocator.cpp ****     if( !chunk || ((uint64)chunk & (BLOCK_SIZE - 1)) ) return -1;
 796              		.loc 1 143 35
 797 04d4 1305C0FF 		li	a0,-4
 798              	.LVL74:
 799 04d8 67800000 		ret
 800              	.LVL75:
 801              	.L46:
 144:src/kernel/mmanagement/buddy_allocator.cpp ****     if(!get_bit_val(BLOCK_IND(chunk))) return -2;
 802              		.loc 1 144 64
 803 04dc 1305F0FF 		li	a0,-1
 804              	.LVL76:
 805 04e0 67800000 		ret
 806              	.LVL77:
 807              	.L47:
 808 04e4 1305F0FF 		li	a0,-1
 809              	.LVL78:
 161:src/kernel/mmanagement/buddy_allocator.cpp **** 
 810              		.loc 1 161 1
 811 04e8 67800000 		ret
 812              	.LVL79:
 813              	.L48:
 814              		.cfi_def_cfa_register 8
 815              		.cfi_offset 1, -8
 816              		.cfi_offset 8, -16
 817              		.cfi_offset 9, -24
 818              		.cfi_offset 18, -32
 819              		.cfi_offset 19, -40
 145:src/kernel/mmanagement/buddy_allocator.cpp ****     if(!(chunk->level == level)) return -3;
 820              		.loc 1 145 48
GAS LISTING /tmp/cciUv5bs.s 			page 23


 821 04ec 1305E0FF 		li	a0,-2
 822 04f0 6FF01FFB 		j	.L42
 823              	.L49:
 146:src/kernel/mmanagement/buddy_allocator.cpp **** 
 824              		.loc 1 146 42
 825 04f4 1305D0FF 		li	a0,-3
 826 04f8 6FF09FFA 		j	.L42
 827              		.cfi_endproc
 828              	.LFE122:
 830              		.align	2
 831              		.globl	_ZN5Buddy7set_bitEm
 833              	_ZN5Buddy7set_bitEm:
 834              	.LFB126:
 199:src/kernel/mmanagement/buddy_allocator.cpp **** 
 200:src/kernel/mmanagement/buddy_allocator.cpp **** void Buddy::set_bit(size_t index){
 835              		.loc 1 200 34 is_stmt 1
 836              		.cfi_startproc
 837              	.LVL80:
 838 04fc 130101FF 		addi	sp,sp,-16
 839              		.cfi_def_cfa_offset 16
 840 0500 23348100 		sd	s0,8(sp)
 841              		.cfi_offset 8, -8
 842 0504 13040101 		addi	s0,sp,16
 843              		.cfi_def_cfa 8, 0
 201:src/kernel/mmanagement/buddy_allocator.cpp ****     size_t entry = index >> 3;
 844              		.loc 1 201 5
 845              		.loc 1 201 12 is_stmt 0
 846 0508 13D73500 		srli	a4,a1,3
 847              	.LVL81:
 202:src/kernel/mmanagement/buddy_allocator.cpp ****     fmap[entry] |= ( 1 << (index & 7) );
 848              		.loc 1 202 5 is_stmt 1
 849 050c 83378501 		ld	a5,24(a0)
 850              		.loc 1 202 17 is_stmt 0
 851 0510 B387E700 		add	a5,a5,a4
 852              		.loc 1 202 34
 853 0514 13F77500 		andi	a4,a1,7
 854              	.LVL82:
 855              		.loc 1 202 24
 856 0518 93051000 		li	a1,1
 857              	.LVL83:
 858 051c BB95E500 		sllw	a1,a1,a4
 859              		.loc 1 202 17
 860 0520 03C70700 		lbu	a4,0(a5)
 861 0524 B3E5E500 		or	a1,a1,a4
 862 0528 2380B700 		sb	a1,0(a5)
 203:src/kernel/mmanagement/buddy_allocator.cpp **** }
 863              		.loc 1 203 1
 864 052c 03348100 		ld	s0,8(sp)
 865              		.cfi_restore 8
 866              		.cfi_def_cfa 2, 16
 867 0530 13010101 		addi	sp,sp,16
 868              		.cfi_def_cfa_offset 0
 869 0534 67800000 		jr	ra
 870              		.cfi_endproc
 871              	.LFE126:
 873              		.align	2
 874              		.globl	_ZN5Buddy7clr_bitEm
GAS LISTING /tmp/cciUv5bs.s 			page 24


 876              	_ZN5Buddy7clr_bitEm:
 877              	.LFB127:
 204:src/kernel/mmanagement/buddy_allocator.cpp **** 
 205:src/kernel/mmanagement/buddy_allocator.cpp **** void Buddy::clr_bit(size_t index){
 878              		.loc 1 205 34 is_stmt 1
 879              		.cfi_startproc
 880              	.LVL84:
 881 0538 130101FF 		addi	sp,sp,-16
 882              		.cfi_def_cfa_offset 16
 883 053c 23348100 		sd	s0,8(sp)
 884              		.cfi_offset 8, -8
 885 0540 13040101 		addi	s0,sp,16
 886              		.cfi_def_cfa 8, 0
 206:src/kernel/mmanagement/buddy_allocator.cpp ****     size_t entry = index >> 3;
 887              		.loc 1 206 5
 888              		.loc 1 206 12 is_stmt 0
 889 0544 93D73500 		srli	a5,a1,3
 890              	.LVL85:
 207:src/kernel/mmanagement/buddy_allocator.cpp ****     fmap[entry] &= ~( 1 << (index & 7) );
 891              		.loc 1 207 5 is_stmt 1
 892 0548 03378501 		ld	a4,24(a0)
 893              		.loc 1 207 17 is_stmt 0
 894 054c 3307F700 		add	a4,a4,a5
 895              		.loc 1 207 35
 896 0550 93F57500 		andi	a1,a1,7
 897              	.LVL86:
 898              		.loc 1 207 25
 899 0554 93071000 		li	a5,1
 900              	.LVL87:
 901 0558 BB97B700 		sllw	a5,a5,a1
 902              		.loc 1 207 17
 903 055c 93C7F7FF 		not	a5,a5
 904 0560 83460700 		lbu	a3,0(a4)
 905 0564 B3F7D700 		and	a5,a5,a3
 906 0568 2300F700 		sb	a5,0(a4)
 208:src/kernel/mmanagement/buddy_allocator.cpp **** }
 907              		.loc 1 208 1
 908 056c 03348100 		ld	s0,8(sp)
 909              		.cfi_restore 8
 910              		.cfi_def_cfa 2, 16
 911 0570 13010101 		addi	sp,sp,16
 912              		.cfi_def_cfa_offset 0
 913 0574 67800000 		jr	ra
 914              		.cfi_endproc
 915              	.LFE127:
 917              		.align	2
 918              		.globl	_ZN5Buddy9mem_allocEh
 920              	_ZN5Buddy9mem_allocEh:
 921              	.LFB118:
  59:src/kernel/mmanagement/buddy_allocator.cpp ****     
 922              		.loc 1 59 36 is_stmt 1
 923              		.cfi_startproc
 924              	.LVL88:
 925 0578 130101FC 		addi	sp,sp,-64
 926              		.cfi_def_cfa_offset 64
 927 057c 233C1102 		sd	ra,56(sp)
 928 0580 23388102 		sd	s0,48(sp)
GAS LISTING /tmp/cciUv5bs.s 			page 25


 929 0584 23349102 		sd	s1,40(sp)
 930 0588 23302103 		sd	s2,32(sp)
 931 058c 233C3101 		sd	s3,24(sp)
 932 0590 23384101 		sd	s4,16(sp)
 933 0594 23345101 		sd	s5,8(sp)
 934              		.cfi_offset 1, -8
 935              		.cfi_offset 8, -16
 936              		.cfi_offset 9, -24
 937              		.cfi_offset 18, -32
 938              		.cfi_offset 19, -40
 939              		.cfi_offset 20, -48
 940              		.cfi_offset 21, -56
 941 0598 13040104 		addi	s0,sp,64
 942              		.cfi_def_cfa 8, 0
  61:src/kernel/mmanagement/buddy_allocator.cpp ****     uchar i = level;
 943              		.loc 1 61 5
  61:src/kernel/mmanagement/buddy_allocator.cpp ****     uchar i = level;
 944              		.loc 1 61 16 is_stmt 0
 945 059c 83368500 		ld	a3,8(a0)
  61:src/kernel/mmanagement/buddy_allocator.cpp ****     uchar i = level;
 946              		.loc 1 61 5
 947 05a0 63ECB60E 		bgtu	a1,a3,.L65
  62:src/kernel/mmanagement/buddy_allocator.cpp ****     /*  iterate through levels until we find not-empty list 
 948              		.loc 1 62 11
 949 05a4 93840500 		mv	s1,a1
 950              	.L62:
 951              	.LVL89:
  66:src/kernel/mmanagement/buddy_allocator.cpp ****         if(lhp[i]) break;
 952              		.loc 1 66 5 is_stmt 1 discriminator 1
  66:src/kernel/mmanagement/buddy_allocator.cpp ****         if(lhp[i]) break;
 953              		.loc 1 66 13 is_stmt 0 discriminator 1
 954 05a8 13860400 		mv	a2,s1
 955 05ac 63E29602 		bltu	a3,s1,.L61
  67:src/kernel/mmanagement/buddy_allocator.cpp ****     if(i > max_level) return nullptr;
 956              		.loc 1 67 9 is_stmt 1
  67:src/kernel/mmanagement/buddy_allocator.cpp ****     if(i > max_level) return nullptr;
 957              		.loc 1 67 12 is_stmt 0
 958 05b0 83370501 		ld	a5,16(a0)
  67:src/kernel/mmanagement/buddy_allocator.cpp ****     if(i > max_level) return nullptr;
 959              		.loc 1 67 17
 960 05b4 13973400 		slli	a4,s1,3
 961 05b8 B387E700 		add	a5,a5,a4
 962 05bc 83B70700 		ld	a5,0(a5)
  67:src/kernel/mmanagement/buddy_allocator.cpp ****     if(i > max_level) return nullptr;
 963              		.loc 1 67 9
 964 05c0 63980700 		bne	a5,zero,.L61
  66:src/kernel/mmanagement/buddy_allocator.cpp ****         if(lhp[i]) break;
 965              		.loc 1 66 5
 966 05c4 9B841400 		addiw	s1,s1,1
 967              	.LVL90:
 968 05c8 93F4F40F 		andi	s1,s1,0xff
 969              	.LVL91:
 970 05cc 6FF0DFFD 		j	.L62
 971              	.L61:
  68:src/kernel/mmanagement/buddy_allocator.cpp ****     mmeta_t* chunk = get_from_list(i);
 972              		.loc 1 68 5 is_stmt 1
 973 05d0 63E8C60C 		bltu	a3,a2,.L66
GAS LISTING /tmp/cciUv5bs.s 			page 26


 974 05d4 938A0500 		mv	s5,a1
 975 05d8 13090500 		mv	s2,a0
  69:src/kernel/mmanagement/buddy_allocator.cpp **** 
 976              		.loc 1 69 5
  69:src/kernel/mmanagement/buddy_allocator.cpp **** 
 977              		.loc 1 69 35 is_stmt 0
 978 05dc 93850400 		mv	a1,s1
 979              	.LVL92:
 980 05e0 97000000 		call	_ZN5Buddy13get_from_listEh
 980      E7800000 
 981              	.LVL93:
 982 05e8 93090500 		mv	s3,a0
 983              	.LVL94:
 984              	.L64:
  72:src/kernel/mmanagement/buddy_allocator.cpp ****         mmeta_t* t = split(chunk);
 985              		.loc 1 72 5 is_stmt 1 discriminator 2
 986              	.LBB29:
  72:src/kernel/mmanagement/buddy_allocator.cpp ****         mmeta_t* t = split(chunk);
 987              		.loc 1 72 12 is_stmt 0 discriminator 2
 988 05ec 63F29A06 		bleu	s1,s5,.L63
 989              	.LBB30:
  73:src/kernel/mmanagement/buddy_allocator.cpp ****         set_bit(BLOCK_IND(t));
 990              		.loc 1 73 9 is_stmt 1 discriminator 1
  73:src/kernel/mmanagement/buddy_allocator.cpp ****         set_bit(BLOCK_IND(t));
 991              		.loc 1 73 27 is_stmt 0 discriminator 1
 992 05f0 93850900 		mv	a1,s3
 993 05f4 13050900 		mv	a0,s2
 994 05f8 97000000 		call	_ZN5Buddy5splitEP7mmeta_t
 994      E7800000 
 995              	.LVL95:
 996 0600 130A0500 		mv	s4,a0
 997              	.LVL96:
  74:src/kernel/mmanagement/buddy_allocator.cpp ****         add_to_list(i-1, t);
 998              		.loc 1 74 9 is_stmt 1 discriminator 1
  74:src/kernel/mmanagement/buddy_allocator.cpp ****         add_to_list(i-1, t);
 999              		.loc 1 74 17 is_stmt 0 discriminator 1
 1000 0604 83370900 		ld	a5,0(s2)
 1001 0608 B307F540 		sub	a5,a0,a5
  74:src/kernel/mmanagement/buddy_allocator.cpp ****         add_to_list(i-1, t);
 1002              		.loc 1 74 16 discriminator 1
 1003 060c 97050000 		lbu	a1,_ZN5Buddy18BLOCK_SIZE_BIT_LENE
 1003      83C50500 
 1004 0614 B3D5B700 		srl	a1,a5,a1
 1005 0618 13050900 		mv	a0,s2
 1006              	.LVL97:
 1007 061c 97000000 		call	_ZN5Buddy7set_bitEm
 1007      E7800000 
 1008              	.LVL98:
  75:src/kernel/mmanagement/buddy_allocator.cpp ****         chunk->level--;
 1009              		.loc 1 75 9 is_stmt 1 discriminator 1
  75:src/kernel/mmanagement/buddy_allocator.cpp ****         chunk->level--;
 1010              		.loc 1 75 20 is_stmt 0 discriminator 1
 1011 0624 9B84F4FF 		addiw	s1,s1,-1
 1012              	.LVL99:
 1013 0628 93F4F40F 		andi	s1,s1,0xff
 1014 062c 13060A00 		mv	a2,s4
 1015 0630 93850400 		mv	a1,s1
GAS LISTING /tmp/cciUv5bs.s 			page 27


 1016 0634 13050900 		mv	a0,s2
 1017 0638 97000000 		call	_ZN5Buddy11add_to_listEhP7mmeta_t
 1017      E7800000 
 1018              	.LVL100:
  76:src/kernel/mmanagement/buddy_allocator.cpp ****     }
 1019              		.loc 1 76 9 is_stmt 1 discriminator 1
  76:src/kernel/mmanagement/buddy_allocator.cpp ****     }
 1020              		.loc 1 76 16 is_stmt 0 discriminator 1
 1021 0640 83C70901 		lbu	a5,16(s3)
  76:src/kernel/mmanagement/buddy_allocator.cpp ****     }
 1022              		.loc 1 76 21 discriminator 1
 1023 0644 9B87F7FF 		addiw	a5,a5,-1
 1024 0648 2388F900 		sb	a5,16(s3)
 1025              	.LVL101:
 1026              	.LBE30:
  72:src/kernel/mmanagement/buddy_allocator.cpp ****         mmeta_t* t = split(chunk);
 1027              		.loc 1 72 5 discriminator 1
 1028 064c 6FF01FFA 		j	.L64
 1029              	.LVL102:
 1030              	.L63:
 1031              	.LBE29:
  79:src/kernel/mmanagement/buddy_allocator.cpp ****     return chunk;
 1032              		.loc 1 79 5 is_stmt 1
  79:src/kernel/mmanagement/buddy_allocator.cpp ****     return chunk;
 1033              		.loc 1 79 13 is_stmt 0
 1034 0650 83370900 		ld	a5,0(s2)
 1035 0654 B387F940 		sub	a5,s3,a5
  79:src/kernel/mmanagement/buddy_allocator.cpp ****     return chunk;
 1036              		.loc 1 79 12
 1037 0658 97050000 		lbu	a1,_ZN5Buddy18BLOCK_SIZE_BIT_LENE
 1037      83C50500 
 1038 0660 B3D5B700 		srl	a1,a5,a1
 1039 0664 13050900 		mv	a0,s2
 1040 0668 97000000 		call	_ZN5Buddy7clr_bitEm
 1040      E7800000 
 1041              	.LVL103:
  80:src/kernel/mmanagement/buddy_allocator.cpp **** }
 1042              		.loc 1 80 5 is_stmt 1
 1043              	.L59:
  81:src/kernel/mmanagement/buddy_allocator.cpp **** 
 1044              		.loc 1 81 1 is_stmt 0
 1045 0670 13850900 		mv	a0,s3
 1046 0674 83308103 		ld	ra,56(sp)
 1047              		.cfi_remember_state
 1048              		.cfi_restore 1
 1049 0678 03340103 		ld	s0,48(sp)
 1050              		.cfi_restore 8
 1051              		.cfi_def_cfa 2, 64
 1052 067c 83348102 		ld	s1,40(sp)
 1053              		.cfi_restore 9
 1054 0680 03390102 		ld	s2,32(sp)
 1055              		.cfi_restore 18
 1056 0684 83398101 		ld	s3,24(sp)
 1057              		.cfi_restore 19
 1058 0688 033A0101 		ld	s4,16(sp)
 1059              		.cfi_restore 20
 1060 068c 833A8100 		ld	s5,8(sp)
GAS LISTING /tmp/cciUv5bs.s 			page 28


 1061              		.cfi_restore 21
 1062 0690 13010104 		addi	sp,sp,64
 1063              		.cfi_def_cfa_offset 0
 1064 0694 67800000 		jr	ra
 1065              	.LVL104:
 1066              	.L65:
 1067              		.cfi_restore_state
  61:src/kernel/mmanagement/buddy_allocator.cpp ****     uchar i = level;
 1068              		.loc 1 61 34
 1069 0698 93090000 		li	s3,0
 1070 069c 6FF05FFD 		j	.L59
 1071              	.LVL105:
 1072              	.L66:
  68:src/kernel/mmanagement/buddy_allocator.cpp ****     mmeta_t* chunk = get_from_list(i);
 1073              		.loc 1 68 30
 1074 06a0 93090000 		li	s3,0
 1075 06a4 6FF0DFFC 		j	.L59
 1076              		.cfi_endproc
 1077              	.LFE118:
 1079              		.align	2
 1080              		.globl	_Z3kmiv
 1082              	_Z3kmiv:
 1083              	.LFB128:
 209:src/kernel/mmanagement/buddy_allocator.cpp **** 
 210:src/kernel/mmanagement/buddy_allocator.cpp **** int kmi(){
 1084              		.loc 1 210 10 is_stmt 1
 1085              		.cfi_startproc
 1086 06a8 130101FE 		addi	sp,sp,-32
 1087              		.cfi_def_cfa_offset 32
 1088 06ac 233C1100 		sd	ra,24(sp)
 1089 06b0 23388100 		sd	s0,16(sp)
 1090 06b4 23349100 		sd	s1,8(sp)
 1091 06b8 23302101 		sd	s2,0(sp)
 1092              		.cfi_offset 1, -8
 1093              		.cfi_offset 8, -16
 1094              		.cfi_offset 9, -24
 1095              		.cfi_offset 18, -32
 1096 06bc 13040102 		addi	s0,sp,32
 1097              		.cfi_def_cfa 8, 0
 211:src/kernel/mmanagement/buddy_allocator.cpp ****     /* start of reserved memory for buddy allocator */
 212:src/kernel/mmanagement/buddy_allocator.cpp ****     void* buddy_mem_start = (void*)( 
 1098              		.loc 1 212 5
 1099              	.LBB31:
 1100              	.LBB32:
 1101              		.loc 2 29 35
 1102              		.loc 2 29 42 is_stmt 0
 1103 06c0 97070000 		lla	a5,_ZN7NoAlloc16NOALLOC_END_ADDRE
 1103      93870700 
 1104 06c8 03B90700 		ld	s2,0(a5)
 1105              	.LBE32:
 1106              	.LBE31:
 213:src/kernel/mmanagement/buddy_allocator.cpp ****         (uint64)NoAlloc::getEndAddress() + sizeof(Buddy) ) ;
 1107              		.loc 1 213 42
 1108 06cc 13090902 		addi	s2,s2,32
 1109              	.LVL106:
 214:src/kernel/mmanagement/buddy_allocator.cpp **** 
 215:src/kernel/mmanagement/buddy_allocator.cpp ****     size_t buddy_mem_size = ((uint64)HEAP_END_ADDR - (uint64)buddy_mem_start) >> 3;
GAS LISTING /tmp/cciUv5bs.s 			page 29


 1110              		.loc 1 215 5 is_stmt 1
 1111              		.loc 1 215 52 is_stmt 0
 1112 06d0 97070000 		lla	a5,HEAP_END_ADDR
 1112      93870700 
 1113 06d8 03B50700 		ld	a0,0(a5)
 1114 06dc 33052541 		sub	a0,a0,s2
 1115              		.loc 1 215 12
 1116 06e0 13553500 		srli	a0,a0,3
 1117              	.LVL107:
 216:src/kernel/mmanagement/buddy_allocator.cpp ****     if(!buddy_mem_size) return 2;
 1118              		.loc 1 216 5 is_stmt 1
 1119 06e4 63060506 		beq	a0,zero,.L70
 217:src/kernel/mmanagement/buddy_allocator.cpp ****     buddy_mem_size = ( (buddy_mem_size-1) >> log2(Buddy::BLOCK_SIZE) ) + 1;
 1120              		.loc 1 217 5
 1121              		.loc 1 217 39 is_stmt 0
 1122 06e8 9304F5FF 		addi	s1,a0,-1
 1123              		.loc 1 217 50
 1124 06ec 37150000 		li	a0,4096
 1125              	.LVL108:
 1126 06f0 97000000 		call	_Z4log2m
 1126      E7800000 
 1127              	.LVL109:
 1128              		.loc 1 217 43
 1129 06f8 33D5A400 		srl	a0,s1,a0
 1130              	.LVL110:
 218:src/kernel/mmanagement/buddy_allocator.cpp ****     uchar level = log2(closest2pow(buddy_mem_size));
 1131              		.loc 1 218 5 is_stmt 1
 1132              		.loc 1 218 23 is_stmt 0
 1133 06fc 13051500 		addi	a0,a0,1
 1134              	.LVL111:
 1135 0700 97000000 		call	_Z11closest2powm
 1135      E7800000 
 1136              	.LVL112:
 1137 0708 97000000 		call	_Z4log2m
 1137      E7800000 
 1138              	.LVL113:
 219:src/kernel/mmanagement/buddy_allocator.cpp ****     
 220:src/kernel/mmanagement/buddy_allocator.cpp ****     int ret = Buddy::initalize(buddy_mem_start, level);
 1139              		.loc 1 220 5 is_stmt 1
 1140              		.loc 1 220 31 is_stmt 0
 1141 0710 93050500 		mv	a1,a0
 1142 0714 13050900 		mv	a0,s2
 1143              	.LVL114:
 1144 0718 97000000 		call	_ZN5Buddy9initalizeEPvh
 1144      E7800000 
 1145              	.LVL115:
 1146 0720 93040500 		mv	s1,a0
 1147              	.LVL116:
 221:src/kernel/mmanagement/buddy_allocator.cpp ****     if(!ret) SlabAllocator::getInstance();
 1148              		.loc 1 221 5 is_stmt 1
 1149 0724 63000502 		beq	a0,zero,.L72
 1150              	.LVL117:
 1151              	.L69:
 222:src/kernel/mmanagement/buddy_allocator.cpp ****     return ret;
 223:src/kernel/mmanagement/buddy_allocator.cpp **** }
 1152              		.loc 1 223 1 is_stmt 0
 1153 0728 13850400 		mv	a0,s1
GAS LISTING /tmp/cciUv5bs.s 			page 30


 1154 072c 83308101 		ld	ra,24(sp)
 1155              		.cfi_remember_state
 1156              		.cfi_restore 1
 1157 0730 03340101 		ld	s0,16(sp)
 1158              		.cfi_restore 8
 1159              		.cfi_def_cfa 2, 32
 1160 0734 83348100 		ld	s1,8(sp)
 1161              		.cfi_restore 9
 1162 0738 03390100 		ld	s2,0(sp)
 1163              		.cfi_restore 18
 1164              	.LVL118:
 1165 073c 13010102 		addi	sp,sp,32
 1166              		.cfi_def_cfa_offset 0
 1167 0740 67800000 		jr	ra
 1168              	.LVL119:
 1169              	.L72:
 1170              		.cfi_restore_state
 221:src/kernel/mmanagement/buddy_allocator.cpp ****     if(!ret) SlabAllocator::getInstance();
 1171              		.loc 1 221 14 is_stmt 1 discriminator 1
 221:src/kernel/mmanagement/buddy_allocator.cpp ****     if(!ret) SlabAllocator::getInstance();
 1172              		.loc 1 221 41 is_stmt 0 discriminator 1
 1173 0744 97000000 		call	_ZN13SlabAllocator11getInstanceEv
 1173      E7800000 
 1174              	.LVL120:
 1175 074c 6FF0DFFD 		j	.L69
 1176              	.LVL121:
 1177              	.L70:
 216:src/kernel/mmanagement/buddy_allocator.cpp ****     buddy_mem_size = ( (buddy_mem_size-1) >> log2(Buddy::BLOCK_SIZE) ) + 1;
 1178              		.loc 1 216 32
 1179 0750 93042000 		li	s1,2
 1180 0754 6FF05FFD 		j	.L69
 1181              		.cfi_endproc
 1182              	.LFE128:
 1184              		.align	2
 1185              		.globl	_ZN5Buddy8print_beEm
 1187              	_ZN5Buddy8print_beEm:
 1188              	.LFB129:
 224:src/kernel/mmanagement/buddy_allocator.cpp **** 
 225:src/kernel/mmanagement/buddy_allocator.cpp **** void Buddy::print_be(size_t index){
 1189              		.loc 1 225 35 is_stmt 1
 1190              		.cfi_startproc
 1191              	.LVL122:
 1192 0758 130101FE 		addi	sp,sp,-32
 1193              		.cfi_def_cfa_offset 32
 1194 075c 233C1100 		sd	ra,24(sp)
 1195 0760 23388100 		sd	s0,16(sp)
 1196 0764 23349100 		sd	s1,8(sp)
 1197 0768 23302101 		sd	s2,0(sp)
 1198              		.cfi_offset 1, -8
 1199              		.cfi_offset 8, -16
 1200              		.cfi_offset 9, -24
 1201              		.cfi_offset 18, -32
 1202 076c 13040102 		addi	s0,sp,32
 1203              		.cfi_def_cfa 8, 0
 1204 0770 13090500 		mv	s2,a0
 1205 0774 93840500 		mv	s1,a1
 226:src/kernel/mmanagement/buddy_allocator.cpp ****     kprintString("blocks["); kprintInt( index, 10); kprintString("]: ");
GAS LISTING /tmp/cciUv5bs.s 			page 31


 1206              		.loc 1 226 5
 1207              		.loc 1 226 17 is_stmt 0
 1208 0778 17050000 		lla	a0,.LC2
 1208      13050500 
 1209              	.LVL123:
 1210 0780 97000000 		call	_Z12kprintStringPKc
 1210      E7800000 
 1211              	.LVL124:
 1212              		.loc 1 226 30 is_stmt 1
 1213              		.loc 1 226 39 is_stmt 0
 1214 0788 13060000 		li	a2,0
 1215 078c 9305A000 		li	a1,10
 1216 0790 13850400 		mv	a0,s1
 1217 0794 97000000 		call	_Z9kprintIntmib
 1217      E7800000 
 1218              	.LVL125:
 1219              		.loc 1 226 53 is_stmt 1
 1220              		.loc 1 226 65 is_stmt 0
 1221 079c 17050000 		lla	a0,.LC3
 1221      13050500 
 1222 07a4 97000000 		call	_Z12kprintStringPKc
 1222      E7800000 
 1223              	.LVL126:
 227:src/kernel/mmanagement/buddy_allocator.cpp ****     bool bit = get_bit_val(index);
 1224              		.loc 1 227 5 is_stmt 1
 1225              		.loc 1 227 27 is_stmt 0
 1226 07ac 93850400 		mv	a1,s1
 1227 07b0 13050900 		mv	a0,s2
 1228 07b4 97000000 		call	_ZN5Buddy11get_bit_valEm
 1228      E7800000 
 1229              	.LVL127:
 228:src/kernel/mmanagement/buddy_allocator.cpp ****     if(bit)
 1230              		.loc 1 228 5 is_stmt 1
 1231 07bc 63060502 		beq	a0,zero,.L74
 229:src/kernel/mmanagement/buddy_allocator.cpp ****         kprintString("FREE");
 1232              		.loc 1 229 9
 1233              		.loc 1 229 21 is_stmt 0
 1234 07c0 17050000 		lla	a0,.LC4
 1234      13050500 
 1235              	.LVL128:
 1236 07c8 97000000 		call	_Z12kprintStringPKc
 1236      E7800000 
 1237              	.LVL129:
 1238              	.L73:
 230:src/kernel/mmanagement/buddy_allocator.cpp ****     else
 231:src/kernel/mmanagement/buddy_allocator.cpp ****         kprintString("ALLOC");
 232:src/kernel/mmanagement/buddy_allocator.cpp **** }
 1239              		.loc 1 232 1
 1240 07d0 83308101 		ld	ra,24(sp)
 1241              		.cfi_remember_state
 1242              		.cfi_restore 1
 1243 07d4 03340101 		ld	s0,16(sp)
 1244              		.cfi_restore 8
 1245              		.cfi_def_cfa 2, 32
 1246 07d8 83348100 		ld	s1,8(sp)
 1247              		.cfi_restore 9
 1248              	.LVL130:
GAS LISTING /tmp/cciUv5bs.s 			page 32


 1249 07dc 03390100 		ld	s2,0(sp)
 1250              		.cfi_restore 18
 1251              	.LVL131:
 1252 07e0 13010102 		addi	sp,sp,32
 1253              		.cfi_def_cfa_offset 0
 1254 07e4 67800000 		jr	ra
 1255              	.LVL132:
 1256              	.L74:
 1257              		.cfi_restore_state
 231:src/kernel/mmanagement/buddy_allocator.cpp **** }
 1258              		.loc 1 231 9 is_stmt 1
 231:src/kernel/mmanagement/buddy_allocator.cpp **** }
 1259              		.loc 1 231 21 is_stmt 0
 1260 07e8 17050000 		lla	a0,.LC5
 1260      13050500 
 1261              	.LVL133:
 1262 07f0 97000000 		call	_Z12kprintStringPKc
 1262      E7800000 
 1263              	.LVL134:
 1264              		.loc 1 232 1
 1265 07f8 6FF09FFD 		j	.L73
 1266              		.cfi_endproc
 1267              	.LFE129:
 1269              		.align	2
 1270              		.globl	_ZN5Buddy12status_printEb
 1272              	_ZN5Buddy12status_printEb:
 1273              	.LFB130:
 233:src/kernel/mmanagement/buddy_allocator.cpp **** 
 234:src/kernel/mmanagement/buddy_allocator.cpp **** void Buddy::status_print(bool f){
 1274              		.loc 1 234 33 is_stmt 1
 1275              		.cfi_startproc
 1276              	.LVL135:
 1277 07fc 130101FD 		addi	sp,sp,-48
 1278              		.cfi_def_cfa_offset 48
 1279 0800 23341102 		sd	ra,40(sp)
 1280 0804 23308102 		sd	s0,32(sp)
 1281 0808 233C9100 		sd	s1,24(sp)
 1282 080c 23382101 		sd	s2,16(sp)
 1283 0810 23343101 		sd	s3,8(sp)
 1284 0814 23304101 		sd	s4,0(sp)
 1285              		.cfi_offset 1, -8
 1286              		.cfi_offset 8, -16
 1287              		.cfi_offset 9, -24
 1288              		.cfi_offset 18, -32
 1289              		.cfi_offset 19, -40
 1290              		.cfi_offset 20, -48
 1291 0818 13040103 		addi	s0,sp,48
 1292              		.cfi_def_cfa 8, 0
 235:src/kernel/mmanagement/buddy_allocator.cpp ****     if(!buddy){
 1293              		.loc 1 235 5
 1294              		.loc 1 235 8 is_stmt 0
 1295 081c 97070000 		lla	a5,_ZN5Buddy5buddyE
 1295      93870700 
 1296 0824 83B70700 		ld	a5,0(a5)
 1297              		.loc 1 235 5
 1298 0828 638C070C 		beq	a5,zero,.L89
 1299 082c 93090500 		mv	s3,a0
GAS LISTING /tmp/cciUv5bs.s 			page 33


 1300 0830 138A0500 		mv	s4,a1
 236:src/kernel/mmanagement/buddy_allocator.cpp ****         kprintString("BUDDY NOT INITALIZED!!!");
 237:src/kernel/mmanagement/buddy_allocator.cpp ****         return;
 238:src/kernel/mmanagement/buddy_allocator.cpp ****     }
 239:src/kernel/mmanagement/buddy_allocator.cpp ****     kprintString("------BUDDY STATUS PRINT------\n");
 1301              		.loc 1 239 5 is_stmt 1
 1302              		.loc 1 239 17 is_stmt 0
 1303 0834 17050000 		lla	a0,.LC7
 1303      13050500 
 1304              	.LVL136:
 1305 083c 97000000 		call	_Z12kprintStringPKc
 1305      E7800000 
 1306              	.LVL137:
 240:src/kernel/mmanagement/buddy_allocator.cpp ****     KCHECKPRINT(buddy);
 1307              		.loc 1 240 5 is_stmt 1
 1308 0844 17050000 		lla	a0,.LC8
 1308      13050500 
 1309 084c 97000000 		call	_Z12kprintStringPKc
 1309      E7800000 
 1310              	.LVL138:
 1311              		.loc 1 240 5
 1312 0854 13060000 		li	a2,0
 1313 0858 93050001 		li	a1,16
 1314 085c 97070000 		lla	a5,_ZN5Buddy5buddyE
 1314      93870700 
 1315 0864 03B50700 		ld	a0,0(a5)
 1316 0868 97000000 		call	_Z9kprintIntmib
 1316      E7800000 
 1317              	.LVL139:
 1318              		.loc 1 240 5
 1319 0870 17050000 		lla	a0,.LC1
 1319      13050500 
 1320 0878 97000000 		call	_Z12kprintStringPKc
 1320      E7800000 
 1321              	.LVL140:
 241:src/kernel/mmanagement/buddy_allocator.cpp ****     KCHECKPRINT(start_address);
 1322              		.loc 1 241 5
 1323 0880 17050000 		lla	a0,.LC9
 1323      13050500 
 1324 0888 97000000 		call	_Z12kprintStringPKc
 1324      E7800000 
 1325              	.LVL141:
 1326              		.loc 1 241 5
 1327 0890 13060000 		li	a2,0
 1328 0894 93050001 		li	a1,16
 1329 0898 03B50900 		ld	a0,0(s3)
 1330 089c 97000000 		call	_Z9kprintIntmib
 1330      E7800000 
 1331              	.LVL142:
 1332              		.loc 1 241 5
 1333 08a4 17050000 		lla	a0,.LC1
 1333      13050500 
 1334 08ac 97000000 		call	_Z12kprintStringPKc
 1334      E7800000 
 1335              	.LVL143:
 242:src/kernel/mmanagement/buddy_allocator.cpp ****     KCHECKPRINT(max_level);
 1336              		.loc 1 242 5
GAS LISTING /tmp/cciUv5bs.s 			page 34


 1337 08b4 17050000 		lla	a0,.LC10
 1337      13050500 
 1338 08bc 97000000 		call	_Z12kprintStringPKc
 1338      E7800000 
 1339              	.LVL144:
 1340              		.loc 1 242 5
 1341 08c4 13060000 		li	a2,0
 1342 08c8 93050001 		li	a1,16
 1343 08cc 03B58900 		ld	a0,8(s3)
 1344 08d0 97000000 		call	_Z9kprintIntmib
 1344      E7800000 
 1345              	.LVL145:
 1346              		.loc 1 242 5
 1347 08d8 17050000 		lla	a0,.LC1
 1347      13050500 
 1348 08e0 97000000 		call	_Z12kprintStringPKc
 1348      E7800000 
 1349              	.LVL146:
 243:src/kernel/mmanagement/buddy_allocator.cpp **** 
 244:src/kernel/mmanagement/buddy_allocator.cpp ****     kprintString("\t------MEMORY META------\n");
 1350              		.loc 1 244 5
 1351              		.loc 1 244 17 is_stmt 0
 1352 08e8 17050000 		lla	a0,.LC11
 1352      13050500 
 1353 08f0 97000000 		call	_Z12kprintStringPKc
 1353      E7800000 
 1354              	.LVL147:
 245:src/kernel/mmanagement/buddy_allocator.cpp ****     for(uchar i = 0; i <= max_level; i++){
 1355              		.loc 1 245 5 is_stmt 1
 1356              	.LBB33:
 1357              		.loc 1 245 15 is_stmt 0
 1358 08f8 13090000 		li	s2,0
 1359 08fc 6F008006 		j	.L84
 1360              	.LVL148:
 1361              	.L89:
 1362              	.LBE33:
 236:src/kernel/mmanagement/buddy_allocator.cpp ****         return;
 1363              		.loc 1 236 9 is_stmt 1
 236:src/kernel/mmanagement/buddy_allocator.cpp ****         return;
 1364              		.loc 1 236 21 is_stmt 0
 1365 0900 17050000 		lla	a0,.LC6
 1365      13050500 
 1366              	.LVL149:
 1367 0908 97000000 		call	_Z12kprintStringPKc
 1367      E7800000 
 1368              	.LVL150:
 237:src/kernel/mmanagement/buddy_allocator.cpp ****     }
 1369              		.loc 1 237 9 is_stmt 1
 1370 0910 6F00C018 		j	.L77
 1371              	.LVL151:
 1372              	.L90:
 1373              	.LBB38:
 1374              	.LBB34:
 1375              	.LBB35:
 246:src/kernel/mmanagement/buddy_allocator.cpp ****         kprintString("\t"); KPRINTARR(LEVEL, i, (lhp[i] != 0));
 247:src/kernel/mmanagement/buddy_allocator.cpp ****         kprintString("\t");
 248:src/kernel/mmanagement/buddy_allocator.cpp ****         for(mmeta_t* curr = lhp[i]; curr; curr = curr->next){
GAS LISTING /tmp/cciUv5bs.s 			page 35


 249:src/kernel/mmanagement/buddy_allocator.cpp ****             kprintInt((uint64)curr, 16);
 250:src/kernel/mmanagement/buddy_allocator.cpp ****             if(curr->next)
 251:src/kernel/mmanagement/buddy_allocator.cpp ****                 kprintString(" -> ");
 1376              		.loc 1 251 17
 1377              		.loc 1 251 29 is_stmt 0
 1378 0914 17050000 		lla	a0,.LC14
 1378      13050500 
 1379 091c 97000000 		call	_Z12kprintStringPKc
 1379      E7800000 
 1380              	.LVL152:
 1381              	.L82:
 248:src/kernel/mmanagement/buddy_allocator.cpp ****             kprintInt((uint64)curr, 16);
 1382              		.loc 1 248 48 discriminator 2
 1383 0924 83B40400 		ld	s1,0(s1)
 1384              	.LVL153:
 1385              	.L83:
 248:src/kernel/mmanagement/buddy_allocator.cpp ****             kprintInt((uint64)curr, 16);
 1386              		.loc 1 248 37 discriminator 1
 1387 0928 63820402 		beq	s1,zero,.L81
 249:src/kernel/mmanagement/buddy_allocator.cpp ****             if(curr->next)
 1388              		.loc 1 249 13 is_stmt 1
 249:src/kernel/mmanagement/buddy_allocator.cpp ****             if(curr->next)
 1389              		.loc 1 249 22 is_stmt 0
 1390 092c 13060000 		li	a2,0
 1391 0930 93050001 		li	a1,16
 1392 0934 13850400 		mv	a0,s1
 1393 0938 97000000 		call	_Z9kprintIntmib
 1393      E7800000 
 1394              	.LVL154:
 250:src/kernel/mmanagement/buddy_allocator.cpp ****                 kprintString(" -> ");
 1395              		.loc 1 250 13 is_stmt 1
 250:src/kernel/mmanagement/buddy_allocator.cpp ****                 kprintString(" -> ");
 1396              		.loc 1 250 22 is_stmt 0
 1397 0940 83B70400 		ld	a5,0(s1)
 250:src/kernel/mmanagement/buddy_allocator.cpp ****                 kprintString(" -> ");
 1398              		.loc 1 250 13
 1399 0944 E39807FC 		bne	a5,zero,.L90
 1400 0948 6FF0DFFD 		j	.L82
 1401              	.L81:
 1402              	.LBE35:
 252:src/kernel/mmanagement/buddy_allocator.cpp ****         }
 253:src/kernel/mmanagement/buddy_allocator.cpp ****         kprintString("\n");
 1403              		.loc 1 253 9 is_stmt 1 discriminator 2
 1404              		.loc 1 253 21 is_stmt 0 discriminator 2
 1405 094c 17050000 		lla	a0,.LC1
 1405      13050500 
 1406 0954 97000000 		call	_Z12kprintStringPKc
 1406      E7800000 
 1407              	.LVL155:
 1408              	.LBE34:
 245:src/kernel/mmanagement/buddy_allocator.cpp ****         kprintString("\t"); KPRINTARR(LEVEL, i, (lhp[i] != 0));
 1409              		.loc 1 245 5 discriminator 2
 1410 095c 1B091900 		addiw	s2,s2,1
 1411              	.LVL156:
 1412 0960 1379F90F 		andi	s2,s2,0xff
 1413              	.LVL157:
 1414              	.L84:
GAS LISTING /tmp/cciUv5bs.s 			page 36


 245:src/kernel/mmanagement/buddy_allocator.cpp ****         kprintString("\t"); KPRINTARR(LEVEL, i, (lhp[i] != 0));
 1415              		.loc 1 245 27 discriminator 1
 1416 0964 83B78900 		ld	a5,8(s3)
 245:src/kernel/mmanagement/buddy_allocator.cpp ****         kprintString("\t"); KPRINTARR(LEVEL, i, (lhp[i] != 0));
 1417              		.loc 1 245 24 discriminator 1
 1418 0968 63EE2709 		bgtu	s2,a5,.L80
 1419              	.LBB37:
 246:src/kernel/mmanagement/buddy_allocator.cpp ****         kprintString("\t");
 1420              		.loc 1 246 9 is_stmt 1
 246:src/kernel/mmanagement/buddy_allocator.cpp ****         kprintString("\t");
 1421              		.loc 1 246 21 is_stmt 0
 1422 096c 17050000 		lla	a0,.LC12
 1422      13050500 
 1423 0974 97000000 		call	_Z12kprintStringPKc
 1423      E7800000 
 1424              	.LVL158:
 246:src/kernel/mmanagement/buddy_allocator.cpp ****         kprintString("\t");
 1425              		.loc 1 246 29 is_stmt 1
 1426 097c 17050000 		lla	a0,.LC13
 1426      13050500 
 1427 0984 97000000 		call	_Z12kprintStringPKc
 1427      E7800000 
 1428              	.LVL159:
 246:src/kernel/mmanagement/buddy_allocator.cpp ****         kprintString("\t");
 1429              		.loc 1 246 29
 1430 098c 13060000 		li	a2,0
 1431 0990 9305A000 		li	a1,10
 1432 0994 13050900 		mv	a0,s2
 1433 0998 97000000 		call	_Z9kprintIntmib
 1433      E7800000 
 1434              	.LVL160:
 246:src/kernel/mmanagement/buddy_allocator.cpp ****         kprintString("\t");
 1435              		.loc 1 246 29
 1436 09a0 17050000 		lla	a0,.LC3
 1436      13050500 
 1437 09a8 97000000 		call	_Z12kprintStringPKc
 1437      E7800000 
 1438              	.LVL161:
 246:src/kernel/mmanagement/buddy_allocator.cpp ****         kprintString("\t");
 1439              		.loc 1 246 29
 1440 09b0 83B70901 		ld	a5,16(s3)
 1441 09b4 93143900 		slli	s1,s2,3
 1442 09b8 B3879700 		add	a5,a5,s1
 1443 09bc 03B50700 		ld	a0,0(a5)
 1444 09c0 13060000 		li	a2,0
 1445 09c4 93050001 		li	a1,16
 1446 09c8 3335A000 		snez	a0,a0
 1447 09cc 97000000 		call	_Z9kprintIntmib
 1447      E7800000 
 1448              	.LVL162:
 246:src/kernel/mmanagement/buddy_allocator.cpp ****         kprintString("\t");
 1449              		.loc 1 246 29
 1450 09d4 17050000 		lla	a0,.LC1
 1450      13050500 
 1451 09dc 97000000 		call	_Z12kprintStringPKc
 1451      E7800000 
 1452              	.LVL163:
GAS LISTING /tmp/cciUv5bs.s 			page 37


 247:src/kernel/mmanagement/buddy_allocator.cpp ****         for(mmeta_t* curr = lhp[i]; curr; curr = curr->next){
 1453              		.loc 1 247 9
 247:src/kernel/mmanagement/buddy_allocator.cpp ****         for(mmeta_t* curr = lhp[i]; curr; curr = curr->next){
 1454              		.loc 1 247 21 is_stmt 0
 1455 09e4 17050000 		lla	a0,.LC12
 1455      13050500 
 1456 09ec 97000000 		call	_Z12kprintStringPKc
 1456      E7800000 
 1457              	.LVL164:
 248:src/kernel/mmanagement/buddy_allocator.cpp ****             kprintInt((uint64)curr, 16);
 1458              		.loc 1 248 9 is_stmt 1
 1459              	.LBB36:
 248:src/kernel/mmanagement/buddy_allocator.cpp ****             kprintInt((uint64)curr, 16);
 1460              		.loc 1 248 29 is_stmt 0
 1461 09f4 83B70901 		ld	a5,16(s3)
 248:src/kernel/mmanagement/buddy_allocator.cpp ****             kprintInt((uint64)curr, 16);
 1462              		.loc 1 248 34
 1463 09f8 B3879700 		add	a5,a5,s1
 248:src/kernel/mmanagement/buddy_allocator.cpp ****             kprintInt((uint64)curr, 16);
 1464              		.loc 1 248 22
 1465 09fc 83B40700 		ld	s1,0(a5)
 1466              	.LVL165:
 1467 0a00 6FF09FF2 		j	.L83
 1468              	.LVL166:
 1469              	.L80:
 1470              	.LBE36:
 1471              	.LBE37:
 1472              	.LBE38:
 254:src/kernel/mmanagement/buddy_allocator.cpp ****     }
 255:src/kernel/mmanagement/buddy_allocator.cpp ****     kprintString("\n");
 1473              		.loc 1 255 5 is_stmt 1
 1474              		.loc 1 255 17 is_stmt 0
 1475 0a04 17050000 		lla	a0,.LC1
 1475      13050500 
 1476 0a0c 97000000 		call	_Z12kprintStringPKc
 1476      E7800000 
 1477              	.LVL167:
 256:src/kernel/mmanagement/buddy_allocator.cpp ****     if(f){
 1478              		.loc 1 256 5 is_stmt 1
 1479              	.LBB39:
 1480 0a14 63040A06 		beq	s4,zero,.L85
 1481              	.LBB40:
 257:src/kernel/mmanagement/buddy_allocator.cpp ****         for(size_t i = 0; i < (1ULL << max_level); i++){
 1482              		.loc 1 257 20 is_stmt 0
 1483 0a18 93040000 		li	s1,0
 1484 0a1c 6F008000 		j	.L87
 1485              	.LVL168:
 1486              	.L86:
 1487              		.loc 1 257 9 discriminator 2
 1488 0a20 93841400 		addi	s1,s1,1
 1489              	.LVL169:
 1490              	.L87:
 1491              		.loc 1 257 40 discriminator 1
 1492 0a24 03B78900 		ld	a4,8(s3)
 1493              		.loc 1 257 37 discriminator 1
 1494 0a28 93071000 		li	a5,1
 1495 0a2c B397E700 		sll	a5,a5,a4
GAS LISTING /tmp/cciUv5bs.s 			page 38


 1496              		.loc 1 257 29 discriminator 1
 1497 0a30 63F6F404 		bleu	a5,s1,.L85
 258:src/kernel/mmanagement/buddy_allocator.cpp ****             if(get_bit_val(i)){
 1498              		.loc 1 258 13 is_stmt 1
 1499              		.loc 1 258 27 is_stmt 0
 1500 0a34 93850400 		mv	a1,s1
 1501 0a38 13850900 		mv	a0,s3
 1502 0a3c 97000000 		call	_ZN5Buddy11get_bit_valEm
 1502      E7800000 
 1503              	.LVL170:
 1504              		.loc 1 258 13
 1505 0a44 E30E05FC 		beq	a0,zero,.L86
 259:src/kernel/mmanagement/buddy_allocator.cpp ****                 kprintString("\t"); print_be(i); kprintString("\n");
 1506              		.loc 1 259 17 is_stmt 1
 1507              		.loc 1 259 29 is_stmt 0
 1508 0a48 17050000 		lla	a0,.LC12
 1508      13050500 
 1509 0a50 97000000 		call	_Z12kprintStringPKc
 1509      E7800000 
 1510              	.LVL171:
 1511              		.loc 1 259 37 is_stmt 1
 1512              		.loc 1 259 45 is_stmt 0
 1513 0a58 93850400 		mv	a1,s1
 1514 0a5c 13850900 		mv	a0,s3
 1515 0a60 97000000 		call	_ZN5Buddy8print_beEm
 1515      E7800000 
 1516              	.LVL172:
 1517              		.loc 1 259 50 is_stmt 1
 1518              		.loc 1 259 62 is_stmt 0
 1519 0a68 17050000 		lla	a0,.LC1
 1519      13050500 
 1520 0a70 97000000 		call	_Z12kprintStringPKc
 1520      E7800000 
 1521              	.LVL173:
 1522 0a78 6FF09FFA 		j	.L86
 1523              	.LVL174:
 1524              	.L85:
 1525              	.LBE40:
 1526              	.LBE39:
 260:src/kernel/mmanagement/buddy_allocator.cpp ****             }
 261:src/kernel/mmanagement/buddy_allocator.cpp ****         }
 262:src/kernel/mmanagement/buddy_allocator.cpp ****     }
 263:src/kernel/mmanagement/buddy_allocator.cpp ****     kprintString("\t----END MEMORY META----\n");
 1527              		.loc 1 263 5 is_stmt 1
 1528              		.loc 1 263 17 is_stmt 0
 1529 0a7c 17050000 		lla	a0,.LC15
 1529      13050500 
 1530 0a84 97000000 		call	_Z12kprintStringPKc
 1530      E7800000 
 1531              	.LVL175:
 264:src/kernel/mmanagement/buddy_allocator.cpp **** 
 265:src/kernel/mmanagement/buddy_allocator.cpp ****     kprintString("-------END BUDDY STATUS-------\n");
 1532              		.loc 1 265 5 is_stmt 1
 1533              		.loc 1 265 17 is_stmt 0
 1534 0a8c 17050000 		lla	a0,.LC16
 1534      13050500 
 1535 0a94 97000000 		call	_Z12kprintStringPKc
GAS LISTING /tmp/cciUv5bs.s 			page 39


 1535      E7800000 
 1536              	.LVL176:
 1537              	.L77:
 266:src/kernel/mmanagement/buddy_allocator.cpp **** 
 267:src/kernel/mmanagement/buddy_allocator.cpp **** }...
 1538              		.loc 1 267 1
 1539 0a9c 83308102 		ld	ra,40(sp)
 1540              		.cfi_restore 1
 1541 0aa0 03340102 		ld	s0,32(sp)
 1542              		.cfi_restore 8
 1543              		.cfi_def_cfa 2, 48
 1544 0aa4 83348101 		ld	s1,24(sp)
 1545              		.cfi_restore 9
 1546 0aa8 03390101 		ld	s2,16(sp)
 1547              		.cfi_restore 18
 1548 0aac 83398100 		ld	s3,8(sp)
 1549              		.cfi_restore 19
 1550 0ab0 033A0100 		ld	s4,0(sp)
 1551              		.cfi_restore 20
 1552 0ab4 13010103 		addi	sp,sp,48
 1553              		.cfi_def_cfa_offset 0
 1554 0ab8 67800000 		jr	ra
 1555              		.cfi_endproc
 1556              	.LFE130:
 1558              		.section	.text._Z4swapImEvRT_S1_,"axG",@progbits,_Z4swapImEvRT_S1_,comdat
 1559              		.align	2
 1560              		.weak	_Z4swapImEvRT_S1_
 1562              	_Z4swapImEvRT_S1_:
 1563              	.LFB131:
 1564              		.file 4 "src/kernel/mmanagement/../../../h/../h/kernel_funs.h"
   1:src/kernel/mmanagement/../../../h/../h/kernel_funs.h **** #ifndef ___kernel_funs___
   2:src/kernel/mmanagement/../../../h/../h/kernel_funs.h **** #define ___kernel_funs___
   3:src/kernel/mmanagement/../../../h/../h/kernel_funs.h **** 
   4:src/kernel/mmanagement/../../../h/../h/kernel_funs.h **** #include"../lib/hw.h"
   5:src/kernel/mmanagement/../../../h/../h/kernel_funs.h **** 
   6:src/kernel/mmanagement/../../../h/../h/kernel_funs.h **** /* interrupt vector function that handles interruptions */
   7:src/kernel/mmanagement/../../../h/../h/kernel_funs.h **** extern "C" void interruptvec(); 
   8:src/kernel/mmanagement/../../../h/../h/kernel_funs.h **** 
   9:src/kernel/mmanagement/../../../h/../h/kernel_funs.h **** /* user process that starts after initalizing kernel */
  10:src/kernel/mmanagement/../../../h/../h/kernel_funs.h **** extern void userMain(); 
  11:src/kernel/mmanagement/../../../h/../h/kernel_funs.h **** 
  12:src/kernel/mmanagement/../../../h/../h/kernel_funs.h **** /* kernel wrapper function for starting userMain */
  13:src/kernel/mmanagement/../../../h/../h/kernel_funs.h **** extern void userMainWrapper(void*); 
  14:src/kernel/mmanagement/../../../h/../h/kernel_funs.h **** 
  15:src/kernel/mmanagement/../../../h/../h/kernel_funs.h **** /* idle function in user mode that loops when scheduler is empty */
  16:src/kernel/mmanagement/../../../h/../h/kernel_funs.h **** void idleFunction(void*); 
  17:src/kernel/mmanagement/../../../h/../h/kernel_funs.h **** 
  18:src/kernel/mmanagement/../../../h/../h/kernel_funs.h **** /* kernel memory alloc */
  19:src/kernel/mmanagement/../../../h/../h/kernel_funs.h **** void* kmalloc(size_t size); 
  20:src/kernel/mmanagement/../../../h/../h/kernel_funs.h **** 
  21:src/kernel/mmanagement/../../../h/../h/kernel_funs.h **** /* kernel print string (UNFORMATED) (PRINTING WITHOUT NEWLINE) */
  22:src/kernel/mmanagement/../../../h/../h/kernel_funs.h **** void kprintString(const char*); 
  23:src/kernel/mmanagement/../../../h/../h/kernel_funs.h ****  
  24:src/kernel/mmanagement/../../../h/../h/kernel_funs.h **** /* kernel print integer (base is number base, exapmle: base = 16 <=> hex) */
  25:src/kernel/mmanagement/../../../h/../h/kernel_funs.h **** void kprintInt(uint64 num, int base = 10, bool sig=false); 
  26:src/kernel/mmanagement/../../../h/../h/kernel_funs.h **** 
  27:src/kernel/mmanagement/../../../h/../h/kernel_funs.h **** /* function to initalize whole kernel (it prints necessary information) - v1 (OS1)*/
GAS LISTING /tmp/cciUv5bs.s 			page 40


  28:src/kernel/mmanagement/../../../h/../h/kernel_funs.h **** int kernelInit(); 
  29:src/kernel/mmanagement/../../../h/../h/kernel_funs.h **** 
  30:src/kernel/mmanagement/../../../h/../h/kernel_funs.h **** /* function to initalize whole kernel (it prints necessary information) - v2 (OS2)*/
  31:src/kernel/mmanagement/../../../h/../h/kernel_funs.h **** int newKernelInit();
  32:src/kernel/mmanagement/../../../h/../h/kernel_funs.h **** 
  33:src/kernel/mmanagement/../../../h/../h/kernel_funs.h **** /* closest greater number = n*4096 */
  34:src/kernel/mmanagement/../../../h/../h/kernel_funs.h **** uint64 align4kb(uint64);
  35:src/kernel/mmanagement/../../../h/../h/kernel_funs.h **** 
  36:src/kernel/mmanagement/../../../h/../h/kernel_funs.h **** /* closest greater number that is 2^n */
  37:src/kernel/mmanagement/../../../h/../h/kernel_funs.h **** uint64 closest2pow(uint64);
  38:src/kernel/mmanagement/../../../h/../h/kernel_funs.h **** 
  39:src/kernel/mmanagement/../../../h/../h/kernel_funs.h **** /* first set bit position */
  40:src/kernel/mmanagement/../../../h/../h/kernel_funs.h **** char log2(uint64);
  41:src/kernel/mmanagement/../../../h/../h/kernel_funs.h **** 
  42:src/kernel/mmanagement/../../../h/../h/kernel_funs.h **** /* one or less set bits */
  43:src/kernel/mmanagement/../../../h/../h/kernel_funs.h **** bool osb(uint64);
  44:src/kernel/mmanagement/../../../h/../h/kernel_funs.h **** 
  45:src/kernel/mmanagement/../../../h/../h/kernel_funs.h **** /* classic swap */
  46:src/kernel/mmanagement/../../../h/../h/kernel_funs.h **** template<typename T>
  47:src/kernel/mmanagement/../../../h/../h/kernel_funs.h **** void swap(T& a, T& b){
 1565              		.loc 4 47 6 is_stmt 1
 1566              		.cfi_startproc
 1567              	.LVL177:
 1568 0000 130101FF 		addi	sp,sp,-16
 1569              		.cfi_def_cfa_offset 16
 1570 0004 23348100 		sd	s0,8(sp)
 1571              		.cfi_offset 8, -8
 1572 0008 13040101 		addi	s0,sp,16
 1573              		.cfi_def_cfa 8, 0
  48:src/kernel/mmanagement/../../../h/../h/kernel_funs.h ****     T x = a;
 1574              		.loc 4 48 7 is_stmt 0
 1575 000c 83370500 		ld	a5,0(a0)
 1576              	.LVL178:
  49:src/kernel/mmanagement/../../../h/../h/kernel_funs.h ****     a = b;
 1577              		.loc 4 49 5
 1578 0010 03B70500 		ld	a4,0(a1)
 1579 0014 2330E500 		sd	a4,0(a0)
  50:src/kernel/mmanagement/../../../h/../h/kernel_funs.h ****     b = x;
 1580              		.loc 4 50 5
 1581 0018 23B0F500 		sd	a5,0(a1)
  51:src/kernel/mmanagement/../../../h/../h/kernel_funs.h **** }
 1582              		.loc 4 51 1
 1583 001c 03348100 		ld	s0,8(sp)
 1584              		.cfi_restore 8
 1585              		.cfi_def_cfa 2, 16
 1586 0020 13010101 		addi	sp,sp,16
 1587              		.cfi_def_cfa_offset 0
 1588 0024 67800000 		jr	ra
 1589              		.cfi_endproc
 1590              	.LFE131:
 1592              		.section	.text._Z4swapIP7mmeta_tEvRT_S3_,"axG",@progbits,_Z4swapIP7mmeta_tEvRT_S3_,comdat
 1593              		.align	2
 1594              		.weak	_Z4swapIP7mmeta_tEvRT_S3_
 1596              	_Z4swapIP7mmeta_tEvRT_S3_:
 1597              	.LFB132:
  47:src/kernel/mmanagement/../../../h/../h/kernel_funs.h ****     T x = a;
 1598              		.loc 4 47 6 is_stmt 1
GAS LISTING /tmp/cciUv5bs.s 			page 41


 1599              		.cfi_startproc
 1600              	.LVL179:
 1601 0000 130101FF 		addi	sp,sp,-16
 1602              		.cfi_def_cfa_offset 16
 1603 0004 23348100 		sd	s0,8(sp)
 1604              		.cfi_offset 8, -8
 1605 0008 13040101 		addi	s0,sp,16
 1606              		.cfi_def_cfa 8, 0
  48:src/kernel/mmanagement/../../../h/../h/kernel_funs.h ****     a = b;
 1607              		.loc 4 48 7 is_stmt 0
 1608 000c 83370500 		ld	a5,0(a0)
 1609              	.LVL180:
  49:src/kernel/mmanagement/../../../h/../h/kernel_funs.h ****     b = x;
 1610              		.loc 4 49 5
 1611 0010 03B70500 		ld	a4,0(a1)
 1612 0014 2330E500 		sd	a4,0(a0)
  50:src/kernel/mmanagement/../../../h/../h/kernel_funs.h **** }
 1613              		.loc 4 50 5
 1614 0018 23B0F500 		sd	a5,0(a1)
 1615              		.loc 4 51 1
 1616 001c 03348100 		ld	s0,8(sp)
 1617              		.cfi_restore 8
 1618              		.cfi_def_cfa 2, 16
 1619 0020 13010101 		addi	sp,sp,16
 1620              		.cfi_def_cfa_offset 0
 1621 0024 67800000 		jr	ra
 1622              		.cfi_endproc
 1623              	.LFE132:
 1625              		.text
 1626              		.align	2
 1627              		.globl	_ZN5Buddy8merge_ipEP7mmeta_t
 1629              	_ZN5Buddy8merge_ipEP7mmeta_t:
 1630              	.LFB124:
 170:src/kernel/mmanagement/buddy_allocator.cpp **** mmeta_t* Buddy::merge_ip(mmeta_t* chunk){
 1631              		.loc 1 170 41 is_stmt 1
 1632              		.cfi_startproc
 1633              	.LVL181:
 1634 0abc 130101FA 		addi	sp,sp,-96
 1635              		.cfi_def_cfa_offset 96
 1636 0ac0 233C1104 		sd	ra,88(sp)
 1637 0ac4 23388104 		sd	s0,80(sp)
 1638 0ac8 23349104 		sd	s1,72(sp)
 1639 0acc 23302105 		sd	s2,64(sp)
 1640 0ad0 233C3103 		sd	s3,56(sp)
 1641 0ad4 23384103 		sd	s4,48(sp)
 1642              		.cfi_offset 1, -8
 1643              		.cfi_offset 8, -16
 1644              		.cfi_offset 9, -24
 1645              		.cfi_offset 18, -32
 1646              		.cfi_offset 19, -40
 1647              		.cfi_offset 20, -48
 1648 0ad8 13040106 		addi	s0,sp,96
 1649              		.cfi_def_cfa 8, 0
 1650 0adc 13090500 		mv	s2,a0
 1651 0ae0 2334B4FA 		sd	a1,-88(s0)
 171:src/kernel/mmanagement/buddy_allocator.cpp ****     size_t bi = BLOCK_IND(chunk);
 1652              		.loc 1 171 5
GAS LISTING /tmp/cciUv5bs.s 			page 42


 171:src/kernel/mmanagement/buddy_allocator.cpp ****     size_t bi = BLOCK_IND(chunk);
 1653              		.loc 1 171 17 is_stmt 0
 1654 0ae4 83370500 		ld	a5,0(a0)
 1655 0ae8 B387F540 		sub	a5,a1,a5
 1656 0aec 170A0000 		lbu	s4,_ZN5Buddy18BLOCK_SIZE_BIT_LENE
 1656      034A0A00 
 1657 0af4 B3D74701 		srl	a5,a5,s4
 171:src/kernel/mmanagement/buddy_allocator.cpp ****     size_t bi = BLOCK_IND(chunk);
 1658              		.loc 1 171 12
 1659 0af8 2334F4FC 		sd	a5,-56(s0)
 172:src/kernel/mmanagement/buddy_allocator.cpp ****     size_t budd_bi;
 1660              		.loc 1 172 5 is_stmt 1
 174:src/kernel/mmanagement/buddy_allocator.cpp ****     budd_bi = bi ^ (1ULL << chunk->level);
 1661              		.loc 1 174 5
 174:src/kernel/mmanagement/buddy_allocator.cpp ****     budd_bi = bi ^ (1ULL << chunk->level);
 1662              		.loc 1 174 36 is_stmt 0
 1663 0afc 83C90501 		lbu	s3,16(a1)
 174:src/kernel/mmanagement/buddy_allocator.cpp ****     budd_bi = bi ^ (1ULL << chunk->level);
 1664              		.loc 1 174 26
 1665 0b00 93041000 		li	s1,1
 1666 0b04 B3943401 		sll	s1,s1,s3
 174:src/kernel/mmanagement/buddy_allocator.cpp ****     budd_bi = bi ^ (1ULL << chunk->level);
 1667              		.loc 1 174 18
 1668 0b08 B3C49700 		xor	s1,a5,s1
 174:src/kernel/mmanagement/buddy_allocator.cpp ****     budd_bi = bi ^ (1ULL << chunk->level);
 1669              		.loc 1 174 13
 1670 0b0c 233094FC 		sd	s1,-64(s0)
 176:src/kernel/mmanagement/buddy_allocator.cpp ****     if(!get_bit_val(bi)) return nullptr;
 1671              		.loc 1 176 5 is_stmt 1
 176:src/kernel/mmanagement/buddy_allocator.cpp ****     if(!get_bit_val(bi)) return nullptr;
 1672              		.loc 1 176 20 is_stmt 0
 1673 0b10 93850700 		mv	a1,a5
 1674              	.LVL182:
 1675 0b14 97000000 		call	_ZN5Buddy11get_bit_valEm
 1675      E7800000 
 1676              	.LVL183:
 176:src/kernel/mmanagement/buddy_allocator.cpp ****     if(!get_bit_val(bi)) return nullptr;
 1677              		.loc 1 176 5
 1678 0b1c 6306050A 		beq	a0,zero,.L98
 178:src/kernel/mmanagement/buddy_allocator.cpp ****     mmeta_t* budd_addr = (mmeta_t*)((budd_bi << BLOCK_SIZE_BIT_LEN) + (size_t)start_address);
 1679              		.loc 1 178 5 is_stmt 1
 178:src/kernel/mmanagement/buddy_allocator.cpp ****     mmeta_t* budd_addr = (mmeta_t*)((budd_bi << BLOCK_SIZE_BIT_LEN) + (size_t)start_address);
 1680              		.loc 1 178 46 is_stmt 0
 1681 0b20 B3944401 		sll	s1,s1,s4
 178:src/kernel/mmanagement/buddy_allocator.cpp ****     mmeta_t* budd_addr = (mmeta_t*)((budd_bi << BLOCK_SIZE_BIT_LEN) + (size_t)start_address);
 1682              		.loc 1 178 79
 1683 0b24 03360900 		ld	a2,0(s2)
 178:src/kernel/mmanagement/buddy_allocator.cpp ****     mmeta_t* budd_addr = (mmeta_t*)((budd_bi << BLOCK_SIZE_BIT_LEN) + (size_t)start_address);
 1684              		.loc 1 178 69
 1685 0b28 33069600 		add	a2,a2,s1
 178:src/kernel/mmanagement/buddy_allocator.cpp ****     mmeta_t* budd_addr = (mmeta_t*)((budd_bi << BLOCK_SIZE_BIT_LEN) + (size_t)start_address);
 1686              		.loc 1 178 14
 1687 0b2c 233CC4FA 		sd	a2,-72(s0)
 179:src/kernel/mmanagement/buddy_allocator.cpp ****     if(budd_addr->level != chunk->level) return nullptr;
 1688              		.loc 1 179 5 is_stmt 1
 179:src/kernel/mmanagement/buddy_allocator.cpp ****     if(budd_addr->level != chunk->level) return nullptr;
 1689              		.loc 1 179 19 is_stmt 0
GAS LISTING /tmp/cciUv5bs.s 			page 43


 1690 0b30 83450601 		lbu	a1,16(a2)
 179:src/kernel/mmanagement/buddy_allocator.cpp ****     if(budd_addr->level != chunk->level) return nullptr;
 1691              		.loc 1 179 5
 1692 0b34 639EB908 		bne	s3,a1,.L99
 181:src/kernel/mmanagement/buddy_allocator.cpp ****     int code = remove_from_list(budd_addr->level, budd_addr);    
 1693              		.loc 1 181 5 is_stmt 1
 181:src/kernel/mmanagement/buddy_allocator.cpp ****     int code = remove_from_list(budd_addr->level, budd_addr);    
 1694              		.loc 1 181 32 is_stmt 0
 1695 0b38 13050900 		mv	a0,s2
 1696 0b3c 97000000 		call	_ZN5Buddy16remove_from_listEhP7mmeta_t
 1696      E7800000 
 1697              	.LVL184:
 182:src/kernel/mmanagement/buddy_allocator.cpp ****     if(code < 0) return nullptr;
 1698              		.loc 1 182 5 is_stmt 1
 1699 0b44 634A0508 		blt	a0,zero,.L100
 184:src/kernel/mmanagement/buddy_allocator.cpp ****     if(budd_bi < bi){
 1700              		.loc 1 184 5
 184:src/kernel/mmanagement/buddy_allocator.cpp ****     if(budd_bi < bi){
 1701              		.loc 1 184 16 is_stmt 0
 1702 0b48 033704FC 		ld	a4,-64(s0)
 1703 0b4c 833784FC 		ld	a5,-56(s0)
 184:src/kernel/mmanagement/buddy_allocator.cpp ****     if(budd_bi < bi){
 1704              		.loc 1 184 5
 1705 0b50 636AF704 		bltu	a4,a5,.L102
 1706              	.LVL185:
 1707              	.L97:
 188:src/kernel/mmanagement/buddy_allocator.cpp ****     clr_bit(budd_bi);
 1708              		.loc 1 188 5 is_stmt 1
 188:src/kernel/mmanagement/buddy_allocator.cpp ****     clr_bit(budd_bi);
 1709              		.loc 1 188 12 is_stmt 0
 1710 0b54 833504FC 		ld	a1,-64(s0)
 1711 0b58 13050900 		mv	a0,s2
 1712 0b5c 97000000 		call	_ZN5Buddy7clr_bitEm
 1712      E7800000 
 1713              	.LVL186:
 189:src/kernel/mmanagement/buddy_allocator.cpp ****     set_bit(bi);
 1714              		.loc 1 189 5 is_stmt 1
 189:src/kernel/mmanagement/buddy_allocator.cpp ****     set_bit(bi);
 1715              		.loc 1 189 12 is_stmt 0
 1716 0b64 833584FC 		ld	a1,-56(s0)
 1717 0b68 13050900 		mv	a0,s2
 1718 0b6c 97000000 		call	_ZN5Buddy7set_bitEm
 1718      E7800000 
 1719              	.LVL187:
 190:src/kernel/mmanagement/buddy_allocator.cpp ****     chunk->level = chunk->level + 1;
 1720              		.loc 1 190 5 is_stmt 1
 190:src/kernel/mmanagement/buddy_allocator.cpp ****     chunk->level = chunk->level + 1;
 1721              		.loc 1 190 27 is_stmt 0
 1722 0b74 033584FA 		ld	a0,-88(s0)
 1723 0b78 83470501 		lbu	a5,16(a0)
 190:src/kernel/mmanagement/buddy_allocator.cpp ****     chunk->level = chunk->level + 1;
 1724              		.loc 1 190 33
 1725 0b7c 9B871700 		addiw	a5,a5,1
 190:src/kernel/mmanagement/buddy_allocator.cpp ****     chunk->level = chunk->level + 1;
 1726              		.loc 1 190 18
 1727 0b80 2308F500 		sb	a5,16(a0)
 192:src/kernel/mmanagement/buddy_allocator.cpp ****     return chunk;
GAS LISTING /tmp/cciUv5bs.s 			page 44


 1728              		.loc 1 192 5 is_stmt 1
 1729              	.L95:
 193:src/kernel/mmanagement/buddy_allocator.cpp **** }
 1730              		.loc 1 193 1 is_stmt 0
 1731 0b84 83308105 		ld	ra,88(sp)
 1732              		.cfi_remember_state
 1733              		.cfi_restore 1
 1734 0b88 03340105 		ld	s0,80(sp)
 1735              		.cfi_restore 8
 1736              		.cfi_def_cfa 2, 96
 1737 0b8c 83348104 		ld	s1,72(sp)
 1738              		.cfi_restore 9
 1739 0b90 03390104 		ld	s2,64(sp)
 1740              		.cfi_restore 18
 1741              	.LVL188:
 1742 0b94 83398103 		ld	s3,56(sp)
 1743              		.cfi_restore 19
 1744 0b98 033A0103 		ld	s4,48(sp)
 1745              		.cfi_restore 20
 1746 0b9c 13010106 		addi	sp,sp,96
 1747              		.cfi_def_cfa_offset 0
 1748 0ba0 67800000 		jr	ra
 1749              	.LVL189:
 1750              	.L102:
 1751              		.cfi_restore_state
 185:src/kernel/mmanagement/buddy_allocator.cpp ****         swap(bi, budd_bi);
 1752              		.loc 1 185 9 is_stmt 1
 185:src/kernel/mmanagement/buddy_allocator.cpp ****         swap(bi, budd_bi);
 1753              		.loc 1 185 13 is_stmt 0
 1754 0ba4 930504FC 		addi	a1,s0,-64
 1755 0ba8 130584FC 		addi	a0,s0,-56
 1756              	.LVL190:
 1757 0bac 97000000 		call	_Z4swapImEvRT_S1_
 1757      E7800000 
 1758              	.LVL191:
 186:src/kernel/mmanagement/buddy_allocator.cpp ****         swap(chunk, budd_addr);
 1759              		.loc 1 186 9 is_stmt 1
 186:src/kernel/mmanagement/buddy_allocator.cpp ****         swap(chunk, budd_addr);
 1760              		.loc 1 186 13 is_stmt 0
 1761 0bb4 930584FB 		addi	a1,s0,-72
 1762 0bb8 130584FA 		addi	a0,s0,-88
 1763 0bbc 97000000 		call	_Z4swapIP7mmeta_tEvRT_S3_
 1763      E7800000 
 1764              	.LVL192:
 1765 0bc4 6FF01FF9 		j	.L97
 1766              	.L98:
 176:src/kernel/mmanagement/buddy_allocator.cpp ****     if(!get_bit_val(bi)) return nullptr;
 1767              		.loc 1 176 33
 1768 0bc8 13050000 		li	a0,0
 1769 0bcc 6FF09FFB 		j	.L95
 1770              	.L99:
 179:src/kernel/mmanagement/buddy_allocator.cpp ****     if(budd_addr->level != chunk->level) return nullptr;
 1771              		.loc 1 179 49
 1772 0bd0 13050000 		li	a0,0
 1773 0bd4 6FF01FFB 		j	.L95
 1774              	.LVL193:
 1775              	.L100:
GAS LISTING /tmp/cciUv5bs.s 			page 45


 182:src/kernel/mmanagement/buddy_allocator.cpp ****     if(code < 0) return nullptr;
 1776              		.loc 1 182 25
 1777 0bd8 13050000 		li	a0,0
 1778              	.LVL194:
 1779 0bdc 6FF09FFA 		j	.L95
 1780              		.cfi_endproc
 1781              	.LFE124:
 1783              		.align	2
 1784              		.globl	_ZN5Buddy8mem_freeEPvh
 1786              	_ZN5Buddy8mem_freeEPvh:
 1787              	.LFB119:
  85:src/kernel/mmanagement/buddy_allocator.cpp **** int Buddy::mem_free(void* addr, uchar level){
 1788              		.loc 1 85 45 is_stmt 1
 1789              		.cfi_startproc
 1790              	.LVL195:
  87:src/kernel/mmanagement/buddy_allocator.cpp ****     if(( (uint64)addr & (BLOCK_SIZE - 1) )
 1791              		.loc 1 87 5
  87:src/kernel/mmanagement/buddy_allocator.cpp ****     if(( (uint64)addr & (BLOCK_SIZE - 1) )
 1792              		.loc 1 87 23 is_stmt 0
 1793 0be0 B7170000 		li	a5,4096
 1794 0be4 9387F7FF 		addi	a5,a5,-1
 1795 0be8 B3F7F500 		and	a5,a1,a5
  87:src/kernel/mmanagement/buddy_allocator.cpp ****     if(( (uint64)addr & (BLOCK_SIZE - 1) )
 1796              		.loc 1 87 5
 1797 0bec 6394070E 		bne	a5,zero,.L107
  85:src/kernel/mmanagement/buddy_allocator.cpp **** int Buddy::mem_free(void* addr, uchar level){
 1798              		.loc 1 85 45
 1799 0bf0 130101FD 		addi	sp,sp,-48
 1800              		.cfi_def_cfa_offset 48
 1801 0bf4 23341102 		sd	ra,40(sp)
 1802 0bf8 23308102 		sd	s0,32(sp)
 1803 0bfc 233C9100 		sd	s1,24(sp)
 1804 0c00 23382101 		sd	s2,16(sp)
 1805 0c04 23343101 		sd	s3,8(sp)
 1806 0c08 23304101 		sd	s4,0(sp)
 1807              		.cfi_offset 1, -8
 1808              		.cfi_offset 8, -16
 1809              		.cfi_offset 9, -24
 1810              		.cfi_offset 18, -32
 1811              		.cfi_offset 19, -40
 1812              		.cfi_offset 20, -48
 1813 0c0c 13040103 		addi	s0,sp,48
 1814              		.cfi_def_cfa 8, 0
 1815 0c10 13090500 		mv	s2,a0
 1816 0c14 93840500 		mv	s1,a1
 1817 0c18 130A0600 		mv	s4,a2
  88:src/kernel/mmanagement/buddy_allocator.cpp ****     || addr < start_address) return -1;
 1818              		.loc 1 88 15
 1819 0c1c 03370500 		ld	a4,0(a0)
  88:src/kernel/mmanagement/buddy_allocator.cpp ****     || addr < start_address) return -1;
 1820              		.loc 1 88 5
 1821 0c20 63EEE50A 		bgtu	a4,a1,.L108
  90:src/kernel/mmanagement/buddy_allocator.cpp ****     if(level > max_level) return -4;
 1822              		.loc 1 90 5 is_stmt 1
  90:src/kernel/mmanagement/buddy_allocator.cpp ****     if(level > max_level) return -4;
 1823              		.loc 1 90 16 is_stmt 0
 1824 0c24 83368500 		ld	a3,8(a0)
GAS LISTING /tmp/cciUv5bs.s 			page 46


  90:src/kernel/mmanagement/buddy_allocator.cpp ****     if(level > max_level) return -4;
 1825              		.loc 1 90 5
 1826 0c28 63EEC60A 		bgtu	a2,a3,.L109
  92:src/kernel/mmanagement/buddy_allocator.cpp ****     uint64 bind = BLOCK_IND(addr);
 1827              		.loc 1 92 5 is_stmt 1
  92:src/kernel/mmanagement/buddy_allocator.cpp ****     uint64 bind = BLOCK_IND(addr);
 1828              		.loc 1 92 19 is_stmt 0
 1829 0c2c B389E540 		sub	s3,a1,a4
 1830 0c30 97070000 		lbu	a5,_ZN5Buddy18BLOCK_SIZE_BIT_LENE
 1830      83C70700 
  92:src/kernel/mmanagement/buddy_allocator.cpp ****     uint64 bind = BLOCK_IND(addr);
 1831              		.loc 1 92 12
 1832 0c38 B3D9F900 		srl	s3,s3,a5
 1833              	.LVL196:
  93:src/kernel/mmanagement/buddy_allocator.cpp ****     if(bind >= (1ULL << max_level)) return -3;
 1834              		.loc 1 93 5 is_stmt 1
  93:src/kernel/mmanagement/buddy_allocator.cpp ****     if(bind >= (1ULL << max_level)) return -3;
 1835              		.loc 1 93 22 is_stmt 0
 1836 0c3c 93071000 		li	a5,1
 1837 0c40 B397D700 		sll	a5,a5,a3
  93:src/kernel/mmanagement/buddy_allocator.cpp ****     if(bind >= (1ULL << max_level)) return -3;
 1838              		.loc 1 93 5
 1839 0c44 63F4F90A 		bleu	a5,s3,.L110
  94:src/kernel/mmanagement/buddy_allocator.cpp ****     if(get_bit_val(bind)) return -2;
 1840              		.loc 1 94 5 is_stmt 1
  94:src/kernel/mmanagement/buddy_allocator.cpp ****     if(get_bit_val(bind)) return -2;
 1841              		.loc 1 94 19 is_stmt 0
 1842 0c48 93850900 		mv	a1,s3
 1843              	.LVL197:
 1844 0c4c 97000000 		call	_ZN5Buddy11get_bit_valEm
 1844      E7800000 
 1845              	.LVL198:
  94:src/kernel/mmanagement/buddy_allocator.cpp ****     if(get_bit_val(bind)) return -2;
 1846              		.loc 1 94 5
 1847 0c54 6310050A 		bne	a0,zero,.L111
  97:src/kernel/mmanagement/buddy_allocator.cpp ****     mmeta_t* chunk = (mmeta_t*)addr;
 1848              		.loc 1 97 5 is_stmt 1
 1849              	.LVL199:
  98:src/kernel/mmanagement/buddy_allocator.cpp ****     chunk->level = level;
 1850              		.loc 1 98 5
  98:src/kernel/mmanagement/buddy_allocator.cpp ****     chunk->level = level;
 1851              		.loc 1 98 18 is_stmt 0
 1852 0c58 23884401 		sb	s4,16(s1)
  99:src/kernel/mmanagement/buddy_allocator.cpp ****     chunk->prev = chunk->next = nullptr;
 1853              		.loc 1 99 5 is_stmt 1
  99:src/kernel/mmanagement/buddy_allocator.cpp ****     chunk->prev = chunk->next = nullptr;
 1854              		.loc 1 99 31 is_stmt 0
 1855 0c5c 23B00400 		sd	zero,0(s1)
  99:src/kernel/mmanagement/buddy_allocator.cpp ****     chunk->prev = chunk->next = nullptr;
 1856              		.loc 1 99 17
 1857 0c60 23B40400 		sd	zero,8(s1)
 100:src/kernel/mmanagement/buddy_allocator.cpp ****     set_bit(bind);
 1858              		.loc 1 100 5 is_stmt 1
 100:src/kernel/mmanagement/buddy_allocator.cpp ****     set_bit(bind);
 1859              		.loc 1 100 12 is_stmt 0
 1860 0c64 93850900 		mv	a1,s3
 1861 0c68 13050900 		mv	a0,s2
GAS LISTING /tmp/cciUv5bs.s 			page 47


 1862 0c6c 97000000 		call	_ZN5Buddy7set_bitEm
 1862      E7800000 
 1863              	.LVL200:
 1864 0c74 6F008000 		j	.L106
 1865              	.LVL201:
 1866              	.L112:
 1867              	.LBB41:
 104:src/kernel/mmanagement/buddy_allocator.cpp ****             chunk = maddr;
 1868              		.loc 1 104 19
 1869 0c78 93040500 		mv	s1,a0
 1870              	.LVL202:
 1871              	.L106:
 1872              	.LBE41:
 101:src/kernel/mmanagement/buddy_allocator.cpp ****     while(chunk->level < max_level){
 1873              		.loc 1 101 5 is_stmt 1
 101:src/kernel/mmanagement/buddy_allocator.cpp ****     while(chunk->level < max_level){
 1874              		.loc 1 101 18 is_stmt 0
 1875 0c7c 03C70401 		lbu	a4,16(s1)
 101:src/kernel/mmanagement/buddy_allocator.cpp ****     while(chunk->level < max_level){
 1876              		.loc 1 101 26
 1877 0c80 83378900 		ld	a5,8(s2)
 101:src/kernel/mmanagement/buddy_allocator.cpp ****     while(chunk->level < max_level){
 1878              		.loc 1 101 24
 1879 0c84 637CF700 		bgeu	a4,a5,.L105
 1880              	.LBB42:
 102:src/kernel/mmanagement/buddy_allocator.cpp ****         mmeta_t* maddr = merge_ip(chunk);
 1881              		.loc 1 102 9 is_stmt 1
 102:src/kernel/mmanagement/buddy_allocator.cpp ****         mmeta_t* maddr = merge_ip(chunk);
 1882              		.loc 1 102 34 is_stmt 0
 1883 0c88 93850400 		mv	a1,s1
 1884 0c8c 13050900 		mv	a0,s2
 1885 0c90 97000000 		call	_ZN5Buddy8merge_ipEP7mmeta_t
 1885      E7800000 
 1886              	.LVL203:
 103:src/kernel/mmanagement/buddy_allocator.cpp ****         if(maddr)
 1887              		.loc 1 103 9 is_stmt 1
 1888 0c98 E31005FE 		bne	a0,zero,.L112
 1889              	.LVL204:
 1890              	.L105:
 1891              	.LBE42:
 108:src/kernel/mmanagement/buddy_allocator.cpp ****     add_to_list(chunk->level, chunk);
 1892              		.loc 1 108 5
 108:src/kernel/mmanagement/buddy_allocator.cpp ****     add_to_list(chunk->level, chunk);
 1893              		.loc 1 108 16 is_stmt 0
 1894 0c9c 13860400 		mv	a2,s1
 1895 0ca0 83C50401 		lbu	a1,16(s1)
 1896 0ca4 13050900 		mv	a0,s2
 1897 0ca8 97000000 		call	_ZN5Buddy11add_to_listEhP7mmeta_t
 1897      E7800000 
 1898              	.LVL205:
 109:src/kernel/mmanagement/buddy_allocator.cpp ****     return 0;
 1899              		.loc 1 109 5 is_stmt 1
 109:src/kernel/mmanagement/buddy_allocator.cpp ****     return 0;
 1900              		.loc 1 109 12 is_stmt 0
 1901 0cb0 13050000 		li	a0,0
 1902              	.LVL206:
 1903              	.L104:
GAS LISTING /tmp/cciUv5bs.s 			page 48


 110:src/kernel/mmanagement/buddy_allocator.cpp **** }
 1904              		.loc 1 110 1
 1905 0cb4 83308102 		ld	ra,40(sp)
 1906              		.cfi_restore 1
 1907 0cb8 03340102 		ld	s0,32(sp)
 1908              		.cfi_restore 8
 1909              		.cfi_def_cfa 2, 48
 1910 0cbc 83348101 		ld	s1,24(sp)
 1911              		.cfi_restore 9
 1912 0cc0 03390101 		ld	s2,16(sp)
 1913              		.cfi_restore 18
 1914              	.LVL207:
 1915 0cc4 83398100 		ld	s3,8(sp)
 1916              		.cfi_restore 19
 1917 0cc8 033A0100 		ld	s4,0(sp)
 1918              		.cfi_restore 20
 1919 0ccc 13010103 		addi	sp,sp,48
 1920              		.cfi_def_cfa_offset 0
 1921 0cd0 67800000 		jr	ra
 1922              	.LVL208:
 1923              	.L107:
  88:src/kernel/mmanagement/buddy_allocator.cpp ****     || addr < start_address) return -1;
 1924              		.loc 1 88 38
 1925 0cd4 1305F0FF 		li	a0,-1
 1926              	.LVL209:
 110:src/kernel/mmanagement/buddy_allocator.cpp **** }
 1927              		.loc 1 110 1
 1928 0cd8 67800000 		ret
 1929              	.LVL210:
 1930              	.L108:
 1931              		.cfi_def_cfa_register 8
 1932              		.cfi_offset 1, -8
 1933              		.cfi_offset 8, -16
 1934              		.cfi_offset 9, -24
 1935              		.cfi_offset 18, -32
 1936              		.cfi_offset 19, -40
 1937              		.cfi_offset 20, -48
  88:src/kernel/mmanagement/buddy_allocator.cpp ****     || addr < start_address) return -1;
 1938              		.loc 1 88 38
 1939 0cdc 1305F0FF 		li	a0,-1
 1940              	.LVL211:
 1941 0ce0 6FF05FFD 		j	.L104
 1942              	.LVL212:
 1943              	.L109:
  90:src/kernel/mmanagement/buddy_allocator.cpp ****     if(level > max_level) return -4;
 1944              		.loc 1 90 35
 1945 0ce4 1305C0FF 		li	a0,-4
 1946              	.LVL213:
 1947 0ce8 6FF0DFFC 		j	.L104
 1948              	.LVL214:
 1949              	.L110:
  93:src/kernel/mmanagement/buddy_allocator.cpp ****     if(bind >= (1ULL << max_level)) return -3;
 1950              		.loc 1 93 45
 1951 0cec 1305D0FF 		li	a0,-3
 1952              	.LVL215:
 1953 0cf0 6FF05FFC 		j	.L104
 1954              	.LVL216:
GAS LISTING /tmp/cciUv5bs.s 			page 49


 1955              	.L111:
  94:src/kernel/mmanagement/buddy_allocator.cpp ****     if(get_bit_val(bind)) return -2;
 1956              		.loc 1 94 35
 1957 0cf4 1305E0FF 		li	a0,-2
 1958 0cf8 6FF0DFFB 		j	.L104
 1959              		.cfi_endproc
 1960              	.LFE119:
 1962              		.globl	_ZN5Buddy18BLOCK_SIZE_BIT_LENE
 1963              		.globl	_ZN5Buddy5buddyE
 1964              		.section	.rodata.str1.8,"aMS",@progbits,1
 1965              		.align	3
 1966              	.LC0:
 1967 0000 61646474 		.string	"addtolist panic: "
 1967      6F6C6973 
 1967      74207061 
 1967      6E69633A 
 1967      2000
 1968 0012 00000000 		.zero	6
 1968      0000
 1969              	.LC1:
 1970 0018 0A00     		.string	"\n"
 1971 001a 00000000 		.zero	6
 1971      0000
 1972              	.LC2:
 1973 0020 626C6F63 		.string	"blocks["
 1973      6B735B00 
 1974              	.LC3:
 1975 0028 5D3A2000 		.string	"]: "
 1976 002c 00000000 		.zero	4
 1977              	.LC4:
 1978 0030 46524545 		.string	"FREE"
 1978      00
 1979 0035 000000   		.zero	3
 1980              	.LC5:
 1981 0038 414C4C4F 		.string	"ALLOC"
 1981      4300
 1982 003e 0000     		.zero	2
 1983              	.LC6:
 1984 0040 42554444 		.string	"BUDDY NOT INITALIZED!!!"
 1984      59204E4F 
 1984      5420494E 
 1984      4954414C 
 1984      495A4544 
 1985              	.LC7:
 1986 0058 2D2D2D2D 		.string	"------BUDDY STATUS PRINT------\n"
 1986      2D2D4255 
 1986      44445920 
 1986      53544154 
 1986      55532050 
 1987              	.LC8:
 1988 0078 62756464 		.string	"buddy: "
 1988      793A2000 
 1989              	.LC9:
 1990 0080 73746172 		.string	"start_address: "
 1990      745F6164 
 1990      64726573 
 1990      733A2000 
GAS LISTING /tmp/cciUv5bs.s 			page 50


 1991              	.LC10:
 1992 0090 6D61785F 		.string	"max_level: "
 1992      6C657665 
 1992      6C3A2000 
 1993 009c 00000000 		.zero	4
 1994              	.LC11:
 1995 00a0 092D2D2D 		.string	"\t------MEMORY META------\n"
 1995      2D2D2D4D 
 1995      454D4F52 
 1995      59204D45 
 1995      54412D2D 
 1996 00ba 00000000 		.zero	6
 1996      0000
 1997              	.LC12:
 1998 00c0 0900     		.string	"\t"
 1999 00c2 00000000 		.zero	6
 1999      0000
 2000              	.LC13:
 2001 00c8 4C455645 		.string	"LEVEL["
 2001      4C5B00
 2002 00cf 00       		.zero	1
 2003              	.LC14:
 2004 00d0 202D3E20 		.string	" -> "
 2004      00
 2005 00d5 000000   		.zero	3
 2006              	.LC15:
 2007 00d8 092D2D2D 		.string	"\t----END MEMORY META----\n"
 2007      2D454E44 
 2007      204D454D 
 2007      4F525920 
 2007      4D455441 
 2008 00f2 00000000 		.zero	6
 2008      0000
 2009              	.LC16:
 2010 00f8 2D2D2D2D 		.string	"-------END BUDDY STATUS-------\n"
 2010      2D2D2D45 
 2010      4E442042 
 2010      55444459 
 2010      20535441 
 2011              		.section	.sbss,"aw",@nobits
 2012              		.align	3
 2015              	_ZN5Buddy18BLOCK_SIZE_BIT_LENE:
 2016 0000 00       		.zero	1
 2017 0001 00000000 		.zero	7
 2017      000000
 2020              	_ZN5Buddy5buddyE:
 2021 0008 00000000 		.zero	8
 2021      00000000 
 2022              		.text
 2023              	.Letext0:
 2024              		.file 5 "src/kernel/mmanagement/../../../h/../h/../lib/hw.h"
 2025              		.file 6 "src/kernel/mmanagement/../../../h/../h/../h/../h/list.h"
 2026              		.file 7 "src/kernel/mmanagement/../../../h/../h/../h/object_cache.h"
 2027              		.file 8 "src/kernel/mmanagement/../../../h/../h/slab_allocator.h"
 2028              		.file 9 "src/kernel/mmanagement/../../../h/kernel_lib.h"
GAS LISTING /tmp/cciUv5bs.s 			page 51


DEFINED SYMBOLS
                            *ABS*:0000000000000000 buddy_allocator.cpp
     /tmp/cciUv5bs.s:12     .text:0000000000000000 _ZN5Buddy11getInstanceEv
     /tmp/cciUv5bs.s:16     .text:0000000000000000 .L0 
     /tmp/cciUv5bs.s:17     .text:0000000000000000 .L0 
     /tmp/cciUv5bs.s:18     .text:0000000000000004 .L0 
     /tmp/cciUv5bs.s:20     .text:0000000000000008 .L0 
     /tmp/cciUv5bs.s:22     .text:000000000000000c .L0 
     /tmp/cciUv5bs.s:24     .text:000000000000000c .L0 
     /tmp/cciUv5bs.s:25     .text:000000000000000c .L0 
     /tmp/cciUv5bs.s:2020   .sbss:0000000000000008 _ZN5Buddy5buddyE
     /tmp/cciUv5bs.s:26     .text:000000000000000c .L0 
     /tmp/cciUv5bs.s:29     .text:000000000000001c .L0 
     /tmp/cciUv5bs.s:30     .text:000000000000001c .L0 
     /tmp/cciUv5bs.s:32     .text:0000000000000020 .L0 
     /tmp/cciUv5bs.s:34     .text:0000000000000024 .L0 
     /tmp/cciUv5bs.s:40     .text:0000000000000024 _ZN5Buddy13get_from_listEh
     /tmp/cciUv5bs.s:43     .text:0000000000000024 .L0 
     /tmp/cciUv5bs.s:45     .text:0000000000000024 .L0 
     /tmp/cciUv5bs.s:46     .text:0000000000000028 .L0 
     /tmp/cciUv5bs.s:48     .text:000000000000002c .L0 
     /tmp/cciUv5bs.s:50     .text:0000000000000030 .L0 
     /tmp/cciUv5bs.s:52     .text:0000000000000030 .L0 
     /tmp/cciUv5bs.s:53     .text:0000000000000030 .L0 
     /tmp/cciUv5bs.s:55     .text:0000000000000034 .L0 
     /tmp/cciUv5bs.s:57     .text:0000000000000038 .L0 
     /tmp/cciUv5bs.s:58     .text:0000000000000038 .L0 
     /tmp/cciUv5bs.s:60     .text:000000000000003c .L0 
     /tmp/cciUv5bs.s:64     .text:0000000000000044 .L0 
     /tmp/cciUv5bs.s:67     .text:0000000000000048 .L0 
     /tmp/cciUv5bs.s:69     .text:000000000000004c .L0 
     /tmp/cciUv5bs.s:70     .text:000000000000004c .L0 
     /tmp/cciUv5bs.s:72     .text:0000000000000050 .L0 
     /tmp/cciUv5bs.s:74     .text:0000000000000054 .L0 
     /tmp/cciUv5bs.s:75     .text:0000000000000054 .L0 
     /tmp/cciUv5bs.s:78     .text:0000000000000058 .L0 
     /tmp/cciUv5bs.s:80     .text:000000000000005c .L0 
     /tmp/cciUv5bs.s:82     .text:0000000000000060 .L0 
     /tmp/cciUv5bs.s:84     .text:0000000000000064 .L0 
     /tmp/cciUv5bs.s:87     .text:0000000000000068 .L0 
     /tmp/cciUv5bs.s:88     .text:0000000000000068 .L0 
     /tmp/cciUv5bs.s:92     .text:000000000000006c .L0 
     /tmp/cciUv5bs.s:93     .text:000000000000006c .L0 
     /tmp/cciUv5bs.s:96     .text:0000000000000074 .L0 
     /tmp/cciUv5bs.s:97     .text:0000000000000074 .L0 
     /tmp/cciUv5bs.s:98     .text:0000000000000074 .L0 
     /tmp/cciUv5bs.s:100    .text:0000000000000078 .L0 
     /tmp/cciUv5bs.s:104    .text:000000000000007c .L0 
     /tmp/cciUv5bs.s:106    .text:000000000000007c .L0 
     /tmp/cciUv5bs.s:108    .text:0000000000000084 .L0 
     /tmp/cciUv5bs.s:114    .text:0000000000000084 _ZN5Buddy5splitEP7mmeta_t
     /tmp/cciUv5bs.s:117    .text:0000000000000084 .L0 
     /tmp/cciUv5bs.s:119    .text:0000000000000084 .L0 
     /tmp/cciUv5bs.s:120    .text:0000000000000088 .L0 
     /tmp/cciUv5bs.s:122    .text:000000000000008c .L0 
     /tmp/cciUv5bs.s:124    .text:0000000000000090 .L0 
     /tmp/cciUv5bs.s:126    .text:0000000000000090 .L0 
GAS LISTING /tmp/cciUv5bs.s 			page 52


     /tmp/cciUv5bs.s:127    .text:0000000000000090 .L0 
     /tmp/cciUv5bs.s:131    .text:000000000000009c .L0 
     /tmp/cciUv5bs.s:133    .text:00000000000000a0 .L0 
     /tmp/cciUv5bs.s:135    .text:00000000000000a4 .L0 
     /tmp/cciUv5bs.s:137    .text:00000000000000a8 .L0 
     /tmp/cciUv5bs.s:138    .text:00000000000000a8 .L0 
     /tmp/cciUv5bs.s:141    .text:00000000000000ac .L0 
     /tmp/cciUv5bs.s:143    .text:00000000000000b0 .L0 
     /tmp/cciUv5bs.s:146    .text:00000000000000b8 .L0 
     /tmp/cciUv5bs.s:149    .text:00000000000000bc .L0 
     /tmp/cciUv5bs.s:150    .text:00000000000000c0 .L0 
     /tmp/cciUv5bs.s:151    .text:00000000000000c0 .L0 
     /tmp/cciUv5bs.s:152    .text:00000000000000c0 .L0 
     /tmp/cciUv5bs.s:154    .text:00000000000000c4 .L0 
     /tmp/cciUv5bs.s:158    .text:00000000000000c8 .L0 
     /tmp/cciUv5bs.s:160    .text:00000000000000c8 .L0 
     /tmp/cciUv5bs.s:168    .text:00000000000000d8 .L0 
     /tmp/cciUv5bs.s:174    .text:00000000000000d8 _ZN5Buddy11get_bit_valEm
     /tmp/cciUv5bs.s:177    .text:00000000000000d8 .L0 
     /tmp/cciUv5bs.s:179    .text:00000000000000d8 .L0 
     /tmp/cciUv5bs.s:180    .text:00000000000000dc .L0 
     /tmp/cciUv5bs.s:182    .text:00000000000000e0 .L0 
     /tmp/cciUv5bs.s:184    .text:00000000000000e4 .L0 
     /tmp/cciUv5bs.s:186    .text:00000000000000e4 .L0 
     /tmp/cciUv5bs.s:187    .text:00000000000000e4 .L0 
     /tmp/cciUv5bs.s:190    .text:00000000000000e8 .L0 
     /tmp/cciUv5bs.s:191    .text:00000000000000e8 .L0 
     /tmp/cciUv5bs.s:193    .text:00000000000000ec .L0 
     /tmp/cciUv5bs.s:197    .text:00000000000000f4 .L0 
     /tmp/cciUv5bs.s:200    .text:00000000000000f8 .L0 
     /tmp/cciUv5bs.s:202    .text:00000000000000fc .L0 
     /tmp/cciUv5bs.s:204    .text:0000000000000104 .L0 
     /tmp/cciUv5bs.s:205    .text:0000000000000104 .L0 
     /tmp/cciUv5bs.s:207    .text:0000000000000108 .L0 
     /tmp/cciUv5bs.s:209    .text:000000000000010c .L0 
     /tmp/cciUv5bs.s:215    .text:000000000000010c _ZN5Buddy11add_to_listEhP7mmeta_t
     /tmp/cciUv5bs.s:218    .text:000000000000010c .L0 
     /tmp/cciUv5bs.s:220    .text:000000000000010c .L0 
     /tmp/cciUv5bs.s:221    .text:000000000000010c .L0 
     /tmp/cciUv5bs.s:222    .text:000000000000010c .L0 
     /tmp/cciUv5bs.s:224    .text:0000000000000110 .L0 
     /tmp/cciUv5bs.s:226    .text:0000000000000114 .L0 
     /tmp/cciUv5bs.s:228    .text:0000000000000118 .L0 
     /tmp/cciUv5bs.s:232    .text:0000000000000124 .L0 
     /tmp/cciUv5bs.s:234    .text:0000000000000128 .L0 
     /tmp/cciUv5bs.s:235    .text:000000000000012c .L0 
     /tmp/cciUv5bs.s:241    .text:0000000000000140 .L0 
     /tmp/cciUv5bs.s:242    .text:0000000000000140 .L0 
     /tmp/cciUv5bs.s:243    .text:0000000000000140 .L0 
     /tmp/cciUv5bs.s:244    .text:0000000000000140 .L0 
     /tmp/cciUv5bs.s:245    .text:0000000000000140 .L0 
     /tmp/cciUv5bs.s:247    .text:0000000000000144 .L0 
     /tmp/cciUv5bs.s:252    .text:0000000000000150 .L0 
     /tmp/cciUv5bs.s:253    .text:0000000000000150 .L0 
     /tmp/cciUv5bs.s:2015   .sbss:0000000000000000 _ZN5Buddy18BLOCK_SIZE_BIT_LENE
     /tmp/cciUv5bs.s:256    .text:0000000000000158 .L0 
     /tmp/cciUv5bs.s:262    .text:000000000000016c .L0 
GAS LISTING /tmp/cciUv5bs.s 			page 53


     /tmp/cciUv5bs.s:264    .text:0000000000000170 .L0 
     /tmp/cciUv5bs.s:265    .text:0000000000000170 .L0 
     /tmp/cciUv5bs.s:267    .text:0000000000000174 .L0 
     /tmp/cciUv5bs.s:271    .text:0000000000000180 .L0 
     /tmp/cciUv5bs.s:273    .text:0000000000000184 .L0 
     /tmp/cciUv5bs.s:274    .text:0000000000000184 .L0 
     /tmp/cciUv5bs.s:276    .text:0000000000000188 .L0 
     /tmp/cciUv5bs.s:277    .text:0000000000000188 .L0 
     /tmp/cciUv5bs.s:279    .text:000000000000018c .L0 
     /tmp/cciUv5bs.s:280    .text:000000000000018c .L0 
     /tmp/cciUv5bs.s:282    .text:0000000000000190 .L0 
     /tmp/cciUv5bs.s:285    .text:0000000000000198 .L0 
     /tmp/cciUv5bs.s:287    .text:000000000000019c .L0 
     /tmp/cciUv5bs.s:288    .text:000000000000019c .L0 
     /tmp/cciUv5bs.s:291    .text:00000000000001a0 .L0 
     /tmp/cciUv5bs.s:293    .text:00000000000001a4 .L0 
     /tmp/cciUv5bs.s:295    .text:00000000000001a8 .L0 
     /tmp/cciUv5bs.s:297    .text:00000000000001ac .L0 
     /tmp/cciUv5bs.s:298    .text:00000000000001ac .L0 
     /tmp/cciUv5bs.s:301    .text:00000000000001b0 .L0 
     /tmp/cciUv5bs.s:302    .text:00000000000001b4 .L0 
     /tmp/cciUv5bs.s:304    .text:00000000000001b8 .L0 
     /tmp/cciUv5bs.s:305    .text:00000000000001b8 .L0 
     /tmp/cciUv5bs.s:307    .text:00000000000001bc .L0 
     /tmp/cciUv5bs.s:310    .text:00000000000001c0 .L0 
     /tmp/cciUv5bs.s:313    .text:00000000000001c4 .L0 
     /tmp/cciUv5bs.s:315    .text:00000000000001c8 .L0 
     /tmp/cciUv5bs.s:320    .text:00000000000001cc .L0 
     /tmp/cciUv5bs.s:326    .text:00000000000001d4 .L0 
     /tmp/cciUv5bs.s:334    .text:00000000000001e0 .L0 
     /tmp/cciUv5bs.s:337    .text:00000000000001e4 .L0 
     /tmp/cciUv5bs.s:338    .text:00000000000001e4 .L0 
     /tmp/cciUv5bs.s:339    .text:00000000000001e4 .L0 
     /tmp/cciUv5bs.s:340    .text:00000000000001e4 .L0 
     /tmp/cciUv5bs.s:341    .text:00000000000001e4 .L0 
     /tmp/cciUv5bs.s:342    .text:00000000000001e4 .L0 
     /tmp/cciUv5bs.s:344    .text:00000000000001e4 .L0 
     /tmp/cciUv5bs.s:346    .text:00000000000001ec .L0 
     /tmp/cciUv5bs.s:352    .text:00000000000001ec _ZN5BuddyC2EPvh
     /tmp/cciUv5bs.s:355    .text:00000000000001ec .L0 
     /tmp/cciUv5bs.s:357    .text:00000000000001ec .L0 
     /tmp/cciUv5bs.s:358    .text:00000000000001f0 .L0 
     /tmp/cciUv5bs.s:364    .text:0000000000000204 .L0 
     /tmp/cciUv5bs.s:365    .text:0000000000000204 .L0 
     /tmp/cciUv5bs.s:366    .text:0000000000000204 .L0 
     /tmp/cciUv5bs.s:367    .text:0000000000000204 .L0 
     /tmp/cciUv5bs.s:368    .text:0000000000000204 .L0 
     /tmp/cciUv5bs.s:370    .text:0000000000000208 .L0 
     /tmp/cciUv5bs.s:375    .text:0000000000000210 .L0 
     /tmp/cciUv5bs.s:376    .text:0000000000000210 .L0 
     /tmp/cciUv5bs.s:378    .text:0000000000000214 .L0 
     /tmp/cciUv5bs.s:379    .text:0000000000000214 .L0 
     /tmp/cciUv5bs.s:384    .text:0000000000000218 .L0 
     /tmp/cciUv5bs.s:385    .text:0000000000000218 .L0 
     /tmp/cciUv5bs.s:386    .text:0000000000000218 .L0 
     /tmp/cciUv5bs.s:392    .text:0000000000000224 .L0 
     /tmp/cciUv5bs.s:393    .text:0000000000000224 .L0 
GAS LISTING /tmp/cciUv5bs.s 			page 54


     /tmp/cciUv5bs.s:396    .text:000000000000022c .L0 
     /tmp/cciUv5bs.s:399    .text:0000000000000230 .L0 
     /tmp/cciUv5bs.s:400    .text:0000000000000230 .L0 
     /tmp/cciUv5bs.s:405    .text:000000000000023c .L0 
     /tmp/cciUv5bs.s:406    .text:000000000000023c .L0 
     /tmp/cciUv5bs.s:407    .text:000000000000023c .L0 
     /tmp/cciUv5bs.s:410    .text:0000000000000248 .L0 
     /tmp/cciUv5bs.s:414    .text:0000000000000250 .L0 
     /tmp/cciUv5bs.s:415    .text:0000000000000250 .L0 
     /tmp/cciUv5bs.s:419    .text:000000000000025c .L0 
     /tmp/cciUv5bs.s:421    .text:0000000000000260 .L0 
     /tmp/cciUv5bs.s:424    .text:0000000000000260 .L0 
     /tmp/cciUv5bs.s:425    .text:0000000000000260 .L0 
     /tmp/cciUv5bs.s:429    .text:0000000000000264 .L0 
     /tmp/cciUv5bs.s:431    .text:0000000000000268 .L0 
     /tmp/cciUv5bs.s:433    .text:000000000000026c .L0 
     /tmp/cciUv5bs.s:435    .text:0000000000000270 .L0 
     /tmp/cciUv5bs.s:437    .text:0000000000000274 .L0 
     /tmp/cciUv5bs.s:443    .text:000000000000027c .L0 
     /tmp/cciUv5bs.s:444    .text:000000000000027c .L0 
     /tmp/cciUv5bs.s:446    .text:0000000000000280 .L0 
     /tmp/cciUv5bs.s:450    .text:000000000000028c .L0 
     /tmp/cciUv5bs.s:452    .text:0000000000000290 .L0 
     /tmp/cciUv5bs.s:455    .text:0000000000000290 .L0 
     /tmp/cciUv5bs.s:456    .text:0000000000000290 .L0 
     /tmp/cciUv5bs.s:460    .text:0000000000000294 .L0 
     /tmp/cciUv5bs.s:462    .text:0000000000000298 .L0 
     /tmp/cciUv5bs.s:464    .text:000000000000029c .L0 
     /tmp/cciUv5bs.s:466    .text:00000000000002a0 .L0 
     /tmp/cciUv5bs.s:468    .text:00000000000002a4 .L0 
     /tmp/cciUv5bs.s:471    .text:00000000000002ac .L0 
     /tmp/cciUv5bs.s:473    .text:00000000000002b0 .L0 
     /tmp/cciUv5bs.s:481    .text:00000000000002bc .L0 
     /tmp/cciUv5bs.s:483    .text:00000000000002c0 .L0 
     /tmp/cciUv5bs.s:488    .text:00000000000002cc .L0 
     /tmp/cciUv5bs.s:489    .text:00000000000002cc .L0 
     /tmp/cciUv5bs.s:497    .text:00000000000002e4 .L0 
     /tmp/cciUv5bs.s:502    .text:00000000000002e8 .L0 
     /tmp/cciUv5bs.s:503    .text:00000000000002ec .L0 
     /tmp/cciUv5bs.s:504    .text:00000000000002ec .L0 
     /tmp/cciUv5bs.s:506    .text:00000000000002f0 .L0 
     /tmp/cciUv5bs.s:507    .text:00000000000002f0 .L0 
     /tmp/cciUv5bs.s:509    .text:00000000000002f4 .L0 
     /tmp/cciUv5bs.s:511    .text:00000000000002f8 .L0 
     /tmp/cciUv5bs.s:514    .text:00000000000002fc .L0 
     /tmp/cciUv5bs.s:516    .text:0000000000000300 .L0 
     /tmp/cciUv5bs.s:520    .text:0000000000000304 .L0 
     /tmp/cciUv5bs.s:523    .text:0000000000000304 .L0 
     /tmp/cciUv5bs.s:524    .text:0000000000000304 .L0 
     /tmp/cciUv5bs.s:529    .text:0000000000000314 .L0 
     /tmp/cciUv5bs.s:530    .text:0000000000000314 .L0 
     /tmp/cciUv5bs.s:536    .text:0000000000000328 .L0 
     /tmp/cciUv5bs.s:537    .text:0000000000000328 .L0 
     /tmp/cciUv5bs.s:542    .text:0000000000000338 .L0 
     /tmp/cciUv5bs.s:543    .text:000000000000033c .L0 
     /tmp/cciUv5bs.s:352    .text:00000000000001ec _ZN5BuddyC1EPvh
     /tmp/cciUv5bs.s:551    .text:000000000000033c _ZN5Buddy9initalizeEPvh
GAS LISTING /tmp/cciUv5bs.s 			page 55


     /tmp/cciUv5bs.s:554    .text:000000000000033c .L0 
     /tmp/cciUv5bs.s:556    .text:000000000000033c .L0 
     /tmp/cciUv5bs.s:557    .text:0000000000000340 .L0 
     /tmp/cciUv5bs.s:563    .text:0000000000000354 .L0 
     /tmp/cciUv5bs.s:564    .text:0000000000000354 .L0 
     /tmp/cciUv5bs.s:565    .text:0000000000000354 .L0 
     /tmp/cciUv5bs.s:566    .text:0000000000000354 .L0 
     /tmp/cciUv5bs.s:567    .text:0000000000000354 .L0 
     /tmp/cciUv5bs.s:569    .text:0000000000000358 .L0 
     /tmp/cciUv5bs.s:573    .text:0000000000000360 .L0 
     /tmp/cciUv5bs.s:574    .text:0000000000000360 .L0 
     /tmp/cciUv5bs.s:579    .text:000000000000036c .L0 
     /tmp/cciUv5bs.s:583    .text:0000000000000374 .L0 
     /tmp/cciUv5bs.s:584    .text:0000000000000374 .L0 
     /tmp/cciUv5bs.s:585    .text:0000000000000374 .L0 
     /tmp/cciUv5bs.s:591    .text:0000000000000380 .L0 
     /tmp/cciUv5bs.s:592    .text:0000000000000380 .L0 
     /tmp/cciUv5bs.s:595    .text:0000000000000384 .L0 
     /tmp/cciUv5bs.s:597    .text:0000000000000388 .L0 
     /tmp/cciUv5bs.s:601    .text:000000000000038c .L0 
     /tmp/cciUv5bs.s:602    .text:0000000000000390 .L0 
     /tmp/cciUv5bs.s:603    .text:0000000000000390 .L0 
     /tmp/cciUv5bs.s:605    .text:0000000000000394 .L0 
     /tmp/cciUv5bs.s:606    .text:0000000000000394 .L0 
     /tmp/cciUv5bs.s:608    .text:0000000000000398 .L0 
     /tmp/cciUv5bs.s:611    .text:000000000000039c .L0 
     /tmp/cciUv5bs.s:613    .text:00000000000003a0 .L0 
     /tmp/cciUv5bs.s:615    .text:00000000000003a4 .L0 
     /tmp/cciUv5bs.s:619    .text:00000000000003a8 .L0 
     /tmp/cciUv5bs.s:624    .text:00000000000003a8 .L0 
     /tmp/cciUv5bs.s:625    .text:00000000000003a8 .L0 
     /tmp/cciUv5bs.s:626    .text:00000000000003a8 .L0 
     /tmp/cciUv5bs.s:631    .text:00000000000003b4 .L0 
     /tmp/cciUv5bs.s:634    .text:00000000000003bc .L0 
     /tmp/cciUv5bs.s:641    .text:00000000000003c0 .L0 
     /tmp/cciUv5bs.s:642    .text:00000000000003c0 .L0 
     /tmp/cciUv5bs.s:650    .text:00000000000003d0 .L0 
     /tmp/cciUv5bs.s:655    .text:00000000000003e0 .L0 
     /tmp/cciUv5bs.s:657    .text:00000000000003e8 .L0 
     /tmp/cciUv5bs.s:659    .text:00000000000003ec .L0 
     /tmp/cciUv5bs.s:663    .text:00000000000003f4 .L0 
     /tmp/cciUv5bs.s:665    .text:00000000000003fc .L0 
     /tmp/cciUv5bs.s:671    .text:00000000000003fc _ZN5Buddy16remove_from_listEhP7mmeta_t
     /tmp/cciUv5bs.s:674    .text:00000000000003fc .L0 
     /tmp/cciUv5bs.s:676    .text:00000000000003fc .L0 
     /tmp/cciUv5bs.s:677    .text:00000000000003fc .L0 
     /tmp/cciUv5bs.s:678    .text:00000000000003fc .L0 
     /tmp/cciUv5bs.s:680    .text:0000000000000400 .L0 
     /tmp/cciUv5bs.s:682    .text:0000000000000404 .L0 
     /tmp/cciUv5bs.s:684    .text:0000000000000408 .L0 
     /tmp/cciUv5bs.s:688    .text:0000000000000414 .L0 
     /tmp/cciUv5bs.s:690    .text:0000000000000418 .L0 
     /tmp/cciUv5bs.s:691    .text:000000000000041c .L0 
     /tmp/cciUv5bs.s:697    .text:0000000000000430 .L0 
     /tmp/cciUv5bs.s:698    .text:0000000000000430 .L0 
     /tmp/cciUv5bs.s:699    .text:0000000000000430 .L0 
     /tmp/cciUv5bs.s:700    .text:0000000000000430 .L0 
GAS LISTING /tmp/cciUv5bs.s 			page 56


     /tmp/cciUv5bs.s:701    .text:0000000000000430 .L0 
     /tmp/cciUv5bs.s:703    .text:0000000000000434 .L0 
     /tmp/cciUv5bs.s:708    .text:0000000000000440 .L0 
     /tmp/cciUv5bs.s:709    .text:0000000000000440 .L0 
     /tmp/cciUv5bs.s:712    .text:0000000000000448 .L0 
     /tmp/cciUv5bs.s:718    .text:000000000000045c .L0 
     /tmp/cciUv5bs.s:720    .text:0000000000000460 .L0 
     /tmp/cciUv5bs.s:721    .text:0000000000000460 .L0 
     /tmp/cciUv5bs.s:723    .text:0000000000000464 .L0 
     /tmp/cciUv5bs.s:725    .text:0000000000000468 .L0 
     /tmp/cciUv5bs.s:726    .text:0000000000000468 .L0 
     /tmp/cciUv5bs.s:728    .text:000000000000046c .L0 
     /tmp/cciUv5bs.s:732    .text:0000000000000478 .L0 
     /tmp/cciUv5bs.s:734    .text:000000000000047c .L0 
     /tmp/cciUv5bs.s:735    .text:000000000000047c .L0 
     /tmp/cciUv5bs.s:737    .text:0000000000000480 .L0 
     /tmp/cciUv5bs.s:739    .text:0000000000000484 .L0 
     /tmp/cciUv5bs.s:741    .text:0000000000000488 .L0 
     /tmp/cciUv5bs.s:743    .text:000000000000048c .L0 
     /tmp/cciUv5bs.s:744    .text:000000000000048c .L0 
     /tmp/cciUv5bs.s:746    .text:0000000000000490 .L0 
     /tmp/cciUv5bs.s:749    .text:0000000000000494 .L0 
     /tmp/cciUv5bs.s:750    .text:0000000000000494 .L0 
     /tmp/cciUv5bs.s:752    .text:0000000000000498 .L0 
     /tmp/cciUv5bs.s:754    .text:000000000000049c .L0 
     /tmp/cciUv5bs.s:755    .text:000000000000049c .L0 
     /tmp/cciUv5bs.s:758    .text:00000000000004a0 .L0 
     /tmp/cciUv5bs.s:759    .text:00000000000004a4 .L0 
     /tmp/cciUv5bs.s:760    .text:00000000000004a4 .L0 
     /tmp/cciUv5bs.s:762    .text:00000000000004a8 .L0 
     /tmp/cciUv5bs.s:763    .text:00000000000004a8 .L0 
     /tmp/cciUv5bs.s:765    .text:00000000000004ac .L0 
     /tmp/cciUv5bs.s:768    .text:00000000000004b0 .L0 
     /tmp/cciUv5bs.s:771    .text:00000000000004b4 .L0 
     /tmp/cciUv5bs.s:773    .text:00000000000004b8 .L0 
     /tmp/cciUv5bs.s:777    .text:00000000000004bc .L0 
     /tmp/cciUv5bs.s:779    .text:00000000000004bc .L0 
     /tmp/cciUv5bs.s:780    .text:00000000000004bc .L0 
     /tmp/cciUv5bs.s:785    .text:00000000000004cc .L0 
     /tmp/cciUv5bs.s:786    .text:00000000000004cc .L0 
     /tmp/cciUv5bs.s:790    .text:00000000000004d4 .L0 
     /tmp/cciUv5bs.s:791    .text:00000000000004d4 .L0 
     /tmp/cciUv5bs.s:792    .text:00000000000004d4 .L0 
     /tmp/cciUv5bs.s:793    .text:00000000000004d4 .L0 
     /tmp/cciUv5bs.s:794    .text:00000000000004d4 .L0 
     /tmp/cciUv5bs.s:795    .text:00000000000004d4 .L0 
     /tmp/cciUv5bs.s:797    .text:00000000000004d4 .L0 
     /tmp/cciUv5bs.s:803    .text:00000000000004dc .L0 
     /tmp/cciUv5bs.s:811    .text:00000000000004e8 .L0 
     /tmp/cciUv5bs.s:814    .text:00000000000004ec .L0 
     /tmp/cciUv5bs.s:815    .text:00000000000004ec .L0 
     /tmp/cciUv5bs.s:816    .text:00000000000004ec .L0 
     /tmp/cciUv5bs.s:817    .text:00000000000004ec .L0 
     /tmp/cciUv5bs.s:818    .text:00000000000004ec .L0 
     /tmp/cciUv5bs.s:819    .text:00000000000004ec .L0 
     /tmp/cciUv5bs.s:821    .text:00000000000004ec .L0 
     /tmp/cciUv5bs.s:825    .text:00000000000004f4 .L0 
GAS LISTING /tmp/cciUv5bs.s 			page 57


     /tmp/cciUv5bs.s:827    .text:00000000000004fc .L0 
     /tmp/cciUv5bs.s:833    .text:00000000000004fc _ZN5Buddy7set_bitEm
     /tmp/cciUv5bs.s:836    .text:00000000000004fc .L0 
     /tmp/cciUv5bs.s:838    .text:00000000000004fc .L0 
     /tmp/cciUv5bs.s:839    .text:0000000000000500 .L0 
     /tmp/cciUv5bs.s:841    .text:0000000000000504 .L0 
     /tmp/cciUv5bs.s:843    .text:0000000000000508 .L0 
     /tmp/cciUv5bs.s:845    .text:0000000000000508 .L0 
     /tmp/cciUv5bs.s:846    .text:0000000000000508 .L0 
     /tmp/cciUv5bs.s:849    .text:000000000000050c .L0 
     /tmp/cciUv5bs.s:851    .text:0000000000000510 .L0 
     /tmp/cciUv5bs.s:853    .text:0000000000000514 .L0 
     /tmp/cciUv5bs.s:856    .text:0000000000000518 .L0 
     /tmp/cciUv5bs.s:860    .text:0000000000000520 .L0 
     /tmp/cciUv5bs.s:864    .text:000000000000052c .L0 
     /tmp/cciUv5bs.s:865    .text:0000000000000530 .L0 
     /tmp/cciUv5bs.s:866    .text:0000000000000530 .L0 
     /tmp/cciUv5bs.s:868    .text:0000000000000534 .L0 
     /tmp/cciUv5bs.s:870    .text:0000000000000538 .L0 
     /tmp/cciUv5bs.s:876    .text:0000000000000538 _ZN5Buddy7clr_bitEm
     /tmp/cciUv5bs.s:879    .text:0000000000000538 .L0 
     /tmp/cciUv5bs.s:881    .text:0000000000000538 .L0 
     /tmp/cciUv5bs.s:882    .text:000000000000053c .L0 
     /tmp/cciUv5bs.s:884    .text:0000000000000540 .L0 
     /tmp/cciUv5bs.s:886    .text:0000000000000544 .L0 
     /tmp/cciUv5bs.s:888    .text:0000000000000544 .L0 
     /tmp/cciUv5bs.s:889    .text:0000000000000544 .L0 
     /tmp/cciUv5bs.s:892    .text:0000000000000548 .L0 
     /tmp/cciUv5bs.s:894    .text:000000000000054c .L0 
     /tmp/cciUv5bs.s:896    .text:0000000000000550 .L0 
     /tmp/cciUv5bs.s:899    .text:0000000000000554 .L0 
     /tmp/cciUv5bs.s:903    .text:000000000000055c .L0 
     /tmp/cciUv5bs.s:908    .text:000000000000056c .L0 
     /tmp/cciUv5bs.s:909    .text:0000000000000570 .L0 
     /tmp/cciUv5bs.s:910    .text:0000000000000570 .L0 
     /tmp/cciUv5bs.s:912    .text:0000000000000574 .L0 
     /tmp/cciUv5bs.s:914    .text:0000000000000578 .L0 
     /tmp/cciUv5bs.s:920    .text:0000000000000578 _ZN5Buddy9mem_allocEh
     /tmp/cciUv5bs.s:923    .text:0000000000000578 .L0 
     /tmp/cciUv5bs.s:925    .text:0000000000000578 .L0 
     /tmp/cciUv5bs.s:926    .text:000000000000057c .L0 
     /tmp/cciUv5bs.s:934    .text:0000000000000598 .L0 
     /tmp/cciUv5bs.s:935    .text:0000000000000598 .L0 
     /tmp/cciUv5bs.s:936    .text:0000000000000598 .L0 
     /tmp/cciUv5bs.s:937    .text:0000000000000598 .L0 
     /tmp/cciUv5bs.s:938    .text:0000000000000598 .L0 
     /tmp/cciUv5bs.s:939    .text:0000000000000598 .L0 
     /tmp/cciUv5bs.s:940    .text:0000000000000598 .L0 
     /tmp/cciUv5bs.s:942    .text:000000000000059c .L0 
     /tmp/cciUv5bs.s:944    .text:000000000000059c .L0 
     /tmp/cciUv5bs.s:945    .text:000000000000059c .L0 
     /tmp/cciUv5bs.s:947    .text:00000000000005a0 .L0 
     /tmp/cciUv5bs.s:949    .text:00000000000005a4 .L0 
     /tmp/cciUv5bs.s:953    .text:00000000000005a8 .L0 
     /tmp/cciUv5bs.s:954    .text:00000000000005a8 .L0 
     /tmp/cciUv5bs.s:957    .text:00000000000005b0 .L0 
     /tmp/cciUv5bs.s:958    .text:00000000000005b0 .L0 
GAS LISTING /tmp/cciUv5bs.s 			page 58


     /tmp/cciUv5bs.s:960    .text:00000000000005b4 .L0 
     /tmp/cciUv5bs.s:964    .text:00000000000005c0 .L0 
     /tmp/cciUv5bs.s:966    .text:00000000000005c4 .L0 
     /tmp/cciUv5bs.s:973    .text:00000000000005d0 .L0 
     /tmp/cciUv5bs.s:977    .text:00000000000005dc .L0 
     /tmp/cciUv5bs.s:978    .text:00000000000005dc .L0 
     /tmp/cciUv5bs.s:987    .text:00000000000005ec .L0 
     /tmp/cciUv5bs.s:988    .text:00000000000005ec .L0 
     /tmp/cciUv5bs.s:991    .text:00000000000005f0 .L0 
     /tmp/cciUv5bs.s:992    .text:00000000000005f0 .L0 
     /tmp/cciUv5bs.s:999    .text:0000000000000604 .L0 
     /tmp/cciUv5bs.s:1000   .text:0000000000000604 .L0 
     /tmp/cciUv5bs.s:1003   .text:000000000000060c .L0 
     /tmp/cciUv5bs.s:1010   .text:0000000000000624 .L0 
     /tmp/cciUv5bs.s:1011   .text:0000000000000624 .L0 
     /tmp/cciUv5bs.s:1020   .text:0000000000000640 .L0 
     /tmp/cciUv5bs.s:1021   .text:0000000000000640 .L0 
     /tmp/cciUv5bs.s:1023   .text:0000000000000644 .L0 
     /tmp/cciUv5bs.s:1028   .text:000000000000064c .L0 
     /tmp/cciUv5bs.s:1033   .text:0000000000000650 .L0 
     /tmp/cciUv5bs.s:1034   .text:0000000000000650 .L0 
     /tmp/cciUv5bs.s:1037   .text:0000000000000658 .L0 
     /tmp/cciUv5bs.s:1044   .text:0000000000000670 .L0 
     /tmp/cciUv5bs.s:1045   .text:0000000000000670 .L0 
     /tmp/cciUv5bs.s:1047   .text:0000000000000678 .L0 
     /tmp/cciUv5bs.s:1048   .text:0000000000000678 .L0 
     /tmp/cciUv5bs.s:1050   .text:000000000000067c .L0 
     /tmp/cciUv5bs.s:1051   .text:000000000000067c .L0 
     /tmp/cciUv5bs.s:1053   .text:0000000000000680 .L0 
     /tmp/cciUv5bs.s:1055   .text:0000000000000684 .L0 
     /tmp/cciUv5bs.s:1057   .text:0000000000000688 .L0 
     /tmp/cciUv5bs.s:1059   .text:000000000000068c .L0 
     /tmp/cciUv5bs.s:1061   .text:0000000000000690 .L0 
     /tmp/cciUv5bs.s:1063   .text:0000000000000694 .L0 
     /tmp/cciUv5bs.s:1067   .text:0000000000000698 .L0 
     /tmp/cciUv5bs.s:1069   .text:0000000000000698 .L0 
     /tmp/cciUv5bs.s:1074   .text:00000000000006a0 .L0 
     /tmp/cciUv5bs.s:1076   .text:00000000000006a8 .L0 
     /tmp/cciUv5bs.s:1082   .text:00000000000006a8 _Z3kmiv
     /tmp/cciUv5bs.s:1085   .text:00000000000006a8 .L0 
     /tmp/cciUv5bs.s:1086   .text:00000000000006a8 .L0 
     /tmp/cciUv5bs.s:1087   .text:00000000000006ac .L0 
     /tmp/cciUv5bs.s:1092   .text:00000000000006bc .L0 
     /tmp/cciUv5bs.s:1093   .text:00000000000006bc .L0 
     /tmp/cciUv5bs.s:1094   .text:00000000000006bc .L0 
     /tmp/cciUv5bs.s:1095   .text:00000000000006bc .L0 
     /tmp/cciUv5bs.s:1097   .text:00000000000006c0 .L0 
     /tmp/cciUv5bs.s:1101   .text:00000000000006c0 .L0 
     /tmp/cciUv5bs.s:1102   .text:00000000000006c0 .L0 
     /tmp/cciUv5bs.s:1103   .text:00000000000006c0 .L0 
     /tmp/cciUv5bs.s:1108   .text:00000000000006cc .L0 
     /tmp/cciUv5bs.s:1111   .text:00000000000006d0 .L0 
     /tmp/cciUv5bs.s:1112   .text:00000000000006d0 .L0 
     /tmp/cciUv5bs.s:1116   .text:00000000000006e0 .L0 
     /tmp/cciUv5bs.s:1119   .text:00000000000006e4 .L0 
     /tmp/cciUv5bs.s:1121   .text:00000000000006e8 .L0 
     /tmp/cciUv5bs.s:1122   .text:00000000000006e8 .L0 
GAS LISTING /tmp/cciUv5bs.s 			page 59


     /tmp/cciUv5bs.s:1124   .text:00000000000006ec .L0 
     /tmp/cciUv5bs.s:1129   .text:00000000000006f8 .L0 
     /tmp/cciUv5bs.s:1132   .text:00000000000006fc .L0 
     /tmp/cciUv5bs.s:1133   .text:00000000000006fc .L0 
     /tmp/cciUv5bs.s:1140   .text:0000000000000710 .L0 
     /tmp/cciUv5bs.s:1141   .text:0000000000000710 .L0 
     /tmp/cciUv5bs.s:1149   .text:0000000000000724 .L0 
     /tmp/cciUv5bs.s:1153   .text:0000000000000728 .L0 
     /tmp/cciUv5bs.s:1155   .text:0000000000000730 .L0 
     /tmp/cciUv5bs.s:1156   .text:0000000000000730 .L0 
     /tmp/cciUv5bs.s:1158   .text:0000000000000734 .L0 
     /tmp/cciUv5bs.s:1159   .text:0000000000000734 .L0 
     /tmp/cciUv5bs.s:1161   .text:0000000000000738 .L0 
     /tmp/cciUv5bs.s:1163   .text:000000000000073c .L0 
     /tmp/cciUv5bs.s:1166   .text:0000000000000740 .L0 
     /tmp/cciUv5bs.s:1170   .text:0000000000000744 .L0 
     /tmp/cciUv5bs.s:1172   .text:0000000000000744 .L0 
     /tmp/cciUv5bs.s:1173   .text:0000000000000744 .L0 
     /tmp/cciUv5bs.s:1179   .text:0000000000000750 .L0 
     /tmp/cciUv5bs.s:1181   .text:0000000000000758 .L0 
     /tmp/cciUv5bs.s:1187   .text:0000000000000758 _ZN5Buddy8print_beEm
     /tmp/cciUv5bs.s:1190   .text:0000000000000758 .L0 
     /tmp/cciUv5bs.s:1192   .text:0000000000000758 .L0 
     /tmp/cciUv5bs.s:1193   .text:000000000000075c .L0 
     /tmp/cciUv5bs.s:1198   .text:000000000000076c .L0 
     /tmp/cciUv5bs.s:1199   .text:000000000000076c .L0 
     /tmp/cciUv5bs.s:1200   .text:000000000000076c .L0 
     /tmp/cciUv5bs.s:1201   .text:000000000000076c .L0 
     /tmp/cciUv5bs.s:1203   .text:0000000000000770 .L0 
     /tmp/cciUv5bs.s:1207   .text:0000000000000778 .L0 
     /tmp/cciUv5bs.s:1208   .text:0000000000000778 .L0 
     /tmp/cciUv5bs.s:1213   .text:0000000000000788 .L0 
     /tmp/cciUv5bs.s:1214   .text:0000000000000788 .L0 
     /tmp/cciUv5bs.s:1220   .text:000000000000079c .L0 
     /tmp/cciUv5bs.s:1221   .text:000000000000079c .L0 
     /tmp/cciUv5bs.s:1225   .text:00000000000007ac .L0 
     /tmp/cciUv5bs.s:1226   .text:00000000000007ac .L0 
     /tmp/cciUv5bs.s:1231   .text:00000000000007bc .L0 
     /tmp/cciUv5bs.s:1233   .text:00000000000007c0 .L0 
     /tmp/cciUv5bs.s:1234   .text:00000000000007c0 .L0 
     /tmp/cciUv5bs.s:1240   .text:00000000000007d0 .L0 
     /tmp/cciUv5bs.s:1241   .text:00000000000007d4 .L0 
     /tmp/cciUv5bs.s:1242   .text:00000000000007d4 .L0 
     /tmp/cciUv5bs.s:1244   .text:00000000000007d8 .L0 
     /tmp/cciUv5bs.s:1245   .text:00000000000007d8 .L0 
     /tmp/cciUv5bs.s:1247   .text:00000000000007dc .L0 
     /tmp/cciUv5bs.s:1250   .text:00000000000007e0 .L0 
     /tmp/cciUv5bs.s:1253   .text:00000000000007e4 .L0 
     /tmp/cciUv5bs.s:1257   .text:00000000000007e8 .L0 
     /tmp/cciUv5bs.s:1259   .text:00000000000007e8 .L0 
     /tmp/cciUv5bs.s:1260   .text:00000000000007e8 .L0 
     /tmp/cciUv5bs.s:1265   .text:00000000000007f8 .L0 
     /tmp/cciUv5bs.s:1266   .text:00000000000007fc .L0 
     /tmp/cciUv5bs.s:1272   .text:00000000000007fc _ZN5Buddy12status_printEb
     /tmp/cciUv5bs.s:1275   .text:00000000000007fc .L0 
     /tmp/cciUv5bs.s:1277   .text:00000000000007fc .L0 
     /tmp/cciUv5bs.s:1278   .text:0000000000000800 .L0 
GAS LISTING /tmp/cciUv5bs.s 			page 60


     /tmp/cciUv5bs.s:1285   .text:0000000000000818 .L0 
     /tmp/cciUv5bs.s:1286   .text:0000000000000818 .L0 
     /tmp/cciUv5bs.s:1287   .text:0000000000000818 .L0 
     /tmp/cciUv5bs.s:1288   .text:0000000000000818 .L0 
     /tmp/cciUv5bs.s:1289   .text:0000000000000818 .L0 
     /tmp/cciUv5bs.s:1290   .text:0000000000000818 .L0 
     /tmp/cciUv5bs.s:1292   .text:000000000000081c .L0 
     /tmp/cciUv5bs.s:1294   .text:000000000000081c .L0 
     /tmp/cciUv5bs.s:1295   .text:000000000000081c .L0 
     /tmp/cciUv5bs.s:1298   .text:0000000000000828 .L0 
     /tmp/cciUv5bs.s:1302   .text:0000000000000834 .L0 
     /tmp/cciUv5bs.s:1303   .text:0000000000000834 .L0 
     /tmp/cciUv5bs.s:1308   .text:0000000000000844 .L0 
     /tmp/cciUv5bs.s:1312   .text:0000000000000854 .L0 
     /tmp/cciUv5bs.s:1319   .text:0000000000000870 .L0 
     /tmp/cciUv5bs.s:1323   .text:0000000000000880 .L0 
     /tmp/cciUv5bs.s:1327   .text:0000000000000890 .L0 
     /tmp/cciUv5bs.s:1333   .text:00000000000008a4 .L0 
     /tmp/cciUv5bs.s:1337   .text:00000000000008b4 .L0 
     /tmp/cciUv5bs.s:1341   .text:00000000000008c4 .L0 
     /tmp/cciUv5bs.s:1347   .text:00000000000008d8 .L0 
     /tmp/cciUv5bs.s:1351   .text:00000000000008e8 .L0 
     /tmp/cciUv5bs.s:1352   .text:00000000000008e8 .L0 
     /tmp/cciUv5bs.s:1357   .text:00000000000008f8 .L0 
     /tmp/cciUv5bs.s:1358   .text:00000000000008f8 .L0 
     /tmp/cciUv5bs.s:1364   .text:0000000000000900 .L0 
     /tmp/cciUv5bs.s:1365   .text:0000000000000900 .L0 
     /tmp/cciUv5bs.s:1370   .text:0000000000000910 .L0 
     /tmp/cciUv5bs.s:1377   .text:0000000000000914 .L0 
     /tmp/cciUv5bs.s:1378   .text:0000000000000914 .L0 
     /tmp/cciUv5bs.s:1383   .text:0000000000000924 .L0 
     /tmp/cciUv5bs.s:1387   .text:0000000000000928 .L0 
     /tmp/cciUv5bs.s:1389   .text:000000000000092c .L0 
     /tmp/cciUv5bs.s:1390   .text:000000000000092c .L0 
     /tmp/cciUv5bs.s:1396   .text:0000000000000940 .L0 
     /tmp/cciUv5bs.s:1397   .text:0000000000000940 .L0 
     /tmp/cciUv5bs.s:1399   .text:0000000000000944 .L0 
     /tmp/cciUv5bs.s:1404   .text:000000000000094c .L0 
     /tmp/cciUv5bs.s:1405   .text:000000000000094c .L0 
     /tmp/cciUv5bs.s:1410   .text:000000000000095c .L0 
     /tmp/cciUv5bs.s:1416   .text:0000000000000964 .L0 
     /tmp/cciUv5bs.s:1418   .text:0000000000000968 .L0 
     /tmp/cciUv5bs.s:1421   .text:000000000000096c .L0 
     /tmp/cciUv5bs.s:1422   .text:000000000000096c .L0 
     /tmp/cciUv5bs.s:1426   .text:000000000000097c .L0 
     /tmp/cciUv5bs.s:1430   .text:000000000000098c .L0 
     /tmp/cciUv5bs.s:1436   .text:00000000000009a0 .L0 
     /tmp/cciUv5bs.s:1440   .text:00000000000009b0 .L0 
     /tmp/cciUv5bs.s:1450   .text:00000000000009d4 .L0 
     /tmp/cciUv5bs.s:1454   .text:00000000000009e4 .L0 
     /tmp/cciUv5bs.s:1455   .text:00000000000009e4 .L0 
     /tmp/cciUv5bs.s:1460   .text:00000000000009f4 .L0 
     /tmp/cciUv5bs.s:1461   .text:00000000000009f4 .L0 
     /tmp/cciUv5bs.s:1463   .text:00000000000009f8 .L0 
     /tmp/cciUv5bs.s:1465   .text:00000000000009fc .L0 
     /tmp/cciUv5bs.s:1474   .text:0000000000000a04 .L0 
     /tmp/cciUv5bs.s:1475   .text:0000000000000a04 .L0 
GAS LISTING /tmp/cciUv5bs.s 			page 61


     /tmp/cciUv5bs.s:1480   .text:0000000000000a14 .L0 
     /tmp/cciUv5bs.s:1483   .text:0000000000000a18 .L0 
     /tmp/cciUv5bs.s:1488   .text:0000000000000a20 .L0 
     /tmp/cciUv5bs.s:1492   .text:0000000000000a24 .L0 
     /tmp/cciUv5bs.s:1494   .text:0000000000000a28 .L0 
     /tmp/cciUv5bs.s:1497   .text:0000000000000a30 .L0 
     /tmp/cciUv5bs.s:1499   .text:0000000000000a34 .L0 
     /tmp/cciUv5bs.s:1500   .text:0000000000000a34 .L0 
     /tmp/cciUv5bs.s:1505   .text:0000000000000a44 .L0 
     /tmp/cciUv5bs.s:1507   .text:0000000000000a48 .L0 
     /tmp/cciUv5bs.s:1508   .text:0000000000000a48 .L0 
     /tmp/cciUv5bs.s:1512   .text:0000000000000a58 .L0 
     /tmp/cciUv5bs.s:1513   .text:0000000000000a58 .L0 
     /tmp/cciUv5bs.s:1518   .text:0000000000000a68 .L0 
     /tmp/cciUv5bs.s:1519   .text:0000000000000a68 .L0 
     /tmp/cciUv5bs.s:1528   .text:0000000000000a7c .L0 
     /tmp/cciUv5bs.s:1529   .text:0000000000000a7c .L0 
     /tmp/cciUv5bs.s:1533   .text:0000000000000a8c .L0 
     /tmp/cciUv5bs.s:1534   .text:0000000000000a8c .L0 
     /tmp/cciUv5bs.s:1539   .text:0000000000000a9c .L0 
     /tmp/cciUv5bs.s:1540   .text:0000000000000aa0 .L0 
     /tmp/cciUv5bs.s:1542   .text:0000000000000aa4 .L0 
     /tmp/cciUv5bs.s:1543   .text:0000000000000aa4 .L0 
     /tmp/cciUv5bs.s:1545   .text:0000000000000aa8 .L0 
     /tmp/cciUv5bs.s:1547   .text:0000000000000aac .L0 
     /tmp/cciUv5bs.s:1549   .text:0000000000000ab0 .L0 
     /tmp/cciUv5bs.s:1551   .text:0000000000000ab4 .L0 
     /tmp/cciUv5bs.s:1553   .text:0000000000000ab8 .L0 
     /tmp/cciUv5bs.s:1555   .text:0000000000000abc .L0 
     /tmp/cciUv5bs.s:1562   .text._Z4swapImEvRT_S1_:0000000000000000 _Z4swapImEvRT_S1_
     /tmp/cciUv5bs.s:1566   .text._Z4swapImEvRT_S1_:0000000000000000 .L0 
     /tmp/cciUv5bs.s:1568   .text._Z4swapImEvRT_S1_:0000000000000000 .L0 
     /tmp/cciUv5bs.s:1569   .text._Z4swapImEvRT_S1_:0000000000000004 .L0 
     /tmp/cciUv5bs.s:1571   .text._Z4swapImEvRT_S1_:0000000000000008 .L0 
     /tmp/cciUv5bs.s:1573   .text._Z4swapImEvRT_S1_:000000000000000c .L0 
     /tmp/cciUv5bs.s:1575   .text._Z4swapImEvRT_S1_:000000000000000c .L0 
     /tmp/cciUv5bs.s:1578   .text._Z4swapImEvRT_S1_:0000000000000010 .L0 
     /tmp/cciUv5bs.s:1581   .text._Z4swapImEvRT_S1_:0000000000000018 .L0 
     /tmp/cciUv5bs.s:1583   .text._Z4swapImEvRT_S1_:000000000000001c .L0 
     /tmp/cciUv5bs.s:1584   .text._Z4swapImEvRT_S1_:0000000000000020 .L0 
     /tmp/cciUv5bs.s:1585   .text._Z4swapImEvRT_S1_:0000000000000020 .L0 
     /tmp/cciUv5bs.s:1587   .text._Z4swapImEvRT_S1_:0000000000000024 .L0 
     /tmp/cciUv5bs.s:1589   .text._Z4swapImEvRT_S1_:0000000000000028 .L0 
     /tmp/cciUv5bs.s:1596   .text._Z4swapIP7mmeta_tEvRT_S3_:0000000000000000 _Z4swapIP7mmeta_tEvRT_S3_
     /tmp/cciUv5bs.s:1599   .text._Z4swapIP7mmeta_tEvRT_S3_:0000000000000000 .L0 
     /tmp/cciUv5bs.s:1601   .text._Z4swapIP7mmeta_tEvRT_S3_:0000000000000000 .L0 
     /tmp/cciUv5bs.s:1602   .text._Z4swapIP7mmeta_tEvRT_S3_:0000000000000004 .L0 
     /tmp/cciUv5bs.s:1604   .text._Z4swapIP7mmeta_tEvRT_S3_:0000000000000008 .L0 
     /tmp/cciUv5bs.s:1606   .text._Z4swapIP7mmeta_tEvRT_S3_:000000000000000c .L0 
     /tmp/cciUv5bs.s:1608   .text._Z4swapIP7mmeta_tEvRT_S3_:000000000000000c .L0 
     /tmp/cciUv5bs.s:1611   .text._Z4swapIP7mmeta_tEvRT_S3_:0000000000000010 .L0 
     /tmp/cciUv5bs.s:1614   .text._Z4swapIP7mmeta_tEvRT_S3_:0000000000000018 .L0 
     /tmp/cciUv5bs.s:1616   .text._Z4swapIP7mmeta_tEvRT_S3_:000000000000001c .L0 
     /tmp/cciUv5bs.s:1617   .text._Z4swapIP7mmeta_tEvRT_S3_:0000000000000020 .L0 
     /tmp/cciUv5bs.s:1618   .text._Z4swapIP7mmeta_tEvRT_S3_:0000000000000020 .L0 
     /tmp/cciUv5bs.s:1620   .text._Z4swapIP7mmeta_tEvRT_S3_:0000000000000024 .L0 
     /tmp/cciUv5bs.s:1622   .text._Z4swapIP7mmeta_tEvRT_S3_:0000000000000028 .L0 
GAS LISTING /tmp/cciUv5bs.s 			page 62


     /tmp/cciUv5bs.s:1629   .text:0000000000000abc _ZN5Buddy8merge_ipEP7mmeta_t
     /tmp/cciUv5bs.s:1632   .text:0000000000000abc .L0 
     /tmp/cciUv5bs.s:1634   .text:0000000000000abc .L0 
     /tmp/cciUv5bs.s:1635   .text:0000000000000ac0 .L0 
     /tmp/cciUv5bs.s:1642   .text:0000000000000ad8 .L0 
     /tmp/cciUv5bs.s:1643   .text:0000000000000ad8 .L0 
     /tmp/cciUv5bs.s:1644   .text:0000000000000ad8 .L0 
     /tmp/cciUv5bs.s:1645   .text:0000000000000ad8 .L0 
     /tmp/cciUv5bs.s:1646   .text:0000000000000ad8 .L0 
     /tmp/cciUv5bs.s:1647   .text:0000000000000ad8 .L0 
     /tmp/cciUv5bs.s:1649   .text:0000000000000adc .L0 
     /tmp/cciUv5bs.s:1653   .text:0000000000000ae4 .L0 
     /tmp/cciUv5bs.s:1654   .text:0000000000000ae4 .L0 
     /tmp/cciUv5bs.s:1659   .text:0000000000000af8 .L0 
     /tmp/cciUv5bs.s:1661   .text:0000000000000afc .L0 
     /tmp/cciUv5bs.s:1662   .text:0000000000000afc .L0 
     /tmp/cciUv5bs.s:1663   .text:0000000000000afc .L0 
     /tmp/cciUv5bs.s:1665   .text:0000000000000b00 .L0 
     /tmp/cciUv5bs.s:1668   .text:0000000000000b08 .L0 
     /tmp/cciUv5bs.s:1670   .text:0000000000000b0c .L0 
     /tmp/cciUv5bs.s:1672   .text:0000000000000b10 .L0 
     /tmp/cciUv5bs.s:1673   .text:0000000000000b10 .L0 
     /tmp/cciUv5bs.s:1678   .text:0000000000000b1c .L0 
     /tmp/cciUv5bs.s:1680   .text:0000000000000b20 .L0 
     /tmp/cciUv5bs.s:1681   .text:0000000000000b20 .L0 
     /tmp/cciUv5bs.s:1683   .text:0000000000000b24 .L0 
     /tmp/cciUv5bs.s:1685   .text:0000000000000b28 .L0 
     /tmp/cciUv5bs.s:1687   .text:0000000000000b2c .L0 
     /tmp/cciUv5bs.s:1689   .text:0000000000000b30 .L0 
     /tmp/cciUv5bs.s:1690   .text:0000000000000b30 .L0 
     /tmp/cciUv5bs.s:1692   .text:0000000000000b34 .L0 
     /tmp/cciUv5bs.s:1694   .text:0000000000000b38 .L0 
     /tmp/cciUv5bs.s:1695   .text:0000000000000b38 .L0 
     /tmp/cciUv5bs.s:1699   .text:0000000000000b44 .L0 
     /tmp/cciUv5bs.s:1701   .text:0000000000000b48 .L0 
     /tmp/cciUv5bs.s:1702   .text:0000000000000b48 .L0 
     /tmp/cciUv5bs.s:1705   .text:0000000000000b50 .L0 
     /tmp/cciUv5bs.s:1709   .text:0000000000000b54 .L0 
     /tmp/cciUv5bs.s:1710   .text:0000000000000b54 .L0 
     /tmp/cciUv5bs.s:1715   .text:0000000000000b64 .L0 
     /tmp/cciUv5bs.s:1716   .text:0000000000000b64 .L0 
     /tmp/cciUv5bs.s:1721   .text:0000000000000b74 .L0 
     /tmp/cciUv5bs.s:1722   .text:0000000000000b74 .L0 
     /tmp/cciUv5bs.s:1725   .text:0000000000000b7c .L0 
     /tmp/cciUv5bs.s:1727   .text:0000000000000b80 .L0 
     /tmp/cciUv5bs.s:1730   .text:0000000000000b84 .L0 
     /tmp/cciUv5bs.s:1731   .text:0000000000000b84 .L0 
     /tmp/cciUv5bs.s:1732   .text:0000000000000b88 .L0 
     /tmp/cciUv5bs.s:1733   .text:0000000000000b88 .L0 
     /tmp/cciUv5bs.s:1735   .text:0000000000000b8c .L0 
     /tmp/cciUv5bs.s:1736   .text:0000000000000b8c .L0 
     /tmp/cciUv5bs.s:1738   .text:0000000000000b90 .L0 
     /tmp/cciUv5bs.s:1740   .text:0000000000000b94 .L0 
     /tmp/cciUv5bs.s:1743   .text:0000000000000b98 .L0 
     /tmp/cciUv5bs.s:1745   .text:0000000000000b9c .L0 
     /tmp/cciUv5bs.s:1747   .text:0000000000000ba0 .L0 
     /tmp/cciUv5bs.s:1751   .text:0000000000000ba4 .L0 
GAS LISTING /tmp/cciUv5bs.s 			page 63


     /tmp/cciUv5bs.s:1753   .text:0000000000000ba4 .L0 
     /tmp/cciUv5bs.s:1754   .text:0000000000000ba4 .L0 
     /tmp/cciUv5bs.s:1760   .text:0000000000000bb4 .L0 
     /tmp/cciUv5bs.s:1761   .text:0000000000000bb4 .L0 
     /tmp/cciUv5bs.s:1768   .text:0000000000000bc8 .L0 
     /tmp/cciUv5bs.s:1772   .text:0000000000000bd0 .L0 
     /tmp/cciUv5bs.s:1777   .text:0000000000000bd8 .L0 
     /tmp/cciUv5bs.s:1780   .text:0000000000000be0 .L0 
     /tmp/cciUv5bs.s:1786   .text:0000000000000be0 _ZN5Buddy8mem_freeEPvh
     /tmp/cciUv5bs.s:1789   .text:0000000000000be0 .L0 
     /tmp/cciUv5bs.s:1791   .text:0000000000000be0 .L0 
     /tmp/cciUv5bs.s:1792   .text:0000000000000be0 .L0 
     /tmp/cciUv5bs.s:1793   .text:0000000000000be0 .L0 
     /tmp/cciUv5bs.s:1797   .text:0000000000000bec .L0 
     /tmp/cciUv5bs.s:1799   .text:0000000000000bf0 .L0 
     /tmp/cciUv5bs.s:1800   .text:0000000000000bf4 .L0 
     /tmp/cciUv5bs.s:1807   .text:0000000000000c0c .L0 
     /tmp/cciUv5bs.s:1808   .text:0000000000000c0c .L0 
     /tmp/cciUv5bs.s:1809   .text:0000000000000c0c .L0 
     /tmp/cciUv5bs.s:1810   .text:0000000000000c0c .L0 
     /tmp/cciUv5bs.s:1811   .text:0000000000000c0c .L0 
     /tmp/cciUv5bs.s:1812   .text:0000000000000c0c .L0 
     /tmp/cciUv5bs.s:1814   .text:0000000000000c10 .L0 
     /tmp/cciUv5bs.s:1819   .text:0000000000000c1c .L0 
     /tmp/cciUv5bs.s:1821   .text:0000000000000c20 .L0 
     /tmp/cciUv5bs.s:1823   .text:0000000000000c24 .L0 
     /tmp/cciUv5bs.s:1824   .text:0000000000000c24 .L0 
     /tmp/cciUv5bs.s:1826   .text:0000000000000c28 .L0 
     /tmp/cciUv5bs.s:1828   .text:0000000000000c2c .L0 
     /tmp/cciUv5bs.s:1829   .text:0000000000000c2c .L0 
     /tmp/cciUv5bs.s:1832   .text:0000000000000c38 .L0 
     /tmp/cciUv5bs.s:1835   .text:0000000000000c3c .L0 
     /tmp/cciUv5bs.s:1836   .text:0000000000000c3c .L0 
     /tmp/cciUv5bs.s:1839   .text:0000000000000c44 .L0 
     /tmp/cciUv5bs.s:1841   .text:0000000000000c48 .L0 
     /tmp/cciUv5bs.s:1842   .text:0000000000000c48 .L0 
     /tmp/cciUv5bs.s:1847   .text:0000000000000c54 .L0 
     /tmp/cciUv5bs.s:1850   .text:0000000000000c58 .L0 
     /tmp/cciUv5bs.s:1851   .text:0000000000000c58 .L0 
     /tmp/cciUv5bs.s:1852   .text:0000000000000c58 .L0 
     /tmp/cciUv5bs.s:1854   .text:0000000000000c5c .L0 
     /tmp/cciUv5bs.s:1855   .text:0000000000000c5c .L0 
     /tmp/cciUv5bs.s:1857   .text:0000000000000c60 .L0 
     /tmp/cciUv5bs.s:1859   .text:0000000000000c64 .L0 
     /tmp/cciUv5bs.s:1860   .text:0000000000000c64 .L0 
     /tmp/cciUv5bs.s:1869   .text:0000000000000c78 .L0 
     /tmp/cciUv5bs.s:1874   .text:0000000000000c7c .L0 
     /tmp/cciUv5bs.s:1875   .text:0000000000000c7c .L0 
     /tmp/cciUv5bs.s:1877   .text:0000000000000c80 .L0 
     /tmp/cciUv5bs.s:1879   .text:0000000000000c84 .L0 
     /tmp/cciUv5bs.s:1882   .text:0000000000000c88 .L0 
     /tmp/cciUv5bs.s:1883   .text:0000000000000c88 .L0 
     /tmp/cciUv5bs.s:1888   .text:0000000000000c98 .L0 
     /tmp/cciUv5bs.s:1893   .text:0000000000000c9c .L0 
     /tmp/cciUv5bs.s:1894   .text:0000000000000c9c .L0 
     /tmp/cciUv5bs.s:1900   .text:0000000000000cb0 .L0 
     /tmp/cciUv5bs.s:1901   .text:0000000000000cb0 .L0 
GAS LISTING /tmp/cciUv5bs.s 			page 64


     /tmp/cciUv5bs.s:1905   .text:0000000000000cb4 .L0 
     /tmp/cciUv5bs.s:1906   .text:0000000000000cb8 .L0 
     /tmp/cciUv5bs.s:1908   .text:0000000000000cbc .L0 
     /tmp/cciUv5bs.s:1909   .text:0000000000000cbc .L0 
     /tmp/cciUv5bs.s:1911   .text:0000000000000cc0 .L0 
     /tmp/cciUv5bs.s:1913   .text:0000000000000cc4 .L0 
     /tmp/cciUv5bs.s:1916   .text:0000000000000cc8 .L0 
     /tmp/cciUv5bs.s:1918   .text:0000000000000ccc .L0 
     /tmp/cciUv5bs.s:1920   .text:0000000000000cd0 .L0 
     /tmp/cciUv5bs.s:1925   .text:0000000000000cd4 .L0 
     /tmp/cciUv5bs.s:1928   .text:0000000000000cd8 .L0 
     /tmp/cciUv5bs.s:1931   .text:0000000000000cdc .L0 
     /tmp/cciUv5bs.s:1932   .text:0000000000000cdc .L0 
     /tmp/cciUv5bs.s:1933   .text:0000000000000cdc .L0 
     /tmp/cciUv5bs.s:1934   .text:0000000000000cdc .L0 
     /tmp/cciUv5bs.s:1935   .text:0000000000000cdc .L0 
     /tmp/cciUv5bs.s:1936   .text:0000000000000cdc .L0 
     /tmp/cciUv5bs.s:1937   .text:0000000000000cdc .L0 
     /tmp/cciUv5bs.s:1939   .text:0000000000000cdc .L0 
     /tmp/cciUv5bs.s:1945   .text:0000000000000ce4 .L0 
     /tmp/cciUv5bs.s:1951   .text:0000000000000cec .L0 
     /tmp/cciUv5bs.s:1957   .text:0000000000000cf4 .L0 
     /tmp/cciUv5bs.s:1959   .text:0000000000000cfc .L0 
     /tmp/cciUv5bs.s:2029   .text:0000000000000cfc .L0 
     /tmp/cciUv5bs.s:1592   .text._Z4swapImEvRT_S1_:0000000000000028 .L0 
     /tmp/cciUv5bs.s:1625   .text._Z4swapIP7mmeta_tEvRT_S3_:0000000000000028 .L0 
     /tmp/cciUv5bs.s:26     .text:000000000000000c .L0 
     /tmp/cciUv5bs.s:256    .text:0000000000000158 .L0 
     /tmp/cciUv5bs.s:386    .text:0000000000000218 .L0 
     /tmp/cciUv5bs.s:407    .text:000000000000023c .L0 
     /tmp/cciUv5bs.s:1966   .rodata.str1.8:0000000000000000 .LC0
     /tmp/cciUv5bs.s:524    .text:0000000000000304 .L0 
     /tmp/cciUv5bs.s:1969   .rodata.str1.8:0000000000000018 .LC1
     /tmp/cciUv5bs.s:537    .text:0000000000000328 .L0 
     /tmp/cciUv5bs.s:579    .text:000000000000036c .L0 
     /tmp/cciUv5bs.s:585    .text:0000000000000374 .L0 
     /tmp/cciUv5bs.s:655    .text:00000000000003e0 .L0 
     /tmp/cciUv5bs.s:712    .text:0000000000000448 .L0 
     /tmp/cciUv5bs.s:1003   .text:000000000000060c .L0 
     /tmp/cciUv5bs.s:1037   .text:0000000000000658 .L0 
     /tmp/cciUv5bs.s:1103   .text:00000000000006c0 .L0 
     /tmp/cciUv5bs.s:1112   .text:00000000000006d0 .L0 
     /tmp/cciUv5bs.s:1972   .rodata.str1.8:0000000000000020 .LC2
     /tmp/cciUv5bs.s:1208   .text:0000000000000778 .L0 
     /tmp/cciUv5bs.s:1974   .rodata.str1.8:0000000000000028 .LC3
     /tmp/cciUv5bs.s:1221   .text:000000000000079c .L0 
     /tmp/cciUv5bs.s:1977   .rodata.str1.8:0000000000000030 .LC4
     /tmp/cciUv5bs.s:1234   .text:00000000000007c0 .L0 
     /tmp/cciUv5bs.s:1980   .rodata.str1.8:0000000000000038 .LC5
     /tmp/cciUv5bs.s:1260   .text:00000000000007e8 .L0 
     /tmp/cciUv5bs.s:1295   .text:000000000000081c .L0 
     /tmp/cciUv5bs.s:1985   .rodata.str1.8:0000000000000058 .LC7
     /tmp/cciUv5bs.s:1303   .text:0000000000000834 .L0 
     /tmp/cciUv5bs.s:1987   .rodata.str1.8:0000000000000078 .LC8
     /tmp/cciUv5bs.s:1308   .text:0000000000000844 .L0 
     /tmp/cciUv5bs.s:1314   .text:000000000000085c .L0 
     /tmp/cciUv5bs.s:1319   .text:0000000000000870 .L0 
GAS LISTING /tmp/cciUv5bs.s 			page 65


     /tmp/cciUv5bs.s:1989   .rodata.str1.8:0000000000000080 .LC9
     /tmp/cciUv5bs.s:1323   .text:0000000000000880 .L0 
     /tmp/cciUv5bs.s:1333   .text:00000000000008a4 .L0 
     /tmp/cciUv5bs.s:1991   .rodata.str1.8:0000000000000090 .LC10
     /tmp/cciUv5bs.s:1337   .text:00000000000008b4 .L0 
     /tmp/cciUv5bs.s:1347   .text:00000000000008d8 .L0 
     /tmp/cciUv5bs.s:1994   .rodata.str1.8:00000000000000a0 .LC11
     /tmp/cciUv5bs.s:1352   .text:00000000000008e8 .L0 
     /tmp/cciUv5bs.s:1983   .rodata.str1.8:0000000000000040 .LC6
     /tmp/cciUv5bs.s:1365   .text:0000000000000900 .L0 
     /tmp/cciUv5bs.s:2003   .rodata.str1.8:00000000000000d0 .LC14
     /tmp/cciUv5bs.s:1378   .text:0000000000000914 .L0 
     /tmp/cciUv5bs.s:1405   .text:000000000000094c .L0 
     /tmp/cciUv5bs.s:1997   .rodata.str1.8:00000000000000c0 .LC12
     /tmp/cciUv5bs.s:1422   .text:000000000000096c .L0 
     /tmp/cciUv5bs.s:2000   .rodata.str1.8:00000000000000c8 .LC13
     /tmp/cciUv5bs.s:1426   .text:000000000000097c .L0 
     /tmp/cciUv5bs.s:1436   .text:00000000000009a0 .L0 
     /tmp/cciUv5bs.s:1450   .text:00000000000009d4 .L0 
     /tmp/cciUv5bs.s:1455   .text:00000000000009e4 .L0 
     /tmp/cciUv5bs.s:1475   .text:0000000000000a04 .L0 
     /tmp/cciUv5bs.s:1508   .text:0000000000000a48 .L0 
     /tmp/cciUv5bs.s:1519   .text:0000000000000a68 .L0 
     /tmp/cciUv5bs.s:2006   .rodata.str1.8:00000000000000d8 .LC15
     /tmp/cciUv5bs.s:1529   .text:0000000000000a7c .L0 
     /tmp/cciUv5bs.s:2009   .rodata.str1.8:00000000000000f8 .LC16
     /tmp/cciUv5bs.s:1534   .text:0000000000000a8c .L0 
     /tmp/cciUv5bs.s:1656   .text:0000000000000aec .L0 
     /tmp/cciUv5bs.s:1830   .text:0000000000000c30 .L0 
     /tmp/cciUv5bs.s:103    .text:000000000000007c .L7
     /tmp/cciUv5bs.s:85     .text:0000000000000068 .L5
     /tmp/cciUv5bs.s:76     .text:0000000000000058 .L6
     /tmp/cciUv5bs.s:91     .text:000000000000006c .L3
     /tmp/cciUv5bs.s:157    .text:00000000000000c8 .L11
     /tmp/cciUv5bs.s:164    .text:00000000000000d0 .L12
     /tmp/cciUv5bs.s:147    .text:00000000000000bc .L9
     /tmp/cciUv5bs.s:318    .text:00000000000001cc .L19
     /tmp/cciUv5bs.s:324    .text:00000000000001d4 .L20
     /tmp/cciUv5bs.s:330    .text:00000000000001dc .L21
     /tmp/cciUv5bs.s:336    .text:00000000000001e4 .L22
     /tmp/cciUv5bs.s:289    .text:00000000000001a0 .L18
     /tmp/cciUv5bs.s:299    .text:00000000000001b0 .L17
     /tmp/cciUv5bs.s:440    .text:000000000000027c .L28
     /tmp/cciUv5bs.s:427    .text:0000000000000264 .L29
     /tmp/cciUv5bs.s:478    .text:00000000000002bc .L30
     /tmp/cciUv5bs.s:458    .text:0000000000000294 .L31
     /tmp/cciUv5bs.s:519    .text:0000000000000304 .L34
     /tmp/cciUv5bs.s:499    .text:00000000000002e8 .L27
     /tmp/cciUv5bs.s:618    .text:00000000000003a8 .L40
     /tmp/cciUv5bs.s:661    .text:00000000000003f4 .L38
     /tmp/cciUv5bs.s:599    .text:000000000000038c .L36
     /tmp/cciUv5bs.s:789    .text:00000000000004d4 .L45
     /tmp/cciUv5bs.s:801    .text:00000000000004dc .L46
     /tmp/cciUv5bs.s:807    .text:00000000000004e4 .L47
     /tmp/cciUv5bs.s:813    .text:00000000000004ec .L48
     /tmp/cciUv5bs.s:823    .text:00000000000004f4 .L49
     /tmp/cciUv5bs.s:776    .text:00000000000004bc .L54
GAS LISTING /tmp/cciUv5bs.s 			page 66


     /tmp/cciUv5bs.s:747    .text:0000000000000494 .L44
     /tmp/cciUv5bs.s:756    .text:00000000000004a0 .L42
     /tmp/cciUv5bs.s:1066   .text:0000000000000698 .L65
     /tmp/cciUv5bs.s:971    .text:00000000000005d0 .L61
     /tmp/cciUv5bs.s:950    .text:00000000000005a8 .L62
     /tmp/cciUv5bs.s:1072   .text:00000000000006a0 .L66
     /tmp/cciUv5bs.s:1030   .text:0000000000000650 .L63
     /tmp/cciUv5bs.s:984    .text:00000000000005ec .L64
     /tmp/cciUv5bs.s:1043   .text:0000000000000670 .L59
     /tmp/cciUv5bs.s:1177   .text:0000000000000750 .L70
     /tmp/cciUv5bs.s:1169   .text:0000000000000744 .L72
     /tmp/cciUv5bs.s:1151   .text:0000000000000728 .L69
     /tmp/cciUv5bs.s:1256   .text:00000000000007e8 .L74
     /tmp/cciUv5bs.s:1238   .text:00000000000007d0 .L73
     /tmp/cciUv5bs.s:1361   .text:0000000000000900 .L89
     /tmp/cciUv5bs.s:1414   .text:0000000000000964 .L84
     /tmp/cciUv5bs.s:1537   .text:0000000000000a9c .L77
     /tmp/cciUv5bs.s:1401   .text:000000000000094c .L81
     /tmp/cciUv5bs.s:1372   .text:0000000000000914 .L90
     /tmp/cciUv5bs.s:1381   .text:0000000000000924 .L82
     /tmp/cciUv5bs.s:1469   .text:0000000000000a04 .L80
     /tmp/cciUv5bs.s:1385   .text:0000000000000928 .L83
     /tmp/cciUv5bs.s:1524   .text:0000000000000a7c .L85
     /tmp/cciUv5bs.s:1490   .text:0000000000000a24 .L87
     /tmp/cciUv5bs.s:1486   .text:0000000000000a20 .L86
     /tmp/cciUv5bs.s:1766   .text:0000000000000bc8 .L98
     /tmp/cciUv5bs.s:1770   .text:0000000000000bd0 .L99
     /tmp/cciUv5bs.s:1775   .text:0000000000000bd8 .L100
     /tmp/cciUv5bs.s:1750   .text:0000000000000ba4 .L102
     /tmp/cciUv5bs.s:1707   .text:0000000000000b54 .L97
     /tmp/cciUv5bs.s:1729   .text:0000000000000b84 .L95
     /tmp/cciUv5bs.s:1923   .text:0000000000000cd4 .L107
     /tmp/cciUv5bs.s:1930   .text:0000000000000cdc .L108
     /tmp/cciUv5bs.s:1943   .text:0000000000000ce4 .L109
     /tmp/cciUv5bs.s:1949   .text:0000000000000cec .L110
     /tmp/cciUv5bs.s:1955   .text:0000000000000cf4 .L111
     /tmp/cciUv5bs.s:1871   .text:0000000000000c7c .L106
     /tmp/cciUv5bs.s:1890   .text:0000000000000c9c .L105
     /tmp/cciUv5bs.s:1866   .text:0000000000000c78 .L112
     /tmp/cciUv5bs.s:1903   .text:0000000000000cb4 .L104
     /tmp/cciUv5bs.s:5357   .debug_abbrev:0000000000000000 .Ldebug_abbrev0
     /tmp/cciUv5bs.s:8113   .debug_str:0000000000000645 .LASF224
     /tmp/cciUv5bs.s:8109   .debug_str:0000000000000611 .LASF225
     /tmp/cciUv5bs.s:8253   .debug_str:0000000000000b7e .LASF226
     /tmp/cciUv5bs.s:7875   .debug_ranges:0000000000000000 .Ldebug_ranges0
     /tmp/cciUv5bs.s:7909   .debug_line:0000000000000000 .Ldebug_line0
     /tmp/cciUv5bs.s:7957   .debug_str:0000000000000130 .LASF0
     /tmp/cciUv5bs.s:8343   .debug_str:0000000000000dfc .LASF1
     /tmp/cciUv5bs.s:8341   .debug_str:0000000000000df6 .LASF3
     /tmp/cciUv5bs.s:8297   .debug_str:0000000000000c9c .LASF2
     /tmp/cciUv5bs.s:8259   .debug_str:0000000000000bb2 .LASF4
     /tmp/cciUv5bs.s:8269   .debug_str:0000000000000bec .LASF5
     /tmp/cciUv5bs.s:8073   .debug_str:00000000000004ea .LASF6
     /tmp/cciUv5bs.s:8129   .debug_str:000000000000078a .LASF7
     /tmp/cciUv5bs.s:8225   .debug_str:0000000000000aa4 .LASF8
     /tmp/cciUv5bs.s:7989   .debug_str:00000000000001f2 .LASF9
     /tmp/cciUv5bs.s:8329   .debug_str:0000000000000d89 .LASF10
GAS LISTING /tmp/cciUv5bs.s 			page 67


     /tmp/cciUv5bs.s:8077   .debug_str:00000000000004f9 .LASF11
     /tmp/cciUv5bs.s:8025   .debug_str:0000000000000329 .LASF12
     /tmp/cciUv5bs.s:8139   .debug_str:00000000000007eb .LASF13
     /tmp/cciUv5bs.s:8083   .debug_str:0000000000000522 .LASF14
     /tmp/cciUv5bs.s:8249   .debug_str:0000000000000b6d .LASF15
     /tmp/cciUv5bs.s:8085   .debug_str:0000000000000532 .LASF16
     /tmp/cciUv5bs.s:8067   .debug_str:00000000000004a4 .LASF17
     /tmp/cciUv5bs.s:8359   .debug_str:0000000000000eb0 .LASF64
     /tmp/cciUv5bs.s:7959   .debug_str:000000000000013d .LASF18
     /tmp/cciUv5bs.s:7999   .debug_str:000000000000022e .LASF19
     /tmp/cciUv5bs.s:8005   .debug_str:0000000000000289 .LASF66
     /tmp/cciUv5bs.s:8231   .debug_str:0000000000000ac1 .LASF25
     /tmp/cciUv5bs.s:8107   .debug_str:0000000000000604 .LASF227
     /tmp/cciUv5bs.s:7965   .debug_str:000000000000015a .LASF20
     /tmp/cciUv5bs.s:8303   .debug_str:0000000000000cbc .LASF21
     /tmp/cciUv5bs.s:8351   .debug_str:0000000000000e65 .LASF22
     /tmp/cciUv5bs.s:7943   .debug_str:00000000000000d6 .LASF23
     /tmp/cciUv5bs.s:8145   .debug_str:0000000000000817 .LASF24
     /tmp/cciUv5bs.s:8059   .debug_str:0000000000000442 .LASF30
     /tmp/cciUv5bs.s:8003   .debug_str:0000000000000256 .LASF27
     /tmp/cciUv5bs.s:8201   .debug_str:0000000000000a08 .LASF26
     /tmp/cciUv5bs.s:8209   .debug_str:0000000000000a4d .LASF28
     /tmp/cciUv5bs.s:8195   .debug_str:00000000000009de .LASF38
     /tmp/cciUv5bs.s:8093   .debug_str:00000000000005a5 .LASF40
     /tmp/cciUv5bs.s:8101   .debug_str:00000000000005ec .LASF29
     /tmp/cciUv5bs.s:8123   .debug_str:0000000000000751 .LASF31
     /tmp/cciUv5bs.s:8131   .debug_str:000000000000079d .LASF32
     /tmp/cciUv5bs.s:8183   .debug_str:0000000000000946 .LASF33
     /tmp/cciUv5bs.s:8197   .debug_str:00000000000009ee .LASF34
     /tmp/cciUv5bs.s:8149   .debug_str:000000000000082c .LASF35
     /tmp/cciUv5bs.s:8299   .debug_str:0000000000000caa .LASF36
     /tmp/cciUv5bs.s:8189   .debug_str:00000000000009a2 .LASF37
     /tmp/cciUv5bs.s:8327   .debug_str:0000000000000d7c .LASF39
     /tmp/cciUv5bs.s:8185   .debug_str:0000000000000963 .LASF41
     /tmp/cciUv5bs.s:7935   .debug_str:000000000000008f .LASF42
     /tmp/cciUv5bs.s:8187   .debug_str:0000000000000985 .LASF43
     /tmp/cciUv5bs.s:8255   .debug_str:0000000000000ba1 .LASF44
     /tmp/cciUv5bs.s:7993   .debug_str:0000000000000210 .LASF45
     /tmp/cciUv5bs.s:8291   .debug_str:0000000000000c89 .LASF46
     /tmp/cciUv5bs.s:8295   .debug_str:0000000000000c97 .LASF47
     /tmp/cciUv5bs.s:8169   .debug_str:00000000000008c9 .LASF48
     /tmp/cciUv5bs.s:8159   .debug_str:000000000000088d .LASF49
     /tmp/cciUv5bs.s:8281   .debug_str:0000000000000c3a .LASF50
     /tmp/cciUv5bs.s:8235   .debug_str:0000000000000ae6 .LASF51
     /tmp/cciUv5bs.s:7967   .debug_str:000000000000015f .LASF52
     /tmp/cciUv5bs.s:8219   .debug_str:0000000000000a90 .LASF53
     /tmp/cciUv5bs.s:8315   .debug_str:0000000000000d30 .LASF54
     /tmp/cciUv5bs.s:8181   .debug_str:0000000000000920 .LASF55
     /tmp/cciUv5bs.s:8173   .debug_str:00000000000008de .LASF56
     /tmp/cciUv5bs.s:8247   .debug_str:0000000000000b4e .LASF57
     /tmp/cciUv5bs.s:8095   .debug_str:00000000000005bb .LASF58
     /tmp/cciUv5bs.s:8001   .debug_str:0000000000000233 .LASF59
     /tmp/cciUv5bs.s:8279   .debug_str:0000000000000c2c .LASF60
     /tmp/cciUv5bs.s:8089   .debug_str:0000000000000574 .LASF61
     /tmp/cciUv5bs.s:8335   .debug_str:0000000000000dcd .LASF62
     /tmp/cciUv5bs.s:8065   .debug_str:0000000000000479 .LASF63
     /tmp/cciUv5bs.s:8321   .debug_str:0000000000000d4a .LASF65
GAS LISTING /tmp/cciUv5bs.s 			page 68


     /tmp/cciUv5bs.s:8087   .debug_str:0000000000000548 .LASF67
     /tmp/cciUv5bs.s:8125   .debug_str:000000000000076e .LASF68
     /tmp/cciUv5bs.s:8251   .debug_str:0000000000000b79 .LASF69
     /tmp/cciUv5bs.s:8373   .debug_str:0000000000000f14 .LASF108
     /tmp/cciUv5bs.s:8221   .debug_str:0000000000000a95 .LASF70
     /tmp/cciUv5bs.s:7977   .debug_str:00000000000001b3 .LASF71
     /tmp/cciUv5bs.s:8151   .debug_str:0000000000000846 .LASF72
     /tmp/cciUv5bs.s:8261   .debug_str:0000000000000bb9 .LASF73
     /tmp/cciUv5bs.s:8031   .debug_str:0000000000000365 .LASF74
     /tmp/cciUv5bs.s:8153   .debug_str:000000000000084c .LASF75
     /tmp/cciUv5bs.s:8367   .debug_str:0000000000000eec .LASF76
     /tmp/cciUv5bs.s:8349   .debug_str:0000000000000e52 .LASF77
     /tmp/cciUv5bs.s:8217   .debug_str:0000000000000a86 .LASF78
     /tmp/cciUv5bs.s:8135   .debug_str:00000000000007c1 .LASF79
     /tmp/cciUv5bs.s:8075   .debug_str:00000000000004f1 .LASF80
     /tmp/cciUv5bs.s:8199   .debug_str:00000000000009f5 .LASF81
     /tmp/cciUv5bs.s:8047   .debug_str:00000000000003c6 .LASF82
     /tmp/cciUv5bs.s:8157   .debug_str:0000000000000883 .LASF122
     /tmp/cciUv5bs.s:8023   .debug_str:0000000000000319 .LASF228
     /tmp/cciUv5bs.s:7915   .debug_str:0000000000000029 .LASF83
     /tmp/cciUv5bs.s:8363   .debug_str:0000000000000ec9 .LASF84
     /tmp/cciUv5bs.s:8223   .debug_str:0000000000000a9c .LASF85
     /tmp/cciUv5bs.s:8207   .debug_str:0000000000000a39 .LASF86
     /tmp/cciUv5bs.s:7921   .debug_str:000000000000004b .LASF87
     /tmp/cciUv5bs.s:8365   .debug_str:0000000000000edc .LASF88
     /tmp/cciUv5bs.s:8099   .debug_str:00000000000005e7 .LASF89
     /tmp/cciUv5bs.s:8029   .debug_str:0000000000000355 .LASF90
     /tmp/cciUv5bs.s:7995   .debug_str:0000000000000216 .LASF91
     /tmp/cciUv5bs.s:8051   .debug_str:00000000000003fa .LASF92
     /tmp/cciUv5bs.s:8111   .debug_str:000000000000063c .LASF93
     /tmp/cciUv5bs.s:8137   .debug_str:00000000000007d6 .LASF94
     /tmp/cciUv5bs.s:8245   .debug_str:0000000000000b49 .LASF95
     /tmp/cciUv5bs.s:7983   .debug_str:00000000000001d2 .LASF96
     /tmp/cciUv5bs.s:7931   .debug_str:000000000000007c .LASF97
     /tmp/cciUv5bs.s:7923   .debug_str:0000000000000050 .LASF98
     /tmp/cciUv5bs.s:8265   .debug_str:0000000000000bd0 .LASF101
     /tmp/cciUv5bs.s:8055   .debug_str:0000000000000429 .LASF103
     /tmp/cciUv5bs.s:8081   .debug_str:0000000000000514 .LASF129
     /tmp/cciUv5bs.s:8097   .debug_str:00000000000005ca .LASF131
     /tmp/cciUv5bs.s:7919   .debug_str:0000000000000041 .LASF99
     /tmp/cciUv5bs.s:8355   .debug_str:0000000000000e83 .LASF100
     /tmp/cciUv5bs.s:8009   .debug_str:00000000000002b4 .LASF102
     /tmp/cciUv5bs.s:8007   .debug_str:000000000000029d .LASF104
     /tmp/cciUv5bs.s:8309   .debug_str:0000000000000ce3 .LASF105
     /tmp/cciUv5bs.s:8307   .debug_str:0000000000000cd2 .LASF106
     /tmp/cciUv5bs.s:7925   .debug_str:0000000000000061 .LASF107
     /tmp/cciUv5bs.s:8037   .debug_str:0000000000000390 .LASF109
     /tmp/cciUv5bs.s:8143   .debug_str:0000000000000806 .LASF110
     /tmp/cciUv5bs.s:8179   .debug_str:0000000000000911 .LASF111
     /tmp/cciUv5bs.s:8147   .debug_str:0000000000000821 .LASF112
     /tmp/cciUv5bs.s:8171   .debug_str:00000000000008d3 .LASF113
     /tmp/cciUv5bs.s:7933   .debug_str:0000000000000084 .LASF114
     /tmp/cciUv5bs.s:8267   .debug_str:0000000000000bd5 .LASF115
     /tmp/cciUv5bs.s:7917   .debug_str:0000000000000031 .LASF116
     /tmp/cciUv5bs.s:7945   .debug_str:00000000000000de .LASF117
     /tmp/cciUv5bs.s:8017   .debug_str:00000000000002dd .LASF118
     /tmp/cciUv5bs.s:8063   .debug_str:0000000000000466 .LASF119
GAS LISTING /tmp/cciUv5bs.s 			page 69


     /tmp/cciUv5bs.s:8053   .debug_str:0000000000000411 .LASF120
     /tmp/cciUv5bs.s:8127   .debug_str:0000000000000773 .LASF121
     /tmp/cciUv5bs.s:8215   .debug_str:0000000000000a6d .LASF123
     /tmp/cciUv5bs.s:8033   .debug_str:0000000000000370 .LASF124
     /tmp/cciUv5bs.s:7997   .debug_str:0000000000000221 .LASF125
     /tmp/cciUv5bs.s:7939   .debug_str:000000000000009e .LASF126
     /tmp/cciUv5bs.s:8091   .debug_str:0000000000000597 .LASF127
     /tmp/cciUv5bs.s:8347   .debug_str:0000000000000e21 .LASF128
     /tmp/cciUv5bs.s:7981   .debug_str:00000000000001c6 .LASF130
     /tmp/cciUv5bs.s:8121   .debug_str:000000000000072f .LASF132
     /tmp/cciUv5bs.s:8257   .debug_str:0000000000000ba6 .LASF133
     /tmp/cciUv5bs.s:8333   .debug_str:0000000000000dab .LASF134
     /tmp/cciUv5bs.s:8301   .debug_str:0000000000000cb4 .LASF135
     /tmp/cciUv5bs.s:8313   .debug_str:0000000000000d13 .LASF136
     /tmp/cciUv5bs.s:8165   .debug_str:00000000000008b3 .LASF137
     /tmp/cciUv5bs.s:8071   .debug_str:00000000000004ce .LASF138
     /tmp/cciUv5bs.s:8273   .debug_str:0000000000000c0f .LASF139
     /tmp/cciUv5bs.s:7979   .debug_str:00000000000001c0 .LASF140
     /tmp/cciUv5bs.s:8277   .debug_str:0000000000000c26 .LASF141
     /tmp/cciUv5bs.s:8205   .debug_str:0000000000000a26 .LASF142
     /tmp/cciUv5bs.s:8213   .debug_str:0000000000000a67 .LASF143
     /tmp/cciUv5bs.s:8015   .debug_str:00000000000002cf .LASF144
     /tmp/cciUv5bs.s:8013   .debug_str:00000000000002c5 .LASF145
     /tmp/cciUv5bs.s:8041   .debug_str:00000000000003a7 .LASF146
     /tmp/cciUv5bs.s:8285   .debug_str:0000000000000c54 .LASF147
     /tmp/cciUv5bs.s:7963   .debug_str:000000000000014c .LASF148
     /tmp/cciUv5bs.s:7973   .debug_str:0000000000000195 .LASF149
     /tmp/cciUv5bs.s:8275   .debug_str:0000000000000c17 .LASF150
     /tmp/cciUv5bs.s:8167   .debug_str:00000000000008b9 .LASF151
     /tmp/cciUv5bs.s:8271   .debug_str:0000000000000bfe .LASF152
     /tmp/cciUv5bs.s:8045   .debug_str:00000000000003b5 .LASF153
     /tmp/cciUv5bs.s:7987   .debug_str:00000000000001e4 .LASF154
     /tmp/cciUv5bs.s:8133   .debug_str:00000000000007a6 .LASF155
     /tmp/cciUv5bs.s:8079   .debug_str:0000000000000508 .LASF156
     /tmp/cciUv5bs.s:8311   .debug_str:0000000000000cf1 .LASF157
     /tmp/cciUv5bs.s:8203   .debug_str:0000000000000a15 .LASF158
     /tmp/cciUv5bs.s:8049   .debug_str:00000000000003d3 .LASF159
     /tmp/cciUv5bs.s:8035   .debug_str:000000000000038a .LASF160
     /tmp/cciUv5bs.s:8237   .debug_str:0000000000000aeb .LASF161
     /tmp/cciUv5bs.s:8105   .debug_str:00000000000005fb .LASF162
     /tmp/cciUv5bs.s:8027   .debug_str:0000000000000338 .LASF163
     /tmp/cciUv5bs.s:8163   .debug_str:00000000000008a7 .LASF164
     /tmp/cciUv5bs.s:8233   .debug_str:0000000000000acd .LASF165
     /tmp/cciUv5bs.s:8069   .debug_str:00000000000004ba .LASF166
     /tmp/cciUv5bs.s:7929   .debug_str:0000000000000074 .LASF167
     /tmp/cciUv5bs.s:8331   .debug_str:0000000000000d97 .LASF168
     /tmp/cciUv5bs.s:7947   .debug_str:00000000000000f5 .LASF169
     /tmp/cciUv5bs.s:8021   .debug_str:00000000000002fb .LASF170
     /tmp/cciUv5bs.s:8337   .debug_str:0000000000000dde .LASF171
     /tmp/cciUv5bs.s:7971   .debug_str:000000000000017d .LASF172
     /tmp/cciUv5bs.s:7941   .debug_str:00000000000000cd .LASF173
     /tmp/cciUv5bs.s:8357   .debug_str:0000000000000e9b .LASF174
     /tmp/cciUv5bs.s:8319   .debug_str:0000000000000d3f .LASF229
     /tmp/cciUv5bs.s:7961   .debug_str:0000000000000142 .LASF175
     /tmp/cciUv5bs.s:8175   .debug_str:00000000000008e9 .LASF176
     /tmp/cciUv5bs.s:7969   .debug_str:0000000000000164 .LASF177
     /tmp/cciUv5bs.s:8305   .debug_str:0000000000000cc5 .LASF178
GAS LISTING /tmp/cciUv5bs.s 			page 70


     /tmp/cciUv5bs.s:7913   .debug_str:000000000000000f .LASF179
     /tmp/cciUv5bs.s:8289   .debug_str:0000000000000c73 .LASF180
     /tmp/cciUv5bs.s:7927   .debug_str:000000000000006b .LASF181
     /tmp/cciUv5bs.s:8239   .debug_str:0000000000000b05 .LASF182
     /tmp/cciUv5bs.s:8263   .debug_str:0000000000000bbe .LASF183
     /tmp/cciUv5bs.s:8141   .debug_str:00000000000007fb .LASF184
     /tmp/cciUv5bs.s:8193   .debug_str:00000000000009cc .LASF185
     /tmp/cciUv5bs.s:8323   .debug_str:0000000000000d5c .LASF186
     /tmp/cciUv5bs.s:7951   .debug_str:000000000000010a .LASF187
     /tmp/cciUv5bs.s:8241   .debug_str:0000000000000b1c .LASF188
     /tmp/cciUv5bs.s:7975   .debug_str:00000000000001a4 .LASF189
     /tmp/cciUv5bs.s:8339   .debug_str:0000000000000de9 .LASF190
     /tmp/cciUv5bs.s:8283   .debug_str:0000000000000c44 .LASF191
     /tmp/cciUv5bs.s:7991   .debug_str:0000000000000202 .LASF192
     /tmp/cciUv5bs.s:8345   .debug_str:0000000000000e0f .LASF193
     /tmp/cciUv5bs.s:8177   .debug_str:0000000000000901 .LASF194
     /tmp/cciUv5bs.s:8287   .debug_str:0000000000000c62 .LASF195
     /tmp/cciUv5bs.s:8243   .debug_str:0000000000000b2a .LASF196
     /tmp/cciUv5bs.s:8061   .debug_str:0000000000000457 .LASF197
     /tmp/cciUv5bs.s:8155   .debug_str:0000000000000869 .LASF198
     /tmp/cciUv5bs.s:1597   .text._Z4swapIP7mmeta_tEvRT_S3_:0000000000000000 .LFB132
     /tmp/cciUv5bs.s:1623   .text._Z4swapIP7mmeta_tEvRT_S3_:0000000000000028 .LFE132
     /tmp/cciUv5bs.s:8369   .debug_str:0000000000000ef4 .LASF199
     /tmp/cciUv5bs.s:8361   .debug_str:0000000000000eb7 .LASF200
     /tmp/cciUv5bs.s:1563   .text._Z4swapImEvRT_S1_:0000000000000000 .LFB131
     /tmp/cciUv5bs.s:1590   .text._Z4swapImEvRT_S1_:0000000000000028 .LFE131
     /tmp/cciUv5bs.s:1273   .text:00000000000007fc .LFB130
     /tmp/cciUv5bs.s:1556   .text:0000000000000abc .LFE130
     /tmp/cciUv5bs.s:8211   .debug_str:0000000000000a62 .LASF202
     /tmp/cciUv5bs.s:6808   .debug_loc:0000000000000000 .LLST41
     /tmp/cciUv5bs.s:6841   .debug_loc:0000000000000088 .LLST42
     /tmp/cciUv5bs.s:6866   .debug_loc:00000000000000ea .LLST43
     /tmp/cciUv5bs.s:8227   .debug_str:0000000000000ab7 .LASF201
     /tmp/cciUv5bs.s:6882   .debug_loc:0000000000000134 .LLST44
     /tmp/cciUv5bs.s:1380   .text:0000000000000924 .LVL152
     /tmp/cciUv5bs.s:1394   .text:0000000000000940 .LVL154
     /tmp/cciUv5bs.s:1407   .text:000000000000095c .LVL155
     /tmp/cciUv5bs.s:1424   .text:000000000000097c .LVL158
     /tmp/cciUv5bs.s:1428   .text:000000000000098c .LVL159
     /tmp/cciUv5bs.s:1434   .text:00000000000009a0 .LVL160
     /tmp/cciUv5bs.s:1438   .text:00000000000009b0 .LVL161
     /tmp/cciUv5bs.s:1448   .text:00000000000009d4 .LVL162
     /tmp/cciUv5bs.s:1452   .text:00000000000009e4 .LVL163
     /tmp/cciUv5bs.s:1457   .text:00000000000009f4 .LVL164
     /tmp/cciUv5bs.s:1481   .text:0000000000000a18 .LBB40
     /tmp/cciUv5bs.s:1525   .text:0000000000000a7c .LBE40
     /tmp/cciUv5bs.s:6893   .debug_loc:000000000000016a .LLST45
     /tmp/cciUv5bs.s:1503   .text:0000000000000a44 .LVL170
     /tmp/cciUv5bs.s:1510   .text:0000000000000a58 .LVL171
     /tmp/cciUv5bs.s:1516   .text:0000000000000a68 .LVL172
     /tmp/cciUv5bs.s:1521   .text:0000000000000a78 .LVL173
     /tmp/cciUv5bs.s:1306   .text:0000000000000844 .LVL137
     /tmp/cciUv5bs.s:1310   .text:0000000000000854 .LVL138
     /tmp/cciUv5bs.s:1317   .text:0000000000000870 .LVL139
     /tmp/cciUv5bs.s:1321   .text:0000000000000880 .LVL140
     /tmp/cciUv5bs.s:1325   .text:0000000000000890 .LVL141
     /tmp/cciUv5bs.s:1331   .text:00000000000008a4 .LVL142
GAS LISTING /tmp/cciUv5bs.s 			page 71


     /tmp/cciUv5bs.s:1335   .text:00000000000008b4 .LVL143
     /tmp/cciUv5bs.s:1339   .text:00000000000008c4 .LVL144
     /tmp/cciUv5bs.s:1345   .text:00000000000008d8 .LVL145
     /tmp/cciUv5bs.s:1349   .text:00000000000008e8 .LVL146
     /tmp/cciUv5bs.s:1354   .text:00000000000008f8 .LVL147
     /tmp/cciUv5bs.s:1368   .text:0000000000000910 .LVL150
     /tmp/cciUv5bs.s:1477   .text:0000000000000a14 .LVL167
     /tmp/cciUv5bs.s:1531   .text:0000000000000a8c .LVL175
     /tmp/cciUv5bs.s:1536   .text:0000000000000a9c .LVL176
     /tmp/cciUv5bs.s:1188   .text:0000000000000758 .LFB129
     /tmp/cciUv5bs.s:1267   .text:00000000000007fc .LFE129
     /tmp/cciUv5bs.s:6900   .debug_loc:000000000000018d .LLST38
     /tmp/cciUv5bs.s:8039   .debug_str:00000000000003a1 .LASF203
     /tmp/cciUv5bs.s:6922   .debug_loc:00000000000001ec .LLST39
     /tmp/cciUv5bs.s:6944   .debug_loc:000000000000024b .LLST40
     /tmp/cciUv5bs.s:1211   .text:0000000000000788 .LVL124
     /tmp/cciUv5bs.s:1218   .text:000000000000079c .LVL125
     /tmp/cciUv5bs.s:1223   .text:00000000000007ac .LVL126
     /tmp/cciUv5bs.s:1229   .text:00000000000007bc .LVL127
     /tmp/cciUv5bs.s:1237   .text:00000000000007d0 .LVL129
     /tmp/cciUv5bs.s:1263   .text:00000000000007f8 .LVL134
     /tmp/cciUv5bs.s:8011   .debug_str:00000000000002bd .LASF230
     /tmp/cciUv5bs.s:1083   .text:00000000000006a8 .LFB128
     /tmp/cciUv5bs.s:1182   .text:0000000000000758 .LFE128
     /tmp/cciUv5bs.s:8115   .debug_str:0000000000000709 .LASF204
     /tmp/cciUv5bs.s:6955   .debug_loc:0000000000000281 .LLST34
     /tmp/cciUv5bs.s:7911   .debug_str:0000000000000000 .LASF205
     /tmp/cciUv5bs.s:6966   .debug_loc:00000000000002b7 .LLST35
     /tmp/cciUv5bs.s:6993   .debug_loc:000000000000032a .LLST36
     /tmp/cciUv5bs.s:7000   .debug_loc:000000000000034d .LLST37
     /tmp/cciUv5bs.s:1099   .text:00000000000006c0 .LBB31
     /tmp/cciUv5bs.s:1106   .text:00000000000006cc .LBE31
     /tmp/cciUv5bs.s:1127   .text:00000000000006f8 .LVL109
     /tmp/cciUv5bs.s:1136   .text:0000000000000708 .LVL112
     /tmp/cciUv5bs.s:1138   .text:0000000000000710 .LVL113
     /tmp/cciUv5bs.s:1145   .text:0000000000000720 .LVL115
     /tmp/cciUv5bs.s:1174   .text:000000000000074c .LVL120
     /tmp/cciUv5bs.s:877    .text:0000000000000538 .LFB127
     /tmp/cciUv5bs.s:915    .text:0000000000000578 .LFE127
     /tmp/cciUv5bs.s:7011   .debug_loc:0000000000000383 .LLST27
     /tmp/cciUv5bs.s:8293   .debug_str:0000000000000c91 .LASF206
     /tmp/cciUv5bs.s:7025   .debug_loc:00000000000003bc .LLST28
     /tmp/cciUv5bs.s:834    .text:00000000000004fc .LFB126
     /tmp/cciUv5bs.s:871    .text:0000000000000538 .LFE126
     /tmp/cciUv5bs.s:7041   .debug_loc:00000000000003f7 .LLST25
     /tmp/cciUv5bs.s:7055   .debug_loc:0000000000000430 .LLST26
     /tmp/cciUv5bs.s:175    .text:00000000000000d8 .LFB125
     /tmp/cciUv5bs.s:210    .text:000000000000010c .LFE125
     /tmp/cciUv5bs.s:7079   .debug_loc:0000000000000482 .LLST4
     /tmp/cciUv5bs.s:7093   .debug_loc:00000000000004bb .LLST5
     /tmp/cciUv5bs.s:1630   .text:0000000000000abc .LFB124
     /tmp/cciUv5bs.s:1781   .text:0000000000000be0 .LFE124
     /tmp/cciUv5bs.s:7107   .debug_loc:00000000000004f4 .LLST46
     /tmp/cciUv5bs.s:8019   .debug_str:00000000000002f5 .LASF207
     /tmp/cciUv5bs.s:7129   .debug_loc:0000000000000553 .LLST47
     /tmp/cciUv5bs.s:8371   .debug_str:0000000000000f0c .LASF208
     /tmp/cciUv5bs.s:7985   .debug_str:00000000000001da .LASF209
GAS LISTING /tmp/cciUv5bs.s 			page 72


     /tmp/cciUv5bs.s:8103   .debug_str:00000000000005f6 .LASF210
     /tmp/cciUv5bs.s:7141   .debug_loc:000000000000058b .LLST48
     /tmp/cciUv5bs.s:1676   .text:0000000000000b1c .LVL183
     /tmp/cciUv5bs.s:1697   .text:0000000000000b44 .LVL184
     /tmp/cciUv5bs.s:1713   .text:0000000000000b64 .LVL186
     /tmp/cciUv5bs.s:1719   .text:0000000000000b74 .LVL187
     /tmp/cciUv5bs.s:1758   .text:0000000000000bb4 .LVL191
     /tmp/cciUv5bs.s:1764   .text:0000000000000bc4 .LVL192
     /tmp/cciUv5bs.s:115    .text:0000000000000084 .LFB123
     /tmp/cciUv5bs.s:169    .text:00000000000000d8 .LFE123
     /tmp/cciUv5bs.s:7156   .debug_loc:00000000000005d4 .LLST3
     /tmp/cciUv5bs.s:672    .text:00000000000003fc .LFB122
     /tmp/cciUv5bs.s:828    .text:00000000000004fc .LFE122
     /tmp/cciUv5bs.s:7192   .debug_loc:000000000000065f .LLST22
     /tmp/cciUv5bs.s:7251   .debug_loc:000000000000074c .LLST23
     /tmp/cciUv5bs.s:7276   .debug_loc:00000000000007ae .LLST24
     /tmp/cciUv5bs.s:716    .text:000000000000045c .LVL68
     /tmp/cciUv5bs.s:783    .text:00000000000004cc .LVL72
     /tmp/cciUv5bs.s:41     .text:0000000000000024 .LFB121
     /tmp/cciUv5bs.s:109    .text:0000000000000084 .LFE121
     /tmp/cciUv5bs.s:7306   .debug_loc:0000000000000833 .LLST0
     /tmp/cciUv5bs.s:7324   .debug_loc:000000000000087f .LLST1
     /tmp/cciUv5bs.s:7342   .debug_loc:00000000000008cb .LLST2
     /tmp/cciUv5bs.s:216    .text:000000000000010c .LFB120
     /tmp/cciUv5bs.s:347    .text:00000000000001ec .LFE120
     /tmp/cciUv5bs.s:7349   .debug_loc:00000000000008ee .LLST6
     /tmp/cciUv5bs.s:7404   .debug_loc:00000000000009c8 .LLST7
     /tmp/cciUv5bs.s:7429   .debug_loc:0000000000000a2a .LLST8
     /tmp/cciUv5bs.s:260    .text:000000000000016c .LVL18
     /tmp/cciUv5bs.s:1787   .text:0000000000000be0 .LFB119
     /tmp/cciUv5bs.s:1960   .text:0000000000000cfc .LFE119
     /tmp/cciUv5bs.s:7455   .debug_loc:0000000000000a9c .LLST49
     /tmp/cciUv5bs.s:8317   .debug_str:0000000000000d3a .LASF211
     /tmp/cciUv5bs.s:7508   .debug_loc:0000000000000b83 .LLST50
     /tmp/cciUv5bs.s:7534   .debug_loc:0000000000000bf5 .LLST51
     /tmp/cciUv5bs.s:7955   .debug_str:000000000000012b .LASF212
     /tmp/cciUv5bs.s:7559   .debug_loc:0000000000000c57 .LLST52
     /tmp/cciUv5bs.s:7570   .debug_loc:0000000000000c8d .LLST53
     /tmp/cciUv5bs.s:8057   .debug_str:000000000000043c .LASF213
     /tmp/cciUv5bs.s:7577   .debug_loc:0000000000000cb0 .LLST54
     /tmp/cciUv5bs.s:1886   .text:0000000000000c98 .LVL203
     /tmp/cciUv5bs.s:1845   .text:0000000000000c54 .LVL198
     /tmp/cciUv5bs.s:1863   .text:0000000000000c74 .LVL200
     /tmp/cciUv5bs.s:1898   .text:0000000000000cb0 .LVL205
     /tmp/cciUv5bs.s:921    .text:0000000000000578 .LFB118
     /tmp/cciUv5bs.s:1077   .text:00000000000006a8 .LFE118
     /tmp/cciUv5bs.s:7588   .debug_loc:0000000000000ce6 .LLST29
     /tmp/cciUv5bs.s:7610   .debug_loc:0000000000000d45 .LLST30
     /tmp/cciUv5bs.s:7628   .debug_loc:0000000000000d91 .LLST31
     /tmp/cciUv5bs.s:7647   .debug_loc:0000000000000ded .LLST32
     /tmp/cciUv5bs.s:989    .text:00000000000005f0 .LBB30
     /tmp/cciUv5bs.s:1026   .text:000000000000064c .LBE30
     /tmp/cciUv5bs.s:7654   .debug_loc:0000000000000e10 .LLST33
     /tmp/cciUv5bs.s:995    .text:0000000000000600 .LVL95
     /tmp/cciUv5bs.s:1008   .text:0000000000000624 .LVL98
     /tmp/cciUv5bs.s:1018   .text:0000000000000640 .LVL100
     /tmp/cciUv5bs.s:981    .text:00000000000005e8 .LVL93
GAS LISTING /tmp/cciUv5bs.s 			page 73


     /tmp/cciUv5bs.s:1041   .text:0000000000000670 .LVL103
     /tmp/cciUv5bs.s:13     .text:0000000000000000 .LFB117
     /tmp/cciUv5bs.s:35     .text:0000000000000024 .LFE117
     /tmp/cciUv5bs.s:552    .text:000000000000033c .LFB116
     /tmp/cciUv5bs.s:666    .text:00000000000003fc .LFE116
     /tmp/cciUv5bs.s:7949   .debug_str:0000000000000104 .LASF214
     /tmp/cciUv5bs.s:7665   .debug_loc:0000000000000e46 .LLST17
     /tmp/cciUv5bs.s:7691   .debug_loc:0000000000000eb8 .LLST18
     /tmp/cciUv5bs.s:7705   .debug_loc:0000000000000ef1 .LLST19
     /tmp/cciUv5bs.s:581    .text:0000000000000374 .LBB23
     /tmp/cciUv5bs.s:589    .text:0000000000000380 .LBE23
     /tmp/cciUv5bs.s:621    .text:00000000000003a8 .LBB25
     /tmp/cciUv5bs.s:637    .text:00000000000003c0 .LBE25
     /tmp/cciUv5bs.s:7712   .debug_loc:0000000000000f14 .LLST20
     /tmp/cciUv5bs.s:639    .text:00000000000003c0 .LBB27
     /tmp/cciUv5bs.s:648    .text:00000000000003d0 .LBE27
     /tmp/cciUv5bs.s:7725   .debug_loc:0000000000000f4d .LLST21
     /tmp/cciUv5bs.s:644    .text:00000000000003cc .LVL63
     /tmp/cciUv5bs.s:577    .text:000000000000036c .LVL55
     /tmp/cciUv5bs.s:653    .text:00000000000003e0 .LVL65
     /tmp/cciUv5bs.s:8161   .debug_str:0000000000000897 .LASF231
     /tmp/cciUv5bs.s:353    .text:00000000000001ec .LFB114
     /tmp/cciUv5bs.s:544    .text:000000000000033c .LFE114
     /tmp/cciUv5bs.s:7734   .debug_loc:0000000000000f72 .LLST9
     /tmp/cciUv5bs.s:7752   .debug_loc:0000000000000fbe .LLST10
     /tmp/cciUv5bs.s:7766   .debug_loc:0000000000000ff7 .LLST11
     /tmp/cciUv5bs.s:7780   .debug_loc:0000000000001030 .LLST12
     /tmp/cciUv5bs.s:7795   .debug_loc:0000000000001079 .LLST13
     /tmp/cciUv5bs.s:7819   .debug_loc:00000000000010bd .LLST14
     /tmp/cciUv5bs.s:381    .text:0000000000000218 .LBB18
     /tmp/cciUv5bs.s:390    .text:0000000000000224 .LBE18
     /tmp/cciUv5bs.s:423    .text:0000000000000260 .LBB20
     /tmp/cciUv5bs.s:441    .text:000000000000027c .LBE20
     /tmp/cciUv5bs.s:7830   .debug_loc:00000000000010f3 .LLST15
     /tmp/cciUv5bs.s:454    .text:0000000000000290 .LBB21
     /tmp/cciUv5bs.s:479    .text:00000000000002bc .LBE21
     /tmp/cciUv5bs.s:7842   .debug_loc:000000000000112a .LLST16
     /tmp/cciUv5bs.s:403    .text:000000000000023c .LVL32
     /tmp/cciUv5bs.s:417    .text:000000000000025c .LVL34
     /tmp/cciUv5bs.s:448    .text:000000000000028c .LVL38
     /tmp/cciUv5bs.s:493    .text:00000000000002e0 .LVL44
     /tmp/cciUv5bs.s:527    .text:0000000000000314 .LVL50
     /tmp/cciUv5bs.s:534    .text:0000000000000328 .LVL51
     /tmp/cciUv5bs.s:539    .text:0000000000000338 .LVL52
     /tmp/cciUv5bs.s:7937   .debug_str:0000000000000098 .LASF215
     /tmp/cciUv5bs.s:8353   .debug_str:0000000000000e6f .LASF216
     /tmp/cciUv5bs.s:8191   .debug_str:00000000000009bf .LASF218
     /tmp/cciUv5bs.s:8325   .debug_str:0000000000000d6c .LASF217
     /tmp/cciUv5bs.s:8119   .debug_str:0000000000000725 .LASF219
     /tmp/cciUv5bs.s:8043   .debug_str:00000000000003ac .LASF220
     /tmp/cciUv5bs.s:8229   .debug_str:0000000000000abc .LASF221
     /tmp/cciUv5bs.s:7953   .debug_str:000000000000011a .LASF222
     /tmp/cciUv5bs.s:8117   .debug_str:0000000000000719 .LASF223
     /tmp/cciUv5bs.s:1276   .text:00000000000007fc .LVL135
     /tmp/cciUv5bs.s:1304   .text:000000000000083c .LVL136
     /tmp/cciUv5bs.s:1360   .text:0000000000000900 .LVL148
     /tmp/cciUv5bs.s:1366   .text:0000000000000908 .LVL149
GAS LISTING /tmp/cciUv5bs.s 			page 74


     /tmp/cciUv5bs.s:1371   .text:0000000000000914 .LVL151
     /tmp/cciUv5bs.s:1411   .text:0000000000000960 .LVL156
     /tmp/cciUv5bs.s:1413   .text:0000000000000964 .LVL157
     /tmp/cciUv5bs.s:1466   .text:0000000000000a00 .LVL165
     /tmp/cciUv5bs.s:1468   .text:0000000000000a04 .LVL166
     /tmp/cciUv5bs.s:1485   .text:0000000000000a20 .LVL168
     /tmp/cciUv5bs.s:1523   .text:0000000000000a7c .LVL174
     /tmp/cciUv5bs.s:1191   .text:0000000000000758 .LVL122
     /tmp/cciUv5bs.s:1209   .text:0000000000000780 .LVL123
     /tmp/cciUv5bs.s:1251   .text:00000000000007e0 .LVL131
     /tmp/cciUv5bs.s:1255   .text:00000000000007e8 .LVL132
     /tmp/cciUv5bs.s:1248   .text:00000000000007dc .LVL130
     /tmp/cciUv5bs.s:1235   .text:00000000000007c8 .LVL128
     /tmp/cciUv5bs.s:1261   .text:00000000000007f0 .LVL133
     /tmp/cciUv5bs.s:1109   .text:00000000000006d0 .LVL106
     /tmp/cciUv5bs.s:1164   .text:000000000000073c .LVL118
     /tmp/cciUv5bs.s:1168   .text:0000000000000744 .LVL119
     /tmp/cciUv5bs.s:1117   .text:00000000000006e4 .LVL107
     /tmp/cciUv5bs.s:1125   .text:00000000000006f0 .LVL108
     /tmp/cciUv5bs.s:1130   .text:00000000000006fc .LVL110
     /tmp/cciUv5bs.s:1134   .text:0000000000000700 .LVL111
     /tmp/cciUv5bs.s:1176   .text:0000000000000750 .LVL121
     /tmp/cciUv5bs.s:1143   .text:0000000000000718 .LVL114
     /tmp/cciUv5bs.s:1147   .text:0000000000000724 .LVL116
     /tmp/cciUv5bs.s:1150   .text:0000000000000728 .LVL117
     /tmp/cciUv5bs.s:880    .text:0000000000000538 .LVL84
     /tmp/cciUv5bs.s:897    .text:0000000000000554 .LVL86
     /tmp/cciUv5bs.s:890    .text:0000000000000548 .LVL85
     /tmp/cciUv5bs.s:900    .text:0000000000000558 .LVL87
     /tmp/cciUv5bs.s:837    .text:00000000000004fc .LVL80
     /tmp/cciUv5bs.s:857    .text:000000000000051c .LVL83
     /tmp/cciUv5bs.s:847    .text:000000000000050c .LVL81
     /tmp/cciUv5bs.s:854    .text:0000000000000518 .LVL82
     /tmp/cciUv5bs.s:178    .text:00000000000000d8 .LVL12
     /tmp/cciUv5bs.s:195    .text:00000000000000f4 .LVL14
     /tmp/cciUv5bs.s:198    .text:00000000000000f8 .LVL15
     /tmp/cciUv5bs.s:1633   .text:0000000000000abc .LVL181
     /tmp/cciUv5bs.s:1741   .text:0000000000000b94 .LVL188
     /tmp/cciUv5bs.s:1749   .text:0000000000000ba4 .LVL189
     /tmp/cciUv5bs.s:1674   .text:0000000000000b14 .LVL182
     /tmp/cciUv5bs.s:1706   .text:0000000000000b54 .LVL185
     /tmp/cciUv5bs.s:1756   .text:0000000000000bac .LVL190
     /tmp/cciUv5bs.s:1774   .text:0000000000000bd8 .LVL193
     /tmp/cciUv5bs.s:1778   .text:0000000000000bdc .LVL194
     /tmp/cciUv5bs.s:118    .text:0000000000000084 .LVL6
     /tmp/cciUv5bs.s:139    .text:00000000000000ac .LVL7
     /tmp/cciUv5bs.s:156    .text:00000000000000c8 .LVL8
     /tmp/cciUv5bs.s:161    .text:00000000000000cc .LVL9
     /tmp/cciUv5bs.s:163    .text:00000000000000d0 .LVL10
     /tmp/cciUv5bs.s:166    .text:00000000000000d4 .LVL11
     /tmp/cciUv5bs.s:675    .text:00000000000003fc .LVL66
     /tmp/cciUv5bs.s:769    .text:00000000000004b0 .LVL70
     /tmp/cciUv5bs.s:775    .text:00000000000004bc .LVL71
     /tmp/cciUv5bs.s:788    .text:00000000000004d4 .LVL73
     /tmp/cciUv5bs.s:798    .text:00000000000004d8 .LVL74
     /tmp/cciUv5bs.s:800    .text:00000000000004dc .LVL75
     /tmp/cciUv5bs.s:804    .text:00000000000004e0 .LVL76
GAS LISTING /tmp/cciUv5bs.s 			page 75


     /tmp/cciUv5bs.s:806    .text:00000000000004e4 .LVL77
     /tmp/cciUv5bs.s:809    .text:00000000000004e8 .LVL78
     /tmp/cciUv5bs.s:812    .text:00000000000004ec .LVL79
     /tmp/cciUv5bs.s:713    .text:0000000000000450 .LVL67
     /tmp/cciUv5bs.s:766    .text:00000000000004ac .LVL69
     /tmp/cciUv5bs.s:44     .text:0000000000000024 .LVL0
     /tmp/cciUv5bs.s:94     .text:0000000000000070 .LVL4
     /tmp/cciUv5bs.s:102    .text:000000000000007c .LVL5
     /tmp/cciUv5bs.s:61     .text:0000000000000040 .LVL1
     /tmp/cciUv5bs.s:65     .text:0000000000000048 .LVL2
     /tmp/cciUv5bs.s:90     .text:000000000000006c .LVL3
     /tmp/cciUv5bs.s:219    .text:000000000000010c .LVL16
     /tmp/cciUv5bs.s:311    .text:00000000000001c0 .LVL20
     /tmp/cciUv5bs.s:317    .text:00000000000001cc .LVL21
     /tmp/cciUv5bs.s:321    .text:00000000000001d0 .LVL22
     /tmp/cciUv5bs.s:323    .text:00000000000001d4 .LVL23
     /tmp/cciUv5bs.s:327    .text:00000000000001d8 .LVL24
     /tmp/cciUv5bs.s:329    .text:00000000000001dc .LVL25
     /tmp/cciUv5bs.s:332    .text:00000000000001e0 .LVL26
     /tmp/cciUv5bs.s:335    .text:00000000000001e4 .LVL27
     /tmp/cciUv5bs.s:257    .text:0000000000000160 .LVL17
     /tmp/cciUv5bs.s:308    .text:00000000000001bc .LVL19
     /tmp/cciUv5bs.s:1790   .text:0000000000000be0 .LVL195
     /tmp/cciUv5bs.s:1914   .text:0000000000000cc4 .LVL207
     /tmp/cciUv5bs.s:1922   .text:0000000000000cd4 .LVL208
     /tmp/cciUv5bs.s:1926   .text:0000000000000cd8 .LVL209
     /tmp/cciUv5bs.s:1929   .text:0000000000000cdc .LVL210
     /tmp/cciUv5bs.s:1940   .text:0000000000000ce0 .LVL211
     /tmp/cciUv5bs.s:1942   .text:0000000000000ce4 .LVL212
     /tmp/cciUv5bs.s:1946   .text:0000000000000ce8 .LVL213
     /tmp/cciUv5bs.s:1948   .text:0000000000000cec .LVL214
     /tmp/cciUv5bs.s:1952   .text:0000000000000cf0 .LVL215
     /tmp/cciUv5bs.s:1843   .text:0000000000000c4c .LVL197
     /tmp/cciUv5bs.s:1865   .text:0000000000000c78 .LVL201
     /tmp/cciUv5bs.s:1954   .text:0000000000000cf4 .LVL216
     /tmp/cciUv5bs.s:1833   .text:0000000000000c3c .LVL196
     /tmp/cciUv5bs.s:1902   .text:0000000000000cb4 .LVL206
     /tmp/cciUv5bs.s:1849   .text:0000000000000c58 .LVL199
     /tmp/cciUv5bs.s:1870   .text:0000000000000c7c .LVL202
     /tmp/cciUv5bs.s:1889   .text:0000000000000c9c .LVL204
     /tmp/cciUv5bs.s:924    .text:0000000000000578 .LVL88
     /tmp/cciUv5bs.s:1065   .text:0000000000000698 .LVL104
     /tmp/cciUv5bs.s:979    .text:00000000000005e0 .LVL92
     /tmp/cciUv5bs.s:951    .text:00000000000005a8 .LVL89
     /tmp/cciUv5bs.s:967    .text:00000000000005c8 .LVL90
     /tmp/cciUv5bs.s:969    .text:00000000000005cc .LVL91
     /tmp/cciUv5bs.s:1012   .text:0000000000000628 .LVL99
     /tmp/cciUv5bs.s:1025   .text:000000000000064c .LVL101
     /tmp/cciUv5bs.s:1071   .text:00000000000006a0 .LVL105
     /tmp/cciUv5bs.s:983    .text:00000000000005ec .LVL94
     /tmp/cciUv5bs.s:997    .text:0000000000000604 .LVL96
     /tmp/cciUv5bs.s:1006   .text:000000000000061c .LVL97
     /tmp/cciUv5bs.s:1029   .text:0000000000000650 .LVL102
     /tmp/cciUv5bs.s:555    .text:000000000000033c .LVL53
     /tmp/cciUv5bs.s:575    .text:0000000000000364 .LVL54
     /tmp/cciUv5bs.s:609    .text:0000000000000398 .LVL59
     /tmp/cciUv5bs.s:617    .text:00000000000003a8 .LVL60
GAS LISTING /tmp/cciUv5bs.s 			page 76


     /tmp/cciUv5bs.s:629    .text:00000000000003b4 .LVL61
     /tmp/cciUv5bs.s:635    .text:00000000000003c0 .LVL62
     /tmp/cciUv5bs.s:587    .text:0000000000000380 .LVL56
     /tmp/cciUv5bs.s:593    .text:0000000000000384 .LVL57
     /tmp/cciUv5bs.s:646    .text:00000000000003d0 .LVL64
     /tmp/cciUv5bs.s:356    .text:00000000000001ec .LVL28
     /tmp/cciUv5bs.s:388    .text:0000000000000224 .LVL29
     /tmp/cciUv5bs.s:495    .text:00000000000002e4 .LVL45
     /tmp/cciUv5bs.s:401    .text:0000000000000234 .LVL31
     /tmp/cciUv5bs.s:412    .text:0000000000000250 .LVL33
     /tmp/cciUv5bs.s:512    .text:00000000000002f8 .LVL47
     /tmp/cciUv5bs.s:518    .text:0000000000000304 .LVL48
     /tmp/cciUv5bs.s:397    .text:0000000000000230 .LVL30
     /tmp/cciUv5bs.s:498    .text:00000000000002e8 .LVL46
     /tmp/cciUv5bs.s:525    .text:000000000000030c .LVL49
     /tmp/cciUv5bs.s:422    .text:0000000000000260 .LVL35
     /tmp/cciUv5bs.s:426    .text:0000000000000264 .LVL36
     /tmp/cciUv5bs.s:453    .text:0000000000000290 .LVL39
     /tmp/cciUv5bs.s:457    .text:0000000000000294 .LVL40
     /tmp/cciUv5bs.s:474    .text:00000000000002b4 .LVL41
     /tmp/cciUv5bs.s:476    .text:00000000000002b8 .LVL42
     /tmp/cciUv5bs.s:484    .text:00000000000002c4 .LVL43
     /tmp/cciUv5bs.s:2030   .debug_info:0000000000000000 .Ldebug_info0
     /tmp/cciUv5bs.s:8      .text:0000000000000000 .Ltext0
     /tmp/cciUv5bs.s:2023   .text:0000000000000cfc .Letext0
     /tmp/cciUv5bs.s:373    .text:0000000000000210 .LBB17
     /tmp/cciUv5bs.s:500    .text:00000000000002e8 .LBE17
     /tmp/cciUv5bs.s:521    .text:0000000000000304 .LBB22
     /tmp/cciUv5bs.s:540    .text:0000000000000338 .LBE22
     /tmp/cciUv5bs.s:1356   .text:00000000000008f8 .LBB33
     /tmp/cciUv5bs.s:1362   .text:0000000000000900 .LBE33
     /tmp/cciUv5bs.s:1373   .text:0000000000000914 .LBB38
     /tmp/cciUv5bs.s:1472   .text:0000000000000a04 .LBE38
     /tmp/cciUv5bs.s:1375   .text:0000000000000914 .LBB35
     /tmp/cciUv5bs.s:1402   .text:000000000000094c .LBE35
     /tmp/cciUv5bs.s:1459   .text:00000000000009f4 .LBB36
     /tmp/cciUv5bs.s:1470   .text:0000000000000a04 .LBE36
     /tmp/cciUv5bs.s:1867   .text:0000000000000c78 .LBB41
     /tmp/cciUv5bs.s:1872   .text:0000000000000c7c .LBE41
     /tmp/cciUv5bs.s:1880   .text:0000000000000c88 .LBB42
     /tmp/cciUv5bs.s:1891   .text:0000000000000c9c .LBE42

UNDEFINED SYMBOLS
_ZN7NoAlloc16NOALLOC_END_ADDRE
_ZN7NoAlloc9mem_allocEm
_Z12kprintStringPKc
_Z9kprintIntmib
_Z4log2m
HEAP_END_ADDR
_Z11closest2powm
_ZN13SlabAllocator11getInstanceEv
