GAS LISTING /tmp/ccnj0rAi.s 			page 1


   1              		.file	"memory_allocator.cpp"
   2              		.option nopic
   3              		.option norelax
   4              		.attribute arch, "rv64i2p0_m2p0_a2p0"
   5              		.attribute unaligned_access, 0
   6              		.attribute stack_align, 16
   7              		.text
   8              	.Ltext0:
   9              		.align	2
  10              		.globl	_ZN15MemoryAllocator11getInstanceEv
  12              	_ZN15MemoryAllocator11getInstanceEv:
  13              	.LFB113:
  14              		.file 1 "src/kernel/mmanagement/memory_allocator.cpp"
   1:src/kernel/mmanagement/memory_allocator.cpp **** #include"../../../h/kernel_lib.h"
   2:src/kernel/mmanagement/memory_allocator.cpp **** 
   3:src/kernel/mmanagement/memory_allocator.cpp **** MemoryAllocator* MemoryAllocator::allocator = nullptr;
   4:src/kernel/mmanagement/memory_allocator.cpp **** 
   5:src/kernel/mmanagement/memory_allocator.cpp **** MemoryAllocator& MemoryAllocator::getInstance(){
  15              		.loc 1 5 48
  16              		.cfi_startproc
  17              		.cfi_personality 0x9b,DW.ref.__gxx_personality_v0
  18              		.cfi_lsda 0x1b,.LLSDA113
   6:src/kernel/mmanagement/memory_allocator.cpp ****     if(!allocator){
  19              		.loc 1 6 5
  20              	.LBB14:
  21              		.loc 1 6 8 is_stmt 0
  22 0000 97070000 		lla	a5,_ZN15MemoryAllocator9allocatorE
  22      93870700 
  23 0008 83B70700 		ld	a5,0(a5)
  24              		.loc 1 6 5
  25 000c 638A0700 		beq	a5,zero,.L13
  26              	.LBE14:
   7:src/kernel/mmanagement/memory_allocator.cpp ****         allocator = (MemoryAllocator*)SlabAllocator::getInstance().kmalloc(sizeof(MemoryAllocator))
   8:src/kernel/mmanagement/memory_allocator.cpp ****         allocator->node_cache = new ObjectCache("free_seg_meta_cache", sizeof(FreeSegment), 0, 0);
   9:src/kernel/mmanagement/memory_allocator.cpp ****         if(!allocator->node_cache){ kprintString("MEM ALLOC node cache not allocated\n"); while(1);
  10:src/kernel/mmanagement/memory_allocator.cpp ****         
  11:src/kernel/mmanagement/memory_allocator.cpp ****         allocator->fall_head = nullptr;
  12:src/kernel/mmanagement/memory_allocator.cpp ****         //allocator->fmem_head = (FreeSegment*)NoAlloc::getEndAddress();
  13:src/kernel/mmanagement/memory_allocator.cpp ****         allocator->fmem_head = (FreeSegment*)allocator->node_cache->alloc_obj();
  14:src/kernel/mmanagement/memory_allocator.cpp ****         allocator->fmem_head->next = nullptr;
  15:src/kernel/mmanagement/memory_allocator.cpp **** 
  16:src/kernel/mmanagement/memory_allocator.cpp ****         size_t start_addr = (((size_t)NoAlloc::getEndAddress() - 1) & (~0xfff)) + 0x1000;
  17:src/kernel/mmanagement/memory_allocator.cpp ****         KVALCHECKPRINT("MemoryAllocator start address: ", start_addr);
  18:src/kernel/mmanagement/memory_allocator.cpp ****         allocator->fmem_head->addr = (void*) start_addr;
  19:src/kernel/mmanagement/memory_allocator.cpp ****         allocator->fmem_head->size = ((size_t)HEAP_END_ADDR - start_addr);
  20:src/kernel/mmanagement/memory_allocator.cpp ****         allocator->init = true;
  21:src/kernel/mmanagement/memory_allocator.cpp ****     }
  22:src/kernel/mmanagement/memory_allocator.cpp ****     return *allocator;
  27              		.loc 1 22 5 is_stmt 1
  28              		.loc 1 22 13 is_stmt 0
  29 0010 97070000 		lla	a5,_ZN15MemoryAllocator9allocatorE
  29      93870700 
  30 0018 03B50700 		ld	a0,0(a5)
  23:src/kernel/mmanagement/memory_allocator.cpp **** }
  31              		.loc 1 23 1
  32 001c 67800000 		ret
  33              	.L13:
GAS LISTING /tmp/ccnj0rAi.s 			page 2


   5:src/kernel/mmanagement/memory_allocator.cpp ****     if(!allocator){
  34              		.loc 1 5 48
  35 0020 130101FE 		addi	sp,sp,-32
  36              		.cfi_def_cfa_offset 32
  37 0024 233C1100 		sd	ra,24(sp)
  38 0028 23388100 		sd	s0,16(sp)
  39 002c 23349100 		sd	s1,8(sp)
  40 0030 23302101 		sd	s2,0(sp)
  41              		.cfi_offset 1, -8
  42              		.cfi_offset 8, -16
  43              		.cfi_offset 9, -24
  44              		.cfi_offset 18, -32
  45 0034 13040102 		addi	s0,sp,32
  46              		.cfi_def_cfa 8, 0
  47              	.LBB19:
  48              	.LBB15:
   7:src/kernel/mmanagement/memory_allocator.cpp ****         allocator = (MemoryAllocator*)SlabAllocator::getInstance().kmalloc(sizeof(MemoryAllocator))
  49              		.loc 1 7 9 is_stmt 1
  50              	.LEHB0:
   7:src/kernel/mmanagement/memory_allocator.cpp ****         allocator = (MemoryAllocator*)SlabAllocator::getInstance().kmalloc(sizeof(MemoryAllocator))
  51              		.loc 1 7 66 is_stmt 0
  52 0038 97000000 		call	_ZN13SlabAllocator11getInstanceEv
  52      E7800000 
  53              	.LVL0:
   7:src/kernel/mmanagement/memory_allocator.cpp ****         allocator = (MemoryAllocator*)SlabAllocator::getInstance().kmalloc(sizeof(MemoryAllocator))
  54              		.loc 1 7 75
  55 0040 93050002 		li	a1,32
  56 0044 97000000 		call	_ZN13SlabAllocator7kmallocEm
  56      E7800000 
  57              	.LVL1:
   7:src/kernel/mmanagement/memory_allocator.cpp ****         allocator = (MemoryAllocator*)SlabAllocator::getInstance().kmalloc(sizeof(MemoryAllocator))
  58              		.loc 1 7 19
  59 004c 97070000 		sd	a0,_ZN15MemoryAllocator9allocatorE,a5
  59      23B0A700 
   8:src/kernel/mmanagement/memory_allocator.cpp ****         if(!allocator->node_cache){ kprintString("MEM ALLOC node cache not allocated\n"); while(1);
  60              		.loc 1 8 9 is_stmt 1
   8:src/kernel/mmanagement/memory_allocator.cpp ****         if(!allocator->node_cache){ kprintString("MEM ALLOC node cache not allocated\n"); while(1);
  61              		.loc 1 8 97 is_stmt 0
  62 0054 13058005 		li	a0,88
  63 0058 97000000 		call	_ZN11ObjectCachenwEm
  63      E7800000 
  64              	.LVL2:
  65              	.LEHE0:
  66 0060 93040500 		mv	s1,a0
  67 0064 63020502 		beq	a0,zero,.L3
   8:src/kernel/mmanagement/memory_allocator.cpp ****         if(!allocator->node_cache){ kprintString("MEM ALLOC node cache not allocated\n"); while(1);
  68              		.loc 1 8 97 discriminator 1
  69 0068 93070000 		li	a5,0
  70 006c 13070000 		li	a4,0
  71 0070 93060000 		li	a3,0
  72 0074 13068001 		li	a2,24
  73 0078 97050000 		lla	a1,.LC0
  73      93850500 
  74              	.LEHB1:
  75 0080 97000000 		call	_ZN11ObjectCacheC1EPKcmPFvPvES4_NS_12SlabMetaTypeE
  75      E7800000 
  76              	.LVL3:
GAS LISTING /tmp/ccnj0rAi.s 			page 3


  77              	.LEHE1:
  78              	.L3:
   8:src/kernel/mmanagement/memory_allocator.cpp ****         if(!allocator->node_cache){ kprintString("MEM ALLOC node cache not allocated\n"); while(1);
  79              		.loc 1 8 20 discriminator 6
  80 0088 97070000 		lla	a5,_ZN15MemoryAllocator9allocatorE
  80      93870700 
  81 0090 03B90700 		ld	s2,0(a5)
   8:src/kernel/mmanagement/memory_allocator.cpp ****         if(!allocator->node_cache){ kprintString("MEM ALLOC node cache not allocated\n"); while(1);
  82              		.loc 1 8 31 discriminator 6
  83 0094 233C9900 		sd	s1,24(s2)
   9:src/kernel/mmanagement/memory_allocator.cpp ****         
  84              		.loc 1 9 9 is_stmt 1 discriminator 6
  85 0098 6388040C 		beq	s1,zero,.L14
  11:src/kernel/mmanagement/memory_allocator.cpp ****         //allocator->fmem_head = (FreeSegment*)NoAlloc::getEndAddress();
  86              		.loc 1 11 9
  11:src/kernel/mmanagement/memory_allocator.cpp ****         //allocator->fmem_head = (FreeSegment*)NoAlloc::getEndAddress();
  87              		.loc 1 11 30 is_stmt 0
  88 009c 23380900 		sd	zero,16(s2)
  13:src/kernel/mmanagement/memory_allocator.cpp ****         allocator->fmem_head->next = nullptr;
  89              		.loc 1 13 9 is_stmt 1
  13:src/kernel/mmanagement/memory_allocator.cpp ****         allocator->fmem_head->next = nullptr;
  90              		.loc 1 13 78 is_stmt 0
  91 00a0 13850400 		mv	a0,s1
  92              	.LEHB2:
  93 00a4 97000000 		call	_ZN11ObjectCache9alloc_objEv
  93      E7800000 
  94              	.LVL4:
  13:src/kernel/mmanagement/memory_allocator.cpp ****         allocator->fmem_head->next = nullptr;
  95              		.loc 1 13 30
  96 00ac 2334A900 		sd	a0,8(s2)
  14:src/kernel/mmanagement/memory_allocator.cpp **** 
  97              		.loc 1 14 9 is_stmt 1
  14:src/kernel/mmanagement/memory_allocator.cpp **** 
  98              		.loc 1 14 20 is_stmt 0
  99 00b0 17090000 		lla	s2,_ZN15MemoryAllocator9allocatorE
  99      13090900 
 100 00b8 83370900 		ld	a5,0(s2)
 101 00bc 83B78700 		ld	a5,8(a5)
  14:src/kernel/mmanagement/memory_allocator.cpp **** 
 102              		.loc 1 14 36
 103 00c0 23B00700 		sd	zero,0(a5)
  16:src/kernel/mmanagement/memory_allocator.cpp ****         KVALCHECKPRINT("MemoryAllocator start address: ", start_addr);
 104              		.loc 1 16 9 is_stmt 1
 105              	.LBB16:
 106              	.LBB17:
 107              		.file 2 "src/kernel/mmanagement/../../../h/../h/noalloc_allocator.hpp"
   1:src/kernel/mmanagement/../../../h/../h/noalloc_allocator.hpp **** #ifndef NOALLOC_ALLOCATOR_H
   2:src/kernel/mmanagement/../../../h/../h/noalloc_allocator.hpp **** #define NOALLOC_ALLOCATOR_H
   3:src/kernel/mmanagement/../../../h/../h/noalloc_allocator.hpp **** 
   4:src/kernel/mmanagement/../../../h/../h/noalloc_allocator.hpp **** #include"../lib/hw.h"
   5:src/kernel/mmanagement/../../../h/../h/noalloc_allocator.hpp **** 
   6:src/kernel/mmanagement/../../../h/../h/noalloc_allocator.hpp **** /* CHECK THIS !!!!!
   7:src/kernel/mmanagement/../../../h/../h/noalloc_allocator.hpp **** *
   8:src/kernel/mmanagement/../../../h/../h/noalloc_allocator.hpp **** * No existing allocator operator functions;
   9:src/kernel/mmanagement/../../../h/../h/noalloc_allocator.hpp **** * Used for allocating allocator objects;
  10:src/kernel/mmanagement/../../../h/../h/noalloc_allocator.hpp **** * Allocators are not deallocated so operator delete is not needed;
  11:src/kernel/mmanagement/../../../h/../h/noalloc_allocator.hpp **** *
GAS LISTING /tmp/ccnj0rAi.s 			page 4


  12:src/kernel/mmanagement/../../../h/../h/noalloc_allocator.hpp **** */
  13:src/kernel/mmanagement/../../../h/../h/noalloc_allocator.hpp **** #define __NOALLOC_OPERATORS__ \
  14:src/kernel/mmanagement/../../../h/../h/noalloc_allocator.hpp **** void* operator new(size_t sz){ return NoAlloc::mem_alloc(sz); } \
  15:src/kernel/mmanagement/../../../h/../h/noalloc_allocator.hpp **** void* operator new[](size_t sz){ return NoAlloc::mem_alloc(sz); } \
  16:src/kernel/mmanagement/../../../h/../h/noalloc_allocator.hpp **** void operator delete(void* ptr){  } \
  17:src/kernel/mmanagement/../../../h/../h/noalloc_allocator.hpp **** void operator delete[](void* ptr){  }
  18:src/kernel/mmanagement/../../../h/../h/noalloc_allocator.hpp **** 
  19:src/kernel/mmanagement/../../../h/../h/noalloc_allocator.hpp **** 
  20:src/kernel/mmanagement/../../../h/../h/noalloc_allocator.hpp **** /* 
  21:src/kernel/mmanagement/../../../h/../h/noalloc_allocator.hpp **** * Continual allocation used when there is no allocator;
  22:src/kernel/mmanagement/../../../h/../h/noalloc_allocator.hpp **** * -----USED FOR ALLOCATING ALLOCATOR OBJECTS-----
  23:src/kernel/mmanagement/../../../h/../h/noalloc_allocator.hpp **** */
  24:src/kernel/mmanagement/../../../h/../h/noalloc_allocator.hpp **** class NoAlloc{ /* singleton */ 
  25:src/kernel/mmanagement/../../../h/../h/noalloc_allocator.hpp ****     static bool working;
  26:src/kernel/mmanagement/../../../h/../h/noalloc_allocator.hpp ****     static void* NOALLOC_END_ADDR; 
  27:src/kernel/mmanagement/../../../h/../h/noalloc_allocator.hpp **** public:
  28:src/kernel/mmanagement/../../../h/../h/noalloc_allocator.hpp ****     static void init(); /* set NOALLOC END ADDR = HEAP START ADDR */
  29:src/kernel/mmanagement/../../../h/../h/noalloc_allocator.hpp ****     static void* getEndAddress(){ return NOALLOC_END_ADDR; } /* get end address of allocated object
 108              		.loc 2 29 35
 109              		.loc 2 29 42 is_stmt 0
 110 00c4 97070000 		lla	a5,_ZN7NoAlloc16NOALLOC_END_ADDRE
 110      93870700 
 111 00cc 83B40700 		ld	s1,0(a5)
 112              	.LBE17:
 113              	.LBE16:
  16:src/kernel/mmanagement/memory_allocator.cpp ****         KVALCHECKPRINT("MemoryAllocator start address: ", start_addr);
 114              		.loc 1 16 64
 115 00d0 9384F4FF 		addi	s1,s1,-1
  16:src/kernel/mmanagement/memory_allocator.cpp ****         KVALCHECKPRINT("MemoryAllocator start address: ", start_addr);
 116              		.loc 1 16 69
 117 00d4 B7F7FFFF 		li	a5,-4096
 118 00d8 B3F4F400 		and	s1,s1,a5
  16:src/kernel/mmanagement/memory_allocator.cpp ****         KVALCHECKPRINT("MemoryAllocator start address: ", start_addr);
 119              		.loc 1 16 83
 120 00dc B7170000 		li	a5,4096
 121 00e0 B384F400 		add	s1,s1,a5
 122              	.LVL5:
  17:src/kernel/mmanagement/memory_allocator.cpp ****         allocator->fmem_head->addr = (void*) start_addr;
 123              		.loc 1 17 9 is_stmt 1
 124 00e4 17050000 		lla	a0,.LC2
 124      13050500 
 125 00ec 97000000 		call	_Z12kprintStringPKc
 125      E7800000 
 126              	.LVL6:
  17:src/kernel/mmanagement/memory_allocator.cpp ****         allocator->fmem_head->addr = (void*) start_addr;
 127              		.loc 1 17 9
 128 00f4 13060000 		li	a2,0
 129 00f8 93050001 		li	a1,16
 130 00fc 13850400 		mv	a0,s1
 131 0100 97000000 		call	_Z9kprintIntmib
 131      E7800000 
 132              	.LVL7:
  17:src/kernel/mmanagement/memory_allocator.cpp ****         allocator->fmem_head->addr = (void*) start_addr;
 133              		.loc 1 17 9
 134 0108 17050000 		lla	a0,.LC3
 134      13050500 
 135 0110 97000000 		call	_Z12kprintStringPKc
GAS LISTING /tmp/ccnj0rAi.s 			page 5


 135      E7800000 
 136              	.LVL8:
  18:src/kernel/mmanagement/memory_allocator.cpp ****         allocator->fmem_head->size = ((size_t)HEAP_END_ADDR - start_addr);
 137              		.loc 1 18 9
  18:src/kernel/mmanagement/memory_allocator.cpp ****         allocator->fmem_head->size = ((size_t)HEAP_END_ADDR - start_addr);
 138              		.loc 1 18 20 is_stmt 0
 139 0118 83370900 		ld	a5,0(s2)
 140 011c 03B78700 		ld	a4,8(a5)
  18:src/kernel/mmanagement/memory_allocator.cpp ****         allocator->fmem_head->size = ((size_t)HEAP_END_ADDR - start_addr);
 141              		.loc 1 18 36
 142 0120 23389700 		sd	s1,16(a4)
  19:src/kernel/mmanagement/memory_allocator.cpp ****         allocator->init = true;
 143              		.loc 1 19 9 is_stmt 1
  19:src/kernel/mmanagement/memory_allocator.cpp ****         allocator->init = true;
 144              		.loc 1 19 20 is_stmt 0
 145 0124 83B68700 		ld	a3,8(a5)
  19:src/kernel/mmanagement/memory_allocator.cpp ****         allocator->init = true;
 146              		.loc 1 19 61
 147 0128 17070000 		lla	a4,HEAP_END_ADDR
 147      13070700 
 148 0130 03370700 		ld	a4,0(a4)
 149 0134 B3049740 		sub	s1,a4,s1
 150              	.LVL9:
  19:src/kernel/mmanagement/memory_allocator.cpp ****         allocator->init = true;
 151              		.loc 1 19 36
 152 0138 23B49600 		sd	s1,8(a3)
  20:src/kernel/mmanagement/memory_allocator.cpp ****     }
 153              		.loc 1 20 9 is_stmt 1
  20:src/kernel/mmanagement/memory_allocator.cpp ****     }
 154              		.loc 1 20 25 is_stmt 0
 155 013c 13071000 		li	a4,1
 156 0140 2380E700 		sb	a4,0(a5)
 157              	.LBE15:
 158              	.LBE19:
  22:src/kernel/mmanagement/memory_allocator.cpp **** }
 159              		.loc 1 22 5 is_stmt 1
  22:src/kernel/mmanagement/memory_allocator.cpp **** }
 160              		.loc 1 22 13 is_stmt 0
 161 0144 97070000 		lla	a5,_ZN15MemoryAllocator9allocatorE
 161      93870700 
 162 014c 03B50700 		ld	a0,0(a5)
 163              		.loc 1 23 1
 164 0150 83308101 		ld	ra,24(sp)
 165              		.cfi_remember_state
 166              		.cfi_restore 1
 167 0154 03340101 		ld	s0,16(sp)
 168              		.cfi_restore 8
 169              		.cfi_def_cfa 2, 32
 170 0158 83348100 		ld	s1,8(sp)
 171              		.cfi_restore 9
 172 015c 03390100 		ld	s2,0(sp)
 173              		.cfi_restore 18
 174 0160 13010102 		addi	sp,sp,32
 175              		.cfi_def_cfa_offset 0
 176 0164 67800000 		jr	ra
 177              	.L14:
 178              		.cfi_restore_state
GAS LISTING /tmp/ccnj0rAi.s 			page 6


 179              	.LBB20:
 180              	.LBB18:
   9:src/kernel/mmanagement/memory_allocator.cpp ****         
 181              		.loc 1 9 37 is_stmt 1 discriminator 1
   9:src/kernel/mmanagement/memory_allocator.cpp ****         
 182              		.loc 1 9 49 is_stmt 0 discriminator 1
 183 0168 17050000 		lla	a0,.LC1
 183      13050500 
 184 0170 97000000 		call	_Z12kprintStringPKc
 184      E7800000 
 185              	.LVL10:
 186              	.LEHE2:
 187              	.L5:
   9:src/kernel/mmanagement/memory_allocator.cpp ****         
 188              		.loc 1 9 91 is_stmt 1 discriminator 1
 189 0178 6F000000 		j	.L5
 190              	.L7:
 191 017c 13090500 		mv	s2,a0
   8:src/kernel/mmanagement/memory_allocator.cpp ****         if(!allocator->node_cache){ kprintString("MEM ALLOC node cache not allocated\n"); while(1);
 192              		.loc 1 8 97 is_stmt 0
 193 0180 13850400 		mv	a0,s1
 194 0184 97000000 		call	_ZN11ObjectCachedlEPv
 194      E7800000 
 195              	.LVL11:
 196 018c 13050900 		mv	a0,s2
 197              	.LEHB3:
 198 0190 97000000 		call	_Unwind_Resume
 198      E7800000 
 199              	.LVL12:
 200              	.LEHE3:
 201              	.LBE18:
 202              	.LBE20:
 203              		.cfi_endproc
 204              	.LFE113:
 205              		.globl	__gxx_personality_v0
 206              		.section	.gcc_except_table,"aw",@progbits
 207              	.LLSDA113:
 208 0000 FF       		.byte	0xff
 209 0001 FF       		.byte	0xff
 210 0002 03       		.byte	0x3
 211 0003 34       		.byte	0x34
 212 0004 00000000 		.4byte	.LEHB0-.LFB113
 213 0008 00000000 		.4byte	.LEHE0-.LEHB0
 214 000c 00000000 		.4byte	0
 215 0010 00       		.byte	0
 216 0011 00000000 		.4byte	.LEHB1-.LFB113
 217 0015 00000000 		.4byte	.LEHE1-.LEHB1
 218 0019 00000000 		.4byte	.L7-.LFB113
 219 001d 00       		.byte	0
 220 001e 00000000 		.4byte	.LEHB2-.LFB113
 221 0022 00000000 		.4byte	.LEHE2-.LEHB2
 222 0026 00000000 		.4byte	0
 223 002a 00       		.byte	0
 224 002b 00000000 		.4byte	.LEHB3-.LFB113
 225 002f 00000000 		.4byte	.LEHE3-.LEHB3
 226 0033 00000000 		.4byte	0
 227 0037 00       		.byte	0
GAS LISTING /tmp/ccnj0rAi.s 			page 7


 228              		.text
 230              		.align	2
 231              		.globl	_ZN15MemoryAllocator9mem_allocEm
 233              	_ZN15MemoryAllocator9mem_allocEm:
 234              	.LFB114:
  24:src/kernel/mmanagement/memory_allocator.cpp **** 
  25:src/kernel/mmanagement/memory_allocator.cpp **** void* MemoryAllocator::mem_alloc(size_t size){
 235              		.loc 1 25 46 is_stmt 1
 236              		.cfi_startproc
 237              	.LVL13:
 238 0198 130101FD 		addi	sp,sp,-48
 239              		.cfi_def_cfa_offset 48
 240 019c 23341102 		sd	ra,40(sp)
 241 01a0 23308102 		sd	s0,32(sp)
 242 01a4 233C9100 		sd	s1,24(sp)
 243 01a8 23382101 		sd	s2,16(sp)
 244 01ac 23343101 		sd	s3,8(sp)
 245 01b0 23304101 		sd	s4,0(sp)
 246              		.cfi_offset 1, -8
 247              		.cfi_offset 8, -16
 248              		.cfi_offset 9, -24
 249              		.cfi_offset 18, -32
 250              		.cfi_offset 19, -40
 251              		.cfi_offset 20, -48
 252 01b4 13040103 		addi	s0,sp,48
 253              		.cfi_def_cfa 8, 0
  26:src/kernel/mmanagement/memory_allocator.cpp ****     FreeSegment* best = nullptr,*best_prev = nullptr,* curr = fmem_head, *prev = nullptr;
 254              		.loc 1 26 5
 255              	.LVL14:
 256              		.loc 1 26 56 is_stmt 0
 257 01b8 83378500 		ld	a5,8(a0)
 258              	.LVL15:
  27:src/kernel/mmanagement/memory_allocator.cpp ****     size = size*MEM_BLOCK_SIZE;
 259              		.loc 1 27 5 is_stmt 1
 260              		.loc 1 27 10 is_stmt 0
 261 01bc 13996500 		slli	s2,a1,6
 262              	.LVL16:
  26:src/kernel/mmanagement/memory_allocator.cpp ****     FreeSegment* best = nullptr,*best_prev = nullptr,* curr = fmem_head, *prev = nullptr;
 263              		.loc 1 26 75
 264 01c0 93060000 		li	a3,0
  26:src/kernel/mmanagement/memory_allocator.cpp ****     FreeSegment* best = nullptr,*best_prev = nullptr,* curr = fmem_head, *prev = nullptr;
 265              		.loc 1 26 34
 266 01c4 130A0000 		li	s4,0
  26:src/kernel/mmanagement/memory_allocator.cpp ****     FreeSegment* best = nullptr,*best_prev = nullptr,* curr = fmem_head, *prev = nullptr;
 267              		.loc 1 26 18
 268 01c8 93040000 		li	s1,0
 269 01cc 6F004001 		j	.L18
 270              	.LVL17:
 271              	.L24:
  28:src/kernel/mmanagement/memory_allocator.cpp **** 
  29:src/kernel/mmanagement/memory_allocator.cpp **** 
  30:src/kernel/mmanagement/memory_allocator.cpp ****     while(curr){
  31:src/kernel/mmanagement/memory_allocator.cpp ****         if(curr->size >= size)
  32:src/kernel/mmanagement/memory_allocator.cpp ****             if (!best || (curr->size < best->size)){
  33:src/kernel/mmanagement/memory_allocator.cpp ****                 best = curr;     
  34:src/kernel/mmanagement/memory_allocator.cpp ****                 best_prev = prev;
 272              		.loc 1 34 27
GAS LISTING /tmp/ccnj0rAi.s 			page 8


 273 01d0 138A0600 		mv	s4,a3
 274              	.LVL18:
  33:src/kernel/mmanagement/memory_allocator.cpp ****                 best_prev = prev;
 275              		.loc 1 33 22
 276 01d4 93840700 		mv	s1,a5
 277              	.LVL19:
 278              	.L17:
  35:src/kernel/mmanagement/memory_allocator.cpp ****             }
  36:src/kernel/mmanagement/memory_allocator.cpp ****         prev = curr;
 279              		.loc 1 36 9 is_stmt 1
  37:src/kernel/mmanagement/memory_allocator.cpp ****         curr = curr->next;
 280              		.loc 1 37 9
  36:src/kernel/mmanagement/memory_allocator.cpp ****         curr = curr->next;
 281              		.loc 1 36 14 is_stmt 0
 282 01d8 93860700 		mv	a3,a5
 283              		.loc 1 37 14
 284 01dc 83B70700 		ld	a5,0(a5)
 285              	.LVL20:
 286              	.L18:
  30:src/kernel/mmanagement/memory_allocator.cpp ****         if(curr->size >= size)
 287              		.loc 1 30 5 is_stmt 1
  30:src/kernel/mmanagement/memory_allocator.cpp ****         if(curr->size >= size)
 288              		.loc 1 30 11 is_stmt 0
 289 01e0 63820702 		beq	a5,zero,.L16
  31:src/kernel/mmanagement/memory_allocator.cpp ****             if (!best || (curr->size < best->size)){
 290              		.loc 1 31 9 is_stmt 1
  31:src/kernel/mmanagement/memory_allocator.cpp ****             if (!best || (curr->size < best->size)){
 291              		.loc 1 31 18 is_stmt 0
 292 01e4 03B78700 		ld	a4,8(a5)
  31:src/kernel/mmanagement/memory_allocator.cpp ****             if (!best || (curr->size < best->size)){
 293              		.loc 1 31 9
 294 01e8 E36827FF 		bltu	a4,s2,.L17
  32:src/kernel/mmanagement/memory_allocator.cpp ****                 best = curr;     
 295              		.loc 1 32 13 is_stmt 1
 296 01ec E38204FE 		beq	s1,zero,.L24
  32:src/kernel/mmanagement/memory_allocator.cpp ****                 best = curr;     
 297              		.loc 1 32 46 is_stmt 0 discriminator 1
 298 01f0 03B68400 		ld	a2,8(s1)
  32:src/kernel/mmanagement/memory_allocator.cpp ****                 best = curr;     
 299              		.loc 1 32 23 discriminator 1
 300 01f4 E372C7FE 		bgeu	a4,a2,.L17
  34:src/kernel/mmanagement/memory_allocator.cpp ****             }
 301              		.loc 1 34 27
 302 01f8 138A0600 		mv	s4,a3
 303              	.LVL21:
  33:src/kernel/mmanagement/memory_allocator.cpp ****                 best_prev = prev;
 304              		.loc 1 33 22
 305 01fc 93840700 		mv	s1,a5
 306              	.LVL22:
 307 0200 6FF09FFD 		j	.L17
 308              	.LVL23:
 309              	.L16:
  38:src/kernel/mmanagement/memory_allocator.cpp ****     } 
  39:src/kernel/mmanagement/memory_allocator.cpp ****     if(!best)
 310              		.loc 1 39 5 is_stmt 1
 311 0204 63860404 		beq	s1,zero,.L15
 312 0208 93090500 		mv	s3,a0
GAS LISTING /tmp/ccnj0rAi.s 			page 9


  40:src/kernel/mmanagement/memory_allocator.cpp ****         return nullptr;
  41:src/kernel/mmanagement/memory_allocator.cpp **** 
  42:src/kernel/mmanagement/memory_allocator.cpp ****     // if(best->size - size < sizeof(FreeSegment) + MEM_BLOCK_SIZE){
  43:src/kernel/mmanagement/memory_allocator.cpp ****     //     if(!best_prev) fmem_head = best->next;
  44:src/kernel/mmanagement/memory_allocator.cpp ****     //     else best_prev->next = best->next;
  45:src/kernel/mmanagement/memory_allocator.cpp ****     // }else{
  46:src/kernel/mmanagement/memory_allocator.cpp ****     //     curr = (FreeSegment*)((char*)best + sizeof(FreeSegment) + size);
  47:src/kernel/mmanagement/memory_allocator.cpp ****     //     curr->next = best->next;
  48:src/kernel/mmanagement/memory_allocator.cpp ****     //     curr->size = best->size - size - sizeof(FreeSegment);
  49:src/kernel/mmanagement/memory_allocator.cpp ****     //     best->size = size;
  50:src/kernel/mmanagement/memory_allocator.cpp ****     //     if(best_prev) best_prev->next = curr;
  51:src/kernel/mmanagement/memory_allocator.cpp ****     //     else fmem_head = curr;
  52:src/kernel/mmanagement/memory_allocator.cpp ****     // }
  53:src/kernel/mmanagement/memory_allocator.cpp ****     if(best->size != size){
 313              		.loc 1 53 5
 314              		.loc 1 53 14 is_stmt 0
 315 020c 83B78400 		ld	a5,8(s1)
 316              	.LVL24:
 317              		.loc 1 53 5
 318 0210 63922707 		bne	a5,s2,.L28
  54:src/kernel/mmanagement/memory_allocator.cpp ****         curr = (FreeSegment*)node_cache->alloc_obj();
  55:src/kernel/mmanagement/memory_allocator.cpp ****         if(!curr) return nullptr;
  56:src/kernel/mmanagement/memory_allocator.cpp ****         curr->next = best->next;
  57:src/kernel/mmanagement/memory_allocator.cpp ****         curr->size = best->size - size;
  58:src/kernel/mmanagement/memory_allocator.cpp ****         curr->addr = (char*)best->addr + size;
  59:src/kernel/mmanagement/memory_allocator.cpp ****         best->size = size;
  60:src/kernel/mmanagement/memory_allocator.cpp ****     }
  61:src/kernel/mmanagement/memory_allocator.cpp ****     else { curr = best->next; }
 319              		.loc 1 61 12 is_stmt 1
 320              		.loc 1 61 17 is_stmt 0
 321 0214 03B50400 		ld	a0,0(s1)
 322              	.LVL25:
 323              	.L21:
  62:src/kernel/mmanagement/memory_allocator.cpp **** 
  63:src/kernel/mmanagement/memory_allocator.cpp ****     if(!best_prev) fmem_head = curr;
 324              		.loc 1 63 5 is_stmt 1
 325 0218 630A0A08 		beq	s4,zero,.L29
  64:src/kernel/mmanagement/memory_allocator.cpp ****     else best_prev->next = curr;
 326              		.loc 1 64 10
 327              		.loc 1 64 26 is_stmt 0
 328 021c 2330AA00 		sd	a0,0(s4)
 329              	.L23:
  65:src/kernel/mmanagement/memory_allocator.cpp ****     
  66:src/kernel/mmanagement/memory_allocator.cpp ****     best->next = fall_head;
 330              		.loc 1 66 5 is_stmt 1
 331              		.loc 1 66 18 is_stmt 0
 332 0220 83B70901 		ld	a5,16(s3)
 333              		.loc 1 66 16
 334 0224 23B0F400 		sd	a5,0(s1)
  67:src/kernel/mmanagement/memory_allocator.cpp ****     fall_head = best;
 335              		.loc 1 67 5 is_stmt 1
 336              		.loc 1 67 15 is_stmt 0
 337 0228 23B89900 		sd	s1,16(s3)
  68:src/kernel/mmanagement/memory_allocator.cpp ****     // return (char*)best+sizeof(FreeSegment);
  69:src/kernel/mmanagement/memory_allocator.cpp ****     // print_all_list();
  70:src/kernel/mmanagement/memory_allocator.cpp ****     // print_list();
  71:src/kernel/mmanagement/memory_allocator.cpp ****     Pager::getInstance().id_map(best->addr, (char*)best->addr+best->size, (PMTEntryBits)
GAS LISTING /tmp/ccnj0rAi.s 			page 10


 338              		.loc 1 71 5 is_stmt 1
 339              		.loc 1 71 24 is_stmt 0
 340 022c 97000000 		call	_ZN5Pager11getInstanceEv
 340      E7800000 
 341              	.LVL26:
 342              		.loc 1 71 32
 343 0234 83B50401 		ld	a1,16(s1)
 344              		.loc 1 71 69
 345 0238 03B68400 		ld	a2,8(s1)
 346              		.loc 1 71 32
 347 023c 93066001 		li	a3,22
 348 0240 3386C500 		add	a2,a1,a2
 349 0244 97000000 		call	_ZN5Pager6id_mapEPvS0_12PMTEntryBits
 349      E7800000 
 350              	.LVL27:
  72:src/kernel/mmanagement/memory_allocator.cpp ****         (PMTEntryBits::user | PMTEntryBits::read | PMTEntryBits::write));
  73:src/kernel/mmanagement/memory_allocator.cpp ****     return best->addr;
 351              		.loc 1 73 5 is_stmt 1
 352              		.loc 1 73 18 is_stmt 0
 353 024c 83B40401 		ld	s1,16(s1)
 354              	.LVL28:
 355              	.L15:
  74:src/kernel/mmanagement/memory_allocator.cpp **** }
 356              		.loc 1 74 1
 357 0250 13850400 		mv	a0,s1
 358 0254 83308102 		ld	ra,40(sp)
 359              		.cfi_remember_state
 360              		.cfi_restore 1
 361 0258 03340102 		ld	s0,32(sp)
 362              		.cfi_restore 8
 363              		.cfi_def_cfa 2, 48
 364 025c 83348101 		ld	s1,24(sp)
 365              		.cfi_restore 9
 366 0260 03390101 		ld	s2,16(sp)
 367              		.cfi_restore 18
 368              	.LVL29:
 369 0264 83398100 		ld	s3,8(sp)
 370              		.cfi_restore 19
 371 0268 033A0100 		ld	s4,0(sp)
 372              		.cfi_restore 20
 373              	.LVL30:
 374 026c 13010103 		addi	sp,sp,48
 375              		.cfi_def_cfa_offset 0
 376 0270 67800000 		jr	ra
 377              	.LVL31:
 378              	.L28:
 379              		.cfi_restore_state
  54:src/kernel/mmanagement/memory_allocator.cpp ****         if(!curr) return nullptr;
 380              		.loc 1 54 9 is_stmt 1
  54:src/kernel/mmanagement/memory_allocator.cpp ****         if(!curr) return nullptr;
 381              		.loc 1 54 51 is_stmt 0
 382 0274 03358501 		ld	a0,24(a0)
 383              	.LVL32:
 384 0278 97000000 		call	_ZN11ObjectCache9alloc_objEv
 384      E7800000 
 385              	.LVL33:
  55:src/kernel/mmanagement/memory_allocator.cpp ****         curr->next = best->next;
GAS LISTING /tmp/ccnj0rAi.s 			page 11


 386              		.loc 1 55 9 is_stmt 1
 387 0280 630A0502 		beq	a0,zero,.L26
  56:src/kernel/mmanagement/memory_allocator.cpp ****         curr->size = best->size - size;
 388              		.loc 1 56 9
  56:src/kernel/mmanagement/memory_allocator.cpp ****         curr->size = best->size - size;
 389              		.loc 1 56 28 is_stmt 0
 390 0284 83B70400 		ld	a5,0(s1)
  56:src/kernel/mmanagement/memory_allocator.cpp ****         curr->size = best->size - size;
 391              		.loc 1 56 20
 392 0288 2330F500 		sd	a5,0(a0)
  57:src/kernel/mmanagement/memory_allocator.cpp ****         curr->addr = (char*)best->addr + size;
 393              		.loc 1 57 9 is_stmt 1
  57:src/kernel/mmanagement/memory_allocator.cpp ****         curr->addr = (char*)best->addr + size;
 394              		.loc 1 57 28 is_stmt 0
 395 028c 83B78400 		ld	a5,8(s1)
  57:src/kernel/mmanagement/memory_allocator.cpp ****         curr->addr = (char*)best->addr + size;
 396              		.loc 1 57 33
 397 0290 B3872741 		sub	a5,a5,s2
  57:src/kernel/mmanagement/memory_allocator.cpp ****         curr->addr = (char*)best->addr + size;
 398              		.loc 1 57 20
 399 0294 2334F500 		sd	a5,8(a0)
  58:src/kernel/mmanagement/memory_allocator.cpp ****         best->size = size;
 400              		.loc 1 58 9 is_stmt 1
  58:src/kernel/mmanagement/memory_allocator.cpp ****         best->size = size;
 401              		.loc 1 58 35 is_stmt 0
 402 0298 83B70401 		ld	a5,16(s1)
  58:src/kernel/mmanagement/memory_allocator.cpp ****         best->size = size;
 403              		.loc 1 58 40
 404 029c B3872701 		add	a5,a5,s2
  58:src/kernel/mmanagement/memory_allocator.cpp ****         best->size = size;
 405              		.loc 1 58 20
 406 02a0 2338F500 		sd	a5,16(a0)
  59:src/kernel/mmanagement/memory_allocator.cpp ****     }
 407              		.loc 1 59 9 is_stmt 1
  59:src/kernel/mmanagement/memory_allocator.cpp ****     }
 408              		.loc 1 59 20 is_stmt 0
 409 02a4 23B42401 		sd	s2,8(s1)
 410 02a8 6FF01FF7 		j	.L21
 411              	.L29:
  63:src/kernel/mmanagement/memory_allocator.cpp ****     else best_prev->next = curr;
 412              		.loc 1 63 20 is_stmt 1 discriminator 1
  63:src/kernel/mmanagement/memory_allocator.cpp ****     else best_prev->next = curr;
 413              		.loc 1 63 30 is_stmt 0 discriminator 1
 414 02ac 23B4A900 		sd	a0,8(s3)
 415 02b0 6FF01FF7 		j	.L23
 416              	.L26:
  55:src/kernel/mmanagement/memory_allocator.cpp ****         curr->next = best->next;
 417              		.loc 1 55 26
 418 02b4 93040500 		mv	s1,a0
 419              	.LVL34:
 420 02b8 6FF09FF9 		j	.L15
 421              		.cfi_endproc
 422              	.LFE114:
 424              		.align	2
 425              		.globl	_ZN15MemoryAllocator17wantToFreeAddressEPv
 427              	_ZN15MemoryAllocator17wantToFreeAddressEPv:
 428              	.LFB115:
GAS LISTING /tmp/ccnj0rAi.s 			page 12


  75:src/kernel/mmanagement/memory_allocator.cpp **** 
  76:src/kernel/mmanagement/memory_allocator.cpp **** bool MemoryAllocator::wantToFreeAddress(void* adr){
 429              		.loc 1 76 51 is_stmt 1
 430              		.cfi_startproc
 431              	.LVL35:
 432 02bc 130101FF 		addi	sp,sp,-16
 433              		.cfi_def_cfa_offset 16
 434 02c0 23348100 		sd	s0,8(sp)
 435              		.cfi_offset 8, -8
 436 02c4 13040101 		addi	s0,sp,16
 437              		.cfi_def_cfa 8, 0
  77:src/kernel/mmanagement/memory_allocator.cpp ****     if(adr < HEAP_START_ADDR || adr >= HEAP_END_ADDR)
 438              		.loc 1 77 5
 439              		.loc 1 77 12 is_stmt 0
 440 02c8 97070000 		lla	a5,HEAP_START_ADDR
 440      93870700 
 441 02d0 83B70700 		ld	a5,0(a5)
 442              		.loc 1 77 5
 443 02d4 63EEF504 		bgtu	a5,a1,.L36
 444              		.loc 1 77 37 discriminator 1
 445 02d8 97070000 		lla	a5,HEAP_END_ADDR
 445      93870700 
 446 02e0 83B70700 		ld	a5,0(a5)
 447              		.loc 1 77 30 discriminator 1
 448 02e4 63FEF504 		bleu	a5,a1,.L37
  78:src/kernel/mmanagement/memory_allocator.cpp ****         return true;
  79:src/kernel/mmanagement/memory_allocator.cpp ****     size_t t = (size_t)adr;
 449              		.loc 1 79 5 is_stmt 1
 450              	.LVL36:
  80:src/kernel/mmanagement/memory_allocator.cpp ****     FreeSegment* prev = nullptr, *cur = fall_head;
 451              		.loc 1 80 5
 452              		.loc 1 80 35 is_stmt 0
 453 02e8 83370501 		ld	a5,16(a0)
 454              	.LVL37:
 455              		.loc 1 80 18
 456 02ec 93060000 		li	a3,0
 457              	.LVL38:
 458              	.L33:
  81:src/kernel/mmanagement/memory_allocator.cpp ****     while(cur)
 459              		.loc 1 81 5 is_stmt 1
 460              		.loc 1 81 11 is_stmt 0
 461 02f0 638C0700 		beq	a5,zero,.L32
  82:src/kernel/mmanagement/memory_allocator.cpp ****     {
  83:src/kernel/mmanagement/memory_allocator.cpp ****         // if(t == (size_t)cur+sizeof(FreeSegment))
  84:src/kernel/mmanagement/memory_allocator.cpp ****         //     break;
  85:src/kernel/mmanagement/memory_allocator.cpp ****         if(t == (size_t)cur->addr)
 462              		.loc 1 85 9 is_stmt 1
 463              		.loc 1 85 30 is_stmt 0
 464 02f4 03B70701 		ld	a4,16(a5)
 465              		.loc 1 85 9
 466 02f8 6308B700 		beq	a4,a1,.L32
  86:src/kernel/mmanagement/memory_allocator.cpp ****             break;    
  87:src/kernel/mmanagement/memory_allocator.cpp ****         prev = cur;
 467              		.loc 1 87 9 is_stmt 1
 468              	.LVL39:
  88:src/kernel/mmanagement/memory_allocator.cpp ****         cur = cur->next;
 469              		.loc 1 88 9
GAS LISTING /tmp/ccnj0rAi.s 			page 13


  87:src/kernel/mmanagement/memory_allocator.cpp ****         cur = cur->next;
 470              		.loc 1 87 14 is_stmt 0
 471 02fc 93860700 		mv	a3,a5
 472              		.loc 1 88 13
 473 0300 83B70700 		ld	a5,0(a5)
 474              	.LVL40:
  81:src/kernel/mmanagement/memory_allocator.cpp ****     {
 475              		.loc 1 81 5
 476 0304 6FF0DFFE 		j	.L33
 477              	.L32:
  89:src/kernel/mmanagement/memory_allocator.cpp ****     }
  90:src/kernel/mmanagement/memory_allocator.cpp ****     if(cur)
 478              		.loc 1 90 5 is_stmt 1
 479 0308 63800704 		beq	a5,zero,.L38
  91:src/kernel/mmanagement/memory_allocator.cpp ****     {
  92:src/kernel/mmanagement/memory_allocator.cpp ****         if(prev)
 480              		.loc 1 92 9
 481 030c 638C0600 		beq	a3,zero,.L34
  93:src/kernel/mmanagement/memory_allocator.cpp ****             prev->next = cur->next;
 482              		.loc 1 93 13
 483              		.loc 1 93 31 is_stmt 0
 484 0310 03B70700 		ld	a4,0(a5)
 485              		.loc 1 93 24
 486 0314 23B0E600 		sd	a4,0(a3)
 487              	.L35:
  94:src/kernel/mmanagement/memory_allocator.cpp ****         else
  95:src/kernel/mmanagement/memory_allocator.cpp ****             fall_head = cur->next;
  96:src/kernel/mmanagement/memory_allocator.cpp ****         cur->next = nullptr;
 488              		.loc 1 96 9 is_stmt 1
 489              		.loc 1 96 19 is_stmt 0
 490 0318 23B00700 		sd	zero,0(a5)
  97:src/kernel/mmanagement/memory_allocator.cpp ****         return false;
 491              		.loc 1 97 9 is_stmt 1
 492              		.loc 1 97 16 is_stmt 0
 493 031c 13050000 		li	a0,0
 494              	.LVL41:
 495 0320 6F004001 		j	.L31
 496              	.LVL42:
 497              	.L34:
  95:src/kernel/mmanagement/memory_allocator.cpp ****         cur->next = nullptr;
 498              		.loc 1 95 13 is_stmt 1
  95:src/kernel/mmanagement/memory_allocator.cpp ****         cur->next = nullptr;
 499              		.loc 1 95 30 is_stmt 0
 500 0324 03B70700 		ld	a4,0(a5)
  95:src/kernel/mmanagement/memory_allocator.cpp ****         cur->next = nullptr;
 501              		.loc 1 95 23
 502 0328 2338E500 		sd	a4,16(a0)
 503 032c 6FF0DFFE 		j	.L35
 504              	.LVL43:
 505              	.L36:
  78:src/kernel/mmanagement/memory_allocator.cpp ****     size_t t = (size_t)adr;
 506              		.loc 1 78 16
 507 0330 13051000 		li	a0,1
 508              	.LVL44:
 509              	.L31:
  98:src/kernel/mmanagement/memory_allocator.cpp ****     }
  99:src/kernel/mmanagement/memory_allocator.cpp ****     else return true;
GAS LISTING /tmp/ccnj0rAi.s 			page 14


 100:src/kernel/mmanagement/memory_allocator.cpp **** }
 510              		.loc 1 100 1
 511 0334 03348100 		ld	s0,8(sp)
 512              		.cfi_remember_state
 513              		.cfi_restore 8
 514              		.cfi_def_cfa 2, 16
 515 0338 13010101 		addi	sp,sp,16
 516              		.cfi_def_cfa_offset 0
 517 033c 67800000 		jr	ra
 518              	.LVL45:
 519              	.L37:
 520              		.cfi_restore_state
  78:src/kernel/mmanagement/memory_allocator.cpp ****     size_t t = (size_t)adr;
 521              		.loc 1 78 16
 522 0340 13051000 		li	a0,1
 523              	.LVL46:
 524 0344 6FF01FFF 		j	.L31
 525              	.LVL47:
 526              	.L38:
  99:src/kernel/mmanagement/memory_allocator.cpp **** }
 527              		.loc 1 99 17
 528 0348 13051000 		li	a0,1
 529              	.LVL48:
 530 034c 6FF09FFE 		j	.L31
 531              		.cfi_endproc
 532              	.LFE115:
 534              		.align	2
 535              		.globl	_ZN15MemoryAllocator27getAndRemoveFreeSegmentMetaEPv
 537              	_ZN15MemoryAllocator27getAndRemoveFreeSegmentMetaEPv:
 538              	.LFB116:
 101:src/kernel/mmanagement/memory_allocator.cpp **** 
 102:src/kernel/mmanagement/memory_allocator.cpp **** FreeSegment* MemoryAllocator::getAndRemoveFreeSegmentMeta(void* adr){
 539              		.loc 1 102 69 is_stmt 1
 540              		.cfi_startproc
 541              	.LVL49:
 542 0350 130101FF 		addi	sp,sp,-16
 543              		.cfi_def_cfa_offset 16
 544 0354 23348100 		sd	s0,8(sp)
 545              		.cfi_offset 8, -8
 546 0358 13040101 		addi	s0,sp,16
 547              		.cfi_def_cfa 8, 0
 103:src/kernel/mmanagement/memory_allocator.cpp ****     size_t start_addr = (((size_t)NoAlloc::getEndAddress() - 1) & (~0xfff)) + 0x1000;
 548              		.loc 1 103 5
 549              	.LBB21:
 550              	.LBB22:
 551              		.loc 2 29 35
 552              		.loc 2 29 42 is_stmt 0
 553 035c 97070000 		lla	a5,_ZN7NoAlloc16NOALLOC_END_ADDRE
 553      93870700 
 554 0364 83B70700 		ld	a5,0(a5)
 555              	.LBE22:
 556              	.LBE21:
 557              		.loc 1 103 60
 558 0368 9387F7FF 		addi	a5,a5,-1
 559              		.loc 1 103 65
 560 036c 37F7FFFF 		li	a4,-4096
 561 0370 B3F7E700 		and	a5,a5,a4
GAS LISTING /tmp/ccnj0rAi.s 			page 15


 562              		.loc 1 103 79
 563 0374 37170000 		li	a4,4096
 564 0378 B387E700 		add	a5,a5,a4
 565              	.LVL50:
 104:src/kernel/mmanagement/memory_allocator.cpp ****     if(adr < (void*)start_addr || adr >= HEAP_END_ADDR)
 566              		.loc 1 104 5 is_stmt 1
 567 037c 63E2F506 		bgtu	a5,a1,.L46
 568              		.loc 1 104 39 is_stmt 0 discriminator 1
 569 0380 97070000 		lla	a5,HEAP_END_ADDR
 569      93870700 
 570              	.LVL51:
 571 0388 83B70700 		ld	a5,0(a5)
 572              		.loc 1 104 32 discriminator 1
 573 038c 63FEF504 		bleu	a5,a1,.L47
 105:src/kernel/mmanagement/memory_allocator.cpp ****         return nullptr;
 106:src/kernel/mmanagement/memory_allocator.cpp ****     size_t t = (size_t)adr;
 574              		.loc 1 106 5 is_stmt 1
 575              	.LVL52:
 107:src/kernel/mmanagement/memory_allocator.cpp ****     FreeSegment* prev = nullptr, *cur = fall_head;
 576              		.loc 1 107 5
 577              		.loc 1 107 35 is_stmt 0
 578 0390 83370501 		ld	a5,16(a0)
 579              	.LVL53:
 580              		.loc 1 107 18
 581 0394 93060000 		li	a3,0
 582              	.LVL54:
 583              	.L43:
 108:src/kernel/mmanagement/memory_allocator.cpp ****     while(cur)
 584              		.loc 1 108 5 is_stmt 1
 585              		.loc 1 108 11 is_stmt 0
 586 0398 638C0700 		beq	a5,zero,.L42
 109:src/kernel/mmanagement/memory_allocator.cpp ****     {
 110:src/kernel/mmanagement/memory_allocator.cpp ****         // if(t == (size_t)cur+sizeof(FreeSegment))
 111:src/kernel/mmanagement/memory_allocator.cpp ****         //     break;
 112:src/kernel/mmanagement/memory_allocator.cpp ****         if(t == (size_t)cur->addr)
 587              		.loc 1 112 9 is_stmt 1
 588              		.loc 1 112 30 is_stmt 0
 589 039c 03B70701 		ld	a4,16(a5)
 590              		.loc 1 112 9
 591 03a0 6308B700 		beq	a4,a1,.L42
 113:src/kernel/mmanagement/memory_allocator.cpp ****             break;    
 114:src/kernel/mmanagement/memory_allocator.cpp ****         prev = cur;
 592              		.loc 1 114 9 is_stmt 1
 593              	.LVL55:
 115:src/kernel/mmanagement/memory_allocator.cpp ****         cur = cur->next;
 594              		.loc 1 115 9
 114:src/kernel/mmanagement/memory_allocator.cpp ****         cur = cur->next;
 595              		.loc 1 114 14 is_stmt 0
 596 03a4 93860700 		mv	a3,a5
 597              		.loc 1 115 13
 598 03a8 83B70700 		ld	a5,0(a5)
 599              	.LVL56:
 108:src/kernel/mmanagement/memory_allocator.cpp ****     {
 600              		.loc 1 108 5
 601 03ac 6FF0DFFE 		j	.L43
 602              	.L42:
 116:src/kernel/mmanagement/memory_allocator.cpp ****     }
GAS LISTING /tmp/ccnj0rAi.s 			page 16


 117:src/kernel/mmanagement/memory_allocator.cpp ****     if(cur)
 603              		.loc 1 117 5 is_stmt 1
 604 03b0 638A0700 		beq	a5,zero,.L40
 118:src/kernel/mmanagement/memory_allocator.cpp ****     {
 119:src/kernel/mmanagement/memory_allocator.cpp ****         if(prev)
 605              		.loc 1 119 9
 606 03b4 63800602 		beq	a3,zero,.L44
 120:src/kernel/mmanagement/memory_allocator.cpp ****             prev->next = cur->next;
 607              		.loc 1 120 13
 608              		.loc 1 120 31 is_stmt 0
 609 03b8 03B70700 		ld	a4,0(a5)
 610              		.loc 1 120 24
 611 03bc 23B0E600 		sd	a4,0(a3)
 612              	.LVL57:
 613              	.L45:
 121:src/kernel/mmanagement/memory_allocator.cpp ****         else
 122:src/kernel/mmanagement/memory_allocator.cpp ****             fall_head = cur->next;
 123:src/kernel/mmanagement/memory_allocator.cpp ****         cur->next = nullptr;
 614              		.loc 1 123 9 is_stmt 1
 615              		.loc 1 123 19 is_stmt 0
 616 03c0 23B00700 		sd	zero,0(a5)
 124:src/kernel/mmanagement/memory_allocator.cpp ****         return cur;
 617              		.loc 1 124 9 is_stmt 1
 618              	.LVL58:
 619              	.L40:
 125:src/kernel/mmanagement/memory_allocator.cpp ****     }
 126:src/kernel/mmanagement/memory_allocator.cpp ****     else return nullptr;
 127:src/kernel/mmanagement/memory_allocator.cpp **** }
 620              		.loc 1 127 1 is_stmt 0
 621 03c4 13850700 		mv	a0,a5
 622              	.LVL59:
 623 03c8 03348100 		ld	s0,8(sp)
 624              		.cfi_remember_state
 625              		.cfi_restore 8
 626              		.cfi_def_cfa 2, 16
 627 03cc 13010101 		addi	sp,sp,16
 628              		.cfi_def_cfa_offset 0
 629 03d0 67800000 		jr	ra
 630              	.LVL60:
 631              	.L44:
 632              		.cfi_restore_state
 122:src/kernel/mmanagement/memory_allocator.cpp ****         cur->next = nullptr;
 633              		.loc 1 122 13 is_stmt 1
 122:src/kernel/mmanagement/memory_allocator.cpp ****         cur->next = nullptr;
 634              		.loc 1 122 30 is_stmt 0
 635 03d4 03B70700 		ld	a4,0(a5)
 122:src/kernel/mmanagement/memory_allocator.cpp ****         cur->next = nullptr;
 636              		.loc 1 122 23
 637 03d8 2338E500 		sd	a4,16(a0)
 638 03dc 6FF05FFE 		j	.L45
 639              	.LVL61:
 640              	.L46:
 105:src/kernel/mmanagement/memory_allocator.cpp ****     size_t t = (size_t)adr;
 641              		.loc 1 105 16
 642 03e0 93070000 		li	a5,0
 643              	.LVL62:
 644 03e4 6FF01FFE 		j	.L40
GAS LISTING /tmp/ccnj0rAi.s 			page 17


 645              	.L47:
 646 03e8 93070000 		li	a5,0
 647 03ec 6FF09FFD 		j	.L40
 648              		.cfi_endproc
 649              	.LFE116:
 651              		.align	2
 652              		.globl	_ZN15MemoryAllocator13mergeWithNextEP11FreeSegment
 654              	_ZN15MemoryAllocator13mergeWithNextEP11FreeSegment:
 655              	.LFB117:
 128:src/kernel/mmanagement/memory_allocator.cpp **** 
 129:src/kernel/mmanagement/memory_allocator.cpp **** FreeSegment* MemoryAllocator::mergeWithNext(FreeSegment* t){
 656              		.loc 1 129 60 is_stmt 1
 657              		.cfi_startproc
 658              	.LVL63:
 130:src/kernel/mmanagement/memory_allocator.cpp ****     // if((char*)t + sizeof(FreeSegment) + t->size == (char*)t->next){
 131:src/kernel/mmanagement/memory_allocator.cpp ****     //     t->size += t->next->size + sizeof(FreeSegment);
 132:src/kernel/mmanagement/memory_allocator.cpp ****     //     t->next = t->next->next;
 133:src/kernel/mmanagement/memory_allocator.cpp ****     //     return t;
 134:src/kernel/mmanagement/memory_allocator.cpp ****     // }
 135:src/kernel/mmanagement/memory_allocator.cpp ****     if((char*)t->addr + t->size == (char*)t->next->addr){
 659              		.loc 1 135 5
 660              	.LBB23:
 661              		.loc 1 135 18 is_stmt 0
 662 03f0 83B70501 		ld	a5,16(a1)
 663              		.loc 1 135 28
 664 03f4 83B68500 		ld	a3,8(a1)
 665              		.loc 1 135 23
 666 03f8 B387D700 		add	a5,a5,a3
 667              		.loc 1 135 46
 668 03fc 03B70500 		ld	a4,0(a1)
 669              		.loc 1 135 52
 670 0400 03360701 		ld	a2,16(a4)
 671              		.loc 1 135 5
 672 0404 6386C700 		beq	a5,a2,.L55
 673              	.LBE23:
 136:src/kernel/mmanagement/memory_allocator.cpp ****         t->size += t->next->size;
 137:src/kernel/mmanagement/memory_allocator.cpp ****         FreeSegment* old = t->next;
 138:src/kernel/mmanagement/memory_allocator.cpp ****         t->next = t->next->next;
 139:src/kernel/mmanagement/memory_allocator.cpp ****         node_cache->free_obj(old);
 140:src/kernel/mmanagement/memory_allocator.cpp ****         return t;
 141:src/kernel/mmanagement/memory_allocator.cpp ****     }
 142:src/kernel/mmanagement/memory_allocator.cpp ****     return t->next;
 143:src/kernel/mmanagement/memory_allocator.cpp **** }
 674              		.loc 1 143 1
 675 0408 13050700 		mv	a0,a4
 676              	.LVL64:
 677 040c 67800000 		ret
 678              	.LVL65:
 679              	.L55:
 129:src/kernel/mmanagement/memory_allocator.cpp ****     // if((char*)t + sizeof(FreeSegment) + t->size == (char*)t->next){
 680              		.loc 1 129 60
 681 0410 130101FE 		addi	sp,sp,-32
 682              		.cfi_def_cfa_offset 32
 683 0414 233C1100 		sd	ra,24(sp)
 684 0418 23388100 		sd	s0,16(sp)
 685 041c 23349100 		sd	s1,8(sp)
 686              		.cfi_offset 1, -8
GAS LISTING /tmp/ccnj0rAi.s 			page 18


 687              		.cfi_offset 8, -16
 688              		.cfi_offset 9, -24
 689 0420 13040102 		addi	s0,sp,32
 690              		.cfi_def_cfa 8, 0
 691 0424 93840500 		mv	s1,a1
 692              	.LBB25:
 693              	.LBB24:
 136:src/kernel/mmanagement/memory_allocator.cpp ****         t->size += t->next->size;
 694              		.loc 1 136 9 is_stmt 1
 136:src/kernel/mmanagement/memory_allocator.cpp ****         t->size += t->next->size;
 695              		.loc 1 136 29 is_stmt 0
 696 0428 83378700 		ld	a5,8(a4)
 136:src/kernel/mmanagement/memory_allocator.cpp ****         t->size += t->next->size;
 697              		.loc 1 136 17
 698 042c B386F600 		add	a3,a3,a5
 699 0430 23B4D500 		sd	a3,8(a1)
 137:src/kernel/mmanagement/memory_allocator.cpp ****         t->next = t->next->next;
 700              		.loc 1 137 9 is_stmt 1
 701              	.LVL66:
 138:src/kernel/mmanagement/memory_allocator.cpp ****         node_cache->free_obj(old);
 702              		.loc 1 138 9
 138:src/kernel/mmanagement/memory_allocator.cpp ****         node_cache->free_obj(old);
 703              		.loc 1 138 28 is_stmt 0
 704 0434 83370700 		ld	a5,0(a4)
 138:src/kernel/mmanagement/memory_allocator.cpp ****         node_cache->free_obj(old);
 705              		.loc 1 138 17
 706 0438 23B0F500 		sd	a5,0(a1)
 139:src/kernel/mmanagement/memory_allocator.cpp ****         return t;
 707              		.loc 1 139 9 is_stmt 1
 139:src/kernel/mmanagement/memory_allocator.cpp ****         return t;
 708              		.loc 1 139 29 is_stmt 0
 709 043c 93050700 		mv	a1,a4
 710              	.LVL67:
 711 0440 03358501 		ld	a0,24(a0)
 712              	.LVL68:
 713 0444 97000000 		call	_ZN11ObjectCache8free_objEPv
 713      E7800000 
 714              	.LVL69:
 140:src/kernel/mmanagement/memory_allocator.cpp ****     }
 715              		.loc 1 140 9 is_stmt 1
 716              	.LBE24:
 717              	.LBE25:
 718              		.loc 1 143 1 is_stmt 0
 719 044c 13850400 		mv	a0,s1
 720 0450 83308101 		ld	ra,24(sp)
 721              		.cfi_restore 1
 722 0454 03340101 		ld	s0,16(sp)
 723              		.cfi_restore 8
 724              		.cfi_def_cfa 2, 32
 725 0458 83348100 		ld	s1,8(sp)
 726              		.cfi_restore 9
 727              	.LVL70:
 728 045c 13010102 		addi	sp,sp,32
 729              		.cfi_def_cfa_offset 0
 730 0460 67800000 		jr	ra
 731              		.cfi_endproc
 732              	.LFE117:
GAS LISTING /tmp/ccnj0rAi.s 			page 19


 734              		.align	2
 735              		.globl	_ZN15MemoryAllocator8mem_freeEPv
 737              	_ZN15MemoryAllocator8mem_freeEPv:
 738              	.LFB118:
 144:src/kernel/mmanagement/memory_allocator.cpp **** 
 145:src/kernel/mmanagement/memory_allocator.cpp **** int MemoryAllocator::mem_free(void* adr){
 739              		.loc 1 145 41 is_stmt 1
 740              		.cfi_startproc
 741              	.LVL71:
 742 0464 130101FC 		addi	sp,sp,-64
 743              		.cfi_def_cfa_offset 64
 744 0468 233C1102 		sd	ra,56(sp)
 745 046c 23388102 		sd	s0,48(sp)
 746 0470 23349102 		sd	s1,40(sp)
 747 0474 23302103 		sd	s2,32(sp)
 748 0478 233C3101 		sd	s3,24(sp)
 749 047c 23384101 		sd	s4,16(sp)
 750              		.cfi_offset 1, -8
 751              		.cfi_offset 8, -16
 752              		.cfi_offset 9, -24
 753              		.cfi_offset 18, -32
 754              		.cfi_offset 19, -40
 755              		.cfi_offset 20, -48
 756 0480 13040104 		addi	s0,sp,64
 757              		.cfi_def_cfa 8, 0
 758 0484 130A0500 		mv	s4,a0
 759 0488 13890500 		mv	s2,a1
 146:src/kernel/mmanagement/memory_allocator.cpp ****     // if(wantToFreeAddress(adr)) return -1;
 147:src/kernel/mmanagement/memory_allocator.cpp ****     FreeSegment* newsgm = getAndRemoveFreeSegmentMeta(adr);
 760              		.loc 1 147 5
 761              		.loc 1 147 54 is_stmt 0
 762 048c 97000000 		call	_ZN15MemoryAllocator27getAndRemoveFreeSegmentMetaEPv
 762      E7800000 
 763              	.LVL72:
 148:src/kernel/mmanagement/memory_allocator.cpp ****     if(!newsgm){
 764              		.loc 1 148 5 is_stmt 1
 765 0494 630C0500 		beq	a0,zero,.L67
 766 0498 93090500 		mv	s3,a0
 149:src/kernel/mmanagement/memory_allocator.cpp ****         kprintString("MEM_ALLOC_FREEE GRESKA\n"); 
 150:src/kernel/mmanagement/memory_allocator.cpp ****         KCHECKPRINT(adr);
 151:src/kernel/mmanagement/memory_allocator.cpp ****         KCHECKPRINT(Riscv::r_sepc());
 152:src/kernel/mmanagement/memory_allocator.cpp ****         return -1;
 153:src/kernel/mmanagement/memory_allocator.cpp ****     }
 154:src/kernel/mmanagement/memory_allocator.cpp ****     
 155:src/kernel/mmanagement/memory_allocator.cpp ****     if(!fmem_head)
 767              		.loc 1 155 5
 768              	.LBB26:
 769              		.loc 1 155 9 is_stmt 0
 770 049c 83378A00 		ld	a5,8(s4)
 771              		.loc 1 155 5
 772 04a0 638A0708 		beq	a5,zero,.L68
 773              	.LBB27:
 156:src/kernel/mmanagement/memory_allocator.cpp ****         // fmem_head = (FreeSegment*)((char*)adr - sizeof(FreeSegment));
 157:src/kernel/mmanagement/memory_allocator.cpp ****         fmem_head = newsgm;
 158:src/kernel/mmanagement/memory_allocator.cpp ****     else{
 159:src/kernel/mmanagement/memory_allocator.cpp ****         FreeSegment/* * newsgm = (FreeSegment*)((char*)adr - sizeof(FreeSegment)),*/ *prev,* cur;
 160:src/kernel/mmanagement/memory_allocator.cpp ****         for(prev = nullptr, cur = fmem_head; cur; prev = cur, cur = cur->next)
GAS LISTING /tmp/ccnj0rAi.s 			page 20


 774              		.loc 1 160 18
 775 04a4 93040000 		li	s1,0
 776 04a8 6F00800A 		j	.L59
 777              	.L67:
 778              	.LBE27:
 779              	.LBE26:
 149:src/kernel/mmanagement/memory_allocator.cpp ****         kprintString("MEM_ALLOC_FREEE GRESKA\n"); 
 780              		.loc 1 149 9 is_stmt 1
 149:src/kernel/mmanagement/memory_allocator.cpp ****         kprintString("MEM_ALLOC_FREEE GRESKA\n"); 
 781              		.loc 1 149 21 is_stmt 0
 782 04ac 17050000 		lla	a0,.LC4
 782      13050500 
 783              	.LVL73:
 784 04b4 97000000 		call	_Z12kprintStringPKc
 784      E7800000 
 785              	.LVL74:
 150:src/kernel/mmanagement/memory_allocator.cpp ****         KCHECKPRINT(Riscv::r_sepc());
 786              		.loc 1 150 9 is_stmt 1
 787 04bc 17050000 		lla	a0,.LC5
 787      13050500 
 788 04c4 97000000 		call	_Z12kprintStringPKc
 788      E7800000 
 789              	.LVL75:
 150:src/kernel/mmanagement/memory_allocator.cpp ****         KCHECKPRINT(Riscv::r_sepc());
 790              		.loc 1 150 9
 791 04cc 13060000 		li	a2,0
 792 04d0 93050001 		li	a1,16
 793 04d4 13050900 		mv	a0,s2
 794 04d8 97000000 		call	_Z9kprintIntmib
 794      E7800000 
 795              	.LVL76:
 150:src/kernel/mmanagement/memory_allocator.cpp ****         KCHECKPRINT(Riscv::r_sepc());
 796              		.loc 1 150 9
 797 04e0 17050000 		lla	a0,.LC3
 797      13050500 
 798 04e8 97000000 		call	_Z12kprintStringPKc
 798      E7800000 
 799              	.LVL77:
 151:src/kernel/mmanagement/memory_allocator.cpp ****         return -1;
 800              		.loc 1 151 9
 801 04f0 17050000 		lla	a0,.LC6
 801      13050500 
 802 04f8 97000000 		call	_Z12kprintStringPKc
 802      E7800000 
 803              	.LVL78:
 151:src/kernel/mmanagement/memory_allocator.cpp ****         return -1;
 804              		.loc 1 151 9
 805              	.LBB30:
 806              	.LBB31:
 807              		.file 3 "src/kernel/mmanagement/../../../h/../h/riscv.hpp"
   1:src/kernel/mmanagement/../../../h/../h/riscv.hpp **** #ifndef __riscv__
   2:src/kernel/mmanagement/../../../h/../h/riscv.hpp **** #define __riscv__
   3:src/kernel/mmanagement/../../../h/../h/riscv.hpp **** 
   4:src/kernel/mmanagement/../../../h/../h/riscv.hpp **** #include"../lib/hw.h"
   5:src/kernel/mmanagement/../../../h/../h/riscv.hpp **** 
   6:src/kernel/mmanagement/../../../h/../h/riscv.hpp **** class Riscv{
   7:src/kernel/mmanagement/../../../h/../h/riscv.hpp **** public:
GAS LISTING /tmp/ccnj0rAi.s 			page 21


   8:src/kernel/mmanagement/../../../h/../h/riscv.hpp **** /* 
   9:src/kernel/mmanagement/../../../h/../h/riscv.hpp **** --------------------SUPERVISOR REGISTERS--------------------    
  10:src/kernel/mmanagement/../../../h/../h/riscv.hpp **** */
  11:src/kernel/mmanagement/../../../h/../h/riscv.hpp ****     static void w_scause(uint64);
  12:src/kernel/mmanagement/../../../h/../h/riscv.hpp ****     static uint64 r_scause(); 
  13:src/kernel/mmanagement/../../../h/../h/riscv.hpp **** 
  14:src/kernel/mmanagement/../../../h/../h/riscv.hpp ****     static void w_sepc(uint64);
  15:src/kernel/mmanagement/../../../h/../h/riscv.hpp ****     static uint64 r_sepc();
  16:src/kernel/mmanagement/../../../h/../h/riscv.hpp ****     static void ni_sepc();
  17:src/kernel/mmanagement/../../../h/../h/riscv.hpp **** 
  18:src/kernel/mmanagement/../../../h/../h/riscv.hpp ****     static void w_stvec(uint64);
  19:src/kernel/mmanagement/../../../h/../h/riscv.hpp ****     static uint64 r_stvec();
  20:src/kernel/mmanagement/../../../h/../h/riscv.hpp ****      
  21:src/kernel/mmanagement/../../../h/../h/riscv.hpp ****     static void w_stval(uint64);
  22:src/kernel/mmanagement/../../../h/../h/riscv.hpp ****     static uint64 r_stval();
  23:src/kernel/mmanagement/../../../h/../h/riscv.hpp **** 
  24:src/kernel/mmanagement/../../../h/../h/riscv.hpp ****     static void w_satp(uint64);
  25:src/kernel/mmanagement/../../../h/../h/riscv.hpp ****     static uint64 r_satp();
  26:src/kernel/mmanagement/../../../h/../h/riscv.hpp ****     
  27:src/kernel/mmanagement/../../../h/../h/riscv.hpp ****     enum BitMaskSip{
  28:src/kernel/mmanagement/../../../h/../h/riscv.hpp ****         SIP_SSIE = (1<<1),
  29:src/kernel/mmanagement/../../../h/../h/riscv.hpp ****         SIP_STIE = (1<<5),
  30:src/kernel/mmanagement/../../../h/../h/riscv.hpp ****         SIP_SEIE = (1<<9),
  31:src/kernel/mmanagement/../../../h/../h/riscv.hpp ****     };
  32:src/kernel/mmanagement/../../../h/../h/riscv.hpp **** 
  33:src/kernel/mmanagement/../../../h/../h/riscv.hpp ****     static void ms_sip(uint64);
  34:src/kernel/mmanagement/../../../h/../h/riscv.hpp ****     static void mc_sip(uint64);
  35:src/kernel/mmanagement/../../../h/../h/riscv.hpp **** 
  36:src/kernel/mmanagement/../../../h/../h/riscv.hpp ****     static void w_sip(uint64);
  37:src/kernel/mmanagement/../../../h/../h/riscv.hpp ****     static uint64 r_sip();
  38:src/kernel/mmanagement/../../../h/../h/riscv.hpp **** 
  39:src/kernel/mmanagement/../../../h/../h/riscv.hpp ****     static void ms_sie(uint64);
  40:src/kernel/mmanagement/../../../h/../h/riscv.hpp ****     static void mc_sie(uint64);
  41:src/kernel/mmanagement/../../../h/../h/riscv.hpp **** 
  42:src/kernel/mmanagement/../../../h/../h/riscv.hpp ****     static void w_sie(uint64);
  43:src/kernel/mmanagement/../../../h/../h/riscv.hpp ****     static uint64 r_sie();
  44:src/kernel/mmanagement/../../../h/../h/riscv.hpp **** 
  45:src/kernel/mmanagement/../../../h/../h/riscv.hpp ****     enum BitMaskSstatus{
  46:src/kernel/mmanagement/../../../h/../h/riscv.hpp ****         SSTATUS_SIE = (1<<1),
  47:src/kernel/mmanagement/../../../h/../h/riscv.hpp ****         SSTATUS_SPIE = (1<<5),
  48:src/kernel/mmanagement/../../../h/../h/riscv.hpp ****         SSTATUS_SPP = (1<<8),
  49:src/kernel/mmanagement/../../../h/../h/riscv.hpp ****         SSTATUS_SUM = (1<<18),
  50:src/kernel/mmanagement/../../../h/../h/riscv.hpp ****     };
  51:src/kernel/mmanagement/../../../h/../h/riscv.hpp **** 
  52:src/kernel/mmanagement/../../../h/../h/riscv.hpp ****     static void ms_sstatus(uint64);
  53:src/kernel/mmanagement/../../../h/../h/riscv.hpp ****     static void mc_sstatus(uint64);
  54:src/kernel/mmanagement/../../../h/../h/riscv.hpp **** 
  55:src/kernel/mmanagement/../../../h/../h/riscv.hpp ****     static void w_sstatus(uint64);
  56:src/kernel/mmanagement/../../../h/../h/riscv.hpp ****     static uint64 r_sstatus();
  57:src/kernel/mmanagement/../../../h/../h/riscv.hpp **** 
  58:src/kernel/mmanagement/../../../h/../h/riscv.hpp **** /* 
  59:src/kernel/mmanagement/../../../h/../h/riscv.hpp **** --------------------CLASSIC REGISTERS--------------------    
  60:src/kernel/mmanagement/../../../h/../h/riscv.hpp **** */
  61:src/kernel/mmanagement/../../../h/../h/riscv.hpp ****     static uint64 r_sp();
  62:src/kernel/mmanagement/../../../h/../h/riscv.hpp ****     static uint64 r_a0(); /* parameter registers */
  63:src/kernel/mmanagement/../../../h/../h/riscv.hpp ****     static uint64 s_a0(uint64 a0);
  64:src/kernel/mmanagement/../../../h/../h/riscv.hpp ****     static uint64 r_a1();
GAS LISTING /tmp/ccnj0rAi.s 			page 22


  65:src/kernel/mmanagement/../../../h/../h/riscv.hpp ****     static uint64 r_a2();
  66:src/kernel/mmanagement/../../../h/../h/riscv.hpp ****     static uint64 r_a3();
  67:src/kernel/mmanagement/../../../h/../h/riscv.hpp ****     static uint64 r_a4();
  68:src/kernel/mmanagement/../../../h/../h/riscv.hpp **** 
  69:src/kernel/mmanagement/../../../h/../h/riscv.hpp ****     static void popRegisters(); /* pop all context registers */
  70:src/kernel/mmanagement/../../../h/../h/riscv.hpp ****     static void pushRegisters(); /* push all context registers */
  71:src/kernel/mmanagement/../../../h/../h/riscv.hpp ****  
  72:src/kernel/mmanagement/../../../h/../h/riscv.hpp ****     static void popSppSpie(); /* jump from kernel to start of thread */
  73:src/kernel/mmanagement/../../../h/../h/riscv.hpp **** 
  74:src/kernel/mmanagement/../../../h/../h/riscv.hpp **** /* 
  75:src/kernel/mmanagement/../../../h/../h/riscv.hpp **** --------------------CONSOLE REGISTERS--------------------    
  76:src/kernel/mmanagement/../../../h/../h/riscv.hpp **** */
  77:src/kernel/mmanagement/../../../h/../h/riscv.hpp ****     static void mc_cstatus(uint64 mask); 
  78:src/kernel/mmanagement/../../../h/../h/riscv.hpp ****     static bool cstatus_ready(uint64 mask);
  79:src/kernel/mmanagement/../../../h/../h/riscv.hpp **** };
  80:src/kernel/mmanagement/../../../h/../h/riscv.hpp **** 
  81:src/kernel/mmanagement/../../../h/../h/riscv.hpp **** /* 
  82:src/kernel/mmanagement/../../../h/../h/riscv.hpp **** --------------------CLASSIC REGISTERS--------------------    
  83:src/kernel/mmanagement/../../../h/../h/riscv.hpp **** */
  84:src/kernel/mmanagement/../../../h/../h/riscv.hpp **** 
  85:src/kernel/mmanagement/../../../h/../h/riscv.hpp **** inline uint64 Riscv::r_sp(){
  86:src/kernel/mmanagement/../../../h/../h/riscv.hpp ****     uint64 a0;
  87:src/kernel/mmanagement/../../../h/../h/riscv.hpp ****     asm volatile("mv %0, sp" : "=r" (a0));
  88:src/kernel/mmanagement/../../../h/../h/riscv.hpp ****     return a0;
  89:src/kernel/mmanagement/../../../h/../h/riscv.hpp **** }
  90:src/kernel/mmanagement/../../../h/../h/riscv.hpp **** 
  91:src/kernel/mmanagement/../../../h/../h/riscv.hpp **** inline uint64 Riscv::r_a0(){
  92:src/kernel/mmanagement/../../../h/../h/riscv.hpp ****     uint64 a0;
  93:src/kernel/mmanagement/../../../h/../h/riscv.hpp ****     asm volatile("mv %0, a0" : "=r" (a0));
  94:src/kernel/mmanagement/../../../h/../h/riscv.hpp ****     return a0;
  95:src/kernel/mmanagement/../../../h/../h/riscv.hpp **** }
  96:src/kernel/mmanagement/../../../h/../h/riscv.hpp **** 
  97:src/kernel/mmanagement/../../../h/../h/riscv.hpp **** inline uint64 Riscv::r_a1(){
  98:src/kernel/mmanagement/../../../h/../h/riscv.hpp ****     uint64 a0;
  99:src/kernel/mmanagement/../../../h/../h/riscv.hpp ****     asm volatile("mv %0, a1" : "=r" (a0));
 100:src/kernel/mmanagement/../../../h/../h/riscv.hpp ****     return a0;
 101:src/kernel/mmanagement/../../../h/../h/riscv.hpp **** }
 102:src/kernel/mmanagement/../../../h/../h/riscv.hpp **** 
 103:src/kernel/mmanagement/../../../h/../h/riscv.hpp **** inline uint64 Riscv::r_a2(){
 104:src/kernel/mmanagement/../../../h/../h/riscv.hpp ****     uint64 a0;
 105:src/kernel/mmanagement/../../../h/../h/riscv.hpp ****     asm volatile("mv %0, a2" : "=r" (a0));
 106:src/kernel/mmanagement/../../../h/../h/riscv.hpp ****     return a0;
 107:src/kernel/mmanagement/../../../h/../h/riscv.hpp **** }
 108:src/kernel/mmanagement/../../../h/../h/riscv.hpp **** 
 109:src/kernel/mmanagement/../../../h/../h/riscv.hpp **** inline uint64 Riscv::r_a3(){
 110:src/kernel/mmanagement/../../../h/../h/riscv.hpp ****     uint64 a0;
 111:src/kernel/mmanagement/../../../h/../h/riscv.hpp ****     asm volatile("mv %0, a3" : "=r" (a0));
 112:src/kernel/mmanagement/../../../h/../h/riscv.hpp ****     return a0;
 113:src/kernel/mmanagement/../../../h/../h/riscv.hpp **** }
 114:src/kernel/mmanagement/../../../h/../h/riscv.hpp **** 
 115:src/kernel/mmanagement/../../../h/../h/riscv.hpp **** inline uint64 Riscv::r_a4(){
 116:src/kernel/mmanagement/../../../h/../h/riscv.hpp ****     uint64 a0;
 117:src/kernel/mmanagement/../../../h/../h/riscv.hpp ****     asm volatile("mv %0, a4" : "=r" (a0));
 118:src/kernel/mmanagement/../../../h/../h/riscv.hpp ****     return a0;
 119:src/kernel/mmanagement/../../../h/../h/riscv.hpp **** }
 120:src/kernel/mmanagement/../../../h/../h/riscv.hpp **** 
 121:src/kernel/mmanagement/../../../h/../h/riscv.hpp **** 
GAS LISTING /tmp/ccnj0rAi.s 			page 23


 122:src/kernel/mmanagement/../../../h/../h/riscv.hpp **** inline uint64 Riscv::s_a0(uint64 a0){
 123:src/kernel/mmanagement/../../../h/../h/riscv.hpp ****     return a0;
 124:src/kernel/mmanagement/../../../h/../h/riscv.hpp **** }
 125:src/kernel/mmanagement/../../../h/../h/riscv.hpp **** 
 126:src/kernel/mmanagement/../../../h/../h/riscv.hpp **** /* 
 127:src/kernel/mmanagement/../../../h/../h/riscv.hpp **** --------------------SUPERVISOR REGISTERS--------------------    
 128:src/kernel/mmanagement/../../../h/../h/riscv.hpp **** */
 129:src/kernel/mmanagement/../../../h/../h/riscv.hpp **** 
 130:src/kernel/mmanagement/../../../h/../h/riscv.hpp **** inline void Riscv::w_scause(uint64 scause){
 131:src/kernel/mmanagement/../../../h/../h/riscv.hpp ****     asm volatile("csrw scause, %0" : : "r" (scause));
 132:src/kernel/mmanagement/../../../h/../h/riscv.hpp **** }
 133:src/kernel/mmanagement/../../../h/../h/riscv.hpp **** 
 134:src/kernel/mmanagement/../../../h/../h/riscv.hpp **** inline uint64 Riscv::r_scause(){
 135:src/kernel/mmanagement/../../../h/../h/riscv.hpp ****     uint64 volatile scause;
 136:src/kernel/mmanagement/../../../h/../h/riscv.hpp ****     asm volatile("csrr %0, scause" : "=r" (scause));
 137:src/kernel/mmanagement/../../../h/../h/riscv.hpp ****     return scause;
 138:src/kernel/mmanagement/../../../h/../h/riscv.hpp **** } 
 139:src/kernel/mmanagement/../../../h/../h/riscv.hpp **** 
 140:src/kernel/mmanagement/../../../h/../h/riscv.hpp **** inline void Riscv::w_sepc(uint64 sepc){
 141:src/kernel/mmanagement/../../../h/../h/riscv.hpp ****     asm volatile("csrw sepc, %0" : : "r" (sepc));
 142:src/kernel/mmanagement/../../../h/../h/riscv.hpp **** }
 143:src/kernel/mmanagement/../../../h/../h/riscv.hpp **** 
 144:src/kernel/mmanagement/../../../h/../h/riscv.hpp **** inline uint64 Riscv::r_sepc(){
 145:src/kernel/mmanagement/../../../h/../h/riscv.hpp ****     uint64 volatile sepc;
 808              		.loc 3 145 5
 146:src/kernel/mmanagement/../../../h/../h/riscv.hpp ****     asm volatile("csrr %0, sepc" : "=r" (sepc));
 809              		.loc 3 146 5
 810              		.loc 3 146 48 is_stmt 0
 811              	 #APP
 812              	# 146 "src/kernel/mmanagement/../../../h/../h/riscv.hpp" 1
 147              	    return sepc;
 813              		csrr a5, sepc
 814              	# 0 "" 2
 815              	 #NO_APP
 816 0504 2334F4FC 		sd	a5,-56(s0)
 817              		.loc 3 147 5 is_stmt 1
 818              		.loc 3 147 12 is_stmt 0
 819 0508 033584FC 		ld	a0,-56(s0)
 820              	.LBE31:
 821              	.LBE30:
 151:src/kernel/mmanagement/memory_allocator.cpp ****         return -1;
 822              		.loc 1 151 9
 823 050c 13060000 		li	a2,0
 824 0510 93050001 		li	a1,16
 825 0514 97000000 		call	_Z9kprintIntmib
 825      E7800000 
 826              	.LVL79:
 151:src/kernel/mmanagement/memory_allocator.cpp ****         return -1;
 827              		.loc 1 151 9 is_stmt 1
 828 051c 17050000 		lla	a0,.LC3
 828      13050500 
 829 0524 97000000 		call	_Z12kprintStringPKc
 829      E7800000 
 830              	.LVL80:
 152:src/kernel/mmanagement/memory_allocator.cpp ****     }
 831              		.loc 1 152 9
 152:src/kernel/mmanagement/memory_allocator.cpp ****     }
GAS LISTING /tmp/ccnj0rAi.s 			page 24


 832              		.loc 1 152 17 is_stmt 0
 833 052c 1305F0FF 		li	a0,-1
 834 0530 6F008006 		j	.L58
 835              	.LVL81:
 836              	.L68:
 837              	.LBB32:
 157:src/kernel/mmanagement/memory_allocator.cpp ****     else{
 838              		.loc 1 157 9 is_stmt 1
 157:src/kernel/mmanagement/memory_allocator.cpp ****     else{
 839              		.loc 1 157 19 is_stmt 0
 840 0534 2334AA00 		sd	a0,8(s4)
 841              	.LBE32:
 161:src/kernel/mmanagement/memory_allocator.cpp ****             // if((!prev || (size_t)adr > (size_t)prev) && (size_t)adr < (size_t)cur)
 162:src/kernel/mmanagement/memory_allocator.cpp ****             if((!prev || (size_t)adr > (size_t)prev->addr) && (size_t)adr < (size_t)cur->addr)
 163:src/kernel/mmanagement/memory_allocator.cpp ****                 break;
 164:src/kernel/mmanagement/memory_allocator.cpp ****         newsgm->next = cur;
 165:src/kernel/mmanagement/memory_allocator.cpp ****         if(cur)
 166:src/kernel/mmanagement/memory_allocator.cpp ****             mergeWithNext(newsgm);
 167:src/kernel/mmanagement/memory_allocator.cpp ****         if(prev){
 168:src/kernel/mmanagement/memory_allocator.cpp ****             prev->next = newsgm;
 169:src/kernel/mmanagement/memory_allocator.cpp ****             mergeWithNext(prev);
 170:src/kernel/mmanagement/memory_allocator.cpp ****         }
 171:src/kernel/mmanagement/memory_allocator.cpp ****         else
 172:src/kernel/mmanagement/memory_allocator.cpp ****             fmem_head = newsgm;
 173:src/kernel/mmanagement/memory_allocator.cpp ****     }
 174:src/kernel/mmanagement/memory_allocator.cpp ****     // print_all_list();
 175:src/kernel/mmanagement/memory_allocator.cpp ****     // print_list();
 176:src/kernel/mmanagement/memory_allocator.cpp ****     return 0;
 842              		.loc 1 176 12
 843 0538 13050000 		li	a0,0
 844              	.LVL82:
 845              	.LBB33:
 846 053c 6F00C005 		j	.L58
 847              	.LVL83:
 848              	.L61:
 849              	.LBB28:
 162:src/kernel/mmanagement/memory_allocator.cpp ****                 break;
 850              		.loc 1 162 90 discriminator 3
 851 0540 03B70701 		ld	a4,16(a5)
 162:src/kernel/mmanagement/memory_allocator.cpp ****                 break;
 852              		.loc 1 162 60 discriminator 3
 853 0544 6360E902 		bgtu	a4,s2,.L60
 854              	.L62:
 855              	.LVL84:
 160:src/kernel/mmanagement/memory_allocator.cpp ****             // if((!prev || (size_t)adr > (size_t)prev) && (size_t)adr < (size_t)cur)
 856              		.loc 1 160 56 discriminator 2
 857 0548 93840700 		mv	s1,a5
 160:src/kernel/mmanagement/memory_allocator.cpp ****             // if((!prev || (size_t)adr > (size_t)prev) && (size_t)adr < (size_t)cur)
 858              		.loc 1 160 67 discriminator 2
 859 054c 83B70700 		ld	a5,0(a5)
 860              	.LVL85:
 861              	.L59:
 160:src/kernel/mmanagement/memory_allocator.cpp ****             // if((!prev || (size_t)adr > (size_t)prev) && (size_t)adr < (size_t)cur)
 862              		.loc 1 160 46 discriminator 1
 863 0550 638A0700 		beq	a5,zero,.L60
 162:src/kernel/mmanagement/memory_allocator.cpp ****                 break;
 864              		.loc 1 162 13 is_stmt 1
GAS LISTING /tmp/ccnj0rAi.s 			page 25


 865 0554 E38604FE 		beq	s1,zero,.L61
 162:src/kernel/mmanagement/memory_allocator.cpp ****                 break;
 866              		.loc 1 162 54 is_stmt 0 discriminator 2
 867 0558 03B70401 		ld	a4,16(s1)
 162:src/kernel/mmanagement/memory_allocator.cpp ****                 break;
 868              		.loc 1 162 23 discriminator 2
 869 055c E37627FF 		bgeu	a4,s2,.L62
 870 0560 6FF01FFE 		j	.L61
 871              	.L60:
 164:src/kernel/mmanagement/memory_allocator.cpp ****         if(cur)
 872              		.loc 1 164 9 is_stmt 1
 164:src/kernel/mmanagement/memory_allocator.cpp ****         if(cur)
 873              		.loc 1 164 22 is_stmt 0
 874 0564 23B0F900 		sd	a5,0(s3)
 165:src/kernel/mmanagement/memory_allocator.cpp ****             mergeWithNext(newsgm);
 875              		.loc 1 165 9 is_stmt 1
 876 0568 638A0700 		beq	a5,zero,.L63
 166:src/kernel/mmanagement/memory_allocator.cpp ****         if(prev){
 877              		.loc 1 166 13
 166:src/kernel/mmanagement/memory_allocator.cpp ****         if(prev){
 878              		.loc 1 166 26 is_stmt 0
 879 056c 93850900 		mv	a1,s3
 880 0570 13050A00 		mv	a0,s4
 881              	.LVL86:
 882 0574 97000000 		call	_ZN15MemoryAllocator13mergeWithNextEP11FreeSegment
 882      E7800000 
 883              	.LVL87:
 884              	.L63:
 167:src/kernel/mmanagement/memory_allocator.cpp ****             prev->next = newsgm;
 885              		.loc 1 167 9 is_stmt 1
 886 057c 638E0402 		beq	s1,zero,.L64
 168:src/kernel/mmanagement/memory_allocator.cpp ****             mergeWithNext(prev);
 887              		.loc 1 168 13
 168:src/kernel/mmanagement/memory_allocator.cpp ****             mergeWithNext(prev);
 888              		.loc 1 168 24 is_stmt 0
 889 0580 23B03401 		sd	s3,0(s1)
 169:src/kernel/mmanagement/memory_allocator.cpp ****         }
 890              		.loc 1 169 13 is_stmt 1
 169:src/kernel/mmanagement/memory_allocator.cpp ****         }
 891              		.loc 1 169 26 is_stmt 0
 892 0584 93850400 		mv	a1,s1
 893 0588 13050A00 		mv	a0,s4
 894 058c 97000000 		call	_ZN15MemoryAllocator13mergeWithNextEP11FreeSegment
 894      E7800000 
 895              	.LVL88:
 896              	.LBE28:
 897              	.LBE33:
 898              		.loc 1 176 12
 899 0594 13050000 		li	a0,0
 900              	.LVL89:
 901              	.L58:
 177:src/kernel/mmanagement/memory_allocator.cpp **** }
 902              		.loc 1 177 1
 903 0598 83308103 		ld	ra,56(sp)
 904              		.cfi_remember_state
 905              		.cfi_restore 1
 906 059c 03340103 		ld	s0,48(sp)
GAS LISTING /tmp/ccnj0rAi.s 			page 26


 907              		.cfi_restore 8
 908              		.cfi_def_cfa 2, 64
 909 05a0 83348102 		ld	s1,40(sp)
 910              		.cfi_restore 9
 911 05a4 03390102 		ld	s2,32(sp)
 912              		.cfi_restore 18
 913              	.LVL90:
 914 05a8 83398101 		ld	s3,24(sp)
 915              		.cfi_restore 19
 916 05ac 033A0101 		ld	s4,16(sp)
 917              		.cfi_restore 20
 918              	.LVL91:
 919 05b0 13010104 		addi	sp,sp,64
 920              		.cfi_def_cfa_offset 0
 921 05b4 67800000 		jr	ra
 922              	.LVL92:
 923              	.L64:
 924              		.cfi_restore_state
 925              	.LBB34:
 926              	.LBB29:
 172:src/kernel/mmanagement/memory_allocator.cpp ****     }
 927              		.loc 1 172 13 is_stmt 1
 172:src/kernel/mmanagement/memory_allocator.cpp ****     }
 928              		.loc 1 172 23 is_stmt 0
 929 05b8 23343A01 		sd	s3,8(s4)
 930              	.LBE29:
 931              	.LBE34:
 176:src/kernel/mmanagement/memory_allocator.cpp **** }
 932              		.loc 1 176 12
 933 05bc 13050000 		li	a0,0
 934 05c0 6FF09FFD 		j	.L58
 935              		.cfi_endproc
 936              	.LFE118:
 938              		.align	2
 939              		.globl	_ZN15MemoryAllocator18getFreeSegmentMetaEPv
 941              	_ZN15MemoryAllocator18getFreeSegmentMetaEPv:
 942              	.LFB119:
 178:src/kernel/mmanagement/memory_allocator.cpp **** 
 179:src/kernel/mmanagement/memory_allocator.cpp **** FreeSegment* MemoryAllocator::getFreeSegmentMeta(void* adr){
 943              		.loc 1 179 60 is_stmt 1
 944              		.cfi_startproc
 945              	.LVL93:
 946 05c4 130101FF 		addi	sp,sp,-16
 947              		.cfi_def_cfa_offset 16
 948 05c8 23348100 		sd	s0,8(sp)
 949              		.cfi_offset 8, -8
 950 05cc 13040101 		addi	s0,sp,16
 951              		.cfi_def_cfa 8, 0
 180:src/kernel/mmanagement/memory_allocator.cpp ****    size_t start_addr = (((size_t)NoAlloc::getEndAddress() - 1) & (~0xfff)) + 0x1000;
 952              		.loc 1 180 4
 953              	.LBB35:
 954              	.LBB36:
 955              		.loc 2 29 35
 956              		.loc 2 29 42 is_stmt 0
 957 05d0 97070000 		lla	a5,_ZN7NoAlloc16NOALLOC_END_ADDRE
 957      93870700 
 958 05d8 83B70700 		ld	a5,0(a5)
GAS LISTING /tmp/ccnj0rAi.s 			page 27


 959              	.LBE36:
 960              	.LBE35:
 961              		.loc 1 180 59
 962 05dc 9387F7FF 		addi	a5,a5,-1
 963              		.loc 1 180 64
 964 05e0 37F7FFFF 		li	a4,-4096
 965 05e4 B3F7E700 		and	a5,a5,a4
 966              		.loc 1 180 78
 967 05e8 37170000 		li	a4,4096
 968 05ec B387E700 		add	a5,a5,a4
 969              	.LVL94:
 181:src/kernel/mmanagement/memory_allocator.cpp ****     if(adr < (void*)start_addr || adr >= HEAP_END_ADDR)
 970              		.loc 1 181 5 is_stmt 1
 971 05f0 63E2F504 		bgtu	a5,a1,.L73
 972              		.loc 1 181 39 is_stmt 0 discriminator 1
 973 05f4 97070000 		lla	a5,HEAP_END_ADDR
 973      93870700 
 974              	.LVL95:
 975 05fc 83B70700 		ld	a5,0(a5)
 976              		.loc 1 181 32 discriminator 1
 977 0600 63FEF502 		bleu	a5,a1,.L74
 182:src/kernel/mmanagement/memory_allocator.cpp ****         return nullptr;
 183:src/kernel/mmanagement/memory_allocator.cpp ****     size_t t = (size_t)adr;
 978              		.loc 1 183 5 is_stmt 1
 979              	.LVL96:
 184:src/kernel/mmanagement/memory_allocator.cpp ****     FreeSegment *cur = fall_head;
 980              		.loc 1 184 5
 981              		.loc 1 184 18 is_stmt 0
 982 0604 03350501 		ld	a0,16(a0)
 983              	.LVL97:
 984 0608 6F008000 		j	.L72
 985              	.LVL98:
 986              	.L71:
 185:src/kernel/mmanagement/memory_allocator.cpp ****     while(cur)
 186:src/kernel/mmanagement/memory_allocator.cpp ****     {
 187:src/kernel/mmanagement/memory_allocator.cpp ****         // if(t == (size_t)cur+sizeof(FreeSegment))
 188:src/kernel/mmanagement/memory_allocator.cpp ****         //     break;
 189:src/kernel/mmanagement/memory_allocator.cpp ****         if(t >= (size_t)cur->addr && t < (size_t)cur->addr + cur->size)
 190:src/kernel/mmanagement/memory_allocator.cpp ****             break;    
 191:src/kernel/mmanagement/memory_allocator.cpp ****         
 192:src/kernel/mmanagement/memory_allocator.cpp ****         cur = cur->next;
 987              		.loc 1 192 9 is_stmt 1
 988              		.loc 1 192 13 is_stmt 0
 989 060c 03350500 		ld	a0,0(a0)
 990              	.LVL99:
 991              	.L72:
 185:src/kernel/mmanagement/memory_allocator.cpp ****     while(cur)
 992              		.loc 1 185 5 is_stmt 1
 185:src/kernel/mmanagement/memory_allocator.cpp ****     while(cur)
 993              		.loc 1 185 11 is_stmt 0
 994 0610 630C0500 		beq	a0,zero,.L69
 189:src/kernel/mmanagement/memory_allocator.cpp ****             break;    
 995              		.loc 1 189 9 is_stmt 1
 189:src/kernel/mmanagement/memory_allocator.cpp ****             break;    
 996              		.loc 1 189 30 is_stmt 0
 997 0614 83370501 		ld	a5,16(a0)
 189:src/kernel/mmanagement/memory_allocator.cpp ****             break;    
GAS LISTING /tmp/ccnj0rAi.s 			page 28


 998              		.loc 1 189 9
 999 0618 E3EAF5FE 		bgtu	a5,a1,.L71
 189:src/kernel/mmanagement/memory_allocator.cpp ****             break;    
 1000              		.loc 1 189 67 discriminator 1
 1001 061c 03378500 		ld	a4,8(a0)
 189:src/kernel/mmanagement/memory_allocator.cpp ****             break;    
 1002              		.loc 1 189 60 discriminator 1
 1003 0620 B387E700 		add	a5,a5,a4
 189:src/kernel/mmanagement/memory_allocator.cpp ****             break;    
 1004              		.loc 1 189 35 discriminator 1
 1005 0624 E3F4F5FE 		bleu	a5,a1,.L71
 1006              	.LVL100:
 1007              	.L69:
 193:src/kernel/mmanagement/memory_allocator.cpp ****     }
 194:src/kernel/mmanagement/memory_allocator.cpp ****     if(cur)
 195:src/kernel/mmanagement/memory_allocator.cpp ****         return cur;
 196:src/kernel/mmanagement/memory_allocator.cpp ****     else return nullptr;
 197:src/kernel/mmanagement/memory_allocator.cpp **** }
 1008              		.loc 1 197 1
 1009 0628 03348100 		ld	s0,8(sp)
 1010              		.cfi_remember_state
 1011              		.cfi_restore 8
 1012              		.cfi_def_cfa 2, 16
 1013 062c 13010101 		addi	sp,sp,16
 1014              		.cfi_def_cfa_offset 0
 1015 0630 67800000 		jr	ra
 1016              	.LVL101:
 1017              	.L73:
 1018              		.cfi_restore_state
 182:src/kernel/mmanagement/memory_allocator.cpp ****     size_t t = (size_t)adr;
 1019              		.loc 1 182 16
 1020 0634 13050000 		li	a0,0
 1021              	.LVL102:
 1022 0638 6FF01FFF 		j	.L69
 1023              	.LVL103:
 1024              	.L74:
 1025 063c 13050000 		li	a0,0
 1026              	.LVL104:
 1027 0640 6FF09FFE 		j	.L69
 1028              		.cfi_endproc
 1029              	.LFE119:
 1031              		.align	2
 1032              		.globl	_ZN15MemoryAllocator10print_listEv
 1034              	_ZN15MemoryAllocator10print_listEv:
 1035              	.LFB120:
 198:src/kernel/mmanagement/memory_allocator.cpp **** 
 199:src/kernel/mmanagement/memory_allocator.cpp **** void MemoryAllocator::print_list(){
 1036              		.loc 1 199 35 is_stmt 1
 1037              		.cfi_startproc
 1038              	.LVL105:
 1039 0644 130101FE 		addi	sp,sp,-32
 1040              		.cfi_def_cfa_offset 32
 1041 0648 233C1100 		sd	ra,24(sp)
 1042 064c 23388100 		sd	s0,16(sp)
 1043 0650 23349100 		sd	s1,8(sp)
 1044              		.cfi_offset 1, -8
 1045              		.cfi_offset 8, -16
GAS LISTING /tmp/ccnj0rAi.s 			page 29


 1046              		.cfi_offset 9, -24
 1047 0654 13040102 		addi	s0,sp,32
 1048              		.cfi_def_cfa 8, 0
 1049 0658 93040500 		mv	s1,a0
 200:src/kernel/mmanagement/memory_allocator.cpp **** 
 201:src/kernel/mmanagement/memory_allocator.cpp ****     kprintString("------Free Segment Lista------\n");
 1050              		.loc 1 201 5
 1051              		.loc 1 201 17 is_stmt 0
 1052 065c 17050000 		lla	a0,.LC7
 1052      13050500 
 1053              	.LVL106:
 1054 0664 97000000 		call	_Z12kprintStringPKc
 1054      E7800000 
 1055              	.LVL107:
 202:src/kernel/mmanagement/memory_allocator.cpp ****     if(!fmem_head)
 1056              		.loc 1 202 5 is_stmt 1
 1057              		.loc 1 202 9 is_stmt 0
 1058 066c 83B78400 		ld	a5,8(s1)
 1059              		.loc 1 202 5
 1060 0670 63800708 		beq	a5,zero,.L81
 1061              	.L77:
 203:src/kernel/mmanagement/memory_allocator.cpp ****         kprintString("LISTA JE PRAZNA!\n");
 204:src/kernel/mmanagement/memory_allocator.cpp ****     for(FreeSegment* curr = fmem_head; curr; curr = curr->next){
 1062              		.loc 1 204 5 is_stmt 1
 1063              	.LBB37:
 1064              		.loc 1 204 22 is_stmt 0
 1065 0674 83B48400 		ld	s1,8(s1)
 1066              	.LVL108:
 1067              	.L79:
 1068              		.loc 1 204 40 discriminator 3
 1069 0678 63860408 		beq	s1,zero,.L78
 205:src/kernel/mmanagement/memory_allocator.cpp ****         kprintInt((uint64)curr, 16);
 1070              		.loc 1 205 9 is_stmt 1 discriminator 2
 1071              		.loc 1 205 18 is_stmt 0 discriminator 2
 1072 067c 13060000 		li	a2,0
 1073 0680 93050001 		li	a1,16
 1074 0684 13850400 		mv	a0,s1
 1075 0688 97000000 		call	_Z9kprintIntmib
 1075      E7800000 
 1076              	.LVL109:
 206:src/kernel/mmanagement/memory_allocator.cpp ****         kprintString("\n");
 1077              		.loc 1 206 9 is_stmt 1 discriminator 2
 1078              		.loc 1 206 21 is_stmt 0 discriminator 2
 1079 0690 17050000 		lla	a0,.LC3
 1079      13050500 
 1080 0698 97000000 		call	_Z12kprintStringPKc
 1080      E7800000 
 1081              	.LVL110:
 207:src/kernel/mmanagement/memory_allocator.cpp ****         kprintInt((uint64)curr->size, 16);
 1082              		.loc 1 207 9 is_stmt 1 discriminator 2
 1083              		.loc 1 207 18 is_stmt 0 discriminator 2
 1084 06a0 13060000 		li	a2,0
 1085 06a4 93050001 		li	a1,16
 1086 06a8 03B58400 		ld	a0,8(s1)
 1087 06ac 97000000 		call	_Z9kprintIntmib
 1087      E7800000 
 1088              	.LVL111:
GAS LISTING /tmp/ccnj0rAi.s 			page 30


 208:src/kernel/mmanagement/memory_allocator.cpp ****         kprintString("\n");
 1089              		.loc 1 208 9 is_stmt 1 discriminator 2
 1090              		.loc 1 208 21 is_stmt 0 discriminator 2
 1091 06b4 17050000 		lla	a0,.LC3
 1091      13050500 
 1092 06bc 97000000 		call	_Z12kprintStringPKc
 1092      E7800000 
 1093              	.LVL112:
 209:src/kernel/mmanagement/memory_allocator.cpp ****         kprintInt((uint64)curr->addr, 16);
 1094              		.loc 1 209 9 is_stmt 1 discriminator 2
 1095              		.loc 1 209 18 is_stmt 0 discriminator 2
 1096 06c4 13060000 		li	a2,0
 1097 06c8 93050001 		li	a1,16
 1098 06cc 03B50401 		ld	a0,16(s1)
 1099 06d0 97000000 		call	_Z9kprintIntmib
 1099      E7800000 
 1100              	.LVL113:
 210:src/kernel/mmanagement/memory_allocator.cpp ****         kprintString("\n");
 1101              		.loc 1 210 9 is_stmt 1 discriminator 2
 1102              		.loc 1 210 21 is_stmt 0 discriminator 2
 1103 06d8 17050000 		lla	a0,.LC3
 1103      13050500 
 1104 06e0 97000000 		call	_Z12kprintStringPKc
 1104      E7800000 
 1105              	.LVL114:
 204:src/kernel/mmanagement/memory_allocator.cpp ****         kprintInt((uint64)curr, 16);
 1106              		.loc 1 204 51 discriminator 2
 1107 06e8 83B40400 		ld	s1,0(s1)
 1108              	.LVL115:
 204:src/kernel/mmanagement/memory_allocator.cpp ****         kprintInt((uint64)curr, 16);
 1109              		.loc 1 204 5 discriminator 2
 1110 06ec 6FF0DFF8 		j	.L79
 1111              	.LVL116:
 1112              	.L81:
 1113              	.LBE37:
 203:src/kernel/mmanagement/memory_allocator.cpp ****     for(FreeSegment* curr = fmem_head; curr; curr = curr->next){
 1114              		.loc 1 203 9 is_stmt 1
 203:src/kernel/mmanagement/memory_allocator.cpp ****     for(FreeSegment* curr = fmem_head; curr; curr = curr->next){
 1115              		.loc 1 203 21 is_stmt 0
 1116 06f0 17050000 		lla	a0,.LC8
 1116      13050500 
 1117 06f8 97000000 		call	_Z12kprintStringPKc
 1117      E7800000 
 1118              	.LVL117:
 1119 0700 6FF05FF7 		j	.L77
 1120              	.LVL118:
 1121              	.L78:
 211:src/kernel/mmanagement/memory_allocator.cpp ****     }
 212:src/kernel/mmanagement/memory_allocator.cpp ****     kprintString("------------------------------\n");
 1122              		.loc 1 212 5 is_stmt 1
 1123              		.loc 1 212 17 is_stmt 0
 1124 0704 17050000 		lla	a0,.LC9
 1124      13050500 
 1125 070c 97000000 		call	_Z12kprintStringPKc
 1125      E7800000 
 1126              	.LVL119:
 213:src/kernel/mmanagement/memory_allocator.cpp **** }
GAS LISTING /tmp/ccnj0rAi.s 			page 31


 1127              		.loc 1 213 1
 1128 0714 83308101 		ld	ra,24(sp)
 1129              		.cfi_restore 1
 1130 0718 03340101 		ld	s0,16(sp)
 1131              		.cfi_restore 8
 1132              		.cfi_def_cfa 2, 32
 1133 071c 83348100 		ld	s1,8(sp)
 1134              		.cfi_restore 9
 1135              	.LVL120:
 1136 0720 13010102 		addi	sp,sp,32
 1137              		.cfi_def_cfa_offset 0
 1138 0724 67800000 		jr	ra
 1139              		.cfi_endproc
 1140              	.LFE120:
 1142              		.align	2
 1143              		.globl	_ZN15MemoryAllocator14print_all_listEv
 1145              	_ZN15MemoryAllocator14print_all_listEv:
 1146              	.LFB121:
 214:src/kernel/mmanagement/memory_allocator.cpp **** 
 215:src/kernel/mmanagement/memory_allocator.cpp **** void MemoryAllocator::print_all_list(){
 1147              		.loc 1 215 39 is_stmt 1
 1148              		.cfi_startproc
 1149              	.LVL121:
 1150 0728 130101FE 		addi	sp,sp,-32
 1151              		.cfi_def_cfa_offset 32
 1152 072c 233C1100 		sd	ra,24(sp)
 1153 0730 23388100 		sd	s0,16(sp)
 1154 0734 23349100 		sd	s1,8(sp)
 1155              		.cfi_offset 1, -8
 1156              		.cfi_offset 8, -16
 1157              		.cfi_offset 9, -24
 1158 0738 13040102 		addi	s0,sp,32
 1159              		.cfi_def_cfa 8, 0
 1160 073c 93040500 		mv	s1,a0
 216:src/kernel/mmanagement/memory_allocator.cpp **** 
 217:src/kernel/mmanagement/memory_allocator.cpp ****     kprintString("------Allocated Segment Lista------\n");
 1161              		.loc 1 217 5
 1162              		.loc 1 217 17 is_stmt 0
 1163 0740 17050000 		lla	a0,.LC10
 1163      13050500 
 1164              	.LVL122:
 1165 0748 97000000 		call	_Z12kprintStringPKc
 1165      E7800000 
 1166              	.LVL123:
 218:src/kernel/mmanagement/memory_allocator.cpp ****     if(!fall_head)
 1167              		.loc 1 218 5 is_stmt 1
 1168              		.loc 1 218 9 is_stmt 0
 1169 0750 83B70401 		ld	a5,16(s1)
 1170              		.loc 1 218 5
 1171 0754 63880708 		beq	a5,zero,.L87
 1172              	.L83:
 219:src/kernel/mmanagement/memory_allocator.cpp ****         kprintString("LISTA JE PRAZNA!\n");
 220:src/kernel/mmanagement/memory_allocator.cpp ****     for(FreeSegment* curr = fall_head; curr; curr = curr->next){
 1173              		.loc 1 220 5 is_stmt 1
 1174              	.LBB38:
 1175              		.loc 1 220 22 is_stmt 0
 1176 0758 83B40401 		ld	s1,16(s1)
GAS LISTING /tmp/ccnj0rAi.s 			page 32


 1177              	.LVL124:
 1178              	.L85:
 1179              		.loc 1 220 40 discriminator 3
 1180 075c 638E0408 		beq	s1,zero,.L84
 221:src/kernel/mmanagement/memory_allocator.cpp ****         kprintInt((uint64)curr, 16);
 1181              		.loc 1 221 9 is_stmt 1 discriminator 2
 1182              		.loc 1 221 18 is_stmt 0 discriminator 2
 1183 0760 13060000 		li	a2,0
 1184 0764 93050001 		li	a1,16
 1185 0768 13850400 		mv	a0,s1
 1186 076c 97000000 		call	_Z9kprintIntmib
 1186      E7800000 
 1187              	.LVL125:
 222:src/kernel/mmanagement/memory_allocator.cpp ****         kprintString("\n");
 1188              		.loc 1 222 9 is_stmt 1 discriminator 2
 1189              		.loc 1 222 21 is_stmt 0 discriminator 2
 1190 0774 17050000 		lla	a0,.LC3
 1190      13050500 
 1191 077c 97000000 		call	_Z12kprintStringPKc
 1191      E7800000 
 1192              	.LVL126:
 223:src/kernel/mmanagement/memory_allocator.cpp ****         kprintInt((uint64)curr->size,16);
 1193              		.loc 1 223 9 is_stmt 1 discriminator 2
 1194              		.loc 1 223 18 is_stmt 0 discriminator 2
 1195 0784 13060000 		li	a2,0
 1196 0788 93050001 		li	a1,16
 1197 078c 03B58400 		ld	a0,8(s1)
 1198 0790 97000000 		call	_Z9kprintIntmib
 1198      E7800000 
 1199              	.LVL127:
 224:src/kernel/mmanagement/memory_allocator.cpp ****         kprintString("\n");
 1200              		.loc 1 224 9 is_stmt 1 discriminator 2
 1201              		.loc 1 224 21 is_stmt 0 discriminator 2
 1202 0798 17050000 		lla	a0,.LC3
 1202      13050500 
 1203 07a0 97000000 		call	_Z12kprintStringPKc
 1203      E7800000 
 1204              	.LVL128:
 225:src/kernel/mmanagement/memory_allocator.cpp ****         kprintInt((uint64)curr->addr, 16);
 1205              		.loc 1 225 9 is_stmt 1 discriminator 2
 1206              		.loc 1 225 18 is_stmt 0 discriminator 2
 1207 07a8 13060000 		li	a2,0
 1208 07ac 93050001 		li	a1,16
 1209 07b0 03B50401 		ld	a0,16(s1)
 1210 07b4 97000000 		call	_Z9kprintIntmib
 1210      E7800000 
 1211              	.LVL129:
 226:src/kernel/mmanagement/memory_allocator.cpp ****         kprintString("\n");
 1212              		.loc 1 226 9 is_stmt 1 discriminator 2
 1213              		.loc 1 226 21 is_stmt 0 discriminator 2
 1214 07bc 17050000 		lla	a0,.LC3
 1214      13050500 
 1215 07c4 97000000 		call	_Z12kprintStringPKc
 1215      E7800000 
 1216              	.LVL130:
 227:src/kernel/mmanagement/memory_allocator.cpp ****         kprintString("\n");
 1217              		.loc 1 227 9 is_stmt 1 discriminator 2
GAS LISTING /tmp/ccnj0rAi.s 			page 33


 1218              		.loc 1 227 21 is_stmt 0 discriminator 2
 1219 07cc 17050000 		lla	a0,.LC3
 1219      13050500 
 1220 07d4 97000000 		call	_Z12kprintStringPKc
 1220      E7800000 
 1221              	.LVL131:
 220:src/kernel/mmanagement/memory_allocator.cpp ****         kprintInt((uint64)curr, 16);
 1222              		.loc 1 220 51 discriminator 2
 1223 07dc 83B40400 		ld	s1,0(s1)
 1224              	.LVL132:
 220:src/kernel/mmanagement/memory_allocator.cpp ****         kprintInt((uint64)curr, 16);
 1225              		.loc 1 220 5 discriminator 2
 1226 07e0 6FF0DFF7 		j	.L85
 1227              	.LVL133:
 1228              	.L87:
 1229              	.LBE38:
 219:src/kernel/mmanagement/memory_allocator.cpp ****     for(FreeSegment* curr = fall_head; curr; curr = curr->next){
 1230              		.loc 1 219 9 is_stmt 1
 219:src/kernel/mmanagement/memory_allocator.cpp ****     for(FreeSegment* curr = fall_head; curr; curr = curr->next){
 1231              		.loc 1 219 21 is_stmt 0
 1232 07e4 17050000 		lla	a0,.LC8
 1232      13050500 
 1233 07ec 97000000 		call	_Z12kprintStringPKc
 1233      E7800000 
 1234              	.LVL134:
 1235 07f4 6FF05FF6 		j	.L83
 1236              	.LVL135:
 1237              	.L84:
 228:src/kernel/mmanagement/memory_allocator.cpp ****     }
 229:src/kernel/mmanagement/memory_allocator.cpp ****     kprintString("------------------------------\n");
 1238              		.loc 1 229 5 is_stmt 1
 1239              		.loc 1 229 17 is_stmt 0
 1240 07f8 17050000 		lla	a0,.LC9
 1240      13050500 
 1241 0800 97000000 		call	_Z12kprintStringPKc
 1241      E7800000 
 1242              	.LVL136:
 230:src/kernel/mmanagement/memory_allocator.cpp **** }...
 1243              		.loc 1 230 1
 1244 0808 83308101 		ld	ra,24(sp)
 1245              		.cfi_restore 1
 1246 080c 03340101 		ld	s0,16(sp)
 1247              		.cfi_restore 8
 1248              		.cfi_def_cfa 2, 32
 1249 0810 83348100 		ld	s1,8(sp)
 1250              		.cfi_restore 9
 1251              	.LVL137:
 1252 0814 13010102 		addi	sp,sp,32
 1253              		.cfi_def_cfa_offset 0
 1254 0818 67800000 		jr	ra
 1255              		.cfi_endproc
 1256              	.LFE121:
 1258              		.globl	_ZN15MemoryAllocator9allocatorE
 1259              		.section	.rodata.str1.8,"aMS",@progbits,1
 1260              		.align	3
 1261              	.LC0:
 1262 0000 66726565 		.string	"free_seg_meta_cache"
GAS LISTING /tmp/ccnj0rAi.s 			page 34


 1262      5F736567 
 1262      5F6D6574 
 1262      615F6361 
 1262      63686500 
 1263 0014 00000000 		.zero	4
 1264              	.LC1:
 1265 0018 4D454D20 		.string	"MEM ALLOC node cache not allocated\n"
 1265      414C4C4F 
 1265      43206E6F 
 1265      64652063 
 1265      61636865 
 1266 003c 00000000 		.zero	4
 1267              	.LC2:
 1268 0040 224D656D 		.string	"\"MemoryAllocator start address: \": "
 1268      6F727941 
 1268      6C6C6F63 
 1268      61746F72 
 1268      20737461 
 1269 0064 00000000 		.zero	4
 1270              	.LC3:
 1271 0068 0A00     		.string	"\n"
 1272 006a 00000000 		.zero	6
 1272      0000
 1273              	.LC4:
 1274 0070 4D454D5F 		.string	"MEM_ALLOC_FREEE GRESKA\n"
 1274      414C4C4F 
 1274      435F4652 
 1274      45454520 
 1274      47524553 
 1275              	.LC5:
 1276 0088 6164723A 		.string	"adr: "
 1276      2000
 1277 008e 0000     		.zero	2
 1278              	.LC6:
 1279 0090 52697363 		.string	"Riscv::r_sepc(): "
 1279      763A3A72 
 1279      5F736570 
 1279      6328293A 
 1279      2000
 1280 00a2 00000000 		.zero	6
 1280      0000
 1281              	.LC7:
 1282 00a8 2D2D2D2D 		.string	"------Free Segment Lista------\n"
 1282      2D2D4672 
 1282      65652053 
 1282      65676D65 
 1282      6E74204C 
 1283              	.LC8:
 1284 00c8 4C495354 		.string	"LISTA JE PRAZNA!\n"
 1284      41204A45 
 1284      20505241 
 1284      5A4E4121 
 1284      0A00
 1285 00da 00000000 		.zero	6
 1285      0000
 1286              	.LC9:
 1287 00e0 2D2D2D2D 		.string	"------------------------------\n"
GAS LISTING /tmp/ccnj0rAi.s 			page 35


 1287      2D2D2D2D 
 1287      2D2D2D2D 
 1287      2D2D2D2D 
 1287      2D2D2D2D 
 1288              	.LC10:
 1289 0100 2D2D2D2D 		.string	"------Allocated Segment Lista------\n"
 1289      2D2D416C 
 1289      6C6F6361 
 1289      74656420 
 1289      5365676D 
 1290              		.section	.sbss,"aw",@nobits
 1291              		.align	3
 1294              	_ZN15MemoryAllocator9allocatorE:
 1295 0000 00000000 		.zero	8
 1295      00000000 
 1296              		.text
 1297              	.Letext0:
 1298              		.file 4 "src/kernel/mmanagement/../../../h/../h/../lib/hw.h"
 1299              		.file 5 "src/kernel/mmanagement/../../../h/../h/../h/../h/list.h"
 1300              		.file 6 "src/kernel/mmanagement/../../../h/../h/../h/object_cache.h"
 1301              		.file 7 "src/kernel/mmanagement/../../../h/../h/slab_allocator.h"
 1302              		.file 8 "src/kernel/mmanagement/../../../h/../h/../h/memory_allocator.hpp"
 1303              		.file 9 "src/kernel/mmanagement/../../../h/../h/pmt.h"
 1304              		.file 10 "src/kernel/mmanagement/../../../h/../h/pager.h"
 1305              		.file 11 "src/kernel/mmanagement/../../../h/../h/slab.h"
 1306              		.file 12 "src/kernel/mmanagement/../../../h/kernel_lib.h"
 1307              		.file 13 "src/kernel/mmanagement/../../../h/../h/kernel_funs.h"
 7342              		.align	3
 7345              	DW.ref.__gxx_personality_v0:
 7346 0000 00000000 		.dword	__gxx_personality_v0
 7346      00000000 
 7347              		.ident	"GCC: () 8.3.0"
GAS LISTING /tmp/ccnj0rAi.s 			page 36

