GAS LISTING /tmp/ccPRbhSD.s 			page 1


   1              		.file	"object_cache.cpp"
   2              		.option nopic
   3              		.option norelax
   4              		.attribute arch, "rv64i2p0_m2p0_a2p0"
   5              		.attribute unaligned_access, 0
   6              		.attribute stack_align, 16
   7              		.text
   8              	.Ltext0:
   9              		.align	2
  10              		.globl	_ZN11ObjectCache13get_slab_sizeEPh
  12              	_ZN11ObjectCache13get_slab_sizeEPh:
  13              	.LFB117:
  14              		.file 1 "src/kernel/mmanagement/object_cache.cpp"
   1:src/kernel/mmanagement/object_cache.cpp **** #include"../../../h/kernel_lib.h"
   2:src/kernel/mmanagement/object_cache.cpp **** 
   3:src/kernel/mmanagement/object_cache.cpp **** 
   4:src/kernel/mmanagement/object_cache.cpp **** ObjectCache::ObjectCache(const char* t_name, size_t t_objsize,
   5:src/kernel/mmanagement/object_cache.cpp ****     void (*t_ctor)(void*), void(*t_dtor)(void*), SlabMetaType t_type)
   6:src/kernel/mmanagement/object_cache.cpp ****         : name(t_name),objsize(t_objsize), free_head(nullptr)
   7:src/kernel/mmanagement/object_cache.cpp ****         , part_head(nullptr), full_head(nullptr), node()
   8:src/kernel/mmanagement/object_cache.cpp ****         , ctor(t_ctor), dtor(t_dtor)
   9:src/kernel/mmanagement/object_cache.cpp **** {
  10:src/kernel/mmanagement/object_cache.cpp ****     size_t lowest_size = Buddy::BLOCK_SIZE >> log2(Slab::RB_SIZE);
  11:src/kernel/mmanagement/object_cache.cpp ****     if(objsize < lowest_size) objsize = lowest_size;
  12:src/kernel/mmanagement/object_cache.cpp ****     
  13:src/kernel/mmanagement/object_cache.cpp ****     type = t_type;
  14:src/kernel/mmanagement/object_cache.cpp ****     if(t_type == NONE){ type = calculate_type(); }
  15:src/kernel/mmanagement/object_cache.cpp **** }
  16:src/kernel/mmanagement/object_cache.cpp **** 
  17:src/kernel/mmanagement/object_cache.cpp **** 
  18:src/kernel/mmanagement/object_cache.cpp **** ObjectCache::SlabMetaType ObjectCache::calculate_type(){
  19:src/kernel/mmanagement/object_cache.cpp ****     size_t slab_size = get_slab_size();
  20:src/kernel/mmanagement/object_cache.cpp ****     if( (slab_size - sizeof(void*))  % objsize >= sizeof(Slab))
  21:src/kernel/mmanagement/object_cache.cpp ****         return ON_SLAB;
  22:src/kernel/mmanagement/object_cache.cpp ****     else
  23:src/kernel/mmanagement/object_cache.cpp ****         return OFF_SLAB;
  24:src/kernel/mmanagement/object_cache.cpp ****     return NONE;
  25:src/kernel/mmanagement/object_cache.cpp **** }
  26:src/kernel/mmanagement/object_cache.cpp **** 
  27:src/kernel/mmanagement/object_cache.cpp **** 
  28:src/kernel/mmanagement/object_cache.cpp **** 
  29:src/kernel/mmanagement/object_cache.cpp **** size_t ObjectCache::get_slab_size(uchar* buddy_level_ptr){
  15              		.loc 1 29 58
  16              		.cfi_startproc
  17              	.LVL0:
  18 0000 130101FE 		addi	sp,sp,-32
  19              		.cfi_def_cfa_offset 32
  20 0004 233C1100 		sd	ra,24(sp)
  21 0008 23388100 		sd	s0,16(sp)
  22 000c 23349100 		sd	s1,8(sp)
  23 0010 23302101 		sd	s2,0(sp)
  24              		.cfi_offset 1, -8
  25              		.cfi_offset 8, -16
  26              		.cfi_offset 9, -24
  27              		.cfi_offset 18, -32
  28 0014 13040102 		addi	s0,sp,32
  29              		.cfi_def_cfa 8, 0
GAS LISTING /tmp/ccPRbhSD.s 			page 2


  30 0018 13890500 		mv	s2,a1
  30:src/kernel/mmanagement/object_cache.cpp ****     uchar buddy_level = 
  31              		.loc 1 30 5
  31:src/kernel/mmanagement/object_cache.cpp ****         type == BUFF_SLAB ?
  32              		.loc 1 31 9 is_stmt 0
  33 001c 03278501 		lw	a4,24(a0)
  34              		.loc 1 31 27
  35 0020 93074000 		li	a5,4
  36 0024 6308F704 		beq	a4,a5,.L6
  32:src/kernel/mmanagement/object_cache.cpp ****         BUDDY_LEVEL(objsize) : BUDDY_LEVEL(objsize+sizeof(Slab*));
  37              		.loc 1 32 32 discriminator 2
  38 0028 83340501 		ld	s1,16(a0)
  39 002c 93847400 		addi	s1,s1,7
  40 0030 37150000 		li	a0,4096
  41              	.LVL1:
  42 0034 97000000 		call	_Z4log2m
  42      E7800000 
  43              	.LVL2:
  44 003c 33D5A400 		srl	a0,s1,a0
  45 0040 13051500 		addi	a0,a0,1
  46 0044 97000000 		call	_Z4log2m
  46      E7800000 
  47              	.LVL3:
  48              	.L3:
  33:src/kernel/mmanagement/object_cache.cpp **** 
  34:src/kernel/mmanagement/object_cache.cpp ****     if(buddy_level_ptr) *buddy_level_ptr = buddy_level;
  49              		.loc 1 34 5 is_stmt 1 discriminator 1
  50 004c 63040900 		beq	s2,zero,.L4
  51              		.loc 1 34 25 discriminator 1
  52              		.loc 1 34 42 is_stmt 0 discriminator 1
  53 0050 2300A900 		sb	a0,0(s2)
  54              	.L4:
  35:src/kernel/mmanagement/object_cache.cpp **** 
  36:src/kernel/mmanagement/object_cache.cpp ****     return ( 1UL << buddy_level) * Buddy::BLOCK_SIZE;
  55              		.loc 1 36 5 is_stmt 1
  37:src/kernel/mmanagement/object_cache.cpp **** }
  56              		.loc 1 37 1 is_stmt 0
  57 0054 B7170000 		li	a5,4096
  58 0058 3395A700 		sll	a0,a5,a0
  59              	.LVL4:
  60 005c 83308101 		ld	ra,24(sp)
  61              		.cfi_remember_state
  62              		.cfi_restore 1
  63 0060 03340101 		ld	s0,16(sp)
  64              		.cfi_restore 8
  65              		.cfi_def_cfa 2, 32
  66 0064 83348100 		ld	s1,8(sp)
  67              		.cfi_restore 9
  68 0068 03390100 		ld	s2,0(sp)
  69              		.cfi_restore 18
  70              	.LVL5:
  71 006c 13010102 		addi	sp,sp,32
  72              		.cfi_def_cfa_offset 0
  73 0070 67800000 		jr	ra
  74              	.LVL6:
  75              	.L6:
  76              		.cfi_restore_state
GAS LISTING /tmp/ccPRbhSD.s 			page 3


  32:src/kernel/mmanagement/object_cache.cpp **** 
  77              		.loc 1 32 9
  78 0074 83340501 		ld	s1,16(a0)
  79 0078 9384F4FF 		addi	s1,s1,-1
  80 007c 37150000 		li	a0,4096
  81              	.LVL7:
  82 0080 97000000 		call	_Z4log2m
  82      E7800000 
  83              	.LVL8:
  84 0088 33D5A400 		srl	a0,s1,a0
  85 008c 13051500 		addi	a0,a0,1
  86 0090 97000000 		call	_Z4log2m
  86      E7800000 
  87              	.LVL9:
  88 0098 6FF05FFB 		j	.L3
  89              		.cfi_endproc
  90              	.LFE117:
  92              		.align	2
  93              		.globl	_ZN11ObjectCache14calculate_typeEv
  95              	_ZN11ObjectCache14calculate_typeEv:
  96              	.LFB116:
  18:src/kernel/mmanagement/object_cache.cpp ****     size_t slab_size = get_slab_size();
  97              		.loc 1 18 56 is_stmt 1
  98              		.cfi_startproc
  99              	.LVL10:
 100 009c 130101FE 		addi	sp,sp,-32
 101              		.cfi_def_cfa_offset 32
 102 00a0 233C1100 		sd	ra,24(sp)
 103 00a4 23388100 		sd	s0,16(sp)
 104 00a8 23349100 		sd	s1,8(sp)
 105              		.cfi_offset 1, -8
 106              		.cfi_offset 8, -16
 107              		.cfi_offset 9, -24
 108 00ac 13040102 		addi	s0,sp,32
 109              		.cfi_def_cfa 8, 0
 110 00b0 93040500 		mv	s1,a0
  19:src/kernel/mmanagement/object_cache.cpp ****     if( (slab_size - sizeof(void*))  % objsize >= sizeof(Slab))
 111              		.loc 1 19 5
  19:src/kernel/mmanagement/object_cache.cpp ****     if( (slab_size - sizeof(void*))  % objsize >= sizeof(Slab))
 112              		.loc 1 19 37 is_stmt 0
 113 00b4 93050000 		li	a1,0
 114 00b8 97000000 		call	_ZN11ObjectCache13get_slab_sizeEPh
 114      E7800000 
 115              	.LVL11:
  20:src/kernel/mmanagement/object_cache.cpp ****         return ON_SLAB;
 116              		.loc 1 20 5 is_stmt 1
  20:src/kernel/mmanagement/object_cache.cpp ****         return ON_SLAB;
 117              		.loc 1 20 20 is_stmt 0
 118 00c0 130585FF 		addi	a0,a0,-8
 119              	.LVL12:
  20:src/kernel/mmanagement/object_cache.cpp ****         return ON_SLAB;
 120              		.loc 1 20 40
 121 00c4 83B70401 		ld	a5,16(s1)
  20:src/kernel/mmanagement/object_cache.cpp ****         return ON_SLAB;
 122              		.loc 1 20 38
 123 00c8 3375F502 		remu	a0,a0,a5
 124              	.LVL13:
GAS LISTING /tmp/ccPRbhSD.s 			page 4


  20:src/kernel/mmanagement/object_cache.cpp ****         return ON_SLAB;
 125              		.loc 1 20 5
 126 00cc 9307700B 		li	a5,183
 127 00d0 63EEA700 		bgtu	a0,a5,.L11
  23:src/kernel/mmanagement/object_cache.cpp ****     return NONE;
 128              		.loc 1 23 16
 129 00d4 13051000 		li	a0,1
 130              	.L8:
  25:src/kernel/mmanagement/object_cache.cpp **** 
 131              		.loc 1 25 1
 132 00d8 83308101 		ld	ra,24(sp)
 133              		.cfi_remember_state
 134              		.cfi_restore 1
 135 00dc 03340101 		ld	s0,16(sp)
 136              		.cfi_restore 8
 137              		.cfi_def_cfa 2, 32
 138 00e0 83348100 		ld	s1,8(sp)
 139              		.cfi_restore 9
 140              	.LVL14:
 141 00e4 13010102 		addi	sp,sp,32
 142              		.cfi_def_cfa_offset 0
 143 00e8 67800000 		jr	ra
 144              	.LVL15:
 145              	.L11:
 146              		.cfi_restore_state
  21:src/kernel/mmanagement/object_cache.cpp ****     else
 147              		.loc 1 21 16
 148 00ec 13053000 		li	a0,3
 149 00f0 6FF09FFE 		j	.L8
 150              		.cfi_endproc
 151              	.LFE116:
 153              		.align	2
 154              		.globl	_ZN11ObjectCacheC2EPKcmPFvPvES4_NS_12SlabMetaTypeE
 156              	_ZN11ObjectCacheC2EPKcmPFvPvES4_NS_12SlabMetaTypeE:
 157              	.LFB114:
   4:src/kernel/mmanagement/object_cache.cpp ****     void (*t_ctor)(void*), void(*t_dtor)(void*), SlabMetaType t_type)
 158              		.loc 1 4 1 is_stmt 1
 159              		.cfi_startproc
 160              	.LVL16:
 161 00f4 130101FD 		addi	sp,sp,-48
 162              		.cfi_def_cfa_offset 48
 163 00f8 23341102 		sd	ra,40(sp)
 164 00fc 23308102 		sd	s0,32(sp)
 165 0100 233C9100 		sd	s1,24(sp)
 166 0104 23382101 		sd	s2,16(sp)
 167 0108 23343101 		sd	s3,8(sp)
 168 010c 23304101 		sd	s4,0(sp)
 169              		.cfi_offset 1, -8
 170              		.cfi_offset 8, -16
 171              		.cfi_offset 9, -24
 172              		.cfi_offset 18, -32
 173              		.cfi_offset 19, -40
 174              		.cfi_offset 20, -48
 175 0110 13040103 		addi	s0,sp,48
 176              		.cfi_def_cfa 8, 0
 177 0114 93040500 		mv	s1,a0
 178 0118 138A0600 		mv	s4,a3
GAS LISTING /tmp/ccPRbhSD.s 			page 5


 179 011c 93090700 		mv	s3,a4
 180 0120 13890700 		mv	s2,a5
 181              	.LBB8:
   8:src/kernel/mmanagement/object_cache.cpp **** {
 182              		.loc 1 8 36 is_stmt 0
 183 0124 2330B500 		sd	a1,0(a0)
 184 0128 2338C500 		sd	a2,16(a0)
 185 012c 23300502 		sd	zero,32(a0)
 186 0130 23340502 		sd	zero,40(a0)
 187 0134 23380502 		sd	zero,48(a0)
 188 0138 13060000 		li	a2,0
 189              	.LVL17:
 190 013c 93050000 		li	a1,0
 191              	.LVL18:
 192 0140 13058503 		addi	a0,a0,56
 193              	.LVL19:
 194 0144 97000000 		call	_ZN6list_tC1EPS_S0_
 194      E7800000 
 195              	.LVL20:
 196 014c 23B44405 		sd	s4,72(s1)
 197 0150 23B83405 		sd	s3,80(s1)
 198              	.LBB9:
  10:src/kernel/mmanagement/object_cache.cpp ****     if(objsize < lowest_size) objsize = lowest_size;
 199              		.loc 1 10 5 is_stmt 1
  10:src/kernel/mmanagement/object_cache.cpp ****     if(objsize < lowest_size) objsize = lowest_size;
 200              		.loc 1 10 51 is_stmt 0
 201 0154 13050008 		li	a0,128
 202 0158 97000000 		call	_Z4log2m
 202      E7800000 
 203              	.LVL21:
  10:src/kernel/mmanagement/object_cache.cpp ****     if(objsize < lowest_size) objsize = lowest_size;
 204              		.loc 1 10 65
 205 0160 B7170000 		li	a5,4096
 206 0164 33D5A700 		srl	a0,a5,a0
 207              	.LVL22:
  11:src/kernel/mmanagement/object_cache.cpp ****     
 208              		.loc 1 11 5 is_stmt 1
  11:src/kernel/mmanagement/object_cache.cpp ****     
 209              		.loc 1 11 8 is_stmt 0
 210 0168 83B70401 		ld	a5,16(s1)
  11:src/kernel/mmanagement/object_cache.cpp ****     
 211              		.loc 1 11 5
 212 016c 63F4A700 		bgeu	a5,a0,.L13
  11:src/kernel/mmanagement/object_cache.cpp ****     
 213              		.loc 1 11 31 is_stmt 1 discriminator 1
  11:src/kernel/mmanagement/object_cache.cpp ****     
 214              		.loc 1 11 39 is_stmt 0 discriminator 1
 215 0170 23B8A400 		sd	a0,16(s1)
 216              	.L13:
  13:src/kernel/mmanagement/object_cache.cpp ****     if(t_type == NONE){ type = calculate_type(); }
 217              		.loc 1 13 5 is_stmt 1
  13:src/kernel/mmanagement/object_cache.cpp ****     if(t_type == NONE){ type = calculate_type(); }
 218              		.loc 1 13 10 is_stmt 0
 219 0174 23AC2401 		sw	s2,24(s1)
  14:src/kernel/mmanagement/object_cache.cpp **** }
 220              		.loc 1 14 5 is_stmt 1
 221 0178 63020902 		beq	s2,zero,.L16
GAS LISTING /tmp/ccPRbhSD.s 			page 6


 222              	.LVL23:
 223              	.L12:
 224              	.LBE9:
 225              	.LBE8:
  15:src/kernel/mmanagement/object_cache.cpp **** 
 226              		.loc 1 15 1 is_stmt 0
 227 017c 83308102 		ld	ra,40(sp)
 228              		.cfi_remember_state
 229              		.cfi_restore 1
 230 0180 03340102 		ld	s0,32(sp)
 231              		.cfi_restore 8
 232              		.cfi_def_cfa 2, 48
 233 0184 83348101 		ld	s1,24(sp)
 234              		.cfi_restore 9
 235              	.LVL24:
 236 0188 03390101 		ld	s2,16(sp)
 237              		.cfi_restore 18
 238 018c 83398100 		ld	s3,8(sp)
 239              		.cfi_restore 19
 240              	.LVL25:
 241 0190 033A0100 		ld	s4,0(sp)
 242              		.cfi_restore 20
 243              	.LVL26:
 244 0194 13010103 		addi	sp,sp,48
 245              		.cfi_def_cfa_offset 0
 246 0198 67800000 		jr	ra
 247              	.LVL27:
 248              	.L16:
 249              		.cfi_restore_state
 250              	.LBB11:
 251              	.LBB10:
  14:src/kernel/mmanagement/object_cache.cpp **** }
 252              		.loc 1 14 25 is_stmt 1 discriminator 1
  14:src/kernel/mmanagement/object_cache.cpp **** }
 253              		.loc 1 14 46 is_stmt 0 discriminator 1
 254 019c 13850400 		mv	a0,s1
 255              	.LVL28:
 256 01a0 97000000 		call	_ZN11ObjectCache14calculate_typeEv
 256      E7800000 
 257              	.LVL29:
  14:src/kernel/mmanagement/object_cache.cpp **** }
 258              		.loc 1 14 30 discriminator 1
 259 01a8 23ACA400 		sw	a0,24(s1)
 260              	.LBE10:
 261              	.LBE11:
  15:src/kernel/mmanagement/object_cache.cpp **** 
 262              		.loc 1 15 1 discriminator 1
 263 01ac 6FF01FFD 		j	.L12
 264              		.cfi_endproc
 265              	.LFE114:
 267              		.globl	_ZN11ObjectCacheC1EPKcmPFvPvES4_NS_12SlabMetaTypeE
 268              		.set	_ZN11ObjectCacheC1EPKcmPFvPvES4_NS_12SlabMetaTypeE,_ZN11ObjectCacheC2EPKcmPFvPvES4_NS_12SlabM
 269              		.align	2
 270              		.globl	_ZN11ObjectCache17list_update_allocEP4Slabb
 272              	_ZN11ObjectCache17list_update_allocEP4Slabb:
 273              	.LFB121:
  38:src/kernel/mmanagement/object_cache.cpp **** 
GAS LISTING /tmp/ccPRbhSD.s 			page 7


  39:src/kernel/mmanagement/object_cache.cpp **** 
  40:src/kernel/mmanagement/object_cache.cpp **** 
  41:src/kernel/mmanagement/object_cache.cpp **** void* ObjectCache::operator new(size_t size){
  42:src/kernel/mmanagement/object_cache.cpp ****     void* addr = SlabAl::getInstance().objcache_cache.alloc_obj();
  43:src/kernel/mmanagement/object_cache.cpp ****     // SlabAl::getInstance().slab_cache.printInfo();
  44:src/kernel/mmanagement/object_cache.cpp ****     return addr;
  45:src/kernel/mmanagement/object_cache.cpp ****     
  46:src/kernel/mmanagement/object_cache.cpp **** }
  47:src/kernel/mmanagement/object_cache.cpp **** 
  48:src/kernel/mmanagement/object_cache.cpp **** 
  49:src/kernel/mmanagement/object_cache.cpp **** 
  50:src/kernel/mmanagement/object_cache.cpp **** void ObjectCache::operator delete(void* addr){
  51:src/kernel/mmanagement/object_cache.cpp ****     SlabAl::getInstance().objcache_cache.free_obj(addr);
  52:src/kernel/mmanagement/object_cache.cpp **** }
  53:src/kernel/mmanagement/object_cache.cpp **** 
  54:src/kernel/mmanagement/object_cache.cpp **** 
  55:src/kernel/mmanagement/object_cache.cpp **** 
  56:src/kernel/mmanagement/object_cache.cpp **** Slab* ObjectCache::slab_alloc(){
  57:src/kernel/mmanagement/object_cache.cpp ****     uchar obj_num, buddy_level; 
  58:src/kernel/mmanagement/object_cache.cpp ****     char* tmp_addr,*start;
  59:src/kernel/mmanagement/object_cache.cpp ****     size_t slab_size = get_slab_size(&buddy_level);
  60:src/kernel/mmanagement/object_cache.cpp ****     
  61:src/kernel/mmanagement/object_cache.cpp ****     Slab* slab_meta;
  62:src/kernel/mmanagement/object_cache.cpp ****     obj_num = slab_size/objsize - 1;
  63:src/kernel/mmanagement/object_cache.cpp ****     
  64:src/kernel/mmanagement/object_cache.cpp ****     //allocate from buddy
  65:src/kernel/mmanagement/object_cache.cpp ****     start = (char*)Buddy::getInstance().mem_alloc(buddy_level);
  66:src/kernel/mmanagement/object_cache.cpp **** 
  67:src/kernel/mmanagement/object_cache.cpp ****     if(!start){
  68:src/kernel/mmanagement/object_cache.cpp ****         error = "Not enough memory left";
  69:src/kernel/mmanagement/object_cache.cpp ****         return nullptr;
  70:src/kernel/mmanagement/object_cache.cpp ****     }
  71:src/kernel/mmanagement/object_cache.cpp **** 
  72:src/kernel/mmanagement/object_cache.cpp ****     //allocate poniter to slab_meta_ptr
  73:src/kernel/mmanagement/object_cache.cpp ****     Slab** slab_meta_addr_ptr = (Slab**)start;
  74:src/kernel/mmanagement/object_cache.cpp ****     tmp_addr = start + sizeof(Slab*);
  75:src/kernel/mmanagement/object_cache.cpp ****     
  76:src/kernel/mmanagement/object_cache.cpp ****     
  77:src/kernel/mmanagement/object_cache.cpp ****     ObjectCache* slab_cache_ptr = 
  78:src/kernel/mmanagement/object_cache.cpp ****         &SlabAllocator::getInstance().slab_cache;
  79:src/kernel/mmanagement/object_cache.cpp ****     
  80:src/kernel/mmanagement/object_cache.cpp **** 
  81:src/kernel/mmanagement/object_cache.cpp ****     switch(type){
  82:src/kernel/mmanagement/object_cache.cpp **** 
  83:src/kernel/mmanagement/object_cache.cpp ****         // if this is a small mememory buffer slab
  84:src/kernel/mmanagement/object_cache.cpp ****         // then elements must start from the begining of the slab
  85:src/kernel/mmanagement/object_cache.cpp ****         // then we allocate just like OFF_SLAB type
  86:src/kernel/mmanagement/object_cache.cpp ****         case BUFF_SLAB:
  87:src/kernel/mmanagement/object_cache.cpp ****             tmp_addr = start;
  88:src/kernel/mmanagement/object_cache.cpp ****             obj_num += 1;
  89:src/kernel/mmanagement/object_cache.cpp **** 
  90:src/kernel/mmanagement/object_cache.cpp **** 
  91:src/kernel/mmanagement/object_cache.cpp ****         // get slab_meta object from slab_meta cache
  92:src/kernel/mmanagement/object_cache.cpp ****         case OFF_SLAB: 
  93:src/kernel/mmanagement/object_cache.cpp ****             slab_meta = (Slab*)slab_cache_ptr->alloc_obj();
  94:src/kernel/mmanagement/object_cache.cpp ****             break;
  95:src/kernel/mmanagement/object_cache.cpp **** 
GAS LISTING /tmp/ccPRbhSD.s 			page 8


  96:src/kernel/mmanagement/object_cache.cpp ****         
  97:src/kernel/mmanagement/object_cache.cpp ****         // if it this is cache of slab_metas 
  98:src/kernel/mmanagement/object_cache.cpp ****         // then alloc slab_meta on the star
  99:src/kernel/mmanagement/object_cache.cpp ****         case SLAB_SLAB:
 100:src/kernel/mmanagement/object_cache.cpp ****             slab_meta = (Slab*)tmp_addr;
 101:src/kernel/mmanagement/object_cache.cpp ****             tmp_addr += sizeof(Slab);
 102:src/kernel/mmanagement/object_cache.cpp ****             break;
 103:src/kernel/mmanagement/object_cache.cpp **** 
 104:src/kernel/mmanagement/object_cache.cpp **** 
 105:src/kernel/mmanagement/object_cache.cpp ****         // allocate slab_meta on the slab if can fit
 106:src/kernel/mmanagement/object_cache.cpp ****         // on the end of the slab
 107:src/kernel/mmanagement/object_cache.cpp ****         case ON_SLAB:
 108:src/kernel/mmanagement/object_cache.cpp ****             slab_meta = (Slab*)(start + slab_size - sizeof(Slab));
 109:src/kernel/mmanagement/object_cache.cpp ****             break;
 110:src/kernel/mmanagement/object_cache.cpp **** 
 111:src/kernel/mmanagement/object_cache.cpp ****         case NONE: default: return nullptr;
 112:src/kernel/mmanagement/object_cache.cpp ****     }
 113:src/kernel/mmanagement/object_cache.cpp ****     if(type == SLAB_SLAB){ obj_num -= 1; }
 114:src/kernel/mmanagement/object_cache.cpp ****     
 115:src/kernel/mmanagement/object_cache.cpp ****     *slab_meta = Slab(obj_num
 116:src/kernel/mmanagement/object_cache.cpp ****                 ,tmp_addr
 117:src/kernel/mmanagement/object_cache.cpp ****                 ,this);
 118:src/kernel/mmanagement/object_cache.cpp **** 
 119:src/kernel/mmanagement/object_cache.cpp ****     if(type != BUFF_SLAB) { *slab_meta_addr_ptr = slab_meta; }
 120:src/kernel/mmanagement/object_cache.cpp ****     
 121:src/kernel/mmanagement/object_cache.cpp ****     free_head = insert(&slab_meta->node, free_head);
 122:src/kernel/mmanagement/object_cache.cpp ****     
 123:src/kernel/mmanagement/object_cache.cpp ****     // allocate objects
 124:src/kernel/mmanagement/object_cache.cpp ****     char* end = start + slab_size;
 125:src/kernel/mmanagement/object_cache.cpp ****     for(; tmp_addr + objsize <= end; tmp_addr += objsize){
 126:src/kernel/mmanagement/object_cache.cpp ****         if(ctor)
 127:src/kernel/mmanagement/object_cache.cpp ****             ctor(tmp_addr);
 128:src/kernel/mmanagement/object_cache.cpp ****         else
 129:src/kernel/mmanagement/object_cache.cpp ****             zero_out(tmp_addr);
 130:src/kernel/mmanagement/object_cache.cpp ****     }
 131:src/kernel/mmanagement/object_cache.cpp ****     
 132:src/kernel/mmanagement/object_cache.cpp ****     return slab_meta;
 133:src/kernel/mmanagement/object_cache.cpp **** }
 134:src/kernel/mmanagement/object_cache.cpp **** 
 135:src/kernel/mmanagement/object_cache.cpp **** 
 136:src/kernel/mmanagement/object_cache.cpp **** 
 137:src/kernel/mmanagement/object_cache.cpp **** void ObjectCache::list_update_alloc(Slab* slab_meta, bool was_free){
 274              		.loc 1 137 68 is_stmt 1
 275              		.cfi_startproc
 276              	.LVL30:
 277 01b0 130101FE 		addi	sp,sp,-32
 278              		.cfi_def_cfa_offset 32
 279 01b4 233C1100 		sd	ra,24(sp)
 280 01b8 23388100 		sd	s0,16(sp)
 281 01bc 23349100 		sd	s1,8(sp)
 282 01c0 23302101 		sd	s2,0(sp)
 283              		.cfi_offset 1, -8
 284              		.cfi_offset 8, -16
 285              		.cfi_offset 9, -24
 286              		.cfi_offset 18, -32
 287 01c4 13040102 		addi	s0,sp,32
 288              		.cfi_def_cfa 8, 0
GAS LISTING /tmp/ccPRbhSD.s 			page 9


 289 01c8 93040500 		mv	s1,a0
 290 01cc 13890500 		mv	s2,a1
 138:src/kernel/mmanagement/object_cache.cpp ****     if(slab_meta->full()){
 291              		.loc 1 138 5
 292              	.LVL31:
 293              	.LBB12:
 294              	.LBB13:
 295              		.file 2 "src/kernel/mmanagement/../../../h/../h/slab_allocator.h"
   1:src/kernel/mmanagement/../../../h/../h/slab_allocator.h **** #ifndef SLAB_ALLOCATOR_H
   2:src/kernel/mmanagement/../../../h/../h/slab_allocator.h **** #define SLAB_ALLOCATOR_H
   3:src/kernel/mmanagement/../../../h/../h/slab_allocator.h **** #include"../h/object_cache.h"
   4:src/kernel/mmanagement/../../../h/../h/slab_allocator.h **** #include"../lib/hw.h"
   5:src/kernel/mmanagement/../../../h/../h/slab_allocator.h **** #include "list.h"
   6:src/kernel/mmanagement/../../../h/../h/slab_allocator.h **** #include "noalloc_allocator.hpp"
   7:src/kernel/mmanagement/../../../h/../h/slab_allocator.h **** #include "kernel_funs.h"
   8:src/kernel/mmanagement/../../../h/../h/slab_allocator.h **** 
   9:src/kernel/mmanagement/../../../h/../h/slab_allocator.h **** #define __SLAB_ALLOCATION__(typename, ctor, dtor) \
  10:src/kernel/mmanagement/../../../h/../h/slab_allocator.h ****     void* operator new(size_t sz){ \
  11:src/kernel/mmanagement/../../../h/../h/slab_allocator.h ****         if(!cache){ \
  12:src/kernel/mmanagement/../../../h/../h/slab_allocator.h ****             cache = new ObjectCache( #typename "_cache", sz, ctor, dtor); \
  13:src/kernel/mmanagement/../../../h/../h/slab_allocator.h ****         } \
  14:src/kernel/mmanagement/../../../h/../h/slab_allocator.h ****         return cache->alloc_obj(); \
  15:src/kernel/mmanagement/../../../h/../h/slab_allocator.h ****     } \
  16:src/kernel/mmanagement/../../../h/../h/slab_allocator.h ****     void* operator new[](size_t sz){ \
  17:src/kernel/mmanagement/../../../h/../h/slab_allocator.h ****         return SlabAllocator::getInstance().kmalloc(sz);\
  18:src/kernel/mmanagement/../../../h/../h/slab_allocator.h ****     }  \
  19:src/kernel/mmanagement/../../../h/../h/slab_allocator.h ****     void operator delete(void* ptr){ \
  20:src/kernel/mmanagement/../../../h/../h/slab_allocator.h ****         cache->free_obj(ptr); \
  21:src/kernel/mmanagement/../../../h/../h/slab_allocator.h ****     }  \
  22:src/kernel/mmanagement/../../../h/../h/slab_allocator.h ****     void operator delete[](void* ptr){ \
  23:src/kernel/mmanagement/../../../h/../h/slab_allocator.h ****         SlabAllocator::getInstance().kfree(ptr); \
  24:src/kernel/mmanagement/../../../h/../h/slab_allocator.h ****     }\
  25:src/kernel/mmanagement/../../../h/../h/slab_allocator.h **** 
  26:src/kernel/mmanagement/../../../h/../h/slab_allocator.h **** 
  27:src/kernel/mmanagement/../../../h/../h/slab_allocator.h **** typedef class SlabAllocator{
  28:src/kernel/mmanagement/../../../h/../h/slab_allocator.h ****     typedef ObjectCache::SlabMetaType SMT;
  29:src/kernel/mmanagement/../../../h/../h/slab_allocator.h ****     friend ObjectCache;
  30:src/kernel/mmanagement/../../../h/../h/slab_allocator.h ****     friend Slab;
  31:src/kernel/mmanagement/../../../h/../h/slab_allocator.h ****     
  32:src/kernel/mmanagement/../../../h/../h/slab_allocator.h ****     static const char* buff_cache_names[13];
  33:src/kernel/mmanagement/../../../h/../h/slab_allocator.h ****     static SlabAllocator* allocator;
  34:src/kernel/mmanagement/../../../h/../h/slab_allocator.h **** 
  35:src/kernel/mmanagement/../../../h/../h/slab_allocator.h ****     static const int MIN_BUFFER_ORDER = 5,
  36:src/kernel/mmanagement/../../../h/../h/slab_allocator.h ****         MAX_BUFFER_ORDER = 17;
  37:src/kernel/mmanagement/../../../h/../h/slab_allocator.h ****     ObjectCache objcache_cache;
  38:src/kernel/mmanagement/../../../h/../h/slab_allocator.h ****     ObjectCache slab_cache;
  39:src/kernel/mmanagement/../../../h/../h/slab_allocator.h ****     ObjectCache smb_caches[13];
  40:src/kernel/mmanagement/../../../h/../h/slab_allocator.h ****     list_t* cache_head;
  41:src/kernel/mmanagement/../../../h/../h/slab_allocator.h **** 
  42:src/kernel/mmanagement/../../../h/../h/slab_allocator.h ****     __NOALLOC_OPERATORS__
  43:src/kernel/mmanagement/../../../h/../h/slab_allocator.h **** 
  44:src/kernel/mmanagement/../../../h/../h/slab_allocator.h ****     SlabAllocator();
  45:src/kernel/mmanagement/../../../h/../h/slab_allocator.h ****     bool operator=(SlabAllocator&) = delete;
  46:src/kernel/mmanagement/../../../h/../h/slab_allocator.h ****     SlabAllocator(const SlabAllocator&) = delete;
  47:src/kernel/mmanagement/../../../h/../h/slab_allocator.h ****     
  48:src/kernel/mmanagement/../../../h/../h/slab_allocator.h **** public:
  49:src/kernel/mmanagement/../../../h/../h/slab_allocator.h ****     ObjectCache* create_cache(const char* name, size_t objsize,
GAS LISTING /tmp/ccPRbhSD.s 			page 10


  50:src/kernel/mmanagement/../../../h/../h/slab_allocator.h ****         void (*ctor)(void*), void (*dtor)(void*) );
  51:src/kernel/mmanagement/../../../h/../h/slab_allocator.h ****     int cache_destroy(ObjectCache*);
  52:src/kernel/mmanagement/../../../h/../h/slab_allocator.h **** 
  53:src/kernel/mmanagement/../../../h/../h/slab_allocator.h ****     static SlabAllocator& getInstance();
  54:src/kernel/mmanagement/../../../h/../h/slab_allocator.h **** 
  55:src/kernel/mmanagement/../../../h/../h/slab_allocator.h ****     void print_state(char flag);
  56:src/kernel/mmanagement/../../../h/../h/slab_allocator.h **** 
  57:src/kernel/mmanagement/../../../h/../h/slab_allocator.h ****     void* kmalloc(size_t);
  58:src/kernel/mmanagement/../../../h/../h/slab_allocator.h ****     int kfree(void*);
  59:src/kernel/mmanagement/../../../h/../h/slab_allocator.h **** 
  60:src/kernel/mmanagement/../../../h/../h/slab_allocator.h **** } SlabAl;
  61:src/kernel/mmanagement/../../../h/../h/slab_allocator.h **** 
  62:src/kernel/mmanagement/../../../h/../h/slab_allocator.h **** class Slab{
  63:src/kernel/mmanagement/../../../h/../h/slab_allocator.h ****     friend ObjectCache;
  64:src/kernel/mmanagement/../../../h/../h/slab_allocator.h ****     friend SlabAllocator;
  65:src/kernel/mmanagement/../../../h/../h/slab_allocator.h ****     
  66:src/kernel/mmanagement/../../../h/../h/slab_allocator.h ****     static const uchar RB_SIZE = 128;
  67:src/kernel/mmanagement/../../../h/../h/slab_allocator.h ****     ObjectCache* parent;
  68:src/kernel/mmanagement/../../../h/../h/slab_allocator.h ****     uchar round_buffer[RB_SIZE], front, rear, cap; //wich positions are free
  69:src/kernel/mmanagement/../../../h/../h/slab_allocator.h ****     uchar map[RB_SIZE >> 3]; //used bit map
  70:src/kernel/mmanagement/../../../h/../h/slab_allocator.h ****     char* addr_start;
  71:src/kernel/mmanagement/../../../h/../h/slab_allocator.h ****     list_t node;
  72:src/kernel/mmanagement/../../../h/../h/slab_allocator.h **** 
  73:src/kernel/mmanagement/../../../h/../h/slab_allocator.h ****     Slab(uchar cap, void* addr, ObjectCache*);
  74:src/kernel/mmanagement/../../../h/../h/slab_allocator.h ****     void set_bit(uchar index);
  75:src/kernel/mmanagement/../../../h/../h/slab_allocator.h ****     void clear_bit(uchar index);
  76:src/kernel/mmanagement/../../../h/../h/slab_allocator.h ****     bool get_bit(uchar index);
  77:src/kernel/mmanagement/../../../h/../h/slab_allocator.h **** public:
  78:src/kernel/mmanagement/../../../h/../h/slab_allocator.h ****     enum pb_mask: char{
  79:src/kernel/mmanagement/../../../h/../h/slab_allocator.h ****         CLEAR = 0,
  80:src/kernel/mmanagement/../../../h/../h/slab_allocator.h ****         FREE = 1,
  81:src/kernel/mmanagement/../../../h/../h/slab_allocator.h ****         ALLOC = 2,
  82:src/kernel/mmanagement/../../../h/../h/slab_allocator.h ****     };
  83:src/kernel/mmanagement/../../../h/../h/slab_allocator.h **** 
  84:src/kernel/mmanagement/../../../h/../h/slab_allocator.h ****     Slab() = default;
  85:src/kernel/mmanagement/../../../h/../h/slab_allocator.h ****     Slab& operator=(const Slab&) = default;
  86:src/kernel/mmanagement/../../../h/../h/slab_allocator.h ****     void* get_obj();
  87:src/kernel/mmanagement/../../../h/../h/slab_allocator.h ****     int put_obj(void*);
  88:src/kernel/mmanagement/../../../h/../h/slab_allocator.h ****     bool full(){ return front == RB_SIZE; }
 296              		.loc 2 88 18
 297              		.loc 2 88 25 is_stmt 0
 298 01d0 03C78508 		lbu	a4,136(a1)
 299              	.LVL32:
 300              	.LBE13:
 301              	.LBE12:
 302              		.loc 1 138 5
 303 01d4 93070008 		li	a5,128
 304 01d8 6300F702 		beq	a4,a5,.L23
 139:src/kernel/mmanagement/object_cache.cpp ****         if(was_free)
 140:src/kernel/mmanagement/object_cache.cpp ****             free_head = remove(free_head);
 141:src/kernel/mmanagement/object_cache.cpp ****         else
 142:src/kernel/mmanagement/object_cache.cpp ****             part_head = remove(part_head);
 143:src/kernel/mmanagement/object_cache.cpp ****         full_head = insert(&(slab_meta->node), full_head);
 144:src/kernel/mmanagement/object_cache.cpp ****     }
 145:src/kernel/mmanagement/object_cache.cpp ****     else if(was_free){
 305              		.loc 1 145 10 is_stmt 1
 306 01dc 631E0604 		bne	a2,zero,.L24
GAS LISTING /tmp/ccPRbhSD.s 			page 11


 307              	.LVL33:
 308              	.L17:
 146:src/kernel/mmanagement/object_cache.cpp ****         free_head = remove(free_head);
 147:src/kernel/mmanagement/object_cache.cpp ****         part_head = insert(&(slab_meta->node), part_head);
 148:src/kernel/mmanagement/object_cache.cpp ****     }
 149:src/kernel/mmanagement/object_cache.cpp **** }
 309              		.loc 1 149 1 is_stmt 0
 310 01e0 83308101 		ld	ra,24(sp)
 311              		.cfi_remember_state
 312              		.cfi_restore 1
 313 01e4 03340101 		ld	s0,16(sp)
 314              		.cfi_restore 8
 315              		.cfi_def_cfa 2, 32
 316 01e8 83348100 		ld	s1,8(sp)
 317              		.cfi_restore 9
 318              	.LVL34:
 319 01ec 03390100 		ld	s2,0(sp)
 320              		.cfi_restore 18
 321              	.LVL35:
 322 01f0 13010102 		addi	sp,sp,32
 323              		.cfi_def_cfa_offset 0
 324 01f4 67800000 		jr	ra
 325              	.LVL36:
 326              	.L23:
 327              		.cfi_restore_state
 139:src/kernel/mmanagement/object_cache.cpp ****         if(was_free)
 328              		.loc 1 139 9 is_stmt 1
 329 01f8 63060602 		beq	a2,zero,.L19
 140:src/kernel/mmanagement/object_cache.cpp ****         else
 330              		.loc 1 140 13
 140:src/kernel/mmanagement/object_cache.cpp ****         else
 331              		.loc 1 140 31 is_stmt 0
 332 01fc 03350502 		ld	a0,32(a0)
 333 0200 97000000 		call	_Z6removeP6list_t
 333      E7800000 
 334              	.LVL37:
 140:src/kernel/mmanagement/object_cache.cpp ****         else
 335              		.loc 1 140 23
 336 0208 23B0A402 		sd	a0,32(s1)
 337              	.L20:
 143:src/kernel/mmanagement/object_cache.cpp ****     }
 338              		.loc 1 143 9 is_stmt 1
 143:src/kernel/mmanagement/object_cache.cpp ****     }
 339              		.loc 1 143 27 is_stmt 0
 340 020c 83B50403 		ld	a1,48(s1)
 341 0210 1305890A 		addi	a0,s2,168
 342 0214 97000000 		call	_Z6insertP6list_tS0_
 342      E7800000 
 343              	.LVL38:
 143:src/kernel/mmanagement/object_cache.cpp ****     }
 344              		.loc 1 143 19
 345 021c 23B8A402 		sd	a0,48(s1)
 346 0220 6FF01FFC 		j	.L17
 347              	.LVL39:
 348              	.L19:
 142:src/kernel/mmanagement/object_cache.cpp ****         full_head = insert(&(slab_meta->node), full_head);
 349              		.loc 1 142 13 is_stmt 1
GAS LISTING /tmp/ccPRbhSD.s 			page 12


 142:src/kernel/mmanagement/object_cache.cpp ****         full_head = insert(&(slab_meta->node), full_head);
 350              		.loc 1 142 31 is_stmt 0
 351 0224 03358502 		ld	a0,40(a0)
 352 0228 97000000 		call	_Z6removeP6list_t
 352      E7800000 
 353              	.LVL40:
 142:src/kernel/mmanagement/object_cache.cpp ****         full_head = insert(&(slab_meta->node), full_head);
 354              		.loc 1 142 23
 355 0230 23B4A402 		sd	a0,40(s1)
 356 0234 6FF09FFD 		j	.L20
 357              	.LVL41:
 358              	.L24:
 146:src/kernel/mmanagement/object_cache.cpp ****         part_head = insert(&(slab_meta->node), part_head);
 359              		.loc 1 146 9 is_stmt 1
 146:src/kernel/mmanagement/object_cache.cpp ****         part_head = insert(&(slab_meta->node), part_head);
 360              		.loc 1 146 27 is_stmt 0
 361 0238 03350502 		ld	a0,32(a0)
 362 023c 97000000 		call	_Z6removeP6list_t
 362      E7800000 
 363              	.LVL42:
 146:src/kernel/mmanagement/object_cache.cpp ****         part_head = insert(&(slab_meta->node), part_head);
 364              		.loc 1 146 19
 365 0244 23B0A402 		sd	a0,32(s1)
 147:src/kernel/mmanagement/object_cache.cpp ****     }
 366              		.loc 1 147 9 is_stmt 1
 147:src/kernel/mmanagement/object_cache.cpp ****     }
 367              		.loc 1 147 27 is_stmt 0
 368 0248 83B58402 		ld	a1,40(s1)
 369 024c 1305890A 		addi	a0,s2,168
 370 0250 97000000 		call	_Z6insertP6list_tS0_
 370      E7800000 
 371              	.LVL43:
 147:src/kernel/mmanagement/object_cache.cpp ****     }
 372              		.loc 1 147 19
 373 0258 23B4A402 		sd	a0,40(s1)
 374              		.loc 1 149 1
 375 025c 6FF05FF8 		j	.L17
 376              		.cfi_endproc
 377              	.LFE121:
 379              		.align	2
 380              		.globl	_ZN11ObjectCache16list_update_freeEP4Slabb
 382              	_ZN11ObjectCache16list_update_freeEP4Slabb:
 383              	.LFB123:
 150:src/kernel/mmanagement/object_cache.cpp **** 
 151:src/kernel/mmanagement/object_cache.cpp **** 
 152:src/kernel/mmanagement/object_cache.cpp **** 
 153:src/kernel/mmanagement/object_cache.cpp **** void* ObjectCache::alloc_obj(){ 
 154:src/kernel/mmanagement/object_cache.cpp ****     bool was_free = false;
 155:src/kernel/mmanagement/object_cache.cpp ****     Slab* t = nullptr;
 156:src/kernel/mmanagement/object_cache.cpp ****     void* obj = nullptr;
 157:src/kernel/mmanagement/object_cache.cpp **** 
 158:src/kernel/mmanagement/object_cache.cpp ****     if(part_head){
 159:src/kernel/mmanagement/object_cache.cpp ****         t = get_list_parent(part_head, Slab, node);
 160:src/kernel/mmanagement/object_cache.cpp ****     }
 161:src/kernel/mmanagement/object_cache.cpp ****     else {
 162:src/kernel/mmanagement/object_cache.cpp ****         if(free_head){ 
 163:src/kernel/mmanagement/object_cache.cpp ****             t = get_list_parent(free_head, Slab, node); 
GAS LISTING /tmp/ccPRbhSD.s 			page 13


 164:src/kernel/mmanagement/object_cache.cpp ****         } else {  t = slab_alloc(); }
 165:src/kernel/mmanagement/object_cache.cpp ****         was_free = true;
 166:src/kernel/mmanagement/object_cache.cpp ****     }
 167:src/kernel/mmanagement/object_cache.cpp ****     obj = t->get_obj();
 168:src/kernel/mmanagement/object_cache.cpp ****     list_update_alloc(t, was_free);
 169:src/kernel/mmanagement/object_cache.cpp ****     return obj;
 170:src/kernel/mmanagement/object_cache.cpp **** }
 171:src/kernel/mmanagement/object_cache.cpp **** 
 172:src/kernel/mmanagement/object_cache.cpp **** 
 173:src/kernel/mmanagement/object_cache.cpp **** 
 174:src/kernel/mmanagement/object_cache.cpp **** void ObjectCache::list_update_free(Slab* slab_meta, bool was_full){
 384              		.loc 1 174 67 is_stmt 1
 385              		.cfi_startproc
 386              	.LVL44:
 387 0260 130101FE 		addi	sp,sp,-32
 388              		.cfi_def_cfa_offset 32
 389 0264 233C1100 		sd	ra,24(sp)
 390 0268 23388100 		sd	s0,16(sp)
 391 026c 23349100 		sd	s1,8(sp)
 392 0270 23302101 		sd	s2,0(sp)
 393              		.cfi_offset 1, -8
 394              		.cfi_offset 8, -16
 395              		.cfi_offset 9, -24
 396              		.cfi_offset 18, -32
 397 0274 13040102 		addi	s0,sp,32
 398              		.cfi_def_cfa 8, 0
 399 0278 13090500 		mv	s2,a0
 400 027c 93840500 		mv	s1,a1
 175:src/kernel/mmanagement/object_cache.cpp ****     
 176:src/kernel/mmanagement/object_cache.cpp ****     if(slab_meta->free()){
 401              		.loc 1 176 5
 402              	.LVL45:
 403              	.LBB14:
 404              	.LBB15:
  89:src/kernel/mmanagement/../../../h/../h/slab_allocator.h ****     bool free(){ return rear == front; }
 405              		.loc 2 89 18
 406              		.loc 2 89 25 is_stmt 0
 407 0280 03C79508 		lbu	a4,137(a1)
 408              		.loc 2 89 33
 409 0284 83C78508 		lbu	a5,136(a1)
 410              	.LVL46:
 411              	.LBE15:
 412              	.LBE14:
 413              		.loc 1 176 5
 414 0288 630CF702 		beq	a4,a5,.L35
 177:src/kernel/mmanagement/object_cache.cpp ****         if(was_full){
 178:src/kernel/mmanagement/object_cache.cpp ****             if(&slab_meta->node == full_head)
 179:src/kernel/mmanagement/object_cache.cpp ****                 full_head = remove(full_head);
 180:src/kernel/mmanagement/object_cache.cpp ****             else
 181:src/kernel/mmanagement/object_cache.cpp ****                 remove(&slab_meta->node);
 182:src/kernel/mmanagement/object_cache.cpp ****         }
 183:src/kernel/mmanagement/object_cache.cpp ****         else{
 184:src/kernel/mmanagement/object_cache.cpp ****             if(&slab_meta->node == part_head)
 185:src/kernel/mmanagement/object_cache.cpp ****                 part_head = remove(part_head);
 186:src/kernel/mmanagement/object_cache.cpp ****             else
 187:src/kernel/mmanagement/object_cache.cpp ****                 remove(&slab_meta->node);
 188:src/kernel/mmanagement/object_cache.cpp ****         }
GAS LISTING /tmp/ccPRbhSD.s 			page 14


 189:src/kernel/mmanagement/object_cache.cpp ****         free_head = insert(&slab_meta->node, free_head);
 190:src/kernel/mmanagement/object_cache.cpp ****     }else if(was_full){
 415              		.loc 1 190 11 is_stmt 1
 416 028c 63000606 		beq	a2,zero,.L25
 191:src/kernel/mmanagement/object_cache.cpp ****         if(&slab_meta->node == full_head)
 417              		.loc 1 191 9
 418              		.loc 1 191 12 is_stmt 0
 419 0290 9384850A 		addi	s1,a1,168
 420              		.loc 1 191 32
 421 0294 03350503 		ld	a0,48(a0)
 422              	.LVL47:
 423              		.loc 1 191 9
 424 0298 6386A40A 		beq	s1,a0,.L36
 192:src/kernel/mmanagement/object_cache.cpp ****             full_head = remove(full_head);
 193:src/kernel/mmanagement/object_cache.cpp ****         else
 194:src/kernel/mmanagement/object_cache.cpp ****             remove(&slab_meta->node);
 425              		.loc 1 194 13 is_stmt 1
 426              		.loc 1 194 19 is_stmt 0
 427 029c 13850400 		mv	a0,s1
 428 02a0 97000000 		call	_Z6removeP6list_t
 428      E7800000 
 429              	.LVL48:
 430              	.L33:
 195:src/kernel/mmanagement/object_cache.cpp ****         part_head = insert(&slab_meta->node, part_head);
 431              		.loc 1 195 9 is_stmt 1
 432              		.loc 1 195 27 is_stmt 0
 433 02a8 83358902 		ld	a1,40(s2)
 434 02ac 13850400 		mv	a0,s1
 435 02b0 97000000 		call	_Z6insertP6list_tS0_
 435      E7800000 
 436              	.LVL49:
 437              		.loc 1 195 19
 438 02b8 2334A902 		sd	a0,40(s2)
 196:src/kernel/mmanagement/object_cache.cpp ****     }
 197:src/kernel/mmanagement/object_cache.cpp **** 
 198:src/kernel/mmanagement/object_cache.cpp **** }
 439              		.loc 1 198 1
 440 02bc 6F000003 		j	.L25
 441              	.LVL50:
 442              	.L35:
 177:src/kernel/mmanagement/object_cache.cpp ****             if(&slab_meta->node == full_head)
 443              		.loc 1 177 9 is_stmt 1
 444 02c0 630C0604 		beq	a2,zero,.L27
 178:src/kernel/mmanagement/object_cache.cpp ****                 full_head = remove(full_head);
 445              		.loc 1 178 13
 178:src/kernel/mmanagement/object_cache.cpp ****                 full_head = remove(full_head);
 446              		.loc 1 178 16 is_stmt 0
 447 02c4 1385850A 		addi	a0,a1,168
 448              	.LVL51:
 178:src/kernel/mmanagement/object_cache.cpp ****                 full_head = remove(full_head);
 449              		.loc 1 178 36
 450 02c8 83370903 		ld	a5,48(s2)
 178:src/kernel/mmanagement/object_cache.cpp ****                 full_head = remove(full_head);
 451              		.loc 1 178 13
 452 02cc 630CF502 		beq	a0,a5,.L37
 181:src/kernel/mmanagement/object_cache.cpp ****         }
 453              		.loc 1 181 17 is_stmt 1
GAS LISTING /tmp/ccPRbhSD.s 			page 15


 181:src/kernel/mmanagement/object_cache.cpp ****         }
 454              		.loc 1 181 23 is_stmt 0
 455 02d0 97000000 		call	_Z6removeP6list_t
 455      E7800000 
 456              	.LVL52:
 457              	.L29:
 189:src/kernel/mmanagement/object_cache.cpp ****     }else if(was_full){
 458              		.loc 1 189 9 is_stmt 1
 189:src/kernel/mmanagement/object_cache.cpp ****     }else if(was_full){
 459              		.loc 1 189 27 is_stmt 0
 460 02d8 83350902 		ld	a1,32(s2)
 461 02dc 1385840A 		addi	a0,s1,168
 462 02e0 97000000 		call	_Z6insertP6list_tS0_
 462      E7800000 
 463              	.LVL53:
 189:src/kernel/mmanagement/object_cache.cpp ****     }else if(was_full){
 464              		.loc 1 189 19
 465 02e8 2330A902 		sd	a0,32(s2)
 466              	.LVL54:
 467              	.L25:
 468              		.loc 1 198 1
 469 02ec 83308101 		ld	ra,24(sp)
 470              		.cfi_remember_state
 471              		.cfi_restore 1
 472 02f0 03340101 		ld	s0,16(sp)
 473              		.cfi_restore 8
 474              		.cfi_def_cfa 2, 32
 475 02f4 83348100 		ld	s1,8(sp)
 476              		.cfi_restore 9
 477 02f8 03390100 		ld	s2,0(sp)
 478              		.cfi_restore 18
 479              	.LVL55:
 480 02fc 13010102 		addi	sp,sp,32
 481              		.cfi_def_cfa_offset 0
 482 0300 67800000 		jr	ra
 483              	.LVL56:
 484              	.L37:
 485              		.cfi_restore_state
 179:src/kernel/mmanagement/object_cache.cpp ****             else
 486              		.loc 1 179 17 is_stmt 1
 179:src/kernel/mmanagement/object_cache.cpp ****             else
 487              		.loc 1 179 35 is_stmt 0
 488 0304 13850700 		mv	a0,a5
 489 0308 97000000 		call	_Z6removeP6list_t
 489      E7800000 
 490              	.LVL57:
 179:src/kernel/mmanagement/object_cache.cpp ****             else
 491              		.loc 1 179 27
 492 0310 2338A902 		sd	a0,48(s2)
 493 0314 6FF05FFC 		j	.L29
 494              	.LVL58:
 495              	.L27:
 184:src/kernel/mmanagement/object_cache.cpp ****                 part_head = remove(part_head);
 496              		.loc 1 184 13 is_stmt 1
 184:src/kernel/mmanagement/object_cache.cpp ****                 part_head = remove(part_head);
 497              		.loc 1 184 16 is_stmt 0
 498 0318 1385850A 		addi	a0,a1,168
GAS LISTING /tmp/ccPRbhSD.s 			page 16


 499              	.LVL59:
 184:src/kernel/mmanagement/object_cache.cpp ****                 part_head = remove(part_head);
 500              		.loc 1 184 36
 501 031c 83378902 		ld	a5,40(s2)
 184:src/kernel/mmanagement/object_cache.cpp ****                 part_head = remove(part_head);
 502              		.loc 1 184 13
 503 0320 6308F500 		beq	a0,a5,.L38
 187:src/kernel/mmanagement/object_cache.cpp ****         }
 504              		.loc 1 187 17 is_stmt 1
 187:src/kernel/mmanagement/object_cache.cpp ****         }
 505              		.loc 1 187 23 is_stmt 0
 506 0324 97000000 		call	_Z6removeP6list_t
 506      E7800000 
 507              	.LVL60:
 508 032c 6FF0DFFA 		j	.L29
 509              	.LVL61:
 510              	.L38:
 185:src/kernel/mmanagement/object_cache.cpp ****             else
 511              		.loc 1 185 17 is_stmt 1
 185:src/kernel/mmanagement/object_cache.cpp ****             else
 512              		.loc 1 185 35 is_stmt 0
 513 0330 13850700 		mv	a0,a5
 514 0334 97000000 		call	_Z6removeP6list_t
 514      E7800000 
 515              	.LVL62:
 185:src/kernel/mmanagement/object_cache.cpp ****             else
 516              		.loc 1 185 27
 517 033c 2334A902 		sd	a0,40(s2)
 518 0340 6FF09FF9 		j	.L29
 519              	.LVL63:
 520              	.L36:
 192:src/kernel/mmanagement/object_cache.cpp ****         else
 521              		.loc 1 192 13 is_stmt 1
 192:src/kernel/mmanagement/object_cache.cpp ****         else
 522              		.loc 1 192 31 is_stmt 0
 523 0344 97000000 		call	_Z6removeP6list_t
 523      E7800000 
 524              	.LVL64:
 192:src/kernel/mmanagement/object_cache.cpp ****         else
 525              		.loc 1 192 23
 526 034c 2338A902 		sd	a0,48(s2)
 527 0350 6FF09FF5 		j	.L33
 528              		.cfi_endproc
 529              	.LFE123:
 531              		.align	2
 532              		.globl	_ZN11ObjectCache9find_slabEPvP6list_t
 534              	_ZN11ObjectCache9find_slabEPvP6list_t:
 535              	.LFB124:
 199:src/kernel/mmanagement/object_cache.cpp **** 
 200:src/kernel/mmanagement/object_cache.cpp **** 
 201:src/kernel/mmanagement/object_cache.cpp **** 
 202:src/kernel/mmanagement/object_cache.cpp **** Slab* ObjectCache::find_slab(void* addr, list_t* head){
 536              		.loc 1 202 55 is_stmt 1
 537              		.cfi_startproc
 538              	.LVL65:
 539 0354 130101FD 		addi	sp,sp,-48
 540              		.cfi_def_cfa_offset 48
GAS LISTING /tmp/ccPRbhSD.s 			page 17


 541 0358 23341102 		sd	ra,40(sp)
 542 035c 23308102 		sd	s0,32(sp)
 543 0360 233C9100 		sd	s1,24(sp)
 544 0364 23382101 		sd	s2,16(sp)
 545 0368 23343101 		sd	s3,8(sp)
 546              		.cfi_offset 1, -8
 547              		.cfi_offset 8, -16
 548              		.cfi_offset 9, -24
 549              		.cfi_offset 18, -32
 550              		.cfi_offset 19, -40
 551 036c 13040103 		addi	s0,sp,48
 552              		.cfi_def_cfa 8, 0
 553 0370 93890500 		mv	s3,a1
 554 0374 93040600 		mv	s1,a2
 203:src/kernel/mmanagement/object_cache.cpp ****     list_t* tmp = head;
 555              		.loc 1 203 5
 556              	.LVL66:
 557              	.L41:
 204:src/kernel/mmanagement/object_cache.cpp ****     while(tmp){
 558              		.loc 1 204 5
 559              		.loc 1 204 11 is_stmt 0
 560 0378 63840402 		beq	s1,zero,.L40
 561              	.LBB16:
 205:src/kernel/mmanagement/object_cache.cpp ****         Slab* slab_meta = get_list_parent(tmp, Slab, node);
 562              		.loc 1 205 9 is_stmt 1
 563              		.loc 1 205 27 is_stmt 0
 564 037c 138984F5 		addi	s2,s1,-168
 565              	.LVL67:
 206:src/kernel/mmanagement/object_cache.cpp ****         if(slab_meta->contains(addr)) return slab_meta;
 566              		.loc 1 206 9 is_stmt 1
 567              		.loc 1 206 31 is_stmt 0
 568 0380 93850900 		mv	a1,s3
 569 0384 13050900 		mv	a0,s2
 570 0388 97000000 		call	_ZN4Slab8containsEPv
 570      E7800000 
 571              	.LVL68:
 572              		.loc 1 206 9
 573 0390 63160500 		bne	a0,zero,.L42
 207:src/kernel/mmanagement/object_cache.cpp ****         tmp = tmp->next;
 574              		.loc 1 207 9 is_stmt 1
 575              		.loc 1 207 13 is_stmt 0
 576 0394 83B40400 		ld	s1,0(s1)
 577              	.LVL69:
 578              	.LBE16:
 204:src/kernel/mmanagement/object_cache.cpp ****         Slab* slab_meta = get_list_parent(tmp, Slab, node);
 579              		.loc 1 204 5
 580 0398 6FF01FFE 		j	.L41
 581              	.L42:
 582              	.LBB17:
 206:src/kernel/mmanagement/object_cache.cpp ****         if(slab_meta->contains(addr)) return slab_meta;
 583              		.loc 1 206 46
 584 039c 93040900 		mv	s1,s2
 585              	.LVL70:
 586              	.L40:
 587              	.LBE17:
 208:src/kernel/mmanagement/object_cache.cpp ****     }
 209:src/kernel/mmanagement/object_cache.cpp ****     return 0;
GAS LISTING /tmp/ccPRbhSD.s 			page 18


 210:src/kernel/mmanagement/object_cache.cpp **** }
 588              		.loc 1 210 1
 589 03a0 13850400 		mv	a0,s1
 590 03a4 83308102 		ld	ra,40(sp)
 591              		.cfi_restore 1
 592 03a8 03340102 		ld	s0,32(sp)
 593              		.cfi_restore 8
 594              		.cfi_def_cfa 2, 48
 595 03ac 83348101 		ld	s1,24(sp)
 596              		.cfi_restore 9
 597 03b0 03390101 		ld	s2,16(sp)
 598              		.cfi_restore 18
 599 03b4 83398100 		ld	s3,8(sp)
 600              		.cfi_restore 19
 601              	.LVL71:
 602 03b8 13010103 		addi	sp,sp,48
 603              		.cfi_def_cfa_offset 0
 604 03bc 67800000 		jr	ra
 605              		.cfi_endproc
 606              	.LFE124:
 608              		.align	2
 609              		.globl	_ZN11ObjectCache9printInfoEc
 611              	_ZN11ObjectCache9printInfoEc:
 612              	.LFB127:
 211:src/kernel/mmanagement/object_cache.cpp **** 
 212:src/kernel/mmanagement/object_cache.cpp **** 
 213:src/kernel/mmanagement/object_cache.cpp **** 
 214:src/kernel/mmanagement/object_cache.cpp **** int ObjectCache::free_obj(void* ptr){
 215:src/kernel/mmanagement/object_cache.cpp ****     // kprintString(name); kprintString(": ");
 216:src/kernel/mmanagement/object_cache.cpp ****     // KCHECKPRINT(ptr);
 217:src/kernel/mmanagement/object_cache.cpp ****     Slab* slab_meta = *(Slab**)((uint64)ptr & (-Buddy::BLOCK_SIZE));
 218:src/kernel/mmanagement/object_cache.cpp ****     
 219:src/kernel/mmanagement/object_cache.cpp ****     if(type == BUFF_SLAB){
 220:src/kernel/mmanagement/object_cache.cpp ****         slab_meta = find_slab(ptr, part_head);
 221:src/kernel/mmanagement/object_cache.cpp ****         
 222:src/kernel/mmanagement/object_cache.cpp ****         if(!slab_meta)
 223:src/kernel/mmanagement/object_cache.cpp ****             slab_meta = find_slab(ptr, full_head);
 224:src/kernel/mmanagement/object_cache.cpp ****         
 225:src/kernel/mmanagement/object_cache.cpp ****         if(!slab_meta){
 226:src/kernel/mmanagement/object_cache.cpp ****              return 2;
 227:src/kernel/mmanagement/object_cache.cpp ****         }
 228:src/kernel/mmanagement/object_cache.cpp ****     }
 229:src/kernel/mmanagement/object_cache.cpp ****     
 230:src/kernel/mmanagement/object_cache.cpp ****     if(slab_meta->parent != this){
 231:src/kernel/mmanagement/object_cache.cpp ****         error = "Dealocation failed: Object is not from specified cache!!";
 232:src/kernel/mmanagement/object_cache.cpp ****         return 1;
 233:src/kernel/mmanagement/object_cache.cpp ****     }
 234:src/kernel/mmanagement/object_cache.cpp ****     bool was_full = slab_meta->full();
 235:src/kernel/mmanagement/object_cache.cpp ****     int ind = slab_meta->put_obj(ptr);
 236:src/kernel/mmanagement/object_cache.cpp ****     
 237:src/kernel/mmanagement/object_cache.cpp ****     if(ind){
 238:src/kernel/mmanagement/object_cache.cpp ****         error = "Deallocation failed: invalid deallocation address!";
 239:src/kernel/mmanagement/object_cache.cpp ****         return ind;
 240:src/kernel/mmanagement/object_cache.cpp ****     }else if(ctor)
 241:src/kernel/mmanagement/object_cache.cpp ****         ctor(ptr);
 242:src/kernel/mmanagement/object_cache.cpp ****     else 
 243:src/kernel/mmanagement/object_cache.cpp ****         zero_out(ptr);
GAS LISTING /tmp/ccPRbhSD.s 			page 19


 244:src/kernel/mmanagement/object_cache.cpp ****     
 245:src/kernel/mmanagement/object_cache.cpp ****     list_update_free(slab_meta, was_full);
 246:src/kernel/mmanagement/object_cache.cpp ****         
 247:src/kernel/mmanagement/object_cache.cpp ****     return 0;
 248:src/kernel/mmanagement/object_cache.cpp **** }
 249:src/kernel/mmanagement/object_cache.cpp **** 
 250:src/kernel/mmanagement/object_cache.cpp **** 
 251:src/kernel/mmanagement/object_cache.cpp **** 
 252:src/kernel/mmanagement/object_cache.cpp **** 
 253:src/kernel/mmanagement/object_cache.cpp **** int ObjectCache::shrink(){
 254:src/kernel/mmanagement/object_cache.cpp ****     if(!free_head){
 255:src/kernel/mmanagement/object_cache.cpp ****         error = "No free slabs!";
 256:src/kernel/mmanagement/object_cache.cpp ****         return 1;
 257:src/kernel/mmanagement/object_cache.cpp ****     }
 258:src/kernel/mmanagement/object_cache.cpp ****     while(free_head){
 259:src/kernel/mmanagement/object_cache.cpp ****         Slab* slab = get_list_parent(free_head, Slab, node);
 260:src/kernel/mmanagement/object_cache.cpp ****         free_head = remove(free_head);
 261:src/kernel/mmanagement/object_cache.cpp ****         
 262:src/kernel/mmanagement/object_cache.cpp ****         uchar buddy_level;
 263:src/kernel/mmanagement/object_cache.cpp ****         get_slab_size(&buddy_level);
 264:src/kernel/mmanagement/object_cache.cpp **** 
 265:src/kernel/mmanagement/object_cache.cpp ****         Buddy::getInstance().mem_free(slab->addr_start, buddy_level);
 266:src/kernel/mmanagement/object_cache.cpp ****         if(type == BUFF_SLAB || type == OFF_SLAB)
 267:src/kernel/mmanagement/object_cache.cpp ****             SlabAllocator::getInstance().slab_cache.free_obj(slab);
 268:src/kernel/mmanagement/object_cache.cpp ****     }
 269:src/kernel/mmanagement/object_cache.cpp ****     return 0;
 270:src/kernel/mmanagement/object_cache.cpp **** }
 271:src/kernel/mmanagement/object_cache.cpp **** 
 272:src/kernel/mmanagement/object_cache.cpp **** 
 273:src/kernel/mmanagement/object_cache.cpp **** 
 274:src/kernel/mmanagement/object_cache.cpp **** 
 275:src/kernel/mmanagement/object_cache.cpp **** void ObjectCache::printInfo(char flags){
 613              		.loc 1 275 40 is_stmt 1
 614              		.cfi_startproc
 615              	.LVL72:
 616 03c0 130101FD 		addi	sp,sp,-48
 617              		.cfi_def_cfa_offset 48
 618 03c4 23341102 		sd	ra,40(sp)
 619 03c8 23308102 		sd	s0,32(sp)
 620 03cc 233C9100 		sd	s1,24(sp)
 621 03d0 23382101 		sd	s2,16(sp)
 622 03d4 23343101 		sd	s3,8(sp)
 623              		.cfi_offset 1, -8
 624              		.cfi_offset 8, -16
 625              		.cfi_offset 9, -24
 626              		.cfi_offset 18, -32
 627              		.cfi_offset 19, -40
 628 03d8 13040103 		addi	s0,sp,48
 629              		.cfi_def_cfa 8, 0
 630 03dc 93090500 		mv	s3,a0
 631 03e0 13890500 		mv	s2,a1
 276:src/kernel/mmanagement/object_cache.cpp ****     kprintString("\n--------OBJCACHE ");kprintString(name); kprintString("--------\n");
 632              		.loc 1 276 5
 633              		.loc 1 276 17 is_stmt 0
 634 03e4 17050000 		lla	a0,.LC0
 634      13050500 
 635              	.LVL73:
GAS LISTING /tmp/ccPRbhSD.s 			page 20


 636 03ec 97000000 		call	_Z12kprintStringPKc
 636      E7800000 
 637              	.LVL74:
 638              		.loc 1 276 41 is_stmt 1
 639              		.loc 1 276 53 is_stmt 0
 640 03f4 03B50900 		ld	a0,0(s3)
 641 03f8 97000000 		call	_Z12kprintStringPKc
 641      E7800000 
 642              	.LVL75:
 643              		.loc 1 276 61 is_stmt 1
 644              		.loc 1 276 73 is_stmt 0
 645 0400 17050000 		lla	a0,.LC1
 645      13050500 
 646 0408 97000000 		call	_Z12kprintStringPKc
 646      E7800000 
 647              	.LVL76:
 277:src/kernel/mmanagement/object_cache.cpp ****    
 278:src/kernel/mmanagement/object_cache.cpp ****      
 279:src/kernel/mmanagement/object_cache.cpp ****     KCHECKPRINT(objsize);
 648              		.loc 1 279 5 is_stmt 1
 649 0410 17050000 		lla	a0,.LC2
 649      13050500 
 650 0418 97000000 		call	_Z12kprintStringPKc
 650      E7800000 
 651              	.LVL77:
 652              		.loc 1 279 5
 653 0420 13060000 		li	a2,0
 654 0424 93050001 		li	a1,16
 655 0428 03B50901 		ld	a0,16(s3)
 656 042c 97000000 		call	_Z9kprintIntmib
 656      E7800000 
 657              	.LVL78:
 658              		.loc 1 279 5
 659 0434 17050000 		lla	a0,.LC3
 659      13050500 
 660 043c 97000000 		call	_Z12kprintStringPKc
 660      E7800000 
 661              	.LVL79:
 280:src/kernel/mmanagement/object_cache.cpp ****     KVALCHECKPRINT(SLAB SIZE, get_slab_size());
 662              		.loc 1 280 5
 663 0444 17050000 		lla	a0,.LC4
 663      13050500 
 664 044c 97000000 		call	_Z12kprintStringPKc
 664      E7800000 
 665              	.LVL80:
 666              		.loc 1 280 5
 667 0454 93050000 		li	a1,0
 668 0458 13850900 		mv	a0,s3
 669 045c 97000000 		call	_ZN11ObjectCache13get_slab_sizeEPh
 669      E7800000 
 670              	.LVL81:
 671 0464 13060000 		li	a2,0
 672 0468 93050001 		li	a1,16
 673 046c 97000000 		call	_Z9kprintIntmib
 673      E7800000 
 674              	.LVL82:
 675              		.loc 1 280 5
GAS LISTING /tmp/ccPRbhSD.s 			page 21


 676 0474 17050000 		lla	a0,.LC3
 676      13050500 
 677 047c 97000000 		call	_Z12kprintStringPKc
 677      E7800000 
 678              	.LVL83:
 281:src/kernel/mmanagement/object_cache.cpp ****     kprintString("SLAB TYPE: ");
 679              		.loc 1 281 5
 680              		.loc 1 281 17 is_stmt 0
 681 0484 17050000 		lla	a0,.LC5
 681      13050500 
 682 048c 97000000 		call	_Z12kprintStringPKc
 682      E7800000 
 683              	.LVL84:
 282:src/kernel/mmanagement/object_cache.cpp ****     switch (type) {
 684              		.loc 1 282 5 is_stmt 1
 685              		.loc 1 282 13 is_stmt 0
 686 0494 83A78901 		lw	a5,24(s3)
 687              		.loc 1 282 5
 688 0498 13074000 		li	a4,4
 689 049c 6368F702 		bgtu	a5,a4,.L45
 690 04a0 93972700 		slli	a5,a5,2
 691 04a4 17070000 		lla	a4,.L47
 691      13070700 
 692 04ac B387E700 		add	a5,a5,a4
 693 04b0 83A70700 		lw	a5,0(a5)
 694 04b4 B387E700 		add	a5,a5,a4
 695 04b8 67800700 		jr	a5
 696              		.section	.rodata
 697              		.align	2
 698              		.align	2
 699              	.L47:
 700 0000 00000000 		.word	.L51-.L47
 701 0004 00000000 		.word	.L50-.L47
 702 0008 00000000 		.word	.L49-.L47
 703 000c 00000000 		.word	.L48-.L47
 704 0010 00000000 		.word	.L46-.L47
 705              		.text
 706              	.L51:
 283:src/kernel/mmanagement/object_cache.cpp ****         case NONE : kprintString("NONE\n");
 707              		.loc 1 283 9 is_stmt 1
 708              		.loc 1 283 21
 709              		.loc 1 283 33 is_stmt 0
 710 04bc 17050000 		lla	a0,.LC6
 710      13050500 
 711 04c4 97000000 		call	_Z12kprintStringPKc
 711      E7800000 
 712              	.LVL85:
 284:src/kernel/mmanagement/object_cache.cpp ****         break;
 713              		.loc 1 284 9 is_stmt 1
 714              	.L45:
 285:src/kernel/mmanagement/object_cache.cpp ****         case OFF_SLAB : kprintString("OFF_SLAB\n");
 286:src/kernel/mmanagement/object_cache.cpp ****         break;
 287:src/kernel/mmanagement/object_cache.cpp ****         case SLAB_SLAB : kprintString("SLAB_SLAB\n");
 288:src/kernel/mmanagement/object_cache.cpp ****         break;
 289:src/kernel/mmanagement/object_cache.cpp ****         case ON_SLAB: kprintString("ON_SLAB\n");
 290:src/kernel/mmanagement/object_cache.cpp ****         break;
 291:src/kernel/mmanagement/object_cache.cpp ****         case BUFF_SLAB: kprintString("BUFF_SLAB\n");
GAS LISTING /tmp/ccPRbhSD.s 			page 22


 292:src/kernel/mmanagement/object_cache.cpp ****         break;
 293:src/kernel/mmanagement/object_cache.cpp ****     }
 294:src/kernel/mmanagement/object_cache.cpp ****     kprintString("!!!!!!FREE SLAB LIST!!!!!! \n");
 715              		.loc 1 294 5
 716              		.loc 1 294 17 is_stmt 0
 717 04cc 17050000 		lla	a0,.LC11
 717      13050500 
 718 04d4 97000000 		call	_Z12kprintStringPKc
 718      E7800000 
 719              	.LVL86:
 295:src/kernel/mmanagement/object_cache.cpp ****     list_t* tmp = free_head;
 720              		.loc 1 295 5 is_stmt 1
 721              		.loc 1 295 13 is_stmt 0
 722 04dc 83B40902 		ld	s1,32(s3)
 723              	.LVL87:
 724              	.L53:
 296:src/kernel/mmanagement/object_cache.cpp ****     while(tmp){
 725              		.loc 1 296 5 is_stmt 1
 726              		.loc 1 296 11 is_stmt 0
 727 04e0 638E0406 		beq	s1,zero,.L52
 728              	.LBB18:
 297:src/kernel/mmanagement/object_cache.cpp ****         Slab* tmp_slab = get_list_parent(tmp, Slab, node);
 729              		.loc 1 297 9 is_stmt 1
 730              	.LVL88:
 298:src/kernel/mmanagement/object_cache.cpp ****         tmp_slab->print_info(flags);
 731              		.loc 1 298 9
 732              		.loc 1 298 29 is_stmt 0
 733 04e4 93050900 		mv	a1,s2
 734 04e8 138584F5 		addi	a0,s1,-168
 735              	.LVL89:
 736 04ec 97000000 		call	_ZN4Slab10print_infoEc
 736      E7800000 
 737              	.LVL90:
 299:src/kernel/mmanagement/object_cache.cpp ****         kprintString("\n");
 738              		.loc 1 299 9 is_stmt 1
 739              		.loc 1 299 21 is_stmt 0
 740 04f4 17050000 		lla	a0,.LC3
 740      13050500 
 741 04fc 97000000 		call	_Z12kprintStringPKc
 741      E7800000 
 742              	.LVL91:
 300:src/kernel/mmanagement/object_cache.cpp ****         tmp = tmp->next;
 743              		.loc 1 300 9 is_stmt 1
 744              		.loc 1 300 13 is_stmt 0
 745 0504 83B40400 		ld	s1,0(s1)
 746              	.LVL92:
 747              	.LBE18:
 296:src/kernel/mmanagement/object_cache.cpp ****         Slab* tmp_slab = get_list_parent(tmp, Slab, node);
 748              		.loc 1 296 5
 749 0508 6FF09FFD 		j	.L53
 750              	.LVL93:
 751              	.L50:
 285:src/kernel/mmanagement/object_cache.cpp ****         break;
 752              		.loc 1 285 9 is_stmt 1
 285:src/kernel/mmanagement/object_cache.cpp ****         break;
 753              		.loc 1 285 25
 285:src/kernel/mmanagement/object_cache.cpp ****         break;
GAS LISTING /tmp/ccPRbhSD.s 			page 23


 754              		.loc 1 285 37 is_stmt 0
 755 050c 17050000 		lla	a0,.LC7
 755      13050500 
 756 0514 97000000 		call	_Z12kprintStringPKc
 756      E7800000 
 757              	.LVL94:
 286:src/kernel/mmanagement/object_cache.cpp ****         case SLAB_SLAB : kprintString("SLAB_SLAB\n");
 758              		.loc 1 286 9 is_stmt 1
 759 051c 6FF01FFB 		j	.L45
 760              	.L49:
 287:src/kernel/mmanagement/object_cache.cpp ****         break;
 761              		.loc 1 287 9
 287:src/kernel/mmanagement/object_cache.cpp ****         break;
 762              		.loc 1 287 26
 287:src/kernel/mmanagement/object_cache.cpp ****         break;
 763              		.loc 1 287 38 is_stmt 0
 764 0520 17050000 		lla	a0,.LC8
 764      13050500 
 765 0528 97000000 		call	_Z12kprintStringPKc
 765      E7800000 
 766              	.LVL95:
 288:src/kernel/mmanagement/object_cache.cpp ****         case ON_SLAB: kprintString("ON_SLAB\n");
 767              		.loc 1 288 9 is_stmt 1
 768 0530 6FF0DFF9 		j	.L45
 769              	.L48:
 289:src/kernel/mmanagement/object_cache.cpp ****         break;
 770              		.loc 1 289 9
 289:src/kernel/mmanagement/object_cache.cpp ****         break;
 771              		.loc 1 289 23
 289:src/kernel/mmanagement/object_cache.cpp ****         break;
 772              		.loc 1 289 35 is_stmt 0
 773 0534 17050000 		lla	a0,.LC9
 773      13050500 
 774 053c 97000000 		call	_Z12kprintStringPKc
 774      E7800000 
 775              	.LVL96:
 290:src/kernel/mmanagement/object_cache.cpp ****         case BUFF_SLAB: kprintString("BUFF_SLAB\n");
 776              		.loc 1 290 9 is_stmt 1
 777 0544 6FF09FF8 		j	.L45
 778              	.L46:
 291:src/kernel/mmanagement/object_cache.cpp ****         break;
 779              		.loc 1 291 9
 291:src/kernel/mmanagement/object_cache.cpp ****         break;
 780              		.loc 1 291 25
 291:src/kernel/mmanagement/object_cache.cpp ****         break;
 781              		.loc 1 291 37 is_stmt 0
 782 0548 17050000 		lla	a0,.LC10
 782      13050500 
 783 0550 97000000 		call	_Z12kprintStringPKc
 783      E7800000 
 784              	.LVL97:
 292:src/kernel/mmanagement/object_cache.cpp ****     }
 785              		.loc 1 292 9 is_stmt 1
 786 0558 6FF05FF7 		j	.L45
 787              	.LVL98:
 788              	.L52:
 301:src/kernel/mmanagement/object_cache.cpp ****     }
GAS LISTING /tmp/ccPRbhSD.s 			page 24


 302:src/kernel/mmanagement/object_cache.cpp ****     kprintString("!!!!!!PARTIAL SLAB LIST!!!!!! \n");
 789              		.loc 1 302 5
 790              		.loc 1 302 17 is_stmt 0
 791 055c 17050000 		lla	a0,.LC12
 791      13050500 
 792 0564 97000000 		call	_Z12kprintStringPKc
 792      E7800000 
 793              	.LVL99:
 303:src/kernel/mmanagement/object_cache.cpp ****     tmp = part_head;
 794              		.loc 1 303 5 is_stmt 1
 795              		.loc 1 303 9 is_stmt 0
 796 056c 83B48902 		ld	s1,40(s3)
 797              	.LVL100:
 798              	.L55:
 304:src/kernel/mmanagement/object_cache.cpp ****     while(tmp){
 799              		.loc 1 304 5 is_stmt 1
 800              		.loc 1 304 11 is_stmt 0
 801 0570 63860402 		beq	s1,zero,.L54
 802              	.LBB19:
 305:src/kernel/mmanagement/object_cache.cpp ****         Slab* tmp_slab = get_list_parent(tmp, Slab, node);
 803              		.loc 1 305 9 is_stmt 1
 804              	.LVL101:
 306:src/kernel/mmanagement/object_cache.cpp ****         tmp_slab->print_info(flags);
 805              		.loc 1 306 9
 806              		.loc 1 306 29 is_stmt 0
 807 0574 93050900 		mv	a1,s2
 808 0578 138584F5 		addi	a0,s1,-168
 809              	.LVL102:
 810 057c 97000000 		call	_ZN4Slab10print_infoEc
 810      E7800000 
 811              	.LVL103:
 307:src/kernel/mmanagement/object_cache.cpp ****         kprintString("\n");
 812              		.loc 1 307 9 is_stmt 1
 813              		.loc 1 307 21 is_stmt 0
 814 0584 17050000 		lla	a0,.LC3
 814      13050500 
 815 058c 97000000 		call	_Z12kprintStringPKc
 815      E7800000 
 816              	.LVL104:
 308:src/kernel/mmanagement/object_cache.cpp ****         tmp = tmp->next;
 817              		.loc 1 308 9 is_stmt 1
 818              		.loc 1 308 13 is_stmt 0
 819 0594 83B40400 		ld	s1,0(s1)
 820              	.LVL105:
 821              	.LBE19:
 304:src/kernel/mmanagement/object_cache.cpp ****         Slab* tmp_slab = get_list_parent(tmp, Slab, node);
 822              		.loc 1 304 5
 823 0598 6FF09FFD 		j	.L55
 824              	.L54:
 309:src/kernel/mmanagement/object_cache.cpp ****     }
 310:src/kernel/mmanagement/object_cache.cpp ****     kprintString("!!!!!!FULL SLAB LIST!!!!!!\n");
 825              		.loc 1 310 5 is_stmt 1
 826              		.loc 1 310 17 is_stmt 0
 827 059c 17050000 		lla	a0,.LC13
 827      13050500 
 828 05a4 97000000 		call	_Z12kprintStringPKc
 828      E7800000 
GAS LISTING /tmp/ccPRbhSD.s 			page 25


 829              	.LVL106:
 311:src/kernel/mmanagement/object_cache.cpp ****     tmp = full_head;
 830              		.loc 1 311 5 is_stmt 1
 831              		.loc 1 311 9 is_stmt 0
 832 05ac 83B40903 		ld	s1,48(s3)
 833              	.LVL107:
 834              	.L57:
 312:src/kernel/mmanagement/object_cache.cpp ****     while(tmp){
 835              		.loc 1 312 5 is_stmt 1
 836              		.loc 1 312 11 is_stmt 0
 837 05b0 63860402 		beq	s1,zero,.L56
 838              	.LBB20:
 313:src/kernel/mmanagement/object_cache.cpp ****         Slab* tmp_slab = get_list_parent(tmp, Slab, node);
 839              		.loc 1 313 9 is_stmt 1
 840              	.LVL108:
 314:src/kernel/mmanagement/object_cache.cpp ****         tmp_slab->print_info(flags);
 841              		.loc 1 314 9
 842              		.loc 1 314 29 is_stmt 0
 843 05b4 93050900 		mv	a1,s2
 844 05b8 138584F5 		addi	a0,s1,-168
 845              	.LVL109:
 846 05bc 97000000 		call	_ZN4Slab10print_infoEc
 846      E7800000 
 847              	.LVL110:
 315:src/kernel/mmanagement/object_cache.cpp ****         kprintString("\n");
 848              		.loc 1 315 9 is_stmt 1
 849              		.loc 1 315 21 is_stmt 0
 850 05c4 17050000 		lla	a0,.LC3
 850      13050500 
 851 05cc 97000000 		call	_Z12kprintStringPKc
 851      E7800000 
 852              	.LVL111:
 316:src/kernel/mmanagement/object_cache.cpp ****         tmp = tmp->next;
 853              		.loc 1 316 9 is_stmt 1
 854              		.loc 1 316 13 is_stmt 0
 855 05d4 83B40400 		ld	s1,0(s1)
 856              	.LVL112:
 857              	.LBE20:
 312:src/kernel/mmanagement/object_cache.cpp ****         Slab* tmp_slab = get_list_parent(tmp, Slab, node);
 858              		.loc 1 312 5
 859 05d8 6FF09FFD 		j	.L57
 860              	.L56:
 317:src/kernel/mmanagement/object_cache.cpp ****     }
 318:src/kernel/mmanagement/object_cache.cpp ****     kprintString("------OBJCACHE ");kprintString(name); kprintString(" END------\n\n");
 861              		.loc 1 318 5 is_stmt 1
 862              		.loc 1 318 17 is_stmt 0
 863 05dc 17050000 		lla	a0,.LC14
 863      13050500 
 864 05e4 97000000 		call	_Z12kprintStringPKc
 864      E7800000 
 865              	.LVL113:
 866              		.loc 1 318 37 is_stmt 1
 867              		.loc 1 318 49 is_stmt 0
 868 05ec 03B50900 		ld	a0,0(s3)
 869 05f0 97000000 		call	_Z12kprintStringPKc
 869      E7800000 
 870              	.LVL114:
GAS LISTING /tmp/ccPRbhSD.s 			page 26


 871              		.loc 1 318 57 is_stmt 1
 872              		.loc 1 318 69 is_stmt 0
 873 05f8 17050000 		lla	a0,.LC15
 873      13050500 
 874 0600 97000000 		call	_Z12kprintStringPKc
 874      E7800000 
 875              	.LVL115:
 319:src/kernel/mmanagement/object_cache.cpp ****     
 320:src/kernel/mmanagement/object_cache.cpp **** }
 876              		.loc 1 320 1
 877 0608 83308102 		ld	ra,40(sp)
 878              		.cfi_restore 1
 879 060c 03340102 		ld	s0,32(sp)
 880              		.cfi_restore 8
 881              		.cfi_def_cfa 2, 48
 882 0610 83348101 		ld	s1,24(sp)
 883              		.cfi_restore 9
 884              	.LVL116:
 885 0614 03390101 		ld	s2,16(sp)
 886              		.cfi_restore 18
 887 0618 83398100 		ld	s3,8(sp)
 888              		.cfi_restore 19
 889              	.LVL117:
 890 061c 13010103 		addi	sp,sp,48
 891              		.cfi_def_cfa_offset 0
 892 0620 67800000 		jr	ra
 893              		.cfi_endproc
 894              	.LFE127:
 896              		.align	2
 897              		.globl	_ZN11ObjectCache8zero_outEPv
 899              	_ZN11ObjectCache8zero_outEPv:
 900              	.LFB128:
 321:src/kernel/mmanagement/object_cache.cpp **** 
 322:src/kernel/mmanagement/object_cache.cpp **** 
 323:src/kernel/mmanagement/object_cache.cpp **** 
 324:src/kernel/mmanagement/object_cache.cpp **** 
 325:src/kernel/mmanagement/object_cache.cpp **** void ObjectCache::zero_out(void* t){
 901              		.loc 1 325 36 is_stmt 1
 902              		.cfi_startproc
 903              	.LVL118:
 904 0624 130101FF 		addi	sp,sp,-16
 905              		.cfi_def_cfa_offset 16
 906 0628 23348100 		sd	s0,8(sp)
 907              		.cfi_offset 8, -8
 908 062c 13040101 		addi	s0,sp,16
 909              		.cfi_def_cfa 8, 0
 326:src/kernel/mmanagement/object_cache.cpp ****     for( char* ptr = (char*)t; ptr < (char*)t + objsize; ptr++ )
 910              		.loc 1 326 5
 911              	.LVL119:
 912              	.LBB21:
 913              		.loc 1 326 16 is_stmt 0
 914 0630 13870500 		mv	a4,a1
 915              	.LVL120:
 916              	.L61:
 917              		.loc 1 326 49 discriminator 3
 918 0634 83370501 		ld	a5,16(a0)
 919              		.loc 1 326 47 discriminator 3
GAS LISTING /tmp/ccPRbhSD.s 			page 27


 920 0638 B387F500 		add	a5,a1,a5
 921              		.loc 1 326 36 discriminator 3
 922 063c 6378F700 		bleu	a5,a4,.L59
 327:src/kernel/mmanagement/object_cache.cpp ****         *ptr = 0;
 923              		.loc 1 327 9 is_stmt 1 discriminator 2
 924              		.loc 1 327 14 is_stmt 0 discriminator 2
 925 0640 23000700 		sb	zero,0(a4)
 326:src/kernel/mmanagement/object_cache.cpp ****     for( char* ptr = (char*)t; ptr < (char*)t + objsize; ptr++ )
 926              		.loc 1 326 5 discriminator 2
 927 0644 13071700 		addi	a4,a4,1
 928              	.LVL121:
 929 0648 6FF0DFFE 		j	.L61
 930              	.L59:
 931              	.LBE21:
 328:src/kernel/mmanagement/object_cache.cpp **** 
 329:src/kernel/mmanagement/object_cache.cpp **** }...
 932              		.loc 1 329 1
 933 064c 03348100 		ld	s0,8(sp)
 934              		.cfi_restore 8
 935              		.cfi_def_cfa 2, 16
 936 0650 13010101 		addi	sp,sp,16
 937              		.cfi_def_cfa_offset 0
 938 0654 67800000 		jr	ra
 939              		.cfi_endproc
 940              	.LFE128:
 942              		.align	2
 943              		.globl	_ZN11ObjectCache10slab_allocEv
 945              	_ZN11ObjectCache10slab_allocEv:
 946              	.LFB120:
  56:src/kernel/mmanagement/object_cache.cpp **** Slab* ObjectCache::slab_alloc(){
 947              		.loc 1 56 32 is_stmt 1
 948              		.cfi_startproc
 949              	.LVL122:
 950 0658 130101EF 		addi	sp,sp,-272
 951              		.cfi_def_cfa_offset 272
 952 065c 23341110 		sd	ra,264(sp)
 953 0660 23308110 		sd	s0,256(sp)
 954 0664 233C910E 		sd	s1,248(sp)
 955 0668 2338210F 		sd	s2,240(sp)
 956 066c 2334310F 		sd	s3,232(sp)
 957 0670 2330410F 		sd	s4,224(sp)
 958 0674 233C510D 		sd	s5,216(sp)
 959 0678 2338610D 		sd	s6,208(sp)
 960 067c 2334710D 		sd	s7,200(sp)
 961              		.cfi_offset 1, -8
 962              		.cfi_offset 8, -16
 963              		.cfi_offset 9, -24
 964              		.cfi_offset 18, -32
 965              		.cfi_offset 19, -40
 966              		.cfi_offset 20, -48
 967              		.cfi_offset 21, -56
 968              		.cfi_offset 22, -64
 969              		.cfi_offset 23, -72
 970 0680 13040111 		addi	s0,sp,272
 971              		.cfi_def_cfa 8, 0
 972 0684 13090500 		mv	s2,a0
  57:src/kernel/mmanagement/object_cache.cpp ****     uchar obj_num, buddy_level; 
GAS LISTING /tmp/ccPRbhSD.s 			page 28


 973              		.loc 1 57 5
  58:src/kernel/mmanagement/object_cache.cpp ****     char* tmp_addr,*start;
 974              		.loc 1 58 5
  59:src/kernel/mmanagement/object_cache.cpp ****     size_t slab_size = get_slab_size(&buddy_level);
 975              		.loc 1 59 5
  59:src/kernel/mmanagement/object_cache.cpp ****     size_t slab_size = get_slab_size(&buddy_level);
 976              		.loc 1 59 37 is_stmt 0
 977 0688 9305F4FA 		addi	a1,s0,-81
 978 068c 97000000 		call	_ZN11ObjectCache13get_slab_sizeEPh
 978      E7800000 
 979              	.LVL123:
 980 0694 130B0500 		mv	s6,a0
 981              	.LVL124:
  61:src/kernel/mmanagement/object_cache.cpp ****     Slab* slab_meta;
 982              		.loc 1 61 5 is_stmt 1
  62:src/kernel/mmanagement/object_cache.cpp ****     obj_num = slab_size/objsize - 1;
 983              		.loc 1 62 5
  62:src/kernel/mmanagement/object_cache.cpp ****     obj_num = slab_size/objsize - 1;
 984              		.loc 1 62 25 is_stmt 0
 985 0698 833A0901 		ld	s5,16(s2)
  62:src/kernel/mmanagement/object_cache.cpp ****     obj_num = slab_size/objsize - 1;
 986              		.loc 1 62 24
 987 069c B35A5503 		divu	s5,a0,s5
  62:src/kernel/mmanagement/object_cache.cpp ****     obj_num = slab_size/objsize - 1;
 988              		.loc 1 62 33
 989 06a0 93FAFA0F 		andi	s5,s5,0xff
  62:src/kernel/mmanagement/object_cache.cpp ****     obj_num = slab_size/objsize - 1;
 990              		.loc 1 62 13
 991 06a4 9B87FAFF 		addiw	a5,s5,-1
 992 06a8 93FBF70F 		andi	s7,a5,0xff
 993              	.LVL125:
  65:src/kernel/mmanagement/object_cache.cpp ****     start = (char*)Buddy::getInstance().mem_alloc(buddy_level);
 994              		.loc 1 65 5 is_stmt 1
  65:src/kernel/mmanagement/object_cache.cpp ****     start = (char*)Buddy::getInstance().mem_alloc(buddy_level);
 995              		.loc 1 65 39 is_stmt 0
 996 06ac 97000000 		call	_ZN5Buddy11getInstanceEv
 996      E7800000 
 997              	.LVL126:
  65:src/kernel/mmanagement/object_cache.cpp ****     start = (char*)Buddy::getInstance().mem_alloc(buddy_level);
 998              		.loc 1 65 50
 999 06b4 8345F4FA 		lbu	a1,-81(s0)
 1000 06b8 97000000 		call	_ZN5Buddy9mem_allocEh
 1000      E7800000 
 1001              	.LVL127:
 1002 06c0 93090500 		mv	s3,a0
 1003              	.LVL128:
  67:src/kernel/mmanagement/object_cache.cpp ****     if(!start){
 1004              		.loc 1 67 5 is_stmt 1
 1005 06c4 6302050E 		beq	a0,zero,.L80
  73:src/kernel/mmanagement/object_cache.cpp ****     Slab** slab_meta_addr_ptr = (Slab**)start;
 1006              		.loc 1 73 5
 1007              	.LVL129:
  74:src/kernel/mmanagement/object_cache.cpp ****     tmp_addr = start + sizeof(Slab*);
 1008              		.loc 1 74 5
  74:src/kernel/mmanagement/object_cache.cpp ****     tmp_addr = start + sizeof(Slab*);
 1009              		.loc 1 74 14 is_stmt 0
 1010 06c8 93048500 		addi	s1,a0,8
GAS LISTING /tmp/ccPRbhSD.s 			page 29


 1011              	.LVL130:
  77:src/kernel/mmanagement/object_cache.cpp ****     ObjectCache* slab_cache_ptr = 
 1012              		.loc 1 77 5 is_stmt 1
  78:src/kernel/mmanagement/object_cache.cpp ****         &SlabAllocator::getInstance().slab_cache;
 1013              		.loc 1 78 37 is_stmt 0
 1014 06cc 97000000 		call	_ZN13SlabAllocator11getInstanceEv
 1014      E7800000 
 1015              	.LVL131:
  78:src/kernel/mmanagement/object_cache.cpp ****         &SlabAllocator::getInstance().slab_cache;
 1016              		.loc 1 78 39
 1017 06d4 13058505 		addi	a0,a0,88
 1018              	.LVL132:
  81:src/kernel/mmanagement/object_cache.cpp ****     switch(type){
 1019              		.loc 1 81 5 is_stmt 1
  81:src/kernel/mmanagement/object_cache.cpp ****     switch(type){
 1020              		.loc 1 81 12 is_stmt 0
 1021 06d8 83278901 		lw	a5,24(s2)
  81:src/kernel/mmanagement/object_cache.cpp ****     switch(type){
 1022              		.loc 1 81 5
 1023 06dc 13072000 		li	a4,2
 1024 06e0 6380E712 		beq	a5,a4,.L66
 1025 06e4 637CF70C 		bleu	a5,a4,.L81
 1026 06e8 13073000 		li	a4,3
 1027 06ec 6382E712 		beq	a5,a4,.L69
 1028 06f0 13074000 		li	a4,4
 1029 06f4 6398E716 		bne	a5,a4,.L78
  87:src/kernel/mmanagement/object_cache.cpp ****             tmp_addr = start;
 1030              		.loc 1 87 22
 1031 06f8 93840900 		mv	s1,s3
 1032              	.LVL133:
 1033              	.L68:
  92:src/kernel/mmanagement/object_cache.cpp ****         case OFF_SLAB: 
 1034              		.loc 1 92 9 is_stmt 1
  93:src/kernel/mmanagement/object_cache.cpp ****             slab_meta = (Slab*)slab_cache_ptr->alloc_obj();
 1035              		.loc 1 93 13
  93:src/kernel/mmanagement/object_cache.cpp ****             slab_meta = (Slab*)slab_cache_ptr->alloc_obj();
 1036              		.loc 1 93 57 is_stmt 0
 1037 06fc 97000000 		call	_ZN11ObjectCache9alloc_objEv
 1037      E7800000 
 1038              	.LVL134:
 1039 0704 130A0500 		mv	s4,a0
 1040              	.LVL135:
 1041              	.L70:
 113:src/kernel/mmanagement/object_cache.cpp ****     if(type == SLAB_SLAB){ obj_num -= 1; }
 1042              		.loc 1 113 5 is_stmt 1
 113:src/kernel/mmanagement/object_cache.cpp ****     if(type == SLAB_SLAB){ obj_num -= 1; }
 1043              		.loc 1 113 8 is_stmt 0
 1044 0708 03278901 		lw	a4,24(s2)
 113:src/kernel/mmanagement/object_cache.cpp ****     if(type == SLAB_SLAB){ obj_num -= 1; }
 1045              		.loc 1 113 5
 1046 070c 93072000 		li	a5,2
 1047 0710 6308F710 		beq	a4,a5,.L82
 1048              	.L71:
 115:src/kernel/mmanagement/object_cache.cpp ****     *slab_meta = Slab(obj_num
 1049              		.loc 1 115 5 is_stmt 1
 115:src/kernel/mmanagement/object_cache.cpp ****     *slab_meta = Slab(obj_num
 1050              		.loc 1 115 18 is_stmt 0
GAS LISTING /tmp/ccPRbhSD.s 			page 30


 1051 0714 93060900 		mv	a3,s2
 1052 0718 13860400 		mv	a2,s1
 1053 071c 93850A00 		mv	a1,s5
 1054 0720 130504EF 		addi	a0,s0,-272
 1055 0724 97000000 		call	_ZN4SlabC1EhPvP11ObjectCache
 1055      E7800000 
 1056              	.LVL136:
 115:src/kernel/mmanagement/object_cache.cpp ****     *slab_meta = Slab(obj_num
 1057              		.loc 1 115 16
 1058 072c 930704EF 		addi	a5,s0,-272
 1059 0730 13070A00 		mv	a4,s4
 1060 0734 130804F9 		addi	a6,s0,-112
 1061              	.L72:
 1062 0738 03B50700 		ld	a0,0(a5)
 1063 073c 83B58700 		ld	a1,8(a5)
 1064 0740 03B60701 		ld	a2,16(a5)
 1065 0744 83B68701 		ld	a3,24(a5)
 1066 0748 2330A700 		sd	a0,0(a4)
 1067 074c 2334B700 		sd	a1,8(a4)
 1068 0750 2338C700 		sd	a2,16(a4)
 1069 0754 233CD700 		sd	a3,24(a4)
 1070 0758 93870702 		addi	a5,a5,32
 1071 075c 13070702 		addi	a4,a4,32
 1072 0760 E39C07FD 		bne	a5,a6,.L72
 1073 0764 03B60700 		ld	a2,0(a5)
 1074 0768 83B68700 		ld	a3,8(a5)
 1075 076c 83B70701 		ld	a5,16(a5)
 1076 0770 2330C700 		sd	a2,0(a4)
 1077 0774 2334D700 		sd	a3,8(a4)
 1078 0778 2338F700 		sd	a5,16(a4)
 119:src/kernel/mmanagement/object_cache.cpp ****     if(type != BUFF_SLAB) { *slab_meta_addr_ptr = slab_meta; }
 1079              		.loc 1 119 5 is_stmt 1
 119:src/kernel/mmanagement/object_cache.cpp ****     if(type != BUFF_SLAB) { *slab_meta_addr_ptr = slab_meta; }
 1080              		.loc 1 119 8 is_stmt 0
 1081 077c 03278901 		lw	a4,24(s2)
 119:src/kernel/mmanagement/object_cache.cpp ****     if(type != BUFF_SLAB) { *slab_meta_addr_ptr = slab_meta; }
 1082              		.loc 1 119 5
 1083 0780 93074000 		li	a5,4
 1084 0784 6304F700 		beq	a4,a5,.L73
 119:src/kernel/mmanagement/object_cache.cpp ****     if(type != BUFF_SLAB) { *slab_meta_addr_ptr = slab_meta; }
 1085              		.loc 1 119 29 is_stmt 1 discriminator 1
 119:src/kernel/mmanagement/object_cache.cpp ****     if(type != BUFF_SLAB) { *slab_meta_addr_ptr = slab_meta; }
 1086              		.loc 1 119 49 is_stmt 0 discriminator 1
 1087 0788 23B04901 		sd	s4,0(s3)
 1088              	.L73:
 121:src/kernel/mmanagement/object_cache.cpp ****     free_head = insert(&slab_meta->node, free_head);
 1089              		.loc 1 121 5 is_stmt 1
 121:src/kernel/mmanagement/object_cache.cpp ****     free_head = insert(&slab_meta->node, free_head);
 1090              		.loc 1 121 23 is_stmt 0
 1091 078c 83350902 		ld	a1,32(s2)
 1092 0790 13058A0A 		addi	a0,s4,168
 1093 0794 97000000 		call	_Z6insertP6list_tS0_
 1093      E7800000 
 1094              	.LVL137:
 121:src/kernel/mmanagement/object_cache.cpp ****     free_head = insert(&slab_meta->node, free_head);
 1095              		.loc 1 121 15
 1096 079c 2330A902 		sd	a0,32(s2)
GAS LISTING /tmp/ccPRbhSD.s 			page 31


 124:src/kernel/mmanagement/object_cache.cpp ****     char* end = start + slab_size;
 1097              		.loc 1 124 5 is_stmt 1
 124:src/kernel/mmanagement/object_cache.cpp ****     char* end = start + slab_size;
 1098              		.loc 1 124 11 is_stmt 0
 1099 07a0 B3896901 		add	s3,s3,s6
 1100              	.LVL138:
 1101 07a4 6F00000A 		j	.L76
 1102              	.LVL139:
 1103              	.L80:
  68:src/kernel/mmanagement/object_cache.cpp ****         error = "Not enough memory left";
 1104              		.loc 1 68 9 is_stmt 1
  68:src/kernel/mmanagement/object_cache.cpp ****         error = "Not enough memory left";
 1105              		.loc 1 68 15 is_stmt 0
 1106 07a8 97070000 		lla	a5,.LC16
 1106      93870700 
 1107 07b0 2334F900 		sd	a5,8(s2)
  69:src/kernel/mmanagement/object_cache.cpp ****         return nullptr;
 1108              		.loc 1 69 9 is_stmt 1
  69:src/kernel/mmanagement/object_cache.cpp ****         return nullptr;
 1109              		.loc 1 69 16 is_stmt 0
 1110 07b4 130A0500 		mv	s4,a0
 1111 07b8 6F008001 		j	.L63
 1112              	.LVL140:
 1113              	.L81:
  81:src/kernel/mmanagement/object_cache.cpp ****     switch(type){
 1114              		.loc 1 81 5
 1115 07bc 13071000 		li	a4,1
 1116 07c0 6396E700 		bne	a5,a4,.L83
  62:src/kernel/mmanagement/object_cache.cpp ****     obj_num = slab_size/objsize - 1;
 1117              		.loc 1 62 13
 1118 07c4 938A0B00 		mv	s5,s7
 1119 07c8 6FF05FF3 		j	.L68
 1120              	.L83:
 111:src/kernel/mmanagement/object_cache.cpp ****         case NONE: default: return nullptr;
 1121              		.loc 1 111 36
 1122 07cc 130A0000 		li	s4,0
 1123              	.LVL141:
 1124              	.L63:
 133:src/kernel/mmanagement/object_cache.cpp **** }
 1125              		.loc 1 133 1
 1126 07d0 13050A00 		mv	a0,s4
 1127 07d4 83308110 		ld	ra,264(sp)
 1128              		.cfi_remember_state
 1129              		.cfi_restore 1
 1130 07d8 03340110 		ld	s0,256(sp)
 1131              		.cfi_restore 8
 1132              		.cfi_def_cfa 2, 272
 1133 07dc 8334810F 		ld	s1,248(sp)
 1134              		.cfi_restore 9
 1135 07e0 0339010F 		ld	s2,240(sp)
 1136              		.cfi_restore 18
 1137              	.LVL142:
 1138 07e4 8339810E 		ld	s3,232(sp)
 1139              		.cfi_restore 19
 1140 07e8 033A010E 		ld	s4,224(sp)
 1141              		.cfi_restore 20
 1142 07ec 833A810D 		ld	s5,216(sp)
GAS LISTING /tmp/ccPRbhSD.s 			page 32


 1143              		.cfi_restore 21
 1144 07f0 033B010D 		ld	s6,208(sp)
 1145              		.cfi_restore 22
 1146              	.LVL143:
 1147 07f4 833B810C 		ld	s7,200(sp)
 1148              		.cfi_restore 23
 1149 07f8 13010111 		addi	sp,sp,272
 1150              		.cfi_def_cfa_offset 0
 1151 07fc 67800000 		jr	ra
 1152              	.LVL144:
 1153              	.L66:
 1154              		.cfi_restore_state
  99:src/kernel/mmanagement/object_cache.cpp ****         case SLAB_SLAB:
 1155              		.loc 1 99 9 is_stmt 1
 100:src/kernel/mmanagement/object_cache.cpp ****             slab_meta = (Slab*)tmp_addr;
 1156              		.loc 1 100 13
 101:src/kernel/mmanagement/object_cache.cpp ****             tmp_addr += sizeof(Slab);
 1157              		.loc 1 101 13
 102:src/kernel/mmanagement/object_cache.cpp ****             break;
 1158              		.loc 1 102 13
 100:src/kernel/mmanagement/object_cache.cpp ****             slab_meta = (Slab*)tmp_addr;
 1159              		.loc 1 100 23 is_stmt 0
 1160 0800 138A0400 		mv	s4,s1
 101:src/kernel/mmanagement/object_cache.cpp ****             tmp_addr += sizeof(Slab);
 1161              		.loc 1 101 22
 1162 0804 9384090C 		addi	s1,s3,192
 1163              	.LVL145:
  62:src/kernel/mmanagement/object_cache.cpp ****     obj_num = slab_size/objsize - 1;
 1164              		.loc 1 62 13
 1165 0808 938A0B00 		mv	s5,s7
 102:src/kernel/mmanagement/object_cache.cpp ****             break;
 1166              		.loc 1 102 13
 1167 080c 6FF0DFEF 		j	.L70
 1168              	.LVL146:
 1169              	.L69:
 107:src/kernel/mmanagement/object_cache.cpp ****         case ON_SLAB:
 1170              		.loc 1 107 9 is_stmt 1
 108:src/kernel/mmanagement/object_cache.cpp ****             slab_meta = (Slab*)(start + slab_size - sizeof(Slab));
 1171              		.loc 1 108 13
 108:src/kernel/mmanagement/object_cache.cpp ****             slab_meta = (Slab*)(start + slab_size - sizeof(Slab));
 1172              		.loc 1 108 51 is_stmt 0
 1173 0810 130A8BF4 		addi	s4,s6,-184
 108:src/kernel/mmanagement/object_cache.cpp ****             slab_meta = (Slab*)(start + slab_size - sizeof(Slab));
 1174              		.loc 1 108 23
 1175 0814 338A4901 		add	s4,s3,s4
 1176              	.LVL147:
 109:src/kernel/mmanagement/object_cache.cpp ****             break;
 1177              		.loc 1 109 13 is_stmt 1
  62:src/kernel/mmanagement/object_cache.cpp ****     obj_num = slab_size/objsize - 1;
 1178              		.loc 1 62 13 is_stmt 0
 1179 0818 938A0B00 		mv	s5,s7
 109:src/kernel/mmanagement/object_cache.cpp ****             break;
 1180              		.loc 1 109 13
 1181 081c 6FF0DFEE 		j	.L70
 1182              	.LVL148:
 1183              	.L82:
 113:src/kernel/mmanagement/object_cache.cpp ****     if(type == SLAB_SLAB){ obj_num -= 1; }
GAS LISTING /tmp/ccPRbhSD.s 			page 33


 1184              		.loc 1 113 28 is_stmt 1 discriminator 1
 113:src/kernel/mmanagement/object_cache.cpp ****     if(type == SLAB_SLAB){ obj_num -= 1; }
 1185              		.loc 1 113 36 is_stmt 0 discriminator 1
 1186 0820 9B8AFAFF 		addiw	s5,s5,-1
 1187              	.LVL149:
 1188 0824 93FAFA0F 		andi	s5,s5,0xff
 1189              	.LVL150:
 1190 0828 6FF0DFEE 		j	.L71
 1191              	.LVL151:
 1192              	.L74:
 129:src/kernel/mmanagement/object_cache.cpp ****             zero_out(tmp_addr);
 1193              		.loc 1 129 13 is_stmt 1
 129:src/kernel/mmanagement/object_cache.cpp ****             zero_out(tmp_addr);
 1194              		.loc 1 129 21 is_stmt 0
 1195 082c 93850400 		mv	a1,s1
 1196 0830 13050900 		mv	a0,s2
 1197 0834 97000000 		call	_ZN11ObjectCache8zero_outEPv
 1197      E7800000 
 1198              	.LVL152:
 1199              	.L75:
 125:src/kernel/mmanagement/object_cache.cpp ****     for(; tmp_addr + objsize <= end; tmp_addr += objsize){
 1200              		.loc 1 125 50
 1201 083c 83370901 		ld	a5,16(s2)
 125:src/kernel/mmanagement/object_cache.cpp ****     for(; tmp_addr + objsize <= end; tmp_addr += objsize){
 1202              		.loc 1 125 47
 1203 0840 B384F400 		add	s1,s1,a5
 1204              	.LVL153:
 1205              	.L76:
 125:src/kernel/mmanagement/object_cache.cpp ****     for(; tmp_addr + objsize <= end; tmp_addr += objsize){
 1206              		.loc 1 125 5 is_stmt 1 discriminator 1
 125:src/kernel/mmanagement/object_cache.cpp ****     for(; tmp_addr + objsize <= end; tmp_addr += objsize){
 1207              		.loc 1 125 22 is_stmt 0 discriminator 1
 1208 0844 83370901 		ld	a5,16(s2)
 125:src/kernel/mmanagement/object_cache.cpp ****     for(; tmp_addr + objsize <= end; tmp_addr += objsize){
 1209              		.loc 1 125 20 discriminator 1
 1210 0848 B387F400 		add	a5,s1,a5
 125:src/kernel/mmanagement/object_cache.cpp ****     for(; tmp_addr + objsize <= end; tmp_addr += objsize){
 1211              		.loc 1 125 30 discriminator 1
 1212 084c E3E2F9F8 		bgtu	a5,s3,.L63
 126:src/kernel/mmanagement/object_cache.cpp ****         if(ctor)
 1213              		.loc 1 126 9 is_stmt 1
 126:src/kernel/mmanagement/object_cache.cpp ****         if(ctor)
 1214              		.loc 1 126 12 is_stmt 0
 1215 0850 83378904 		ld	a5,72(s2)
 126:src/kernel/mmanagement/object_cache.cpp ****         if(ctor)
 1216              		.loc 1 126 9
 1217 0854 E38C07FC 		beq	a5,zero,.L74
 127:src/kernel/mmanagement/object_cache.cpp ****             ctor(tmp_addr);
 1218              		.loc 1 127 13 is_stmt 1
 127:src/kernel/mmanagement/object_cache.cpp ****             ctor(tmp_addr);
 1219              		.loc 1 127 17 is_stmt 0
 1220 0858 13850400 		mv	a0,s1
 1221 085c E7800700 		jalr	a5
 1222              	.LVL154:
 1223 0860 6FF0DFFD 		j	.L75
 1224              	.LVL155:
 1225              	.L78:
GAS LISTING /tmp/ccPRbhSD.s 			page 34


 111:src/kernel/mmanagement/object_cache.cpp ****         case NONE: default: return nullptr;
 1226              		.loc 1 111 36
 1227 0864 130A0000 		li	s4,0
 1228 0868 6FF09FF6 		j	.L63
 1229              		.cfi_endproc
 1230              	.LFE120:
 1232              		.align	2
 1233              		.globl	_ZN11ObjectCache9alloc_objEv
 1235              	_ZN11ObjectCache9alloc_objEv:
 1236              	.LFB122:
 153:src/kernel/mmanagement/object_cache.cpp **** void* ObjectCache::alloc_obj(){ 
 1237              		.loc 1 153 31 is_stmt 1
 1238              		.cfi_startproc
 1239              	.LVL156:
 1240 086c 130101FD 		addi	sp,sp,-48
 1241              		.cfi_def_cfa_offset 48
 1242 0870 23341102 		sd	ra,40(sp)
 1243 0874 23308102 		sd	s0,32(sp)
 1244 0878 233C9100 		sd	s1,24(sp)
 1245 087c 23382101 		sd	s2,16(sp)
 1246 0880 23343101 		sd	s3,8(sp)
 1247 0884 23304101 		sd	s4,0(sp)
 1248              		.cfi_offset 1, -8
 1249              		.cfi_offset 8, -16
 1250              		.cfi_offset 9, -24
 1251              		.cfi_offset 18, -32
 1252              		.cfi_offset 19, -40
 1253              		.cfi_offset 20, -48
 1254 0888 13040103 		addi	s0,sp,48
 1255              		.cfi_def_cfa 8, 0
 1256 088c 13090500 		mv	s2,a0
 154:src/kernel/mmanagement/object_cache.cpp ****     bool was_free = false;
 1257              		.loc 1 154 5
 1258              	.LVL157:
 155:src/kernel/mmanagement/object_cache.cpp ****     Slab* t = nullptr;
 1259              		.loc 1 155 5
 156:src/kernel/mmanagement/object_cache.cpp ****     void* obj = nullptr;
 1260              		.loc 1 156 5
 158:src/kernel/mmanagement/object_cache.cpp ****     if(part_head){
 1261              		.loc 1 158 5
 158:src/kernel/mmanagement/object_cache.cpp ****     if(part_head){
 1262              		.loc 1 158 8 is_stmt 0
 1263 0890 83348502 		ld	s1,40(a0)
 158:src/kernel/mmanagement/object_cache.cpp ****     if(part_head){
 1264              		.loc 1 158 5
 1265 0894 638A0404 		beq	s1,zero,.L85
 159:src/kernel/mmanagement/object_cache.cpp ****         t = get_list_parent(part_head, Slab, node);
 1266              		.loc 1 159 9 is_stmt 1
 159:src/kernel/mmanagement/object_cache.cpp ****         t = get_list_parent(part_head, Slab, node);
 1267              		.loc 1 159 13 is_stmt 0
 1268 0898 938484F5 		addi	s1,s1,-168
 1269              	.LVL158:
 154:src/kernel/mmanagement/object_cache.cpp ****     bool was_free = false;
 1270              		.loc 1 154 10
 1271 089c 130A0000 		li	s4,0
 1272              	.LVL159:
 1273              	.L86:
GAS LISTING /tmp/ccPRbhSD.s 			page 35


 167:src/kernel/mmanagement/object_cache.cpp ****     obj = t->get_obj();
 1274              		.loc 1 167 5 is_stmt 1
 167:src/kernel/mmanagement/object_cache.cpp ****     obj = t->get_obj();
 1275              		.loc 1 167 21 is_stmt 0
 1276 08a0 13850400 		mv	a0,s1
 1277 08a4 97000000 		call	_ZN4Slab7get_objEv
 1277      E7800000 
 1278              	.LVL160:
 1279 08ac 93090500 		mv	s3,a0
 1280              	.LVL161:
 168:src/kernel/mmanagement/object_cache.cpp ****     list_update_alloc(t, was_free);
 1281              		.loc 1 168 5 is_stmt 1
 168:src/kernel/mmanagement/object_cache.cpp ****     list_update_alloc(t, was_free);
 1282              		.loc 1 168 22 is_stmt 0
 1283 08b0 13060A00 		mv	a2,s4
 1284 08b4 93850400 		mv	a1,s1
 1285 08b8 13050900 		mv	a0,s2
 1286              	.LVL162:
 1287 08bc 97000000 		call	_ZN11ObjectCache17list_update_allocEP4Slabb
 1287      E7800000 
 1288              	.LVL163:
 169:src/kernel/mmanagement/object_cache.cpp ****     return obj;
 1289              		.loc 1 169 5 is_stmt 1
 170:src/kernel/mmanagement/object_cache.cpp **** }
 1290              		.loc 1 170 1 is_stmt 0
 1291 08c4 13850900 		mv	a0,s3
 1292 08c8 83308102 		ld	ra,40(sp)
 1293              		.cfi_remember_state
 1294              		.cfi_restore 1
 1295 08cc 03340102 		ld	s0,32(sp)
 1296              		.cfi_restore 8
 1297              		.cfi_def_cfa 2, 48
 1298 08d0 83348101 		ld	s1,24(sp)
 1299              		.cfi_restore 9
 1300              	.LVL164:
 1301 08d4 03390101 		ld	s2,16(sp)
 1302              		.cfi_restore 18
 1303              	.LVL165:
 1304 08d8 83398100 		ld	s3,8(sp)
 1305              		.cfi_restore 19
 1306              	.LVL166:
 1307 08dc 033A0100 		ld	s4,0(sp)
 1308              		.cfi_restore 20
 1309              	.LVL167:
 1310 08e0 13010103 		addi	sp,sp,48
 1311              		.cfi_def_cfa_offset 0
 1312 08e4 67800000 		jr	ra
 1313              	.LVL168:
 1314              	.L85:
 1315              		.cfi_restore_state
 162:src/kernel/mmanagement/object_cache.cpp ****         if(free_head){ 
 1316              		.loc 1 162 9 is_stmt 1
 162:src/kernel/mmanagement/object_cache.cpp ****         if(free_head){ 
 1317              		.loc 1 162 12 is_stmt 0
 1318 08e8 83340502 		ld	s1,32(a0)
 162:src/kernel/mmanagement/object_cache.cpp ****         if(free_head){ 
 1319              		.loc 1 162 9
GAS LISTING /tmp/ccPRbhSD.s 			page 36


 1320 08ec 63880400 		beq	s1,zero,.L87
 163:src/kernel/mmanagement/object_cache.cpp ****             t = get_list_parent(free_head, Slab, node); 
 1321              		.loc 1 163 13 is_stmt 1
 163:src/kernel/mmanagement/object_cache.cpp ****             t = get_list_parent(free_head, Slab, node); 
 1322              		.loc 1 163 17 is_stmt 0
 1323 08f0 938484F5 		addi	s1,s1,-168
 1324              	.LVL169:
 165:src/kernel/mmanagement/object_cache.cpp ****         was_free = true;
 1325              		.loc 1 165 18
 1326 08f4 130A1000 		li	s4,1
 1327 08f8 6FF09FFA 		j	.L86
 1328              	.LVL170:
 1329              	.L87:
 164:src/kernel/mmanagement/object_cache.cpp ****         } else {  t = slab_alloc(); }
 1330              		.loc 1 164 19 is_stmt 1
 164:src/kernel/mmanagement/object_cache.cpp ****         } else {  t = slab_alloc(); }
 1331              		.loc 1 164 33 is_stmt 0
 1332 08fc 97000000 		call	_ZN11ObjectCache10slab_allocEv
 1332      E7800000 
 1333              	.LVL171:
 1334 0904 93040500 		mv	s1,a0
 1335              	.LVL172:
 165:src/kernel/mmanagement/object_cache.cpp ****         was_free = true;
 1336              		.loc 1 165 18
 1337 0908 130A1000 		li	s4,1
 1338 090c 6FF05FF9 		j	.L86
 1339              		.cfi_endproc
 1340              	.LFE122:
 1342              		.align	2
 1343              		.globl	_ZN11ObjectCachenwEm
 1345              	_ZN11ObjectCachenwEm:
 1346              	.LFB118:
  41:src/kernel/mmanagement/object_cache.cpp **** void* ObjectCache::operator new(size_t size){
 1347              		.loc 1 41 45 is_stmt 1
 1348              		.cfi_startproc
 1349              	.LVL173:
 1350 0910 130101FF 		addi	sp,sp,-16
 1351              		.cfi_def_cfa_offset 16
 1352 0914 23341100 		sd	ra,8(sp)
 1353 0918 23308100 		sd	s0,0(sp)
 1354              		.cfi_offset 1, -8
 1355              		.cfi_offset 8, -16
 1356 091c 13040101 		addi	s0,sp,16
 1357              		.cfi_def_cfa 8, 0
  42:src/kernel/mmanagement/object_cache.cpp ****     void* addr = SlabAl::getInstance().objcache_cache.alloc_obj();
 1358              		.loc 1 42 5
  42:src/kernel/mmanagement/object_cache.cpp ****     void* addr = SlabAl::getInstance().objcache_cache.alloc_obj();
 1359              		.loc 1 42 38 is_stmt 0
 1360 0920 97000000 		call	_ZN13SlabAllocator11getInstanceEv
 1360      E7800000 
 1361              	.LVL174:
  42:src/kernel/mmanagement/object_cache.cpp ****     void* addr = SlabAl::getInstance().objcache_cache.alloc_obj();
 1362              		.loc 1 42 64
 1363 0928 97000000 		call	_ZN11ObjectCache9alloc_objEv
 1363      E7800000 
 1364              	.LVL175:
  44:src/kernel/mmanagement/object_cache.cpp ****     return addr;
GAS LISTING /tmp/ccPRbhSD.s 			page 37


 1365              		.loc 1 44 5 is_stmt 1
  46:src/kernel/mmanagement/object_cache.cpp **** }
 1366              		.loc 1 46 1 is_stmt 0
 1367 0930 83308100 		ld	ra,8(sp)
 1368              		.cfi_restore 1
 1369 0934 03340100 		ld	s0,0(sp)
 1370              		.cfi_restore 8
 1371              		.cfi_def_cfa 2, 16
 1372 0938 13010101 		addi	sp,sp,16
 1373              		.cfi_def_cfa_offset 0
 1374 093c 67800000 		jr	ra
 1375              		.cfi_endproc
 1376              	.LFE118:
 1378              		.align	2
 1379              		.globl	_ZN11ObjectCache8free_objEPv
 1381              	_ZN11ObjectCache8free_objEPv:
 1382              	.LFB125:
 214:src/kernel/mmanagement/object_cache.cpp **** int ObjectCache::free_obj(void* ptr){
 1383              		.loc 1 214 37 is_stmt 1
 1384              		.cfi_startproc
 1385              	.LVL176:
 1386 0940 130101FC 		addi	sp,sp,-64
 1387              		.cfi_def_cfa_offset 64
 1388 0944 233C1102 		sd	ra,56(sp)
 1389 0948 23388102 		sd	s0,48(sp)
 1390 094c 23349102 		sd	s1,40(sp)
 1391 0950 23302103 		sd	s2,32(sp)
 1392 0954 233C3101 		sd	s3,24(sp)
 1393 0958 23384101 		sd	s4,16(sp)
 1394 095c 23345101 		sd	s5,8(sp)
 1395              		.cfi_offset 1, -8
 1396              		.cfi_offset 8, -16
 1397              		.cfi_offset 9, -24
 1398              		.cfi_offset 18, -32
 1399              		.cfi_offset 19, -40
 1400              		.cfi_offset 20, -48
 1401              		.cfi_offset 21, -56
 1402 0960 13040104 		addi	s0,sp,64
 1403              		.cfi_def_cfa 8, 0
 1404 0964 93040500 		mv	s1,a0
 1405 0968 93890500 		mv	s3,a1
 217:src/kernel/mmanagement/object_cache.cpp ****     Slab* slab_meta = *(Slab**)((uint64)ptr & (-Buddy::BLOCK_SIZE));
 1406              		.loc 1 217 5
 217:src/kernel/mmanagement/object_cache.cpp ****     Slab* slab_meta = *(Slab**)((uint64)ptr & (-Buddy::BLOCK_SIZE));
 1407              		.loc 1 217 45 is_stmt 0
 1408 096c B7F7FFFF 		li	a5,-4096
 1409 0970 B3F7F500 		and	a5,a1,a5
 217:src/kernel/mmanagement/object_cache.cpp ****     Slab* slab_meta = *(Slab**)((uint64)ptr & (-Buddy::BLOCK_SIZE));
 1410              		.loc 1 217 11
 1411 0974 03B90700 		ld	s2,0(a5)
 1412              	.LVL177:
 219:src/kernel/mmanagement/object_cache.cpp ****     if(type == BUFF_SLAB){
 1413              		.loc 1 219 5 is_stmt 1
 219:src/kernel/mmanagement/object_cache.cpp ****     if(type == BUFF_SLAB){
 1414              		.loc 1 219 8 is_stmt 0
 1415 0978 03278501 		lw	a4,24(a0)
 219:src/kernel/mmanagement/object_cache.cpp ****     if(type == BUFF_SLAB){
GAS LISTING /tmp/ccPRbhSD.s 			page 38


 1416              		.loc 1 219 5
 1417 097c 93074000 		li	a5,4
 1418 0980 6302F704 		beq	a4,a5,.L101
 1419              	.LVL178:
 1420              	.L92:
 230:src/kernel/mmanagement/object_cache.cpp ****     if(slab_meta->parent != this){
 1421              		.loc 1 230 5 is_stmt 1
 230:src/kernel/mmanagement/object_cache.cpp ****     if(slab_meta->parent != this){
 1422              		.loc 1 230 19 is_stmt 0
 1423 0984 83370900 		ld	a5,0(s2)
 230:src/kernel/mmanagement/object_cache.cpp ****     if(slab_meta->parent != this){
 1424              		.loc 1 230 5
 1425 0988 638C9706 		beq	a5,s1,.L95
 231:src/kernel/mmanagement/object_cache.cpp ****         error = "Dealocation failed: Object is not from specified cache!!";
 1426              		.loc 1 231 9 is_stmt 1
 231:src/kernel/mmanagement/object_cache.cpp ****         error = "Dealocation failed: Object is not from specified cache!!";
 1427              		.loc 1 231 15 is_stmt 0
 1428 098c 97070000 		lla	a5,.LC17
 1428      93870700 
 1429 0994 23B4F400 		sd	a5,8(s1)
 232:src/kernel/mmanagement/object_cache.cpp ****         return 1;
 1430              		.loc 1 232 9 is_stmt 1
 232:src/kernel/mmanagement/object_cache.cpp ****         return 1;
 1431              		.loc 1 232 16 is_stmt 0
 1432 0998 130A1000 		li	s4,1
 1433              	.L94:
 248:src/kernel/mmanagement/object_cache.cpp **** }
 1434              		.loc 1 248 1
 1435 099c 13050A00 		mv	a0,s4
 1436 09a0 83308103 		ld	ra,56(sp)
 1437              		.cfi_remember_state
 1438              		.cfi_restore 1
 1439 09a4 03340103 		ld	s0,48(sp)
 1440              		.cfi_restore 8
 1441              		.cfi_def_cfa 2, 64
 1442 09a8 83348102 		ld	s1,40(sp)
 1443              		.cfi_restore 9
 1444              	.LVL179:
 1445 09ac 03390102 		ld	s2,32(sp)
 1446              		.cfi_restore 18
 1447              	.LVL180:
 1448 09b0 83398101 		ld	s3,24(sp)
 1449              		.cfi_restore 19
 1450              	.LVL181:
 1451 09b4 033A0101 		ld	s4,16(sp)
 1452              		.cfi_restore 20
 1453 09b8 833A8100 		ld	s5,8(sp)
 1454              		.cfi_restore 21
 1455 09bc 13010104 		addi	sp,sp,64
 1456              		.cfi_def_cfa_offset 0
 1457 09c0 67800000 		jr	ra
 1458              	.LVL182:
 1459              	.L101:
 1460              		.cfi_restore_state
 220:src/kernel/mmanagement/object_cache.cpp ****         slab_meta = find_slab(ptr, part_head);
 1461              		.loc 1 220 9 is_stmt 1
 220:src/kernel/mmanagement/object_cache.cpp ****         slab_meta = find_slab(ptr, part_head);
GAS LISTING /tmp/ccPRbhSD.s 			page 39


 1462              		.loc 1 220 30 is_stmt 0
 1463 09c4 03368502 		ld	a2,40(a0)
 1464 09c8 97000000 		call	_ZN11ObjectCache9find_slabEPvP6list_t
 1464      E7800000 
 1465              	.LVL183:
 1466 09d0 13090500 		mv	s2,a0
 1467              	.LVL184:
 222:src/kernel/mmanagement/object_cache.cpp ****         if(!slab_meta)
 1468              		.loc 1 222 9 is_stmt 1
 1469 09d4 63080500 		beq	a0,zero,.L102
 1470              	.L93:
 225:src/kernel/mmanagement/object_cache.cpp ****         if(!slab_meta){
 1471              		.loc 1 225 9
 1472 09d8 E31609FA 		bne	s2,zero,.L92
 226:src/kernel/mmanagement/object_cache.cpp ****              return 2;
 1473              		.loc 1 226 21 is_stmt 0
 1474 09dc 130A2000 		li	s4,2
 1475 09e0 6FF0DFFB 		j	.L94
 1476              	.L102:
 223:src/kernel/mmanagement/object_cache.cpp ****             slab_meta = find_slab(ptr, full_head);
 1477              		.loc 1 223 13 is_stmt 1
 223:src/kernel/mmanagement/object_cache.cpp ****             slab_meta = find_slab(ptr, full_head);
 1478              		.loc 1 223 34 is_stmt 0
 1479 09e4 03B60403 		ld	a2,48(s1)
 1480 09e8 93850900 		mv	a1,s3
 1481 09ec 13850400 		mv	a0,s1
 1482              	.LVL185:
 1483 09f0 97000000 		call	_ZN11ObjectCache9find_slabEPvP6list_t
 1483      E7800000 
 1484              	.LVL186:
 1485 09f8 13090500 		mv	s2,a0
 1486              	.LVL187:
 1487 09fc 6FF0DFFD 		j	.L93
 1488              	.LVL188:
 1489              	.L95:
 234:src/kernel/mmanagement/object_cache.cpp ****     bool was_full = slab_meta->full();
 1490              		.loc 1 234 5 is_stmt 1
 1491              	.LBB22:
 1492              	.LBB23:
  88:src/kernel/mmanagement/../../../h/../h/slab_allocator.h ****     bool free(){ return rear == front; }
 1493              		.loc 2 88 18
  88:src/kernel/mmanagement/../../../h/../h/slab_allocator.h ****     bool free(){ return rear == front; }
 1494              		.loc 2 88 34 is_stmt 0
 1495 0a00 03468908 		lbu	a2,136(s2)
 1496 0a04 130606F8 		addi	a2,a2,-128
 1497 0a08 933A1600 		seqz	s5,a2
 1498              	.LVL189:
 1499              	.LBE23:
 1500              	.LBE22:
 235:src/kernel/mmanagement/object_cache.cpp ****     int ind = slab_meta->put_obj(ptr);
 1501              		.loc 1 235 5 is_stmt 1
 235:src/kernel/mmanagement/object_cache.cpp ****     int ind = slab_meta->put_obj(ptr);
 1502              		.loc 1 235 33 is_stmt 0
 1503 0a0c 93850900 		mv	a1,s3
 1504 0a10 13050900 		mv	a0,s2
 1505 0a14 97000000 		call	_ZN4Slab7put_objEPv
 1505      E7800000 
GAS LISTING /tmp/ccPRbhSD.s 			page 40


 1506              	.LVL190:
 1507 0a1c 130A0500 		mv	s4,a0
 1508              	.LVL191:
 237:src/kernel/mmanagement/object_cache.cpp ****     if(ind){
 1509              		.loc 1 237 5 is_stmt 1
 1510 0a20 63160502 		bne	a0,zero,.L103
 240:src/kernel/mmanagement/object_cache.cpp ****     }else if(ctor)
 1511              		.loc 1 240 11
 240:src/kernel/mmanagement/object_cache.cpp ****     }else if(ctor)
 1512              		.loc 1 240 14 is_stmt 0
 1513 0a24 83B78404 		ld	a5,72(s1)
 240:src/kernel/mmanagement/object_cache.cpp ****     }else if(ctor)
 1514              		.loc 1 240 11
 1515 0a28 638A0702 		beq	a5,zero,.L97
 241:src/kernel/mmanagement/object_cache.cpp ****         ctor(ptr);
 1516              		.loc 1 241 9 is_stmt 1
 241:src/kernel/mmanagement/object_cache.cpp ****         ctor(ptr);
 1517              		.loc 1 241 13 is_stmt 0
 1518 0a2c 13850900 		mv	a0,s3
 1519              	.LVL192:
 1520 0a30 E7800700 		jalr	a5
 1521              	.LVL193:
 1522              	.L98:
 245:src/kernel/mmanagement/object_cache.cpp ****     list_update_free(slab_meta, was_full);
 1523              		.loc 1 245 5 is_stmt 1
 245:src/kernel/mmanagement/object_cache.cpp ****     list_update_free(slab_meta, was_full);
 1524              		.loc 1 245 21 is_stmt 0
 1525 0a34 13860A00 		mv	a2,s5
 1526 0a38 93050900 		mv	a1,s2
 1527 0a3c 13850400 		mv	a0,s1
 1528 0a40 97000000 		call	_ZN11ObjectCache16list_update_freeEP4Slabb
 1528      E7800000 
 1529              	.LVL194:
 247:src/kernel/mmanagement/object_cache.cpp ****     return 0;
 1530              		.loc 1 247 5 is_stmt 1
 247:src/kernel/mmanagement/object_cache.cpp ****     return 0;
 1531              		.loc 1 247 12 is_stmt 0
 1532 0a48 6FF05FF5 		j	.L94
 1533              	.LVL195:
 1534              	.L103:
 238:src/kernel/mmanagement/object_cache.cpp ****         error = "Deallocation failed: invalid deallocation address!";
 1535              		.loc 1 238 9 is_stmt 1
 238:src/kernel/mmanagement/object_cache.cpp ****         error = "Deallocation failed: invalid deallocation address!";
 1536              		.loc 1 238 15 is_stmt 0
 1537 0a4c 97070000 		lla	a5,.LC18
 1537      93870700 
 1538 0a54 23B4F400 		sd	a5,8(s1)
 239:src/kernel/mmanagement/object_cache.cpp ****         return ind;
 1539              		.loc 1 239 9 is_stmt 1
 239:src/kernel/mmanagement/object_cache.cpp ****         return ind;
 1540              		.loc 1 239 16 is_stmt 0
 1541 0a58 6FF05FF4 		j	.L94
 1542              	.L97:
 243:src/kernel/mmanagement/object_cache.cpp ****         zero_out(ptr);
 1543              		.loc 1 243 9 is_stmt 1
 243:src/kernel/mmanagement/object_cache.cpp ****         zero_out(ptr);
 1544              		.loc 1 243 17 is_stmt 0
GAS LISTING /tmp/ccPRbhSD.s 			page 41


 1545 0a5c 93850900 		mv	a1,s3
 1546 0a60 13850400 		mv	a0,s1
 1547              	.LVL196:
 1548 0a64 97000000 		call	_ZN11ObjectCache8zero_outEPv
 1548      E7800000 
 1549              	.LVL197:
 1550 0a6c 6FF09FFC 		j	.L98
 1551              		.cfi_endproc
 1552              	.LFE125:
 1554              		.align	2
 1555              		.globl	_ZN11ObjectCachedlEPv
 1557              	_ZN11ObjectCachedlEPv:
 1558              	.LFB119:
  50:src/kernel/mmanagement/object_cache.cpp **** void ObjectCache::operator delete(void* addr){
 1559              		.loc 1 50 46 is_stmt 1
 1560              		.cfi_startproc
 1561              	.LVL198:
 1562 0a70 130101FE 		addi	sp,sp,-32
 1563              		.cfi_def_cfa_offset 32
 1564 0a74 233C1100 		sd	ra,24(sp)
 1565 0a78 23388100 		sd	s0,16(sp)
 1566 0a7c 23349100 		sd	s1,8(sp)
 1567              		.cfi_offset 1, -8
 1568              		.cfi_offset 8, -16
 1569              		.cfi_offset 9, -24
 1570 0a80 13040102 		addi	s0,sp,32
 1571              		.cfi_def_cfa 8, 0
 1572 0a84 93040500 		mv	s1,a0
  51:src/kernel/mmanagement/object_cache.cpp ****     SlabAl::getInstance().objcache_cache.free_obj(addr);
 1573              		.loc 1 51 5
  51:src/kernel/mmanagement/object_cache.cpp ****     SlabAl::getInstance().objcache_cache.free_obj(addr);
 1574              		.loc 1 51 25 is_stmt 0
 1575 0a88 97000000 		call	_ZN13SlabAllocator11getInstanceEv
 1575      E7800000 
 1576              	.LVL199:
  51:src/kernel/mmanagement/object_cache.cpp ****     SlabAl::getInstance().objcache_cache.free_obj(addr);
 1577              		.loc 1 51 50
 1578 0a90 93850400 		mv	a1,s1
 1579 0a94 97000000 		call	_ZN11ObjectCache8free_objEPv
 1579      E7800000 
 1580              	.LVL200:
  52:src/kernel/mmanagement/object_cache.cpp **** }
 1581              		.loc 1 52 1
 1582 0a9c 83308101 		ld	ra,24(sp)
 1583              		.cfi_restore 1
 1584 0aa0 03340101 		ld	s0,16(sp)
 1585              		.cfi_restore 8
 1586              		.cfi_def_cfa 2, 32
 1587 0aa4 83348100 		ld	s1,8(sp)
 1588              		.cfi_restore 9
 1589              	.LVL201:
 1590 0aa8 13010102 		addi	sp,sp,32
 1591              		.cfi_def_cfa_offset 0
 1592 0aac 67800000 		jr	ra
 1593              		.cfi_endproc
 1594              	.LFE119:
 1596              		.align	2
GAS LISTING /tmp/ccPRbhSD.s 			page 42


 1597              		.globl	_ZN11ObjectCache6shrinkEv
 1599              	_ZN11ObjectCache6shrinkEv:
 1600              	.LFB126:
 253:src/kernel/mmanagement/object_cache.cpp **** int ObjectCache::shrink(){
 1601              		.loc 1 253 26 is_stmt 1
 1602              		.cfi_startproc
 1603              	.LVL202:
 1604 0ab0 130101FD 		addi	sp,sp,-48
 1605              		.cfi_def_cfa_offset 48
 1606 0ab4 23341102 		sd	ra,40(sp)
 1607 0ab8 23308102 		sd	s0,32(sp)
 1608 0abc 233C9100 		sd	s1,24(sp)
 1609 0ac0 23382101 		sd	s2,16(sp)
 1610              		.cfi_offset 1, -8
 1611              		.cfi_offset 8, -16
 1612              		.cfi_offset 9, -24
 1613              		.cfi_offset 18, -32
 1614 0ac4 13040103 		addi	s0,sp,48
 1615              		.cfi_def_cfa 8, 0
 1616 0ac8 93040500 		mv	s1,a0
 254:src/kernel/mmanagement/object_cache.cpp ****     if(!free_head){
 1617              		.loc 1 254 5
 254:src/kernel/mmanagement/object_cache.cpp ****     if(!free_head){
 1618              		.loc 1 254 9 is_stmt 0
 1619 0acc 83370502 		ld	a5,32(a0)
 254:src/kernel/mmanagement/object_cache.cpp ****     if(!free_head){
 1620              		.loc 1 254 5
 1621 0ad0 63980702 		bne	a5,zero,.L107
 255:src/kernel/mmanagement/object_cache.cpp ****         error = "No free slabs!";
 1622              		.loc 1 255 9 is_stmt 1
 255:src/kernel/mmanagement/object_cache.cpp ****         error = "No free slabs!";
 1623              		.loc 1 255 15 is_stmt 0
 1624 0ad4 97070000 		lla	a5,.LC19
 1624      93870700 
 1625 0adc 2334F500 		sd	a5,8(a0)
 256:src/kernel/mmanagement/object_cache.cpp ****         return 1;
 1626              		.loc 1 256 9 is_stmt 1
 256:src/kernel/mmanagement/object_cache.cpp ****         return 1;
 1627              		.loc 1 256 16 is_stmt 0
 1628 0ae0 13051000 		li	a0,1
 1629              	.LVL203:
 1630 0ae4 6F008007 		j	.L108
 1631              	.LVL204:
 1632              	.L109:
 1633              	.LBB24:
 267:src/kernel/mmanagement/object_cache.cpp ****             SlabAllocator::getInstance().slab_cache.free_obj(slab);
 1634              		.loc 1 267 13 is_stmt 1
 267:src/kernel/mmanagement/object_cache.cpp ****             SlabAllocator::getInstance().slab_cache.free_obj(slab);
 1635              		.loc 1 267 40 is_stmt 0
 1636 0ae8 97000000 		call	_ZN13SlabAllocator11getInstanceEv
 1636      E7800000 
 1637              	.LVL205:
 267:src/kernel/mmanagement/object_cache.cpp ****             SlabAllocator::getInstance().slab_cache.free_obj(slab);
 1638              		.loc 1 267 61
 1639 0af0 93050900 		mv	a1,s2
 1640 0af4 13058505 		addi	a0,a0,88
 1641 0af8 97000000 		call	_ZN11ObjectCache8free_objEPv
GAS LISTING /tmp/ccPRbhSD.s 			page 43


 1641      E7800000 
 1642              	.LVL206:
 1643              	.L107:
 1644              	.LBE24:
 258:src/kernel/mmanagement/object_cache.cpp ****     while(free_head){
 1645              		.loc 1 258 5 is_stmt 1
 258:src/kernel/mmanagement/object_cache.cpp ****     while(free_head){
 1646              		.loc 1 258 11 is_stmt 0
 1647 0b00 03B50402 		ld	a0,32(s1)
 1648 0b04 630A0504 		beq	a0,zero,.L111
 1649              	.LBB25:
 259:src/kernel/mmanagement/object_cache.cpp ****         Slab* slab = get_list_parent(free_head, Slab, node);
 1650              		.loc 1 259 9 is_stmt 1
 259:src/kernel/mmanagement/object_cache.cpp ****         Slab* slab = get_list_parent(free_head, Slab, node);
 1651              		.loc 1 259 22 is_stmt 0
 1652 0b08 130985F5 		addi	s2,a0,-168
 1653              	.LVL207:
 260:src/kernel/mmanagement/object_cache.cpp ****         free_head = remove(free_head);
 1654              		.loc 1 260 9 is_stmt 1
 260:src/kernel/mmanagement/object_cache.cpp ****         free_head = remove(free_head);
 1655              		.loc 1 260 27 is_stmt 0
 1656 0b0c 97000000 		call	_Z6removeP6list_t
 1656      E7800000 
 1657              	.LVL208:
 260:src/kernel/mmanagement/object_cache.cpp ****         free_head = remove(free_head);
 1658              		.loc 1 260 19
 1659 0b14 23B0A402 		sd	a0,32(s1)
 262:src/kernel/mmanagement/object_cache.cpp ****         uchar buddy_level;
 1660              		.loc 1 262 9 is_stmt 1
 263:src/kernel/mmanagement/object_cache.cpp ****         get_slab_size(&buddy_level);
 1661              		.loc 1 263 9
 263:src/kernel/mmanagement/object_cache.cpp ****         get_slab_size(&buddy_level);
 1662              		.loc 1 263 22 is_stmt 0
 1663 0b18 9305F4FD 		addi	a1,s0,-33
 1664 0b1c 13850400 		mv	a0,s1
 1665 0b20 97000000 		call	_ZN11ObjectCache13get_slab_sizeEPh
 1665      E7800000 
 1666              	.LVL209:
 265:src/kernel/mmanagement/object_cache.cpp ****         Buddy::getInstance().mem_free(slab->addr_start, buddy_level);
 1667              		.loc 1 265 9 is_stmt 1
 265:src/kernel/mmanagement/object_cache.cpp ****         Buddy::getInstance().mem_free(slab->addr_start, buddy_level);
 1668              		.loc 1 265 28 is_stmt 0
 1669 0b28 97000000 		call	_ZN5Buddy11getInstanceEv
 1669      E7800000 
 1670              	.LVL210:
 265:src/kernel/mmanagement/object_cache.cpp ****         Buddy::getInstance().mem_free(slab->addr_start, buddy_level);
 1671              		.loc 1 265 38
 1672 0b30 0346F4FD 		lbu	a2,-33(s0)
 1673 0b34 8335090A 		ld	a1,160(s2)
 1674 0b38 97000000 		call	_ZN5Buddy8mem_freeEPvh
 1674      E7800000 
 1675              	.LVL211:
 266:src/kernel/mmanagement/object_cache.cpp ****         if(type == BUFF_SLAB || type == OFF_SLAB)
 1676              		.loc 1 266 9 is_stmt 1
 266:src/kernel/mmanagement/object_cache.cpp ****         if(type == BUFF_SLAB || type == OFF_SLAB)
 1677              		.loc 1 266 12 is_stmt 0
 1678 0b40 83A78401 		lw	a5,24(s1)
GAS LISTING /tmp/ccPRbhSD.s 			page 44


 266:src/kernel/mmanagement/object_cache.cpp ****         if(type == BUFF_SLAB || type == OFF_SLAB)
 1679              		.loc 1 266 9
 1680 0b44 13074000 		li	a4,4
 1681 0b48 E380E7FA 		beq	a5,a4,.L109
 266:src/kernel/mmanagement/object_cache.cpp ****         if(type == BUFF_SLAB || type == OFF_SLAB)
 1682              		.loc 1 266 30 discriminator 1
 1683 0b4c 13071000 		li	a4,1
 1684 0b50 E398E7FA 		bne	a5,a4,.L107
 1685 0b54 6FF05FF9 		j	.L109
 1686              	.LVL212:
 1687              	.L111:
 1688              	.LBE25:
 269:src/kernel/mmanagement/object_cache.cpp ****     return 0;
 1689              		.loc 1 269 12
 1690 0b58 13050000 		li	a0,0
 1691              	.L108:
 270:src/kernel/mmanagement/object_cache.cpp **** }
 1692              		.loc 1 270 1
 1693 0b5c 83308102 		ld	ra,40(sp)
 1694              		.cfi_restore 1
 1695 0b60 03340102 		ld	s0,32(sp)
 1696              		.cfi_restore 8
 1697              		.cfi_def_cfa 2, 48
 1698 0b64 83348101 		ld	s1,24(sp)
 1699              		.cfi_restore 9
 1700              	.LVL213:
 1701 0b68 03390101 		ld	s2,16(sp)
 1702              		.cfi_restore 18
 1703 0b6c 13010103 		addi	sp,sp,48
 1704              		.cfi_def_cfa_offset 0
 1705 0b70 67800000 		jr	ra
 1706              		.cfi_endproc
 1707              	.LFE126:
 1709              		.section	.rodata.str1.8,"aMS",@progbits,1
 1710              		.align	3
 1711              	.LC0:
 1712 0000 0A2D2D2D 		.string	"\n--------OBJCACHE "
 1712      2D2D2D2D 
 1712      2D4F424A 
 1712      43414348 
 1712      452000
 1713 0013 00000000 		.zero	5
 1713      00
 1714              	.LC1:
 1715 0018 2D2D2D2D 		.string	"--------\n"
 1715      2D2D2D2D 
 1715      0A00
 1716 0022 00000000 		.zero	6
 1716      0000
 1717              	.LC2:
 1718 0028 6F626A73 		.string	"objsize: "
 1718      697A653A 
 1718      2000
 1719 0032 00000000 		.zero	6
 1719      0000
 1720              	.LC3:
 1721 0038 0A00     		.string	"\n"
GAS LISTING /tmp/ccPRbhSD.s 			page 45


 1722 003a 00000000 		.zero	6
 1722      0000
 1723              	.LC4:
 1724 0040 534C4142 		.string	"SLAB SIZE: "
 1724      2053495A 
 1724      453A2000 
 1725 004c 00000000 		.zero	4
 1726              	.LC5:
 1727 0050 534C4142 		.string	"SLAB TYPE: "
 1727      20545950 
 1727      453A2000 
 1728 005c 00000000 		.zero	4
 1729              	.LC6:
 1730 0060 4E4F4E45 		.string	"NONE\n"
 1730      0A00
 1731 0066 0000     		.zero	2
 1732              	.LC7:
 1733 0068 4F46465F 		.string	"OFF_SLAB\n"
 1733      534C4142 
 1733      0A00
 1734 0072 00000000 		.zero	6
 1734      0000
 1735              	.LC8:
 1736 0078 534C4142 		.string	"SLAB_SLAB\n"
 1736      5F534C41 
 1736      420A00
 1737 0083 00000000 		.zero	5
 1737      00
 1738              	.LC9:
 1739 0088 4F4E5F53 		.string	"ON_SLAB\n"
 1739      4C41420A 
 1739      00
 1740 0091 00000000 		.zero	7
 1740      000000
 1741              	.LC10:
 1742 0098 42554646 		.string	"BUFF_SLAB\n"
 1742      5F534C41 
 1742      420A00
 1743 00a3 00000000 		.zero	5
 1743      00
 1744              	.LC11:
 1745 00a8 21212121 		.string	"!!!!!!FREE SLAB LIST!!!!!! \n"
 1745      21214652 
 1745      45452053 
 1745      4C414220 
 1745      4C495354 
 1746 00c5 000000   		.zero	3
 1747              	.LC12:
 1748 00c8 21212121 		.string	"!!!!!!PARTIAL SLAB LIST!!!!!! \n"
 1748      21215041 
 1748      52544941 
 1748      4C20534C 
 1748      4142204C 
 1749              	.LC13:
 1750 00e8 21212121 		.string	"!!!!!!FULL SLAB LIST!!!!!!\n"
 1750      21214655 
 1750      4C4C2053 
GAS LISTING /tmp/ccPRbhSD.s 			page 46


 1750      4C414220 
 1750      4C495354 
 1751 0104 00000000 		.zero	4
 1752              	.LC14:
 1753 0108 2D2D2D2D 		.string	"------OBJCACHE "
 1753      2D2D4F42 
 1753      4A434143 
 1753      48452000 
 1754              	.LC15:
 1755 0118 20454E44 		.string	" END------\n\n"
 1755      2D2D2D2D 
 1755      2D2D0A0A 
 1755      00
 1756 0125 000000   		.zero	3
 1757              	.LC16:
 1758 0128 4E6F7420 		.string	"Not enough memory left"
 1758      656E6F75 
 1758      6768206D 
 1758      656D6F72 
 1758      79206C65 
 1759 013f 00       		.zero	1
 1760              	.LC17:
 1761 0140 4465616C 		.string	"Dealocation failed: Object is not from specified cache!!"
 1761      6F636174 
 1761      696F6E20 
 1761      6661696C 
 1761      65643A20 
 1762 0179 00000000 		.zero	7
 1762      000000
 1763              	.LC18:
 1764 0180 4465616C 		.string	"Deallocation failed: invalid deallocation address!"
 1764      6C6F6361 
 1764      74696F6E 
 1764      20666169 
 1764      6C65643A 
 1765 01b3 00000000 		.zero	5
 1765      00
 1766              	.LC19:
 1767 01b8 4E6F2066 		.string	"No free slabs!"
 1767      72656520 
 1767      736C6162 
 1767      732100
 1768              		.text
 1769              	.Letext0:
 1770              		.file 3 "src/kernel/mmanagement/../../../h/../h/../lib/hw.h"
 1771              		.file 4 "src/kernel/mmanagement/../../../h/../h/../h/../h/list.h"
 1772              		.file 5 "src/kernel/mmanagement/../../../h/../h/../h/object_cache.h"
 1773              		.file 6 "src/kernel/mmanagement/../../../h/../h/buddy.h"
 1774              		.file 7 "src/kernel/mmanagement/../../../h/kernel_lib.h"
 1775              		.file 8 "src/kernel/mmanagement/../../../h/../h/kernel_funs.h"
GAS LISTING /tmp/ccPRbhSD.s 			page 47


DEFINED SYMBOLS
                            *ABS*:0000000000000000 object_cache.cpp
     /tmp/ccPRbhSD.s:12     .text:0000000000000000 _ZN11ObjectCache13get_slab_sizeEPh
     /tmp/ccPRbhSD.s:16     .text:0000000000000000 .L0 
     /tmp/ccPRbhSD.s:18     .text:0000000000000000 .L0 
     /tmp/ccPRbhSD.s:19     .text:0000000000000004 .L0 
     /tmp/ccPRbhSD.s:24     .text:0000000000000014 .L0 
     /tmp/ccPRbhSD.s:25     .text:0000000000000014 .L0 
     /tmp/ccPRbhSD.s:26     .text:0000000000000014 .L0 
     /tmp/ccPRbhSD.s:27     .text:0000000000000014 .L0 
     /tmp/ccPRbhSD.s:29     .text:0000000000000018 .L0 
     /tmp/ccPRbhSD.s:32     .text:000000000000001c .L0 
     /tmp/ccPRbhSD.s:33     .text:000000000000001c .L0 
     /tmp/ccPRbhSD.s:35     .text:0000000000000020 .L0 
     /tmp/ccPRbhSD.s:38     .text:0000000000000028 .L0 
     /tmp/ccPRbhSD.s:50     .text:000000000000004c .L0 
     /tmp/ccPRbhSD.s:52     .text:0000000000000050 .L0 
     /tmp/ccPRbhSD.s:53     .text:0000000000000050 .L0 
     /tmp/ccPRbhSD.s:56     .text:0000000000000054 .L0 
     /tmp/ccPRbhSD.s:57     .text:0000000000000054 .L0 
     /tmp/ccPRbhSD.s:61     .text:0000000000000060 .L0 
     /tmp/ccPRbhSD.s:62     .text:0000000000000060 .L0 
     /tmp/ccPRbhSD.s:64     .text:0000000000000064 .L0 
     /tmp/ccPRbhSD.s:65     .text:0000000000000064 .L0 
     /tmp/ccPRbhSD.s:67     .text:0000000000000068 .L0 
     /tmp/ccPRbhSD.s:69     .text:000000000000006c .L0 
     /tmp/ccPRbhSD.s:72     .text:0000000000000070 .L0 
     /tmp/ccPRbhSD.s:76     .text:0000000000000074 .L0 
     /tmp/ccPRbhSD.s:78     .text:0000000000000074 .L0 
     /tmp/ccPRbhSD.s:89     .text:000000000000009c .L0 
     /tmp/ccPRbhSD.s:95     .text:000000000000009c _ZN11ObjectCache14calculate_typeEv
     /tmp/ccPRbhSD.s:98     .text:000000000000009c .L0 
     /tmp/ccPRbhSD.s:100    .text:000000000000009c .L0 
     /tmp/ccPRbhSD.s:101    .text:00000000000000a0 .L0 
     /tmp/ccPRbhSD.s:105    .text:00000000000000ac .L0 
     /tmp/ccPRbhSD.s:106    .text:00000000000000ac .L0 
     /tmp/ccPRbhSD.s:107    .text:00000000000000ac .L0 
     /tmp/ccPRbhSD.s:109    .text:00000000000000b0 .L0 
     /tmp/ccPRbhSD.s:112    .text:00000000000000b4 .L0 
     /tmp/ccPRbhSD.s:113    .text:00000000000000b4 .L0 
     /tmp/ccPRbhSD.s:117    .text:00000000000000c0 .L0 
     /tmp/ccPRbhSD.s:118    .text:00000000000000c0 .L0 
     /tmp/ccPRbhSD.s:121    .text:00000000000000c4 .L0 
     /tmp/ccPRbhSD.s:123    .text:00000000000000c8 .L0 
     /tmp/ccPRbhSD.s:126    .text:00000000000000cc .L0 
     /tmp/ccPRbhSD.s:129    .text:00000000000000d4 .L0 
     /tmp/ccPRbhSD.s:132    .text:00000000000000d8 .L0 
     /tmp/ccPRbhSD.s:133    .text:00000000000000dc .L0 
     /tmp/ccPRbhSD.s:134    .text:00000000000000dc .L0 
     /tmp/ccPRbhSD.s:136    .text:00000000000000e0 .L0 
     /tmp/ccPRbhSD.s:137    .text:00000000000000e0 .L0 
     /tmp/ccPRbhSD.s:139    .text:00000000000000e4 .L0 
     /tmp/ccPRbhSD.s:142    .text:00000000000000e8 .L0 
     /tmp/ccPRbhSD.s:146    .text:00000000000000ec .L0 
     /tmp/ccPRbhSD.s:148    .text:00000000000000ec .L0 
     /tmp/ccPRbhSD.s:150    .text:00000000000000f4 .L0 
     /tmp/ccPRbhSD.s:156    .text:00000000000000f4 _ZN11ObjectCacheC2EPKcmPFvPvES4_NS_12SlabMetaTypeE
GAS LISTING /tmp/ccPRbhSD.s 			page 48


     /tmp/ccPRbhSD.s:159    .text:00000000000000f4 .L0 
     /tmp/ccPRbhSD.s:161    .text:00000000000000f4 .L0 
     /tmp/ccPRbhSD.s:162    .text:00000000000000f8 .L0 
     /tmp/ccPRbhSD.s:169    .text:0000000000000110 .L0 
     /tmp/ccPRbhSD.s:170    .text:0000000000000110 .L0 
     /tmp/ccPRbhSD.s:171    .text:0000000000000110 .L0 
     /tmp/ccPRbhSD.s:172    .text:0000000000000110 .L0 
     /tmp/ccPRbhSD.s:173    .text:0000000000000110 .L0 
     /tmp/ccPRbhSD.s:174    .text:0000000000000110 .L0 
     /tmp/ccPRbhSD.s:176    .text:0000000000000114 .L0 
     /tmp/ccPRbhSD.s:183    .text:0000000000000124 .L0 
     /tmp/ccPRbhSD.s:200    .text:0000000000000154 .L0 
     /tmp/ccPRbhSD.s:201    .text:0000000000000154 .L0 
     /tmp/ccPRbhSD.s:205    .text:0000000000000160 .L0 
     /tmp/ccPRbhSD.s:209    .text:0000000000000168 .L0 
     /tmp/ccPRbhSD.s:210    .text:0000000000000168 .L0 
     /tmp/ccPRbhSD.s:212    .text:000000000000016c .L0 
     /tmp/ccPRbhSD.s:214    .text:0000000000000170 .L0 
     /tmp/ccPRbhSD.s:215    .text:0000000000000170 .L0 
     /tmp/ccPRbhSD.s:218    .text:0000000000000174 .L0 
     /tmp/ccPRbhSD.s:219    .text:0000000000000174 .L0 
     /tmp/ccPRbhSD.s:221    .text:0000000000000178 .L0 
     /tmp/ccPRbhSD.s:227    .text:000000000000017c .L0 
     /tmp/ccPRbhSD.s:228    .text:0000000000000180 .L0 
     /tmp/ccPRbhSD.s:229    .text:0000000000000180 .L0 
     /tmp/ccPRbhSD.s:231    .text:0000000000000184 .L0 
     /tmp/ccPRbhSD.s:232    .text:0000000000000184 .L0 
     /tmp/ccPRbhSD.s:234    .text:0000000000000188 .L0 
     /tmp/ccPRbhSD.s:237    .text:000000000000018c .L0 
     /tmp/ccPRbhSD.s:239    .text:0000000000000190 .L0 
     /tmp/ccPRbhSD.s:242    .text:0000000000000194 .L0 
     /tmp/ccPRbhSD.s:245    .text:0000000000000198 .L0 
     /tmp/ccPRbhSD.s:249    .text:000000000000019c .L0 
     /tmp/ccPRbhSD.s:253    .text:000000000000019c .L0 
     /tmp/ccPRbhSD.s:254    .text:000000000000019c .L0 
     /tmp/ccPRbhSD.s:259    .text:00000000000001a8 .L0 
     /tmp/ccPRbhSD.s:263    .text:00000000000001ac .L0 
     /tmp/ccPRbhSD.s:264    .text:00000000000001b0 .L0 
     /tmp/ccPRbhSD.s:156    .text:00000000000000f4 _ZN11ObjectCacheC1EPKcmPFvPvES4_NS_12SlabMetaTypeE
     /tmp/ccPRbhSD.s:272    .text:00000000000001b0 _ZN11ObjectCache17list_update_allocEP4Slabb
     /tmp/ccPRbhSD.s:275    .text:00000000000001b0 .L0 
     /tmp/ccPRbhSD.s:277    .text:00000000000001b0 .L0 
     /tmp/ccPRbhSD.s:278    .text:00000000000001b4 .L0 
     /tmp/ccPRbhSD.s:283    .text:00000000000001c4 .L0 
     /tmp/ccPRbhSD.s:284    .text:00000000000001c4 .L0 
     /tmp/ccPRbhSD.s:285    .text:00000000000001c4 .L0 
     /tmp/ccPRbhSD.s:286    .text:00000000000001c4 .L0 
     /tmp/ccPRbhSD.s:288    .text:00000000000001c8 .L0 
     /tmp/ccPRbhSD.s:296    .text:00000000000001d0 .L0 
     /tmp/ccPRbhSD.s:297    .text:00000000000001d0 .L0 
     /tmp/ccPRbhSD.s:298    .text:00000000000001d0 .L0 
     /tmp/ccPRbhSD.s:303    .text:00000000000001d4 .L0 
     /tmp/ccPRbhSD.s:306    .text:00000000000001dc .L0 
     /tmp/ccPRbhSD.s:310    .text:00000000000001e0 .L0 
     /tmp/ccPRbhSD.s:311    .text:00000000000001e4 .L0 
     /tmp/ccPRbhSD.s:312    .text:00000000000001e4 .L0 
     /tmp/ccPRbhSD.s:314    .text:00000000000001e8 .L0 
GAS LISTING /tmp/ccPRbhSD.s 			page 49


     /tmp/ccPRbhSD.s:315    .text:00000000000001e8 .L0 
     /tmp/ccPRbhSD.s:317    .text:00000000000001ec .L0 
     /tmp/ccPRbhSD.s:320    .text:00000000000001f0 .L0 
     /tmp/ccPRbhSD.s:323    .text:00000000000001f4 .L0 
     /tmp/ccPRbhSD.s:327    .text:00000000000001f8 .L0 
     /tmp/ccPRbhSD.s:329    .text:00000000000001f8 .L0 
     /tmp/ccPRbhSD.s:331    .text:00000000000001fc .L0 
     /tmp/ccPRbhSD.s:332    .text:00000000000001fc .L0 
     /tmp/ccPRbhSD.s:336    .text:0000000000000208 .L0 
     /tmp/ccPRbhSD.s:339    .text:000000000000020c .L0 
     /tmp/ccPRbhSD.s:340    .text:000000000000020c .L0 
     /tmp/ccPRbhSD.s:345    .text:000000000000021c .L0 
     /tmp/ccPRbhSD.s:350    .text:0000000000000224 .L0 
     /tmp/ccPRbhSD.s:351    .text:0000000000000224 .L0 
     /tmp/ccPRbhSD.s:355    .text:0000000000000230 .L0 
     /tmp/ccPRbhSD.s:360    .text:0000000000000238 .L0 
     /tmp/ccPRbhSD.s:361    .text:0000000000000238 .L0 
     /tmp/ccPRbhSD.s:365    .text:0000000000000244 .L0 
     /tmp/ccPRbhSD.s:367    .text:0000000000000248 .L0 
     /tmp/ccPRbhSD.s:368    .text:0000000000000248 .L0 
     /tmp/ccPRbhSD.s:373    .text:0000000000000258 .L0 
     /tmp/ccPRbhSD.s:375    .text:000000000000025c .L0 
     /tmp/ccPRbhSD.s:376    .text:0000000000000260 .L0 
     /tmp/ccPRbhSD.s:382    .text:0000000000000260 _ZN11ObjectCache16list_update_freeEP4Slabb
     /tmp/ccPRbhSD.s:385    .text:0000000000000260 .L0 
     /tmp/ccPRbhSD.s:387    .text:0000000000000260 .L0 
     /tmp/ccPRbhSD.s:388    .text:0000000000000264 .L0 
     /tmp/ccPRbhSD.s:393    .text:0000000000000274 .L0 
     /tmp/ccPRbhSD.s:394    .text:0000000000000274 .L0 
     /tmp/ccPRbhSD.s:395    .text:0000000000000274 .L0 
     /tmp/ccPRbhSD.s:396    .text:0000000000000274 .L0 
     /tmp/ccPRbhSD.s:398    .text:0000000000000278 .L0 
     /tmp/ccPRbhSD.s:405    .text:0000000000000280 .L0 
     /tmp/ccPRbhSD.s:406    .text:0000000000000280 .L0 
     /tmp/ccPRbhSD.s:407    .text:0000000000000280 .L0 
     /tmp/ccPRbhSD.s:409    .text:0000000000000284 .L0 
     /tmp/ccPRbhSD.s:414    .text:0000000000000288 .L0 
     /tmp/ccPRbhSD.s:416    .text:000000000000028c .L0 
     /tmp/ccPRbhSD.s:418    .text:0000000000000290 .L0 
     /tmp/ccPRbhSD.s:419    .text:0000000000000290 .L0 
     /tmp/ccPRbhSD.s:421    .text:0000000000000294 .L0 
     /tmp/ccPRbhSD.s:424    .text:0000000000000298 .L0 
     /tmp/ccPRbhSD.s:426    .text:000000000000029c .L0 
     /tmp/ccPRbhSD.s:427    .text:000000000000029c .L0 
     /tmp/ccPRbhSD.s:432    .text:00000000000002a8 .L0 
     /tmp/ccPRbhSD.s:433    .text:00000000000002a8 .L0 
     /tmp/ccPRbhSD.s:438    .text:00000000000002b8 .L0 
     /tmp/ccPRbhSD.s:440    .text:00000000000002bc .L0 
     /tmp/ccPRbhSD.s:444    .text:00000000000002c0 .L0 
     /tmp/ccPRbhSD.s:446    .text:00000000000002c4 .L0 
     /tmp/ccPRbhSD.s:447    .text:00000000000002c4 .L0 
     /tmp/ccPRbhSD.s:450    .text:00000000000002c8 .L0 
     /tmp/ccPRbhSD.s:452    .text:00000000000002cc .L0 
     /tmp/ccPRbhSD.s:454    .text:00000000000002d0 .L0 
     /tmp/ccPRbhSD.s:455    .text:00000000000002d0 .L0 
     /tmp/ccPRbhSD.s:459    .text:00000000000002d8 .L0 
     /tmp/ccPRbhSD.s:460    .text:00000000000002d8 .L0 
GAS LISTING /tmp/ccPRbhSD.s 			page 50


     /tmp/ccPRbhSD.s:465    .text:00000000000002e8 .L0 
     /tmp/ccPRbhSD.s:469    .text:00000000000002ec .L0 
     /tmp/ccPRbhSD.s:470    .text:00000000000002f0 .L0 
     /tmp/ccPRbhSD.s:471    .text:00000000000002f0 .L0 
     /tmp/ccPRbhSD.s:473    .text:00000000000002f4 .L0 
     /tmp/ccPRbhSD.s:474    .text:00000000000002f4 .L0 
     /tmp/ccPRbhSD.s:476    .text:00000000000002f8 .L0 
     /tmp/ccPRbhSD.s:478    .text:00000000000002fc .L0 
     /tmp/ccPRbhSD.s:481    .text:0000000000000300 .L0 
     /tmp/ccPRbhSD.s:485    .text:0000000000000304 .L0 
     /tmp/ccPRbhSD.s:487    .text:0000000000000304 .L0 
     /tmp/ccPRbhSD.s:488    .text:0000000000000304 .L0 
     /tmp/ccPRbhSD.s:492    .text:0000000000000310 .L0 
     /tmp/ccPRbhSD.s:497    .text:0000000000000318 .L0 
     /tmp/ccPRbhSD.s:498    .text:0000000000000318 .L0 
     /tmp/ccPRbhSD.s:501    .text:000000000000031c .L0 
     /tmp/ccPRbhSD.s:503    .text:0000000000000320 .L0 
     /tmp/ccPRbhSD.s:505    .text:0000000000000324 .L0 
     /tmp/ccPRbhSD.s:506    .text:0000000000000324 .L0 
     /tmp/ccPRbhSD.s:512    .text:0000000000000330 .L0 
     /tmp/ccPRbhSD.s:513    .text:0000000000000330 .L0 
     /tmp/ccPRbhSD.s:517    .text:000000000000033c .L0 
     /tmp/ccPRbhSD.s:522    .text:0000000000000344 .L0 
     /tmp/ccPRbhSD.s:523    .text:0000000000000344 .L0 
     /tmp/ccPRbhSD.s:526    .text:000000000000034c .L0 
     /tmp/ccPRbhSD.s:528    .text:0000000000000354 .L0 
     /tmp/ccPRbhSD.s:534    .text:0000000000000354 _ZN11ObjectCache9find_slabEPvP6list_t
     /tmp/ccPRbhSD.s:537    .text:0000000000000354 .L0 
     /tmp/ccPRbhSD.s:539    .text:0000000000000354 .L0 
     /tmp/ccPRbhSD.s:540    .text:0000000000000358 .L0 
     /tmp/ccPRbhSD.s:546    .text:000000000000036c .L0 
     /tmp/ccPRbhSD.s:547    .text:000000000000036c .L0 
     /tmp/ccPRbhSD.s:548    .text:000000000000036c .L0 
     /tmp/ccPRbhSD.s:549    .text:000000000000036c .L0 
     /tmp/ccPRbhSD.s:550    .text:000000000000036c .L0 
     /tmp/ccPRbhSD.s:552    .text:0000000000000370 .L0 
     /tmp/ccPRbhSD.s:558    .text:0000000000000378 .L0 
     /tmp/ccPRbhSD.s:559    .text:0000000000000378 .L0 
     /tmp/ccPRbhSD.s:560    .text:0000000000000378 .L0 
     /tmp/ccPRbhSD.s:563    .text:000000000000037c .L0 
     /tmp/ccPRbhSD.s:564    .text:000000000000037c .L0 
     /tmp/ccPRbhSD.s:567    .text:0000000000000380 .L0 
     /tmp/ccPRbhSD.s:568    .text:0000000000000380 .L0 
     /tmp/ccPRbhSD.s:573    .text:0000000000000390 .L0 
     /tmp/ccPRbhSD.s:575    .text:0000000000000394 .L0 
     /tmp/ccPRbhSD.s:576    .text:0000000000000394 .L0 
     /tmp/ccPRbhSD.s:580    .text:0000000000000398 .L0 
     /tmp/ccPRbhSD.s:584    .text:000000000000039c .L0 
     /tmp/ccPRbhSD.s:589    .text:00000000000003a0 .L0 
     /tmp/ccPRbhSD.s:591    .text:00000000000003a8 .L0 
     /tmp/ccPRbhSD.s:593    .text:00000000000003ac .L0 
     /tmp/ccPRbhSD.s:594    .text:00000000000003ac .L0 
     /tmp/ccPRbhSD.s:596    .text:00000000000003b0 .L0 
     /tmp/ccPRbhSD.s:598    .text:00000000000003b4 .L0 
     /tmp/ccPRbhSD.s:600    .text:00000000000003b8 .L0 
     /tmp/ccPRbhSD.s:603    .text:00000000000003bc .L0 
     /tmp/ccPRbhSD.s:605    .text:00000000000003c0 .L0 
GAS LISTING /tmp/ccPRbhSD.s 			page 51


     /tmp/ccPRbhSD.s:611    .text:00000000000003c0 _ZN11ObjectCache9printInfoEc
     /tmp/ccPRbhSD.s:614    .text:00000000000003c0 .L0 
     /tmp/ccPRbhSD.s:616    .text:00000000000003c0 .L0 
     /tmp/ccPRbhSD.s:617    .text:00000000000003c4 .L0 
     /tmp/ccPRbhSD.s:623    .text:00000000000003d8 .L0 
     /tmp/ccPRbhSD.s:624    .text:00000000000003d8 .L0 
     /tmp/ccPRbhSD.s:625    .text:00000000000003d8 .L0 
     /tmp/ccPRbhSD.s:626    .text:00000000000003d8 .L0 
     /tmp/ccPRbhSD.s:627    .text:00000000000003d8 .L0 
     /tmp/ccPRbhSD.s:629    .text:00000000000003dc .L0 
     /tmp/ccPRbhSD.s:633    .text:00000000000003e4 .L0 
     /tmp/ccPRbhSD.s:634    .text:00000000000003e4 .L0 
     /tmp/ccPRbhSD.s:639    .text:00000000000003f4 .L0 
     /tmp/ccPRbhSD.s:640    .text:00000000000003f4 .L0 
     /tmp/ccPRbhSD.s:644    .text:0000000000000400 .L0 
     /tmp/ccPRbhSD.s:645    .text:0000000000000400 .L0 
     /tmp/ccPRbhSD.s:649    .text:0000000000000410 .L0 
     /tmp/ccPRbhSD.s:653    .text:0000000000000420 .L0 
     /tmp/ccPRbhSD.s:659    .text:0000000000000434 .L0 
     /tmp/ccPRbhSD.s:663    .text:0000000000000444 .L0 
     /tmp/ccPRbhSD.s:667    .text:0000000000000454 .L0 
     /tmp/ccPRbhSD.s:676    .text:0000000000000474 .L0 
     /tmp/ccPRbhSD.s:680    .text:0000000000000484 .L0 
     /tmp/ccPRbhSD.s:681    .text:0000000000000484 .L0 
     /tmp/ccPRbhSD.s:685    .text:0000000000000494 .L0 
     /tmp/ccPRbhSD.s:686    .text:0000000000000494 .L0 
     /tmp/ccPRbhSD.s:688    .text:0000000000000498 .L0 
     /tmp/ccPRbhSD.s:708    .text:00000000000004bc .L0 
     /tmp/ccPRbhSD.s:709    .text:00000000000004bc .L0 
     /tmp/ccPRbhSD.s:710    .text:00000000000004bc .L0 
     /tmp/ccPRbhSD.s:715    .text:00000000000004cc .L0 
     /tmp/ccPRbhSD.s:716    .text:00000000000004cc .L0 
     /tmp/ccPRbhSD.s:717    .text:00000000000004cc .L0 
     /tmp/ccPRbhSD.s:721    .text:00000000000004dc .L0 
     /tmp/ccPRbhSD.s:722    .text:00000000000004dc .L0 
     /tmp/ccPRbhSD.s:726    .text:00000000000004e0 .L0 
     /tmp/ccPRbhSD.s:727    .text:00000000000004e0 .L0 
     /tmp/ccPRbhSD.s:731    .text:00000000000004e4 .L0 
     /tmp/ccPRbhSD.s:732    .text:00000000000004e4 .L0 
     /tmp/ccPRbhSD.s:733    .text:00000000000004e4 .L0 
     /tmp/ccPRbhSD.s:739    .text:00000000000004f4 .L0 
     /tmp/ccPRbhSD.s:740    .text:00000000000004f4 .L0 
     /tmp/ccPRbhSD.s:744    .text:0000000000000504 .L0 
     /tmp/ccPRbhSD.s:745    .text:0000000000000504 .L0 
     /tmp/ccPRbhSD.s:749    .text:0000000000000508 .L0 
     /tmp/ccPRbhSD.s:753    .text:000000000000050c .L0 
     /tmp/ccPRbhSD.s:754    .text:000000000000050c .L0 
     /tmp/ccPRbhSD.s:755    .text:000000000000050c .L0 
     /tmp/ccPRbhSD.s:759    .text:000000000000051c .L0 
     /tmp/ccPRbhSD.s:762    .text:0000000000000520 .L0 
     /tmp/ccPRbhSD.s:763    .text:0000000000000520 .L0 
     /tmp/ccPRbhSD.s:764    .text:0000000000000520 .L0 
     /tmp/ccPRbhSD.s:768    .text:0000000000000530 .L0 
     /tmp/ccPRbhSD.s:771    .text:0000000000000534 .L0 
     /tmp/ccPRbhSD.s:772    .text:0000000000000534 .L0 
     /tmp/ccPRbhSD.s:773    .text:0000000000000534 .L0 
     /tmp/ccPRbhSD.s:777    .text:0000000000000544 .L0 
GAS LISTING /tmp/ccPRbhSD.s 			page 52


     /tmp/ccPRbhSD.s:780    .text:0000000000000548 .L0 
     /tmp/ccPRbhSD.s:781    .text:0000000000000548 .L0 
     /tmp/ccPRbhSD.s:782    .text:0000000000000548 .L0 
     /tmp/ccPRbhSD.s:786    .text:0000000000000558 .L0 
     /tmp/ccPRbhSD.s:790    .text:000000000000055c .L0 
     /tmp/ccPRbhSD.s:791    .text:000000000000055c .L0 
     /tmp/ccPRbhSD.s:795    .text:000000000000056c .L0 
     /tmp/ccPRbhSD.s:796    .text:000000000000056c .L0 
     /tmp/ccPRbhSD.s:800    .text:0000000000000570 .L0 
     /tmp/ccPRbhSD.s:801    .text:0000000000000570 .L0 
     /tmp/ccPRbhSD.s:805    .text:0000000000000574 .L0 
     /tmp/ccPRbhSD.s:806    .text:0000000000000574 .L0 
     /tmp/ccPRbhSD.s:807    .text:0000000000000574 .L0 
     /tmp/ccPRbhSD.s:813    .text:0000000000000584 .L0 
     /tmp/ccPRbhSD.s:814    .text:0000000000000584 .L0 
     /tmp/ccPRbhSD.s:818    .text:0000000000000594 .L0 
     /tmp/ccPRbhSD.s:819    .text:0000000000000594 .L0 
     /tmp/ccPRbhSD.s:823    .text:0000000000000598 .L0 
     /tmp/ccPRbhSD.s:826    .text:000000000000059c .L0 
     /tmp/ccPRbhSD.s:827    .text:000000000000059c .L0 
     /tmp/ccPRbhSD.s:831    .text:00000000000005ac .L0 
     /tmp/ccPRbhSD.s:832    .text:00000000000005ac .L0 
     /tmp/ccPRbhSD.s:836    .text:00000000000005b0 .L0 
     /tmp/ccPRbhSD.s:837    .text:00000000000005b0 .L0 
     /tmp/ccPRbhSD.s:841    .text:00000000000005b4 .L0 
     /tmp/ccPRbhSD.s:842    .text:00000000000005b4 .L0 
     /tmp/ccPRbhSD.s:843    .text:00000000000005b4 .L0 
     /tmp/ccPRbhSD.s:849    .text:00000000000005c4 .L0 
     /tmp/ccPRbhSD.s:850    .text:00000000000005c4 .L0 
     /tmp/ccPRbhSD.s:854    .text:00000000000005d4 .L0 
     /tmp/ccPRbhSD.s:855    .text:00000000000005d4 .L0 
     /tmp/ccPRbhSD.s:859    .text:00000000000005d8 .L0 
     /tmp/ccPRbhSD.s:862    .text:00000000000005dc .L0 
     /tmp/ccPRbhSD.s:863    .text:00000000000005dc .L0 
     /tmp/ccPRbhSD.s:867    .text:00000000000005ec .L0 
     /tmp/ccPRbhSD.s:868    .text:00000000000005ec .L0 
     /tmp/ccPRbhSD.s:872    .text:00000000000005f8 .L0 
     /tmp/ccPRbhSD.s:873    .text:00000000000005f8 .L0 
     /tmp/ccPRbhSD.s:877    .text:0000000000000608 .L0 
     /tmp/ccPRbhSD.s:878    .text:000000000000060c .L0 
     /tmp/ccPRbhSD.s:880    .text:0000000000000610 .L0 
     /tmp/ccPRbhSD.s:881    .text:0000000000000610 .L0 
     /tmp/ccPRbhSD.s:883    .text:0000000000000614 .L0 
     /tmp/ccPRbhSD.s:886    .text:0000000000000618 .L0 
     /tmp/ccPRbhSD.s:888    .text:000000000000061c .L0 
     /tmp/ccPRbhSD.s:891    .text:0000000000000620 .L0 
     /tmp/ccPRbhSD.s:893    .text:0000000000000624 .L0 
     /tmp/ccPRbhSD.s:899    .text:0000000000000624 _ZN11ObjectCache8zero_outEPv
     /tmp/ccPRbhSD.s:902    .text:0000000000000624 .L0 
     /tmp/ccPRbhSD.s:904    .text:0000000000000624 .L0 
     /tmp/ccPRbhSD.s:905    .text:0000000000000628 .L0 
     /tmp/ccPRbhSD.s:907    .text:000000000000062c .L0 
     /tmp/ccPRbhSD.s:909    .text:0000000000000630 .L0 
     /tmp/ccPRbhSD.s:913    .text:0000000000000630 .L0 
     /tmp/ccPRbhSD.s:914    .text:0000000000000630 .L0 
     /tmp/ccPRbhSD.s:918    .text:0000000000000634 .L0 
     /tmp/ccPRbhSD.s:920    .text:0000000000000638 .L0 
GAS LISTING /tmp/ccPRbhSD.s 			page 53


     /tmp/ccPRbhSD.s:922    .text:000000000000063c .L0 
     /tmp/ccPRbhSD.s:924    .text:0000000000000640 .L0 
     /tmp/ccPRbhSD.s:925    .text:0000000000000640 .L0 
     /tmp/ccPRbhSD.s:927    .text:0000000000000644 .L0 
     /tmp/ccPRbhSD.s:933    .text:000000000000064c .L0 
     /tmp/ccPRbhSD.s:934    .text:0000000000000650 .L0 
     /tmp/ccPRbhSD.s:935    .text:0000000000000650 .L0 
     /tmp/ccPRbhSD.s:937    .text:0000000000000654 .L0 
     /tmp/ccPRbhSD.s:939    .text:0000000000000658 .L0 
     /tmp/ccPRbhSD.s:945    .text:0000000000000658 _ZN11ObjectCache10slab_allocEv
     /tmp/ccPRbhSD.s:948    .text:0000000000000658 .L0 
     /tmp/ccPRbhSD.s:950    .text:0000000000000658 .L0 
     /tmp/ccPRbhSD.s:951    .text:000000000000065c .L0 
     /tmp/ccPRbhSD.s:961    .text:0000000000000680 .L0 
     /tmp/ccPRbhSD.s:962    .text:0000000000000680 .L0 
     /tmp/ccPRbhSD.s:963    .text:0000000000000680 .L0 
     /tmp/ccPRbhSD.s:964    .text:0000000000000680 .L0 
     /tmp/ccPRbhSD.s:965    .text:0000000000000680 .L0 
     /tmp/ccPRbhSD.s:966    .text:0000000000000680 .L0 
     /tmp/ccPRbhSD.s:967    .text:0000000000000680 .L0 
     /tmp/ccPRbhSD.s:968    .text:0000000000000680 .L0 
     /tmp/ccPRbhSD.s:969    .text:0000000000000680 .L0 
     /tmp/ccPRbhSD.s:971    .text:0000000000000684 .L0 
     /tmp/ccPRbhSD.s:974    .text:0000000000000688 .L0 
     /tmp/ccPRbhSD.s:975    .text:0000000000000688 .L0 
     /tmp/ccPRbhSD.s:976    .text:0000000000000688 .L0 
     /tmp/ccPRbhSD.s:977    .text:0000000000000688 .L0 
     /tmp/ccPRbhSD.s:983    .text:0000000000000698 .L0 
     /tmp/ccPRbhSD.s:984    .text:0000000000000698 .L0 
     /tmp/ccPRbhSD.s:985    .text:0000000000000698 .L0 
     /tmp/ccPRbhSD.s:987    .text:000000000000069c .L0 
     /tmp/ccPRbhSD.s:989    .text:00000000000006a0 .L0 
     /tmp/ccPRbhSD.s:991    .text:00000000000006a4 .L0 
     /tmp/ccPRbhSD.s:995    .text:00000000000006ac .L0 
     /tmp/ccPRbhSD.s:996    .text:00000000000006ac .L0 
     /tmp/ccPRbhSD.s:999    .text:00000000000006b4 .L0 
     /tmp/ccPRbhSD.s:1005   .text:00000000000006c4 .L0 
     /tmp/ccPRbhSD.s:1008   .text:00000000000006c8 .L0 
     /tmp/ccPRbhSD.s:1009   .text:00000000000006c8 .L0 
     /tmp/ccPRbhSD.s:1010   .text:00000000000006c8 .L0 
     /tmp/ccPRbhSD.s:1013   .text:00000000000006cc .L0 
     /tmp/ccPRbhSD.s:1014   .text:00000000000006cc .L0 
     /tmp/ccPRbhSD.s:1017   .text:00000000000006d4 .L0 
     /tmp/ccPRbhSD.s:1020   .text:00000000000006d8 .L0 
     /tmp/ccPRbhSD.s:1021   .text:00000000000006d8 .L0 
     /tmp/ccPRbhSD.s:1023   .text:00000000000006dc .L0 
     /tmp/ccPRbhSD.s:1031   .text:00000000000006f8 .L0 
     /tmp/ccPRbhSD.s:1035   .text:00000000000006fc .L0 
     /tmp/ccPRbhSD.s:1036   .text:00000000000006fc .L0 
     /tmp/ccPRbhSD.s:1235   .text:000000000000086c _ZN11ObjectCache9alloc_objEv
     /tmp/ccPRbhSD.s:1037   .text:00000000000006fc .L0 
     /tmp/ccPRbhSD.s:1043   .text:0000000000000708 .L0 
     /tmp/ccPRbhSD.s:1044   .text:0000000000000708 .L0 
     /tmp/ccPRbhSD.s:1046   .text:000000000000070c .L0 
     /tmp/ccPRbhSD.s:1050   .text:0000000000000714 .L0 
     /tmp/ccPRbhSD.s:1051   .text:0000000000000714 .L0 
     /tmp/ccPRbhSD.s:1058   .text:000000000000072c .L0 
GAS LISTING /tmp/ccPRbhSD.s 			page 54


     /tmp/ccPRbhSD.s:1080   .text:000000000000077c .L0 
     /tmp/ccPRbhSD.s:1081   .text:000000000000077c .L0 
     /tmp/ccPRbhSD.s:1083   .text:0000000000000780 .L0 
     /tmp/ccPRbhSD.s:1086   .text:0000000000000788 .L0 
     /tmp/ccPRbhSD.s:1087   .text:0000000000000788 .L0 
     /tmp/ccPRbhSD.s:1090   .text:000000000000078c .L0 
     /tmp/ccPRbhSD.s:1091   .text:000000000000078c .L0 
     /tmp/ccPRbhSD.s:1096   .text:000000000000079c .L0 
     /tmp/ccPRbhSD.s:1098   .text:00000000000007a0 .L0 
     /tmp/ccPRbhSD.s:1099   .text:00000000000007a0 .L0 
     /tmp/ccPRbhSD.s:1105   .text:00000000000007a8 .L0 
     /tmp/ccPRbhSD.s:1106   .text:00000000000007a8 .L0 
     /tmp/ccPRbhSD.s:1109   .text:00000000000007b4 .L0 
     /tmp/ccPRbhSD.s:1110   .text:00000000000007b4 .L0 
     /tmp/ccPRbhSD.s:1115   .text:00000000000007bc .L0 
     /tmp/ccPRbhSD.s:1118   .text:00000000000007c4 .L0 
     /tmp/ccPRbhSD.s:1122   .text:00000000000007cc .L0 
     /tmp/ccPRbhSD.s:1126   .text:00000000000007d0 .L0 
     /tmp/ccPRbhSD.s:1128   .text:00000000000007d8 .L0 
     /tmp/ccPRbhSD.s:1129   .text:00000000000007d8 .L0 
     /tmp/ccPRbhSD.s:1131   .text:00000000000007dc .L0 
     /tmp/ccPRbhSD.s:1132   .text:00000000000007dc .L0 
     /tmp/ccPRbhSD.s:1134   .text:00000000000007e0 .L0 
     /tmp/ccPRbhSD.s:1136   .text:00000000000007e4 .L0 
     /tmp/ccPRbhSD.s:1139   .text:00000000000007e8 .L0 
     /tmp/ccPRbhSD.s:1141   .text:00000000000007ec .L0 
     /tmp/ccPRbhSD.s:1143   .text:00000000000007f0 .L0 
     /tmp/ccPRbhSD.s:1145   .text:00000000000007f4 .L0 
     /tmp/ccPRbhSD.s:1148   .text:00000000000007f8 .L0 
     /tmp/ccPRbhSD.s:1150   .text:00000000000007fc .L0 
     /tmp/ccPRbhSD.s:1154   .text:0000000000000800 .L0 
     /tmp/ccPRbhSD.s:1156   .text:0000000000000800 .L0 
     /tmp/ccPRbhSD.s:1157   .text:0000000000000800 .L0 
     /tmp/ccPRbhSD.s:1158   .text:0000000000000800 .L0 
     /tmp/ccPRbhSD.s:1159   .text:0000000000000800 .L0 
     /tmp/ccPRbhSD.s:1160   .text:0000000000000800 .L0 
     /tmp/ccPRbhSD.s:1162   .text:0000000000000804 .L0 
     /tmp/ccPRbhSD.s:1165   .text:0000000000000808 .L0 
     /tmp/ccPRbhSD.s:1167   .text:000000000000080c .L0 
     /tmp/ccPRbhSD.s:1171   .text:0000000000000810 .L0 
     /tmp/ccPRbhSD.s:1172   .text:0000000000000810 .L0 
     /tmp/ccPRbhSD.s:1173   .text:0000000000000810 .L0 
     /tmp/ccPRbhSD.s:1175   .text:0000000000000814 .L0 
     /tmp/ccPRbhSD.s:1178   .text:0000000000000818 .L0 
     /tmp/ccPRbhSD.s:1179   .text:0000000000000818 .L0 
     /tmp/ccPRbhSD.s:1181   .text:000000000000081c .L0 
     /tmp/ccPRbhSD.s:1185   .text:0000000000000820 .L0 
     /tmp/ccPRbhSD.s:1186   .text:0000000000000820 .L0 
     /tmp/ccPRbhSD.s:1194   .text:000000000000082c .L0 
     /tmp/ccPRbhSD.s:1195   .text:000000000000082c .L0 
     /tmp/ccPRbhSD.s:1201   .text:000000000000083c .L0 
     /tmp/ccPRbhSD.s:1203   .text:0000000000000840 .L0 
     /tmp/ccPRbhSD.s:1207   .text:0000000000000844 .L0 
     /tmp/ccPRbhSD.s:1208   .text:0000000000000844 .L0 
     /tmp/ccPRbhSD.s:1210   .text:0000000000000848 .L0 
     /tmp/ccPRbhSD.s:1212   .text:000000000000084c .L0 
     /tmp/ccPRbhSD.s:1214   .text:0000000000000850 .L0 
GAS LISTING /tmp/ccPRbhSD.s 			page 55


     /tmp/ccPRbhSD.s:1215   .text:0000000000000850 .L0 
     /tmp/ccPRbhSD.s:1217   .text:0000000000000854 .L0 
     /tmp/ccPRbhSD.s:1219   .text:0000000000000858 .L0 
     /tmp/ccPRbhSD.s:1220   .text:0000000000000858 .L0 
     /tmp/ccPRbhSD.s:1227   .text:0000000000000864 .L0 
     /tmp/ccPRbhSD.s:1229   .text:000000000000086c .L0 
     /tmp/ccPRbhSD.s:1238   .text:000000000000086c .L0 
     /tmp/ccPRbhSD.s:1240   .text:000000000000086c .L0 
     /tmp/ccPRbhSD.s:1241   .text:0000000000000870 .L0 
     /tmp/ccPRbhSD.s:1248   .text:0000000000000888 .L0 
     /tmp/ccPRbhSD.s:1249   .text:0000000000000888 .L0 
     /tmp/ccPRbhSD.s:1250   .text:0000000000000888 .L0 
     /tmp/ccPRbhSD.s:1251   .text:0000000000000888 .L0 
     /tmp/ccPRbhSD.s:1252   .text:0000000000000888 .L0 
     /tmp/ccPRbhSD.s:1253   .text:0000000000000888 .L0 
     /tmp/ccPRbhSD.s:1255   .text:000000000000088c .L0 
     /tmp/ccPRbhSD.s:1259   .text:0000000000000890 .L0 
     /tmp/ccPRbhSD.s:1260   .text:0000000000000890 .L0 
     /tmp/ccPRbhSD.s:1261   .text:0000000000000890 .L0 
     /tmp/ccPRbhSD.s:1262   .text:0000000000000890 .L0 
     /tmp/ccPRbhSD.s:1263   .text:0000000000000890 .L0 
     /tmp/ccPRbhSD.s:1265   .text:0000000000000894 .L0 
     /tmp/ccPRbhSD.s:1267   .text:0000000000000898 .L0 
     /tmp/ccPRbhSD.s:1268   .text:0000000000000898 .L0 
     /tmp/ccPRbhSD.s:1271   .text:000000000000089c .L0 
     /tmp/ccPRbhSD.s:1275   .text:00000000000008a0 .L0 
     /tmp/ccPRbhSD.s:1276   .text:00000000000008a0 .L0 
     /tmp/ccPRbhSD.s:1282   .text:00000000000008b0 .L0 
     /tmp/ccPRbhSD.s:1283   .text:00000000000008b0 .L0 
     /tmp/ccPRbhSD.s:1290   .text:00000000000008c4 .L0 
     /tmp/ccPRbhSD.s:1291   .text:00000000000008c4 .L0 
     /tmp/ccPRbhSD.s:1293   .text:00000000000008cc .L0 
     /tmp/ccPRbhSD.s:1294   .text:00000000000008cc .L0 
     /tmp/ccPRbhSD.s:1296   .text:00000000000008d0 .L0 
     /tmp/ccPRbhSD.s:1297   .text:00000000000008d0 .L0 
     /tmp/ccPRbhSD.s:1299   .text:00000000000008d4 .L0 
     /tmp/ccPRbhSD.s:1302   .text:00000000000008d8 .L0 
     /tmp/ccPRbhSD.s:1305   .text:00000000000008dc .L0 
     /tmp/ccPRbhSD.s:1308   .text:00000000000008e0 .L0 
     /tmp/ccPRbhSD.s:1311   .text:00000000000008e4 .L0 
     /tmp/ccPRbhSD.s:1315   .text:00000000000008e8 .L0 
     /tmp/ccPRbhSD.s:1317   .text:00000000000008e8 .L0 
     /tmp/ccPRbhSD.s:1318   .text:00000000000008e8 .L0 
     /tmp/ccPRbhSD.s:1320   .text:00000000000008ec .L0 
     /tmp/ccPRbhSD.s:1322   .text:00000000000008f0 .L0 
     /tmp/ccPRbhSD.s:1323   .text:00000000000008f0 .L0 
     /tmp/ccPRbhSD.s:1326   .text:00000000000008f4 .L0 
     /tmp/ccPRbhSD.s:1331   .text:00000000000008fc .L0 
     /tmp/ccPRbhSD.s:1332   .text:00000000000008fc .L0 
     /tmp/ccPRbhSD.s:1337   .text:0000000000000908 .L0 
     /tmp/ccPRbhSD.s:1339   .text:0000000000000910 .L0 
     /tmp/ccPRbhSD.s:1345   .text:0000000000000910 _ZN11ObjectCachenwEm
     /tmp/ccPRbhSD.s:1348   .text:0000000000000910 .L0 
     /tmp/ccPRbhSD.s:1350   .text:0000000000000910 .L0 
     /tmp/ccPRbhSD.s:1351   .text:0000000000000914 .L0 
     /tmp/ccPRbhSD.s:1354   .text:000000000000091c .L0 
     /tmp/ccPRbhSD.s:1355   .text:000000000000091c .L0 
GAS LISTING /tmp/ccPRbhSD.s 			page 56


     /tmp/ccPRbhSD.s:1357   .text:0000000000000920 .L0 
     /tmp/ccPRbhSD.s:1359   .text:0000000000000920 .L0 
     /tmp/ccPRbhSD.s:1360   .text:0000000000000920 .L0 
     /tmp/ccPRbhSD.s:1363   .text:0000000000000928 .L0 
     /tmp/ccPRbhSD.s:1366   .text:0000000000000930 .L0 
     /tmp/ccPRbhSD.s:1367   .text:0000000000000930 .L0 
     /tmp/ccPRbhSD.s:1368   .text:0000000000000934 .L0 
     /tmp/ccPRbhSD.s:1370   .text:0000000000000938 .L0 
     /tmp/ccPRbhSD.s:1371   .text:0000000000000938 .L0 
     /tmp/ccPRbhSD.s:1373   .text:000000000000093c .L0 
     /tmp/ccPRbhSD.s:1375   .text:0000000000000940 .L0 
     /tmp/ccPRbhSD.s:1381   .text:0000000000000940 _ZN11ObjectCache8free_objEPv
     /tmp/ccPRbhSD.s:1384   .text:0000000000000940 .L0 
     /tmp/ccPRbhSD.s:1386   .text:0000000000000940 .L0 
     /tmp/ccPRbhSD.s:1387   .text:0000000000000944 .L0 
     /tmp/ccPRbhSD.s:1395   .text:0000000000000960 .L0 
     /tmp/ccPRbhSD.s:1396   .text:0000000000000960 .L0 
     /tmp/ccPRbhSD.s:1397   .text:0000000000000960 .L0 
     /tmp/ccPRbhSD.s:1398   .text:0000000000000960 .L0 
     /tmp/ccPRbhSD.s:1399   .text:0000000000000960 .L0 
     /tmp/ccPRbhSD.s:1400   .text:0000000000000960 .L0 
     /tmp/ccPRbhSD.s:1401   .text:0000000000000960 .L0 
     /tmp/ccPRbhSD.s:1403   .text:0000000000000964 .L0 
     /tmp/ccPRbhSD.s:1407   .text:000000000000096c .L0 
     /tmp/ccPRbhSD.s:1408   .text:000000000000096c .L0 
     /tmp/ccPRbhSD.s:1411   .text:0000000000000974 .L0 
     /tmp/ccPRbhSD.s:1414   .text:0000000000000978 .L0 
     /tmp/ccPRbhSD.s:1415   .text:0000000000000978 .L0 
     /tmp/ccPRbhSD.s:1417   .text:000000000000097c .L0 
     /tmp/ccPRbhSD.s:1422   .text:0000000000000984 .L0 
     /tmp/ccPRbhSD.s:1423   .text:0000000000000984 .L0 
     /tmp/ccPRbhSD.s:1425   .text:0000000000000988 .L0 
     /tmp/ccPRbhSD.s:1427   .text:000000000000098c .L0 
     /tmp/ccPRbhSD.s:1428   .text:000000000000098c .L0 
     /tmp/ccPRbhSD.s:1431   .text:0000000000000998 .L0 
     /tmp/ccPRbhSD.s:1432   .text:0000000000000998 .L0 
     /tmp/ccPRbhSD.s:1435   .text:000000000000099c .L0 
     /tmp/ccPRbhSD.s:1437   .text:00000000000009a4 .L0 
     /tmp/ccPRbhSD.s:1438   .text:00000000000009a4 .L0 
     /tmp/ccPRbhSD.s:1440   .text:00000000000009a8 .L0 
     /tmp/ccPRbhSD.s:1441   .text:00000000000009a8 .L0 
     /tmp/ccPRbhSD.s:1443   .text:00000000000009ac .L0 
     /tmp/ccPRbhSD.s:1446   .text:00000000000009b0 .L0 
     /tmp/ccPRbhSD.s:1449   .text:00000000000009b4 .L0 
     /tmp/ccPRbhSD.s:1452   .text:00000000000009b8 .L0 
     /tmp/ccPRbhSD.s:1454   .text:00000000000009bc .L0 
     /tmp/ccPRbhSD.s:1456   .text:00000000000009c0 .L0 
     /tmp/ccPRbhSD.s:1460   .text:00000000000009c4 .L0 
     /tmp/ccPRbhSD.s:1462   .text:00000000000009c4 .L0 
     /tmp/ccPRbhSD.s:1463   .text:00000000000009c4 .L0 
     /tmp/ccPRbhSD.s:1469   .text:00000000000009d4 .L0 
     /tmp/ccPRbhSD.s:1472   .text:00000000000009d8 .L0 
     /tmp/ccPRbhSD.s:1474   .text:00000000000009dc .L0 
     /tmp/ccPRbhSD.s:1478   .text:00000000000009e4 .L0 
     /tmp/ccPRbhSD.s:1479   .text:00000000000009e4 .L0 
     /tmp/ccPRbhSD.s:1493   .text:0000000000000a00 .L0 
     /tmp/ccPRbhSD.s:1494   .text:0000000000000a00 .L0 
GAS LISTING /tmp/ccPRbhSD.s 			page 57


     /tmp/ccPRbhSD.s:1495   .text:0000000000000a00 .L0 
     /tmp/ccPRbhSD.s:1502   .text:0000000000000a0c .L0 
     /tmp/ccPRbhSD.s:1503   .text:0000000000000a0c .L0 
     /tmp/ccPRbhSD.s:1510   .text:0000000000000a20 .L0 
     /tmp/ccPRbhSD.s:1512   .text:0000000000000a24 .L0 
     /tmp/ccPRbhSD.s:1513   .text:0000000000000a24 .L0 
     /tmp/ccPRbhSD.s:1515   .text:0000000000000a28 .L0 
     /tmp/ccPRbhSD.s:1517   .text:0000000000000a2c .L0 
     /tmp/ccPRbhSD.s:1518   .text:0000000000000a2c .L0 
     /tmp/ccPRbhSD.s:1524   .text:0000000000000a34 .L0 
     /tmp/ccPRbhSD.s:1525   .text:0000000000000a34 .L0 
     /tmp/ccPRbhSD.s:1531   .text:0000000000000a48 .L0 
     /tmp/ccPRbhSD.s:1532   .text:0000000000000a48 .L0 
     /tmp/ccPRbhSD.s:1536   .text:0000000000000a4c .L0 
     /tmp/ccPRbhSD.s:1537   .text:0000000000000a4c .L0 
     /tmp/ccPRbhSD.s:1540   .text:0000000000000a58 .L0 
     /tmp/ccPRbhSD.s:1541   .text:0000000000000a58 .L0 
     /tmp/ccPRbhSD.s:1544   .text:0000000000000a5c .L0 
     /tmp/ccPRbhSD.s:1545   .text:0000000000000a5c .L0 
     /tmp/ccPRbhSD.s:1551   .text:0000000000000a70 .L0 
     /tmp/ccPRbhSD.s:1557   .text:0000000000000a70 _ZN11ObjectCachedlEPv
     /tmp/ccPRbhSD.s:1560   .text:0000000000000a70 .L0 
     /tmp/ccPRbhSD.s:1562   .text:0000000000000a70 .L0 
     /tmp/ccPRbhSD.s:1563   .text:0000000000000a74 .L0 
     /tmp/ccPRbhSD.s:1567   .text:0000000000000a80 .L0 
     /tmp/ccPRbhSD.s:1568   .text:0000000000000a80 .L0 
     /tmp/ccPRbhSD.s:1569   .text:0000000000000a80 .L0 
     /tmp/ccPRbhSD.s:1571   .text:0000000000000a84 .L0 
     /tmp/ccPRbhSD.s:1574   .text:0000000000000a88 .L0 
     /tmp/ccPRbhSD.s:1575   .text:0000000000000a88 .L0 
     /tmp/ccPRbhSD.s:1578   .text:0000000000000a90 .L0 
     /tmp/ccPRbhSD.s:1582   .text:0000000000000a9c .L0 
     /tmp/ccPRbhSD.s:1583   .text:0000000000000aa0 .L0 
     /tmp/ccPRbhSD.s:1585   .text:0000000000000aa4 .L0 
     /tmp/ccPRbhSD.s:1586   .text:0000000000000aa4 .L0 
     /tmp/ccPRbhSD.s:1588   .text:0000000000000aa8 .L0 
     /tmp/ccPRbhSD.s:1591   .text:0000000000000aac .L0 
     /tmp/ccPRbhSD.s:1593   .text:0000000000000ab0 .L0 
     /tmp/ccPRbhSD.s:1599   .text:0000000000000ab0 _ZN11ObjectCache6shrinkEv
     /tmp/ccPRbhSD.s:1602   .text:0000000000000ab0 .L0 
     /tmp/ccPRbhSD.s:1604   .text:0000000000000ab0 .L0 
     /tmp/ccPRbhSD.s:1605   .text:0000000000000ab4 .L0 
     /tmp/ccPRbhSD.s:1610   .text:0000000000000ac4 .L0 
     /tmp/ccPRbhSD.s:1611   .text:0000000000000ac4 .L0 
     /tmp/ccPRbhSD.s:1612   .text:0000000000000ac4 .L0 
     /tmp/ccPRbhSD.s:1613   .text:0000000000000ac4 .L0 
     /tmp/ccPRbhSD.s:1615   .text:0000000000000ac8 .L0 
     /tmp/ccPRbhSD.s:1618   .text:0000000000000acc .L0 
     /tmp/ccPRbhSD.s:1619   .text:0000000000000acc .L0 
     /tmp/ccPRbhSD.s:1621   .text:0000000000000ad0 .L0 
     /tmp/ccPRbhSD.s:1623   .text:0000000000000ad4 .L0 
     /tmp/ccPRbhSD.s:1624   .text:0000000000000ad4 .L0 
     /tmp/ccPRbhSD.s:1627   .text:0000000000000ae0 .L0 
     /tmp/ccPRbhSD.s:1628   .text:0000000000000ae0 .L0 
     /tmp/ccPRbhSD.s:1635   .text:0000000000000ae8 .L0 
     /tmp/ccPRbhSD.s:1636   .text:0000000000000ae8 .L0 
     /tmp/ccPRbhSD.s:1639   .text:0000000000000af0 .L0 
GAS LISTING /tmp/ccPRbhSD.s 			page 58


     /tmp/ccPRbhSD.s:1646   .text:0000000000000b00 .L0 
     /tmp/ccPRbhSD.s:1647   .text:0000000000000b00 .L0 
     /tmp/ccPRbhSD.s:1651   .text:0000000000000b08 .L0 
     /tmp/ccPRbhSD.s:1652   .text:0000000000000b08 .L0 
     /tmp/ccPRbhSD.s:1655   .text:0000000000000b0c .L0 
     /tmp/ccPRbhSD.s:1656   .text:0000000000000b0c .L0 
     /tmp/ccPRbhSD.s:1659   .text:0000000000000b14 .L0 
     /tmp/ccPRbhSD.s:1661   .text:0000000000000b18 .L0 
     /tmp/ccPRbhSD.s:1662   .text:0000000000000b18 .L0 
     /tmp/ccPRbhSD.s:1663   .text:0000000000000b18 .L0 
     /tmp/ccPRbhSD.s:1668   .text:0000000000000b28 .L0 
     /tmp/ccPRbhSD.s:1669   .text:0000000000000b28 .L0 
     /tmp/ccPRbhSD.s:1672   .text:0000000000000b30 .L0 
     /tmp/ccPRbhSD.s:1677   .text:0000000000000b40 .L0 
     /tmp/ccPRbhSD.s:1678   .text:0000000000000b40 .L0 
     /tmp/ccPRbhSD.s:1680   .text:0000000000000b44 .L0 
     /tmp/ccPRbhSD.s:1683   .text:0000000000000b4c .L0 
     /tmp/ccPRbhSD.s:1690   .text:0000000000000b58 .L0 
     /tmp/ccPRbhSD.s:1693   .text:0000000000000b5c .L0 
     /tmp/ccPRbhSD.s:1694   .text:0000000000000b60 .L0 
     /tmp/ccPRbhSD.s:1696   .text:0000000000000b64 .L0 
     /tmp/ccPRbhSD.s:1697   .text:0000000000000b64 .L0 
     /tmp/ccPRbhSD.s:1699   .text:0000000000000b68 .L0 
     /tmp/ccPRbhSD.s:1702   .text:0000000000000b6c .L0 
     /tmp/ccPRbhSD.s:1704   .text:0000000000000b70 .L0 
     /tmp/ccPRbhSD.s:1706   .text:0000000000000b74 .L0 
     /tmp/ccPRbhSD.s:1776   .text:0000000000000b74 .L0 
     /tmp/ccPRbhSD.s:1711   .rodata.str1.8:0000000000000000 .LC0
     /tmp/ccPRbhSD.s:634    .text:00000000000003e4 .L0 
     /tmp/ccPRbhSD.s:1714   .rodata.str1.8:0000000000000018 .LC1
     /tmp/ccPRbhSD.s:645    .text:0000000000000400 .L0 
     /tmp/ccPRbhSD.s:1717   .rodata.str1.8:0000000000000028 .LC2
     /tmp/ccPRbhSD.s:649    .text:0000000000000410 .L0 
     /tmp/ccPRbhSD.s:1720   .rodata.str1.8:0000000000000038 .LC3
     /tmp/ccPRbhSD.s:659    .text:0000000000000434 .L0 
     /tmp/ccPRbhSD.s:1723   .rodata.str1.8:0000000000000040 .LC4
     /tmp/ccPRbhSD.s:663    .text:0000000000000444 .L0 
     /tmp/ccPRbhSD.s:676    .text:0000000000000474 .L0 
     /tmp/ccPRbhSD.s:1726   .rodata.str1.8:0000000000000050 .LC5
     /tmp/ccPRbhSD.s:681    .text:0000000000000484 .L0 
     /tmp/ccPRbhSD.s:699    .rodata:0000000000000000 .L47
     /tmp/ccPRbhSD.s:691    .text:00000000000004a4 .L0 
     /tmp/ccPRbhSD.s:1729   .rodata.str1.8:0000000000000060 .LC6
     /tmp/ccPRbhSD.s:710    .text:00000000000004bc .L0 
     /tmp/ccPRbhSD.s:1744   .rodata.str1.8:00000000000000a8 .LC11
     /tmp/ccPRbhSD.s:717    .text:00000000000004cc .L0 
     /tmp/ccPRbhSD.s:740    .text:00000000000004f4 .L0 
     /tmp/ccPRbhSD.s:1732   .rodata.str1.8:0000000000000068 .LC7
     /tmp/ccPRbhSD.s:755    .text:000000000000050c .L0 
     /tmp/ccPRbhSD.s:1735   .rodata.str1.8:0000000000000078 .LC8
     /tmp/ccPRbhSD.s:764    .text:0000000000000520 .L0 
     /tmp/ccPRbhSD.s:1738   .rodata.str1.8:0000000000000088 .LC9
     /tmp/ccPRbhSD.s:773    .text:0000000000000534 .L0 
     /tmp/ccPRbhSD.s:1741   .rodata.str1.8:0000000000000098 .LC10
     /tmp/ccPRbhSD.s:782    .text:0000000000000548 .L0 
     /tmp/ccPRbhSD.s:1747   .rodata.str1.8:00000000000000c8 .LC12
     /tmp/ccPRbhSD.s:791    .text:000000000000055c .L0 
GAS LISTING /tmp/ccPRbhSD.s 			page 59


     /tmp/ccPRbhSD.s:814    .text:0000000000000584 .L0 
     /tmp/ccPRbhSD.s:1749   .rodata.str1.8:00000000000000e8 .LC13
     /tmp/ccPRbhSD.s:827    .text:000000000000059c .L0 
     /tmp/ccPRbhSD.s:850    .text:00000000000005c4 .L0 
     /tmp/ccPRbhSD.s:1752   .rodata.str1.8:0000000000000108 .LC14
     /tmp/ccPRbhSD.s:863    .text:00000000000005dc .L0 
     /tmp/ccPRbhSD.s:1754   .rodata.str1.8:0000000000000118 .LC15
     /tmp/ccPRbhSD.s:873    .text:00000000000005f8 .L0 
     /tmp/ccPRbhSD.s:1757   .rodata.str1.8:0000000000000128 .LC16
     /tmp/ccPRbhSD.s:1106   .text:00000000000007a8 .L0 
     /tmp/ccPRbhSD.s:1760   .rodata.str1.8:0000000000000140 .LC17
     /tmp/ccPRbhSD.s:1428   .text:000000000000098c .L0 
     /tmp/ccPRbhSD.s:1763   .rodata.str1.8:0000000000000180 .LC18
     /tmp/ccPRbhSD.s:1537   .text:0000000000000a4c .L0 
     /tmp/ccPRbhSD.s:1766   .rodata.str1.8:00000000000001b8 .LC19
     /tmp/ccPRbhSD.s:1624   .text:0000000000000ad4 .L0 
     /tmp/ccPRbhSD.s:75     .text:0000000000000074 .L6
     /tmp/ccPRbhSD.s:54     .text:0000000000000054 .L4
     /tmp/ccPRbhSD.s:48     .text:000000000000004c .L3
     /tmp/ccPRbhSD.s:145    .text:00000000000000ec .L11
     /tmp/ccPRbhSD.s:130    .text:00000000000000d8 .L8
     /tmp/ccPRbhSD.s:216    .text:0000000000000174 .L13
     /tmp/ccPRbhSD.s:248    .text:000000000000019c .L16
     /tmp/ccPRbhSD.s:223    .text:000000000000017c .L12
     /tmp/ccPRbhSD.s:326    .text:00000000000001f8 .L23
     /tmp/ccPRbhSD.s:358    .text:0000000000000238 .L24
     /tmp/ccPRbhSD.s:348    .text:0000000000000224 .L19
     /tmp/ccPRbhSD.s:308    .text:00000000000001e0 .L17
     /tmp/ccPRbhSD.s:337    .text:000000000000020c .L20
     /tmp/ccPRbhSD.s:442    .text:00000000000002c0 .L35
     /tmp/ccPRbhSD.s:467    .text:00000000000002ec .L25
     /tmp/ccPRbhSD.s:520    .text:0000000000000344 .L36
     /tmp/ccPRbhSD.s:495    .text:0000000000000318 .L27
     /tmp/ccPRbhSD.s:484    .text:0000000000000304 .L37
     /tmp/ccPRbhSD.s:457    .text:00000000000002d8 .L29
     /tmp/ccPRbhSD.s:510    .text:0000000000000330 .L38
     /tmp/ccPRbhSD.s:430    .text:00000000000002a8 .L33
     /tmp/ccPRbhSD.s:586    .text:00000000000003a0 .L40
     /tmp/ccPRbhSD.s:581    .text:000000000000039c .L42
     /tmp/ccPRbhSD.s:557    .text:0000000000000378 .L41
     /tmp/ccPRbhSD.s:714    .text:00000000000004cc .L45
     /tmp/ccPRbhSD.s:788    .text:000000000000055c .L52
     /tmp/ccPRbhSD.s:724    .text:00000000000004e0 .L53
     /tmp/ccPRbhSD.s:824    .text:000000000000059c .L54
     /tmp/ccPRbhSD.s:798    .text:0000000000000570 .L55
     /tmp/ccPRbhSD.s:860    .text:00000000000005dc .L56
     /tmp/ccPRbhSD.s:834    .text:00000000000005b0 .L57
     /tmp/ccPRbhSD.s:930    .text:000000000000064c .L59
     /tmp/ccPRbhSD.s:916    .text:0000000000000634 .L61
     /tmp/ccPRbhSD.s:1103   .text:00000000000007a8 .L80
     /tmp/ccPRbhSD.s:1153   .text:0000000000000800 .L66
     /tmp/ccPRbhSD.s:1113   .text:00000000000007bc .L81
     /tmp/ccPRbhSD.s:1169   .text:0000000000000810 .L69
     /tmp/ccPRbhSD.s:1225   .text:0000000000000864 .L78
     /tmp/ccPRbhSD.s:1183   .text:0000000000000820 .L82
     /tmp/ccPRbhSD.s:1061   .text:0000000000000738 .L72
     /tmp/ccPRbhSD.s:1088   .text:000000000000078c .L73
GAS LISTING /tmp/ccPRbhSD.s 			page 60


     /tmp/ccPRbhSD.s:1205   .text:0000000000000844 .L76
     /tmp/ccPRbhSD.s:1124   .text:00000000000007d0 .L63
     /tmp/ccPRbhSD.s:1120   .text:00000000000007cc .L83
     /tmp/ccPRbhSD.s:1033   .text:00000000000006fc .L68
     /tmp/ccPRbhSD.s:1041   .text:0000000000000708 .L70
     /tmp/ccPRbhSD.s:1048   .text:0000000000000714 .L71
     /tmp/ccPRbhSD.s:1192   .text:000000000000082c .L74
     /tmp/ccPRbhSD.s:1199   .text:000000000000083c .L75
     /tmp/ccPRbhSD.s:1314   .text:00000000000008e8 .L85
     /tmp/ccPRbhSD.s:1329   .text:00000000000008fc .L87
     /tmp/ccPRbhSD.s:1273   .text:00000000000008a0 .L86
     /tmp/ccPRbhSD.s:1459   .text:00000000000009c4 .L101
     /tmp/ccPRbhSD.s:1489   .text:0000000000000a00 .L95
     /tmp/ccPRbhSD.s:1476   .text:00000000000009e4 .L102
     /tmp/ccPRbhSD.s:1420   .text:0000000000000984 .L92
     /tmp/ccPRbhSD.s:1433   .text:000000000000099c .L94
     /tmp/ccPRbhSD.s:1470   .text:00000000000009d8 .L93
     /tmp/ccPRbhSD.s:1534   .text:0000000000000a4c .L103
     /tmp/ccPRbhSD.s:1542   .text:0000000000000a5c .L97
     /tmp/ccPRbhSD.s:1522   .text:0000000000000a34 .L98
     /tmp/ccPRbhSD.s:1643   .text:0000000000000b00 .L107
     /tmp/ccPRbhSD.s:1691   .text:0000000000000b5c .L108
     /tmp/ccPRbhSD.s:1687   .text:0000000000000b58 .L111
     /tmp/ccPRbhSD.s:1632   .text:0000000000000ae8 .L109
     /tmp/ccPRbhSD.s:706    .text:00000000000004bc .L51
     /tmp/ccPRbhSD.s:751    .text:000000000000050c .L50
     /tmp/ccPRbhSD.s:760    .text:0000000000000520 .L49
     /tmp/ccPRbhSD.s:769    .text:0000000000000534 .L48
     /tmp/ccPRbhSD.s:778    .text:0000000000000548 .L46
     /tmp/ccPRbhSD.s:4799   .debug_abbrev:0000000000000000 .Ldebug_abbrev0
     /tmp/ccPRbhSD.s:7435   .debug_str:00000000000005a2 .LASF218
     /tmp/ccPRbhSD.s:7471   .debug_str:0000000000000791 .LASF219
     /tmp/ccPRbhSD.s:7581   .debug_str:0000000000000b11 .LASF220
     /tmp/ccPRbhSD.s:8      .text:0000000000000000 .Ltext0
     /tmp/ccPRbhSD.s:1769   .text:0000000000000b74 .Letext0
     /tmp/ccPRbhSD.s:7251   .debug_line:0000000000000000 .Ldebug_line0
     /tmp/ccPRbhSD.s:7293   .debug_str:0000000000000117 .LASF0
     /tmp/ccPRbhSD.s:7673   .debug_str:0000000000000d8e .LASF1
     /tmp/ccPRbhSD.s:7671   .debug_str:0000000000000d88 .LASF3
     /tmp/ccPRbhSD.s:7625   .debug_str:0000000000000c27 .LASF2
     /tmp/ccPRbhSD.s:7593   .debug_str:0000000000000b59 .LASF4
     /tmp/ccPRbhSD.s:7601   .debug_str:0000000000000b8e .LASF5
     /tmp/ccPRbhSD.s:7403   .debug_str:00000000000004a2 .LASF6
     /tmp/ccPRbhSD.s:7447   .debug_str:00000000000006cb .LASF7
     /tmp/ccPRbhSD.s:7551   .debug_str:0000000000000a16 .LASF8
     /tmp/ccPRbhSD.s:7325   .debug_str:00000000000001d1 .LASF9
     /tmp/ccPRbhSD.s:7659   .debug_str:0000000000000d1b .LASF10
     /tmp/ccPRbhSD.s:7407   .debug_str:00000000000004b1 .LASF11
     /tmp/ccPRbhSD.s:7357   .debug_str:00000000000002f4 .LASF12
     /tmp/ccPRbhSD.s:7459   .debug_str:0000000000000736 .LASF13
     /tmp/ccPRbhSD.s:7411   .debug_str:00000000000004cc .LASF14
     /tmp/ccPRbhSD.s:7577   .debug_str:0000000000000b00 .LASF15
     /tmp/ccPRbhSD.s:7413   .debug_str:00000000000004dc .LASF16
     /tmp/ccPRbhSD.s:7395   .debug_str:0000000000000455 .LASF17
     /tmp/ccPRbhSD.s:7695   .debug_str:0000000000000e5a .LASF64
     /tmp/ccPRbhSD.s:7295   .debug_str:0000000000000124 .LASF18
     /tmp/ccPRbhSD.s:7335   .debug_str:000000000000020d .LASF19
GAS LISTING /tmp/ccPRbhSD.s 			page 61


     /tmp/ccPRbhSD.s:7341   .debug_str:0000000000000268 .LASF66
     /tmp/ccPRbhSD.s:7557   .debug_str:0000000000000a37 .LASF25
     /tmp/ccPRbhSD.s:7431   .debug_str:000000000000058c .LASF221
     /tmp/ccPRbhSD.s:7301   .debug_str:0000000000000141 .LASF20
     /tmp/ccPRbhSD.s:7633   .debug_str:0000000000000c4e .LASF21
     /tmp/ccPRbhSD.s:7689   .debug_str:0000000000000e27 .LASF22
     /tmp/ccPRbhSD.s:7281   .debug_str:00000000000000c1 .LASF23
     /tmp/ccPRbhSD.s:7465   .debug_str:0000000000000762 .LASF24
     /tmp/ccPRbhSD.s:7389   .debug_str:0000000000000402 .LASF30
     /tmp/ccPRbhSD.s:7339   .debug_str:0000000000000235 .LASF27
     /tmp/ccPRbhSD.s:7527   .debug_str:000000000000097a .LASF26
     /tmp/ccPRbhSD.s:7535   .debug_str:00000000000009bf .LASF28
     /tmp/ccPRbhSD.s:7519   .debug_str:0000000000000947 .LASF38
     /tmp/ccPRbhSD.s:7421   .debug_str:000000000000054f .LASF40
     /tmp/ccPRbhSD.s:7427   .debug_str:0000000000000579 .LASF29
     /tmp/ccPRbhSD.s:7441   .debug_str:0000000000000692 .LASF31
     /tmp/ccPRbhSD.s:7449   .debug_str:00000000000006de .LASF32
     /tmp/ccPRbhSD.s:7507   .debug_str:00000000000008af .LASF33
     /tmp/ccPRbhSD.s:7521   .debug_str:0000000000000957 .LASF34
     /tmp/ccPRbhSD.s:7469   .debug_str:0000000000000777 .LASF35
     /tmp/ccPRbhSD.s:7627   .debug_str:0000000000000c35 .LASF36
     /tmp/ccPRbhSD.s:7513   .debug_str:000000000000090b .LASF37
     /tmp/ccPRbhSD.s:7657   .debug_str:0000000000000d0e .LASF39
     /tmp/ccPRbhSD.s:7509   .debug_str:00000000000008cc .LASF41
     /tmp/ccPRbhSD.s:7275   .debug_str:0000000000000080 .LASF42
     /tmp/ccPRbhSD.s:7511   .debug_str:00000000000008ee .LASF43
     /tmp/ccPRbhSD.s:7583   .debug_str:0000000000000b34 .LASF44
     /tmp/ccPRbhSD.s:7329   .debug_str:00000000000001ef .LASF45
     /tmp/ccPRbhSD.s:7621   .debug_str:0000000000000c1a .LASF46
     /tmp/ccPRbhSD.s:7623   .debug_str:0000000000000c22 .LASF47
     /tmp/ccPRbhSD.s:7491   .debug_str:0000000000000823 .LASF48
     /tmp/ccPRbhSD.s:7479   .debug_str:00000000000007e6 .LASF49
     /tmp/ccPRbhSD.s:7613   .debug_str:0000000000000bdc .LASF50
     /tmp/ccPRbhSD.s:7563   .debug_str:0000000000000a8f .LASF51
     /tmp/ccPRbhSD.s:7303   .debug_str:0000000000000146 .LASF52
     /tmp/ccPRbhSD.s:7545   .debug_str:0000000000000a02 .LASF53
     /tmp/ccPRbhSD.s:7645   .debug_str:0000000000000cc2 .LASF54
     /tmp/ccPRbhSD.s:7505   .debug_str:0000000000000889 .LASF55
     /tmp/ccPRbhSD.s:7495   .debug_str:0000000000000838 .LASF56
     /tmp/ccPRbhSD.s:7575   .debug_str:0000000000000ae1 .LASF57
     /tmp/ccPRbhSD.s:7423   .debug_str:0000000000000565 .LASF58
     /tmp/ccPRbhSD.s:7337   .debug_str:0000000000000212 .LASF59
     /tmp/ccPRbhSD.s:7611   .debug_str:0000000000000bce .LASF60
     /tmp/ccPRbhSD.s:7417   .debug_str:000000000000051e .LASF61
     /tmp/ccPRbhSD.s:7665   .debug_str:0000000000000d5f .LASF62
     /tmp/ccPRbhSD.s:7393   .debug_str:000000000000042a .LASF63
     /tmp/ccPRbhSD.s:7651   .debug_str:0000000000000cdc .LASF65
     /tmp/ccPRbhSD.s:7415   .debug_str:00000000000004f2 .LASF67
     /tmp/ccPRbhSD.s:7443   .debug_str:00000000000006af .LASF68
     /tmp/ccPRbhSD.s:7579   .debug_str:0000000000000b0c .LASF69
     /tmp/ccPRbhSD.s:7703   .debug_str:0000000000000e8c .LASF99
     /tmp/ccPRbhSD.s:7547   .debug_str:0000000000000a07 .LASF70
     /tmp/ccPRbhSD.s:7317   .debug_str:00000000000001a4 .LASF71
     /tmp/ccPRbhSD.s:7473   .debug_str:00000000000007b9 .LASF72
     /tmp/ccPRbhSD.s:7595   .debug_str:0000000000000b60 .LASF73
     /tmp/ccPRbhSD.s:7363   .debug_str:0000000000000330 .LASF74
     /tmp/ccPRbhSD.s:7475   .debug_str:00000000000007bf .LASF75
GAS LISTING /tmp/ccPRbhSD.s 			page 62


     /tmp/ccPRbhSD.s:7701   .debug_str:0000000000000e84 .LASF76
     /tmp/ccPRbhSD.s:7685   .debug_str:0000000000000e0c .LASF77
     /tmp/ccPRbhSD.s:7543   .debug_str:00000000000009f8 .LASF78
     /tmp/ccPRbhSD.s:7453   .debug_str:0000000000000702 .LASF79
     /tmp/ccPRbhSD.s:7405   .debug_str:00000000000004a9 .LASF80
     /tmp/ccPRbhSD.s:7523   .debug_str:000000000000095e .LASF81
     /tmp/ccPRbhSD.s:7379   .debug_str:0000000000000395 .LASF82
     /tmp/ccPRbhSD.s:7477   .debug_str:00000000000007dc .LASF113
     /tmp/ccPRbhSD.s:7355   .debug_str:00000000000002e4 .LASF222
     /tmp/ccPRbhSD.s:7255   .debug_str:000000000000001a .LASF83
     /tmp/ccPRbhSD.s:7697   .debug_str:0000000000000e61 .LASF84
     /tmp/ccPRbhSD.s:7549   .debug_str:0000000000000a0e .LASF85
     /tmp/ccPRbhSD.s:7533   .debug_str:00000000000009ab .LASF86
     /tmp/ccPRbhSD.s:7261   .debug_str:000000000000003c .LASF87
     /tmp/ccPRbhSD.s:7699   .debug_str:0000000000000e74 .LASF88
     /tmp/ccPRbhSD.s:7425   .debug_str:0000000000000574 .LASF89
     /tmp/ccPRbhSD.s:7361   .debug_str:0000000000000320 .LASF90
     /tmp/ccPRbhSD.s:7331   .debug_str:00000000000001f5 .LASF91
     /tmp/ccPRbhSD.s:7385   .debug_str:00000000000003d3 .LASF92
     /tmp/ccPRbhSD.s:7433   .debug_str:0000000000000599 .LASF93
     /tmp/ccPRbhSD.s:7457   .debug_str:0000000000000721 .LASF94
     /tmp/ccPRbhSD.s:7573   .debug_str:0000000000000adc .LASF95
     /tmp/ccPRbhSD.s:7639   .debug_str:0000000000000c75 .LASF96
     /tmp/ccPRbhSD.s:7637   .debug_str:0000000000000c64 .LASF97
     /tmp/ccPRbhSD.s:7265   .debug_str:0000000000000051 .LASF98
     /tmp/ccPRbhSD.s:7371   .debug_str:0000000000000365 .LASF100
     /tmp/ccPRbhSD.s:7463   .debug_str:0000000000000751 .LASF101
     /tmp/ccPRbhSD.s:7503   .debug_str:000000000000087a .LASF102
     /tmp/ccPRbhSD.s:7467   .debug_str:000000000000076c .LASF103
     /tmp/ccPRbhSD.s:7493   .debug_str:000000000000082d .LASF104
     /tmp/ccPRbhSD.s:7271   .debug_str:000000000000006c .LASF105
     /tmp/ccPRbhSD.s:7599   .debug_str:0000000000000b77 .LASF106
     /tmp/ccPRbhSD.s:7257   .debug_str:0000000000000022 .LASF107
     /tmp/ccPRbhSD.s:7285   .debug_str:00000000000000cf .LASF108
     /tmp/ccPRbhSD.s:7351   .debug_str:00000000000002ae .LASF109
     /tmp/ccPRbhSD.s:7391   .debug_str:0000000000000417 .LASF110
     /tmp/ccPRbhSD.s:7387   .debug_str:00000000000003ea .LASF111
     /tmp/ccPRbhSD.s:7445   .debug_str:00000000000006b4 .LASF112
     /tmp/ccPRbhSD.s:7541   .debug_str:00000000000009df .LASF114
     /tmp/ccPRbhSD.s:7365   .debug_str:000000000000033b .LASF115
     /tmp/ccPRbhSD.s:7333   .debug_str:0000000000000200 .LASF116
     /tmp/ccPRbhSD.s:7277   .debug_str:0000000000000089 .LASF117
     /tmp/ccPRbhSD.s:7419   .debug_str:0000000000000541 .LASF118
     /tmp/ccPRbhSD.s:7683   .debug_str:0000000000000ddb .LASF119
     /tmp/ccPRbhSD.s:7321   .debug_str:00000000000001b7 .LASF164
     /tmp/ccPRbhSD.s:7439   .debug_str:0000000000000670 .LASF165
     /tmp/ccPRbhSD.s:7587   .debug_str:0000000000000b3f .LASF120
     /tmp/ccPRbhSD.s:7663   .debug_str:0000000000000d3d .LASF121
     /tmp/ccPRbhSD.s:7629   .debug_str:0000000000000c3f .LASF122
     /tmp/ccPRbhSD.s:7643   .debug_str:0000000000000ca5 .LASF123
     /tmp/ccPRbhSD.s:7487   .debug_str:000000000000080d .LASF124
     /tmp/ccPRbhSD.s:7401   .debug_str:0000000000000486 .LASF125
     /tmp/ccPRbhSD.s:7605   .debug_str:0000000000000bb1 .LASF126
     /tmp/ccPRbhSD.s:7319   .debug_str:00000000000001b1 .LASF127
     /tmp/ccPRbhSD.s:7609   .debug_str:0000000000000bc8 .LASF128
     /tmp/ccPRbhSD.s:7531   .debug_str:0000000000000998 .LASF129
     /tmp/ccPRbhSD.s:7539   .debug_str:00000000000009d9 .LASF130
GAS LISTING /tmp/ccPRbhSD.s 			page 63


     /tmp/ccPRbhSD.s:7345   .debug_str:0000000000000286 .LASF131
     /tmp/ccPRbhSD.s:7343   .debug_str:000000000000027c .LASF132
     /tmp/ccPRbhSD.s:7373   .debug_str:0000000000000376 .LASF133
     /tmp/ccPRbhSD.s:7617   .debug_str:0000000000000bf6 .LASF134
     /tmp/ccPRbhSD.s:7299   .debug_str:0000000000000133 .LASF135
     /tmp/ccPRbhSD.s:7311   .debug_str:0000000000000181 .LASF136
     /tmp/ccPRbhSD.s:7607   .debug_str:0000000000000bb9 .LASF137
     /tmp/ccPRbhSD.s:7489   .debug_str:0000000000000813 .LASF138
     /tmp/ccPRbhSD.s:7603   .debug_str:0000000000000ba0 .LASF139
     /tmp/ccPRbhSD.s:7377   .debug_str:0000000000000384 .LASF140
     /tmp/ccPRbhSD.s:7323   .debug_str:00000000000001c3 .LASF141
     /tmp/ccPRbhSD.s:7451   .debug_str:00000000000006e7 .LASF142
     /tmp/ccPRbhSD.s:7409   .debug_str:00000000000004c0 .LASF143
     /tmp/ccPRbhSD.s:7641   .debug_str:0000000000000c83 .LASF144
     /tmp/ccPRbhSD.s:7529   .debug_str:0000000000000987 .LASF145
     /tmp/ccPRbhSD.s:7381   .debug_str:00000000000003a2 .LASF146
     /tmp/ccPRbhSD.s:7367   .debug_str:0000000000000355 .LASF147
     /tmp/ccPRbhSD.s:7567   .debug_str:0000000000000a9d .LASF148
     /tmp/ccPRbhSD.s:7429   .debug_str:0000000000000583 .LASF149
     /tmp/ccPRbhSD.s:7359   .debug_str:0000000000000303 .LASF150
     /tmp/ccPRbhSD.s:7485   .debug_str:0000000000000801 .LASF151
     /tmp/ccPRbhSD.s:7559   .debug_str:0000000000000a43 .LASF152
     /tmp/ccPRbhSD.s:7397   .debug_str:000000000000046b .LASF153
     /tmp/ccPRbhSD.s:7269   .debug_str:0000000000000064 .LASF154
     /tmp/ccPRbhSD.s:7661   .debug_str:0000000000000d29 .LASF155
     /tmp/ccPRbhSD.s:7287   .debug_str:00000000000000e6 .LASF156
     /tmp/ccPRbhSD.s:7353   .debug_str:00000000000002c6 .LASF157
     /tmp/ccPRbhSD.s:7667   .debug_str:0000000000000d70 .LASF158
     /tmp/ccPRbhSD.s:7309   .debug_str:0000000000000169 .LASF159
     /tmp/ccPRbhSD.s:7279   .debug_str:00000000000000b8 .LASF160
     /tmp/ccPRbhSD.s:7693   .debug_str:0000000000000e45 .LASF161
     /tmp/ccPRbhSD.s:7649   .debug_str:0000000000000cd1 .LASF223
     /tmp/ccPRbhSD.s:7297   .debug_str:0000000000000129 .LASF162
     /tmp/ccPRbhSD.s:7497   .debug_str:0000000000000843 .LASF163
     /tmp/ccPRbhSD.s:7305   .debug_str:000000000000014b .LASF166
     /tmp/ccPRbhSD.s:7635   .debug_str:0000000000000c57 .LASF167
     /tmp/ccPRbhSD.s:7253   .debug_str:0000000000000000 .LASF168
     /tmp/ccPRbhSD.s:7259   .debug_str:0000000000000032 .LASF169
     /tmp/ccPRbhSD.s:7619   .debug_str:0000000000000c04 .LASF170
     /tmp/ccPRbhSD.s:7267   .debug_str:000000000000005b .LASF171
     /tmp/ccPRbhSD.s:7569   .debug_str:0000000000000ab7 .LASF172
     /tmp/ccPRbhSD.s:7597   .debug_str:0000000000000b65 .LASF173
     /tmp/ccPRbhSD.s:7461   .debug_str:0000000000000746 .LASF174
     /tmp/ccPRbhSD.s:7517   .debug_str:0000000000000935 .LASF175
     /tmp/ccPRbhSD.s:7653   .debug_str:0000000000000cee .LASF176
     /tmp/ccPRbhSD.s:7289   .debug_str:00000000000000f5 .LASF177
     /tmp/ccPRbhSD.s:7571   .debug_str:0000000000000ace .LASF178
     /tmp/ccPRbhSD.s:7315   .debug_str:0000000000000195 .LASF179
     /tmp/ccPRbhSD.s:7669   .debug_str:0000000000000d7b .LASF180
     /tmp/ccPRbhSD.s:7615   .debug_str:0000000000000be6 .LASF181
     /tmp/ccPRbhSD.s:7327   .debug_str:00000000000001e1 .LASF182
     /tmp/ccPRbhSD.s:7675   .debug_str:0000000000000da1 .LASF183
     /tmp/ccPRbhSD.s:7499   .debug_str:000000000000085b .LASF184
     /tmp/ccPRbhSD.s:900    .text:0000000000000624 .LFB128
     /tmp/ccPRbhSD.s:940    .text:0000000000000658 .LFE128
     /tmp/ccPRbhSD.s:7537   .debug_str:00000000000009d4 .LASF185
     /tmp/ccPRbhSD.s:912    .text:0000000000000630 .LBB21
GAS LISTING /tmp/ccPRbhSD.s 			page 64


     /tmp/ccPRbhSD.s:931    .text:000000000000064c .LBE21
     /tmp/ccPRbhSD.s:6105   .debug_loc:0000000000000000 .LLST31
     /tmp/ccPRbhSD.s:612    .text:00000000000003c0 .LFB127
     /tmp/ccPRbhSD.s:894    .text:0000000000000624 .LFE127
     /tmp/ccPRbhSD.s:6116   .debug_loc:0000000000000036 .LLST25
     /tmp/ccPRbhSD.s:7283   .debug_str:00000000000000c9 .LASF186
     /tmp/ccPRbhSD.s:6134   .debug_loc:0000000000000082 .LLST26
     /tmp/ccPRbhSD.s:6148   .debug_loc:00000000000000bb .LLST27
     /tmp/ccPRbhSD.s:728    .text:00000000000004e4 .LBB18
     /tmp/ccPRbhSD.s:747    .text:0000000000000508 .LBE18
     /tmp/ccPRbhSD.s:7565   .debug_str:0000000000000a94 .LASF187
     /tmp/ccPRbhSD.s:6159   .debug_loc:00000000000000f1 .LLST28
     /tmp/ccPRbhSD.s:737    .text:00000000000004f4 .LVL90
     /tmp/ccPRbhSD.s:742    .text:0000000000000504 .LVL91
     /tmp/ccPRbhSD.s:802    .text:0000000000000574 .LBB19
     /tmp/ccPRbhSD.s:821    .text:0000000000000598 .LBE19
     /tmp/ccPRbhSD.s:6178   .debug_loc:0000000000000140 .LLST29
     /tmp/ccPRbhSD.s:811    .text:0000000000000584 .LVL103
     /tmp/ccPRbhSD.s:816    .text:0000000000000594 .LVL104
     /tmp/ccPRbhSD.s:838    .text:00000000000005b4 .LBB20
     /tmp/ccPRbhSD.s:857    .text:00000000000005d8 .LBE20
     /tmp/ccPRbhSD.s:6197   .debug_loc:000000000000018f .LLST30
     /tmp/ccPRbhSD.s:847    .text:00000000000005c4 .LVL110
     /tmp/ccPRbhSD.s:852    .text:00000000000005d4 .LVL111
     /tmp/ccPRbhSD.s:637    .text:00000000000003f4 .LVL74
     /tmp/ccPRbhSD.s:642    .text:0000000000000400 .LVL75
     /tmp/ccPRbhSD.s:647    .text:0000000000000410 .LVL76
     /tmp/ccPRbhSD.s:651    .text:0000000000000420 .LVL77
     /tmp/ccPRbhSD.s:657    .text:0000000000000434 .LVL78
     /tmp/ccPRbhSD.s:661    .text:0000000000000444 .LVL79
     /tmp/ccPRbhSD.s:665    .text:0000000000000454 .LVL80
     /tmp/ccPRbhSD.s:670    .text:0000000000000464 .LVL81
     /tmp/ccPRbhSD.s:674    .text:0000000000000474 .LVL82
     /tmp/ccPRbhSD.s:678    .text:0000000000000484 .LVL83
     /tmp/ccPRbhSD.s:683    .text:0000000000000494 .LVL84
     /tmp/ccPRbhSD.s:712    .text:00000000000004cc .LVL85
     /tmp/ccPRbhSD.s:719    .text:00000000000004dc .LVL86
     /tmp/ccPRbhSD.s:757    .text:000000000000051c .LVL94
     /tmp/ccPRbhSD.s:766    .text:0000000000000530 .LVL95
     /tmp/ccPRbhSD.s:775    .text:0000000000000544 .LVL96
     /tmp/ccPRbhSD.s:784    .text:0000000000000558 .LVL97
     /tmp/ccPRbhSD.s:793    .text:000000000000056c .LVL99
     /tmp/ccPRbhSD.s:829    .text:00000000000005ac .LVL106
     /tmp/ccPRbhSD.s:865    .text:00000000000005ec .LVL113
     /tmp/ccPRbhSD.s:870    .text:00000000000005f8 .LVL114
     /tmp/ccPRbhSD.s:875    .text:0000000000000608 .LVL115
     /tmp/ccPRbhSD.s:1600   .text:0000000000000ab0 .LFB126
     /tmp/ccPRbhSD.s:1707   .text:0000000000000b74 .LFE126
     /tmp/ccPRbhSD.s:6216   .debug_loc:00000000000001de .LLST52
     /tmp/ccPRbhSD.s:7231   .debug_ranges:0000000000000000 .Ldebug_ranges0
     /tmp/ccPRbhSD.s:7313   .debug_str:0000000000000190 .LASF188
     /tmp/ccPRbhSD.s:6234   .debug_loc:000000000000022a .LLST53
     /tmp/ccPRbhSD.s:7679   .debug_str:0000000000000dc8 .LASF189
     /tmp/ccPRbhSD.s:1637   .text:0000000000000af0 .LVL205
     /tmp/ccPRbhSD.s:1642   .text:0000000000000b00 .LVL206
     /tmp/ccPRbhSD.s:1657   .text:0000000000000b14 .LVL208
     /tmp/ccPRbhSD.s:1666   .text:0000000000000b28 .LVL209
GAS LISTING /tmp/ccPRbhSD.s 			page 65


     /tmp/ccPRbhSD.s:1670   .text:0000000000000b30 .LVL210
     /tmp/ccPRbhSD.s:1675   .text:0000000000000b40 .LVL211
     /tmp/ccPRbhSD.s:1382   .text:0000000000000940 .LFB125
     /tmp/ccPRbhSD.s:1552   .text:0000000000000a70 .LFE125
     /tmp/ccPRbhSD.s:6245   .debug_loc:0000000000000260 .LLST46
     /tmp/ccPRbhSD.s:6267   .debug_loc:00000000000002bf .LLST47
     /tmp/ccPRbhSD.s:7369   .debug_str:000000000000035b .LASF190
     /tmp/ccPRbhSD.s:6293   .debug_loc:0000000000000331 .LLST48
     /tmp/ccPRbhSD.s:7553   .debug_str:0000000000000a29 .LASF191
     /tmp/ccPRbhSD.s:6320   .debug_loc:00000000000003b3 .LLST49
     /tmp/ccPRbhSD.s:1491   .text:0000000000000a00 .LBB22
     /tmp/ccPRbhSD.s:1500   .text:0000000000000a0c .LBE22
     /tmp/ccPRbhSD.s:6331   .debug_loc:00000000000003e9 .LLST50
     /tmp/ccPRbhSD.s:1465   .text:00000000000009d0 .LVL183
     /tmp/ccPRbhSD.s:1484   .text:00000000000009f8 .LVL186
     /tmp/ccPRbhSD.s:1506   .text:0000000000000a1c .LVL190
     /tmp/ccPRbhSD.s:1521   .text:0000000000000a34 .LVL193
     /tmp/ccPRbhSD.s:1529   .text:0000000000000a48 .LVL194
     /tmp/ccPRbhSD.s:1549   .text:0000000000000a6c .LVL197
     /tmp/ccPRbhSD.s:535    .text:0000000000000354 .LFB124
     /tmp/ccPRbhSD.s:606    .text:00000000000003c0 .LFE124
     /tmp/ccPRbhSD.s:6338   .debug_loc:000000000000040c .LLST20
     /tmp/ccPRbhSD.s:7647   .debug_str:0000000000000ccc .LASF192
     /tmp/ccPRbhSD.s:6352   .debug_loc:0000000000000445 .LLST21
     /tmp/ccPRbhSD.s:7307   .debug_str:0000000000000164 .LASF193
     /tmp/ccPRbhSD.s:6370   .debug_loc:0000000000000491 .LLST22
     /tmp/ccPRbhSD.s:6384   .debug_loc:00000000000004ca .LLST23
     /tmp/ccPRbhSD.s:6391   .debug_loc:00000000000004ed .LLST24
     /tmp/ccPRbhSD.s:571    .text:0000000000000390 .LVL68
     /tmp/ccPRbhSD.s:383    .text:0000000000000260 .LFB123
     /tmp/ccPRbhSD.s:529    .text:0000000000000354 .LFE123
     /tmp/ccPRbhSD.s:6398   .debug_loc:0000000000000510 .LLST16
     /tmp/ccPRbhSD.s:6436   .debug_loc:00000000000005bb .LLST17
     /tmp/ccPRbhSD.s:6474   .debug_loc:0000000000000659 .LLST18
     /tmp/ccPRbhSD.s:403    .text:0000000000000280 .LBB14
     /tmp/ccPRbhSD.s:412    .text:0000000000000288 .LBE14
     /tmp/ccPRbhSD.s:6543   .debug_loc:000000000000075f .LLST19
     /tmp/ccPRbhSD.s:429    .text:00000000000002a8 .LVL48
     /tmp/ccPRbhSD.s:436    .text:00000000000002b8 .LVL49
     /tmp/ccPRbhSD.s:456    .text:00000000000002d8 .LVL52
     /tmp/ccPRbhSD.s:463    .text:00000000000002e8 .LVL53
     /tmp/ccPRbhSD.s:490    .text:0000000000000310 .LVL57
     /tmp/ccPRbhSD.s:507    .text:000000000000032c .LVL60
     /tmp/ccPRbhSD.s:515    .text:000000000000033c .LVL62
     /tmp/ccPRbhSD.s:524    .text:000000000000034c .LVL64
     /tmp/ccPRbhSD.s:1236   .text:000000000000086c .LFB122
     /tmp/ccPRbhSD.s:1340   .text:0000000000000910 .LFE122
     /tmp/ccPRbhSD.s:6550   .debug_loc:0000000000000782 .LLST41
     /tmp/ccPRbhSD.s:7273   .debug_str:0000000000000077 .LASF194
     /tmp/ccPRbhSD.s:6576   .debug_loc:00000000000007f4 .LLST42
     /tmp/ccPRbhSD.s:6593   .debug_loc:000000000000083f .LLST43
     /tmp/ccPRbhSD.s:6623   .debug_loc:00000000000008c4 .LLST44
     /tmp/ccPRbhSD.s:1278   .text:00000000000008ac .LVL160
     /tmp/ccPRbhSD.s:1288   .text:00000000000008c4 .LVL163
     /tmp/ccPRbhSD.s:1333   .text:0000000000000904 .LVL171
     /tmp/ccPRbhSD.s:273    .text:00000000000001b0 .LFB121
     /tmp/ccPRbhSD.s:377    .text:0000000000000260 .LFE121
GAS LISTING /tmp/ccPRbhSD.s 			page 66


     /tmp/ccPRbhSD.s:6648   .debug_loc:0000000000000935 .LLST12
     /tmp/ccPRbhSD.s:6670   .debug_loc:0000000000000994 .LLST13
     /tmp/ccPRbhSD.s:6712   .debug_loc:0000000000000a52 .LLST14
     /tmp/ccPRbhSD.s:293    .text:00000000000001d0 .LBB12
     /tmp/ccPRbhSD.s:301    .text:00000000000001d4 .LBE12
     /tmp/ccPRbhSD.s:6759   .debug_loc:0000000000000b06 .LLST15
     /tmp/ccPRbhSD.s:334    .text:0000000000000208 .LVL37
     /tmp/ccPRbhSD.s:343    .text:000000000000021c .LVL38
     /tmp/ccPRbhSD.s:353    .text:0000000000000230 .LVL40
     /tmp/ccPRbhSD.s:363    .text:0000000000000244 .LVL42
     /tmp/ccPRbhSD.s:371    .text:0000000000000258 .LVL43
     /tmp/ccPRbhSD.s:946    .text:0000000000000658 .LFB120
     /tmp/ccPRbhSD.s:1230   .text:000000000000086c .LFE120
     /tmp/ccPRbhSD.s:6766   .debug_loc:0000000000000b29 .LLST32
     /tmp/ccPRbhSD.s:7687   .debug_str:0000000000000e1f .LASF195
     /tmp/ccPRbhSD.s:6788   .debug_loc:0000000000000b88 .LLST33
     /tmp/ccPRbhSD.s:7525   .debug_str:0000000000000971 .LASF196
     /tmp/ccPRbhSD.s:6819   .debug_loc:0000000000000c1d .LLST34
     /tmp/ccPRbhSD.s:7585   .debug_str:0000000000000b39 .LASF197
     /tmp/ccPRbhSD.s:6840   .debug_loc:0000000000000c7c .LLST35
     /tmp/ccPRbhSD.s:7455   .debug_str:0000000000000717 .LASF198
     /tmp/ccPRbhSD.s:6867   .debug_loc:0000000000000cfe .LLST36
     /tmp/ccPRbhSD.s:6882   .debug_loc:0000000000000d47 .LLST37
     /tmp/ccPRbhSD.s:7347   .debug_str:0000000000000294 .LASF199
     /tmp/ccPRbhSD.s:6901   .debug_loc:0000000000000da3 .LLST38
     /tmp/ccPRbhSD.s:7501   .debug_str:000000000000086b .LASF200
     /tmp/ccPRbhSD.s:6924   .debug_loc:0000000000000e12 .LLST39
     /tmp/ccPRbhSD.s:6943   .debug_loc:0000000000000e6e .LLST40
     /tmp/ccPRbhSD.s:979    .text:0000000000000694 .LVL123
     /tmp/ccPRbhSD.s:997    .text:00000000000006b4 .LVL126
     /tmp/ccPRbhSD.s:1001   .text:00000000000006c0 .LVL127
     /tmp/ccPRbhSD.s:1015   .text:00000000000006d4 .LVL131
     /tmp/ccPRbhSD.s:1038   .text:0000000000000704 .LVL134
     /tmp/ccPRbhSD.s:1056   .text:000000000000072c .LVL136
     /tmp/ccPRbhSD.s:1094   .text:000000000000079c .LVL137
     /tmp/ccPRbhSD.s:1198   .text:000000000000083c .LVL152
     /tmp/ccPRbhSD.s:1222   .text:0000000000000860 .LVL154
     /tmp/ccPRbhSD.s:1558   .text:0000000000000a70 .LFB119
     /tmp/ccPRbhSD.s:1594   .text:0000000000000ab0 .LFE119
     /tmp/ccPRbhSD.s:6954   .debug_loc:0000000000000ea4 .LLST51
     /tmp/ccPRbhSD.s:1576   .text:0000000000000a90 .LVL199
     /tmp/ccPRbhSD.s:1580   .text:0000000000000a9c .LVL200
     /tmp/ccPRbhSD.s:1346   .text:0000000000000910 .LFB118
     /tmp/ccPRbhSD.s:1376   .text:0000000000000940 .LFE118
     /tmp/ccPRbhSD.s:7481   .debug_str:00000000000007f0 .LASF201
     /tmp/ccPRbhSD.s:6972   .debug_loc:0000000000000ef0 .LLST45
     /tmp/ccPRbhSD.s:1361   .text:0000000000000928 .LVL174
     /tmp/ccPRbhSD.s:1364   .text:0000000000000930 .LVL175
     /tmp/ccPRbhSD.s:13     .text:0000000000000000 .LFB117
     /tmp/ccPRbhSD.s:90     .text:000000000000009c .LFE117
     /tmp/ccPRbhSD.s:6986   .debug_loc:0000000000000f29 .LLST0
     /tmp/ccPRbhSD.s:7263   .debug_str:0000000000000041 .LASF202
     /tmp/ccPRbhSD.s:7011   .debug_loc:0000000000000f8b .LLST1
     /tmp/ccPRbhSD.s:7037   .debug_loc:0000000000000ffd .LLST2
     /tmp/ccPRbhSD.s:43     .text:000000000000003c .LVL2
     /tmp/ccPRbhSD.s:47     .text:000000000000004c .LVL3
     /tmp/ccPRbhSD.s:83     .text:0000000000000088 .LVL8
GAS LISTING /tmp/ccPRbhSD.s 			page 67


     /tmp/ccPRbhSD.s:87     .text:0000000000000098 .LVL9
     /tmp/ccPRbhSD.s:96     .text:000000000000009c .LFB116
     /tmp/ccPRbhSD.s:151    .text:00000000000000f4 .LFE116
     /tmp/ccPRbhSD.s:7044   .debug_loc:0000000000001020 .LLST3
     /tmp/ccPRbhSD.s:7066   .debug_loc:000000000000107f .LLST4
     /tmp/ccPRbhSD.s:115    .text:00000000000000c0 .LVL11
     /tmp/ccPRbhSD.s:7631   .debug_str:0000000000000c47 .LASF203
     /tmp/ccPRbhSD.s:7383   .debug_str:00000000000003c9 .LASF204
     /tmp/ccPRbhSD.s:7349   .debug_str:00000000000002a7 .LASF205
     /tmp/ccPRbhSD.s:7681   .debug_str:0000000000000dd4 .LASF206
     /tmp/ccPRbhSD.s:7591   .debug_str:0000000000000b52 .LASF207
     /tmp/ccPRbhSD.s:7483   .debug_str:00000000000007f5 .LASF224
     /tmp/ccPRbhSD.s:7561   .debug_str:0000000000000a5c .LASF225
     /tmp/ccPRbhSD.s:157    .text:00000000000000f4 .LFB114
     /tmp/ccPRbhSD.s:265    .text:00000000000001b0 .LFE114
     /tmp/ccPRbhSD.s:7079   .debug_loc:00000000000010b7 .LLST5
     /tmp/ccPRbhSD.s:7101   .debug_loc:0000000000001116 .LLST6
     /tmp/ccPRbhSD.s:7125   .debug_loc:0000000000001177 .LLST7
     /tmp/ccPRbhSD.s:7149   .debug_loc:00000000000011d8 .LLST8
     /tmp/ccPRbhSD.s:7171   .debug_loc:0000000000001237 .LLST9
     /tmp/ccPRbhSD.s:7193   .debug_loc:0000000000001296 .LLST10
     /tmp/ccPRbhSD.s:7207   .debug_loc:00000000000012cf .LLST11
     /tmp/ccPRbhSD.s:203    .text:0000000000000160 .LVL21
     /tmp/ccPRbhSD.s:257    .text:00000000000001a8 .LVL29
     /tmp/ccPRbhSD.s:195    .text:000000000000014c .LVL20
     /tmp/ccPRbhSD.s:7691   .debug_str:0000000000000e31 .LASF208
     /tmp/ccPRbhSD.s:7515   .debug_str:0000000000000928 .LASF210
     /tmp/ccPRbhSD.s:7655   .debug_str:0000000000000cfe .LASF209
     /tmp/ccPRbhSD.s:7437   .debug_str:0000000000000666 .LASF211
     /tmp/ccPRbhSD.s:7291   .debug_str:0000000000000105 .LASF212
     /tmp/ccPRbhSD.s:7399   .debug_str:000000000000047f .LASF213
     /tmp/ccPRbhSD.s:7677   .debug_str:0000000000000db3 .LASF214
     /tmp/ccPRbhSD.s:7589   .debug_str:0000000000000b4b .LASF215
     /tmp/ccPRbhSD.s:7375   .debug_str:000000000000037b .LASF216
     /tmp/ccPRbhSD.s:7555   .debug_str:0000000000000a32 .LASF217
     /tmp/ccPRbhSD.s:911    .text:0000000000000630 .LVL119
     /tmp/ccPRbhSD.s:915    .text:0000000000000634 .LVL120
     /tmp/ccPRbhSD.s:615    .text:00000000000003c0 .LVL72
     /tmp/ccPRbhSD.s:635    .text:00000000000003ec .LVL73
     /tmp/ccPRbhSD.s:889    .text:000000000000061c .LVL117
     /tmp/ccPRbhSD.s:723    .text:00000000000004e0 .LVL87
     /tmp/ccPRbhSD.s:750    .text:000000000000050c .LVL93
     /tmp/ccPRbhSD.s:787    .text:000000000000055c .LVL98
     /tmp/ccPRbhSD.s:884    .text:0000000000000614 .LVL116
     /tmp/ccPRbhSD.s:730    .text:00000000000004e4 .LVL88
     /tmp/ccPRbhSD.s:735    .text:00000000000004ec .LVL89
     /tmp/ccPRbhSD.s:746    .text:0000000000000508 .LVL92
     /tmp/ccPRbhSD.s:804    .text:0000000000000574 .LVL101
     /tmp/ccPRbhSD.s:809    .text:000000000000057c .LVL102
     /tmp/ccPRbhSD.s:820    .text:0000000000000598 .LVL105
     /tmp/ccPRbhSD.s:840    .text:00000000000005b4 .LVL108
     /tmp/ccPRbhSD.s:845    .text:00000000000005bc .LVL109
     /tmp/ccPRbhSD.s:856    .text:00000000000005d8 .LVL112
     /tmp/ccPRbhSD.s:1603   .text:0000000000000ab0 .LVL202
     /tmp/ccPRbhSD.s:1629   .text:0000000000000ae4 .LVL203
     /tmp/ccPRbhSD.s:1700   .text:0000000000000b68 .LVL213
     /tmp/ccPRbhSD.s:1631   .text:0000000000000ae8 .LVL204
GAS LISTING /tmp/ccPRbhSD.s 			page 68


     /tmp/ccPRbhSD.s:1653   .text:0000000000000b0c .LVL207
     /tmp/ccPRbhSD.s:1686   .text:0000000000000b58 .LVL212
     /tmp/ccPRbhSD.s:1385   .text:0000000000000940 .LVL176
     /tmp/ccPRbhSD.s:1419   .text:0000000000000984 .LVL178
     /tmp/ccPRbhSD.s:1444   .text:00000000000009ac .LVL179
     /tmp/ccPRbhSD.s:1458   .text:00000000000009c4 .LVL182
     /tmp/ccPRbhSD.s:1450   .text:00000000000009b4 .LVL181
     /tmp/ccPRbhSD.s:1412   .text:0000000000000978 .LVL177
     /tmp/ccPRbhSD.s:1447   .text:00000000000009b0 .LVL180
     /tmp/ccPRbhSD.s:1467   .text:00000000000009d4 .LVL184
     /tmp/ccPRbhSD.s:1482   .text:00000000000009f0 .LVL185
     /tmp/ccPRbhSD.s:1486   .text:00000000000009fc .LVL187
     /tmp/ccPRbhSD.s:1488   .text:0000000000000a00 .LVL188
     /tmp/ccPRbhSD.s:1508   .text:0000000000000a20 .LVL191
     /tmp/ccPRbhSD.s:1519   .text:0000000000000a30 .LVL192
     /tmp/ccPRbhSD.s:1533   .text:0000000000000a4c .LVL195
     /tmp/ccPRbhSD.s:1547   .text:0000000000000a64 .LVL196
     /tmp/ccPRbhSD.s:1498   .text:0000000000000a0c .LVL189
     /tmp/ccPRbhSD.s:538    .text:0000000000000354 .LVL65
     /tmp/ccPRbhSD.s:556    .text:0000000000000378 .LVL66
     /tmp/ccPRbhSD.s:601    .text:00000000000003b8 .LVL71
     /tmp/ccPRbhSD.s:585    .text:00000000000003a0 .LVL70
     /tmp/ccPRbhSD.s:565    .text:0000000000000380 .LVL67
     /tmp/ccPRbhSD.s:386    .text:0000000000000260 .LVL44
     /tmp/ccPRbhSD.s:422    .text:0000000000000298 .LVL47
     /tmp/ccPRbhSD.s:441    .text:00000000000002c0 .LVL50
     /tmp/ccPRbhSD.s:448    .text:00000000000002c8 .LVL51
     /tmp/ccPRbhSD.s:479    .text:00000000000002fc .LVL55
     /tmp/ccPRbhSD.s:483    .text:0000000000000304 .LVL56
     /tmp/ccPRbhSD.s:494    .text:0000000000000318 .LVL58
     /tmp/ccPRbhSD.s:499    .text:000000000000031c .LVL59
     /tmp/ccPRbhSD.s:466    .text:00000000000002ec .LVL54
     /tmp/ccPRbhSD.s:519    .text:0000000000000344 .LVL63
     /tmp/ccPRbhSD.s:509    .text:0000000000000330 .LVL61
     /tmp/ccPRbhSD.s:402    .text:0000000000000280 .LVL45
     /tmp/ccPRbhSD.s:410    .text:0000000000000288 .LVL46
     /tmp/ccPRbhSD.s:1239   .text:000000000000086c .LVL156
     /tmp/ccPRbhSD.s:1272   .text:00000000000008a0 .LVL159
     /tmp/ccPRbhSD.s:1303   .text:00000000000008d8 .LVL165
     /tmp/ccPRbhSD.s:1313   .text:00000000000008e8 .LVL168
     /tmp/ccPRbhSD.s:1258   .text:0000000000000890 .LVL157
     /tmp/ccPRbhSD.s:1309   .text:00000000000008e0 .LVL167
     /tmp/ccPRbhSD.s:1269   .text:000000000000089c .LVL158
     /tmp/ccPRbhSD.s:1300   .text:00000000000008d4 .LVL164
     /tmp/ccPRbhSD.s:1324   .text:00000000000008f4 .LVL169
     /tmp/ccPRbhSD.s:1328   .text:00000000000008fc .LVL170
     /tmp/ccPRbhSD.s:1335   .text:0000000000000908 .LVL172
     /tmp/ccPRbhSD.s:1280   .text:00000000000008b0 .LVL161
     /tmp/ccPRbhSD.s:1286   .text:00000000000008bc .LVL162
     /tmp/ccPRbhSD.s:1306   .text:00000000000008dc .LVL166
     /tmp/ccPRbhSD.s:276    .text:00000000000001b0 .LVL30
     /tmp/ccPRbhSD.s:307    .text:00000000000001e0 .LVL33
     /tmp/ccPRbhSD.s:318    .text:00000000000001ec .LVL34
     /tmp/ccPRbhSD.s:325    .text:00000000000001f8 .LVL36
     /tmp/ccPRbhSD.s:321    .text:00000000000001f0 .LVL35
     /tmp/ccPRbhSD.s:347    .text:0000000000000224 .LVL39
     /tmp/ccPRbhSD.s:357    .text:0000000000000238 .LVL41
GAS LISTING /tmp/ccPRbhSD.s 			page 69


     /tmp/ccPRbhSD.s:292    .text:00000000000001d0 .LVL31
     /tmp/ccPRbhSD.s:299    .text:00000000000001d4 .LVL32
     /tmp/ccPRbhSD.s:949    .text:0000000000000658 .LVL122
     /tmp/ccPRbhSD.s:1137   .text:00000000000007e4 .LVL142
     /tmp/ccPRbhSD.s:1152   .text:0000000000000800 .LVL144
     /tmp/ccPRbhSD.s:993    .text:00000000000006ac .LVL125
     /tmp/ccPRbhSD.s:1032   .text:00000000000006fc .LVL133
     /tmp/ccPRbhSD.s:1102   .text:00000000000007a8 .LVL139
     /tmp/ccPRbhSD.s:1123   .text:00000000000007d0 .LVL141
     /tmp/ccPRbhSD.s:1182   .text:0000000000000820 .LVL148
     /tmp/ccPRbhSD.s:1187   .text:0000000000000824 .LVL149
     /tmp/ccPRbhSD.s:1189   .text:0000000000000828 .LVL150
     /tmp/ccPRbhSD.s:1224   .text:0000000000000864 .LVL155
     /tmp/ccPRbhSD.s:1011   .text:00000000000006cc .LVL130
     /tmp/ccPRbhSD.s:1112   .text:00000000000007bc .LVL140
     /tmp/ccPRbhSD.s:1163   .text:0000000000000808 .LVL145
     /tmp/ccPRbhSD.s:1003   .text:00000000000006c4 .LVL128
     /tmp/ccPRbhSD.s:1100   .text:00000000000007a4 .LVL138
     /tmp/ccPRbhSD.s:1191   .text:000000000000082c .LVL151
     /tmp/ccPRbhSD.s:981    .text:0000000000000698 .LVL124
     /tmp/ccPRbhSD.s:1146   .text:00000000000007f4 .LVL143
     /tmp/ccPRbhSD.s:1040   .text:0000000000000708 .LVL135
     /tmp/ccPRbhSD.s:1168   .text:0000000000000810 .LVL146
     /tmp/ccPRbhSD.s:1176   .text:0000000000000818 .LVL147
     /tmp/ccPRbhSD.s:1007   .text:00000000000006c8 .LVL129
     /tmp/ccPRbhSD.s:1018   .text:00000000000006d8 .LVL132
     /tmp/ccPRbhSD.s:1561   .text:0000000000000a70 .LVL198
     /tmp/ccPRbhSD.s:1589   .text:0000000000000aa8 .LVL201
     /tmp/ccPRbhSD.s:1349   .text:0000000000000910 .LVL173
     /tmp/ccPRbhSD.s:17     .text:0000000000000000 .LVL0
     /tmp/ccPRbhSD.s:41     .text:0000000000000034 .LVL1
     /tmp/ccPRbhSD.s:74     .text:0000000000000074 .LVL6
     /tmp/ccPRbhSD.s:81     .text:0000000000000080 .LVL7
     /tmp/ccPRbhSD.s:70     .text:000000000000006c .LVL5
     /tmp/ccPRbhSD.s:59     .text:000000000000005c .LVL4
     /tmp/ccPRbhSD.s:99     .text:000000000000009c .LVL10
     /tmp/ccPRbhSD.s:140    .text:00000000000000e4 .LVL14
     /tmp/ccPRbhSD.s:144    .text:00000000000000ec .LVL15
     /tmp/ccPRbhSD.s:119    .text:00000000000000c4 .LVL12
     /tmp/ccPRbhSD.s:124    .text:00000000000000cc .LVL13
     /tmp/ccPRbhSD.s:160    .text:00000000000000f4 .LVL16
     /tmp/ccPRbhSD.s:193    .text:0000000000000144 .LVL19
     /tmp/ccPRbhSD.s:235    .text:0000000000000188 .LVL24
     /tmp/ccPRbhSD.s:247    .text:000000000000019c .LVL27
     /tmp/ccPRbhSD.s:191    .text:0000000000000140 .LVL18
     /tmp/ccPRbhSD.s:189    .text:000000000000013c .LVL17
     /tmp/ccPRbhSD.s:243    .text:0000000000000194 .LVL26
     /tmp/ccPRbhSD.s:240    .text:0000000000000190 .LVL25
     /tmp/ccPRbhSD.s:207    .text:0000000000000168 .LVL22
     /tmp/ccPRbhSD.s:222    .text:000000000000017c .LVL23
     /tmp/ccPRbhSD.s:255    .text:00000000000001a0 .LVL28
     /tmp/ccPRbhSD.s:1777   .debug_info:0000000000000000 .Ldebug_info0
     /tmp/ccPRbhSD.s:198    .text:0000000000000154 .LBB9
     /tmp/ccPRbhSD.s:224    .text:000000000000017c .LBE9
     /tmp/ccPRbhSD.s:251    .text:000000000000019c .LBB10
     /tmp/ccPRbhSD.s:260    .text:00000000000001ac .LBE10
     /tmp/ccPRbhSD.s:561    .text:000000000000037c .LBB16
GAS LISTING /tmp/ccPRbhSD.s 			page 70


     /tmp/ccPRbhSD.s:578    .text:0000000000000398 .LBE16
     /tmp/ccPRbhSD.s:582    .text:000000000000039c .LBB17
     /tmp/ccPRbhSD.s:587    .text:00000000000003a0 .LBE17
     /tmp/ccPRbhSD.s:1633   .text:0000000000000ae8 .LBB24
     /tmp/ccPRbhSD.s:1644   .text:0000000000000b00 .LBE24
     /tmp/ccPRbhSD.s:1649   .text:0000000000000b08 .LBB25
     /tmp/ccPRbhSD.s:1688   .text:0000000000000b58 .LBE25

UNDEFINED SYMBOLS
_Z4log2m
_ZN6list_tC1EPS_S0_
_Z6removeP6list_t
_Z6insertP6list_tS0_
_ZN4Slab8containsEPv
_Z12kprintStringPKc
_Z9kprintIntmib
_ZN4Slab10print_infoEc
_ZN5Buddy11getInstanceEv
_ZN5Buddy9mem_allocEh
_ZN13SlabAllocator11getInstanceEv
_ZN4SlabC1EhPvP11ObjectCache
_ZN4Slab7get_objEv
_ZN4Slab7put_objEPv
_ZN5Buddy8mem_freeEPvh
