GAS LISTING /tmp/ccpJ2pYY.s 			page 1


   1              		.file	"object_cache.cpp"
   2              		.option nopic
   3              		.option norelax
   4              		.attribute arch, "rv64i2p0_m2p0_a2p0"
   5              		.attribute unaligned_access, 0
   6              		.attribute stack_align, 16
   7              		.text
   8              	.Ltext0:
   9              		.align	2
  10              		.globl	_ZN11ObjectCache13get_slab_sizeEPh
  12              	_ZN11ObjectCache13get_slab_sizeEPh:
  13              	.LFB117:
  14              		.file 1 "src/kernel/mmanagement/object_cache.cpp"
   1:src/kernel/mmanagement/object_cache.cpp **** #include"../../../h/kernel_lib.h"
   2:src/kernel/mmanagement/object_cache.cpp **** 
   3:src/kernel/mmanagement/object_cache.cpp **** 
   4:src/kernel/mmanagement/object_cache.cpp **** ObjectCache::ObjectCache(const char* t_name, size_t t_objsize,
   5:src/kernel/mmanagement/object_cache.cpp ****     void (*t_ctor)(void*), void(*t_dtor)(void*), SlabMetaType t_type)
   6:src/kernel/mmanagement/object_cache.cpp ****         : name(t_name),objsize(t_objsize), free_head(nullptr)
   7:src/kernel/mmanagement/object_cache.cpp ****         , part_head(nullptr), full_head(nullptr), node()
   8:src/kernel/mmanagement/object_cache.cpp ****         , ctor(t_ctor), dtor(t_dtor)
   9:src/kernel/mmanagement/object_cache.cpp **** {
  10:src/kernel/mmanagement/object_cache.cpp ****     size_t lowest_size = Buddy::BLOCK_SIZE >> log2(Slab::RB_SIZE);
  11:src/kernel/mmanagement/object_cache.cpp ****     if(objsize < lowest_size) objsize = lowest_size;
  12:src/kernel/mmanagement/object_cache.cpp ****     
  13:src/kernel/mmanagement/object_cache.cpp ****     type = t_type;
  14:src/kernel/mmanagement/object_cache.cpp ****     if(t_type == NONE){ type = calculate_type(); }
  15:src/kernel/mmanagement/object_cache.cpp **** 
  16:src/kernel/mmanagement/object_cache.cpp ****     error = nullptr;
  17:src/kernel/mmanagement/object_cache.cpp **** }
  18:src/kernel/mmanagement/object_cache.cpp **** 
  19:src/kernel/mmanagement/object_cache.cpp **** 
  20:src/kernel/mmanagement/object_cache.cpp **** ObjectCache::SlabMetaType ObjectCache::calculate_type(){
  21:src/kernel/mmanagement/object_cache.cpp ****     size_t slab_size = get_slab_size();
  22:src/kernel/mmanagement/object_cache.cpp ****     if( (slab_size - sizeof(void*))  % objsize >= sizeof(Slab))
  23:src/kernel/mmanagement/object_cache.cpp ****         return ON_SLAB;
  24:src/kernel/mmanagement/object_cache.cpp ****     else
  25:src/kernel/mmanagement/object_cache.cpp ****         return OFF_SLAB;
  26:src/kernel/mmanagement/object_cache.cpp ****     return NONE;
  27:src/kernel/mmanagement/object_cache.cpp **** }
  28:src/kernel/mmanagement/object_cache.cpp **** 
  29:src/kernel/mmanagement/object_cache.cpp **** 
  30:src/kernel/mmanagement/object_cache.cpp **** 
  31:src/kernel/mmanagement/object_cache.cpp **** size_t ObjectCache::get_slab_size(uchar* buddy_level_ptr){
  15              		.loc 1 31 58
  16              		.cfi_startproc
  17              	.LVL0:
  18 0000 130101FE 		addi	sp,sp,-32
  19              		.cfi_def_cfa_offset 32
  20 0004 233C1100 		sd	ra,24(sp)
  21 0008 23388100 		sd	s0,16(sp)
  22 000c 23349100 		sd	s1,8(sp)
  23 0010 23302101 		sd	s2,0(sp)
  24              		.cfi_offset 1, -8
  25              		.cfi_offset 8, -16
  26              		.cfi_offset 9, -24
  27              		.cfi_offset 18, -32
GAS LISTING /tmp/ccpJ2pYY.s 			page 2


  28 0014 13040102 		addi	s0,sp,32
  29              		.cfi_def_cfa 8, 0
  30 0018 13890500 		mv	s2,a1
  32:src/kernel/mmanagement/object_cache.cpp ****     uchar buddy_level = 
  31              		.loc 1 32 5
  33:src/kernel/mmanagement/object_cache.cpp ****         type == BUFF_SLAB ?
  32              		.loc 1 33 9 is_stmt 0
  33 001c 03278501 		lw	a4,24(a0)
  34              		.loc 1 33 27
  35 0020 93074000 		li	a5,4
  36 0024 6308F704 		beq	a4,a5,.L6
  34:src/kernel/mmanagement/object_cache.cpp ****         BUDDY_LEVEL(objsize) : BUDDY_LEVEL(objsize+sizeof(Slab*));
  37              		.loc 1 34 32 discriminator 2
  38 0028 83340501 		ld	s1,16(a0)
  39 002c 93847400 		addi	s1,s1,7
  40 0030 37150000 		li	a0,4096
  41              	.LVL1:
  42 0034 97000000 		call	_Z4log2m
  42      E7800000 
  43              	.LVL2:
  44 003c 33D5A400 		srl	a0,s1,a0
  45 0040 13051500 		addi	a0,a0,1
  46 0044 97000000 		call	_Z4log2m
  46      E7800000 
  47              	.LVL3:
  48              	.L3:
  35:src/kernel/mmanagement/object_cache.cpp **** 
  36:src/kernel/mmanagement/object_cache.cpp ****     if(buddy_level_ptr) *buddy_level_ptr = buddy_level;
  49              		.loc 1 36 5 is_stmt 1 discriminator 1
  50 004c 63040900 		beq	s2,zero,.L4
  51              		.loc 1 36 25 discriminator 1
  52              		.loc 1 36 42 is_stmt 0 discriminator 1
  53 0050 2300A900 		sb	a0,0(s2)
  54              	.L4:
  37:src/kernel/mmanagement/object_cache.cpp **** 
  38:src/kernel/mmanagement/object_cache.cpp ****     return ( 1UL << buddy_level) * Buddy::BLOCK_SIZE;
  55              		.loc 1 38 5 is_stmt 1
  39:src/kernel/mmanagement/object_cache.cpp **** }
  56              		.loc 1 39 1 is_stmt 0
  57 0054 B7170000 		li	a5,4096
  58 0058 3395A700 		sll	a0,a5,a0
  59              	.LVL4:
  60 005c 83308101 		ld	ra,24(sp)
  61              		.cfi_remember_state
  62              		.cfi_restore 1
  63 0060 03340101 		ld	s0,16(sp)
  64              		.cfi_restore 8
  65              		.cfi_def_cfa 2, 32
  66 0064 83348100 		ld	s1,8(sp)
  67              		.cfi_restore 9
  68 0068 03390100 		ld	s2,0(sp)
  69              		.cfi_restore 18
  70              	.LVL5:
  71 006c 13010102 		addi	sp,sp,32
  72              		.cfi_def_cfa_offset 0
  73 0070 67800000 		jr	ra
  74              	.LVL6:
GAS LISTING /tmp/ccpJ2pYY.s 			page 3


  75              	.L6:
  76              		.cfi_restore_state
  34:src/kernel/mmanagement/object_cache.cpp **** 
  77              		.loc 1 34 9
  78 0074 83340501 		ld	s1,16(a0)
  79 0078 9384F4FF 		addi	s1,s1,-1
  80 007c 37150000 		li	a0,4096
  81              	.LVL7:
  82 0080 97000000 		call	_Z4log2m
  82      E7800000 
  83              	.LVL8:
  84 0088 33D5A400 		srl	a0,s1,a0
  85 008c 13051500 		addi	a0,a0,1
  86 0090 97000000 		call	_Z4log2m
  86      E7800000 
  87              	.LVL9:
  88 0098 6FF05FFB 		j	.L3
  89              		.cfi_endproc
  90              	.LFE117:
  92              		.align	2
  93              		.globl	_ZN11ObjectCache14calculate_typeEv
  95              	_ZN11ObjectCache14calculate_typeEv:
  96              	.LFB116:
  20:src/kernel/mmanagement/object_cache.cpp ****     size_t slab_size = get_slab_size();
  97              		.loc 1 20 56 is_stmt 1
  98              		.cfi_startproc
  99              	.LVL10:
 100 009c 130101FE 		addi	sp,sp,-32
 101              		.cfi_def_cfa_offset 32
 102 00a0 233C1100 		sd	ra,24(sp)
 103 00a4 23388100 		sd	s0,16(sp)
 104 00a8 23349100 		sd	s1,8(sp)
 105              		.cfi_offset 1, -8
 106              		.cfi_offset 8, -16
 107              		.cfi_offset 9, -24
 108 00ac 13040102 		addi	s0,sp,32
 109              		.cfi_def_cfa 8, 0
 110 00b0 93040500 		mv	s1,a0
  21:src/kernel/mmanagement/object_cache.cpp ****     if( (slab_size - sizeof(void*))  % objsize >= sizeof(Slab))
 111              		.loc 1 21 5
  21:src/kernel/mmanagement/object_cache.cpp ****     if( (slab_size - sizeof(void*))  % objsize >= sizeof(Slab))
 112              		.loc 1 21 37 is_stmt 0
 113 00b4 93050000 		li	a1,0
 114 00b8 97000000 		call	_ZN11ObjectCache13get_slab_sizeEPh
 114      E7800000 
 115              	.LVL11:
  22:src/kernel/mmanagement/object_cache.cpp ****         return ON_SLAB;
 116              		.loc 1 22 5 is_stmt 1
  22:src/kernel/mmanagement/object_cache.cpp ****         return ON_SLAB;
 117              		.loc 1 22 20 is_stmt 0
 118 00c0 130585FF 		addi	a0,a0,-8
 119              	.LVL12:
  22:src/kernel/mmanagement/object_cache.cpp ****         return ON_SLAB;
 120              		.loc 1 22 40
 121 00c4 83B70401 		ld	a5,16(s1)
  22:src/kernel/mmanagement/object_cache.cpp ****         return ON_SLAB;
 122              		.loc 1 22 38
GAS LISTING /tmp/ccpJ2pYY.s 			page 4


 123 00c8 3375F502 		remu	a0,a0,a5
 124              	.LVL13:
  22:src/kernel/mmanagement/object_cache.cpp ****         return ON_SLAB;
 125              		.loc 1 22 5
 126 00cc 9307700B 		li	a5,183
 127 00d0 63EEA700 		bgtu	a0,a5,.L11
  25:src/kernel/mmanagement/object_cache.cpp ****     return NONE;
 128              		.loc 1 25 16
 129 00d4 13051000 		li	a0,1
 130              	.L8:
  27:src/kernel/mmanagement/object_cache.cpp **** 
 131              		.loc 1 27 1
 132 00d8 83308101 		ld	ra,24(sp)
 133              		.cfi_remember_state
 134              		.cfi_restore 1
 135 00dc 03340101 		ld	s0,16(sp)
 136              		.cfi_restore 8
 137              		.cfi_def_cfa 2, 32
 138 00e0 83348100 		ld	s1,8(sp)
 139              		.cfi_restore 9
 140              	.LVL14:
 141 00e4 13010102 		addi	sp,sp,32
 142              		.cfi_def_cfa_offset 0
 143 00e8 67800000 		jr	ra
 144              	.LVL15:
 145              	.L11:
 146              		.cfi_restore_state
  23:src/kernel/mmanagement/object_cache.cpp ****     else
 147              		.loc 1 23 16
 148 00ec 13053000 		li	a0,3
 149 00f0 6FF09FFE 		j	.L8
 150              		.cfi_endproc
 151              	.LFE116:
 153              		.align	2
 154              		.globl	_ZN11ObjectCacheC2EPKcmPFvPvES4_NS_12SlabMetaTypeE
 156              	_ZN11ObjectCacheC2EPKcmPFvPvES4_NS_12SlabMetaTypeE:
 157              	.LFB114:
   4:src/kernel/mmanagement/object_cache.cpp ****     void (*t_ctor)(void*), void(*t_dtor)(void*), SlabMetaType t_type)
 158              		.loc 1 4 1 is_stmt 1
 159              		.cfi_startproc
 160              	.LVL16:
 161 00f4 130101FD 		addi	sp,sp,-48
 162              		.cfi_def_cfa_offset 48
 163 00f8 23341102 		sd	ra,40(sp)
 164 00fc 23308102 		sd	s0,32(sp)
 165 0100 233C9100 		sd	s1,24(sp)
 166 0104 23382101 		sd	s2,16(sp)
 167 0108 23343101 		sd	s3,8(sp)
 168 010c 23304101 		sd	s4,0(sp)
 169              		.cfi_offset 1, -8
 170              		.cfi_offset 8, -16
 171              		.cfi_offset 9, -24
 172              		.cfi_offset 18, -32
 173              		.cfi_offset 19, -40
 174              		.cfi_offset 20, -48
 175 0110 13040103 		addi	s0,sp,48
 176              		.cfi_def_cfa 8, 0
GAS LISTING /tmp/ccpJ2pYY.s 			page 5


 177 0114 93040500 		mv	s1,a0
 178 0118 138A0600 		mv	s4,a3
 179 011c 93090700 		mv	s3,a4
 180 0120 13890700 		mv	s2,a5
 181              	.LBB8:
   8:src/kernel/mmanagement/object_cache.cpp **** {
 182              		.loc 1 8 36 is_stmt 0
 183 0124 2330B500 		sd	a1,0(a0)
 184 0128 2338C500 		sd	a2,16(a0)
 185 012c 23300502 		sd	zero,32(a0)
 186 0130 23340502 		sd	zero,40(a0)
 187 0134 23380502 		sd	zero,48(a0)
 188 0138 13060000 		li	a2,0
 189              	.LVL17:
 190 013c 93050000 		li	a1,0
 191              	.LVL18:
 192 0140 13058503 		addi	a0,a0,56
 193              	.LVL19:
 194 0144 97000000 		call	_ZN6list_tC1EPS_S0_
 194      E7800000 
 195              	.LVL20:
 196 014c 23B44405 		sd	s4,72(s1)
 197 0150 23B83405 		sd	s3,80(s1)
 198              	.LBB9:
  10:src/kernel/mmanagement/object_cache.cpp ****     if(objsize < lowest_size) objsize = lowest_size;
 199              		.loc 1 10 5 is_stmt 1
  10:src/kernel/mmanagement/object_cache.cpp ****     if(objsize < lowest_size) objsize = lowest_size;
 200              		.loc 1 10 51 is_stmt 0
 201 0154 13050008 		li	a0,128
 202 0158 97000000 		call	_Z4log2m
 202      E7800000 
 203              	.LVL21:
  10:src/kernel/mmanagement/object_cache.cpp ****     if(objsize < lowest_size) objsize = lowest_size;
 204              		.loc 1 10 65
 205 0160 B7170000 		li	a5,4096
 206 0164 33D5A700 		srl	a0,a5,a0
 207              	.LVL22:
  11:src/kernel/mmanagement/object_cache.cpp ****     
 208              		.loc 1 11 5 is_stmt 1
  11:src/kernel/mmanagement/object_cache.cpp ****     
 209              		.loc 1 11 8 is_stmt 0
 210 0168 83B70401 		ld	a5,16(s1)
  11:src/kernel/mmanagement/object_cache.cpp ****     
 211              		.loc 1 11 5
 212 016c 63F4A700 		bgeu	a5,a0,.L13
  11:src/kernel/mmanagement/object_cache.cpp ****     
 213              		.loc 1 11 31 is_stmt 1 discriminator 1
  11:src/kernel/mmanagement/object_cache.cpp ****     
 214              		.loc 1 11 39 is_stmt 0 discriminator 1
 215 0170 23B8A400 		sd	a0,16(s1)
 216              	.L13:
  13:src/kernel/mmanagement/object_cache.cpp ****     if(t_type == NONE){ type = calculate_type(); }
 217              		.loc 1 13 5 is_stmt 1
  13:src/kernel/mmanagement/object_cache.cpp ****     if(t_type == NONE){ type = calculate_type(); }
 218              		.loc 1 13 10 is_stmt 0
 219 0174 23AC2401 		sw	s2,24(s1)
  14:src/kernel/mmanagement/object_cache.cpp **** 
GAS LISTING /tmp/ccpJ2pYY.s 			page 6


 220              		.loc 1 14 5 is_stmt 1
 221 0178 63040902 		beq	s2,zero,.L16
 222              	.LVL23:
 223              	.L14:
  16:src/kernel/mmanagement/object_cache.cpp **** }
 224              		.loc 1 16 5
  16:src/kernel/mmanagement/object_cache.cpp **** }
 225              		.loc 1 16 11 is_stmt 0
 226 017c 23B40400 		sd	zero,8(s1)
 227              	.LBE9:
 228              	.LBE8:
  17:src/kernel/mmanagement/object_cache.cpp **** 
 229              		.loc 1 17 1
 230 0180 83308102 		ld	ra,40(sp)
 231              		.cfi_remember_state
 232              		.cfi_restore 1
 233 0184 03340102 		ld	s0,32(sp)
 234              		.cfi_restore 8
 235              		.cfi_def_cfa 2, 48
 236 0188 83348101 		ld	s1,24(sp)
 237              		.cfi_restore 9
 238              	.LVL24:
 239 018c 03390101 		ld	s2,16(sp)
 240              		.cfi_restore 18
 241 0190 83398100 		ld	s3,8(sp)
 242              		.cfi_restore 19
 243              	.LVL25:
 244 0194 033A0100 		ld	s4,0(sp)
 245              		.cfi_restore 20
 246              	.LVL26:
 247 0198 13010103 		addi	sp,sp,48
 248              		.cfi_def_cfa_offset 0
 249 019c 67800000 		jr	ra
 250              	.LVL27:
 251              	.L16:
 252              		.cfi_restore_state
 253              	.LBB11:
 254              	.LBB10:
  14:src/kernel/mmanagement/object_cache.cpp **** 
 255              		.loc 1 14 25 is_stmt 1 discriminator 1
  14:src/kernel/mmanagement/object_cache.cpp **** 
 256              		.loc 1 14 46 is_stmt 0 discriminator 1
 257 01a0 13850400 		mv	a0,s1
 258              	.LVL28:
 259 01a4 97000000 		call	_ZN11ObjectCache14calculate_typeEv
 259      E7800000 
 260              	.LVL29:
  14:src/kernel/mmanagement/object_cache.cpp **** 
 261              		.loc 1 14 30 discriminator 1
 262 01ac 23ACA400 		sw	a0,24(s1)
 263 01b0 6FF0DFFC 		j	.L14
 264              	.LBE10:
 265              	.LBE11:
 266              		.cfi_endproc
 267              	.LFE114:
 269              		.globl	_ZN11ObjectCacheC1EPKcmPFvPvES4_NS_12SlabMetaTypeE
 270              		.set	_ZN11ObjectCacheC1EPKcmPFvPvES4_NS_12SlabMetaTypeE,_ZN11ObjectCacheC2EPKcmPFvPvES4_NS_12SlabM
GAS LISTING /tmp/ccpJ2pYY.s 			page 7


 271              		.align	2
 272              		.globl	_ZN11ObjectCache17list_update_allocEP4Slabb
 274              	_ZN11ObjectCache17list_update_allocEP4Slabb:
 275              	.LFB121:
  40:src/kernel/mmanagement/object_cache.cpp **** 
  41:src/kernel/mmanagement/object_cache.cpp **** 
  42:src/kernel/mmanagement/object_cache.cpp **** 
  43:src/kernel/mmanagement/object_cache.cpp **** void* ObjectCache::operator new(size_t size){
  44:src/kernel/mmanagement/object_cache.cpp ****     void* addr = SlabAl::getInstance().objcache_cache.alloc_obj();
  45:src/kernel/mmanagement/object_cache.cpp ****     // SlabAl::getInstance().slab_cache.printInfo();
  46:src/kernel/mmanagement/object_cache.cpp ****     return addr;
  47:src/kernel/mmanagement/object_cache.cpp ****     
  48:src/kernel/mmanagement/object_cache.cpp **** }
  49:src/kernel/mmanagement/object_cache.cpp **** 
  50:src/kernel/mmanagement/object_cache.cpp **** 
  51:src/kernel/mmanagement/object_cache.cpp **** 
  52:src/kernel/mmanagement/object_cache.cpp **** void ObjectCache::operator delete(void* addr){
  53:src/kernel/mmanagement/object_cache.cpp ****     SlabAl::getInstance().objcache_cache.free_obj(addr);
  54:src/kernel/mmanagement/object_cache.cpp **** }
  55:src/kernel/mmanagement/object_cache.cpp **** 
  56:src/kernel/mmanagement/object_cache.cpp **** 
  57:src/kernel/mmanagement/object_cache.cpp **** 
  58:src/kernel/mmanagement/object_cache.cpp **** Slab* ObjectCache::slab_alloc(){
  59:src/kernel/mmanagement/object_cache.cpp ****     uchar obj_num, buddy_level; 
  60:src/kernel/mmanagement/object_cache.cpp ****     char* tmp_addr,*start;
  61:src/kernel/mmanagement/object_cache.cpp ****     size_t slab_size = get_slab_size(&buddy_level);
  62:src/kernel/mmanagement/object_cache.cpp ****     
  63:src/kernel/mmanagement/object_cache.cpp ****     Slab* slab_meta;
  64:src/kernel/mmanagement/object_cache.cpp ****     obj_num = slab_size/objsize - 1;
  65:src/kernel/mmanagement/object_cache.cpp ****     
  66:src/kernel/mmanagement/object_cache.cpp ****     //allocate from buddy
  67:src/kernel/mmanagement/object_cache.cpp ****     start = (char*)Buddy::getInstance().mem_alloc(buddy_level);
  68:src/kernel/mmanagement/object_cache.cpp **** 
  69:src/kernel/mmanagement/object_cache.cpp ****     if(!start){
  70:src/kernel/mmanagement/object_cache.cpp ****         error = "Not enough memory left";
  71:src/kernel/mmanagement/object_cache.cpp ****         return nullptr;
  72:src/kernel/mmanagement/object_cache.cpp ****     }
  73:src/kernel/mmanagement/object_cache.cpp **** 
  74:src/kernel/mmanagement/object_cache.cpp ****     //allocate poniter to slab_meta_ptr
  75:src/kernel/mmanagement/object_cache.cpp ****     Slab** slab_meta_addr_ptr = (Slab**)start;
  76:src/kernel/mmanagement/object_cache.cpp ****     tmp_addr = start + sizeof(Slab*);
  77:src/kernel/mmanagement/object_cache.cpp ****     
  78:src/kernel/mmanagement/object_cache.cpp ****     
  79:src/kernel/mmanagement/object_cache.cpp ****     ObjectCache* slab_cache_ptr = 
  80:src/kernel/mmanagement/object_cache.cpp ****         &SlabAllocator::getInstance().slab_cache;
  81:src/kernel/mmanagement/object_cache.cpp ****     
  82:src/kernel/mmanagement/object_cache.cpp **** 
  83:src/kernel/mmanagement/object_cache.cpp ****     switch(type){
  84:src/kernel/mmanagement/object_cache.cpp **** 
  85:src/kernel/mmanagement/object_cache.cpp ****         // if this is a small mememory buffer slab
  86:src/kernel/mmanagement/object_cache.cpp ****         // then elements must start from the begining of the slab
  87:src/kernel/mmanagement/object_cache.cpp ****         // then we allocate just like OFF_SLAB type
  88:src/kernel/mmanagement/object_cache.cpp ****         case BUFF_SLAB:
  89:src/kernel/mmanagement/object_cache.cpp ****             tmp_addr = start;
  90:src/kernel/mmanagement/object_cache.cpp ****             obj_num += 1;
  91:src/kernel/mmanagement/object_cache.cpp **** 
  92:src/kernel/mmanagement/object_cache.cpp **** 
GAS LISTING /tmp/ccpJ2pYY.s 			page 8


  93:src/kernel/mmanagement/object_cache.cpp ****         // get slab_meta object from slab_meta cache
  94:src/kernel/mmanagement/object_cache.cpp ****         case OFF_SLAB: 
  95:src/kernel/mmanagement/object_cache.cpp ****             slab_meta = (Slab*)slab_cache_ptr->alloc_obj();
  96:src/kernel/mmanagement/object_cache.cpp ****             if(!slab_meta){
  97:src/kernel/mmanagement/object_cache.cpp ****                 error = "Not enough memory left";
  98:src/kernel/mmanagement/object_cache.cpp ****                 Buddy::getInstance().mem_free(start, buddy_level);
  99:src/kernel/mmanagement/object_cache.cpp ****                 return nullptr;
 100:src/kernel/mmanagement/object_cache.cpp ****             }
 101:src/kernel/mmanagement/object_cache.cpp ****             break;
 102:src/kernel/mmanagement/object_cache.cpp **** 
 103:src/kernel/mmanagement/object_cache.cpp ****         
 104:src/kernel/mmanagement/object_cache.cpp ****         // if it this is cache of slab_metas 
 105:src/kernel/mmanagement/object_cache.cpp ****         // then alloc slab_meta on the star
 106:src/kernel/mmanagement/object_cache.cpp ****         case SLAB_SLAB:
 107:src/kernel/mmanagement/object_cache.cpp ****             slab_meta = (Slab*)tmp_addr;
 108:src/kernel/mmanagement/object_cache.cpp ****             tmp_addr += sizeof(Slab);
 109:src/kernel/mmanagement/object_cache.cpp ****             break;
 110:src/kernel/mmanagement/object_cache.cpp **** 
 111:src/kernel/mmanagement/object_cache.cpp **** 
 112:src/kernel/mmanagement/object_cache.cpp ****         // allocate slab_meta on the slab if can fit
 113:src/kernel/mmanagement/object_cache.cpp ****         // on the end of the slab
 114:src/kernel/mmanagement/object_cache.cpp ****         case ON_SLAB:
 115:src/kernel/mmanagement/object_cache.cpp ****             slab_meta = (Slab*)(start + slab_size - sizeof(Slab));
 116:src/kernel/mmanagement/object_cache.cpp ****             break;
 117:src/kernel/mmanagement/object_cache.cpp **** 
 118:src/kernel/mmanagement/object_cache.cpp ****         case NONE: default: return nullptr;
 119:src/kernel/mmanagement/object_cache.cpp ****     }
 120:src/kernel/mmanagement/object_cache.cpp ****     if(type == SLAB_SLAB){ obj_num -= 1; }
 121:src/kernel/mmanagement/object_cache.cpp ****     
 122:src/kernel/mmanagement/object_cache.cpp ****     *slab_meta = Slab(obj_num
 123:src/kernel/mmanagement/object_cache.cpp ****                 ,tmp_addr
 124:src/kernel/mmanagement/object_cache.cpp ****                 ,this);
 125:src/kernel/mmanagement/object_cache.cpp **** 
 126:src/kernel/mmanagement/object_cache.cpp ****     if(type != BUFF_SLAB) { *slab_meta_addr_ptr = slab_meta; }
 127:src/kernel/mmanagement/object_cache.cpp ****     
 128:src/kernel/mmanagement/object_cache.cpp ****     free_head = insert(&slab_meta->node, free_head);
 129:src/kernel/mmanagement/object_cache.cpp ****     
 130:src/kernel/mmanagement/object_cache.cpp ****     // allocate objects
 131:src/kernel/mmanagement/object_cache.cpp ****     char* end = start + slab_size;
 132:src/kernel/mmanagement/object_cache.cpp ****     for(; tmp_addr + objsize <= end; tmp_addr += objsize){
 133:src/kernel/mmanagement/object_cache.cpp ****         if(ctor)
 134:src/kernel/mmanagement/object_cache.cpp ****             ctor(tmp_addr);
 135:src/kernel/mmanagement/object_cache.cpp ****         else
 136:src/kernel/mmanagement/object_cache.cpp ****             zero_out(tmp_addr);
 137:src/kernel/mmanagement/object_cache.cpp ****     }
 138:src/kernel/mmanagement/object_cache.cpp ****     
 139:src/kernel/mmanagement/object_cache.cpp ****     return slab_meta;
 140:src/kernel/mmanagement/object_cache.cpp **** }
 141:src/kernel/mmanagement/object_cache.cpp **** 
 142:src/kernel/mmanagement/object_cache.cpp **** 
 143:src/kernel/mmanagement/object_cache.cpp **** 
 144:src/kernel/mmanagement/object_cache.cpp **** void ObjectCache::list_update_alloc(Slab* slab_meta, bool was_free){
 276              		.loc 1 144 68 is_stmt 1
 277              		.cfi_startproc
 278              	.LVL30:
 279 01b4 130101FE 		addi	sp,sp,-32
 280              		.cfi_def_cfa_offset 32
GAS LISTING /tmp/ccpJ2pYY.s 			page 9


 281 01b8 233C1100 		sd	ra,24(sp)
 282 01bc 23388100 		sd	s0,16(sp)
 283 01c0 23349100 		sd	s1,8(sp)
 284 01c4 23302101 		sd	s2,0(sp)
 285              		.cfi_offset 1, -8
 286              		.cfi_offset 8, -16
 287              		.cfi_offset 9, -24
 288              		.cfi_offset 18, -32
 289 01c8 13040102 		addi	s0,sp,32
 290              		.cfi_def_cfa 8, 0
 291 01cc 93040500 		mv	s1,a0
 292 01d0 13890500 		mv	s2,a1
 145:src/kernel/mmanagement/object_cache.cpp ****     if(slab_meta->full()){
 293              		.loc 1 145 5
 294              	.LVL31:
 295              	.LBB12:
 296              	.LBB13:
 297              		.file 2 "src/kernel/mmanagement/../../../h/../h/slab_allocator.h"
   1:src/kernel/mmanagement/../../../h/../h/slab_allocator.h **** #ifndef SLAB_ALLOCATOR_H
   2:src/kernel/mmanagement/../../../h/../h/slab_allocator.h **** #define SLAB_ALLOCATOR_H
   3:src/kernel/mmanagement/../../../h/../h/slab_allocator.h **** #include"../h/object_cache.h"
   4:src/kernel/mmanagement/../../../h/../h/slab_allocator.h **** #include"../lib/hw.h"
   5:src/kernel/mmanagement/../../../h/../h/slab_allocator.h **** #include "list.h"
   6:src/kernel/mmanagement/../../../h/../h/slab_allocator.h **** #include "noalloc_allocator.hpp"
   7:src/kernel/mmanagement/../../../h/../h/slab_allocator.h **** #include "kernel_funs.h"
   8:src/kernel/mmanagement/../../../h/../h/slab_allocator.h **** 
   9:src/kernel/mmanagement/../../../h/../h/slab_allocator.h **** #define __SLAB_ALLOCATION__(typename, ctor, dtor) \
  10:src/kernel/mmanagement/../../../h/../h/slab_allocator.h ****     void* operator new(size_t sz){ \
  11:src/kernel/mmanagement/../../../h/../h/slab_allocator.h ****         if(!cache){ \
  12:src/kernel/mmanagement/../../../h/../h/slab_allocator.h ****             cache = new ObjectCache( #typename "_cache", sz, ctor, dtor); \
  13:src/kernel/mmanagement/../../../h/../h/slab_allocator.h ****         } \
  14:src/kernel/mmanagement/../../../h/../h/slab_allocator.h ****         return cache->alloc_obj(); \
  15:src/kernel/mmanagement/../../../h/../h/slab_allocator.h ****     } \
  16:src/kernel/mmanagement/../../../h/../h/slab_allocator.h ****     void* operator new[](size_t sz){ \
  17:src/kernel/mmanagement/../../../h/../h/slab_allocator.h ****         return SlabAllocator::getInstance().kmalloc(sz);\
  18:src/kernel/mmanagement/../../../h/../h/slab_allocator.h ****     }  \
  19:src/kernel/mmanagement/../../../h/../h/slab_allocator.h ****     void operator delete(void* ptr){ \
  20:src/kernel/mmanagement/../../../h/../h/slab_allocator.h ****         cache->free_obj(ptr); \
  21:src/kernel/mmanagement/../../../h/../h/slab_allocator.h ****     }  \
  22:src/kernel/mmanagement/../../../h/../h/slab_allocator.h ****     void operator delete[](void* ptr){ \
  23:src/kernel/mmanagement/../../../h/../h/slab_allocator.h ****         SlabAllocator::getInstance().kfree(ptr); \
  24:src/kernel/mmanagement/../../../h/../h/slab_allocator.h ****     }\
  25:src/kernel/mmanagement/../../../h/../h/slab_allocator.h **** 
  26:src/kernel/mmanagement/../../../h/../h/slab_allocator.h **** 
  27:src/kernel/mmanagement/../../../h/../h/slab_allocator.h **** typedef class SlabAllocator{
  28:src/kernel/mmanagement/../../../h/../h/slab_allocator.h ****     typedef ObjectCache::SlabMetaType SMT;
  29:src/kernel/mmanagement/../../../h/../h/slab_allocator.h ****     friend ObjectCache;
  30:src/kernel/mmanagement/../../../h/../h/slab_allocator.h ****     friend Slab;
  31:src/kernel/mmanagement/../../../h/../h/slab_allocator.h ****     
  32:src/kernel/mmanagement/../../../h/../h/slab_allocator.h ****     static const char* buff_cache_names[13];
  33:src/kernel/mmanagement/../../../h/../h/slab_allocator.h ****     static SlabAllocator* allocator;
  34:src/kernel/mmanagement/../../../h/../h/slab_allocator.h **** 
  35:src/kernel/mmanagement/../../../h/../h/slab_allocator.h ****     static const int MIN_BUFFER_ORDER = 5,
  36:src/kernel/mmanagement/../../../h/../h/slab_allocator.h ****         MAX_BUFFER_ORDER = 17;
  37:src/kernel/mmanagement/../../../h/../h/slab_allocator.h ****     ObjectCache objcache_cache;
  38:src/kernel/mmanagement/../../../h/../h/slab_allocator.h ****     ObjectCache slab_cache;
  39:src/kernel/mmanagement/../../../h/../h/slab_allocator.h ****     ObjectCache smb_caches[13];
GAS LISTING /tmp/ccpJ2pYY.s 			page 10


  40:src/kernel/mmanagement/../../../h/../h/slab_allocator.h ****     list_t* cache_head;
  41:src/kernel/mmanagement/../../../h/../h/slab_allocator.h **** 
  42:src/kernel/mmanagement/../../../h/../h/slab_allocator.h ****     __NOALLOC_OPERATORS__
  43:src/kernel/mmanagement/../../../h/../h/slab_allocator.h **** 
  44:src/kernel/mmanagement/../../../h/../h/slab_allocator.h ****     SlabAllocator();
  45:src/kernel/mmanagement/../../../h/../h/slab_allocator.h ****     bool operator=(SlabAllocator&) = delete;
  46:src/kernel/mmanagement/../../../h/../h/slab_allocator.h ****     SlabAllocator(const SlabAllocator&) = delete;
  47:src/kernel/mmanagement/../../../h/../h/slab_allocator.h ****     
  48:src/kernel/mmanagement/../../../h/../h/slab_allocator.h **** public:
  49:src/kernel/mmanagement/../../../h/../h/slab_allocator.h ****     ObjectCache* create_cache(const char* name, size_t objsize,
  50:src/kernel/mmanagement/../../../h/../h/slab_allocator.h ****         void (*ctor)(void*), void (*dtor)(void*) );
  51:src/kernel/mmanagement/../../../h/../h/slab_allocator.h ****     int cache_destroy(ObjectCache*);
  52:src/kernel/mmanagement/../../../h/../h/slab_allocator.h **** 
  53:src/kernel/mmanagement/../../../h/../h/slab_allocator.h ****     static SlabAllocator& getInstance();
  54:src/kernel/mmanagement/../../../h/../h/slab_allocator.h **** 
  55:src/kernel/mmanagement/../../../h/../h/slab_allocator.h ****     void print_state(char flag);
  56:src/kernel/mmanagement/../../../h/../h/slab_allocator.h **** 
  57:src/kernel/mmanagement/../../../h/../h/slab_allocator.h ****     void* kmalloc(size_t);
  58:src/kernel/mmanagement/../../../h/../h/slab_allocator.h ****     int kfree(void*);
  59:src/kernel/mmanagement/../../../h/../h/slab_allocator.h **** 
  60:src/kernel/mmanagement/../../../h/../h/slab_allocator.h **** } SlabAl;
  61:src/kernel/mmanagement/../../../h/../h/slab_allocator.h **** 
  62:src/kernel/mmanagement/../../../h/../h/slab_allocator.h **** class Slab{
  63:src/kernel/mmanagement/../../../h/../h/slab_allocator.h ****     friend ObjectCache;
  64:src/kernel/mmanagement/../../../h/../h/slab_allocator.h ****     friend SlabAllocator;
  65:src/kernel/mmanagement/../../../h/../h/slab_allocator.h ****     
  66:src/kernel/mmanagement/../../../h/../h/slab_allocator.h ****     static const uchar RB_SIZE = 128;
  67:src/kernel/mmanagement/../../../h/../h/slab_allocator.h ****     ObjectCache* parent;
  68:src/kernel/mmanagement/../../../h/../h/slab_allocator.h ****     uchar round_buffer[RB_SIZE], front, rear, cap; //wich positions are free
  69:src/kernel/mmanagement/../../../h/../h/slab_allocator.h ****     uchar map[RB_SIZE >> 3]; //used bit map
  70:src/kernel/mmanagement/../../../h/../h/slab_allocator.h ****     char* addr_start;
  71:src/kernel/mmanagement/../../../h/../h/slab_allocator.h ****     list_t node;
  72:src/kernel/mmanagement/../../../h/../h/slab_allocator.h **** 
  73:src/kernel/mmanagement/../../../h/../h/slab_allocator.h ****     Slab(uchar cap, void* addr, ObjectCache*);
  74:src/kernel/mmanagement/../../../h/../h/slab_allocator.h ****     void set_bit(uchar index);
  75:src/kernel/mmanagement/../../../h/../h/slab_allocator.h ****     void clear_bit(uchar index);
  76:src/kernel/mmanagement/../../../h/../h/slab_allocator.h ****     bool get_bit(uchar index);
  77:src/kernel/mmanagement/../../../h/../h/slab_allocator.h **** public:
  78:src/kernel/mmanagement/../../../h/../h/slab_allocator.h ****     enum pb_mask: char{
  79:src/kernel/mmanagement/../../../h/../h/slab_allocator.h ****         CLEAR = 0,
  80:src/kernel/mmanagement/../../../h/../h/slab_allocator.h ****         FREE = 1,
  81:src/kernel/mmanagement/../../../h/../h/slab_allocator.h ****         ALLOC = 2,
  82:src/kernel/mmanagement/../../../h/../h/slab_allocator.h ****     };
  83:src/kernel/mmanagement/../../../h/../h/slab_allocator.h **** 
  84:src/kernel/mmanagement/../../../h/../h/slab_allocator.h ****     Slab() = default;
  85:src/kernel/mmanagement/../../../h/../h/slab_allocator.h ****     Slab& operator=(const Slab&) = default;
  86:src/kernel/mmanagement/../../../h/../h/slab_allocator.h ****     
  87:src/kernel/mmanagement/../../../h/../h/slab_allocator.h ****     void* get_obj();
  88:src/kernel/mmanagement/../../../h/../h/slab_allocator.h ****     int put_obj(void*);
  89:src/kernel/mmanagement/../../../h/../h/slab_allocator.h ****     bool full(){ return front == RB_SIZE; }
 298              		.loc 2 89 18
 299              		.loc 2 89 25 is_stmt 0
 300 01d4 03C78508 		lbu	a4,136(a1)
 301              	.LVL32:
 302              	.LBE13:
 303              	.LBE12:
 304              		.loc 1 145 5
GAS LISTING /tmp/ccpJ2pYY.s 			page 11


 305 01d8 93070008 		li	a5,128
 306 01dc 6300F702 		beq	a4,a5,.L23
 146:src/kernel/mmanagement/object_cache.cpp ****         if(was_free)
 147:src/kernel/mmanagement/object_cache.cpp ****             free_head = remove(free_head);
 148:src/kernel/mmanagement/object_cache.cpp ****         else
 149:src/kernel/mmanagement/object_cache.cpp ****             part_head = remove(part_head);
 150:src/kernel/mmanagement/object_cache.cpp ****         full_head = insert(&(slab_meta->node), full_head);
 151:src/kernel/mmanagement/object_cache.cpp ****     }
 152:src/kernel/mmanagement/object_cache.cpp ****     else if(was_free){
 307              		.loc 1 152 10 is_stmt 1
 308 01e0 631E0604 		bne	a2,zero,.L24
 309              	.LVL33:
 310              	.L17:
 153:src/kernel/mmanagement/object_cache.cpp ****         free_head = remove(free_head);
 154:src/kernel/mmanagement/object_cache.cpp ****         part_head = insert(&(slab_meta->node), part_head);
 155:src/kernel/mmanagement/object_cache.cpp ****     }
 156:src/kernel/mmanagement/object_cache.cpp **** }
 311              		.loc 1 156 1 is_stmt 0
 312 01e4 83308101 		ld	ra,24(sp)
 313              		.cfi_remember_state
 314              		.cfi_restore 1
 315 01e8 03340101 		ld	s0,16(sp)
 316              		.cfi_restore 8
 317              		.cfi_def_cfa 2, 32
 318 01ec 83348100 		ld	s1,8(sp)
 319              		.cfi_restore 9
 320              	.LVL34:
 321 01f0 03390100 		ld	s2,0(sp)
 322              		.cfi_restore 18
 323              	.LVL35:
 324 01f4 13010102 		addi	sp,sp,32
 325              		.cfi_def_cfa_offset 0
 326 01f8 67800000 		jr	ra
 327              	.LVL36:
 328              	.L23:
 329              		.cfi_restore_state
 146:src/kernel/mmanagement/object_cache.cpp ****         if(was_free)
 330              		.loc 1 146 9 is_stmt 1
 331 01fc 63060602 		beq	a2,zero,.L19
 147:src/kernel/mmanagement/object_cache.cpp ****         else
 332              		.loc 1 147 13
 147:src/kernel/mmanagement/object_cache.cpp ****         else
 333              		.loc 1 147 31 is_stmt 0
 334 0200 03350502 		ld	a0,32(a0)
 335 0204 97000000 		call	_Z6removeP6list_t
 335      E7800000 
 336              	.LVL37:
 147:src/kernel/mmanagement/object_cache.cpp ****         else
 337              		.loc 1 147 23
 338 020c 23B0A402 		sd	a0,32(s1)
 339              	.L20:
 150:src/kernel/mmanagement/object_cache.cpp ****     }
 340              		.loc 1 150 9 is_stmt 1
 150:src/kernel/mmanagement/object_cache.cpp ****     }
 341              		.loc 1 150 27 is_stmt 0
 342 0210 83B50403 		ld	a1,48(s1)
 343 0214 1305890A 		addi	a0,s2,168
GAS LISTING /tmp/ccpJ2pYY.s 			page 12


 344 0218 97000000 		call	_Z6insertP6list_tS0_
 344      E7800000 
 345              	.LVL38:
 150:src/kernel/mmanagement/object_cache.cpp ****     }
 346              		.loc 1 150 19
 347 0220 23B8A402 		sd	a0,48(s1)
 348 0224 6FF01FFC 		j	.L17
 349              	.LVL39:
 350              	.L19:
 149:src/kernel/mmanagement/object_cache.cpp ****         full_head = insert(&(slab_meta->node), full_head);
 351              		.loc 1 149 13 is_stmt 1
 149:src/kernel/mmanagement/object_cache.cpp ****         full_head = insert(&(slab_meta->node), full_head);
 352              		.loc 1 149 31 is_stmt 0
 353 0228 03358502 		ld	a0,40(a0)
 354 022c 97000000 		call	_Z6removeP6list_t
 354      E7800000 
 355              	.LVL40:
 149:src/kernel/mmanagement/object_cache.cpp ****         full_head = insert(&(slab_meta->node), full_head);
 356              		.loc 1 149 23
 357 0234 23B4A402 		sd	a0,40(s1)
 358 0238 6FF09FFD 		j	.L20
 359              	.LVL41:
 360              	.L24:
 153:src/kernel/mmanagement/object_cache.cpp ****         part_head = insert(&(slab_meta->node), part_head);
 361              		.loc 1 153 9 is_stmt 1
 153:src/kernel/mmanagement/object_cache.cpp ****         part_head = insert(&(slab_meta->node), part_head);
 362              		.loc 1 153 27 is_stmt 0
 363 023c 03350502 		ld	a0,32(a0)
 364 0240 97000000 		call	_Z6removeP6list_t
 364      E7800000 
 365              	.LVL42:
 153:src/kernel/mmanagement/object_cache.cpp ****         part_head = insert(&(slab_meta->node), part_head);
 366              		.loc 1 153 19
 367 0248 23B0A402 		sd	a0,32(s1)
 154:src/kernel/mmanagement/object_cache.cpp ****     }
 368              		.loc 1 154 9 is_stmt 1
 154:src/kernel/mmanagement/object_cache.cpp ****     }
 369              		.loc 1 154 27 is_stmt 0
 370 024c 83B58402 		ld	a1,40(s1)
 371 0250 1305890A 		addi	a0,s2,168
 372 0254 97000000 		call	_Z6insertP6list_tS0_
 372      E7800000 
 373              	.LVL43:
 154:src/kernel/mmanagement/object_cache.cpp ****     }
 374              		.loc 1 154 19
 375 025c 23B4A402 		sd	a0,40(s1)
 376              		.loc 1 156 1
 377 0260 6FF05FF8 		j	.L17
 378              		.cfi_endproc
 379              	.LFE121:
 381              		.align	2
 382              		.globl	_ZN11ObjectCache16list_update_freeEP4Slabb
 384              	_ZN11ObjectCache16list_update_freeEP4Slabb:
 385              	.LFB123:
 157:src/kernel/mmanagement/object_cache.cpp **** 
 158:src/kernel/mmanagement/object_cache.cpp **** 
 159:src/kernel/mmanagement/object_cache.cpp **** 
GAS LISTING /tmp/ccpJ2pYY.s 			page 13


 160:src/kernel/mmanagement/object_cache.cpp **** void* ObjectCache::alloc_obj(){ 
 161:src/kernel/mmanagement/object_cache.cpp ****     bool was_free = false;
 162:src/kernel/mmanagement/object_cache.cpp ****     Slab* t = nullptr;
 163:src/kernel/mmanagement/object_cache.cpp ****     void* obj = nullptr;
 164:src/kernel/mmanagement/object_cache.cpp **** 
 165:src/kernel/mmanagement/object_cache.cpp ****     if(part_head){
 166:src/kernel/mmanagement/object_cache.cpp ****         t = get_list_parent(part_head, Slab, node);
 167:src/kernel/mmanagement/object_cache.cpp ****     }
 168:src/kernel/mmanagement/object_cache.cpp ****     else {
 169:src/kernel/mmanagement/object_cache.cpp ****         if(free_head){ 
 170:src/kernel/mmanagement/object_cache.cpp ****             t = get_list_parent(free_head, Slab, node); 
 171:src/kernel/mmanagement/object_cache.cpp ****         } else {  
 172:src/kernel/mmanagement/object_cache.cpp ****             t = slab_alloc(); 
 173:src/kernel/mmanagement/object_cache.cpp ****             if(t == nullptr) { return nullptr; }
 174:src/kernel/mmanagement/object_cache.cpp ****         }
 175:src/kernel/mmanagement/object_cache.cpp ****         was_free = true;
 176:src/kernel/mmanagement/object_cache.cpp ****     }
 177:src/kernel/mmanagement/object_cache.cpp ****     obj = t->get_obj();
 178:src/kernel/mmanagement/object_cache.cpp ****     list_update_alloc(t, was_free);
 179:src/kernel/mmanagement/object_cache.cpp ****     return obj;
 180:src/kernel/mmanagement/object_cache.cpp **** }
 181:src/kernel/mmanagement/object_cache.cpp **** 
 182:src/kernel/mmanagement/object_cache.cpp **** 
 183:src/kernel/mmanagement/object_cache.cpp **** 
 184:src/kernel/mmanagement/object_cache.cpp **** void ObjectCache::list_update_free(Slab* slab_meta, bool was_full){
 386              		.loc 1 184 67 is_stmt 1
 387              		.cfi_startproc
 388              	.LVL44:
 389 0264 130101FE 		addi	sp,sp,-32
 390              		.cfi_def_cfa_offset 32
 391 0268 233C1100 		sd	ra,24(sp)
 392 026c 23388100 		sd	s0,16(sp)
 393 0270 23349100 		sd	s1,8(sp)
 394 0274 23302101 		sd	s2,0(sp)
 395              		.cfi_offset 1, -8
 396              		.cfi_offset 8, -16
 397              		.cfi_offset 9, -24
 398              		.cfi_offset 18, -32
 399 0278 13040102 		addi	s0,sp,32
 400              		.cfi_def_cfa 8, 0
 401 027c 13090500 		mv	s2,a0
 402 0280 93840500 		mv	s1,a1
 185:src/kernel/mmanagement/object_cache.cpp ****     
 186:src/kernel/mmanagement/object_cache.cpp ****     if(slab_meta->free()){
 403              		.loc 1 186 5
 404              	.LVL45:
 405              	.LBB14:
 406              	.LBB15:
  90:src/kernel/mmanagement/../../../h/../h/slab_allocator.h ****     bool free(){ return rear == front; }
 407              		.loc 2 90 18
 408              		.loc 2 90 25 is_stmt 0
 409 0284 03C79508 		lbu	a4,137(a1)
 410              		.loc 2 90 33
 411 0288 83C78508 		lbu	a5,136(a1)
 412              	.LVL46:
 413              	.LBE15:
 414              	.LBE14:
GAS LISTING /tmp/ccpJ2pYY.s 			page 14


 415              		.loc 1 186 5
 416 028c 630CF702 		beq	a4,a5,.L35
 187:src/kernel/mmanagement/object_cache.cpp ****         if(was_full){
 188:src/kernel/mmanagement/object_cache.cpp ****             if(&slab_meta->node == full_head)
 189:src/kernel/mmanagement/object_cache.cpp ****                 full_head = remove(full_head);
 190:src/kernel/mmanagement/object_cache.cpp ****             else
 191:src/kernel/mmanagement/object_cache.cpp ****                 remove(&slab_meta->node);
 192:src/kernel/mmanagement/object_cache.cpp ****         }
 193:src/kernel/mmanagement/object_cache.cpp ****         else{
 194:src/kernel/mmanagement/object_cache.cpp ****             if(&slab_meta->node == part_head)
 195:src/kernel/mmanagement/object_cache.cpp ****                 part_head = remove(part_head);
 196:src/kernel/mmanagement/object_cache.cpp ****             else
 197:src/kernel/mmanagement/object_cache.cpp ****                 remove(&slab_meta->node);
 198:src/kernel/mmanagement/object_cache.cpp ****         }
 199:src/kernel/mmanagement/object_cache.cpp ****         free_head = insert(&slab_meta->node, free_head);
 200:src/kernel/mmanagement/object_cache.cpp ****     }else if(was_full){
 417              		.loc 1 200 11 is_stmt 1
 418 0290 63000606 		beq	a2,zero,.L25
 201:src/kernel/mmanagement/object_cache.cpp ****         if(&slab_meta->node == full_head)
 419              		.loc 1 201 9
 420              		.loc 1 201 12 is_stmt 0
 421 0294 9384850A 		addi	s1,a1,168
 422              		.loc 1 201 32
 423 0298 03350503 		ld	a0,48(a0)
 424              	.LVL47:
 425              		.loc 1 201 9
 426 029c 6386A40A 		beq	s1,a0,.L36
 202:src/kernel/mmanagement/object_cache.cpp ****             full_head = remove(full_head);
 203:src/kernel/mmanagement/object_cache.cpp ****         else
 204:src/kernel/mmanagement/object_cache.cpp ****             remove(&slab_meta->node);
 427              		.loc 1 204 13 is_stmt 1
 428              		.loc 1 204 19 is_stmt 0
 429 02a0 13850400 		mv	a0,s1
 430 02a4 97000000 		call	_Z6removeP6list_t
 430      E7800000 
 431              	.LVL48:
 432              	.L33:
 205:src/kernel/mmanagement/object_cache.cpp ****         part_head = insert(&slab_meta->node, part_head);
 433              		.loc 1 205 9 is_stmt 1
 434              		.loc 1 205 27 is_stmt 0
 435 02ac 83358902 		ld	a1,40(s2)
 436 02b0 13850400 		mv	a0,s1
 437 02b4 97000000 		call	_Z6insertP6list_tS0_
 437      E7800000 
 438              	.LVL49:
 439              		.loc 1 205 19
 440 02bc 2334A902 		sd	a0,40(s2)
 206:src/kernel/mmanagement/object_cache.cpp ****     }
 207:src/kernel/mmanagement/object_cache.cpp **** 
 208:src/kernel/mmanagement/object_cache.cpp **** }
 441              		.loc 1 208 1
 442 02c0 6F000003 		j	.L25
 443              	.LVL50:
 444              	.L35:
 187:src/kernel/mmanagement/object_cache.cpp ****             if(&slab_meta->node == full_head)
 445              		.loc 1 187 9 is_stmt 1
 446 02c4 630C0604 		beq	a2,zero,.L27
GAS LISTING /tmp/ccpJ2pYY.s 			page 15


 188:src/kernel/mmanagement/object_cache.cpp ****                 full_head = remove(full_head);
 447              		.loc 1 188 13
 188:src/kernel/mmanagement/object_cache.cpp ****                 full_head = remove(full_head);
 448              		.loc 1 188 16 is_stmt 0
 449 02c8 1385850A 		addi	a0,a1,168
 450              	.LVL51:
 188:src/kernel/mmanagement/object_cache.cpp ****                 full_head = remove(full_head);
 451              		.loc 1 188 36
 452 02cc 83370903 		ld	a5,48(s2)
 188:src/kernel/mmanagement/object_cache.cpp ****                 full_head = remove(full_head);
 453              		.loc 1 188 13
 454 02d0 630CF502 		beq	a0,a5,.L37
 191:src/kernel/mmanagement/object_cache.cpp ****         }
 455              		.loc 1 191 17 is_stmt 1
 191:src/kernel/mmanagement/object_cache.cpp ****         }
 456              		.loc 1 191 23 is_stmt 0
 457 02d4 97000000 		call	_Z6removeP6list_t
 457      E7800000 
 458              	.LVL52:
 459              	.L29:
 199:src/kernel/mmanagement/object_cache.cpp ****     }else if(was_full){
 460              		.loc 1 199 9 is_stmt 1
 199:src/kernel/mmanagement/object_cache.cpp ****     }else if(was_full){
 461              		.loc 1 199 27 is_stmt 0
 462 02dc 83350902 		ld	a1,32(s2)
 463 02e0 1385840A 		addi	a0,s1,168
 464 02e4 97000000 		call	_Z6insertP6list_tS0_
 464      E7800000 
 465              	.LVL53:
 199:src/kernel/mmanagement/object_cache.cpp ****     }else if(was_full){
 466              		.loc 1 199 19
 467 02ec 2330A902 		sd	a0,32(s2)
 468              	.LVL54:
 469              	.L25:
 470              		.loc 1 208 1
 471 02f0 83308101 		ld	ra,24(sp)
 472              		.cfi_remember_state
 473              		.cfi_restore 1
 474 02f4 03340101 		ld	s0,16(sp)
 475              		.cfi_restore 8
 476              		.cfi_def_cfa 2, 32
 477 02f8 83348100 		ld	s1,8(sp)
 478              		.cfi_restore 9
 479 02fc 03390100 		ld	s2,0(sp)
 480              		.cfi_restore 18
 481              	.LVL55:
 482 0300 13010102 		addi	sp,sp,32
 483              		.cfi_def_cfa_offset 0
 484 0304 67800000 		jr	ra
 485              	.LVL56:
 486              	.L37:
 487              		.cfi_restore_state
 189:src/kernel/mmanagement/object_cache.cpp ****             else
 488              		.loc 1 189 17 is_stmt 1
 189:src/kernel/mmanagement/object_cache.cpp ****             else
 489              		.loc 1 189 35 is_stmt 0
 490 0308 13850700 		mv	a0,a5
GAS LISTING /tmp/ccpJ2pYY.s 			page 16


 491 030c 97000000 		call	_Z6removeP6list_t
 491      E7800000 
 492              	.LVL57:
 189:src/kernel/mmanagement/object_cache.cpp ****             else
 493              		.loc 1 189 27
 494 0314 2338A902 		sd	a0,48(s2)
 495 0318 6FF05FFC 		j	.L29
 496              	.LVL58:
 497              	.L27:
 194:src/kernel/mmanagement/object_cache.cpp ****                 part_head = remove(part_head);
 498              		.loc 1 194 13 is_stmt 1
 194:src/kernel/mmanagement/object_cache.cpp ****                 part_head = remove(part_head);
 499              		.loc 1 194 16 is_stmt 0
 500 031c 1385850A 		addi	a0,a1,168
 501              	.LVL59:
 194:src/kernel/mmanagement/object_cache.cpp ****                 part_head = remove(part_head);
 502              		.loc 1 194 36
 503 0320 83378902 		ld	a5,40(s2)
 194:src/kernel/mmanagement/object_cache.cpp ****                 part_head = remove(part_head);
 504              		.loc 1 194 13
 505 0324 6308F500 		beq	a0,a5,.L38
 197:src/kernel/mmanagement/object_cache.cpp ****         }
 506              		.loc 1 197 17 is_stmt 1
 197:src/kernel/mmanagement/object_cache.cpp ****         }
 507              		.loc 1 197 23 is_stmt 0
 508 0328 97000000 		call	_Z6removeP6list_t
 508      E7800000 
 509              	.LVL60:
 510 0330 6FF0DFFA 		j	.L29
 511              	.LVL61:
 512              	.L38:
 195:src/kernel/mmanagement/object_cache.cpp ****             else
 513              		.loc 1 195 17 is_stmt 1
 195:src/kernel/mmanagement/object_cache.cpp ****             else
 514              		.loc 1 195 35 is_stmt 0
 515 0334 13850700 		mv	a0,a5
 516 0338 97000000 		call	_Z6removeP6list_t
 516      E7800000 
 517              	.LVL62:
 195:src/kernel/mmanagement/object_cache.cpp ****             else
 518              		.loc 1 195 27
 519 0340 2334A902 		sd	a0,40(s2)
 520 0344 6FF09FF9 		j	.L29
 521              	.LVL63:
 522              	.L36:
 202:src/kernel/mmanagement/object_cache.cpp ****         else
 523              		.loc 1 202 13 is_stmt 1
 202:src/kernel/mmanagement/object_cache.cpp ****         else
 524              		.loc 1 202 31 is_stmt 0
 525 0348 97000000 		call	_Z6removeP6list_t
 525      E7800000 
 526              	.LVL64:
 202:src/kernel/mmanagement/object_cache.cpp ****         else
 527              		.loc 1 202 23
 528 0350 2338A902 		sd	a0,48(s2)
 529 0354 6FF09FF5 		j	.L33
 530              		.cfi_endproc
GAS LISTING /tmp/ccpJ2pYY.s 			page 17


 531              	.LFE123:
 533              		.align	2
 534              		.globl	_ZN11ObjectCache9find_slabEPvP6list_t
 536              	_ZN11ObjectCache9find_slabEPvP6list_t:
 537              	.LFB124:
 209:src/kernel/mmanagement/object_cache.cpp **** 
 210:src/kernel/mmanagement/object_cache.cpp **** 
 211:src/kernel/mmanagement/object_cache.cpp **** 
 212:src/kernel/mmanagement/object_cache.cpp **** Slab* ObjectCache::find_slab(void* addr, list_t* head){
 538              		.loc 1 212 55 is_stmt 1
 539              		.cfi_startproc
 540              	.LVL65:
 541 0358 130101FD 		addi	sp,sp,-48
 542              		.cfi_def_cfa_offset 48
 543 035c 23341102 		sd	ra,40(sp)
 544 0360 23308102 		sd	s0,32(sp)
 545 0364 233C9100 		sd	s1,24(sp)
 546 0368 23382101 		sd	s2,16(sp)
 547 036c 23343101 		sd	s3,8(sp)
 548              		.cfi_offset 1, -8
 549              		.cfi_offset 8, -16
 550              		.cfi_offset 9, -24
 551              		.cfi_offset 18, -32
 552              		.cfi_offset 19, -40
 553 0370 13040103 		addi	s0,sp,48
 554              		.cfi_def_cfa 8, 0
 555 0374 93890500 		mv	s3,a1
 556 0378 93040600 		mv	s1,a2
 213:src/kernel/mmanagement/object_cache.cpp ****     list_t* tmp = head;
 557              		.loc 1 213 5
 558              	.LVL66:
 559              	.L41:
 214:src/kernel/mmanagement/object_cache.cpp ****     while(tmp){
 560              		.loc 1 214 5
 561              		.loc 1 214 11 is_stmt 0
 562 037c 63840402 		beq	s1,zero,.L40
 563              	.LBB16:
 215:src/kernel/mmanagement/object_cache.cpp ****         Slab* slab_meta = get_list_parent(tmp, Slab, node);
 564              		.loc 1 215 9 is_stmt 1
 565              		.loc 1 215 27 is_stmt 0
 566 0380 138984F5 		addi	s2,s1,-168
 567              	.LVL67:
 216:src/kernel/mmanagement/object_cache.cpp ****         if(slab_meta->contains(addr)) return slab_meta;
 568              		.loc 1 216 9 is_stmt 1
 569              		.loc 1 216 31 is_stmt 0
 570 0384 93850900 		mv	a1,s3
 571 0388 13050900 		mv	a0,s2
 572 038c 97000000 		call	_ZN4Slab8containsEPv
 572      E7800000 
 573              	.LVL68:
 574              		.loc 1 216 9
 575 0394 63160500 		bne	a0,zero,.L42
 217:src/kernel/mmanagement/object_cache.cpp ****         tmp = tmp->next;
 576              		.loc 1 217 9 is_stmt 1
 577              		.loc 1 217 13 is_stmt 0
 578 0398 83B40400 		ld	s1,0(s1)
 579              	.LVL69:
GAS LISTING /tmp/ccpJ2pYY.s 			page 18


 580              	.LBE16:
 214:src/kernel/mmanagement/object_cache.cpp ****         Slab* slab_meta = get_list_parent(tmp, Slab, node);
 581              		.loc 1 214 5
 582 039c 6FF01FFE 		j	.L41
 583              	.L42:
 584              	.LBB17:
 216:src/kernel/mmanagement/object_cache.cpp ****         if(slab_meta->contains(addr)) return slab_meta;
 585              		.loc 1 216 46
 586 03a0 93040900 		mv	s1,s2
 587              	.LVL70:
 588              	.L40:
 589              	.LBE17:
 218:src/kernel/mmanagement/object_cache.cpp ****     }
 219:src/kernel/mmanagement/object_cache.cpp ****     return 0;
 220:src/kernel/mmanagement/object_cache.cpp **** }
 590              		.loc 1 220 1
 591 03a4 13850400 		mv	a0,s1
 592 03a8 83308102 		ld	ra,40(sp)
 593              		.cfi_restore 1
 594 03ac 03340102 		ld	s0,32(sp)
 595              		.cfi_restore 8
 596              		.cfi_def_cfa 2, 48
 597 03b0 83348101 		ld	s1,24(sp)
 598              		.cfi_restore 9
 599 03b4 03390101 		ld	s2,16(sp)
 600              		.cfi_restore 18
 601 03b8 83398100 		ld	s3,8(sp)
 602              		.cfi_restore 19
 603              	.LVL71:
 604 03bc 13010103 		addi	sp,sp,48
 605              		.cfi_def_cfa_offset 0
 606 03c0 67800000 		jr	ra
 607              		.cfi_endproc
 608              	.LFE124:
 610              		.align	2
 611              		.globl	_ZN11ObjectCache13print_privateEc
 613              	_ZN11ObjectCache13print_privateEc:
 614              	.LFB127:
 221:src/kernel/mmanagement/object_cache.cpp **** 
 222:src/kernel/mmanagement/object_cache.cpp **** 
 223:src/kernel/mmanagement/object_cache.cpp **** 
 224:src/kernel/mmanagement/object_cache.cpp **** int ObjectCache::free_obj(void* ptr){
 225:src/kernel/mmanagement/object_cache.cpp ****     // kprintString(name); kprintString(": ");
 226:src/kernel/mmanagement/object_cache.cpp ****     // KCHECKPRINT(ptr);
 227:src/kernel/mmanagement/object_cache.cpp ****     Slab* slab_meta = *(Slab**)((uint64)ptr & (-Buddy::BLOCK_SIZE));
 228:src/kernel/mmanagement/object_cache.cpp ****     
 229:src/kernel/mmanagement/object_cache.cpp ****     if(type == BUFF_SLAB){
 230:src/kernel/mmanagement/object_cache.cpp ****         slab_meta = find_slab(ptr, part_head);
 231:src/kernel/mmanagement/object_cache.cpp ****         
 232:src/kernel/mmanagement/object_cache.cpp ****         if(!slab_meta)
 233:src/kernel/mmanagement/object_cache.cpp ****             slab_meta = find_slab(ptr, full_head);
 234:src/kernel/mmanagement/object_cache.cpp ****         
 235:src/kernel/mmanagement/object_cache.cpp ****         if(!slab_meta){
 236:src/kernel/mmanagement/object_cache.cpp ****              return 2;
 237:src/kernel/mmanagement/object_cache.cpp ****         }
 238:src/kernel/mmanagement/object_cache.cpp ****     }
 239:src/kernel/mmanagement/object_cache.cpp ****     
GAS LISTING /tmp/ccpJ2pYY.s 			page 19


 240:src/kernel/mmanagement/object_cache.cpp ****     if(slab_meta->parent != this){
 241:src/kernel/mmanagement/object_cache.cpp ****         error = "Dealocation failed: Object is not from specified cache!!";
 242:src/kernel/mmanagement/object_cache.cpp ****         return 1;
 243:src/kernel/mmanagement/object_cache.cpp ****     }
 244:src/kernel/mmanagement/object_cache.cpp ****     bool was_full = slab_meta->full();
 245:src/kernel/mmanagement/object_cache.cpp ****     int ind = slab_meta->put_obj(ptr);
 246:src/kernel/mmanagement/object_cache.cpp ****     
 247:src/kernel/mmanagement/object_cache.cpp ****     if(ind){
 248:src/kernel/mmanagement/object_cache.cpp ****         error = "Deallocation failed: invalid deallocation address!";
 249:src/kernel/mmanagement/object_cache.cpp ****         return ind;
 250:src/kernel/mmanagement/object_cache.cpp ****     }else if(ctor)
 251:src/kernel/mmanagement/object_cache.cpp ****         ctor(ptr);
 252:src/kernel/mmanagement/object_cache.cpp ****     else 
 253:src/kernel/mmanagement/object_cache.cpp ****         zero_out(ptr);
 254:src/kernel/mmanagement/object_cache.cpp ****     
 255:src/kernel/mmanagement/object_cache.cpp ****     list_update_free(slab_meta, was_full);
 256:src/kernel/mmanagement/object_cache.cpp ****         
 257:src/kernel/mmanagement/object_cache.cpp ****     return 0;
 258:src/kernel/mmanagement/object_cache.cpp **** }
 259:src/kernel/mmanagement/object_cache.cpp **** 
 260:src/kernel/mmanagement/object_cache.cpp **** 
 261:src/kernel/mmanagement/object_cache.cpp **** 
 262:src/kernel/mmanagement/object_cache.cpp **** 
 263:src/kernel/mmanagement/object_cache.cpp **** int ObjectCache::shrink(){
 264:src/kernel/mmanagement/object_cache.cpp ****     if(!free_head){
 265:src/kernel/mmanagement/object_cache.cpp ****         error = "No free slabs!";
 266:src/kernel/mmanagement/object_cache.cpp ****         return 1;
 267:src/kernel/mmanagement/object_cache.cpp ****     }
 268:src/kernel/mmanagement/object_cache.cpp ****     while(free_head){
 269:src/kernel/mmanagement/object_cache.cpp ****         Slab* slab = get_list_parent(free_head, Slab, node);
 270:src/kernel/mmanagement/object_cache.cpp ****         free_head = remove(free_head);
 271:src/kernel/mmanagement/object_cache.cpp ****         
 272:src/kernel/mmanagement/object_cache.cpp ****         uchar buddy_level;
 273:src/kernel/mmanagement/object_cache.cpp ****         get_slab_size(&buddy_level);
 274:src/kernel/mmanagement/object_cache.cpp **** 
 275:src/kernel/mmanagement/object_cache.cpp ****         Buddy::getInstance().mem_free(slab->addr_start, buddy_level);
 276:src/kernel/mmanagement/object_cache.cpp ****         if(type == BUFF_SLAB || type == OFF_SLAB)
 277:src/kernel/mmanagement/object_cache.cpp ****             SlabAllocator::getInstance().slab_cache.free_obj(slab);
 278:src/kernel/mmanagement/object_cache.cpp ****     }
 279:src/kernel/mmanagement/object_cache.cpp ****     return 0;
 280:src/kernel/mmanagement/object_cache.cpp **** }
 281:src/kernel/mmanagement/object_cache.cpp **** 
 282:src/kernel/mmanagement/object_cache.cpp **** 
 283:src/kernel/mmanagement/object_cache.cpp **** void ObjectCache::print_private(char flags){
 615              		.loc 1 283 44 is_stmt 1
 616              		.cfi_startproc
 617              	.LVL72:
 618 03c4 130101FD 		addi	sp,sp,-48
 619              		.cfi_def_cfa_offset 48
 620 03c8 23341102 		sd	ra,40(sp)
 621 03cc 23308102 		sd	s0,32(sp)
 622 03d0 233C9100 		sd	s1,24(sp)
 623 03d4 23382101 		sd	s2,16(sp)
 624 03d8 23343101 		sd	s3,8(sp)
 625              		.cfi_offset 1, -8
 626              		.cfi_offset 8, -16
 627              		.cfi_offset 9, -24
GAS LISTING /tmp/ccpJ2pYY.s 			page 20


 628              		.cfi_offset 18, -32
 629              		.cfi_offset 19, -40
 630 03dc 13040103 		addi	s0,sp,48
 631              		.cfi_def_cfa 8, 0
 632 03e0 93090500 		mv	s3,a0
 633 03e4 13890500 		mv	s2,a1
 284:src/kernel/mmanagement/object_cache.cpp ****     KCHECKPRINT(objsize);
 634              		.loc 1 284 5
 635 03e8 17050000 		lla	a0,.LC0
 635      13050500 
 636              	.LVL73:
 637 03f0 97000000 		call	_Z12kprintStringPKc
 637      E7800000 
 638              	.LVL74:
 639              		.loc 1 284 5
 640 03f8 13060000 		li	a2,0
 641 03fc 93050001 		li	a1,16
 642 0400 03B50901 		ld	a0,16(s3)
 643 0404 97000000 		call	_Z9kprintIntmib
 643      E7800000 
 644              	.LVL75:
 645              		.loc 1 284 5
 646 040c 17050000 		lla	a0,.LC1
 646      13050500 
 647 0414 97000000 		call	_Z12kprintStringPKc
 647      E7800000 
 648              	.LVL76:
 285:src/kernel/mmanagement/object_cache.cpp ****         KVALCHECKPRINT(SLAB SIZE, get_slab_size());
 649              		.loc 1 285 9
 650 041c 17050000 		lla	a0,.LC2
 650      13050500 
 651 0424 97000000 		call	_Z12kprintStringPKc
 651      E7800000 
 652              	.LVL77:
 653              		.loc 1 285 9
 654 042c 93050000 		li	a1,0
 655 0430 13850900 		mv	a0,s3
 656 0434 97000000 		call	_ZN11ObjectCache13get_slab_sizeEPh
 656      E7800000 
 657              	.LVL78:
 658 043c 13060000 		li	a2,0
 659 0440 93050001 		li	a1,16
 660 0444 97000000 		call	_Z9kprintIntmib
 660      E7800000 
 661              	.LVL79:
 662              		.loc 1 285 9
 663 044c 17050000 		lla	a0,.LC1
 663      13050500 
 664 0454 97000000 		call	_Z12kprintStringPKc
 664      E7800000 
 665              	.LVL80:
 286:src/kernel/mmanagement/object_cache.cpp ****         kprintString("SLAB TYPE: ");
 666              		.loc 1 286 9
 667              		.loc 1 286 21 is_stmt 0
 668 045c 17050000 		lla	a0,.LC3
 668      13050500 
 669 0464 97000000 		call	_Z12kprintStringPKc
GAS LISTING /tmp/ccpJ2pYY.s 			page 21


 669      E7800000 
 670              	.LVL81:
 287:src/kernel/mmanagement/object_cache.cpp ****         switch (type) {
 671              		.loc 1 287 9 is_stmt 1
 672              		.loc 1 287 17 is_stmt 0
 673 046c 83A78901 		lw	a5,24(s3)
 674              		.loc 1 287 9
 675 0470 13074000 		li	a4,4
 676 0474 6368F702 		bgtu	a5,a4,.L45
 677 0478 93972700 		slli	a5,a5,2
 678 047c 17070000 		lla	a4,.L47
 678      13070700 
 679 0484 B387E700 		add	a5,a5,a4
 680 0488 83A70700 		lw	a5,0(a5)
 681 048c B387E700 		add	a5,a5,a4
 682 0490 67800700 		jr	a5
 683              		.section	.rodata
 684              		.align	2
 685              		.align	2
 686              	.L47:
 687 0000 00000000 		.word	.L51-.L47
 688 0004 00000000 		.word	.L50-.L47
 689 0008 00000000 		.word	.L49-.L47
 690 000c 00000000 		.word	.L48-.L47
 691 0010 00000000 		.word	.L46-.L47
 692              		.text
 693              	.L51:
 288:src/kernel/mmanagement/object_cache.cpp ****             case NONE : kprintString("NONE\n");
 694              		.loc 1 288 13 is_stmt 1
 695              		.loc 1 288 25
 696              		.loc 1 288 37 is_stmt 0
 697 0494 17050000 		lla	a0,.LC4
 697      13050500 
 698 049c 97000000 		call	_Z12kprintStringPKc
 698      E7800000 
 699              	.LVL82:
 289:src/kernel/mmanagement/object_cache.cpp ****             break;
 700              		.loc 1 289 13 is_stmt 1
 701              	.L45:
 290:src/kernel/mmanagement/object_cache.cpp ****             case OFF_SLAB : kprintString("OFF_SLAB\n");
 291:src/kernel/mmanagement/object_cache.cpp ****             break;
 292:src/kernel/mmanagement/object_cache.cpp ****             case SLAB_SLAB : kprintString("SLAB_SLAB\n");
 293:src/kernel/mmanagement/object_cache.cpp ****             break;
 294:src/kernel/mmanagement/object_cache.cpp ****             case ON_SLAB: kprintString("ON_SLAB\n");
 295:src/kernel/mmanagement/object_cache.cpp ****             break;
 296:src/kernel/mmanagement/object_cache.cpp ****             case BUFF_SLAB: kprintString("BUFF_SLAB\n");
 297:src/kernel/mmanagement/object_cache.cpp ****             break;
 298:src/kernel/mmanagement/object_cache.cpp ****         }
 299:src/kernel/mmanagement/object_cache.cpp ****         kprintString("!!!!!!FREE SLAB LIST!!!!!! \n");
 702              		.loc 1 299 9
 703              		.loc 1 299 21 is_stmt 0
 704 04a4 17050000 		lla	a0,.LC9
 704      13050500 
 705 04ac 97000000 		call	_Z12kprintStringPKc
 705      E7800000 
 706              	.LVL83:
 300:src/kernel/mmanagement/object_cache.cpp ****         list_t* tmp = free_head;
GAS LISTING /tmp/ccpJ2pYY.s 			page 22


 707              		.loc 1 300 9 is_stmt 1
 708              		.loc 1 300 17 is_stmt 0
 709 04b4 83B40902 		ld	s1,32(s3)
 710              	.LVL84:
 711              	.L53:
 301:src/kernel/mmanagement/object_cache.cpp ****         while(tmp){
 712              		.loc 1 301 9 is_stmt 1
 713              		.loc 1 301 15 is_stmt 0
 714 04b8 638E0406 		beq	s1,zero,.L52
 715              	.LBB18:
 302:src/kernel/mmanagement/object_cache.cpp ****             Slab* tmp_slab = get_list_parent(tmp, Slab, node);
 716              		.loc 1 302 13 is_stmt 1
 717              	.LVL85:
 303:src/kernel/mmanagement/object_cache.cpp ****             tmp_slab->print_info(flags);
 718              		.loc 1 303 13
 719              		.loc 1 303 33 is_stmt 0
 720 04bc 93050900 		mv	a1,s2
 721 04c0 138584F5 		addi	a0,s1,-168
 722              	.LVL86:
 723 04c4 97000000 		call	_ZN4Slab10print_infoEc
 723      E7800000 
 724              	.LVL87:
 304:src/kernel/mmanagement/object_cache.cpp ****             kprintString("\n");
 725              		.loc 1 304 13 is_stmt 1
 726              		.loc 1 304 25 is_stmt 0
 727 04cc 17050000 		lla	a0,.LC1
 727      13050500 
 728 04d4 97000000 		call	_Z12kprintStringPKc
 728      E7800000 
 729              	.LVL88:
 305:src/kernel/mmanagement/object_cache.cpp ****             tmp = tmp->next;
 730              		.loc 1 305 13 is_stmt 1
 731              		.loc 1 305 17 is_stmt 0
 732 04dc 83B40400 		ld	s1,0(s1)
 733              	.LVL89:
 734              	.LBE18:
 301:src/kernel/mmanagement/object_cache.cpp ****             Slab* tmp_slab = get_list_parent(tmp, Slab, node);
 735              		.loc 1 301 9
 736 04e0 6FF09FFD 		j	.L53
 737              	.LVL90:
 738              	.L50:
 290:src/kernel/mmanagement/object_cache.cpp ****             break;
 739              		.loc 1 290 13 is_stmt 1
 290:src/kernel/mmanagement/object_cache.cpp ****             break;
 740              		.loc 1 290 29
 290:src/kernel/mmanagement/object_cache.cpp ****             break;
 741              		.loc 1 290 41 is_stmt 0
 742 04e4 17050000 		lla	a0,.LC5
 742      13050500 
 743 04ec 97000000 		call	_Z12kprintStringPKc
 743      E7800000 
 744              	.LVL91:
 291:src/kernel/mmanagement/object_cache.cpp ****             case SLAB_SLAB : kprintString("SLAB_SLAB\n");
 745              		.loc 1 291 13 is_stmt 1
 746 04f4 6FF01FFB 		j	.L45
 747              	.L49:
 292:src/kernel/mmanagement/object_cache.cpp ****             break;
GAS LISTING /tmp/ccpJ2pYY.s 			page 23


 748              		.loc 1 292 13
 292:src/kernel/mmanagement/object_cache.cpp ****             break;
 749              		.loc 1 292 30
 292:src/kernel/mmanagement/object_cache.cpp ****             break;
 750              		.loc 1 292 42 is_stmt 0
 751 04f8 17050000 		lla	a0,.LC6
 751      13050500 
 752 0500 97000000 		call	_Z12kprintStringPKc
 752      E7800000 
 753              	.LVL92:
 293:src/kernel/mmanagement/object_cache.cpp ****             case ON_SLAB: kprintString("ON_SLAB\n");
 754              		.loc 1 293 13 is_stmt 1
 755 0508 6FF0DFF9 		j	.L45
 756              	.L48:
 294:src/kernel/mmanagement/object_cache.cpp ****             break;
 757              		.loc 1 294 13
 294:src/kernel/mmanagement/object_cache.cpp ****             break;
 758              		.loc 1 294 27
 294:src/kernel/mmanagement/object_cache.cpp ****             break;
 759              		.loc 1 294 39 is_stmt 0
 760 050c 17050000 		lla	a0,.LC7
 760      13050500 
 761 0514 97000000 		call	_Z12kprintStringPKc
 761      E7800000 
 762              	.LVL93:
 295:src/kernel/mmanagement/object_cache.cpp ****             case BUFF_SLAB: kprintString("BUFF_SLAB\n");
 763              		.loc 1 295 13 is_stmt 1
 764 051c 6FF09FF8 		j	.L45
 765              	.L46:
 296:src/kernel/mmanagement/object_cache.cpp ****             break;
 766              		.loc 1 296 13
 296:src/kernel/mmanagement/object_cache.cpp ****             break;
 767              		.loc 1 296 29
 296:src/kernel/mmanagement/object_cache.cpp ****             break;
 768              		.loc 1 296 41 is_stmt 0
 769 0520 17050000 		lla	a0,.LC8
 769      13050500 
 770 0528 97000000 		call	_Z12kprintStringPKc
 770      E7800000 
 771              	.LVL94:
 297:src/kernel/mmanagement/object_cache.cpp ****         }
 772              		.loc 1 297 13 is_stmt 1
 773 0530 6FF05FF7 		j	.L45
 774              	.LVL95:
 775              	.L52:
 306:src/kernel/mmanagement/object_cache.cpp ****         }
 307:src/kernel/mmanagement/object_cache.cpp ****         kprintString("!!!!!!PARTIAL SLAB LIST!!!!!! \n");
 776              		.loc 1 307 9
 777              		.loc 1 307 21 is_stmt 0
 778 0534 17050000 		lla	a0,.LC10
 778      13050500 
 779 053c 97000000 		call	_Z12kprintStringPKc
 779      E7800000 
 780              	.LVL96:
 308:src/kernel/mmanagement/object_cache.cpp ****         tmp = part_head;
 781              		.loc 1 308 9 is_stmt 1
 782              		.loc 1 308 13 is_stmt 0
GAS LISTING /tmp/ccpJ2pYY.s 			page 24


 783 0544 83B48902 		ld	s1,40(s3)
 784              	.LVL97:
 785              	.L55:
 309:src/kernel/mmanagement/object_cache.cpp ****         while(tmp){
 786              		.loc 1 309 9 is_stmt 1
 787              		.loc 1 309 15 is_stmt 0
 788 0548 63860402 		beq	s1,zero,.L54
 789              	.LBB19:
 310:src/kernel/mmanagement/object_cache.cpp ****             Slab* tmp_slab = get_list_parent(tmp, Slab, node);
 790              		.loc 1 310 13 is_stmt 1
 791              	.LVL98:
 311:src/kernel/mmanagement/object_cache.cpp ****             tmp_slab->print_info(flags);
 792              		.loc 1 311 13
 793              		.loc 1 311 33 is_stmt 0
 794 054c 93050900 		mv	a1,s2
 795 0550 138584F5 		addi	a0,s1,-168
 796              	.LVL99:
 797 0554 97000000 		call	_ZN4Slab10print_infoEc
 797      E7800000 
 798              	.LVL100:
 312:src/kernel/mmanagement/object_cache.cpp ****             kprintString("\n");
 799              		.loc 1 312 13 is_stmt 1
 800              		.loc 1 312 25 is_stmt 0
 801 055c 17050000 		lla	a0,.LC1
 801      13050500 
 802 0564 97000000 		call	_Z12kprintStringPKc
 802      E7800000 
 803              	.LVL101:
 313:src/kernel/mmanagement/object_cache.cpp ****             tmp = tmp->next;
 804              		.loc 1 313 13 is_stmt 1
 805              		.loc 1 313 17 is_stmt 0
 806 056c 83B40400 		ld	s1,0(s1)
 807              	.LVL102:
 808              	.LBE19:
 309:src/kernel/mmanagement/object_cache.cpp ****             Slab* tmp_slab = get_list_parent(tmp, Slab, node);
 809              		.loc 1 309 9
 810 0570 6FF09FFD 		j	.L55
 811              	.L54:
 314:src/kernel/mmanagement/object_cache.cpp ****         }
 315:src/kernel/mmanagement/object_cache.cpp ****         kprintString("!!!!!!FULL SLAB LIST!!!!!!\n");
 812              		.loc 1 315 9 is_stmt 1
 813              		.loc 1 315 21 is_stmt 0
 814 0574 17050000 		lla	a0,.LC11
 814      13050500 
 815 057c 97000000 		call	_Z12kprintStringPKc
 815      E7800000 
 816              	.LVL103:
 316:src/kernel/mmanagement/object_cache.cpp ****         tmp = full_head;
 817              		.loc 1 316 9 is_stmt 1
 818              		.loc 1 316 13 is_stmt 0
 819 0584 83B40903 		ld	s1,48(s3)
 820              	.LVL104:
 821              	.L57:
 317:src/kernel/mmanagement/object_cache.cpp ****         while(tmp){
 822              		.loc 1 317 9 is_stmt 1
 823              		.loc 1 317 15 is_stmt 0
 824 0588 63860402 		beq	s1,zero,.L44
GAS LISTING /tmp/ccpJ2pYY.s 			page 25


 825              	.LBB20:
 318:src/kernel/mmanagement/object_cache.cpp ****             Slab* tmp_slab = get_list_parent(tmp, Slab, node);
 826              		.loc 1 318 13 is_stmt 1
 827              	.LVL105:
 319:src/kernel/mmanagement/object_cache.cpp ****             tmp_slab->print_info(flags);
 828              		.loc 1 319 13
 829              		.loc 1 319 33 is_stmt 0
 830 058c 93050900 		mv	a1,s2
 831 0590 138584F5 		addi	a0,s1,-168
 832              	.LVL106:
 833 0594 97000000 		call	_ZN4Slab10print_infoEc
 833      E7800000 
 834              	.LVL107:
 320:src/kernel/mmanagement/object_cache.cpp ****             kprintString("\n");
 835              		.loc 1 320 13 is_stmt 1
 836              		.loc 1 320 25 is_stmt 0
 837 059c 17050000 		lla	a0,.LC1
 837      13050500 
 838 05a4 97000000 		call	_Z12kprintStringPKc
 838      E7800000 
 839              	.LVL108:
 321:src/kernel/mmanagement/object_cache.cpp ****             tmp = tmp->next;
 840              		.loc 1 321 13 is_stmt 1
 841              		.loc 1 321 17 is_stmt 0
 842 05ac 83B40400 		ld	s1,0(s1)
 843              	.LVL109:
 844              	.LBE20:
 317:src/kernel/mmanagement/object_cache.cpp ****             Slab* tmp_slab = get_list_parent(tmp, Slab, node);
 845              		.loc 1 317 9
 846 05b0 6FF09FFD 		j	.L57
 847              	.L44:
 322:src/kernel/mmanagement/object_cache.cpp ****         }
 323:src/kernel/mmanagement/object_cache.cpp **** }
 848              		.loc 1 323 1
 849 05b4 83308102 		ld	ra,40(sp)
 850              		.cfi_restore 1
 851 05b8 03340102 		ld	s0,32(sp)
 852              		.cfi_restore 8
 853              		.cfi_def_cfa 2, 48
 854 05bc 83348101 		ld	s1,24(sp)
 855              		.cfi_restore 9
 856              	.LVL110:
 857 05c0 03390101 		ld	s2,16(sp)
 858              		.cfi_restore 18
 859 05c4 83398100 		ld	s3,8(sp)
 860              		.cfi_restore 19
 861              	.LVL111:
 862 05c8 13010103 		addi	sp,sp,48
 863              		.cfi_def_cfa_offset 0
 864 05cc 67800000 		jr	ra
 865              		.cfi_endproc
 866              	.LFE127:
 868              		.align	2
 869              		.globl	_ZN11ObjectCache9printInfoEc
 871              	_ZN11ObjectCache9printInfoEc:
 872              	.LFB128:
 324:src/kernel/mmanagement/object_cache.cpp **** 
GAS LISTING /tmp/ccpJ2pYY.s 			page 26


 325:src/kernel/mmanagement/object_cache.cpp **** void ObjectCache::printInfo(char flags){
 873              		.loc 1 325 40 is_stmt 1
 874              		.cfi_startproc
 875              	.LVL112:
 876 05d0 130101FB 		addi	sp,sp,-80
 877              		.cfi_def_cfa_offset 80
 878 05d4 23341104 		sd	ra,72(sp)
 879 05d8 23308104 		sd	s0,64(sp)
 880 05dc 233C9102 		sd	s1,56(sp)
 881 05e0 23382103 		sd	s2,48(sp)
 882 05e4 23343103 		sd	s3,40(sp)
 883 05e8 23304103 		sd	s4,32(sp)
 884 05ec 233C5101 		sd	s5,24(sp)
 885 05f0 23386101 		sd	s6,16(sp)
 886 05f4 23347101 		sd	s7,8(sp)
 887 05f8 23308101 		sd	s8,0(sp)
 888              		.cfi_offset 1, -8
 889              		.cfi_offset 8, -16
 890              		.cfi_offset 9, -24
 891              		.cfi_offset 18, -32
 892              		.cfi_offset 19, -40
 893              		.cfi_offset 20, -48
 894              		.cfi_offset 21, -56
 895              		.cfi_offset 22, -64
 896              		.cfi_offset 23, -72
 897              		.cfi_offset 24, -80
 898 05fc 13040105 		addi	s0,sp,80
 899              		.cfi_def_cfa 8, 0
 900 0600 930A0500 		mv	s5,a0
 901 0604 938B0500 		mv	s7,a1
 326:src/kernel/mmanagement/object_cache.cpp **** 
 327:src/kernel/mmanagement/object_cache.cpp **** 
 328:src/kernel/mmanagement/object_cache.cpp ****     kprintString("\n--------OBJCACHE ");kprintString(name); kprintString("--------\n");
 902              		.loc 1 328 5
 903              		.loc 1 328 17 is_stmt 0
 904 0608 17050000 		lla	a0,.LC12
 904      13050500 
 905              	.LVL113:
 906 0610 97000000 		call	_Z12kprintStringPKc
 906      E7800000 
 907              	.LVL114:
 908              		.loc 1 328 41 is_stmt 1
 909              		.loc 1 328 53 is_stmt 0
 910 0618 03B50A00 		ld	a0,0(s5)
 911 061c 97000000 		call	_Z12kprintStringPKc
 911      E7800000 
 912              	.LVL115:
 913              		.loc 1 328 61 is_stmt 1
 914              		.loc 1 328 73 is_stmt 0
 915 0624 17050000 		lla	a0,.LC13
 915      13050500 
 916 062c 97000000 		call	_Z12kprintStringPKc
 916      E7800000 
 917              	.LVL116:
 329:src/kernel/mmanagement/object_cache.cpp ****    
 330:src/kernel/mmanagement/object_cache.cpp ****     size_t alloc_obj_num = 0, slab_size = get_slab_size(), max_obj_num_in_slab, free_slab_num = 0, 
 918              		.loc 1 330 5 is_stmt 1
GAS LISTING /tmp/ccpJ2pYY.s 			page 27


 919              		.loc 1 330 56 is_stmt 0
 920 0634 93050000 		li	a1,0
 921 0638 13850A00 		mv	a0,s5
 922 063c 97000000 		call	_ZN11ObjectCache13get_slab_sizeEPh
 922      E7800000 
 923              	.LVL117:
 924 0644 130B0500 		mv	s6,a0
 925              	.LVL118:
 331:src/kernel/mmanagement/object_cache.cpp **** 
 332:src/kernel/mmanagement/object_cache.cpp ****     if(type == BUFF_SLAB)
 926              		.loc 1 332 5 is_stmt 1
 927              		.loc 1 332 8 is_stmt 0
 928 0648 83A78A01 		lw	a5,24(s5)
 929              		.loc 1 332 5
 930 064c 13074000 		li	a4,4
 931 0650 6388E702 		beq	a5,a4,.L73
 333:src/kernel/mmanagement/object_cache.cpp ****         max_obj_num_in_slab = slab_size/objsize;
 334:src/kernel/mmanagement/object_cache.cpp ****     else if(type == SLAB_SLAB)
 932              		.loc 1 334 10 is_stmt 1
 933 0654 13072000 		li	a4,2
 934 0658 638AE702 		beq	a5,a4,.L74
 335:src/kernel/mmanagement/object_cache.cpp ****         max_obj_num_in_slab = (slab_size - sizeof(void*) - objsize)/objsize;
 336:src/kernel/mmanagement/object_cache.cpp ****     else
 337:src/kernel/mmanagement/object_cache.cpp ****         max_obj_num_in_slab = (slab_size - sizeof(void*))/objsize;
 935              		.loc 1 337 9
 936              		.loc 1 337 42 is_stmt 0
 937 065c 130A85FF 		addi	s4,a0,-8
 938              		.loc 1 337 59
 939 0660 83B70A01 		ld	a5,16(s5)
 940              		.loc 1 337 29
 941 0664 335AFA02 		divu	s4,s4,a5
 942              	.LVL119:
 943              	.L61:
 338:src/kernel/mmanagement/object_cache.cpp **** 
 339:src/kernel/mmanagement/object_cache.cpp ****     list_t* cur;
 944              		.loc 1 339 5 is_stmt 1
 340:src/kernel/mmanagement/object_cache.cpp ****     for(cur = free_head; cur; cur = cur->next) free_slab_num++;
 945              		.loc 1 340 5
 946              		.loc 1 340 13 is_stmt 0
 947 0668 83B70A02 		ld	a5,32(s5)
 948              	.LVL120:
 330:src/kernel/mmanagement/object_cache.cpp **** 
 949              		.loc 1 330 81
 950 066c 93090000 		li	s3,0
 951              	.LVL121:
 952              	.L64:
 953              		.loc 1 340 26 discriminator 3
 954 0670 63880702 		beq	a5,zero,.L63
 955              		.loc 1 340 48 is_stmt 1 discriminator 2
 956              		.loc 1 340 61 is_stmt 0 discriminator 2
 957 0674 93891900 		addi	s3,s3,1
 958              	.LVL122:
 959              		.loc 1 340 35 discriminator 2
 960 0678 83B70700 		ld	a5,0(a5)
 961              	.LVL123:
 962              		.loc 1 340 5 discriminator 2
 963 067c 6FF05FFF 		j	.L64
GAS LISTING /tmp/ccpJ2pYY.s 			page 28


 964              	.LVL124:
 965              	.L73:
 333:src/kernel/mmanagement/object_cache.cpp ****     else if(type == SLAB_SLAB)
 966              		.loc 1 333 9 is_stmt 1
 333:src/kernel/mmanagement/object_cache.cpp ****     else if(type == SLAB_SLAB)
 967              		.loc 1 333 41 is_stmt 0
 968 0680 03BA0A01 		ld	s4,16(s5)
 333:src/kernel/mmanagement/object_cache.cpp ****     else if(type == SLAB_SLAB)
 969              		.loc 1 333 29
 970 0684 335A4503 		divu	s4,a0,s4
 971              	.LVL125:
 972 0688 6FF01FFE 		j	.L61
 973              	.LVL126:
 974              	.L74:
 335:src/kernel/mmanagement/object_cache.cpp ****     else
 975              		.loc 1 335 9 is_stmt 1
 335:src/kernel/mmanagement/object_cache.cpp ****     else
 976              		.loc 1 335 60 is_stmt 0
 977 068c 83B70A01 		ld	a5,16(s5)
 335:src/kernel/mmanagement/object_cache.cpp ****     else
 978              		.loc 1 335 58
 979 0690 330AF540 		sub	s4,a0,a5
 980 0694 130A8AFF 		addi	s4,s4,-8
 335:src/kernel/mmanagement/object_cache.cpp ****     else
 981              		.loc 1 335 29
 982 0698 335AFA02 		divu	s4,s4,a5
 983              	.LVL127:
 984 069c 6FF0DFFC 		j	.L61
 985              	.LVL128:
 986              	.L63:
 341:src/kernel/mmanagement/object_cache.cpp **** 
 342:src/kernel/mmanagement/object_cache.cpp ****     for(cur = part_head; cur; cur = cur->next){
 987              		.loc 1 342 5 is_stmt 1
 988              	.LBB21:
 989              		.loc 1 342 13 is_stmt 0
 990 06a0 83B78A02 		ld	a5,40(s5)
 991              	.LVL129:
 992              	.LBE21:
 330:src/kernel/mmanagement/object_cache.cpp **** 
 993              		.loc 1 330 100
 994 06a4 13090000 		li	s2,0
 330:src/kernel/mmanagement/object_cache.cpp **** 
 995              		.loc 1 330 12
 996 06a8 93040000 		li	s1,0
 997 06ac 6F000001 		j	.L68
 998              	.LVL130:
 999              	.L66:
 1000              	.LBB24:
 1001              	.LBB22:
 343:src/kernel/mmanagement/object_cache.cpp ****         partial_slab_num++;
 344:src/kernel/mmanagement/object_cache.cpp ****         Slab* s = get_list_parent(cur, Slab, node);
 345:src/kernel/mmanagement/object_cache.cpp ****         if(s->front < s->rear) 
 346:src/kernel/mmanagement/object_cache.cpp ****             alloc_obj_num += s->cap - (s->rear - s->front);
 347:src/kernel/mmanagement/object_cache.cpp ****         else
 348:src/kernel/mmanagement/object_cache.cpp ****             alloc_obj_num += s->front - s->rear;
 1002              		.loc 1 348 13 is_stmt 1
 1003              		.loc 1 348 39 is_stmt 0
GAS LISTING /tmp/ccpJ2pYY.s 			page 29


 1004 06b0 3B07D740 		subw	a4,a4,a3
 1005              		.loc 1 348 27
 1006 06b4 B384E400 		add	s1,s1,a4
 1007              	.LVL131:
 1008              	.L67:
 1009              	.LBE22:
 342:src/kernel/mmanagement/object_cache.cpp ****         partial_slab_num++;
 1010              		.loc 1 342 35 discriminator 2
 1011 06b8 83B70700 		ld	a5,0(a5)
 1012              	.LVL132:
 1013              	.L68:
 342:src/kernel/mmanagement/object_cache.cpp ****         partial_slab_num++;
 1014              		.loc 1 342 26 discriminator 1
 1015 06bc 63840702 		beq	a5,zero,.L65
 1016              	.LBB23:
 343:src/kernel/mmanagement/object_cache.cpp ****         partial_slab_num++;
 1017              		.loc 1 343 9 is_stmt 1
 343:src/kernel/mmanagement/object_cache.cpp ****         partial_slab_num++;
 1018              		.loc 1 343 25 is_stmt 0
 1019 06c0 13091900 		addi	s2,s2,1
 1020              	.LVL133:
 344:src/kernel/mmanagement/object_cache.cpp ****         if(s->front < s->rear) 
 1021              		.loc 1 344 9 is_stmt 1
 345:src/kernel/mmanagement/object_cache.cpp ****             alloc_obj_num += s->cap - (s->rear - s->front);
 1022              		.loc 1 345 9
 345:src/kernel/mmanagement/object_cache.cpp ****             alloc_obj_num += s->cap - (s->rear - s->front);
 1023              		.loc 1 345 15 is_stmt 0
 1024 06c4 03C707FE 		lbu	a4,-32(a5)
 345:src/kernel/mmanagement/object_cache.cpp ****             alloc_obj_num += s->cap - (s->rear - s->front);
 1025              		.loc 1 345 26
 1026 06c8 83C617FE 		lbu	a3,-31(a5)
 345:src/kernel/mmanagement/object_cache.cpp ****             alloc_obj_num += s->cap - (s->rear - s->front);
 1027              		.loc 1 345 9
 1028 06cc E372D7FE 		bgeu	a4,a3,.L66
 346:src/kernel/mmanagement/object_cache.cpp ****         else
 1029              		.loc 1 346 13 is_stmt 1
 346:src/kernel/mmanagement/object_cache.cpp ****         else
 1030              		.loc 1 346 33 is_stmt 0
 1031 06d0 03C627FE 		lbu	a2,-30(a5)
 346:src/kernel/mmanagement/object_cache.cpp ****         else
 1032              		.loc 1 346 48
 1033 06d4 3B87E640 		subw	a4,a3,a4
 346:src/kernel/mmanagement/object_cache.cpp ****         else
 1034              		.loc 1 346 37
 1035 06d8 3B07E640 		subw	a4,a2,a4
 346:src/kernel/mmanagement/object_cache.cpp ****         else
 1036              		.loc 1 346 27
 1037 06dc B384E400 		add	s1,s1,a4
 1038              	.LVL134:
 1039 06e0 6FF09FFD 		j	.L67
 1040              	.LVL135:
 1041              	.L65:
 1042              	.LBE23:
 1043              	.LBE24:
 349:src/kernel/mmanagement/object_cache.cpp ****     }
 350:src/kernel/mmanagement/object_cache.cpp **** 
 351:src/kernel/mmanagement/object_cache.cpp ****     for(cur = full_head; cur; cur = cur->next){
GAS LISTING /tmp/ccpJ2pYY.s 			page 30


 1044              		.loc 1 351 5 is_stmt 1
 1045              		.loc 1 351 13 is_stmt 0
 1046 06e4 83B70A03 		ld	a5,48(s5)
 1047              	.LVL136:
 330:src/kernel/mmanagement/object_cache.cpp **** 
 1048              		.loc 1 330 122
 1049 06e8 130C0000 		li	s8,0
 1050              	.LVL137:
 1051              	.L70:
 1052              		.loc 1 351 26 discriminator 3
 1053 06ec 638A0700 		beq	a5,zero,.L69
 352:src/kernel/mmanagement/object_cache.cpp ****         full_slab_num++;
 1054              		.loc 1 352 9 is_stmt 1 discriminator 2
 1055              		.loc 1 352 22 is_stmt 0 discriminator 2
 1056 06f0 130C1C00 		addi	s8,s8,1
 1057              	.LVL138:
 353:src/kernel/mmanagement/object_cache.cpp ****         alloc_obj_num += max_obj_num_in_slab;
 1058              		.loc 1 353 9 is_stmt 1 discriminator 2
 1059              		.loc 1 353 23 is_stmt 0 discriminator 2
 1060 06f4 B3844401 		add	s1,s1,s4
 1061              	.LVL139:
 351:src/kernel/mmanagement/object_cache.cpp ****         full_slab_num++;
 1062              		.loc 1 351 35 discriminator 2
 1063 06f8 83B70700 		ld	a5,0(a5)
 1064              	.LVL140:
 351:src/kernel/mmanagement/object_cache.cpp ****         full_slab_num++;
 1065              		.loc 1 351 5 discriminator 2
 1066 06fc 6FF01FFF 		j	.L70
 1067              	.L69:
 354:src/kernel/mmanagement/object_cache.cpp ****     }
 355:src/kernel/mmanagement/object_cache.cpp **** 
 356:src/kernel/mmanagement/object_cache.cpp ****     KCHECKPRINT(free_slab_num);
 1068              		.loc 1 356 5 is_stmt 1
 1069 0700 17050000 		lla	a0,.LC14
 1069      13050500 
 1070              	.LVL141:
 1071 0708 97000000 		call	_Z12kprintStringPKc
 1071      E7800000 
 1072              	.LVL142:
 1073              		.loc 1 356 5
 1074 0710 13060000 		li	a2,0
 1075 0714 93050001 		li	a1,16
 1076 0718 13850900 		mv	a0,s3
 1077 071c 97000000 		call	_Z9kprintIntmib
 1077      E7800000 
 1078              	.LVL143:
 1079              		.loc 1 356 5
 1080 0724 17050000 		lla	a0,.LC1
 1080      13050500 
 1081 072c 97000000 		call	_Z12kprintStringPKc
 1081      E7800000 
 1082              	.LVL144:
 357:src/kernel/mmanagement/object_cache.cpp ****     KCHECKPRINT(partial_slab_num);
 1083              		.loc 1 357 5
 1084 0734 17050000 		lla	a0,.LC15
 1084      13050500 
 1085 073c 97000000 		call	_Z12kprintStringPKc
GAS LISTING /tmp/ccpJ2pYY.s 			page 31


 1085      E7800000 
 1086              	.LVL145:
 1087              		.loc 1 357 5
 1088 0744 13060000 		li	a2,0
 1089 0748 93050001 		li	a1,16
 1090 074c 13050900 		mv	a0,s2
 1091 0750 97000000 		call	_Z9kprintIntmib
 1091      E7800000 
 1092              	.LVL146:
 1093              		.loc 1 357 5
 1094 0758 17050000 		lla	a0,.LC1
 1094      13050500 
 1095 0760 97000000 		call	_Z12kprintStringPKc
 1095      E7800000 
 1096              	.LVL147:
 358:src/kernel/mmanagement/object_cache.cpp ****     KCHECKPRINT(full_slab_num);
 1097              		.loc 1 358 5
 1098 0768 17050000 		lla	a0,.LC16
 1098      13050500 
 1099 0770 97000000 		call	_Z12kprintStringPKc
 1099      E7800000 
 1100              	.LVL148:
 1101              		.loc 1 358 5
 1102 0778 13060000 		li	a2,0
 1103 077c 93050001 		li	a1,16
 1104 0780 13050C00 		mv	a0,s8
 1105 0784 97000000 		call	_Z9kprintIntmib
 1105      E7800000 
 1106              	.LVL149:
 1107              		.loc 1 358 5
 1108 078c 17050000 		lla	a0,.LC1
 1108      13050500 
 1109 0794 97000000 		call	_Z12kprintStringPKc
 1109      E7800000 
 1110              	.LVL150:
 359:src/kernel/mmanagement/object_cache.cpp ****     KCHECKPRINT(slab_size);
 1111              		.loc 1 359 5
 1112 079c 17050000 		lla	a0,.LC17
 1112      13050500 
 1113 07a4 97000000 		call	_Z12kprintStringPKc
 1113      E7800000 
 1114              	.LVL151:
 1115              		.loc 1 359 5
 1116 07ac 13060000 		li	a2,0
 1117 07b0 93050001 		li	a1,16
 1118 07b4 13050B00 		mv	a0,s6
 1119 07b8 97000000 		call	_Z9kprintIntmib
 1119      E7800000 
 1120              	.LVL152:
 1121              		.loc 1 359 5
 1122 07c0 17050000 		lla	a0,.LC1
 1122      13050500 
 1123 07c8 97000000 		call	_Z12kprintStringPKc
 1123      E7800000 
 1124              	.LVL153:
 360:src/kernel/mmanagement/object_cache.cpp ****     KCHECKPRINT(objsize);
 1125              		.loc 1 360 5
GAS LISTING /tmp/ccpJ2pYY.s 			page 32


 1126 07d0 17050000 		lla	a0,.LC0
 1126      13050500 
 1127 07d8 97000000 		call	_Z12kprintStringPKc
 1127      E7800000 
 1128              	.LVL154:
 1129              		.loc 1 360 5
 1130 07e0 13060000 		li	a2,0
 1131 07e4 93050001 		li	a1,16
 1132 07e8 03B50A01 		ld	a0,16(s5)
 1133 07ec 97000000 		call	_Z9kprintIntmib
 1133      E7800000 
 1134              	.LVL155:
 1135              		.loc 1 360 5
 1136 07f4 17050000 		lla	a0,.LC1
 1136      13050500 
 1137 07fc 97000000 		call	_Z12kprintStringPKc
 1137      E7800000 
 1138              	.LVL156:
 361:src/kernel/mmanagement/object_cache.cpp ****     KCHECKPRINT(max_obj_num_in_slab);
 1139              		.loc 1 361 5
 1140 0804 17050000 		lla	a0,.LC18
 1140      13050500 
 1141 080c 97000000 		call	_Z12kprintStringPKc
 1141      E7800000 
 1142              	.LVL157:
 1143              		.loc 1 361 5
 1144 0814 13060000 		li	a2,0
 1145 0818 93050001 		li	a1,16
 1146 081c 13050A00 		mv	a0,s4
 1147 0820 97000000 		call	_Z9kprintIntmib
 1147      E7800000 
 1148              	.LVL158:
 1149              		.loc 1 361 5
 1150 0828 17050000 		lla	a0,.LC1
 1150      13050500 
 1151 0830 97000000 		call	_Z12kprintStringPKc
 1151      E7800000 
 1152              	.LVL159:
 362:src/kernel/mmanagement/object_cache.cpp ****     KCHECKPRINT(alloc_obj_num);
 1153              		.loc 1 362 5
 1154 0838 17050000 		lla	a0,.LC19
 1154      13050500 
 1155 0840 97000000 		call	_Z12kprintStringPKc
 1155      E7800000 
 1156              	.LVL160:
 1157              		.loc 1 362 5
 1158 0848 13060000 		li	a2,0
 1159 084c 93050001 		li	a1,16
 1160 0850 13850400 		mv	a0,s1
 1161 0854 97000000 		call	_Z9kprintIntmib
 1161      E7800000 
 1162              	.LVL161:
 1163              		.loc 1 362 5
 1164 085c 17050000 		lla	a0,.LC1
 1164      13050500 
 1165 0864 97000000 		call	_Z12kprintStringPKc
 1165      E7800000 
GAS LISTING /tmp/ccpJ2pYY.s 			page 33


 1166              	.LVL162:
 363:src/kernel/mmanagement/object_cache.cpp **** 
 364:src/kernel/mmanagement/object_cache.cpp ****     
 365:src/kernel/mmanagement/object_cache.cpp ****     if(flags){ print_private(flags); }
 1167              		.loc 1 365 5
 1168 086c 63900B06 		bne	s7,zero,.L75
 1169              	.L71:
 366:src/kernel/mmanagement/object_cache.cpp ****     kprintString("------OBJCACHE ");kprintString(name); kprintString(" END------\n\n");
 1170              		.loc 1 366 5
 1171              		.loc 1 366 17 is_stmt 0
 1172 0870 17050000 		lla	a0,.LC20
 1172      13050500 
 1173 0878 97000000 		call	_Z12kprintStringPKc
 1173      E7800000 
 1174              	.LVL163:
 1175              		.loc 1 366 37 is_stmt 1
 1176              		.loc 1 366 49 is_stmt 0
 1177 0880 03B50A00 		ld	a0,0(s5)
 1178 0884 97000000 		call	_Z12kprintStringPKc
 1178      E7800000 
 1179              	.LVL164:
 1180              		.loc 1 366 57 is_stmt 1
 1181              		.loc 1 366 69 is_stmt 0
 1182 088c 17050000 		lla	a0,.LC21
 1182      13050500 
 1183 0894 97000000 		call	_Z12kprintStringPKc
 1183      E7800000 
 1184              	.LVL165:
 367:src/kernel/mmanagement/object_cache.cpp ****     
 368:src/kernel/mmanagement/object_cache.cpp **** }
 1185              		.loc 1 368 1
 1186 089c 83308104 		ld	ra,72(sp)
 1187              		.cfi_remember_state
 1188              		.cfi_restore 1
 1189 08a0 03340104 		ld	s0,64(sp)
 1190              		.cfi_restore 8
 1191              		.cfi_def_cfa 2, 80
 1192 08a4 83348103 		ld	s1,56(sp)
 1193              		.cfi_restore 9
 1194              	.LVL166:
 1195 08a8 03390103 		ld	s2,48(sp)
 1196              		.cfi_restore 18
 1197              	.LVL167:
 1198 08ac 83398102 		ld	s3,40(sp)
 1199              		.cfi_restore 19
 1200              	.LVL168:
 1201 08b0 033A0102 		ld	s4,32(sp)
 1202              		.cfi_restore 20
 1203              	.LVL169:
 1204 08b4 833A8101 		ld	s5,24(sp)
 1205              		.cfi_restore 21
 1206              	.LVL170:
 1207 08b8 033B0101 		ld	s6,16(sp)
 1208              		.cfi_restore 22
 1209              	.LVL171:
 1210 08bc 833B8100 		ld	s7,8(sp)
 1211              		.cfi_restore 23
GAS LISTING /tmp/ccpJ2pYY.s 			page 34


 1212 08c0 033C0100 		ld	s8,0(sp)
 1213              		.cfi_restore 24
 1214              	.LVL172:
 1215 08c4 13010105 		addi	sp,sp,80
 1216              		.cfi_def_cfa_offset 0
 1217 08c8 67800000 		jr	ra
 1218              	.LVL173:
 1219              	.L75:
 1220              		.cfi_restore_state
 365:src/kernel/mmanagement/object_cache.cpp ****     kprintString("------OBJCACHE ");kprintString(name); kprintString(" END------\n\n");
 1221              		.loc 1 365 16 is_stmt 1 discriminator 1
 365:src/kernel/mmanagement/object_cache.cpp ****     kprintString("------OBJCACHE ");kprintString(name); kprintString(" END------\n\n");
 1222              		.loc 1 365 29 is_stmt 0 discriminator 1
 1223 08cc 93850B00 		mv	a1,s7
 1224 08d0 13850A00 		mv	a0,s5
 1225 08d4 97000000 		call	_ZN11ObjectCache13print_privateEc
 1225      E7800000 
 1226              	.LVL174:
 1227 08dc 6FF05FF9 		j	.L71
 1228              		.cfi_endproc
 1229              	.LFE128:
 1231              		.align	2
 1232              		.globl	_ZN11ObjectCache10printErrorEv
 1234              	_ZN11ObjectCache10printErrorEv:
 1235              	.LFB133:
 369:src/kernel/mmanagement/object_cache.cpp **** 
 370:src/kernel/mmanagement/object_cache.cpp **** void ObjectCache::free_slabs(list_t* head){
 371:src/kernel/mmanagement/object_cache.cpp ****     while(head){
 372:src/kernel/mmanagement/object_cache.cpp ****         Slab* slab = get_list_parent(head, Slab, node);
 373:src/kernel/mmanagement/object_cache.cpp ****         head = remove(head);
 374:src/kernel/mmanagement/object_cache.cpp ****         
 375:src/kernel/mmanagement/object_cache.cpp ****         uchar buddy_level;
 376:src/kernel/mmanagement/object_cache.cpp ****         get_slab_size(&buddy_level);
 377:src/kernel/mmanagement/object_cache.cpp **** 
 378:src/kernel/mmanagement/object_cache.cpp ****         Buddy::getInstance().mem_free(slab->addr_start, buddy_level);
 379:src/kernel/mmanagement/object_cache.cpp ****         if(type == BUFF_SLAB || type == OFF_SLAB)
 380:src/kernel/mmanagement/object_cache.cpp ****             SlabAllocator::getInstance().slab_cache.free_obj(slab);
 381:src/kernel/mmanagement/object_cache.cpp ****     }
 382:src/kernel/mmanagement/object_cache.cpp **** }
 383:src/kernel/mmanagement/object_cache.cpp **** 
 384:src/kernel/mmanagement/object_cache.cpp **** ObjectCache::~ObjectCache(){
 385:src/kernel/mmanagement/object_cache.cpp ****     free_slabs(free_head);
 386:src/kernel/mmanagement/object_cache.cpp ****     free_slabs(part_head);
 387:src/kernel/mmanagement/object_cache.cpp ****     free_slabs(full_head);
 388:src/kernel/mmanagement/object_cache.cpp **** 
 389:src/kernel/mmanagement/object_cache.cpp **** }
 390:src/kernel/mmanagement/object_cache.cpp **** int ObjectCache::printError(){
 1236              		.loc 1 390 30 is_stmt 1
 1237              		.cfi_startproc
 1238              	.LVL175:
 391:src/kernel/mmanagement/object_cache.cpp ****     if(!error) return 0;
 1239              		.loc 1 391 5
 1240              		.loc 1 391 9 is_stmt 0
 1241 08e0 03358500 		ld	a0,8(a0)
 1242              	.LVL176:
 1243              		.loc 1 391 5
 1244 08e4 63080502 		beq	a0,zero,.L78
GAS LISTING /tmp/ccpJ2pYY.s 			page 35


 390:src/kernel/mmanagement/object_cache.cpp ****     if(!error) return 0;
 1245              		.loc 1 390 30
 1246 08e8 130101FF 		addi	sp,sp,-16
 1247              		.cfi_def_cfa_offset 16
 1248 08ec 23341100 		sd	ra,8(sp)
 1249 08f0 23308100 		sd	s0,0(sp)
 1250              		.cfi_offset 1, -8
 1251              		.cfi_offset 8, -16
 1252 08f4 13040101 		addi	s0,sp,16
 1253              		.cfi_def_cfa 8, 0
 392:src/kernel/mmanagement/object_cache.cpp **** 
 393:src/kernel/mmanagement/object_cache.cpp ****     kprintString(error);
 1254              		.loc 1 393 5 is_stmt 1
 1255              		.loc 1 393 17 is_stmt 0
 1256 08f8 97000000 		call	_Z12kprintStringPKc
 1256      E7800000 
 1257              	.LVL177:
 394:src/kernel/mmanagement/object_cache.cpp ****     return 1; 
 1258              		.loc 1 394 5 is_stmt 1
 1259              		.loc 1 394 12 is_stmt 0
 1260 0900 13051000 		li	a0,1
 395:src/kernel/mmanagement/object_cache.cpp **** }
 1261              		.loc 1 395 1
 1262 0904 83308100 		ld	ra,8(sp)
 1263              		.cfi_restore 1
 1264 0908 03340100 		ld	s0,0(sp)
 1265              		.cfi_restore 8
 1266              		.cfi_def_cfa 2, 16
 1267 090c 13010101 		addi	sp,sp,16
 1268              		.cfi_def_cfa_offset 0
 1269 0910 67800000 		jr	ra
 1270              	.L78:
 391:src/kernel/mmanagement/object_cache.cpp **** 
 1271              		.loc 1 391 23
 1272 0914 13050000 		li	a0,0
 1273              		.loc 1 395 1
 1274 0918 67800000 		ret
 1275              		.cfi_endproc
 1276              	.LFE133:
 1278              		.align	2
 1279              		.globl	_ZN11ObjectCache8zero_outEPv
 1281              	_ZN11ObjectCache8zero_outEPv:
 1282              	.LFB134:
 396:src/kernel/mmanagement/object_cache.cpp **** 
 397:src/kernel/mmanagement/object_cache.cpp **** void ObjectCache::zero_out(void* t){
 1283              		.loc 1 397 36 is_stmt 1
 1284              		.cfi_startproc
 1285              	.LVL178:
 1286 091c 130101FF 		addi	sp,sp,-16
 1287              		.cfi_def_cfa_offset 16
 1288 0920 23348100 		sd	s0,8(sp)
 1289              		.cfi_offset 8, -8
 1290 0924 13040101 		addi	s0,sp,16
 1291              		.cfi_def_cfa 8, 0
 398:src/kernel/mmanagement/object_cache.cpp ****     for( char* ptr = (char*)t; ptr < (char*)t + objsize; ptr++ )
 1292              		.loc 1 398 5
 1293              	.LVL179:
GAS LISTING /tmp/ccpJ2pYY.s 			page 36


 1294              	.LBB25:
 1295              		.loc 1 398 16 is_stmt 0
 1296 0928 13870500 		mv	a4,a1
 1297              	.LVL180:
 1298              	.L85:
 1299              		.loc 1 398 49 discriminator 3
 1300 092c 83370501 		ld	a5,16(a0)
 1301              		.loc 1 398 47 discriminator 3
 1302 0930 B387F500 		add	a5,a1,a5
 1303              		.loc 1 398 36 discriminator 3
 1304 0934 6378F700 		bleu	a5,a4,.L83
 399:src/kernel/mmanagement/object_cache.cpp ****         *ptr = 0;
 1305              		.loc 1 399 9 is_stmt 1 discriminator 2
 1306              		.loc 1 399 14 is_stmt 0 discriminator 2
 1307 0938 23000700 		sb	zero,0(a4)
 398:src/kernel/mmanagement/object_cache.cpp ****     for( char* ptr = (char*)t; ptr < (char*)t + objsize; ptr++ )
 1308              		.loc 1 398 5 discriminator 2
 1309 093c 13071700 		addi	a4,a4,1
 1310              	.LVL181:
 1311 0940 6FF0DFFE 		j	.L85
 1312              	.L83:
 1313              	.LBE25:
 400:src/kernel/mmanagement/object_cache.cpp **** 
 401:src/kernel/mmanagement/object_cache.cpp **** }...
 1314              		.loc 1 401 1
 1315 0944 03348100 		ld	s0,8(sp)
 1316              		.cfi_restore 8
 1317              		.cfi_def_cfa 2, 16
 1318 0948 13010101 		addi	sp,sp,16
 1319              		.cfi_def_cfa_offset 0
 1320 094c 67800000 		jr	ra
 1321              		.cfi_endproc
 1322              	.LFE134:
 1324              		.align	2
 1325              		.globl	_ZN11ObjectCache10slab_allocEv
 1327              	_ZN11ObjectCache10slab_allocEv:
 1328              	.LFB120:
  58:src/kernel/mmanagement/object_cache.cpp **** Slab* ObjectCache::slab_alloc(){
 1329              		.loc 1 58 32 is_stmt 1
 1330              		.cfi_startproc
 1331              	.LVL182:
 1332 0950 130101EF 		addi	sp,sp,-272
 1333              		.cfi_def_cfa_offset 272
 1334 0954 23341110 		sd	ra,264(sp)
 1335 0958 23308110 		sd	s0,256(sp)
 1336 095c 233C910E 		sd	s1,248(sp)
 1337 0960 2338210F 		sd	s2,240(sp)
 1338 0964 2334310F 		sd	s3,232(sp)
 1339 0968 2330410F 		sd	s4,224(sp)
 1340 096c 233C510D 		sd	s5,216(sp)
 1341 0970 2338610D 		sd	s6,208(sp)
 1342 0974 2334710D 		sd	s7,200(sp)
 1343              		.cfi_offset 1, -8
 1344              		.cfi_offset 8, -16
 1345              		.cfi_offset 9, -24
 1346              		.cfi_offset 18, -32
 1347              		.cfi_offset 19, -40
GAS LISTING /tmp/ccpJ2pYY.s 			page 37


 1348              		.cfi_offset 20, -48
 1349              		.cfi_offset 21, -56
 1350              		.cfi_offset 22, -64
 1351              		.cfi_offset 23, -72
 1352 0978 13040111 		addi	s0,sp,272
 1353              		.cfi_def_cfa 8, 0
 1354 097c 13090500 		mv	s2,a0
  59:src/kernel/mmanagement/object_cache.cpp ****     uchar obj_num, buddy_level; 
 1355              		.loc 1 59 5
  60:src/kernel/mmanagement/object_cache.cpp ****     char* tmp_addr,*start;
 1356              		.loc 1 60 5
  61:src/kernel/mmanagement/object_cache.cpp ****     size_t slab_size = get_slab_size(&buddy_level);
 1357              		.loc 1 61 5
  61:src/kernel/mmanagement/object_cache.cpp ****     size_t slab_size = get_slab_size(&buddy_level);
 1358              		.loc 1 61 37 is_stmt 0
 1359 0980 9305F4FA 		addi	a1,s0,-81
 1360 0984 97000000 		call	_ZN11ObjectCache13get_slab_sizeEPh
 1360      E7800000 
 1361              	.LVL183:
 1362 098c 130B0500 		mv	s6,a0
 1363              	.LVL184:
  63:src/kernel/mmanagement/object_cache.cpp ****     Slab* slab_meta;
 1364              		.loc 1 63 5 is_stmt 1
  64:src/kernel/mmanagement/object_cache.cpp ****     obj_num = slab_size/objsize - 1;
 1365              		.loc 1 64 5
  64:src/kernel/mmanagement/object_cache.cpp ****     obj_num = slab_size/objsize - 1;
 1366              		.loc 1 64 25 is_stmt 0
 1367 0990 833A0901 		ld	s5,16(s2)
  64:src/kernel/mmanagement/object_cache.cpp ****     obj_num = slab_size/objsize - 1;
 1368              		.loc 1 64 24
 1369 0994 B35A5503 		divu	s5,a0,s5
  64:src/kernel/mmanagement/object_cache.cpp ****     obj_num = slab_size/objsize - 1;
 1370              		.loc 1 64 33
 1371 0998 93FAFA0F 		andi	s5,s5,0xff
  64:src/kernel/mmanagement/object_cache.cpp ****     obj_num = slab_size/objsize - 1;
 1372              		.loc 1 64 13
 1373 099c 9B87FAFF 		addiw	a5,s5,-1
 1374 09a0 93FBF70F 		andi	s7,a5,0xff
 1375              	.LVL185:
  67:src/kernel/mmanagement/object_cache.cpp ****     start = (char*)Buddy::getInstance().mem_alloc(buddy_level);
 1376              		.loc 1 67 5 is_stmt 1
  67:src/kernel/mmanagement/object_cache.cpp ****     start = (char*)Buddy::getInstance().mem_alloc(buddy_level);
 1377              		.loc 1 67 39 is_stmt 0
 1378 09a4 97000000 		call	_ZN5Buddy11getInstanceEv
 1378      E7800000 
 1379              	.LVL186:
  67:src/kernel/mmanagement/object_cache.cpp ****     start = (char*)Buddy::getInstance().mem_alloc(buddy_level);
 1380              		.loc 1 67 50
 1381 09ac 8345F4FA 		lbu	a1,-81(s0)
 1382 09b0 97000000 		call	_ZN5Buddy9mem_allocEh
 1382      E7800000 
 1383              	.LVL187:
 1384 09b8 93090500 		mv	s3,a0
 1385              	.LVL188:
  69:src/kernel/mmanagement/object_cache.cpp ****     if(!start){
 1386              		.loc 1 69 5 is_stmt 1
 1387 09bc 6304050E 		beq	a0,zero,.L104
GAS LISTING /tmp/ccpJ2pYY.s 			page 38


  75:src/kernel/mmanagement/object_cache.cpp ****     Slab** slab_meta_addr_ptr = (Slab**)start;
 1388              		.loc 1 75 5
 1389              	.LVL189:
  76:src/kernel/mmanagement/object_cache.cpp ****     tmp_addr = start + sizeof(Slab*);
 1390              		.loc 1 76 5
  76:src/kernel/mmanagement/object_cache.cpp ****     tmp_addr = start + sizeof(Slab*);
 1391              		.loc 1 76 14 is_stmt 0
 1392 09c0 93048500 		addi	s1,a0,8
 1393              	.LVL190:
  79:src/kernel/mmanagement/object_cache.cpp ****     ObjectCache* slab_cache_ptr = 
 1394              		.loc 1 79 5 is_stmt 1
  80:src/kernel/mmanagement/object_cache.cpp ****         &SlabAllocator::getInstance().slab_cache;
 1395              		.loc 1 80 37 is_stmt 0
 1396 09c4 97000000 		call	_ZN13SlabAllocator11getInstanceEv
 1396      E7800000 
 1397              	.LVL191:
  80:src/kernel/mmanagement/object_cache.cpp ****         &SlabAllocator::getInstance().slab_cache;
 1398              		.loc 1 80 39
 1399 09cc 13058505 		addi	a0,a0,88
 1400              	.LVL192:
  83:src/kernel/mmanagement/object_cache.cpp ****     switch(type){
 1401              		.loc 1 83 5 is_stmt 1
  83:src/kernel/mmanagement/object_cache.cpp ****     switch(type){
 1402              		.loc 1 83 12 is_stmt 0
 1403 09d0 83278901 		lw	a5,24(s2)
  83:src/kernel/mmanagement/object_cache.cpp ****     switch(type){
 1404              		.loc 1 83 5
 1405 09d4 13072000 		li	a4,2
 1406 09d8 6386E714 		beq	a5,a4,.L90
 1407 09dc 637EF70C 		bleu	a5,a4,.L105
 1408 09e0 13073000 		li	a4,3
 1409 09e4 6388E714 		beq	a5,a4,.L93
 1410 09e8 13074000 		li	a4,4
 1411 09ec 639EE718 		bne	a5,a4,.L102
  89:src/kernel/mmanagement/object_cache.cpp ****             tmp_addr = start;
 1412              		.loc 1 89 22
 1413 09f0 93840900 		mv	s1,s3
 1414              	.LVL193:
 1415              	.L92:
  94:src/kernel/mmanagement/object_cache.cpp ****         case OFF_SLAB: 
 1416              		.loc 1 94 9 is_stmt 1
  95:src/kernel/mmanagement/object_cache.cpp ****             slab_meta = (Slab*)slab_cache_ptr->alloc_obj();
 1417              		.loc 1 95 13
  95:src/kernel/mmanagement/object_cache.cpp ****             slab_meta = (Slab*)slab_cache_ptr->alloc_obj();
 1418              		.loc 1 95 57 is_stmt 0
 1419 09f4 97000000 		call	_ZN11ObjectCache9alloc_objEv
 1419      E7800000 
 1420              	.LVL194:
 1421 09fc 130A0500 		mv	s4,a0
 1422              	.LVL195:
  96:src/kernel/mmanagement/object_cache.cpp ****             if(!slab_meta){
 1423              		.loc 1 96 13 is_stmt 1
 1424 0a00 630E050E 		beq	a0,zero,.L106
 1425              	.LVL196:
 1426              	.L94:
 120:src/kernel/mmanagement/object_cache.cpp ****     if(type == SLAB_SLAB){ obj_num -= 1; }
 1427              		.loc 1 120 5
GAS LISTING /tmp/ccpJ2pYY.s 			page 39


 120:src/kernel/mmanagement/object_cache.cpp ****     if(type == SLAB_SLAB){ obj_num -= 1; }
 1428              		.loc 1 120 8 is_stmt 0
 1429 0a04 03278901 		lw	a4,24(s2)
 120:src/kernel/mmanagement/object_cache.cpp ****     if(type == SLAB_SLAB){ obj_num -= 1; }
 1430              		.loc 1 120 5
 1431 0a08 93072000 		li	a5,2
 1432 0a0c 630CF712 		beq	a4,a5,.L107
 1433              	.L95:
 122:src/kernel/mmanagement/object_cache.cpp ****     *slab_meta = Slab(obj_num
 1434              		.loc 1 122 5 is_stmt 1
 122:src/kernel/mmanagement/object_cache.cpp ****     *slab_meta = Slab(obj_num
 1435              		.loc 1 122 18 is_stmt 0
 1436 0a10 93060900 		mv	a3,s2
 1437 0a14 13860400 		mv	a2,s1
 1438 0a18 93850A00 		mv	a1,s5
 1439 0a1c 130504EF 		addi	a0,s0,-272
 1440 0a20 97000000 		call	_ZN4SlabC1EhPvP11ObjectCache
 1440      E7800000 
 1441              	.LVL197:
 122:src/kernel/mmanagement/object_cache.cpp ****     *slab_meta = Slab(obj_num
 1442              		.loc 1 122 16
 1443 0a28 930704EF 		addi	a5,s0,-272
 1444 0a2c 13070A00 		mv	a4,s4
 1445 0a30 130804F9 		addi	a6,s0,-112
 1446              	.L96:
 1447 0a34 03B50700 		ld	a0,0(a5)
 1448 0a38 83B58700 		ld	a1,8(a5)
 1449 0a3c 03B60701 		ld	a2,16(a5)
 1450 0a40 83B68701 		ld	a3,24(a5)
 1451 0a44 2330A700 		sd	a0,0(a4)
 1452 0a48 2334B700 		sd	a1,8(a4)
 1453 0a4c 2338C700 		sd	a2,16(a4)
 1454 0a50 233CD700 		sd	a3,24(a4)
 1455 0a54 93870702 		addi	a5,a5,32
 1456 0a58 13070702 		addi	a4,a4,32
 1457 0a5c E39C07FD 		bne	a5,a6,.L96
 1458 0a60 03B60700 		ld	a2,0(a5)
 1459 0a64 83B68700 		ld	a3,8(a5)
 1460 0a68 83B70701 		ld	a5,16(a5)
 1461 0a6c 2330C700 		sd	a2,0(a4)
 1462 0a70 2334D700 		sd	a3,8(a4)
 1463 0a74 2338F700 		sd	a5,16(a4)
 126:src/kernel/mmanagement/object_cache.cpp ****     if(type != BUFF_SLAB) { *slab_meta_addr_ptr = slab_meta; }
 1464              		.loc 1 126 5 is_stmt 1
 126:src/kernel/mmanagement/object_cache.cpp ****     if(type != BUFF_SLAB) { *slab_meta_addr_ptr = slab_meta; }
 1465              		.loc 1 126 8 is_stmt 0
 1466 0a78 03278901 		lw	a4,24(s2)
 126:src/kernel/mmanagement/object_cache.cpp ****     if(type != BUFF_SLAB) { *slab_meta_addr_ptr = slab_meta; }
 1467              		.loc 1 126 5
 1468 0a7c 93074000 		li	a5,4
 1469 0a80 6304F700 		beq	a4,a5,.L97
 126:src/kernel/mmanagement/object_cache.cpp ****     if(type != BUFF_SLAB) { *slab_meta_addr_ptr = slab_meta; }
 1470              		.loc 1 126 29 is_stmt 1 discriminator 1
 126:src/kernel/mmanagement/object_cache.cpp ****     if(type != BUFF_SLAB) { *slab_meta_addr_ptr = slab_meta; }
 1471              		.loc 1 126 49 is_stmt 0 discriminator 1
 1472 0a84 23B04901 		sd	s4,0(s3)
 1473              	.L97:
GAS LISTING /tmp/ccpJ2pYY.s 			page 40


 128:src/kernel/mmanagement/object_cache.cpp ****     free_head = insert(&slab_meta->node, free_head);
 1474              		.loc 1 128 5 is_stmt 1
 128:src/kernel/mmanagement/object_cache.cpp ****     free_head = insert(&slab_meta->node, free_head);
 1475              		.loc 1 128 23 is_stmt 0
 1476 0a88 83350902 		ld	a1,32(s2)
 1477 0a8c 13058A0A 		addi	a0,s4,168
 1478 0a90 97000000 		call	_Z6insertP6list_tS0_
 1478      E7800000 
 1479              	.LVL198:
 128:src/kernel/mmanagement/object_cache.cpp ****     free_head = insert(&slab_meta->node, free_head);
 1480              		.loc 1 128 15
 1481 0a98 2330A902 		sd	a0,32(s2)
 131:src/kernel/mmanagement/object_cache.cpp ****     char* end = start + slab_size;
 1482              		.loc 1 131 5 is_stmt 1
 131:src/kernel/mmanagement/object_cache.cpp ****     char* end = start + slab_size;
 1483              		.loc 1 131 11 is_stmt 0
 1484 0a9c B3896901 		add	s3,s3,s6
 1485              	.LVL199:
 1486 0aa0 6F00800C 		j	.L100
 1487              	.LVL200:
 1488              	.L104:
  70:src/kernel/mmanagement/object_cache.cpp ****         error = "Not enough memory left";
 1489              		.loc 1 70 9 is_stmt 1
  70:src/kernel/mmanagement/object_cache.cpp ****         error = "Not enough memory left";
 1490              		.loc 1 70 15 is_stmt 0
 1491 0aa4 97070000 		lla	a5,.LC22
 1491      93870700 
 1492 0aac 2334F900 		sd	a5,8(s2)
  71:src/kernel/mmanagement/object_cache.cpp ****         return nullptr;
 1493              		.loc 1 71 9 is_stmt 1
  71:src/kernel/mmanagement/object_cache.cpp ****         return nullptr;
 1494              		.loc 1 71 16 is_stmt 0
 1495 0ab0 130A0500 		mv	s4,a0
 1496 0ab4 6F008001 		j	.L87
 1497              	.LVL201:
 1498              	.L105:
  83:src/kernel/mmanagement/object_cache.cpp ****     switch(type){
 1499              		.loc 1 83 5
 1500 0ab8 13071000 		li	a4,1
 1501 0abc 6396E700 		bne	a5,a4,.L108
  64:src/kernel/mmanagement/object_cache.cpp ****     obj_num = slab_size/objsize - 1;
 1502              		.loc 1 64 13
 1503 0ac0 938A0B00 		mv	s5,s7
 1504 0ac4 6FF01FF3 		j	.L92
 1505              	.L108:
 118:src/kernel/mmanagement/object_cache.cpp ****         case NONE: default: return nullptr;
 1506              		.loc 1 118 36
 1507 0ac8 130A0000 		li	s4,0
 1508              	.LVL202:
 1509              	.L87:
 140:src/kernel/mmanagement/object_cache.cpp **** }
 1510              		.loc 1 140 1
 1511 0acc 13050A00 		mv	a0,s4
 1512 0ad0 83308110 		ld	ra,264(sp)
 1513              		.cfi_remember_state
 1514              		.cfi_restore 1
 1515 0ad4 03340110 		ld	s0,256(sp)
GAS LISTING /tmp/ccpJ2pYY.s 			page 41


 1516              		.cfi_restore 8
 1517              		.cfi_def_cfa 2, 272
 1518 0ad8 8334810F 		ld	s1,248(sp)
 1519              		.cfi_restore 9
 1520 0adc 0339010F 		ld	s2,240(sp)
 1521              		.cfi_restore 18
 1522              	.LVL203:
 1523 0ae0 8339810E 		ld	s3,232(sp)
 1524              		.cfi_restore 19
 1525 0ae4 033A010E 		ld	s4,224(sp)
 1526              		.cfi_restore 20
 1527 0ae8 833A810D 		ld	s5,216(sp)
 1528              		.cfi_restore 21
 1529 0aec 033B010D 		ld	s6,208(sp)
 1530              		.cfi_restore 22
 1531              	.LVL204:
 1532 0af0 833B810C 		ld	s7,200(sp)
 1533              		.cfi_restore 23
 1534 0af4 13010111 		addi	sp,sp,272
 1535              		.cfi_def_cfa_offset 0
 1536 0af8 67800000 		jr	ra
 1537              	.LVL205:
 1538              	.L106:
 1539              		.cfi_restore_state
  97:src/kernel/mmanagement/object_cache.cpp ****                 error = "Not enough memory left";
 1540              		.loc 1 97 17 is_stmt 1
  97:src/kernel/mmanagement/object_cache.cpp ****                 error = "Not enough memory left";
 1541              		.loc 1 97 23 is_stmt 0
 1542 0afc 97070000 		lla	a5,.LC22
 1542      93870700 
 1543 0b04 2334F900 		sd	a5,8(s2)
  98:src/kernel/mmanagement/object_cache.cpp ****                 Buddy::getInstance().mem_free(start, buddy_level);
 1544              		.loc 1 98 17 is_stmt 1
  98:src/kernel/mmanagement/object_cache.cpp ****                 Buddy::getInstance().mem_free(start, buddy_level);
 1545              		.loc 1 98 36 is_stmt 0
 1546 0b08 97000000 		call	_ZN5Buddy11getInstanceEv
 1546      E7800000 
 1547              	.LVL206:
  98:src/kernel/mmanagement/object_cache.cpp ****                 Buddy::getInstance().mem_free(start, buddy_level);
 1548              		.loc 1 98 46
 1549 0b10 0346F4FA 		lbu	a2,-81(s0)
 1550 0b14 93850900 		mv	a1,s3
 1551 0b18 97000000 		call	_ZN5Buddy8mem_freeEPvh
 1551      E7800000 
 1552              	.LVL207:
  99:src/kernel/mmanagement/object_cache.cpp ****                 return nullptr;
 1553              		.loc 1 99 17 is_stmt 1
  99:src/kernel/mmanagement/object_cache.cpp ****                 return nullptr;
 1554              		.loc 1 99 24 is_stmt 0
 1555 0b20 6FF0DFFA 		j	.L87
 1556              	.LVL208:
 1557              	.L90:
 106:src/kernel/mmanagement/object_cache.cpp ****         case SLAB_SLAB:
 1558              		.loc 1 106 9 is_stmt 1
 107:src/kernel/mmanagement/object_cache.cpp ****             slab_meta = (Slab*)tmp_addr;
 1559              		.loc 1 107 13
 108:src/kernel/mmanagement/object_cache.cpp ****             tmp_addr += sizeof(Slab);
GAS LISTING /tmp/ccpJ2pYY.s 			page 42


 1560              		.loc 1 108 13
 109:src/kernel/mmanagement/object_cache.cpp ****             break;
 1561              		.loc 1 109 13
 107:src/kernel/mmanagement/object_cache.cpp ****             slab_meta = (Slab*)tmp_addr;
 1562              		.loc 1 107 23 is_stmt 0
 1563 0b24 138A0400 		mv	s4,s1
 108:src/kernel/mmanagement/object_cache.cpp ****             tmp_addr += sizeof(Slab);
 1564              		.loc 1 108 22
 1565 0b28 9384090C 		addi	s1,s3,192
 1566              	.LVL209:
  64:src/kernel/mmanagement/object_cache.cpp ****     obj_num = slab_size/objsize - 1;
 1567              		.loc 1 64 13
 1568 0b2c 938A0B00 		mv	s5,s7
 109:src/kernel/mmanagement/object_cache.cpp ****             break;
 1569              		.loc 1 109 13
 1570 0b30 6FF05FED 		j	.L94
 1571              	.LVL210:
 1572              	.L93:
 114:src/kernel/mmanagement/object_cache.cpp ****         case ON_SLAB:
 1573              		.loc 1 114 9 is_stmt 1
 115:src/kernel/mmanagement/object_cache.cpp ****             slab_meta = (Slab*)(start + slab_size - sizeof(Slab));
 1574              		.loc 1 115 13
 115:src/kernel/mmanagement/object_cache.cpp ****             slab_meta = (Slab*)(start + slab_size - sizeof(Slab));
 1575              		.loc 1 115 51 is_stmt 0
 1576 0b34 130A8BF4 		addi	s4,s6,-184
 115:src/kernel/mmanagement/object_cache.cpp ****             slab_meta = (Slab*)(start + slab_size - sizeof(Slab));
 1577              		.loc 1 115 23
 1578 0b38 338A4901 		add	s4,s3,s4
 1579              	.LVL211:
 116:src/kernel/mmanagement/object_cache.cpp ****             break;
 1580              		.loc 1 116 13 is_stmt 1
  64:src/kernel/mmanagement/object_cache.cpp ****     obj_num = slab_size/objsize - 1;
 1581              		.loc 1 64 13 is_stmt 0
 1582 0b3c 938A0B00 		mv	s5,s7
 116:src/kernel/mmanagement/object_cache.cpp ****             break;
 1583              		.loc 1 116 13
 1584 0b40 6FF05FEC 		j	.L94
 1585              	.LVL212:
 1586              	.L107:
 120:src/kernel/mmanagement/object_cache.cpp ****     if(type == SLAB_SLAB){ obj_num -= 1; }
 1587              		.loc 1 120 28 is_stmt 1 discriminator 1
 120:src/kernel/mmanagement/object_cache.cpp ****     if(type == SLAB_SLAB){ obj_num -= 1; }
 1588              		.loc 1 120 36 is_stmt 0 discriminator 1
 1589 0b44 9B8AFAFF 		addiw	s5,s5,-1
 1590              	.LVL213:
 1591 0b48 93FAFA0F 		andi	s5,s5,0xff
 1592              	.LVL214:
 1593 0b4c 6FF05FEC 		j	.L95
 1594              	.LVL215:
 1595              	.L98:
 136:src/kernel/mmanagement/object_cache.cpp ****             zero_out(tmp_addr);
 1596              		.loc 1 136 13 is_stmt 1
 136:src/kernel/mmanagement/object_cache.cpp ****             zero_out(tmp_addr);
 1597              		.loc 1 136 21 is_stmt 0
 1598 0b50 93850400 		mv	a1,s1
 1599 0b54 13050900 		mv	a0,s2
 1600 0b58 97000000 		call	_ZN11ObjectCache8zero_outEPv
GAS LISTING /tmp/ccpJ2pYY.s 			page 43


 1600      E7800000 
 1601              	.LVL216:
 1602              	.L99:
 132:src/kernel/mmanagement/object_cache.cpp ****     for(; tmp_addr + objsize <= end; tmp_addr += objsize){
 1603              		.loc 1 132 50
 1604 0b60 83370901 		ld	a5,16(s2)
 132:src/kernel/mmanagement/object_cache.cpp ****     for(; tmp_addr + objsize <= end; tmp_addr += objsize){
 1605              		.loc 1 132 47
 1606 0b64 B384F400 		add	s1,s1,a5
 1607              	.LVL217:
 1608              	.L100:
 132:src/kernel/mmanagement/object_cache.cpp ****     for(; tmp_addr + objsize <= end; tmp_addr += objsize){
 1609              		.loc 1 132 5 is_stmt 1 discriminator 1
 132:src/kernel/mmanagement/object_cache.cpp ****     for(; tmp_addr + objsize <= end; tmp_addr += objsize){
 1610              		.loc 1 132 22 is_stmt 0 discriminator 1
 1611 0b68 83370901 		ld	a5,16(s2)
 132:src/kernel/mmanagement/object_cache.cpp ****     for(; tmp_addr + objsize <= end; tmp_addr += objsize){
 1612              		.loc 1 132 20 discriminator 1
 1613 0b6c B387F400 		add	a5,s1,a5
 132:src/kernel/mmanagement/object_cache.cpp ****     for(; tmp_addr + objsize <= end; tmp_addr += objsize){
 1614              		.loc 1 132 30 discriminator 1
 1615 0b70 E3EEF9F4 		bgtu	a5,s3,.L87
 133:src/kernel/mmanagement/object_cache.cpp ****         if(ctor)
 1616              		.loc 1 133 9 is_stmt 1
 133:src/kernel/mmanagement/object_cache.cpp ****         if(ctor)
 1617              		.loc 1 133 12 is_stmt 0
 1618 0b74 83378904 		ld	a5,72(s2)
 133:src/kernel/mmanagement/object_cache.cpp ****         if(ctor)
 1619              		.loc 1 133 9
 1620 0b78 E38C07FC 		beq	a5,zero,.L98
 134:src/kernel/mmanagement/object_cache.cpp ****             ctor(tmp_addr);
 1621              		.loc 1 134 13 is_stmt 1
 134:src/kernel/mmanagement/object_cache.cpp ****             ctor(tmp_addr);
 1622              		.loc 1 134 17 is_stmt 0
 1623 0b7c 13850400 		mv	a0,s1
 1624 0b80 E7800700 		jalr	a5
 1625              	.LVL218:
 1626 0b84 6FF0DFFD 		j	.L99
 1627              	.LVL219:
 1628              	.L102:
 118:src/kernel/mmanagement/object_cache.cpp ****         case NONE: default: return nullptr;
 1629              		.loc 1 118 36
 1630 0b88 130A0000 		li	s4,0
 1631 0b8c 6FF01FF4 		j	.L87
 1632              		.cfi_endproc
 1633              	.LFE120:
 1635              		.align	2
 1636              		.globl	_ZN11ObjectCache9alloc_objEv
 1638              	_ZN11ObjectCache9alloc_objEv:
 1639              	.LFB122:
 160:src/kernel/mmanagement/object_cache.cpp **** void* ObjectCache::alloc_obj(){ 
 1640              		.loc 1 160 31 is_stmt 1
 1641              		.cfi_startproc
 1642              	.LVL220:
 1643 0b90 130101FD 		addi	sp,sp,-48
 1644              		.cfi_def_cfa_offset 48
 1645 0b94 23341102 		sd	ra,40(sp)
GAS LISTING /tmp/ccpJ2pYY.s 			page 44


 1646 0b98 23308102 		sd	s0,32(sp)
 1647 0b9c 233C9100 		sd	s1,24(sp)
 1648 0ba0 23382101 		sd	s2,16(sp)
 1649 0ba4 23343101 		sd	s3,8(sp)
 1650 0ba8 23304101 		sd	s4,0(sp)
 1651              		.cfi_offset 1, -8
 1652              		.cfi_offset 8, -16
 1653              		.cfi_offset 9, -24
 1654              		.cfi_offset 18, -32
 1655              		.cfi_offset 19, -40
 1656              		.cfi_offset 20, -48
 1657 0bac 13040103 		addi	s0,sp,48
 1658              		.cfi_def_cfa 8, 0
 1659 0bb0 13090500 		mv	s2,a0
 161:src/kernel/mmanagement/object_cache.cpp ****     bool was_free = false;
 1660              		.loc 1 161 5
 1661              	.LVL221:
 162:src/kernel/mmanagement/object_cache.cpp ****     Slab* t = nullptr;
 1662              		.loc 1 162 5
 163:src/kernel/mmanagement/object_cache.cpp ****     void* obj = nullptr;
 1663              		.loc 1 163 5
 165:src/kernel/mmanagement/object_cache.cpp ****     if(part_head){
 1664              		.loc 1 165 5
 165:src/kernel/mmanagement/object_cache.cpp ****     if(part_head){
 1665              		.loc 1 165 8 is_stmt 0
 1666 0bb4 83348502 		ld	s1,40(a0)
 165:src/kernel/mmanagement/object_cache.cpp ****     if(part_head){
 1667              		.loc 1 165 5
 1668 0bb8 638A0404 		beq	s1,zero,.L110
 166:src/kernel/mmanagement/object_cache.cpp ****         t = get_list_parent(part_head, Slab, node);
 1669              		.loc 1 166 9 is_stmt 1
 166:src/kernel/mmanagement/object_cache.cpp ****         t = get_list_parent(part_head, Slab, node);
 1670              		.loc 1 166 13 is_stmt 0
 1671 0bbc 938484F5 		addi	s1,s1,-168
 1672              	.LVL222:
 161:src/kernel/mmanagement/object_cache.cpp ****     bool was_free = false;
 1673              		.loc 1 161 10
 1674 0bc0 130A0000 		li	s4,0
 1675              	.LVL223:
 1676              	.L111:
 177:src/kernel/mmanagement/object_cache.cpp ****     obj = t->get_obj();
 1677              		.loc 1 177 5 is_stmt 1
 177:src/kernel/mmanagement/object_cache.cpp ****     obj = t->get_obj();
 1678              		.loc 1 177 21 is_stmt 0
 1679 0bc4 13850400 		mv	a0,s1
 1680 0bc8 97000000 		call	_ZN4Slab7get_objEv
 1680      E7800000 
 1681              	.LVL224:
 1682 0bd0 93090500 		mv	s3,a0
 1683              	.LVL225:
 178:src/kernel/mmanagement/object_cache.cpp ****     list_update_alloc(t, was_free);
 1684              		.loc 1 178 5 is_stmt 1
 178:src/kernel/mmanagement/object_cache.cpp ****     list_update_alloc(t, was_free);
 1685              		.loc 1 178 22 is_stmt 0
 1686 0bd4 13060A00 		mv	a2,s4
 1687 0bd8 93850400 		mv	a1,s1
 1688 0bdc 13050900 		mv	a0,s2
GAS LISTING /tmp/ccpJ2pYY.s 			page 45


 1689              	.LVL226:
 1690 0be0 97000000 		call	_ZN11ObjectCache17list_update_allocEP4Slabb
 1690      E7800000 
 1691              	.LVL227:
 179:src/kernel/mmanagement/object_cache.cpp ****     return obj;
 1692              		.loc 1 179 5 is_stmt 1
 1693              	.L109:
 180:src/kernel/mmanagement/object_cache.cpp **** }
 1694              		.loc 1 180 1 is_stmt 0
 1695 0be8 13850900 		mv	a0,s3
 1696 0bec 83308102 		ld	ra,40(sp)
 1697              		.cfi_remember_state
 1698              		.cfi_restore 1
 1699 0bf0 03340102 		ld	s0,32(sp)
 1700              		.cfi_restore 8
 1701              		.cfi_def_cfa 2, 48
 1702 0bf4 83348101 		ld	s1,24(sp)
 1703              		.cfi_restore 9
 1704              	.LVL228:
 1705 0bf8 03390101 		ld	s2,16(sp)
 1706              		.cfi_restore 18
 1707              	.LVL229:
 1708 0bfc 83398100 		ld	s3,8(sp)
 1709              		.cfi_restore 19
 1710 0c00 033A0100 		ld	s4,0(sp)
 1711              		.cfi_restore 20
 1712 0c04 13010103 		addi	sp,sp,48
 1713              		.cfi_def_cfa_offset 0
 1714 0c08 67800000 		jr	ra
 1715              	.LVL230:
 1716              	.L110:
 1717              		.cfi_restore_state
 169:src/kernel/mmanagement/object_cache.cpp ****         if(free_head){ 
 1718              		.loc 1 169 9 is_stmt 1
 169:src/kernel/mmanagement/object_cache.cpp ****         if(free_head){ 
 1719              		.loc 1 169 12 is_stmt 0
 1720 0c0c 83340502 		ld	s1,32(a0)
 169:src/kernel/mmanagement/object_cache.cpp ****         if(free_head){ 
 1721              		.loc 1 169 9
 1722 0c10 63880400 		beq	s1,zero,.L112
 170:src/kernel/mmanagement/object_cache.cpp ****             t = get_list_parent(free_head, Slab, node); 
 1723              		.loc 1 170 13 is_stmt 1
 170:src/kernel/mmanagement/object_cache.cpp ****             t = get_list_parent(free_head, Slab, node); 
 1724              		.loc 1 170 17 is_stmt 0
 1725 0c14 938484F5 		addi	s1,s1,-168
 1726              	.LVL231:
 175:src/kernel/mmanagement/object_cache.cpp ****         was_free = true;
 1727              		.loc 1 175 18
 1728 0c18 130A1000 		li	s4,1
 1729 0c1c 6FF09FFA 		j	.L111
 1730              	.LVL232:
 1731              	.L112:
 172:src/kernel/mmanagement/object_cache.cpp ****             t = slab_alloc(); 
 1732              		.loc 1 172 13 is_stmt 1
 172:src/kernel/mmanagement/object_cache.cpp ****             t = slab_alloc(); 
 1733              		.loc 1 172 27 is_stmt 0
 1734 0c20 97000000 		call	_ZN11ObjectCache10slab_allocEv
GAS LISTING /tmp/ccpJ2pYY.s 			page 46


 1734      E7800000 
 1735              	.LVL233:
 1736 0c28 93040500 		mv	s1,a0
 1737              	.LVL234:
 173:src/kernel/mmanagement/object_cache.cpp ****             if(t == nullptr) { return nullptr; }
 1738              		.loc 1 173 13 is_stmt 1
 1739 0c2c 63060500 		beq	a0,zero,.L114
 175:src/kernel/mmanagement/object_cache.cpp ****         was_free = true;
 1740              		.loc 1 175 18 is_stmt 0
 1741 0c30 130A1000 		li	s4,1
 1742 0c34 6FF01FF9 		j	.L111
 1743              	.L114:
 173:src/kernel/mmanagement/object_cache.cpp ****             if(t == nullptr) { return nullptr; }
 1744              		.loc 1 173 39
 1745 0c38 93090500 		mv	s3,a0
 1746 0c3c 6FF0DFFA 		j	.L109
 1747              		.cfi_endproc
 1748              	.LFE122:
 1750              		.align	2
 1751              		.globl	_ZN11ObjectCachenwEm
 1753              	_ZN11ObjectCachenwEm:
 1754              	.LFB118:
  43:src/kernel/mmanagement/object_cache.cpp **** void* ObjectCache::operator new(size_t size){
 1755              		.loc 1 43 45 is_stmt 1
 1756              		.cfi_startproc
 1757              	.LVL235:
 1758 0c40 130101FF 		addi	sp,sp,-16
 1759              		.cfi_def_cfa_offset 16
 1760 0c44 23341100 		sd	ra,8(sp)
 1761 0c48 23308100 		sd	s0,0(sp)
 1762              		.cfi_offset 1, -8
 1763              		.cfi_offset 8, -16
 1764 0c4c 13040101 		addi	s0,sp,16
 1765              		.cfi_def_cfa 8, 0
  44:src/kernel/mmanagement/object_cache.cpp ****     void* addr = SlabAl::getInstance().objcache_cache.alloc_obj();
 1766              		.loc 1 44 5
  44:src/kernel/mmanagement/object_cache.cpp ****     void* addr = SlabAl::getInstance().objcache_cache.alloc_obj();
 1767              		.loc 1 44 38 is_stmt 0
 1768 0c50 97000000 		call	_ZN13SlabAllocator11getInstanceEv
 1768      E7800000 
 1769              	.LVL236:
  44:src/kernel/mmanagement/object_cache.cpp ****     void* addr = SlabAl::getInstance().objcache_cache.alloc_obj();
 1770              		.loc 1 44 64
 1771 0c58 97000000 		call	_ZN11ObjectCache9alloc_objEv
 1771      E7800000 
 1772              	.LVL237:
  46:src/kernel/mmanagement/object_cache.cpp ****     return addr;
 1773              		.loc 1 46 5 is_stmt 1
  48:src/kernel/mmanagement/object_cache.cpp **** }
 1774              		.loc 1 48 1 is_stmt 0
 1775 0c60 83308100 		ld	ra,8(sp)
 1776              		.cfi_restore 1
 1777 0c64 03340100 		ld	s0,0(sp)
 1778              		.cfi_restore 8
 1779              		.cfi_def_cfa 2, 16
 1780 0c68 13010101 		addi	sp,sp,16
 1781              		.cfi_def_cfa_offset 0
GAS LISTING /tmp/ccpJ2pYY.s 			page 47


 1782 0c6c 67800000 		jr	ra
 1783              		.cfi_endproc
 1784              	.LFE118:
 1786              		.align	2
 1787              		.globl	_ZN11ObjectCache8free_objEPv
 1789              	_ZN11ObjectCache8free_objEPv:
 1790              	.LFB125:
 224:src/kernel/mmanagement/object_cache.cpp **** int ObjectCache::free_obj(void* ptr){
 1791              		.loc 1 224 37 is_stmt 1
 1792              		.cfi_startproc
 1793              	.LVL238:
 1794 0c70 130101FC 		addi	sp,sp,-64
 1795              		.cfi_def_cfa_offset 64
 1796 0c74 233C1102 		sd	ra,56(sp)
 1797 0c78 23388102 		sd	s0,48(sp)
 1798 0c7c 23349102 		sd	s1,40(sp)
 1799 0c80 23302103 		sd	s2,32(sp)
 1800 0c84 233C3101 		sd	s3,24(sp)
 1801 0c88 23384101 		sd	s4,16(sp)
 1802 0c8c 23345101 		sd	s5,8(sp)
 1803              		.cfi_offset 1, -8
 1804              		.cfi_offset 8, -16
 1805              		.cfi_offset 9, -24
 1806              		.cfi_offset 18, -32
 1807              		.cfi_offset 19, -40
 1808              		.cfi_offset 20, -48
 1809              		.cfi_offset 21, -56
 1810 0c90 13040104 		addi	s0,sp,64
 1811              		.cfi_def_cfa 8, 0
 1812 0c94 93040500 		mv	s1,a0
 1813 0c98 93890500 		mv	s3,a1
 227:src/kernel/mmanagement/object_cache.cpp ****     Slab* slab_meta = *(Slab**)((uint64)ptr & (-Buddy::BLOCK_SIZE));
 1814              		.loc 1 227 5
 227:src/kernel/mmanagement/object_cache.cpp ****     Slab* slab_meta = *(Slab**)((uint64)ptr & (-Buddy::BLOCK_SIZE));
 1815              		.loc 1 227 45 is_stmt 0
 1816 0c9c B7F7FFFF 		li	a5,-4096
 1817 0ca0 B3F7F500 		and	a5,a1,a5
 227:src/kernel/mmanagement/object_cache.cpp ****     Slab* slab_meta = *(Slab**)((uint64)ptr & (-Buddy::BLOCK_SIZE));
 1818              		.loc 1 227 11
 1819 0ca4 03B90700 		ld	s2,0(a5)
 1820              	.LVL239:
 229:src/kernel/mmanagement/object_cache.cpp ****     if(type == BUFF_SLAB){
 1821              		.loc 1 229 5 is_stmt 1
 229:src/kernel/mmanagement/object_cache.cpp ****     if(type == BUFF_SLAB){
 1822              		.loc 1 229 8 is_stmt 0
 1823 0ca8 03278501 		lw	a4,24(a0)
 229:src/kernel/mmanagement/object_cache.cpp ****     if(type == BUFF_SLAB){
 1824              		.loc 1 229 5
 1825 0cac 93074000 		li	a5,4
 1826 0cb0 6302F704 		beq	a4,a5,.L128
 1827              	.LVL240:
 1828              	.L119:
 240:src/kernel/mmanagement/object_cache.cpp ****     if(slab_meta->parent != this){
 1829              		.loc 1 240 5 is_stmt 1
 240:src/kernel/mmanagement/object_cache.cpp ****     if(slab_meta->parent != this){
 1830              		.loc 1 240 19 is_stmt 0
 1831 0cb4 83370900 		ld	a5,0(s2)
GAS LISTING /tmp/ccpJ2pYY.s 			page 48


 240:src/kernel/mmanagement/object_cache.cpp ****     if(slab_meta->parent != this){
 1832              		.loc 1 240 5
 1833 0cb8 638C9706 		beq	a5,s1,.L122
 241:src/kernel/mmanagement/object_cache.cpp ****         error = "Dealocation failed: Object is not from specified cache!!";
 1834              		.loc 1 241 9 is_stmt 1
 241:src/kernel/mmanagement/object_cache.cpp ****         error = "Dealocation failed: Object is not from specified cache!!";
 1835              		.loc 1 241 15 is_stmt 0
 1836 0cbc 97070000 		lla	a5,.LC23
 1836      93870700 
 1837 0cc4 23B4F400 		sd	a5,8(s1)
 242:src/kernel/mmanagement/object_cache.cpp ****         return 1;
 1838              		.loc 1 242 9 is_stmt 1
 242:src/kernel/mmanagement/object_cache.cpp ****         return 1;
 1839              		.loc 1 242 16 is_stmt 0
 1840 0cc8 130A1000 		li	s4,1
 1841              	.L121:
 258:src/kernel/mmanagement/object_cache.cpp **** }
 1842              		.loc 1 258 1
 1843 0ccc 13050A00 		mv	a0,s4
 1844 0cd0 83308103 		ld	ra,56(sp)
 1845              		.cfi_remember_state
 1846              		.cfi_restore 1
 1847 0cd4 03340103 		ld	s0,48(sp)
 1848              		.cfi_restore 8
 1849              		.cfi_def_cfa 2, 64
 1850 0cd8 83348102 		ld	s1,40(sp)
 1851              		.cfi_restore 9
 1852              	.LVL241:
 1853 0cdc 03390102 		ld	s2,32(sp)
 1854              		.cfi_restore 18
 1855              	.LVL242:
 1856 0ce0 83398101 		ld	s3,24(sp)
 1857              		.cfi_restore 19
 1858              	.LVL243:
 1859 0ce4 033A0101 		ld	s4,16(sp)
 1860              		.cfi_restore 20
 1861 0ce8 833A8100 		ld	s5,8(sp)
 1862              		.cfi_restore 21
 1863 0cec 13010104 		addi	sp,sp,64
 1864              		.cfi_def_cfa_offset 0
 1865 0cf0 67800000 		jr	ra
 1866              	.LVL244:
 1867              	.L128:
 1868              		.cfi_restore_state
 230:src/kernel/mmanagement/object_cache.cpp ****         slab_meta = find_slab(ptr, part_head);
 1869              		.loc 1 230 9 is_stmt 1
 230:src/kernel/mmanagement/object_cache.cpp ****         slab_meta = find_slab(ptr, part_head);
 1870              		.loc 1 230 30 is_stmt 0
 1871 0cf4 03368502 		ld	a2,40(a0)
 1872 0cf8 97000000 		call	_ZN11ObjectCache9find_slabEPvP6list_t
 1872      E7800000 
 1873              	.LVL245:
 1874 0d00 13090500 		mv	s2,a0
 1875              	.LVL246:
 232:src/kernel/mmanagement/object_cache.cpp ****         if(!slab_meta)
 1876              		.loc 1 232 9 is_stmt 1
 1877 0d04 63080500 		beq	a0,zero,.L129
GAS LISTING /tmp/ccpJ2pYY.s 			page 49


 1878              	.L120:
 235:src/kernel/mmanagement/object_cache.cpp ****         if(!slab_meta){
 1879              		.loc 1 235 9
 1880 0d08 E31609FA 		bne	s2,zero,.L119
 236:src/kernel/mmanagement/object_cache.cpp ****              return 2;
 1881              		.loc 1 236 21 is_stmt 0
 1882 0d0c 130A2000 		li	s4,2
 1883 0d10 6FF0DFFB 		j	.L121
 1884              	.L129:
 233:src/kernel/mmanagement/object_cache.cpp ****             slab_meta = find_slab(ptr, full_head);
 1885              		.loc 1 233 13 is_stmt 1
 233:src/kernel/mmanagement/object_cache.cpp ****             slab_meta = find_slab(ptr, full_head);
 1886              		.loc 1 233 34 is_stmt 0
 1887 0d14 03B60403 		ld	a2,48(s1)
 1888 0d18 93850900 		mv	a1,s3
 1889 0d1c 13850400 		mv	a0,s1
 1890              	.LVL247:
 1891 0d20 97000000 		call	_ZN11ObjectCache9find_slabEPvP6list_t
 1891      E7800000 
 1892              	.LVL248:
 1893 0d28 13090500 		mv	s2,a0
 1894              	.LVL249:
 1895 0d2c 6FF0DFFD 		j	.L120
 1896              	.LVL250:
 1897              	.L122:
 244:src/kernel/mmanagement/object_cache.cpp ****     bool was_full = slab_meta->full();
 1898              		.loc 1 244 5 is_stmt 1
 1899              	.LBB26:
 1900              	.LBB27:
  89:src/kernel/mmanagement/../../../h/../h/slab_allocator.h ****     bool free(){ return rear == front; }
 1901              		.loc 2 89 18
  89:src/kernel/mmanagement/../../../h/../h/slab_allocator.h ****     bool free(){ return rear == front; }
 1902              		.loc 2 89 34 is_stmt 0
 1903 0d30 03468908 		lbu	a2,136(s2)
 1904 0d34 130606F8 		addi	a2,a2,-128
 1905 0d38 933A1600 		seqz	s5,a2
 1906              	.LVL251:
 1907              	.LBE27:
 1908              	.LBE26:
 245:src/kernel/mmanagement/object_cache.cpp ****     int ind = slab_meta->put_obj(ptr);
 1909              		.loc 1 245 5 is_stmt 1
 245:src/kernel/mmanagement/object_cache.cpp ****     int ind = slab_meta->put_obj(ptr);
 1910              		.loc 1 245 33 is_stmt 0
 1911 0d3c 93850900 		mv	a1,s3
 1912 0d40 13050900 		mv	a0,s2
 1913 0d44 97000000 		call	_ZN4Slab7put_objEPv
 1913      E7800000 
 1914              	.LVL252:
 1915 0d4c 130A0500 		mv	s4,a0
 1916              	.LVL253:
 247:src/kernel/mmanagement/object_cache.cpp ****     if(ind){
 1917              		.loc 1 247 5 is_stmt 1
 1918 0d50 63160502 		bne	a0,zero,.L130
 250:src/kernel/mmanagement/object_cache.cpp ****     }else if(ctor)
 1919              		.loc 1 250 11
 250:src/kernel/mmanagement/object_cache.cpp ****     }else if(ctor)
 1920              		.loc 1 250 14 is_stmt 0
GAS LISTING /tmp/ccpJ2pYY.s 			page 50


 1921 0d54 83B78404 		ld	a5,72(s1)
 250:src/kernel/mmanagement/object_cache.cpp ****     }else if(ctor)
 1922              		.loc 1 250 11
 1923 0d58 638A0702 		beq	a5,zero,.L124
 251:src/kernel/mmanagement/object_cache.cpp ****         ctor(ptr);
 1924              		.loc 1 251 9 is_stmt 1
 251:src/kernel/mmanagement/object_cache.cpp ****         ctor(ptr);
 1925              		.loc 1 251 13 is_stmt 0
 1926 0d5c 13850900 		mv	a0,s3
 1927              	.LVL254:
 1928 0d60 E7800700 		jalr	a5
 1929              	.LVL255:
 1930              	.L125:
 255:src/kernel/mmanagement/object_cache.cpp ****     list_update_free(slab_meta, was_full);
 1931              		.loc 1 255 5 is_stmt 1
 255:src/kernel/mmanagement/object_cache.cpp ****     list_update_free(slab_meta, was_full);
 1932              		.loc 1 255 21 is_stmt 0
 1933 0d64 13860A00 		mv	a2,s5
 1934 0d68 93050900 		mv	a1,s2
 1935 0d6c 13850400 		mv	a0,s1
 1936 0d70 97000000 		call	_ZN11ObjectCache16list_update_freeEP4Slabb
 1936      E7800000 
 1937              	.LVL256:
 257:src/kernel/mmanagement/object_cache.cpp ****     return 0;
 1938              		.loc 1 257 5 is_stmt 1
 257:src/kernel/mmanagement/object_cache.cpp ****     return 0;
 1939              		.loc 1 257 12 is_stmt 0
 1940 0d78 6FF05FF5 		j	.L121
 1941              	.LVL257:
 1942              	.L130:
 248:src/kernel/mmanagement/object_cache.cpp ****         error = "Deallocation failed: invalid deallocation address!";
 1943              		.loc 1 248 9 is_stmt 1
 248:src/kernel/mmanagement/object_cache.cpp ****         error = "Deallocation failed: invalid deallocation address!";
 1944              		.loc 1 248 15 is_stmt 0
 1945 0d7c 97070000 		lla	a5,.LC24
 1945      93870700 
 1946 0d84 23B4F400 		sd	a5,8(s1)
 249:src/kernel/mmanagement/object_cache.cpp ****         return ind;
 1947              		.loc 1 249 9 is_stmt 1
 249:src/kernel/mmanagement/object_cache.cpp ****         return ind;
 1948              		.loc 1 249 16 is_stmt 0
 1949 0d88 6FF05FF4 		j	.L121
 1950              	.L124:
 253:src/kernel/mmanagement/object_cache.cpp ****         zero_out(ptr);
 1951              		.loc 1 253 9 is_stmt 1
 253:src/kernel/mmanagement/object_cache.cpp ****         zero_out(ptr);
 1952              		.loc 1 253 17 is_stmt 0
 1953 0d8c 93850900 		mv	a1,s3
 1954 0d90 13850400 		mv	a0,s1
 1955              	.LVL258:
 1956 0d94 97000000 		call	_ZN11ObjectCache8zero_outEPv
 1956      E7800000 
 1957              	.LVL259:
 1958 0d9c 6FF09FFC 		j	.L125
 1959              		.cfi_endproc
 1960              	.LFE125:
 1962              		.align	2
GAS LISTING /tmp/ccpJ2pYY.s 			page 51


 1963              		.globl	_ZN11ObjectCachedlEPv
 1965              	_ZN11ObjectCachedlEPv:
 1966              	.LFB119:
  52:src/kernel/mmanagement/object_cache.cpp **** void ObjectCache::operator delete(void* addr){
 1967              		.loc 1 52 46 is_stmt 1
 1968              		.cfi_startproc
 1969              	.LVL260:
 1970 0da0 130101FE 		addi	sp,sp,-32
 1971              		.cfi_def_cfa_offset 32
 1972 0da4 233C1100 		sd	ra,24(sp)
 1973 0da8 23388100 		sd	s0,16(sp)
 1974 0dac 23349100 		sd	s1,8(sp)
 1975              		.cfi_offset 1, -8
 1976              		.cfi_offset 8, -16
 1977              		.cfi_offset 9, -24
 1978 0db0 13040102 		addi	s0,sp,32
 1979              		.cfi_def_cfa 8, 0
 1980 0db4 93040500 		mv	s1,a0
  53:src/kernel/mmanagement/object_cache.cpp ****     SlabAl::getInstance().objcache_cache.free_obj(addr);
 1981              		.loc 1 53 5
  53:src/kernel/mmanagement/object_cache.cpp ****     SlabAl::getInstance().objcache_cache.free_obj(addr);
 1982              		.loc 1 53 25 is_stmt 0
 1983 0db8 97000000 		call	_ZN13SlabAllocator11getInstanceEv
 1983      E7800000 
 1984              	.LVL261:
  53:src/kernel/mmanagement/object_cache.cpp ****     SlabAl::getInstance().objcache_cache.free_obj(addr);
 1985              		.loc 1 53 50
 1986 0dc0 93850400 		mv	a1,s1
 1987 0dc4 97000000 		call	_ZN11ObjectCache8free_objEPv
 1987      E7800000 
 1988              	.LVL262:
  54:src/kernel/mmanagement/object_cache.cpp **** }
 1989              		.loc 1 54 1
 1990 0dcc 83308101 		ld	ra,24(sp)
 1991              		.cfi_restore 1
 1992 0dd0 03340101 		ld	s0,16(sp)
 1993              		.cfi_restore 8
 1994              		.cfi_def_cfa 2, 32
 1995 0dd4 83348100 		ld	s1,8(sp)
 1996              		.cfi_restore 9
 1997              	.LVL263:
 1998 0dd8 13010102 		addi	sp,sp,32
 1999              		.cfi_def_cfa_offset 0
 2000 0ddc 67800000 		jr	ra
 2001              		.cfi_endproc
 2002              	.LFE119:
 2004              		.align	2
 2005              		.globl	_ZN11ObjectCache6shrinkEv
 2007              	_ZN11ObjectCache6shrinkEv:
 2008              	.LFB126:
 263:src/kernel/mmanagement/object_cache.cpp **** int ObjectCache::shrink(){
 2009              		.loc 1 263 26 is_stmt 1
 2010              		.cfi_startproc
 2011              	.LVL264:
 2012 0de0 130101FD 		addi	sp,sp,-48
 2013              		.cfi_def_cfa_offset 48
 2014 0de4 23341102 		sd	ra,40(sp)
GAS LISTING /tmp/ccpJ2pYY.s 			page 52


 2015 0de8 23308102 		sd	s0,32(sp)
 2016 0dec 233C9100 		sd	s1,24(sp)
 2017 0df0 23382101 		sd	s2,16(sp)
 2018              		.cfi_offset 1, -8
 2019              		.cfi_offset 8, -16
 2020              		.cfi_offset 9, -24
 2021              		.cfi_offset 18, -32
 2022 0df4 13040103 		addi	s0,sp,48
 2023              		.cfi_def_cfa 8, 0
 2024 0df8 93040500 		mv	s1,a0
 264:src/kernel/mmanagement/object_cache.cpp ****     if(!free_head){
 2025              		.loc 1 264 5
 264:src/kernel/mmanagement/object_cache.cpp ****     if(!free_head){
 2026              		.loc 1 264 9 is_stmt 0
 2027 0dfc 83370502 		ld	a5,32(a0)
 264:src/kernel/mmanagement/object_cache.cpp ****     if(!free_head){
 2028              		.loc 1 264 5
 2029 0e00 63980702 		bne	a5,zero,.L134
 265:src/kernel/mmanagement/object_cache.cpp ****         error = "No free slabs!";
 2030              		.loc 1 265 9 is_stmt 1
 265:src/kernel/mmanagement/object_cache.cpp ****         error = "No free slabs!";
 2031              		.loc 1 265 15 is_stmt 0
 2032 0e04 97070000 		lla	a5,.LC25
 2032      93870700 
 2033 0e0c 2334F500 		sd	a5,8(a0)
 266:src/kernel/mmanagement/object_cache.cpp ****         return 1;
 2034              		.loc 1 266 9 is_stmt 1
 266:src/kernel/mmanagement/object_cache.cpp ****         return 1;
 2035              		.loc 1 266 16 is_stmt 0
 2036 0e10 13051000 		li	a0,1
 2037              	.LVL265:
 2038 0e14 6F008007 		j	.L135
 2039              	.LVL266:
 2040              	.L136:
 2041              	.LBB28:
 277:src/kernel/mmanagement/object_cache.cpp ****             SlabAllocator::getInstance().slab_cache.free_obj(slab);
 2042              		.loc 1 277 13 is_stmt 1
 277:src/kernel/mmanagement/object_cache.cpp ****             SlabAllocator::getInstance().slab_cache.free_obj(slab);
 2043              		.loc 1 277 40 is_stmt 0
 2044 0e18 97000000 		call	_ZN13SlabAllocator11getInstanceEv
 2044      E7800000 
 2045              	.LVL267:
 277:src/kernel/mmanagement/object_cache.cpp ****             SlabAllocator::getInstance().slab_cache.free_obj(slab);
 2046              		.loc 1 277 61
 2047 0e20 93050900 		mv	a1,s2
 2048 0e24 13058505 		addi	a0,a0,88
 2049 0e28 97000000 		call	_ZN11ObjectCache8free_objEPv
 2049      E7800000 
 2050              	.LVL268:
 2051              	.L134:
 2052              	.LBE28:
 268:src/kernel/mmanagement/object_cache.cpp ****     while(free_head){
 2053              		.loc 1 268 5 is_stmt 1
 268:src/kernel/mmanagement/object_cache.cpp ****     while(free_head){
 2054              		.loc 1 268 11 is_stmt 0
 2055 0e30 03B50402 		ld	a0,32(s1)
 2056 0e34 630A0504 		beq	a0,zero,.L138
GAS LISTING /tmp/ccpJ2pYY.s 			page 53


 2057              	.LBB29:
 269:src/kernel/mmanagement/object_cache.cpp ****         Slab* slab = get_list_parent(free_head, Slab, node);
 2058              		.loc 1 269 9 is_stmt 1
 269:src/kernel/mmanagement/object_cache.cpp ****         Slab* slab = get_list_parent(free_head, Slab, node);
 2059              		.loc 1 269 22 is_stmt 0
 2060 0e38 130985F5 		addi	s2,a0,-168
 2061              	.LVL269:
 270:src/kernel/mmanagement/object_cache.cpp ****         free_head = remove(free_head);
 2062              		.loc 1 270 9 is_stmt 1
 270:src/kernel/mmanagement/object_cache.cpp ****         free_head = remove(free_head);
 2063              		.loc 1 270 27 is_stmt 0
 2064 0e3c 97000000 		call	_Z6removeP6list_t
 2064      E7800000 
 2065              	.LVL270:
 270:src/kernel/mmanagement/object_cache.cpp ****         free_head = remove(free_head);
 2066              		.loc 1 270 19
 2067 0e44 23B0A402 		sd	a0,32(s1)
 272:src/kernel/mmanagement/object_cache.cpp ****         uchar buddy_level;
 2068              		.loc 1 272 9 is_stmt 1
 273:src/kernel/mmanagement/object_cache.cpp ****         get_slab_size(&buddy_level);
 2069              		.loc 1 273 9
 273:src/kernel/mmanagement/object_cache.cpp ****         get_slab_size(&buddy_level);
 2070              		.loc 1 273 22 is_stmt 0
 2071 0e48 9305F4FD 		addi	a1,s0,-33
 2072 0e4c 13850400 		mv	a0,s1
 2073 0e50 97000000 		call	_ZN11ObjectCache13get_slab_sizeEPh
 2073      E7800000 
 2074              	.LVL271:
 275:src/kernel/mmanagement/object_cache.cpp ****         Buddy::getInstance().mem_free(slab->addr_start, buddy_level);
 2075              		.loc 1 275 9 is_stmt 1
 275:src/kernel/mmanagement/object_cache.cpp ****         Buddy::getInstance().mem_free(slab->addr_start, buddy_level);
 2076              		.loc 1 275 28 is_stmt 0
 2077 0e58 97000000 		call	_ZN5Buddy11getInstanceEv
 2077      E7800000 
 2078              	.LVL272:
 275:src/kernel/mmanagement/object_cache.cpp ****         Buddy::getInstance().mem_free(slab->addr_start, buddy_level);
 2079              		.loc 1 275 38
 2080 0e60 0346F4FD 		lbu	a2,-33(s0)
 2081 0e64 8335090A 		ld	a1,160(s2)
 2082 0e68 97000000 		call	_ZN5Buddy8mem_freeEPvh
 2082      E7800000 
 2083              	.LVL273:
 276:src/kernel/mmanagement/object_cache.cpp ****         if(type == BUFF_SLAB || type == OFF_SLAB)
 2084              		.loc 1 276 9 is_stmt 1
 276:src/kernel/mmanagement/object_cache.cpp ****         if(type == BUFF_SLAB || type == OFF_SLAB)
 2085              		.loc 1 276 12 is_stmt 0
 2086 0e70 83A78401 		lw	a5,24(s1)
 276:src/kernel/mmanagement/object_cache.cpp ****         if(type == BUFF_SLAB || type == OFF_SLAB)
 2087              		.loc 1 276 9
 2088 0e74 13074000 		li	a4,4
 2089 0e78 E380E7FA 		beq	a5,a4,.L136
 276:src/kernel/mmanagement/object_cache.cpp ****         if(type == BUFF_SLAB || type == OFF_SLAB)
 2090              		.loc 1 276 30 discriminator 1
 2091 0e7c 13071000 		li	a4,1
 2092 0e80 E398E7FA 		bne	a5,a4,.L134
 2093 0e84 6FF05FF9 		j	.L136
 2094              	.LVL274:
GAS LISTING /tmp/ccpJ2pYY.s 			page 54


 2095              	.L138:
 2096              	.LBE29:
 279:src/kernel/mmanagement/object_cache.cpp ****     return 0;
 2097              		.loc 1 279 12
 2098 0e88 13050000 		li	a0,0
 2099              	.L135:
 280:src/kernel/mmanagement/object_cache.cpp **** }
 2100              		.loc 1 280 1
 2101 0e8c 83308102 		ld	ra,40(sp)
 2102              		.cfi_restore 1
 2103 0e90 03340102 		ld	s0,32(sp)
 2104              		.cfi_restore 8
 2105              		.cfi_def_cfa 2, 48
 2106 0e94 83348101 		ld	s1,24(sp)
 2107              		.cfi_restore 9
 2108              	.LVL275:
 2109 0e98 03390101 		ld	s2,16(sp)
 2110              		.cfi_restore 18
 2111 0e9c 13010103 		addi	sp,sp,48
 2112              		.cfi_def_cfa_offset 0
 2113 0ea0 67800000 		jr	ra
 2114              		.cfi_endproc
 2115              	.LFE126:
 2117              		.align	2
 2118              		.globl	_ZN11ObjectCache10free_slabsEP6list_t
 2120              	_ZN11ObjectCache10free_slabsEP6list_t:
 2121              	.LFB129:
 370:src/kernel/mmanagement/object_cache.cpp **** void ObjectCache::free_slabs(list_t* head){
 2122              		.loc 1 370 43 is_stmt 1
 2123              		.cfi_startproc
 2124              	.LVL276:
 2125 0ea4 130101FC 		addi	sp,sp,-64
 2126              		.cfi_def_cfa_offset 64
 2127 0ea8 233C1102 		sd	ra,56(sp)
 2128 0eac 23388102 		sd	s0,48(sp)
 2129 0eb0 23349102 		sd	s1,40(sp)
 2130 0eb4 23302103 		sd	s2,32(sp)
 2131 0eb8 233C3101 		sd	s3,24(sp)
 2132              		.cfi_offset 1, -8
 2133              		.cfi_offset 8, -16
 2134              		.cfi_offset 9, -24
 2135              		.cfi_offset 18, -32
 2136              		.cfi_offset 19, -40
 2137 0ebc 13040104 		addi	s0,sp,64
 2138              		.cfi_def_cfa 8, 0
 2139 0ec0 93090500 		mv	s3,a0
 2140 0ec4 93840500 		mv	s1,a1
 2141 0ec8 6F00C001 		j	.L144
 2142              	.LVL277:
 2143              	.L142:
 2144              	.LBB30:
 380:src/kernel/mmanagement/object_cache.cpp ****             SlabAllocator::getInstance().slab_cache.free_obj(slab);
 2145              		.loc 1 380 13
 380:src/kernel/mmanagement/object_cache.cpp ****             SlabAllocator::getInstance().slab_cache.free_obj(slab);
 2146              		.loc 1 380 40 is_stmt 0
 2147 0ecc 97000000 		call	_ZN13SlabAllocator11getInstanceEv
 2147      E7800000 
GAS LISTING /tmp/ccpJ2pYY.s 			page 55


 2148              	.LVL278:
 380:src/kernel/mmanagement/object_cache.cpp ****             SlabAllocator::getInstance().slab_cache.free_obj(slab);
 2149              		.loc 1 380 61
 2150 0ed4 93050900 		mv	a1,s2
 2151 0ed8 13058505 		addi	a0,a0,88
 2152 0edc 97000000 		call	_ZN11ObjectCache8free_objEPv
 2152      E7800000 
 2153              	.LVL279:
 2154              	.L144:
 2155              	.LBE30:
 371:src/kernel/mmanagement/object_cache.cpp ****     while(head){
 2156              		.loc 1 371 5 is_stmt 1
 371:src/kernel/mmanagement/object_cache.cpp ****     while(head){
 2157              		.loc 1 371 11 is_stmt 0
 2158 0ee4 638C0404 		beq	s1,zero,.L140
 2159              	.LBB31:
 372:src/kernel/mmanagement/object_cache.cpp ****         Slab* slab = get_list_parent(head, Slab, node);
 2160              		.loc 1 372 9 is_stmt 1
 372:src/kernel/mmanagement/object_cache.cpp ****         Slab* slab = get_list_parent(head, Slab, node);
 2161              		.loc 1 372 22 is_stmt 0
 2162 0ee8 138984F5 		addi	s2,s1,-168
 2163              	.LVL280:
 373:src/kernel/mmanagement/object_cache.cpp ****         head = remove(head);
 2164              		.loc 1 373 9 is_stmt 1
 373:src/kernel/mmanagement/object_cache.cpp ****         head = remove(head);
 2165              		.loc 1 373 22 is_stmt 0
 2166 0eec 13850400 		mv	a0,s1
 2167 0ef0 97000000 		call	_Z6removeP6list_t
 2167      E7800000 
 2168              	.LVL281:
 2169 0ef8 93040500 		mv	s1,a0
 2170              	.LVL282:
 375:src/kernel/mmanagement/object_cache.cpp ****         uchar buddy_level;
 2171              		.loc 1 375 9 is_stmt 1
 376:src/kernel/mmanagement/object_cache.cpp ****         get_slab_size(&buddy_level);
 2172              		.loc 1 376 9
 376:src/kernel/mmanagement/object_cache.cpp ****         get_slab_size(&buddy_level);
 2173              		.loc 1 376 22 is_stmt 0
 2174 0efc 9305F4FC 		addi	a1,s0,-49
 2175 0f00 13850900 		mv	a0,s3
 2176 0f04 97000000 		call	_ZN11ObjectCache13get_slab_sizeEPh
 2176      E7800000 
 2177              	.LVL283:
 378:src/kernel/mmanagement/object_cache.cpp ****         Buddy::getInstance().mem_free(slab->addr_start, buddy_level);
 2178              		.loc 1 378 9 is_stmt 1
 378:src/kernel/mmanagement/object_cache.cpp ****         Buddy::getInstance().mem_free(slab->addr_start, buddy_level);
 2179              		.loc 1 378 28 is_stmt 0
 2180 0f0c 97000000 		call	_ZN5Buddy11getInstanceEv
 2180      E7800000 
 2181              	.LVL284:
 378:src/kernel/mmanagement/object_cache.cpp ****         Buddy::getInstance().mem_free(slab->addr_start, buddy_level);
 2182              		.loc 1 378 38
 2183 0f14 0346F4FC 		lbu	a2,-49(s0)
 2184 0f18 8335090A 		ld	a1,160(s2)
 2185 0f1c 97000000 		call	_ZN5Buddy8mem_freeEPvh
 2185      E7800000 
 2186              	.LVL285:
GAS LISTING /tmp/ccpJ2pYY.s 			page 56


 379:src/kernel/mmanagement/object_cache.cpp ****         if(type == BUFF_SLAB || type == OFF_SLAB)
 2187              		.loc 1 379 9 is_stmt 1
 379:src/kernel/mmanagement/object_cache.cpp ****         if(type == BUFF_SLAB || type == OFF_SLAB)
 2188              		.loc 1 379 12 is_stmt 0
 2189 0f24 83A78901 		lw	a5,24(s3)
 379:src/kernel/mmanagement/object_cache.cpp ****         if(type == BUFF_SLAB || type == OFF_SLAB)
 2190              		.loc 1 379 9
 2191 0f28 13074000 		li	a4,4
 2192 0f2c E380E7FA 		beq	a5,a4,.L142
 379:src/kernel/mmanagement/object_cache.cpp ****         if(type == BUFF_SLAB || type == OFF_SLAB)
 2193              		.loc 1 379 30 discriminator 1
 2194 0f30 13071000 		li	a4,1
 2195 0f34 E398E7FA 		bne	a5,a4,.L144
 2196 0f38 6FF05FF9 		j	.L142
 2197              	.LVL286:
 2198              	.L140:
 2199              	.LBE31:
 382:src/kernel/mmanagement/object_cache.cpp **** }
 2200              		.loc 1 382 1
 2201 0f3c 83308103 		ld	ra,56(sp)
 2202              		.cfi_restore 1
 2203 0f40 03340103 		ld	s0,48(sp)
 2204              		.cfi_restore 8
 2205              		.cfi_def_cfa 2, 64
 2206 0f44 83348102 		ld	s1,40(sp)
 2207              		.cfi_restore 9
 2208              	.LVL287:
 2209 0f48 03390102 		ld	s2,32(sp)
 2210              		.cfi_restore 18
 2211 0f4c 83398101 		ld	s3,24(sp)
 2212              		.cfi_restore 19
 2213              	.LVL288:
 2214 0f50 13010104 		addi	sp,sp,64
 2215              		.cfi_def_cfa_offset 0
 2216 0f54 67800000 		jr	ra
 2217              		.cfi_endproc
 2218              	.LFE129:
 2220              		.align	2
 2221              		.globl	_ZN11ObjectCacheD2Ev
 2223              	_ZN11ObjectCacheD2Ev:
 2224              	.LFB131:
 384:src/kernel/mmanagement/object_cache.cpp **** ObjectCache::~ObjectCache(){
 2225              		.loc 1 384 1 is_stmt 1
 2226              		.cfi_startproc
 2227              		.cfi_personality 0x9b,DW.ref.__gxx_personality_v0
 2228              		.cfi_lsda 0x1b,.LLSDA131
 2229              	.LVL289:
 2230 0f58 130101FE 		addi	sp,sp,-32
 2231              		.cfi_def_cfa_offset 32
 2232 0f5c 233C1100 		sd	ra,24(sp)
 2233 0f60 23388100 		sd	s0,16(sp)
 2234 0f64 23349100 		sd	s1,8(sp)
 2235              		.cfi_offset 1, -8
 2236              		.cfi_offset 8, -16
 2237              		.cfi_offset 9, -24
 2238 0f68 13040102 		addi	s0,sp,32
 2239              		.cfi_def_cfa 8, 0
GAS LISTING /tmp/ccpJ2pYY.s 			page 57


 2240 0f6c 93040500 		mv	s1,a0
 2241              	.LBB32:
 385:src/kernel/mmanagement/object_cache.cpp ****     free_slabs(free_head);
 2242              		.loc 1 385 5
 385:src/kernel/mmanagement/object_cache.cpp ****     free_slabs(free_head);
 2243              		.loc 1 385 15 is_stmt 0
 2244 0f70 83350502 		ld	a1,32(a0)
 2245 0f74 97000000 		call	_ZN11ObjectCache10free_slabsEP6list_t
 2245      E7800000 
 2246              	.LVL290:
 386:src/kernel/mmanagement/object_cache.cpp ****     free_slabs(part_head);
 2247              		.loc 1 386 5 is_stmt 1
 386:src/kernel/mmanagement/object_cache.cpp ****     free_slabs(part_head);
 2248              		.loc 1 386 15 is_stmt 0
 2249 0f7c 83B58402 		ld	a1,40(s1)
 2250 0f80 13850400 		mv	a0,s1
 2251 0f84 97000000 		call	_ZN11ObjectCache10free_slabsEP6list_t
 2251      E7800000 
 2252              	.LVL291:
 387:src/kernel/mmanagement/object_cache.cpp ****     free_slabs(full_head);
 2253              		.loc 1 387 5 is_stmt 1
 387:src/kernel/mmanagement/object_cache.cpp ****     free_slabs(full_head);
 2254              		.loc 1 387 15 is_stmt 0
 2255 0f8c 83B50403 		ld	a1,48(s1)
 2256 0f90 13850400 		mv	a0,s1
 2257 0f94 97000000 		call	_ZN11ObjectCache10free_slabsEP6list_t
 2257      E7800000 
 2258              	.LVL292:
 2259              	.LBE32:
 389:src/kernel/mmanagement/object_cache.cpp **** }
 2260              		.loc 1 389 1
 2261 0f9c 83308101 		ld	ra,24(sp)
 2262              		.cfi_restore 1
 2263 0fa0 03340101 		ld	s0,16(sp)
 2264              		.cfi_restore 8
 2265              		.cfi_def_cfa 2, 32
 2266 0fa4 83348100 		ld	s1,8(sp)
 2267              		.cfi_restore 9
 2268              	.LVL293:
 2269 0fa8 13010102 		addi	sp,sp,32
 2270              		.cfi_def_cfa_offset 0
 2271 0fac 67800000 		jr	ra
 2272              		.cfi_endproc
 2273              	.LFE131:
 2274              		.globl	__gxx_personality_v0
 2275              		.section	.gcc_except_table,"aw",@progbits
 2276              	.LLSDA131:
 2277 0000 FF       		.byte	0xff
 2278 0001 FF       		.byte	0xff
 2279 0002 03       		.byte	0x3
 2280 0003 00       		.byte	0
 2281              		.text
 2283              		.globl	_ZN11ObjectCacheD1Ev
 2284              		.set	_ZN11ObjectCacheD1Ev,_ZN11ObjectCacheD2Ev
 2285              		.section	.rodata.str1.8,"aMS",@progbits,1
 2286              		.align	3
 2287              	.LC0:
GAS LISTING /tmp/ccpJ2pYY.s 			page 58


 2288 0000 6F626A73 		.string	"objsize: "
 2288      697A653A 
 2288      2000
 2289 000a 00000000 		.zero	6
 2289      0000
 2290              	.LC1:
 2291 0010 0A00     		.string	"\n"
 2292 0012 00000000 		.zero	6
 2292      0000
 2293              	.LC2:
 2294 0018 534C4142 		.string	"SLAB SIZE: "
 2294      2053495A 
 2294      453A2000 
 2295 0024 00000000 		.zero	4
 2296              	.LC3:
 2297 0028 534C4142 		.string	"SLAB TYPE: "
 2297      20545950 
 2297      453A2000 
 2298 0034 00000000 		.zero	4
 2299              	.LC4:
 2300 0038 4E4F4E45 		.string	"NONE\n"
 2300      0A00
 2301 003e 0000     		.zero	2
 2302              	.LC5:
 2303 0040 4F46465F 		.string	"OFF_SLAB\n"
 2303      534C4142 
 2303      0A00
 2304 004a 00000000 		.zero	6
 2304      0000
 2305              	.LC6:
 2306 0050 534C4142 		.string	"SLAB_SLAB\n"
 2306      5F534C41 
 2306      420A00
 2307 005b 00000000 		.zero	5
 2307      00
 2308              	.LC7:
 2309 0060 4F4E5F53 		.string	"ON_SLAB\n"
 2309      4C41420A 
 2309      00
 2310 0069 00000000 		.zero	7
 2310      000000
 2311              	.LC8:
 2312 0070 42554646 		.string	"BUFF_SLAB\n"
 2312      5F534C41 
 2312      420A00
 2313 007b 00000000 		.zero	5
 2313      00
 2314              	.LC9:
 2315 0080 21212121 		.string	"!!!!!!FREE SLAB LIST!!!!!! \n"
 2315      21214652 
 2315      45452053 
 2315      4C414220 
 2315      4C495354 
 2316 009d 000000   		.zero	3
 2317              	.LC10:
 2318 00a0 21212121 		.string	"!!!!!!PARTIAL SLAB LIST!!!!!! \n"
 2318      21215041 
GAS LISTING /tmp/ccpJ2pYY.s 			page 59


 2318      52544941 
 2318      4C20534C 
 2318      4142204C 
 2319              	.LC11:
 2320 00c0 21212121 		.string	"!!!!!!FULL SLAB LIST!!!!!!\n"
 2320      21214655 
 2320      4C4C2053 
 2320      4C414220 
 2320      4C495354 
 2321 00dc 00000000 		.zero	4
 2322              	.LC12:
 2323 00e0 0A2D2D2D 		.string	"\n--------OBJCACHE "
 2323      2D2D2D2D 
 2323      2D4F424A 
 2323      43414348 
 2323      452000
 2324 00f3 00000000 		.zero	5
 2324      00
 2325              	.LC13:
 2326 00f8 2D2D2D2D 		.string	"--------\n"
 2326      2D2D2D2D 
 2326      0A00
 2327 0102 00000000 		.zero	6
 2327      0000
 2328              	.LC14:
 2329 0108 66726565 		.string	"free_slab_num: "
 2329      5F736C61 
 2329      625F6E75 
 2329      6D3A2000 
 2330              	.LC15:
 2331 0118 70617274 		.string	"partial_slab_num: "
 2331      69616C5F 
 2331      736C6162 
 2331      5F6E756D 
 2331      3A2000
 2332 012b 00000000 		.zero	5
 2332      00
 2333              	.LC16:
 2334 0130 66756C6C 		.string	"full_slab_num: "
 2334      5F736C61 
 2334      625F6E75 
 2334      6D3A2000 
 2335              	.LC17:
 2336 0140 736C6162 		.string	"slab_size: "
 2336      5F73697A 
 2336      653A2000 
 2337 014c 00000000 		.zero	4
 2338              	.LC18:
 2339 0150 6D61785F 		.string	"max_obj_num_in_slab: "
 2339      6F626A5F 
 2339      6E756D5F 
 2339      696E5F73 
 2339      6C61623A 
 2340 0166 0000     		.zero	2
 2341              	.LC19:
 2342 0168 616C6C6F 		.string	"alloc_obj_num: "
 2342      635F6F62 
GAS LISTING /tmp/ccpJ2pYY.s 			page 60


 2342      6A5F6E75 
 2342      6D3A2000 
 2343              	.LC20:
 2344 0178 2D2D2D2D 		.string	"------OBJCACHE "
 2344      2D2D4F42 
 2344      4A434143 
 2344      48452000 
 2345              	.LC21:
 2346 0188 20454E44 		.string	" END------\n\n"
 2346      2D2D2D2D 
 2346      2D2D0A0A 
 2346      00
 2347 0195 000000   		.zero	3
 2348              	.LC22:
 2349 0198 4E6F7420 		.string	"Not enough memory left"
 2349      656E6F75 
 2349      6768206D 
 2349      656D6F72 
 2349      79206C65 
 2350 01af 00       		.zero	1
 2351              	.LC23:
 2352 01b0 4465616C 		.string	"Dealocation failed: Object is not from specified cache!!"
 2352      6F636174 
 2352      696F6E20 
 2352      6661696C 
 2352      65643A20 
 2353 01e9 00000000 		.zero	7
 2353      000000
 2354              	.LC24:
 2355 01f0 4465616C 		.string	"Deallocation failed: invalid deallocation address!"
 2355      6C6F6361 
 2355      74696F6E 
 2355      20666169 
 2355      6C65643A 
 2356 0223 00000000 		.zero	5
 2356      00
 2357              	.LC25:
 2358 0228 4E6F2066 		.string	"No free slabs!"
 2358      72656520 
 2358      736C6162 
 2358      732100
 2359              		.text
 2360              	.Letext0:
 2361              		.file 3 "src/kernel/mmanagement/../../../h/../h/../lib/hw.h"
 2362              		.file 4 "src/kernel/mmanagement/../../../h/../h/../h/../h/list.h"
 2363              		.file 5 "src/kernel/mmanagement/../../../h/../h/../h/object_cache.h"
 2364              		.file 6 "src/kernel/mmanagement/../../../h/../h/buddy.h"
 2365              		.file 7 "src/kernel/mmanagement/../../../h/../h/slab.h"
 2366              		.file 8 "src/kernel/mmanagement/../../../h/kernel_lib.h"
 2367              		.file 9 "src/kernel/mmanagement/../../../h/../h/kernel_funs.h"
 9280              		.align	3
 9283              	DW.ref.__gxx_personality_v0:
 9284 0000 00000000 		.dword	__gxx_personality_v0
 9284      00000000 
 9285              		.ident	"GCC: () 8.3.0"
GAS LISTING /tmp/ccpJ2pYY.s 			page 61

