GAS LISTING /tmp/cciKrY8b.s 			page 1


   1              		.file	"slab_meta.cpp"
   2              		.option nopic
   3              		.option norelax
   4              		.attribute arch, "rv64i2p0_m2p0_a2p0"
   5              		.attribute unaligned_access, 0
   6              		.attribute stack_align, 16
   7              		.text
   8              	.Ltext0:
   9              		.align	2
  10              		.globl	_ZN4SlabC2EhPvP11ObjectCache
  12              	_ZN4SlabC2EhPvP11ObjectCache:
  13              	.LFB114:
  14              		.file 1 "src/kernel/mmanagement/slab_meta.cpp"
   1:src/kernel/mmanagement/slab_meta.cpp **** #include "../../../h/kernel_lib.h"
   2:src/kernel/mmanagement/slab_meta.cpp **** 
   3:src/kernel/mmanagement/slab_meta.cpp **** Slab::Slab(uchar cap, void* addr, ObjectCache* parent){
  15              		.loc 1 3 1
  16              		.cfi_startproc
  17              	.LVL0:
  18 0000 130101FD 		addi	sp,sp,-48
  19              		.cfi_def_cfa_offset 48
  20 0004 23341102 		sd	ra,40(sp)
  21 0008 23308102 		sd	s0,32(sp)
  22 000c 233C9100 		sd	s1,24(sp)
  23 0010 23382101 		sd	s2,16(sp)
  24 0014 23343101 		sd	s3,8(sp)
  25 0018 23304101 		sd	s4,0(sp)
  26              		.cfi_offset 1, -8
  27              		.cfi_offset 8, -16
  28              		.cfi_offset 9, -24
  29              		.cfi_offset 18, -32
  30              		.cfi_offset 19, -40
  31              		.cfi_offset 20, -48
  32 001c 13040103 		addi	s0,sp,48
  33              		.cfi_def_cfa 8, 0
  34 0020 93040500 		mv	s1,a0
  35 0024 13890500 		mv	s2,a1
  36 0028 130A0600 		mv	s4,a2
  37 002c 93890600 		mv	s3,a3
  38              	.LBB6:
  39              		.loc 1 3 54 is_stmt 0
  40 0030 13060000 		li	a2,0
  41              	.LVL1:
  42 0034 93050000 		li	a1,0
  43              	.LVL2:
  44 0038 1305850A 		addi	a0,a0,168
  45              	.LVL3:
  46 003c 97000000 		call	_ZN6list_tC1EPS_S0_
  46      E7800000 
  47              	.LVL4:
  48              	.LBB7:
   4:src/kernel/mmanagement/slab_meta.cpp ****     this->cap = cap;
  49              		.loc 1 4 5 is_stmt 1
  50              		.loc 1 4 15 is_stmt 0
  51 0044 23852409 		sb	s2,138(s1)
   5:src/kernel/mmanagement/slab_meta.cpp ****     this->addr_start = (char*)addr;
  52              		.loc 1 5 5 is_stmt 1
GAS LISTING /tmp/cciKrY8b.s 			page 2


  53              		.loc 1 5 22 is_stmt 0
  54 0048 23B0440B 		sd	s4,160(s1)
   6:src/kernel/mmanagement/slab_meta.cpp ****     node.next = node.prev = nullptr;
  55              		.loc 1 6 5 is_stmt 1
  56              		.loc 1 6 27 is_stmt 0
  57 004c 23B8040A 		sd	zero,176(s1)
  58              		.loc 1 6 15
  59 0050 23B4040A 		sd	zero,168(s1)
   7:src/kernel/mmanagement/slab_meta.cpp ****     this->parent = parent;
  60              		.loc 1 7 5 is_stmt 1
  61              		.loc 1 7 18 is_stmt 0
  62 0054 23B03401 		sd	s3,0(s1)
   8:src/kernel/mmanagement/slab_meta.cpp **** 
   9:src/kernel/mmanagement/slab_meta.cpp ****     for(uint a = 0; a < cap; a++)
  63              		.loc 1 9 5 is_stmt 1
  64              	.LVL5:
  65              	.LBB8:
  66              		.loc 1 9 14 is_stmt 0
  67 0058 93070000 		li	a5,0
  68              	.LVL6:
  69              	.L3:
  70              		.loc 1 9 23 discriminator 3
  71 005c 1B070900 		sext.w	a4,s2
  72 0060 63FEE700 		bleu	a4,a5,.L2
  10:src/kernel/mmanagement/slab_meta.cpp ****         round_buffer[a] = a;
  73              		.loc 1 10 9 is_stmt 1 discriminator 2
  74              		.loc 1 10 25 is_stmt 0 discriminator 2
  75 0064 13970702 		slli	a4,a5,32
  76 0068 13570702 		srli	a4,a4,32
  77 006c 3387E400 		add	a4,s1,a4
  78 0070 2304F700 		sb	a5,8(a4)
   9:src/kernel/mmanagement/slab_meta.cpp ****         round_buffer[a] = a;
  79              		.loc 1 9 5 discriminator 2
  80 0074 9B871700 		addiw	a5,a5,1
  81              	.LVL7:
  82 0078 6FF05FFE 		j	.L3
  83              	.LVL8:
  84              	.L2:
  85              	.LBE8:
  11:src/kernel/mmanagement/slab_meta.cpp ****     front = rear = 0;
  86              		.loc 1 11 5 is_stmt 1
  87              		.loc 1 11 18 is_stmt 0
  88 007c A3840408 		sb	zero,137(s1)
  89              		.loc 1 11 11
  90 0080 23840408 		sb	zero,136(s1)
  12:src/kernel/mmanagement/slab_meta.cpp ****     
  13:src/kernel/mmanagement/slab_meta.cpp ****     for(uint a = 0; a < (RB_SIZE >> 3); a++){
  91              		.loc 1 13 5 is_stmt 1
  92              	.LVL9:
  93              	.LBB9:
  94              		.loc 1 13 14 is_stmt 0
  95 0084 93070000 		li	a5,0
  96              	.LVL10:
  97              	.L5:
  98              		.loc 1 13 23 discriminator 3
  99 0088 1307F000 		li	a4,15
 100 008c 636EF700 		bgtu	a5,a4,.L1
GAS LISTING /tmp/cciKrY8b.s 			page 3


  14:src/kernel/mmanagement/slab_meta.cpp ****         map[a] = 0;
 101              		.loc 1 14 9 is_stmt 1 discriminator 2
 102              		.loc 1 14 16 is_stmt 0 discriminator 2
 103 0090 13970702 		slli	a4,a5,32
 104 0094 13570702 		srli	a4,a4,32
 105 0098 3387E400 		add	a4,s1,a4
 106 009c A3050708 		sb	zero,139(a4)
  13:src/kernel/mmanagement/slab_meta.cpp ****         map[a] = 0;
 107              		.loc 1 13 5 discriminator 2
 108 00a0 9B871700 		addiw	a5,a5,1
 109              	.LVL11:
 110 00a4 6FF05FFE 		j	.L5
 111              	.LVL12:
 112              	.L1:
 113              	.LBE9:
 114              	.LBE7:
 115              	.LBE6:
  15:src/kernel/mmanagement/slab_meta.cpp ****     }
  16:src/kernel/mmanagement/slab_meta.cpp **** }
 116              		.loc 1 16 1
 117 00a8 83308102 		ld	ra,40(sp)
 118              		.cfi_restore 1
 119 00ac 03340102 		ld	s0,32(sp)
 120              		.cfi_restore 8
 121              		.cfi_def_cfa 2, 48
 122 00b0 83348101 		ld	s1,24(sp)
 123              		.cfi_restore 9
 124              	.LVL13:
 125 00b4 03390101 		ld	s2,16(sp)
 126              		.cfi_restore 18
 127 00b8 83398100 		ld	s3,8(sp)
 128              		.cfi_restore 19
 129              	.LVL14:
 130 00bc 033A0100 		ld	s4,0(sp)
 131              		.cfi_restore 20
 132              	.LVL15:
 133 00c0 13010103 		addi	sp,sp,48
 134              		.cfi_def_cfa_offset 0
 135 00c4 67800000 		jr	ra
 136              		.cfi_endproc
 137              	.LFE114:
 139              		.globl	_ZN4SlabC1EhPvP11ObjectCache
 140              		.set	_ZN4SlabC1EhPvP11ObjectCache,_ZN4SlabC2EhPvP11ObjectCache
 141              		.align	2
 142              		.globl	_ZN4Slab8containsEPv
 144              	_ZN4Slab8containsEPv:
 145              	.LFB117:
  17:src/kernel/mmanagement/slab_meta.cpp **** 
  18:src/kernel/mmanagement/slab_meta.cpp **** 
  19:src/kernel/mmanagement/slab_meta.cpp **** 
  20:src/kernel/mmanagement/slab_meta.cpp **** void* Slab::get_obj(){
  21:src/kernel/mmanagement/slab_meta.cpp ****     if(full()) return nullptr;
  22:src/kernel/mmanagement/slab_meta.cpp ****     
  23:src/kernel/mmanagement/slab_meta.cpp ****     void* ret = 
  24:src/kernel/mmanagement/slab_meta.cpp ****         (void*) (addr_start + round_buffer[front] * parent->objsize);
  25:src/kernel/mmanagement/slab_meta.cpp ****     
  26:src/kernel/mmanagement/slab_meta.cpp ****     set_bit(round_buffer[front]);
GAS LISTING /tmp/cciKrY8b.s 			page 4


  27:src/kernel/mmanagement/slab_meta.cpp **** 
  28:src/kernel/mmanagement/slab_meta.cpp ****     front = front+1;
  29:src/kernel/mmanagement/slab_meta.cpp ****     if(front >= cap) front = 0;
  30:src/kernel/mmanagement/slab_meta.cpp ****     if(front == rear) front = RB_SIZE;
  31:src/kernel/mmanagement/slab_meta.cpp **** 
  32:src/kernel/mmanagement/slab_meta.cpp ****     return ret;
  33:src/kernel/mmanagement/slab_meta.cpp **** }
  34:src/kernel/mmanagement/slab_meta.cpp **** 
  35:src/kernel/mmanagement/slab_meta.cpp **** 
  36:src/kernel/mmanagement/slab_meta.cpp **** 
  37:src/kernel/mmanagement/slab_meta.cpp **** bool Slab::contains(void *ptr){
 146              		.loc 1 37 31 is_stmt 1
 147              		.cfi_startproc
 148              	.LVL16:
 149 00c8 130101FF 		addi	sp,sp,-16
 150              		.cfi_def_cfa_offset 16
 151 00cc 23348100 		sd	s0,8(sp)
 152              		.cfi_offset 8, -8
 153 00d0 13040101 		addi	s0,sp,16
 154              		.cfi_def_cfa 8, 0
  38:src/kernel/mmanagement/slab_meta.cpp ****     if((char*)ptr < addr_start) return 0;
 155              		.loc 1 38 5
 156              		.loc 1 38 21 is_stmt 0
 157 00d4 8337050A 		ld	a5,160(a0)
 158              		.loc 1 38 5
 159 00d8 63E6F502 		bgtu	a5,a1,.L9
  39:src/kernel/mmanagement/slab_meta.cpp **** 
  40:src/kernel/mmanagement/slab_meta.cpp ****     size_t diff = (char*)ptr - addr_start;
 160              		.loc 1 40 5 is_stmt 1
 161              		.loc 1 40 30 is_stmt 0
 162 00dc B385F540 		sub	a1,a1,a5
 163              	.LVL17:
  41:src/kernel/mmanagement/slab_meta.cpp ****     if(diff % parent->objsize
 164              		.loc 1 41 5 is_stmt 1
 165              		.loc 1 41 15 is_stmt 0
 166 00e0 83370500 		ld	a5,0(a0)
 167              		.loc 1 41 23
 168 00e4 83B70701 		ld	a5,16(a5)
 169              		.loc 1 41 13
 170 00e8 33F7F502 		remu	a4,a1,a5
 171              		.loc 1 41 5
 172 00ec 63140702 		bne	a4,zero,.L10
  42:src/kernel/mmanagement/slab_meta.cpp ****         || diff > parent->objsize*cap) return 0;
 173              		.loc 1 42 35
 174 00f0 0347A508 		lbu	a4,138(a0)
 175              		.loc 1 42 34
 176 00f4 B387E702 		mul	a5,a5,a4
 177              		.loc 1 42 9
 178 00f8 63E2B702 		bltu	a5,a1,.L11
  43:src/kernel/mmanagement/slab_meta.cpp ****     
  44:src/kernel/mmanagement/slab_meta.cpp ****     return 1;
 179              		.loc 1 44 12
 180 00fc 13051000 		li	a0,1
 181              	.LVL18:
 182 0100 6F008000 		j	.L8
 183              	.LVL19:
 184              	.L9:
GAS LISTING /tmp/cciKrY8b.s 			page 5


  38:src/kernel/mmanagement/slab_meta.cpp **** 
 185              		.loc 1 38 40
 186 0104 13050000 		li	a0,0
 187              	.LVL20:
 188              	.L8:
  45:src/kernel/mmanagement/slab_meta.cpp **** }
 189              		.loc 1 45 1
 190 0108 03348100 		ld	s0,8(sp)
 191              		.cfi_remember_state
 192              		.cfi_restore 8
 193              		.cfi_def_cfa 2, 16
 194 010c 13010101 		addi	sp,sp,16
 195              		.cfi_def_cfa_offset 0
 196 0110 67800000 		jr	ra
 197              	.LVL21:
 198              	.L10:
 199              		.cfi_restore_state
  42:src/kernel/mmanagement/slab_meta.cpp ****     
 200              		.loc 1 42 47
 201 0114 13050000 		li	a0,0
 202              	.LVL22:
 203 0118 6FF01FFF 		j	.L8
 204              	.LVL23:
 205              	.L11:
 206 011c 13050000 		li	a0,0
 207              	.LVL24:
 208 0120 6FF09FFE 		j	.L8
 209              		.cfi_endproc
 210              	.LFE117:
 212              		.align	2
 213              		.globl	_ZN4Slab7get_bitEh
 215              	_ZN4Slab7get_bitEh:
 216              	.LFB120:
  46:src/kernel/mmanagement/slab_meta.cpp **** 
  47:src/kernel/mmanagement/slab_meta.cpp **** 
  48:src/kernel/mmanagement/slab_meta.cpp **** 
  49:src/kernel/mmanagement/slab_meta.cpp **** int Slab::put_obj(void *ptr){
  50:src/kernel/mmanagement/slab_meta.cpp **** 
  51:src/kernel/mmanagement/slab_meta.cpp ****     if(free()) return -4;
  52:src/kernel/mmanagement/slab_meta.cpp ****     if((char*)ptr < addr_start) return -1;
  53:src/kernel/mmanagement/slab_meta.cpp **** 
  54:src/kernel/mmanagement/slab_meta.cpp ****     size_t diff = (char*)ptr - addr_start;
  55:src/kernel/mmanagement/slab_meta.cpp ****     if(diff % parent->objsize
  56:src/kernel/mmanagement/slab_meta.cpp ****         || diff > parent->objsize*cap) return -2;
  57:src/kernel/mmanagement/slab_meta.cpp **** 
  58:src/kernel/mmanagement/slab_meta.cpp ****     size_t num = diff/parent->objsize;
  59:src/kernel/mmanagement/slab_meta.cpp ****     if(!get_bit(num)) return -5;
  60:src/kernel/mmanagement/slab_meta.cpp **** 
  61:src/kernel/mmanagement/slab_meta.cpp ****     if(parent->dtor) parent->dtor(ptr);
  62:src/kernel/mmanagement/slab_meta.cpp ****     clear_bit(num);
  63:src/kernel/mmanagement/slab_meta.cpp **** 
  64:src/kernel/mmanagement/slab_meta.cpp ****     round_buffer[rear] = num;
  65:src/kernel/mmanagement/slab_meta.cpp ****     if(front == RB_SIZE) front = rear;
  66:src/kernel/mmanagement/slab_meta.cpp ****     rear = rear+1;
  67:src/kernel/mmanagement/slab_meta.cpp ****     if(rear >= cap) rear = 0;
  68:src/kernel/mmanagement/slab_meta.cpp ****      
  69:src/kernel/mmanagement/slab_meta.cpp **** 
GAS LISTING /tmp/cciKrY8b.s 			page 6


  70:src/kernel/mmanagement/slab_meta.cpp ****     return 0;
  71:src/kernel/mmanagement/slab_meta.cpp **** 
  72:src/kernel/mmanagement/slab_meta.cpp **** }
  73:src/kernel/mmanagement/slab_meta.cpp **** 
  74:src/kernel/mmanagement/slab_meta.cpp **** 
  75:src/kernel/mmanagement/slab_meta.cpp **** 
  76:src/kernel/mmanagement/slab_meta.cpp **** 
  77:src/kernel/mmanagement/slab_meta.cpp **** void Slab::print_info(char flag){
  78:src/kernel/mmanagement/slab_meta.cpp ****     
  79:src/kernel/mmanagement/slab_meta.cpp ****     kprintString("Slab info:\n");
  80:src/kernel/mmanagement/slab_meta.cpp ****     KVALCHECKPRINT(Slab Meta Address, this);
  81:src/kernel/mmanagement/slab_meta.cpp ****     KVALCHECKPRINT(Slab Address, addr_start);
  82:src/kernel/mmanagement/slab_meta.cpp ****     
  83:src/kernel/mmanagement/slab_meta.cpp ****     uchar t = front;
  84:src/kernel/mmanagement/slab_meta.cpp ****     if(flag & pb_mask::FREE){
  85:src/kernel/mmanagement/slab_meta.cpp ****         if(front == rear){
  86:src/kernel/mmanagement/slab_meta.cpp ****             KPRINTARR(FreeSlot, round_buffer[front], 1);
  87:src/kernel/mmanagement/slab_meta.cpp ****             if(cap > 1)
  88:src/kernel/mmanagement/slab_meta.cpp ****                 t++;
  89:src/kernel/mmanagement/slab_meta.cpp ****         }
  90:src/kernel/mmanagement/slab_meta.cpp ****         else
  91:src/kernel/mmanagement/slab_meta.cpp ****             t = front;
  92:src/kernel/mmanagement/slab_meta.cpp ****         if(front != RB_SIZE) 
  93:src/kernel/mmanagement/slab_meta.cpp ****             for(;  t < RB_SIZE && t != rear;  t = (t + 1)%cap){
  94:src/kernel/mmanagement/slab_meta.cpp ****                 KPRINTARR(FreeSlot, round_buffer[t], 1);
  95:src/kernel/mmanagement/slab_meta.cpp ****             }
  96:src/kernel/mmanagement/slab_meta.cpp ****         kprintString("\n");
  97:src/kernel/mmanagement/slab_meta.cpp ****     }
  98:src/kernel/mmanagement/slab_meta.cpp ****     
  99:src/kernel/mmanagement/slab_meta.cpp ****     if(flag & pb_mask::ALLOC){
 100:src/kernel/mmanagement/slab_meta.cpp ****         for(uint i = 0; i < cap; i++){
 101:src/kernel/mmanagement/slab_meta.cpp ****             if(get_bit(i)){
 102:src/kernel/mmanagement/slab_meta.cpp ****                 KPRINTARR(UsedSlot, i, 1);
 103:src/kernel/mmanagement/slab_meta.cpp ****             }
 104:src/kernel/mmanagement/slab_meta.cpp ****         }
 105:src/kernel/mmanagement/slab_meta.cpp ****         
 106:src/kernel/mmanagement/slab_meta.cpp ****     }
 107:src/kernel/mmanagement/slab_meta.cpp **** 
 108:src/kernel/mmanagement/slab_meta.cpp ****     
 109:src/kernel/mmanagement/slab_meta.cpp **** }
 110:src/kernel/mmanagement/slab_meta.cpp **** 
 111:src/kernel/mmanagement/slab_meta.cpp **** 
 112:src/kernel/mmanagement/slab_meta.cpp **** 
 113:src/kernel/mmanagement/slab_meta.cpp **** 
 114:src/kernel/mmanagement/slab_meta.cpp **** bool Slab::get_bit(uchar index){
 217              		.loc 1 114 32 is_stmt 1
 218              		.cfi_startproc
 219              	.LVL25:
 220 0124 130101FF 		addi	sp,sp,-16
 221              		.cfi_def_cfa_offset 16
 222 0128 23348100 		sd	s0,8(sp)
 223              		.cfi_offset 8, -8
 224 012c 13040101 		addi	s0,sp,16
 225              		.cfi_def_cfa 8, 0
 115:src/kernel/mmanagement/slab_meta.cpp ****     return map[index >> 3] & (1U << (index & 7U));
 226              		.loc 1 115 5
 227              		.loc 1 115 22 is_stmt 0
GAS LISTING /tmp/cciKrY8b.s 			page 7


 228 0130 93D73500 		srli	a5,a1,3
 229              		.loc 1 115 26
 230 0134 3305F500 		add	a0,a0,a5
 231              	.LVL26:
 232 0138 0345B508 		lbu	a0,139(a0)
 233              		.loc 1 115 44
 234 013c 93F57500 		andi	a1,a1,7
 235              	.LVL27:
 236              		.loc 1 115 49
 237 0140 3B55B500 		srlw	a0,a0,a1
 116:src/kernel/mmanagement/slab_meta.cpp **** }
 238              		.loc 1 116 1
 239 0144 13751500 		andi	a0,a0,1
 240 0148 03348100 		ld	s0,8(sp)
 241              		.cfi_restore 8
 242              		.cfi_def_cfa 2, 16
 243 014c 13010101 		addi	sp,sp,16
 244              		.cfi_def_cfa_offset 0
 245 0150 67800000 		jr	ra
 246              		.cfi_endproc
 247              	.LFE120:
 249              		.align	2
 250              		.globl	_ZN4Slab10print_infoEc
 252              	_ZN4Slab10print_infoEc:
 253              	.LFB119:
  77:src/kernel/mmanagement/slab_meta.cpp ****     
 254              		.loc 1 77 33 is_stmt 1
 255              		.cfi_startproc
 256              	.LVL28:
 257 0154 130101FD 		addi	sp,sp,-48
 258              		.cfi_def_cfa_offset 48
 259 0158 23341102 		sd	ra,40(sp)
 260 015c 23308102 		sd	s0,32(sp)
 261 0160 233C9100 		sd	s1,24(sp)
 262 0164 23382101 		sd	s2,16(sp)
 263 0168 23343101 		sd	s3,8(sp)
 264              		.cfi_offset 1, -8
 265              		.cfi_offset 8, -16
 266              		.cfi_offset 9, -24
 267              		.cfi_offset 18, -32
 268              		.cfi_offset 19, -40
 269 016c 13040103 		addi	s0,sp,48
 270              		.cfi_def_cfa 8, 0
 271 0170 13090500 		mv	s2,a0
 272 0174 93890500 		mv	s3,a1
  79:src/kernel/mmanagement/slab_meta.cpp ****     KVALCHECKPRINT(Slab Meta Address, this);
 273              		.loc 1 79 5
  79:src/kernel/mmanagement/slab_meta.cpp ****     KVALCHECKPRINT(Slab Meta Address, this);
 274              		.loc 1 79 17 is_stmt 0
 275 0178 17050000 		lla	a0,.LC0
 275      13050500 
 276              	.LVL29:
 277 0180 97000000 		call	_Z12kprintStringPKc
 277      E7800000 
 278              	.LVL30:
  80:src/kernel/mmanagement/slab_meta.cpp ****     KVALCHECKPRINT(Slab Address, addr_start);
 279              		.loc 1 80 5 is_stmt 1
GAS LISTING /tmp/cciKrY8b.s 			page 8


 280 0188 17050000 		lla	a0,.LC1
 280      13050500 
 281 0190 97000000 		call	_Z12kprintStringPKc
 281      E7800000 
 282              	.LVL31:
  80:src/kernel/mmanagement/slab_meta.cpp ****     KVALCHECKPRINT(Slab Address, addr_start);
 283              		.loc 1 80 5
 284 0198 13060000 		li	a2,0
 285 019c 93050001 		li	a1,16
 286 01a0 13050900 		mv	a0,s2
 287 01a4 97000000 		call	_Z9kprintIntmib
 287      E7800000 
 288              	.LVL32:
  80:src/kernel/mmanagement/slab_meta.cpp ****     KVALCHECKPRINT(Slab Address, addr_start);
 289              		.loc 1 80 5
 290 01ac 17050000 		lla	a0,.LC2
 290      13050500 
 291 01b4 97000000 		call	_Z12kprintStringPKc
 291      E7800000 
 292              	.LVL33:
  81:src/kernel/mmanagement/slab_meta.cpp ****     
 293              		.loc 1 81 5
 294 01bc 17050000 		lla	a0,.LC3
 294      13050500 
 295 01c4 97000000 		call	_Z12kprintStringPKc
 295      E7800000 
 296              	.LVL34:
  81:src/kernel/mmanagement/slab_meta.cpp ****     
 297              		.loc 1 81 5
 298 01cc 13060000 		li	a2,0
 299 01d0 93050001 		li	a1,16
 300 01d4 0335090A 		ld	a0,160(s2)
 301 01d8 97000000 		call	_Z9kprintIntmib
 301      E7800000 
 302              	.LVL35:
  81:src/kernel/mmanagement/slab_meta.cpp ****     
 303              		.loc 1 81 5
 304 01e0 17050000 		lla	a0,.LC2
 304      13050500 
 305 01e8 97000000 		call	_Z12kprintStringPKc
 305      E7800000 
 306              	.LVL36:
  83:src/kernel/mmanagement/slab_meta.cpp ****     if(flag & pb_mask::FREE){
 307              		.loc 1 83 5
  83:src/kernel/mmanagement/slab_meta.cpp ****     if(flag & pb_mask::FREE){
 308              		.loc 1 83 11 is_stmt 0
 309 01f0 83448908 		lbu	s1,136(s2)
 310              	.LVL37:
  84:src/kernel/mmanagement/slab_meta.cpp ****         if(front == rear){
 311              		.loc 1 84 5 is_stmt 1
 312 01f4 93F71900 		andi	a5,s3,1
 313 01f8 63840712 		beq	a5,zero,.L16
  85:src/kernel/mmanagement/slab_meta.cpp ****             KPRINTARR(FreeSlot, round_buffer[front], 1);
 314              		.loc 1 85 9
  85:src/kernel/mmanagement/slab_meta.cpp ****             KPRINTARR(FreeSlot, round_buffer[front], 1);
 315              		.loc 1 85 21 is_stmt 0
 316 01fc 83479908 		lbu	a5,137(s2)
GAS LISTING /tmp/cciKrY8b.s 			page 9


  85:src/kernel/mmanagement/slab_meta.cpp ****             KPRINTARR(FreeSlot, round_buffer[front], 1);
 317              		.loc 1 85 9
 318 0200 638C9708 		beq	a5,s1,.L24
 319              	.L17:
  92:src/kernel/mmanagement/slab_meta.cpp ****             for(;  t < RB_SIZE && t != rear;  t = (t + 1)%cap){
 320              		.loc 1 92 9 is_stmt 1
  92:src/kernel/mmanagement/slab_meta.cpp ****             for(;  t < RB_SIZE && t != rear;  t = (t + 1)%cap){
 321              		.loc 1 92 12 is_stmt 0
 322 0204 03478908 		lbu	a4,136(s2)
  92:src/kernel/mmanagement/slab_meta.cpp ****             for(;  t < RB_SIZE && t != rear;  t = (t + 1)%cap){
 323              		.loc 1 92 9
 324 0208 93070008 		li	a5,128
 325 020c 6302F710 		beq	a4,a5,.L18
 326              	.L19:
  93:src/kernel/mmanagement/slab_meta.cpp ****                 KPRINTARR(FreeSlot, round_buffer[t], 1);
 327              		.loc 1 93 13 is_stmt 1 discriminator 3
  93:src/kernel/mmanagement/slab_meta.cpp ****                 KPRINTARR(FreeSlot, round_buffer[t], 1);
 328              		.loc 1 93 22 is_stmt 0 discriminator 3
 329 0210 9B978401 		slliw	a5,s1,24
 330 0214 9BD78741 		sraiw	a5,a5,24
  93:src/kernel/mmanagement/slab_meta.cpp ****                 KPRINTARR(FreeSlot, round_buffer[t], 1);
 331              		.loc 1 93 32 discriminator 3
 332 0218 63CC070E 		blt	a5,zero,.L18
  93:src/kernel/mmanagement/slab_meta.cpp ****                 KPRINTARR(FreeSlot, round_buffer[t], 1);
 333              		.loc 1 93 40 discriminator 1
 334 021c 83479908 		lbu	a5,137(s2)
  93:src/kernel/mmanagement/slab_meta.cpp ****                 KPRINTARR(FreeSlot, round_buffer[t], 1);
 335              		.loc 1 93 32 discriminator 1
 336 0220 6388970E 		beq	a5,s1,.L18
  94:src/kernel/mmanagement/slab_meta.cpp ****             }
 337              		.loc 1 94 17 is_stmt 1 discriminator 2
 338 0224 17050000 		lla	a0,.LC4
 338      13050500 
 339 022c 97000000 		call	_Z12kprintStringPKc
 339      E7800000 
 340              	.LVL38:
  94:src/kernel/mmanagement/slab_meta.cpp ****             }
 341              		.loc 1 94 17 discriminator 2
 342 0234 9B840400 		sext.w	s1,s1
 343              	.LVL39:
 344 0238 B3079900 		add	a5,s2,s1
 345 023c 13060000 		li	a2,0
 346 0240 9305A000 		li	a1,10
 347 0244 03C58700 		lbu	a0,8(a5)
 348 0248 97000000 		call	_Z9kprintIntmib
 348      E7800000 
 349              	.LVL40:
  94:src/kernel/mmanagement/slab_meta.cpp ****             }
 350              		.loc 1 94 17 discriminator 2
 351 0250 17050000 		lla	a0,.LC5
 351      13050500 
 352 0258 97000000 		call	_Z12kprintStringPKc
 352      E7800000 
 353              	.LVL41:
  94:src/kernel/mmanagement/slab_meta.cpp ****             }
 354              		.loc 1 94 17 discriminator 2
 355 0260 13060000 		li	a2,0
GAS LISTING /tmp/cciKrY8b.s 			page 10


 356 0264 93050001 		li	a1,16
 357 0268 13051000 		li	a0,1
 358 026c 97000000 		call	_Z9kprintIntmib
 358      E7800000 
 359              	.LVL42:
  94:src/kernel/mmanagement/slab_meta.cpp ****             }
 360              		.loc 1 94 17 discriminator 2
 361 0274 17050000 		lla	a0,.LC2
 361      13050500 
 362 027c 97000000 		call	_Z12kprintStringPKc
 362      E7800000 
 363              	.LVL43:
  93:src/kernel/mmanagement/slab_meta.cpp ****                 KPRINTARR(FreeSlot, round_buffer[t], 1);
 364              		.loc 1 93 54 is_stmt 0 discriminator 2
 365 0284 9B841400 		addiw	s1,s1,1
  93:src/kernel/mmanagement/slab_meta.cpp ****                 KPRINTARR(FreeSlot, round_buffer[t], 1);
 366              		.loc 1 93 59 discriminator 2
 367 0288 8347A908 		lbu	a5,138(s2)
  93:src/kernel/mmanagement/slab_meta.cpp ****                 KPRINTARR(FreeSlot, round_buffer[t], 1);
 368              		.loc 1 93 58 discriminator 2
 369 028c BBE4F402 		remw	s1,s1,a5
  93:src/kernel/mmanagement/slab_meta.cpp ****                 KPRINTARR(FreeSlot, round_buffer[t], 1);
 370              		.loc 1 93 49 discriminator 2
 371 0290 93F4F40F 		andi	s1,s1,0xff
 372              	.LVL44:
  93:src/kernel/mmanagement/slab_meta.cpp ****                 KPRINTARR(FreeSlot, round_buffer[t], 1);
 373              		.loc 1 93 13 discriminator 2
 374 0294 6FF0DFF7 		j	.L19
 375              	.L24:
  86:src/kernel/mmanagement/slab_meta.cpp ****             if(cap > 1)
 376              		.loc 1 86 13 is_stmt 1
 377 0298 17050000 		lla	a0,.LC4
 377      13050500 
 378 02a0 97000000 		call	_Z12kprintStringPKc
 378      E7800000 
 379              	.LVL45:
  86:src/kernel/mmanagement/slab_meta.cpp ****             if(cap > 1)
 380              		.loc 1 86 13
 381 02a8 83478908 		lbu	a5,136(s2)
 382 02ac B307F900 		add	a5,s2,a5
 383 02b0 13060000 		li	a2,0
 384 02b4 9305A000 		li	a1,10
 385 02b8 03C58700 		lbu	a0,8(a5)
 386 02bc 97000000 		call	_Z9kprintIntmib
 386      E7800000 
 387              	.LVL46:
  86:src/kernel/mmanagement/slab_meta.cpp ****             if(cap > 1)
 388              		.loc 1 86 13
 389 02c4 17050000 		lla	a0,.LC5
 389      13050500 
 390 02cc 97000000 		call	_Z12kprintStringPKc
 390      E7800000 
 391              	.LVL47:
  86:src/kernel/mmanagement/slab_meta.cpp ****             if(cap > 1)
 392              		.loc 1 86 13
 393 02d4 13060000 		li	a2,0
 394 02d8 93050001 		li	a1,16
GAS LISTING /tmp/cciKrY8b.s 			page 11


 395 02dc 13051000 		li	a0,1
 396 02e0 97000000 		call	_Z9kprintIntmib
 396      E7800000 
 397              	.LVL48:
  86:src/kernel/mmanagement/slab_meta.cpp ****             if(cap > 1)
 398              		.loc 1 86 13
 399 02e8 17050000 		lla	a0,.LC2
 399      13050500 
 400 02f0 97000000 		call	_Z12kprintStringPKc
 400      E7800000 
 401              	.LVL49:
  87:src/kernel/mmanagement/slab_meta.cpp ****                 t++;
 402              		.loc 1 87 13
  87:src/kernel/mmanagement/slab_meta.cpp ****                 t++;
 403              		.loc 1 87 16 is_stmt 0
 404 02f8 0347A908 		lbu	a4,138(s2)
  87:src/kernel/mmanagement/slab_meta.cpp ****                 t++;
 405              		.loc 1 87 13
 406 02fc 93071000 		li	a5,1
 407 0300 E3F2E7F0 		bleu	a4,a5,.L17
  88:src/kernel/mmanagement/slab_meta.cpp ****         }
 408              		.loc 1 88 17 is_stmt 1
  88:src/kernel/mmanagement/slab_meta.cpp ****         }
 409              		.loc 1 88 18 is_stmt 0
 410 0304 9B841400 		addiw	s1,s1,1
 411              	.LVL50:
 412 0308 93F4F40F 		andi	s1,s1,0xff
 413              	.LVL51:
 414 030c 6FF09FEF 		j	.L17
 415              	.L18:
  96:src/kernel/mmanagement/slab_meta.cpp ****     }
 416              		.loc 1 96 9 is_stmt 1
  96:src/kernel/mmanagement/slab_meta.cpp ****     }
 417              		.loc 1 96 21 is_stmt 0
 418 0310 17050000 		lla	a0,.LC2
 418      13050500 
 419 0318 97000000 		call	_Z12kprintStringPKc
 419      E7800000 
 420              	.LVL52:
 421              	.L16:
  99:src/kernel/mmanagement/slab_meta.cpp ****         for(uint i = 0; i < cap; i++){
 422              		.loc 1 99 5 is_stmt 1
 423              	.LBB10:
 424 0320 93F92900 		andi	s3,s3,2
 425 0324 63860908 		beq	s3,zero,.L15
 426              	.LBB11:
 100:src/kernel/mmanagement/slab_meta.cpp ****             if(get_bit(i)){
 427              		.loc 1 100 18 is_stmt 0
 428 0328 93040000 		li	s1,0
 429              	.LVL53:
 430 032c 6F004006 		j	.L22
 431              	.LVL54:
 432              	.L25:
 102:src/kernel/mmanagement/slab_meta.cpp ****             }
 433              		.loc 1 102 17 is_stmt 1
 434 0330 17050000 		lla	a0,.LC6
 434      13050500 
GAS LISTING /tmp/cciKrY8b.s 			page 12


 435 0338 97000000 		call	_Z12kprintStringPKc
 435      E7800000 
 436              	.LVL55:
 102:src/kernel/mmanagement/slab_meta.cpp ****             }
 437              		.loc 1 102 17
 438 0340 13060000 		li	a2,0
 439 0344 9305A000 		li	a1,10
 440 0348 13950402 		slli	a0,s1,32
 441 034c 13550502 		srli	a0,a0,32
 442 0350 97000000 		call	_Z9kprintIntmib
 442      E7800000 
 443              	.LVL56:
 102:src/kernel/mmanagement/slab_meta.cpp ****             }
 444              		.loc 1 102 17
 445 0358 17050000 		lla	a0,.LC5
 445      13050500 
 446 0360 97000000 		call	_Z12kprintStringPKc
 446      E7800000 
 447              	.LVL57:
 102:src/kernel/mmanagement/slab_meta.cpp ****             }
 448              		.loc 1 102 17
 449 0368 13060000 		li	a2,0
 450 036c 93050001 		li	a1,16
 451 0370 13051000 		li	a0,1
 452 0374 97000000 		call	_Z9kprintIntmib
 452      E7800000 
 453              	.LVL58:
 102:src/kernel/mmanagement/slab_meta.cpp ****             }
 454              		.loc 1 102 17
 455 037c 17050000 		lla	a0,.LC2
 455      13050500 
 456 0384 97000000 		call	_Z12kprintStringPKc
 456      E7800000 
 457              	.LVL59:
 458              	.L21:
 100:src/kernel/mmanagement/slab_meta.cpp ****             if(get_bit(i)){
 459              		.loc 1 100 9 is_stmt 0 discriminator 2
 460 038c 9B841400 		addiw	s1,s1,1
 461              	.LVL60:
 462              	.L22:
 100:src/kernel/mmanagement/slab_meta.cpp ****             if(get_bit(i)){
 463              		.loc 1 100 29 discriminator 1
 464 0390 8347A908 		lbu	a5,138(s2)
 100:src/kernel/mmanagement/slab_meta.cpp ****             if(get_bit(i)){
 465              		.loc 1 100 27 discriminator 1
 466 0394 63FEF400 		bleu	a5,s1,.L15
 101:src/kernel/mmanagement/slab_meta.cpp ****                 KPRINTARR(UsedSlot, i, 1);
 467              		.loc 1 101 13 is_stmt 1
 101:src/kernel/mmanagement/slab_meta.cpp ****                 KPRINTARR(UsedSlot, i, 1);
 468              		.loc 1 101 23 is_stmt 0
 469 0398 93F5F40F 		andi	a1,s1,0xff
 470 039c 13050900 		mv	a0,s2
 471 03a0 97000000 		call	_ZN4Slab7get_bitEh
 471      E7800000 
 472              	.LVL61:
 101:src/kernel/mmanagement/slab_meta.cpp ****                 KPRINTARR(UsedSlot, i, 1);
 473              		.loc 1 101 13
GAS LISTING /tmp/cciKrY8b.s 			page 13


 474 03a8 E30205FE 		beq	a0,zero,.L21
 475 03ac 6FF05FF8 		j	.L25
 476              	.LVL62:
 477              	.L15:
 478              	.LBE11:
 479              	.LBE10:
 109:src/kernel/mmanagement/slab_meta.cpp **** 
 480              		.loc 1 109 1
 481 03b0 83308102 		ld	ra,40(sp)
 482              		.cfi_restore 1
 483 03b4 03340102 		ld	s0,32(sp)
 484              		.cfi_restore 8
 485              		.cfi_def_cfa 2, 48
 486 03b8 83348101 		ld	s1,24(sp)
 487              		.cfi_restore 9
 488 03bc 03390101 		ld	s2,16(sp)
 489              		.cfi_restore 18
 490              	.LVL63:
 491 03c0 83398100 		ld	s3,8(sp)
 492              		.cfi_restore 19
 493 03c4 13010103 		addi	sp,sp,48
 494              		.cfi_def_cfa_offset 0
 495 03c8 67800000 		jr	ra
 496              		.cfi_endproc
 497              	.LFE119:
 499              		.align	2
 500              		.globl	_ZN4Slab7set_bitEh
 502              	_ZN4Slab7set_bitEh:
 503              	.LFB121:
 117:src/kernel/mmanagement/slab_meta.cpp **** 
 118:src/kernel/mmanagement/slab_meta.cpp **** 
 119:src/kernel/mmanagement/slab_meta.cpp **** 
 120:src/kernel/mmanagement/slab_meta.cpp **** 
 121:src/kernel/mmanagement/slab_meta.cpp **** void Slab::set_bit(uchar index){
 504              		.loc 1 121 32 is_stmt 1
 505              		.cfi_startproc
 506              	.LVL64:
 507 03cc 130101FF 		addi	sp,sp,-16
 508              		.cfi_def_cfa_offset 16
 509 03d0 23348100 		sd	s0,8(sp)
 510              		.cfi_offset 8, -8
 511 03d4 13040101 		addi	s0,sp,16
 512              		.cfi_def_cfa 8, 0
 122:src/kernel/mmanagement/slab_meta.cpp ****     map[index >> 3] |= (1 << (index & 7));
 513              		.loc 1 122 5
 514              		.loc 1 122 21 is_stmt 0
 515 03d8 93D73500 		srli	a5,a1,3
 516              		.loc 1 122 37
 517 03dc 13F77500 		andi	a4,a1,7
 518              		.loc 1 122 27
 519 03e0 93051000 		li	a1,1
 520              	.LVL65:
 521 03e4 BB95E500 		sllw	a1,a1,a4
 522              		.loc 1 122 21
 523 03e8 3305F500 		add	a0,a0,a5
 524              	.LVL66:
 525 03ec 8347B508 		lbu	a5,139(a0)
GAS LISTING /tmp/cciKrY8b.s 			page 14


 526 03f0 B3E5F500 		or	a1,a1,a5
 527 03f4 A305B508 		sb	a1,139(a0)
 123:src/kernel/mmanagement/slab_meta.cpp **** }
 528              		.loc 1 123 1
 529 03f8 03348100 		ld	s0,8(sp)
 530              		.cfi_restore 8
 531              		.cfi_def_cfa 2, 16
 532 03fc 13010101 		addi	sp,sp,16
 533              		.cfi_def_cfa_offset 0
 534 0400 67800000 		jr	ra
 535              		.cfi_endproc
 536              	.LFE121:
 538              		.align	2
 539              		.globl	_ZN4Slab7get_objEv
 541              	_ZN4Slab7get_objEv:
 542              	.LFB116:
  20:src/kernel/mmanagement/slab_meta.cpp ****     if(full()) return nullptr;
 543              		.loc 1 20 22 is_stmt 1
 544              		.cfi_startproc
 545              	.LVL67:
 546 0404 130101FE 		addi	sp,sp,-32
 547              		.cfi_def_cfa_offset 32
 548 0408 233C1100 		sd	ra,24(sp)
 549 040c 23388100 		sd	s0,16(sp)
 550 0410 23349100 		sd	s1,8(sp)
 551 0414 23302101 		sd	s2,0(sp)
 552              		.cfi_offset 1, -8
 553              		.cfi_offset 8, -16
 554              		.cfi_offset 9, -24
 555              		.cfi_offset 18, -32
 556 0418 13040102 		addi	s0,sp,32
 557              		.cfi_def_cfa 8, 0
  21:src/kernel/mmanagement/slab_meta.cpp ****     
 558              		.loc 1 21 5
 559              	.LVL68:
 560              	.LBB12:
 561              	.LBB13:
 562              		.file 2 "src/kernel/mmanagement/../../../h/../h/slab_allocator.h"
   1:src/kernel/mmanagement/../../../h/../h/slab_allocator.h **** #ifndef SLAB_ALLOCATOR_H
   2:src/kernel/mmanagement/../../../h/../h/slab_allocator.h **** #define SLAB_ALLOCATOR_H
   3:src/kernel/mmanagement/../../../h/../h/slab_allocator.h **** #include"../h/object_cache.h"
   4:src/kernel/mmanagement/../../../h/../h/slab_allocator.h **** #include"../lib/hw.h"
   5:src/kernel/mmanagement/../../../h/../h/slab_allocator.h **** #include "list.h"
   6:src/kernel/mmanagement/../../../h/../h/slab_allocator.h **** #include "noalloc_allocator.hpp"
   7:src/kernel/mmanagement/../../../h/../h/slab_allocator.h **** #include "kernel_funs.h"
   8:src/kernel/mmanagement/../../../h/../h/slab_allocator.h **** 
   9:src/kernel/mmanagement/../../../h/../h/slab_allocator.h **** #define __SLAB_ALLOCATION__(typename, ctor, dtor) \
  10:src/kernel/mmanagement/../../../h/../h/slab_allocator.h ****     void* operator new(size_t sz){ \
  11:src/kernel/mmanagement/../../../h/../h/slab_allocator.h ****         if(!cache){ \
  12:src/kernel/mmanagement/../../../h/../h/slab_allocator.h ****             cache = new ObjectCache( #typename "_cache", sz, ctor, dtor); \
  13:src/kernel/mmanagement/../../../h/../h/slab_allocator.h ****         } \
  14:src/kernel/mmanagement/../../../h/../h/slab_allocator.h ****         return cache->alloc_obj(); \
  15:src/kernel/mmanagement/../../../h/../h/slab_allocator.h ****     } \
  16:src/kernel/mmanagement/../../../h/../h/slab_allocator.h ****     void* operator new[](size_t sz){ \
  17:src/kernel/mmanagement/../../../h/../h/slab_allocator.h ****         return SlabAllocator::getInstance().kmalloc(sz);\
  18:src/kernel/mmanagement/../../../h/../h/slab_allocator.h ****     }  \
  19:src/kernel/mmanagement/../../../h/../h/slab_allocator.h ****     void operator delete(void* ptr){ \
GAS LISTING /tmp/cciKrY8b.s 			page 15


  20:src/kernel/mmanagement/../../../h/../h/slab_allocator.h ****         cache->free_obj(ptr); \
  21:src/kernel/mmanagement/../../../h/../h/slab_allocator.h ****     }  \
  22:src/kernel/mmanagement/../../../h/../h/slab_allocator.h ****     void operator delete[](void* ptr){ \
  23:src/kernel/mmanagement/../../../h/../h/slab_allocator.h ****         SlabAllocator::getInstance().kfree(ptr); \
  24:src/kernel/mmanagement/../../../h/../h/slab_allocator.h ****     }\
  25:src/kernel/mmanagement/../../../h/../h/slab_allocator.h **** 
  26:src/kernel/mmanagement/../../../h/../h/slab_allocator.h **** 
  27:src/kernel/mmanagement/../../../h/../h/slab_allocator.h **** typedef class SlabAllocator{
  28:src/kernel/mmanagement/../../../h/../h/slab_allocator.h ****     typedef ObjectCache::SlabMetaType SMT;
  29:src/kernel/mmanagement/../../../h/../h/slab_allocator.h ****     friend ObjectCache;
  30:src/kernel/mmanagement/../../../h/../h/slab_allocator.h ****     friend Slab;
  31:src/kernel/mmanagement/../../../h/../h/slab_allocator.h ****     
  32:src/kernel/mmanagement/../../../h/../h/slab_allocator.h ****     static const char* buff_cache_names[13];
  33:src/kernel/mmanagement/../../../h/../h/slab_allocator.h ****     static SlabAllocator* allocator;
  34:src/kernel/mmanagement/../../../h/../h/slab_allocator.h **** 
  35:src/kernel/mmanagement/../../../h/../h/slab_allocator.h ****     static const int MIN_BUFFER_ORDER = 5,
  36:src/kernel/mmanagement/../../../h/../h/slab_allocator.h ****         MAX_BUFFER_ORDER = 17;
  37:src/kernel/mmanagement/../../../h/../h/slab_allocator.h ****     ObjectCache objcache_cache;
  38:src/kernel/mmanagement/../../../h/../h/slab_allocator.h ****     ObjectCache slab_cache;
  39:src/kernel/mmanagement/../../../h/../h/slab_allocator.h ****     ObjectCache smb_caches[13];
  40:src/kernel/mmanagement/../../../h/../h/slab_allocator.h ****     list_t* cache_head;
  41:src/kernel/mmanagement/../../../h/../h/slab_allocator.h **** 
  42:src/kernel/mmanagement/../../../h/../h/slab_allocator.h ****     __NOALLOC_OPERATORS__
  43:src/kernel/mmanagement/../../../h/../h/slab_allocator.h **** 
  44:src/kernel/mmanagement/../../../h/../h/slab_allocator.h ****     SlabAllocator();
  45:src/kernel/mmanagement/../../../h/../h/slab_allocator.h ****     bool operator=(SlabAllocator&) = delete;
  46:src/kernel/mmanagement/../../../h/../h/slab_allocator.h ****     SlabAllocator(const SlabAllocator&) = delete;
  47:src/kernel/mmanagement/../../../h/../h/slab_allocator.h ****     
  48:src/kernel/mmanagement/../../../h/../h/slab_allocator.h **** public:
  49:src/kernel/mmanagement/../../../h/../h/slab_allocator.h ****     ObjectCache* create_cache(const char* name, size_t objsize,
  50:src/kernel/mmanagement/../../../h/../h/slab_allocator.h ****         void (*ctor)(void*), void (*dtor)(void*) );
  51:src/kernel/mmanagement/../../../h/../h/slab_allocator.h ****     int cache_destroy(ObjectCache*);
  52:src/kernel/mmanagement/../../../h/../h/slab_allocator.h **** 
  53:src/kernel/mmanagement/../../../h/../h/slab_allocator.h ****     static SlabAllocator& getInstance();
  54:src/kernel/mmanagement/../../../h/../h/slab_allocator.h **** 
  55:src/kernel/mmanagement/../../../h/../h/slab_allocator.h ****     void print_state(char flag);
  56:src/kernel/mmanagement/../../../h/../h/slab_allocator.h **** 
  57:src/kernel/mmanagement/../../../h/../h/slab_allocator.h ****     void* kmalloc(size_t);
  58:src/kernel/mmanagement/../../../h/../h/slab_allocator.h ****     int kfree(void*);
  59:src/kernel/mmanagement/../../../h/../h/slab_allocator.h **** 
  60:src/kernel/mmanagement/../../../h/../h/slab_allocator.h **** } SlabAl;
  61:src/kernel/mmanagement/../../../h/../h/slab_allocator.h **** 
  62:src/kernel/mmanagement/../../../h/../h/slab_allocator.h **** class Slab{
  63:src/kernel/mmanagement/../../../h/../h/slab_allocator.h ****     friend ObjectCache;
  64:src/kernel/mmanagement/../../../h/../h/slab_allocator.h ****     friend SlabAllocator;
  65:src/kernel/mmanagement/../../../h/../h/slab_allocator.h ****     
  66:src/kernel/mmanagement/../../../h/../h/slab_allocator.h ****     static const uchar RB_SIZE = 128;
  67:src/kernel/mmanagement/../../../h/../h/slab_allocator.h ****     ObjectCache* parent;
  68:src/kernel/mmanagement/../../../h/../h/slab_allocator.h ****     uchar round_buffer[RB_SIZE], front, rear, cap; //wich positions are free
  69:src/kernel/mmanagement/../../../h/../h/slab_allocator.h ****     uchar map[RB_SIZE >> 3]; //used bit map
  70:src/kernel/mmanagement/../../../h/../h/slab_allocator.h ****     char* addr_start;
  71:src/kernel/mmanagement/../../../h/../h/slab_allocator.h ****     list_t node;
  72:src/kernel/mmanagement/../../../h/../h/slab_allocator.h **** 
  73:src/kernel/mmanagement/../../../h/../h/slab_allocator.h ****     Slab(uchar cap, void* addr, ObjectCache*);
  74:src/kernel/mmanagement/../../../h/../h/slab_allocator.h ****     void set_bit(uchar index);
  75:src/kernel/mmanagement/../../../h/../h/slab_allocator.h ****     void clear_bit(uchar index);
  76:src/kernel/mmanagement/../../../h/../h/slab_allocator.h ****     bool get_bit(uchar index);
GAS LISTING /tmp/cciKrY8b.s 			page 16


  77:src/kernel/mmanagement/../../../h/../h/slab_allocator.h **** public:
  78:src/kernel/mmanagement/../../../h/../h/slab_allocator.h ****     enum pb_mask: char{
  79:src/kernel/mmanagement/../../../h/../h/slab_allocator.h ****         CLEAR = 0,
  80:src/kernel/mmanagement/../../../h/../h/slab_allocator.h ****         FREE = 1,
  81:src/kernel/mmanagement/../../../h/../h/slab_allocator.h ****         ALLOC = 2,
  82:src/kernel/mmanagement/../../../h/../h/slab_allocator.h ****     };
  83:src/kernel/mmanagement/../../../h/../h/slab_allocator.h **** 
  84:src/kernel/mmanagement/../../../h/../h/slab_allocator.h ****     Slab() = default;
  85:src/kernel/mmanagement/../../../h/../h/slab_allocator.h ****     Slab& operator=(const Slab&) = default;
  86:src/kernel/mmanagement/../../../h/../h/slab_allocator.h ****     
  87:src/kernel/mmanagement/../../../h/../h/slab_allocator.h ****     void* get_obj();
  88:src/kernel/mmanagement/../../../h/../h/slab_allocator.h ****     int put_obj(void*);
  89:src/kernel/mmanagement/../../../h/../h/slab_allocator.h ****     bool full(){ return front == RB_SIZE; }
 563              		.loc 2 89 18
 564              		.loc 2 89 25 is_stmt 0
 565 041c 83478508 		lbu	a5,136(a0)
 566              	.LVL69:
 567              	.LBE13:
 568              	.LBE12:
  21:src/kernel/mmanagement/slab_meta.cpp ****     
 569              		.loc 1 21 5
 570 0420 13070008 		li	a4,128
 571 0424 638EE706 		beq	a5,a4,.L31
 572 0428 93040500 		mv	s1,a0
  23:src/kernel/mmanagement/slab_meta.cpp ****         (void*) (addr_start + round_buffer[front] * parent->objsize);
 573              		.loc 1 23 5 is_stmt 1
  24:src/kernel/mmanagement/slab_meta.cpp ****     
 574              		.loc 1 24 18 is_stmt 0
 575 042c 0339050A 		ld	s2,160(a0)
  24:src/kernel/mmanagement/slab_meta.cpp ****     
 576              		.loc 1 24 49
 577 0430 B307F500 		add	a5,a0,a5
 578 0434 83C58700 		lbu	a1,8(a5)
  24:src/kernel/mmanagement/slab_meta.cpp ****     
 579              		.loc 1 24 53
 580 0438 83370500 		ld	a5,0(a0)
  24:src/kernel/mmanagement/slab_meta.cpp ****     
 581              		.loc 1 24 61
 582 043c 83B70701 		ld	a5,16(a5)
  24:src/kernel/mmanagement/slab_meta.cpp ****     
 583              		.loc 1 24 51
 584 0440 B387F502 		mul	a5,a1,a5
  23:src/kernel/mmanagement/slab_meta.cpp ****         (void*) (addr_start + round_buffer[front] * parent->objsize);
 585              		.loc 1 23 11
 586 0444 3309F900 		add	s2,s2,a5
 587              	.LVL70:
  26:src/kernel/mmanagement/slab_meta.cpp **** 
 588              		.loc 1 26 5 is_stmt 1
  26:src/kernel/mmanagement/slab_meta.cpp **** 
 589              		.loc 1 26 12 is_stmt 0
 590 0448 97000000 		call	_ZN4Slab7set_bitEh
 590      E7800000 
 591              	.LVL71:
  28:src/kernel/mmanagement/slab_meta.cpp ****     if(front >= cap) front = 0;
 592              		.loc 1 28 5 is_stmt 1
  28:src/kernel/mmanagement/slab_meta.cpp ****     if(front >= cap) front = 0;
 593              		.loc 1 28 13 is_stmt 0
GAS LISTING /tmp/cciKrY8b.s 			page 17


 594 0450 83C78408 		lbu	a5,136(s1)
  28:src/kernel/mmanagement/slab_meta.cpp ****     if(front >= cap) front = 0;
 595              		.loc 1 28 18
 596 0454 9B871700 		addiw	a5,a5,1
 597 0458 93F7F70F 		andi	a5,a5,0xff
  28:src/kernel/mmanagement/slab_meta.cpp ****     if(front >= cap) front = 0;
 598              		.loc 1 28 11
 599 045c 2384F408 		sb	a5,136(s1)
  29:src/kernel/mmanagement/slab_meta.cpp ****     if(front == rear) front = RB_SIZE;
 600              		.loc 1 29 5 is_stmt 1
  29:src/kernel/mmanagement/slab_meta.cpp ****     if(front == rear) front = RB_SIZE;
 601              		.loc 1 29 17 is_stmt 0
 602 0460 03C7A408 		lbu	a4,138(s1)
  29:src/kernel/mmanagement/slab_meta.cpp ****     if(front == rear) front = RB_SIZE;
 603              		.loc 1 29 5
 604 0464 63E4E700 		bltu	a5,a4,.L30
  29:src/kernel/mmanagement/slab_meta.cpp ****     if(front == rear) front = RB_SIZE;
 605              		.loc 1 29 22 is_stmt 1 discriminator 1
  29:src/kernel/mmanagement/slab_meta.cpp ****     if(front == rear) front = RB_SIZE;
 606              		.loc 1 29 28 is_stmt 0 discriminator 1
 607 0468 23840408 		sb	zero,136(s1)
 608              	.L30:
  30:src/kernel/mmanagement/slab_meta.cpp **** 
 609              		.loc 1 30 5 is_stmt 1
  30:src/kernel/mmanagement/slab_meta.cpp **** 
 610              		.loc 1 30 8 is_stmt 0
 611 046c 03C78408 		lbu	a4,136(s1)
  30:src/kernel/mmanagement/slab_meta.cpp **** 
 612              		.loc 1 30 17
 613 0470 83C79408 		lbu	a5,137(s1)
  30:src/kernel/mmanagement/slab_meta.cpp **** 
 614              		.loc 1 30 5
 615 0474 6300F702 		beq	a4,a5,.L33
 616              	.LVL72:
 617              	.L28:
  33:src/kernel/mmanagement/slab_meta.cpp **** 
 618              		.loc 1 33 1
 619 0478 13050900 		mv	a0,s2
 620 047c 83308101 		ld	ra,24(sp)
 621              		.cfi_remember_state
 622              		.cfi_restore 1
 623 0480 03340101 		ld	s0,16(sp)
 624              		.cfi_restore 8
 625              		.cfi_def_cfa 2, 32
 626 0484 83348100 		ld	s1,8(sp)
 627              		.cfi_restore 9
 628 0488 03390100 		ld	s2,0(sp)
 629              		.cfi_restore 18
 630 048c 13010102 		addi	sp,sp,32
 631              		.cfi_def_cfa_offset 0
 632 0490 67800000 		jr	ra
 633              	.LVL73:
 634              	.L33:
 635              		.cfi_restore_state
  30:src/kernel/mmanagement/slab_meta.cpp **** 
 636              		.loc 1 30 23 is_stmt 1 discriminator 1
  30:src/kernel/mmanagement/slab_meta.cpp **** 
GAS LISTING /tmp/cciKrY8b.s 			page 18


 637              		.loc 1 30 29 is_stmt 0 discriminator 1
 638 0494 930700F8 		li	a5,-128
 639 0498 2384F408 		sb	a5,136(s1)
 640 049c 6FF0DFFD 		j	.L28
 641              	.LVL74:
 642              	.L31:
  21:src/kernel/mmanagement/slab_meta.cpp ****     
 643              		.loc 1 21 23
 644 04a0 13090000 		li	s2,0
 645 04a4 6FF05FFD 		j	.L28
 646              		.cfi_endproc
 647              	.LFE116:
 649              		.align	2
 650              		.globl	_ZN4Slab9clear_bitEh
 652              	_ZN4Slab9clear_bitEh:
 653              	.LFB122:
 124:src/kernel/mmanagement/slab_meta.cpp **** 
 125:src/kernel/mmanagement/slab_meta.cpp **** 
 126:src/kernel/mmanagement/slab_meta.cpp **** 
 127:src/kernel/mmanagement/slab_meta.cpp **** 
 128:src/kernel/mmanagement/slab_meta.cpp **** void Slab::clear_bit(uchar index){
 654              		.loc 1 128 34 is_stmt 1
 655              		.cfi_startproc
 656              	.LVL75:
 657 04a8 130101FF 		addi	sp,sp,-16
 658              		.cfi_def_cfa_offset 16
 659 04ac 23348100 		sd	s0,8(sp)
 660              		.cfi_offset 8, -8
 661 04b0 13040101 		addi	s0,sp,16
 662              		.cfi_def_cfa 8, 0
 129:src/kernel/mmanagement/slab_meta.cpp ****     map[index >> 3] &= ~(1 << (index & 7));
 663              		.loc 1 129 5
 664              		.loc 1 129 21 is_stmt 0
 665 04b4 93D73500 		srli	a5,a1,3
 666              		.loc 1 129 38
 667 04b8 13F77500 		andi	a4,a1,7
 668              		.loc 1 129 28
 669 04bc 93051000 		li	a1,1
 670              	.LVL76:
 671 04c0 BB95E500 		sllw	a1,a1,a4
 672              		.loc 1 129 21
 673 04c4 3305F500 		add	a0,a0,a5
 674              	.LVL77:
 675 04c8 93C5F5FF 		not	a1,a1
 676 04cc 8347B508 		lbu	a5,139(a0)
 677 04d0 B3F5F500 		and	a1,a1,a5
 678 04d4 A305B508 		sb	a1,139(a0)
 130:src/kernel/mmanagement/slab_meta.cpp **** }
 679              		.loc 1 130 1
 680 04d8 03348100 		ld	s0,8(sp)
 681              		.cfi_restore 8
 682              		.cfi_def_cfa 2, 16
 683 04dc 13010101 		addi	sp,sp,16
 684              		.cfi_def_cfa_offset 0
 685 04e0 67800000 		jr	ra
 686              		.cfi_endproc
 687              	.LFE122:
GAS LISTING /tmp/cciKrY8b.s 			page 19


 689              		.align	2
 690              		.globl	_ZN4Slab7put_objEPv
 692              	_ZN4Slab7put_objEPv:
 693              	.LFB118:
  49:src/kernel/mmanagement/slab_meta.cpp **** 
 694              		.loc 1 49 29 is_stmt 1
 695              		.cfi_startproc
 696              	.LVL78:
  51:src/kernel/mmanagement/slab_meta.cpp ****     if((char*)ptr < addr_start) return -1;
 697              		.loc 1 51 5
 698              	.LBB14:
 699              	.LBB15:
  90:src/kernel/mmanagement/../../../h/../h/slab_allocator.h ****     bool free(){ return rear == front; }
 700              		.loc 2 90 18
 701              		.loc 2 90 25 is_stmt 0
 702 04e4 83479508 		lbu	a5,137(a0)
 703              		.loc 2 90 33
 704 04e8 03478508 		lbu	a4,136(a0)
 705              	.LVL79:
 706              	.LBE15:
 707              	.LBE14:
  51:src/kernel/mmanagement/slab_meta.cpp ****     if((char*)ptr < addr_start) return -1;
 708              		.loc 1 51 5
 709 04ec 6306F70C 		beq	a4,a5,.L40
  52:src/kernel/mmanagement/slab_meta.cpp **** 
 710              		.loc 1 52 5 is_stmt 1
  52:src/kernel/mmanagement/slab_meta.cpp **** 
 711              		.loc 1 52 21 is_stmt 0
 712 04f0 8337050A 		ld	a5,160(a0)
  52:src/kernel/mmanagement/slab_meta.cpp **** 
 713              		.loc 1 52 5
 714 04f4 63E6F50C 		bgtu	a5,a1,.L41
  49:src/kernel/mmanagement/slab_meta.cpp **** 
 715              		.loc 1 49 29
 716 04f8 130101FD 		addi	sp,sp,-48
 717              		.cfi_def_cfa_offset 48
 718 04fc 23341102 		sd	ra,40(sp)
 719 0500 23308102 		sd	s0,32(sp)
 720 0504 233C9100 		sd	s1,24(sp)
 721 0508 23382101 		sd	s2,16(sp)
 722 050c 23343101 		sd	s3,8(sp)
 723 0510 23304101 		sd	s4,0(sp)
 724              		.cfi_offset 1, -8
 725              		.cfi_offset 8, -16
 726              		.cfi_offset 9, -24
 727              		.cfi_offset 18, -32
 728              		.cfi_offset 19, -40
 729              		.cfi_offset 20, -48
 730 0514 13040103 		addi	s0,sp,48
 731              		.cfi_def_cfa 8, 0
  54:src/kernel/mmanagement/slab_meta.cpp ****     if(diff % parent->objsize
 732              		.loc 1 54 5 is_stmt 1
  54:src/kernel/mmanagement/slab_meta.cpp ****     if(diff % parent->objsize
 733              		.loc 1 54 30 is_stmt 0
 734 0518 B387F540 		sub	a5,a1,a5
 735              	.LVL80:
  55:src/kernel/mmanagement/slab_meta.cpp ****         || diff > parent->objsize*cap) return -2;
GAS LISTING /tmp/cciKrY8b.s 			page 20


 736              		.loc 1 55 5 is_stmt 1
  55:src/kernel/mmanagement/slab_meta.cpp ****         || diff > parent->objsize*cap) return -2;
 737              		.loc 1 55 15 is_stmt 0
 738 051c 033A0500 		ld	s4,0(a0)
  55:src/kernel/mmanagement/slab_meta.cpp ****         || diff > parent->objsize*cap) return -2;
 739              		.loc 1 55 23
 740 0520 03390A01 		ld	s2,16(s4)
  55:src/kernel/mmanagement/slab_meta.cpp ****         || diff > parent->objsize*cap) return -2;
 741              		.loc 1 55 13
 742 0524 33F72703 		remu	a4,a5,s2
  55:src/kernel/mmanagement/slab_meta.cpp ****         || diff > parent->objsize*cap) return -2;
 743              		.loc 1 55 5
 744 0528 6310070A 		bne	a4,zero,.L42
  56:src/kernel/mmanagement/slab_meta.cpp **** 
 745              		.loc 1 56 35
 746 052c 0347A508 		lbu	a4,138(a0)
  56:src/kernel/mmanagement/slab_meta.cpp **** 
 747              		.loc 1 56 34
 748 0530 3307E902 		mul	a4,s2,a4
  56:src/kernel/mmanagement/slab_meta.cpp **** 
 749              		.loc 1 56 9
 750 0534 636EF708 		bltu	a4,a5,.L43
 751 0538 93890500 		mv	s3,a1
 752 053c 93040500 		mv	s1,a0
  58:src/kernel/mmanagement/slab_meta.cpp ****     if(!get_bit(num)) return -5;
 753              		.loc 1 58 5 is_stmt 1
  58:src/kernel/mmanagement/slab_meta.cpp ****     if(!get_bit(num)) return -5;
 754              		.loc 1 58 12 is_stmt 0
 755 0540 B3D72703 		divu	a5,a5,s2
 756              	.LVL81:
  59:src/kernel/mmanagement/slab_meta.cpp **** 
 757              		.loc 1 59 5 is_stmt 1
  59:src/kernel/mmanagement/slab_meta.cpp **** 
 758              		.loc 1 59 16 is_stmt 0
 759 0544 13F9F70F 		andi	s2,a5,0xff
 760 0548 93050900 		mv	a1,s2
 761              	.LVL82:
 762 054c 97000000 		call	_ZN4Slab7get_bitEh
 762      E7800000 
 763              	.LVL83:
  59:src/kernel/mmanagement/slab_meta.cpp **** 
 764              		.loc 1 59 5
 765 0554 63020508 		beq	a0,zero,.L44
  61:src/kernel/mmanagement/slab_meta.cpp ****     clear_bit(num);
 766              		.loc 1 61 5 is_stmt 1
  61:src/kernel/mmanagement/slab_meta.cpp ****     clear_bit(num);
 767              		.loc 1 61 16 is_stmt 0
 768 0558 83370A05 		ld	a5,80(s4)
  61:src/kernel/mmanagement/slab_meta.cpp ****     clear_bit(num);
 769              		.loc 1 61 5
 770 055c 63860700 		beq	a5,zero,.L38
  61:src/kernel/mmanagement/slab_meta.cpp ****     clear_bit(num);
 771              		.loc 1 61 22 is_stmt 1 discriminator 1
  61:src/kernel/mmanagement/slab_meta.cpp ****     clear_bit(num);
 772              		.loc 1 61 34 is_stmt 0 discriminator 1
 773 0560 13850900 		mv	a0,s3
 774 0564 E7800700 		jalr	a5
GAS LISTING /tmp/cciKrY8b.s 			page 21


 775              	.LVL84:
 776              	.L38:
  62:src/kernel/mmanagement/slab_meta.cpp **** 
 777              		.loc 1 62 5 is_stmt 1
  62:src/kernel/mmanagement/slab_meta.cpp **** 
 778              		.loc 1 62 14 is_stmt 0
 779 0568 93050900 		mv	a1,s2
 780 056c 13850400 		mv	a0,s1
 781 0570 97000000 		call	_ZN4Slab9clear_bitEh
 781      E7800000 
 782              	.LVL85:
  64:src/kernel/mmanagement/slab_meta.cpp ****     if(front == RB_SIZE) front = rear;
 783              		.loc 1 64 5 is_stmt 1
  64:src/kernel/mmanagement/slab_meta.cpp ****     if(front == RB_SIZE) front = rear;
 784              		.loc 1 64 18 is_stmt 0
 785 0578 83C79408 		lbu	a5,137(s1)
  64:src/kernel/mmanagement/slab_meta.cpp ****     if(front == RB_SIZE) front = rear;
 786              		.loc 1 64 24
 787 057c 3387F400 		add	a4,s1,a5
 788 0580 23042701 		sb	s2,8(a4)
  65:src/kernel/mmanagement/slab_meta.cpp ****     rear = rear+1;
 789              		.loc 1 65 5 is_stmt 1
  65:src/kernel/mmanagement/slab_meta.cpp ****     rear = rear+1;
 790              		.loc 1 65 8 is_stmt 0
 791 0584 83C68408 		lbu	a3,136(s1)
  65:src/kernel/mmanagement/slab_meta.cpp ****     rear = rear+1;
 792              		.loc 1 65 5
 793 0588 13070008 		li	a4,128
 794 058c 6382E602 		beq	a3,a4,.L50
 795              	.L39:
  66:src/kernel/mmanagement/slab_meta.cpp ****     if(rear >= cap) rear = 0;
 796              		.loc 1 66 5 is_stmt 1
  66:src/kernel/mmanagement/slab_meta.cpp ****     if(rear >= cap) rear = 0;
 797              		.loc 1 66 16 is_stmt 0
 798 0590 9B871700 		addiw	a5,a5,1
 799 0594 93F7F70F 		andi	a5,a5,0xff
  66:src/kernel/mmanagement/slab_meta.cpp ****     if(rear >= cap) rear = 0;
 800              		.loc 1 66 10
 801 0598 A384F408 		sb	a5,137(s1)
  67:src/kernel/mmanagement/slab_meta.cpp ****      
 802              		.loc 1 67 5 is_stmt 1
  67:src/kernel/mmanagement/slab_meta.cpp ****      
 803              		.loc 1 67 16 is_stmt 0
 804 059c 03C7A408 		lbu	a4,138(s1)
  67:src/kernel/mmanagement/slab_meta.cpp ****      
 805              		.loc 1 67 5
 806 05a0 63E0E704 		bltu	a5,a4,.L45
  67:src/kernel/mmanagement/slab_meta.cpp ****      
 807              		.loc 1 67 21 is_stmt 1 discriminator 1
  67:src/kernel/mmanagement/slab_meta.cpp ****      
 808              		.loc 1 67 26 is_stmt 0 discriminator 1
 809 05a4 A3840408 		sb	zero,137(s1)
  70:src/kernel/mmanagement/slab_meta.cpp **** 
 810              		.loc 1 70 12 discriminator 1
 811 05a8 13050000 		li	a0,0
 812 05ac 6F008003 		j	.L37
 813              	.L50:
GAS LISTING /tmp/cciKrY8b.s 			page 22


  65:src/kernel/mmanagement/slab_meta.cpp ****     rear = rear+1;
 814              		.loc 1 65 26 is_stmt 1 discriminator 1
  65:src/kernel/mmanagement/slab_meta.cpp ****     rear = rear+1;
 815              		.loc 1 65 32 is_stmt 0 discriminator 1
 816 05b0 2384F408 		sb	a5,136(s1)
 817 05b4 6FF0DFFD 		j	.L39
 818              	.LVL86:
 819              	.L40:
 820              		.cfi_def_cfa_register 2
 821              		.cfi_restore 1
 822              		.cfi_restore 8
 823              		.cfi_restore 9
 824              		.cfi_restore 18
 825              		.cfi_restore 19
 826              		.cfi_restore 20
  51:src/kernel/mmanagement/slab_meta.cpp ****     if((char*)ptr < addr_start) return -1;
 827              		.loc 1 51 24
 828 05b8 1305C0FF 		li	a0,-4
 829              	.LVL87:
 830 05bc 67800000 		ret
 831              	.LVL88:
 832              	.L41:
  52:src/kernel/mmanagement/slab_meta.cpp **** 
 833              		.loc 1 52 41
 834 05c0 1305F0FF 		li	a0,-1
 835              	.LVL89:
  72:src/kernel/mmanagement/slab_meta.cpp **** 
 836              		.loc 1 72 1
 837 05c4 67800000 		ret
 838              	.LVL90:
 839              	.L42:
 840              		.cfi_def_cfa_register 8
 841              		.cfi_offset 1, -8
 842              		.cfi_offset 8, -16
 843              		.cfi_offset 9, -24
 844              		.cfi_offset 18, -32
 845              		.cfi_offset 19, -40
 846              		.cfi_offset 20, -48
  56:src/kernel/mmanagement/slab_meta.cpp **** 
 847              		.loc 1 56 48
 848 05c8 1305E0FF 		li	a0,-2
 849              	.LVL91:
 850 05cc 6F008001 		j	.L37
 851              	.LVL92:
 852              	.L43:
 853 05d0 1305E0FF 		li	a0,-2
 854              	.LVL93:
 855 05d4 6F000001 		j	.L37
 856              	.LVL94:
 857              	.L44:
  59:src/kernel/mmanagement/slab_meta.cpp **** 
 858              		.loc 1 59 31
 859 05d8 1305B0FF 		li	a0,-5
 860 05dc 6F008000 		j	.L37
 861              	.L45:
  70:src/kernel/mmanagement/slab_meta.cpp **** 
 862              		.loc 1 70 12
GAS LISTING /tmp/cciKrY8b.s 			page 23


 863 05e0 13050000 		li	a0,0
 864              	.LVL95:
 865              	.L37:
  72:src/kernel/mmanagement/slab_meta.cpp **** 
 866              		.loc 1 72 1
 867 05e4 83308102 		ld	ra,40(sp)
 868              		.cfi_restore 1
 869 05e8 03340102 		ld	s0,32(sp)
 870              		.cfi_restore 8
 871              		.cfi_def_cfa 2, 48
 872 05ec 83348101 		ld	s1,24(sp)
 873              		.cfi_restore 9
 874 05f0 03390101 		ld	s2,16(sp)
 875              		.cfi_restore 18
 876 05f4 83398100 		ld	s3,8(sp)
 877              		.cfi_restore 19
 878 05f8 033A0100 		ld	s4,0(sp)
 879              		.cfi_restore 20
 880 05fc 13010103 		addi	sp,sp,48
 881              		.cfi_def_cfa_offset 0
 882 0600 67800000 		jr	ra
 883              		.cfi_endproc
 884              	.LFE118:
 886              		.section	.rodata.str1.8,"aMS",@progbits,1
 887              		.align	3
 888              	.LC0:
 889 0000 536C6162 		.string	"Slab info:\n"
 889      20696E66 
 889      6F3A0A00 
 890 000c 00000000 		.zero	4
 891              	.LC1:
 892 0010 536C6162 		.string	"Slab Meta Address: "
 892      204D6574 
 892      61204164 
 892      64726573 
 892      733A2000 
 893 0024 00000000 		.zero	4
 894              	.LC2:
 895 0028 0A00     		.string	"\n"
 896 002a 00000000 		.zero	6
 896      0000
 897              	.LC3:
 898 0030 536C6162 		.string	"Slab Address: "
 898      20416464 
 898      72657373 
 898      3A2000
 899 003f 00       		.zero	1
 900              	.LC4:
 901 0040 46726565 		.string	"FreeSlot["
 901      536C6F74 
 901      5B00
 902 004a 00000000 		.zero	6
 902      0000
 903              	.LC5:
 904 0050 5D3A2000 		.string	"]: "
 905 0054 00000000 		.zero	4
 906              	.LC6:
GAS LISTING /tmp/cciKrY8b.s 			page 24


 907 0058 55736564 		.string	"UsedSlot["
 907      536C6F74 
 907      5B00
 908              		.text
 909              	.Letext0:
 910              		.file 3 "src/kernel/mmanagement/../../../h/../h/../lib/hw.h"
 911              		.file 4 "src/kernel/mmanagement/../../../h/../h/../h/../h/list.h"
 912              		.file 5 "src/kernel/mmanagement/../../../h/../h/../h/object_cache.h"
 913              		.file 6 "src/kernel/mmanagement/../../../h/../h/slab.h"
 914              		.file 7 "src/kernel/mmanagement/../../../h/kernel_lib.h"
 915              		.file 8 "src/kernel/mmanagement/../../../h/../h/kernel_funs.h"
GAS LISTING /tmp/cciKrY8b.s 			page 25

