GAS LISTING /tmp/ccf9HIjp.s 			page 1


   1              		.file	"slab_allocator.cpp"
   2              		.option nopic
   3              		.option norelax
   4              		.attribute arch, "rv64i2p0_m2p0_a2p0"
   5              		.attribute unaligned_access, 0
   6              		.attribute stack_align, 16
   7              		.text
   8              	.Ltext0:
   9              		.align	2
  10              		.globl	_ZN13SlabAllocatorC2Ev
  12              	_ZN13SlabAllocatorC2Ev:
  13              	.LFB117:
  14              		.file 1 "src/kernel/mmanagement/slab_allocator.cpp"
   1:src/kernel/mmanagement/slab_allocator.cpp **** #include "../../../h/kernel_lib.h"
   2:src/kernel/mmanagement/slab_allocator.cpp **** 
   3:src/kernel/mmanagement/slab_allocator.cpp **** 
   4:src/kernel/mmanagement/slab_allocator.cpp **** 
   5:src/kernel/mmanagement/slab_allocator.cpp **** SlabAllocator* SlabAllocator::allocator;
   6:src/kernel/mmanagement/slab_allocator.cpp **** const char* SlabAllocator::buff_cache_names[13] = 
   7:src/kernel/mmanagement/slab_allocator.cpp ****         { "smb_cache_5", "smb_cache_6", "smb_cache_7" 
   8:src/kernel/mmanagement/slab_allocator.cpp ****         , "smb_cache_8", "smb_cache_9", "smb_cache_10"
   9:src/kernel/mmanagement/slab_allocator.cpp ****         , "smb_cache_11", "smb_cache_12", "smb_cache_13"
  10:src/kernel/mmanagement/slab_allocator.cpp ****         , "smb_cache_14", "smb_cache_15", "smb_cache_16"
  11:src/kernel/mmanagement/slab_allocator.cpp ****         , "smb_cache_17" };
  12:src/kernel/mmanagement/slab_allocator.cpp **** 
  13:src/kernel/mmanagement/slab_allocator.cpp **** 
  14:src/kernel/mmanagement/slab_allocator.cpp **** 
  15:src/kernel/mmanagement/slab_allocator.cpp **** SlabAllocator::SlabAllocator():objcache_cache("objcache_cache", sizeof(ObjectCache),nullptr,nullptr
  15              		.loc 1 15 1
  16              		.cfi_startproc
  17              		.cfi_personality 0x9b,DW.ref.__gxx_personality_v0
  18              		.cfi_lsda 0x1b,.LLSDA117
  19              	.LVL0:
  20 0000 130101F6 		addi	sp,sp,-160
  21              		.cfi_def_cfa_offset 160
  22 0004 233C1108 		sd	ra,152(sp)
  23 0008 23388108 		sd	s0,144(sp)
  24 000c 23349108 		sd	s1,136(sp)
  25 0010 23302109 		sd	s2,128(sp)
  26 0014 233C3107 		sd	s3,120(sp)
  27 0018 23384107 		sd	s4,112(sp)
  28 001c 23345107 		sd	s5,104(sp)
  29              		.cfi_offset 1, -8
  30              		.cfi_offset 8, -16
  31              		.cfi_offset 9, -24
  32              		.cfi_offset 18, -32
  33              		.cfi_offset 19, -40
  34              		.cfi_offset 20, -48
  35              		.cfi_offset 21, -56
  36 0020 1304010A 		addi	s0,sp,160
  37              		.cfi_def_cfa 8, 0
  38 0024 93090500 		mv	s3,a0
  39              	.LBB11:
  16:src/kernel/mmanagement/slab_allocator.cpp ****     slab_cache("slab_meta_cache", sizeof(Slab), nullptr, nullptr, SMT::SLAB_SLAB){
  40              		.loc 1 16 81 is_stmt 0
  41 0028 93070000 		li	a5,0
  42 002c 13070000 		li	a4,0
GAS LISTING /tmp/ccf9HIjp.s 			page 2


  43 0030 93060000 		li	a3,0
  44 0034 13068005 		li	a2,88
  45 0038 97050000 		lla	a1,.LC0
  45      93850500 
  46              	.LEHB0:
  47 0040 97000000 		call	_ZN11ObjectCacheC1EPKcmPFvPvES4_NS_12SlabMetaTypeE
  47      E7800000 
  48              	.LVL1:
  49              	.LEHE0:
  50 0048 938A8905 		addi	s5,s3,88
  51 004c 93072000 		li	a5,2
  52 0050 13070000 		li	a4,0
  53 0054 93060000 		li	a3,0
  54 0058 1306800B 		li	a2,184
  55 005c 97050000 		lla	a1,.LC1
  55      93850500 
  56 0064 13850A00 		mv	a0,s5
  57              	.LEHB1:
  58 0068 97000000 		call	_ZN11ObjectCacheC1EPKcmPFvPvES4_NS_12SlabMetaTypeE
  58      E7800000 
  59              	.LVL2:
  60              	.LEHE1:
  61              		.loc 1 16 81 discriminator 2
  62 0070 138A090B 		addi	s4,s3,176
  63 0074 13090A00 		mv	s2,s4
  64 0078 9304C000 		li	s1,12
  65 007c 6F00C000 		j	.L3
  66              	.LVL3:
  67              	.L18:
  68              		.loc 1 16 81 discriminator 6
  69 0080 13098905 		addi	s2,s2,88
  70 0084 9384F4FF 		addi	s1,s1,-1
  71              	.L3:
  72              		.loc 1 16 81 discriminator 7
  73 0088 63CE0400 		blt	s1,zero,.L13
  74              	.LVL4:
  75              	.LBB12:
  76              	.LBB13:
  77              		.file 2 "src/kernel/mmanagement/../../../h/../h/../h/object_cache.h"
   1:src/kernel/mmanagement/../../../h/../h/../h/object_cache.h **** #ifndef OBJECT_CACHE_H
   2:src/kernel/mmanagement/../../../h/../h/../h/object_cache.h **** #define OBJECT_CACHE_H
   3:src/kernel/mmanagement/../../../h/../h/../h/object_cache.h **** #include"../lib/hw.h"
   4:src/kernel/mmanagement/../../../h/../h/../h/object_cache.h **** #include"../h/list.h"
   5:src/kernel/mmanagement/../../../h/../h/../h/object_cache.h **** 
   6:src/kernel/mmanagement/../../../h/../h/../h/object_cache.h **** class SlabAllocator;
   7:src/kernel/mmanagement/../../../h/../h/../h/object_cache.h **** class Slab;
   8:src/kernel/mmanagement/../../../h/../h/../h/object_cache.h **** 
   9:src/kernel/mmanagement/../../../h/../h/../h/object_cache.h **** class ObjectCache{
  10:src/kernel/mmanagement/../../../h/../h/../h/object_cache.h **** 
  11:src/kernel/mmanagement/../../../h/../h/../h/object_cache.h **** public:
  12:src/kernel/mmanagement/../../../h/../h/../h/object_cache.h ****     enum SlabMetaType{
  13:src/kernel/mmanagement/../../../h/../h/../h/object_cache.h ****         NONE ,
  14:src/kernel/mmanagement/../../../h/../h/../h/object_cache.h ****         OFF_SLAB ,
  15:src/kernel/mmanagement/../../../h/../h/../h/object_cache.h ****         SLAB_SLAB ,
  16:src/kernel/mmanagement/../../../h/../h/../h/object_cache.h ****         ON_SLAB,
  17:src/kernel/mmanagement/../../../h/../h/../h/object_cache.h ****         BUFF_SLAB
  18:src/kernel/mmanagement/../../../h/../h/../h/object_cache.h ****     };
GAS LISTING /tmp/ccf9HIjp.s 			page 3


  19:src/kernel/mmanagement/../../../h/../h/../h/object_cache.h **** 
  20:src/kernel/mmanagement/../../../h/../h/../h/object_cache.h ****     ObjectCache() = default;
  78              		.loc 2 20 5
  79 008c 13060000 		li	a2,0
  80 0090 93050000 		li	a1,0
  81 0094 13058903 		addi	a0,s2,56
  82              	.LEHB2:
  83 0098 97000000 		call	_ZN6list_tC1EPS_S0_
  83      E7800000 
  84              	.LVL5:
  85              	.LEHE2:
  86 00a0 6FF01FFE 		j	.L18
  87              	.LVL6:
  88              	.L13:
  89              	.LBE13:
  90              	.LBE12:
  91              	.LBB14:
  17:src/kernel/mmanagement/slab_allocator.cpp **** 
  18:src/kernel/mmanagement/slab_allocator.cpp ****     for(int i = MIN_BUFFER_ORDER; i <= MAX_BUFFER_ORDER; i++)
  92              		.loc 1 18 13
  93 00a4 13095000 		li	s2,5
  94 00a8 6F008007 		j	.L2
  95              	.LVL7:
  96              	.L19:
  19:src/kernel/mmanagement/slab_allocator.cpp ****         smb_caches[i-MIN_BUFFER_ORDER] = 
  97              		.loc 1 19 40 discriminator 2
  98 00ac 93078005 		li	a5,88
  99 00b0 B387F402 		mul	a5,s1,a5
 100 00b4 B387F900 		add	a5,s3,a5
 101 00b8 033784F6 		ld	a4,-152(s0)
 102 00bc 23B8E70A 		sd	a4,176(a5)
 103 00c0 033704F7 		ld	a4,-144(s0)
 104 00c4 23BCE70A 		sd	a4,184(a5)
 105 00c8 033784F7 		ld	a4,-136(s0)
 106 00cc 23B0E70C 		sd	a4,192(a5)
 107 00d0 033704F8 		ld	a4,-128(s0)
 108 00d4 23B4E70C 		sd	a4,200(a5)
 109 00d8 033784F8 		ld	a4,-120(s0)
 110 00dc 23B8E70C 		sd	a4,208(a5)
 111 00e0 033704F9 		ld	a4,-112(s0)
 112 00e4 23BCE70C 		sd	a4,216(a5)
 113 00e8 033784F9 		ld	a4,-104(s0)
 114 00ec 23B0E70E 		sd	a4,224(a5)
 115 00f0 033704FA 		ld	a4,-96(s0)
 116 00f4 23B4E70E 		sd	a4,232(a5)
 117 00f8 033784FA 		ld	a4,-88(s0)
 118 00fc 23B8E70E 		sd	a4,240(a5)
 119 0100 033704FB 		ld	a4,-80(s0)
 120 0104 23BCE70E 		sd	a4,248(a5)
 121 0108 033784FB 		ld	a4,-72(s0)
 122 010c 23B0E710 		sd	a4,256(a5)
  20:src/kernel/mmanagement/slab_allocator.cpp ****             ObjectCache(buff_cache_names[i-MIN_BUFFER_ORDER], 1 << i
 123              		.loc 1 20 13 discriminator 2
 124 0110 130584F6 		addi	a0,s0,-152
 125 0114 97000000 		call	_ZN11ObjectCacheD1Ev
 125      E7800000 
 126              	.LVL8:
GAS LISTING /tmp/ccf9HIjp.s 			page 4


  18:src/kernel/mmanagement/slab_allocator.cpp ****         smb_caches[i-MIN_BUFFER_ORDER] = 
 127              		.loc 1 18 5 discriminator 2
 128 011c 1B091900 		addiw	s2,s2,1
 129              	.LVL9:
 130              	.L2:
  18:src/kernel/mmanagement/slab_allocator.cpp ****         smb_caches[i-MIN_BUFFER_ORDER] = 
 131              		.loc 1 18 37 discriminator 1
 132 0120 93071001 		li	a5,17
 133 0124 63C4270D 		bgt	s2,a5,.L1
  19:src/kernel/mmanagement/slab_allocator.cpp ****         smb_caches[i-MIN_BUFFER_ORDER] = 
 134              		.loc 1 19 9 is_stmt 1
 135              		.loc 1 20 43 is_stmt 0
 136 0128 9B04B9FF 		addiw	s1,s2,-5
 137              		.loc 1 20 13
 138 012c 93973400 		slli	a5,s1,3
 139 0130 97050000 		lla	a1,.LANCHOR0
 139      93850500 
 140 0138 B385F500 		add	a1,a1,a5
 141 013c 93074000 		li	a5,4
 142 0140 13070000 		li	a4,0
 143 0144 93060000 		li	a3,0
 144 0148 13061000 		li	a2,1
 145 014c 3B162601 		sllw	a2,a2,s2
 146 0150 83B50500 		ld	a1,0(a1)
 147 0154 130584F6 		addi	a0,s0,-152
 148              	.LEHB3:
 149 0158 97000000 		call	_ZN11ObjectCacheC1EPKcmPFvPvES4_NS_12SlabMetaTypeE
 149      E7800000 
 150              	.LVL10:
 151              	.LEHE3:
 152 0160 6FF0DFF4 		j	.L19
 153              	.LVL11:
 154              	.L15:
 155 0164 13090500 		mv	s2,a0
 156              	.LVL12:
 157              	.LBE14:
 158 0168 63080A02 		beq	s4,zero,.L6
  16:src/kernel/mmanagement/slab_allocator.cpp **** 
 159              		.loc 1 16 81 discriminator 1
 160 016c 9307C000 		li	a5,12
 161 0170 B3849740 		sub	s1,a5,s1
 162 0174 93078005 		li	a5,88
 163 0178 B384F402 		mul	s1,s1,a5
 164 017c B3049A00 		add	s1,s4,s1
 165              	.L7:
 166 0180 638C4401 		beq	s1,s4,.L6
 167 0184 938484FA 		addi	s1,s1,-88
  16:src/kernel/mmanagement/slab_allocator.cpp **** 
 168              		.loc 1 16 81 discriminator 5
 169 0188 13850400 		mv	a0,s1
 170 018c 97000000 		call	_ZN11ObjectCacheD1Ev
 170      E7800000 
 171              	.LVL13:
 172 0194 6FF0DFFE 		j	.L7
 173              	.L6:
 174 0198 93040900 		mv	s1,s2
 175              	.L8:
GAS LISTING /tmp/ccf9HIjp.s 			page 5


  16:src/kernel/mmanagement/slab_allocator.cpp **** 
 176              		.loc 1 16 81
 177 019c 13850A00 		mv	a0,s5
 178 01a0 97000000 		call	_ZN11ObjectCacheD1Ev
 178      E7800000 
 179              	.LVL14:
 180              	.L12:
  16:src/kernel/mmanagement/slab_allocator.cpp **** 
 181              		.loc 1 16 81 discriminator 1
 182 01a8 13850900 		mv	a0,s3
 183 01ac 97000000 		call	_ZN11ObjectCacheD1Ev
 183      E7800000 
 184              	.LVL15:
 185 01b4 13850400 		mv	a0,s1
 186              	.LEHB4:
 187 01b8 97000000 		call	_Unwind_Resume
 187      E7800000 
 188              	.LVL16:
 189              	.LEHE4:
 190              	.L16:
 191 01c0 93040500 		mv	s1,a0
 192 01c4 E30C0AFC 		beq	s4,zero,.L8
 193 01c8 13898952 		addi	s2,s3,1320
 194              	.LVL17:
 195              	.L11:
 196 01cc E30849FD 		beq	s2,s4,.L8
 197 01d0 130989FA 		addi	s2,s2,-88
  16:src/kernel/mmanagement/slab_allocator.cpp **** 
 198              		.loc 1 16 81 discriminator 11
 199 01d4 13050900 		mv	a0,s2
 200 01d8 97000000 		call	_ZN11ObjectCacheD1Ev
 200      E7800000 
 201              	.LVL18:
 202 01e0 6FF0DFFE 		j	.L11
 203              	.L14:
 204 01e4 93040500 		mv	s1,a0
 205 01e8 6FF01FFC 		j	.L12
 206              	.LVL19:
 207              	.L1:
 208              	.LBE11:
  21:src/kernel/mmanagement/slab_allocator.cpp ****                 , nullptr, nullptr, SMT::BUFF_SLAB);
  22:src/kernel/mmanagement/slab_allocator.cpp **** 
  23:src/kernel/mmanagement/slab_allocator.cpp **** }
 209              		.loc 1 23 1
 210 01ec 83308109 		ld	ra,152(sp)
 211              		.cfi_restore 1
 212 01f0 03340109 		ld	s0,144(sp)
 213              		.cfi_restore 8
 214              		.cfi_def_cfa 2, 160
 215 01f4 83348108 		ld	s1,136(sp)
 216              		.cfi_restore 9
 217 01f8 03390108 		ld	s2,128(sp)
 218              		.cfi_restore 18
 219              	.LVL20:
 220 01fc 83398107 		ld	s3,120(sp)
 221              		.cfi_restore 19
 222              	.LVL21:
GAS LISTING /tmp/ccf9HIjp.s 			page 6


 223 0200 033A0107 		ld	s4,112(sp)
 224              		.cfi_restore 20
 225              	.LVL22:
 226 0204 833A8106 		ld	s5,104(sp)
 227              		.cfi_restore 21
 228              	.LVL23:
 229 0208 1301010A 		addi	sp,sp,160
 230              		.cfi_def_cfa_offset 0
 231 020c 67800000 		jr	ra
 232              		.cfi_endproc
 233              	.LFE117:
 234              		.globl	__gxx_personality_v0
 235              		.section	.gcc_except_table,"aw",@progbits
 236              	.LLSDA117:
 237 0000 FF       		.byte	0xff
 238 0001 FF       		.byte	0xff
 239 0002 03       		.byte	0x3
 240 0003 41       		.byte	0x41
 241 0004 00000000 		.4byte	.LEHB0-.LFB117
 242 0008 00000000 		.4byte	.LEHE0-.LEHB0
 243 000c 00000000 		.4byte	0
 244 0010 00       		.byte	0
 245 0011 00000000 		.4byte	.LEHB1-.LFB117
 246 0015 00000000 		.4byte	.LEHE1-.LEHB1
 247 0019 00000000 		.4byte	.L14-.LFB117
 248 001d 00       		.byte	0
 249 001e 00000000 		.4byte	.LEHB2-.LFB117
 250 0022 00000000 		.4byte	.LEHE2-.LEHB2
 251 0026 00000000 		.4byte	.L15-.LFB117
 252 002a 00       		.byte	0
 253 002b 00000000 		.4byte	.LEHB3-.LFB117
 254 002f 00000000 		.4byte	.LEHE3-.LEHB3
 255 0033 00000000 		.4byte	.L16-.LFB117
 256 0037 00       		.byte	0
 257 0038 00000000 		.4byte	.LEHB4-.LFB117
 258 003c 00000000 		.4byte	.LEHE4-.LEHB4
 259 0040 00000000 		.4byte	0
 260 0044 00       		.byte	0
 261              		.text
 263              		.globl	_ZN13SlabAllocatorC1Ev
 264              		.set	_ZN13SlabAllocatorC1Ev,_ZN13SlabAllocatorC2Ev
 265              		.align	2
 266              		.globl	_ZN13SlabAllocator11getInstanceEv
 268              	_ZN13SlabAllocator11getInstanceEv:
 269              	.LFB119:
  24:src/kernel/mmanagement/slab_allocator.cpp **** 
  25:src/kernel/mmanagement/slab_allocator.cpp **** 
  26:src/kernel/mmanagement/slab_allocator.cpp **** 
  27:src/kernel/mmanagement/slab_allocator.cpp **** SlabAllocator& SlabAllocator::getInstance(){
 270              		.loc 1 27 44 is_stmt 1
 271              		.cfi_startproc
  28:src/kernel/mmanagement/slab_allocator.cpp ****     
  29:src/kernel/mmanagement/slab_allocator.cpp ****     if(!allocator) { allocator = new SlabAllocator; }
 272              		.loc 1 29 5
 273              		.loc 1 29 8 is_stmt 0
 274 0210 97070000 		lla	a5,_ZN13SlabAllocator9allocatorE
 274      93870700 
GAS LISTING /tmp/ccf9HIjp.s 			page 7


 275 0218 83B70700 		ld	a5,0(a5)
 276              		.loc 1 29 5
 277 021c 638A0700 		beq	a5,zero,.L27
  30:src/kernel/mmanagement/slab_allocator.cpp **** 
  31:src/kernel/mmanagement/slab_allocator.cpp ****     return *allocator;
 278              		.loc 1 31 5 is_stmt 1
  32:src/kernel/mmanagement/slab_allocator.cpp **** }
 279              		.loc 1 32 1 is_stmt 0
 280 0220 97070000 		lla	a5,_ZN13SlabAllocator9allocatorE
 280      93870700 
 281 0228 03B50700 		ld	a0,0(a5)
 282 022c 67800000 		ret
 283              	.L27:
  27:src/kernel/mmanagement/slab_allocator.cpp ****     
 284              		.loc 1 27 44
 285 0230 130101FE 		addi	sp,sp,-32
 286              		.cfi_def_cfa_offset 32
 287 0234 233C1100 		sd	ra,24(sp)
 288 0238 23388100 		sd	s0,16(sp)
 289 023c 23349100 		sd	s1,8(sp)
 290              		.cfi_offset 1, -8
 291              		.cfi_offset 8, -16
 292              		.cfi_offset 9, -24
 293 0240 13040102 		addi	s0,sp,32
 294              		.cfi_def_cfa 8, 0
  29:src/kernel/mmanagement/slab_allocator.cpp **** 
 295              		.loc 1 29 22 is_stmt 1
 296              	.LVL24:
 297              	.LBB15:
 298              	.LBB16:
 299              		.file 3 "src/kernel/mmanagement/../../../h/../h/slab_allocator.h"
   1:src/kernel/mmanagement/../../../h/../h/slab_allocator.h **** #ifndef SLAB_ALLOCATOR_H
   2:src/kernel/mmanagement/../../../h/../h/slab_allocator.h **** #define SLAB_ALLOCATOR_H
   3:src/kernel/mmanagement/../../../h/../h/slab_allocator.h **** #include"../h/object_cache.h"
   4:src/kernel/mmanagement/../../../h/../h/slab_allocator.h **** #include"../lib/hw.h"
   5:src/kernel/mmanagement/../../../h/../h/slab_allocator.h **** #include "list.h"
   6:src/kernel/mmanagement/../../../h/../h/slab_allocator.h **** #include "noalloc_allocator.hpp"
   7:src/kernel/mmanagement/../../../h/../h/slab_allocator.h **** #include "kernel_funs.h"
   8:src/kernel/mmanagement/../../../h/../h/slab_allocator.h **** 
   9:src/kernel/mmanagement/../../../h/../h/slab_allocator.h **** #define __SLAB_ALLOCATION__(typename, ctor, dtor) \
  10:src/kernel/mmanagement/../../../h/../h/slab_allocator.h ****     void* operator new(size_t sz){ \
  11:src/kernel/mmanagement/../../../h/../h/slab_allocator.h ****         if(!cache){ \
  12:src/kernel/mmanagement/../../../h/../h/slab_allocator.h ****             cache = new ObjectCache( #typename "_cache", sz, ctor, dtor); \
  13:src/kernel/mmanagement/../../../h/../h/slab_allocator.h ****         } \
  14:src/kernel/mmanagement/../../../h/../h/slab_allocator.h ****         return cache->alloc_obj(); \
  15:src/kernel/mmanagement/../../../h/../h/slab_allocator.h ****     } \
  16:src/kernel/mmanagement/../../../h/../h/slab_allocator.h ****     void* operator new[](size_t sz){ \
  17:src/kernel/mmanagement/../../../h/../h/slab_allocator.h ****         return SlabAllocator::getInstance().kmalloc(sz);\
  18:src/kernel/mmanagement/../../../h/../h/slab_allocator.h ****     }  \
  19:src/kernel/mmanagement/../../../h/../h/slab_allocator.h ****     void operator delete(void* ptr){ \
  20:src/kernel/mmanagement/../../../h/../h/slab_allocator.h ****         cache->free_obj(ptr); \
  21:src/kernel/mmanagement/../../../h/../h/slab_allocator.h ****     }  \
  22:src/kernel/mmanagement/../../../h/../h/slab_allocator.h ****     void operator delete[](void* ptr){ \
  23:src/kernel/mmanagement/../../../h/../h/slab_allocator.h ****         SlabAllocator::getInstance().kfree(ptr); \
  24:src/kernel/mmanagement/../../../h/../h/slab_allocator.h ****     }\
  25:src/kernel/mmanagement/../../../h/../h/slab_allocator.h **** 
  26:src/kernel/mmanagement/../../../h/../h/slab_allocator.h **** 
GAS LISTING /tmp/ccf9HIjp.s 			page 8


  27:src/kernel/mmanagement/../../../h/../h/slab_allocator.h **** typedef class SlabAllocator{
  28:src/kernel/mmanagement/../../../h/../h/slab_allocator.h ****     typedef ObjectCache::SlabMetaType SMT;
  29:src/kernel/mmanagement/../../../h/../h/slab_allocator.h ****     friend ObjectCache;
  30:src/kernel/mmanagement/../../../h/../h/slab_allocator.h ****     friend Slab;
  31:src/kernel/mmanagement/../../../h/../h/slab_allocator.h ****     
  32:src/kernel/mmanagement/../../../h/../h/slab_allocator.h ****     static const char* buff_cache_names[13];
  33:src/kernel/mmanagement/../../../h/../h/slab_allocator.h ****     static SlabAllocator* allocator;
  34:src/kernel/mmanagement/../../../h/../h/slab_allocator.h **** 
  35:src/kernel/mmanagement/../../../h/../h/slab_allocator.h ****     static const int MIN_BUFFER_ORDER = 5,
  36:src/kernel/mmanagement/../../../h/../h/slab_allocator.h ****         MAX_BUFFER_ORDER = 17;
  37:src/kernel/mmanagement/../../../h/../h/slab_allocator.h ****     ObjectCache objcache_cache;
  38:src/kernel/mmanagement/../../../h/../h/slab_allocator.h ****     ObjectCache slab_cache;
  39:src/kernel/mmanagement/../../../h/../h/slab_allocator.h ****     ObjectCache smb_caches[13];
  40:src/kernel/mmanagement/../../../h/../h/slab_allocator.h ****     list_t* cache_head;
  41:src/kernel/mmanagement/../../../h/../h/slab_allocator.h **** 
  42:src/kernel/mmanagement/../../../h/../h/slab_allocator.h ****     __NOALLOC_OPERATORS__
 300              		.loc 3 42 5
 301 0244 13050053 		li	a0,1328
 302 0248 97000000 		call	_ZN7NoAlloc9mem_allocEm
 302      E7800000 
 303              	.LVL25:
 304 0250 93040500 		mv	s1,a0
 305              	.LVL26:
 306              	.LBE16:
 307              	.LBE15:
  29:src/kernel/mmanagement/slab_allocator.cpp **** 
 308              		.loc 1 29 38 is_stmt 0
 309 0254 63060500 		beq	a0,zero,.L22
  29:src/kernel/mmanagement/slab_allocator.cpp **** 
 310              		.loc 1 29 38 discriminator 2
 311 0258 97000000 		call	_ZN13SlabAllocatorC1Ev
 311      E7800000 
 312              	.LVL27:
 313              	.L22:
  29:src/kernel/mmanagement/slab_allocator.cpp **** 
 314              		.loc 1 29 32 discriminator 7
 315 0260 97070000 		sd	s1,_ZN13SlabAllocator9allocatorE,a5
 315      23B09700 
  31:src/kernel/mmanagement/slab_allocator.cpp **** }
 316              		.loc 1 31 5 is_stmt 1 discriminator 7
 317              		.loc 1 32 1 is_stmt 0 discriminator 7
 318 0268 97070000 		lla	a5,_ZN13SlabAllocator9allocatorE
 318      93870700 
 319 0270 03B50700 		ld	a0,0(a5)
 320 0274 83308101 		ld	ra,24(sp)
 321              		.cfi_restore 1
 322 0278 03340101 		ld	s0,16(sp)
 323              		.cfi_restore 8
 324              		.cfi_def_cfa 2, 32
 325 027c 83348100 		ld	s1,8(sp)
 326              		.cfi_restore 9
 327 0280 13010102 		addi	sp,sp,32
 328              		.cfi_def_cfa_offset 0
 329 0284 67800000 		jr	ra
 330              		.cfi_endproc
 331              	.LFE119:
 333              		.align	2
GAS LISTING /tmp/ccf9HIjp.s 			page 9


 334              		.globl	_ZN13SlabAllocator11print_stateEc
 336              	_ZN13SlabAllocator11print_stateEc:
 337              	.LFB120:
  33:src/kernel/mmanagement/slab_allocator.cpp **** 
  34:src/kernel/mmanagement/slab_allocator.cpp **** 
  35:src/kernel/mmanagement/slab_allocator.cpp **** 
  36:src/kernel/mmanagement/slab_allocator.cpp **** void SlabAllocator::print_state(char flags){
 338              		.loc 1 36 44 is_stmt 1
 339              		.cfi_startproc
 340              	.LVL28:
 341 0288 130101FD 		addi	sp,sp,-48
 342              		.cfi_def_cfa_offset 48
 343 028c 23341102 		sd	ra,40(sp)
 344 0290 23308102 		sd	s0,32(sp)
 345 0294 233C9100 		sd	s1,24(sp)
 346 0298 23382101 		sd	s2,16(sp)
 347 029c 23343101 		sd	s3,8(sp)
 348              		.cfi_offset 1, -8
 349              		.cfi_offset 8, -16
 350              		.cfi_offset 9, -24
 351              		.cfi_offset 18, -32
 352              		.cfi_offset 19, -40
 353 02a0 13040103 		addi	s0,sp,48
 354              		.cfi_def_cfa 8, 0
 355 02a4 13090500 		mv	s2,a0
 356 02a8 93890500 		mv	s3,a1
  37:src/kernel/mmanagement/slab_allocator.cpp **** 
  38:src/kernel/mmanagement/slab_allocator.cpp ****     objcache_cache.printInfo(flags);
 357              		.loc 1 38 5
 358              		.loc 1 38 29 is_stmt 0
 359 02ac 97000000 		call	_ZN11ObjectCache9printInfoEc
 359      E7800000 
 360              	.LVL29:
  39:src/kernel/mmanagement/slab_allocator.cpp ****     slab_cache.printInfo(flags);
 361              		.loc 1 39 5 is_stmt 1
 362              		.loc 1 39 25 is_stmt 0
 363 02b4 93850900 		mv	a1,s3
 364 02b8 13058905 		addi	a0,s2,88
 365 02bc 97000000 		call	_ZN11ObjectCache9printInfoEc
 365      E7800000 
 366              	.LVL30:
  40:src/kernel/mmanagement/slab_allocator.cpp **** 
  41:src/kernel/mmanagement/slab_allocator.cpp ****     for(int i = MIN_BUFFER_ORDER; i <= MAX_BUFFER_ORDER; i++)
 367              		.loc 1 41 5 is_stmt 1
 368              	.LBB17:
 369              		.loc 1 41 13 is_stmt 0
 370 02c4 93045000 		li	s1,5
 371 02c8 6F008002 		j	.L30
 372              	.LVL31:
 373              	.L32:
  42:src/kernel/mmanagement/slab_allocator.cpp ****         smb_caches[i - MIN_BUFFER_ORDER].printInfo(flags);
 374              		.loc 1 42 9 is_stmt 1 discriminator 2
 375              		.loc 1 42 22 is_stmt 0 discriminator 2
 376 02cc 1B85B4FF 		addiw	a0,s1,-5
 377              		.loc 1 42 51 discriminator 2
 378 02d0 93078005 		li	a5,88
 379 02d4 3305F502 		mul	a0,a0,a5
GAS LISTING /tmp/ccf9HIjp.s 			page 10


 380 02d8 1305050B 		addi	a0,a0,176
 381 02dc 93850900 		mv	a1,s3
 382 02e0 3305A900 		add	a0,s2,a0
 383 02e4 97000000 		call	_ZN11ObjectCache9printInfoEc
 383      E7800000 
 384              	.LVL32:
  41:src/kernel/mmanagement/slab_allocator.cpp ****         smb_caches[i - MIN_BUFFER_ORDER].printInfo(flags);
 385              		.loc 1 41 5 discriminator 2
 386 02ec 9B841400 		addiw	s1,s1,1
 387              	.LVL33:
 388              	.L30:
  41:src/kernel/mmanagement/slab_allocator.cpp ****         smb_caches[i - MIN_BUFFER_ORDER].printInfo(flags);
 389              		.loc 1 41 37 discriminator 3
 390 02f0 93071001 		li	a5,17
 391 02f4 E3DC97FC 		ble	s1,a5,.L32
 392              	.LBE17:
  43:src/kernel/mmanagement/slab_allocator.cpp **** 
  44:src/kernel/mmanagement/slab_allocator.cpp **** }
 393              		.loc 1 44 1
 394 02f8 83308102 		ld	ra,40(sp)
 395              		.cfi_restore 1
 396 02fc 03340102 		ld	s0,32(sp)
 397              		.cfi_restore 8
 398              		.cfi_def_cfa 2, 48
 399 0300 83348101 		ld	s1,24(sp)
 400              		.cfi_restore 9
 401              	.LVL34:
 402 0304 03390101 		ld	s2,16(sp)
 403              		.cfi_restore 18
 404              	.LVL35:
 405 0308 83398100 		ld	s3,8(sp)
 406              		.cfi_restore 19
 407 030c 13010103 		addi	sp,sp,48
 408              		.cfi_def_cfa_offset 0
 409 0310 67800000 		jr	ra
 410              		.cfi_endproc
 411              	.LFE120:
 413              		.align	2
 414              		.globl	_ZN13SlabAllocator7kmallocEm
 416              	_ZN13SlabAllocator7kmallocEm:
 417              	.LFB121:
  45:src/kernel/mmanagement/slab_allocator.cpp **** 
  46:src/kernel/mmanagement/slab_allocator.cpp **** 
  47:src/kernel/mmanagement/slab_allocator.cpp **** 
  48:src/kernel/mmanagement/slab_allocator.cpp **** void* SlabAllocator::kmalloc(size_t size){
 418              		.loc 1 48 42 is_stmt 1
 419              		.cfi_startproc
 420              	.LVL36:
  49:src/kernel/mmanagement/slab_allocator.cpp ****     if(size == 0)
 421              		.loc 1 49 5
 422 0314 638A0506 		beq	a1,zero,.L36
  48:src/kernel/mmanagement/slab_allocator.cpp ****     if(size == 0)
 423              		.loc 1 48 42 is_stmt 0
 424 0318 130101FE 		addi	sp,sp,-32
 425              		.cfi_def_cfa_offset 32
 426 031c 233C1100 		sd	ra,24(sp)
 427 0320 23388100 		sd	s0,16(sp)
GAS LISTING /tmp/ccf9HIjp.s 			page 11


 428 0324 23349100 		sd	s1,8(sp)
 429              		.cfi_offset 1, -8
 430              		.cfi_offset 8, -16
 431              		.cfi_offset 9, -24
 432 0328 13040102 		addi	s0,sp,32
 433              		.cfi_def_cfa 8, 0
 434 032c 93040500 		mv	s1,a0
  50:src/kernel/mmanagement/slab_allocator.cpp ****         return nullptr;
  51:src/kernel/mmanagement/slab_allocator.cpp ****     
  52:src/kernel/mmanagement/slab_allocator.cpp ****     uchar size_order = log2(size - 1) + 1;
 435              		.loc 1 52 5 is_stmt 1
 436              		.loc 1 52 28 is_stmt 0
 437 0330 1385F5FF 		addi	a0,a1,-1
 438              	.LVL37:
 439 0334 97000000 		call	_Z4log2m
 439      E7800000 
 440              	.LVL38:
 441              		.loc 1 52 41
 442 033c 9B071500 		addiw	a5,a0,1
 443 0340 93F7F70F 		andi	a5,a5,0xff
 444              	.LVL39:
  53:src/kernel/mmanagement/slab_allocator.cpp ****     if(size_order > 17)
 445              		.loc 1 53 5 is_stmt 1
 446 0344 13071001 		li	a4,17
 447 0348 6364F704 		bgtu	a5,a4,.L37
  54:src/kernel/mmanagement/slab_allocator.cpp ****         return nullptr;
  55:src/kernel/mmanagement/slab_allocator.cpp ****     
  56:src/kernel/mmanagement/slab_allocator.cpp ****     if(size_order < 5)
 448              		.loc 1 56 5
 449 034c 13074000 		li	a4,4
 450 0350 6364F700 		bgtu	a5,a4,.L35
  57:src/kernel/mmanagement/slab_allocator.cpp ****         size_order = 5;
 451              		.loc 1 57 20 is_stmt 0
 452 0354 93075000 		li	a5,5
 453              	.LVL40:
 454              	.L35:
  58:src/kernel/mmanagement/slab_allocator.cpp **** 
  59:src/kernel/mmanagement/slab_allocator.cpp ****     return smb_caches[size_order-5].alloc_obj();
 455              		.loc 1 59 5 is_stmt 1
 456              		.loc 1 59 33 is_stmt 0
 457 0358 9B87B7FF 		addiw	a5,a5,-5
 458              	.LVL41:
 459              		.loc 1 59 46
 460 035c 13058005 		li	a0,88
 461 0360 B387A702 		mul	a5,a5,a0
 462 0364 9387070B 		addi	a5,a5,176
 463 0368 3385F400 		add	a0,s1,a5
 464 036c 97000000 		call	_ZN11ObjectCache9alloc_objEv
 464      E7800000 
 465              	.LVL42:
 466              	.L33:
  60:src/kernel/mmanagement/slab_allocator.cpp **** }
 467              		.loc 1 60 1
 468 0374 83308101 		ld	ra,24(sp)
 469              		.cfi_restore 1
 470 0378 03340101 		ld	s0,16(sp)
 471              		.cfi_restore 8
GAS LISTING /tmp/ccf9HIjp.s 			page 12


 472              		.cfi_def_cfa 2, 32
 473 037c 83348100 		ld	s1,8(sp)
 474              		.cfi_restore 9
 475              	.LVL43:
 476 0380 13010102 		addi	sp,sp,32
 477              		.cfi_def_cfa_offset 0
 478 0384 67800000 		jr	ra
 479              	.LVL44:
 480              	.L36:
  50:src/kernel/mmanagement/slab_allocator.cpp ****     
 481              		.loc 1 50 16
 482 0388 13050000 		li	a0,0
 483              	.LVL45:
 484              		.loc 1 60 1
 485 038c 67800000 		ret
 486              	.LVL46:
 487              	.L37:
 488              		.cfi_def_cfa_register 8
 489              		.cfi_offset 1, -8
 490              		.cfi_offset 8, -16
 491              		.cfi_offset 9, -24
  54:src/kernel/mmanagement/slab_allocator.cpp ****     
 492              		.loc 1 54 16
 493 0390 13050000 		li	a0,0
 494 0394 6FF01FFE 		j	.L33
 495              		.cfi_endproc
 496              	.LFE121:
 498              		.align	2
 499              		.globl	_ZN13SlabAllocator5kfreeEPv
 501              	_ZN13SlabAllocator5kfreeEPv:
 502              	.LFB122:
  61:src/kernel/mmanagement/slab_allocator.cpp **** 
  62:src/kernel/mmanagement/slab_allocator.cpp **** 
  63:src/kernel/mmanagement/slab_allocator.cpp **** 
  64:src/kernel/mmanagement/slab_allocator.cpp **** int SlabAllocator::kfree(void* p){
 503              		.loc 1 64 34 is_stmt 1
 504              		.cfi_startproc
 505              	.LVL47:
 506 0398 130101FD 		addi	sp,sp,-48
 507              		.cfi_def_cfa_offset 48
 508 039c 23341102 		sd	ra,40(sp)
 509 03a0 23308102 		sd	s0,32(sp)
 510 03a4 233C9100 		sd	s1,24(sp)
 511 03a8 23382101 		sd	s2,16(sp)
 512 03ac 23343101 		sd	s3,8(sp)
 513 03b0 23304101 		sd	s4,0(sp)
 514              		.cfi_offset 1, -8
 515              		.cfi_offset 8, -16
 516              		.cfi_offset 9, -24
 517              		.cfi_offset 18, -32
 518              		.cfi_offset 19, -40
 519              		.cfi_offset 20, -48
 520 03b4 13040103 		addi	s0,sp,48
 521              		.cfi_def_cfa 8, 0
 522 03b8 138A0500 		mv	s4,a1
  65:src/kernel/mmanagement/slab_allocator.cpp ****     for(ObjectCache& smb_cache: smb_caches){
 523              		.loc 1 65 5
GAS LISTING /tmp/ccf9HIjp.s 			page 13


 524              	.LBB18:
 525              		.loc 1 65 33 is_stmt 0
 526 03bc 9304050B 		addi	s1,a0,176
 527              	.LVL48:
 528 03c0 93098552 		addi	s3,a0,1320
 529              	.LVL49:
 530              	.L46:
 531              		.loc 1 65 33 discriminator 1
 532 03c4 638A3403 		beq	s1,s3,.L47
 533              	.LVL50:
  66:src/kernel/mmanagement/slab_allocator.cpp ****         if(!smb_cache.free_obj(p)){
 534              		.loc 1 66 9 is_stmt 1 discriminator 2
 535              		.loc 1 66 31 is_stmt 0 discriminator 2
 536 03c8 93050A00 		mv	a1,s4
 537 03cc 13850400 		mv	a0,s1
 538 03d0 97000000 		call	_ZN11ObjectCache8free_objEPv
 538      E7800000 
 539              	.LVL51:
 540 03d8 13090500 		mv	s2,a0
 541              		.loc 1 66 9 discriminator 2
 542 03dc 63060500 		beq	a0,zero,.L49
  65:src/kernel/mmanagement/slab_allocator.cpp ****     for(ObjectCache& smb_cache: smb_caches){
 543              		.loc 1 65 5 discriminator 3
 544 03e0 93848405 		addi	s1,s1,88
 545              	.LVL52:
 546 03e4 6FF01FFE 		j	.L46
 547              	.LVL53:
 548              	.L49:
  67:src/kernel/mmanagement/slab_allocator.cpp ****             smb_cache.shrink();
 549              		.loc 1 67 13 is_stmt 1
 550              		.loc 1 67 29 is_stmt 0
 551 03e8 13850400 		mv	a0,s1
 552 03ec 97000000 		call	_ZN11ObjectCache6shrinkEv
 552      E7800000 
 553              	.LVL54:
  68:src/kernel/mmanagement/slab_allocator.cpp ****             return 0;
 554              		.loc 1 68 13 is_stmt 1
 555              		.loc 1 68 20 is_stmt 0
 556 03f4 6F008000 		j	.L44
 557              	.LVL55:
 558              	.L47:
 559              	.LBE18:
  69:src/kernel/mmanagement/slab_allocator.cpp ****         }
  70:src/kernel/mmanagement/slab_allocator.cpp ****     }
  71:src/kernel/mmanagement/slab_allocator.cpp ****     return 1;
 560              		.loc 1 71 12
 561 03f8 13091000 		li	s2,1
 562              	.L44:
  72:src/kernel/mmanagement/slab_allocator.cpp **** }
 563              		.loc 1 72 1
 564 03fc 13050900 		mv	a0,s2
 565 0400 83308102 		ld	ra,40(sp)
 566              		.cfi_restore 1
 567 0404 03340102 		ld	s0,32(sp)
 568              		.cfi_restore 8
 569              		.cfi_def_cfa 2, 48
 570 0408 83348101 		ld	s1,24(sp)
GAS LISTING /tmp/ccf9HIjp.s 			page 14


 571              		.cfi_restore 9
 572              	.LVL56:
 573 040c 03390101 		ld	s2,16(sp)
 574              		.cfi_restore 18
 575 0410 83398100 		ld	s3,8(sp)
 576              		.cfi_restore 19
 577              	.LVL57:
 578 0414 033A0100 		ld	s4,0(sp)
 579              		.cfi_restore 20
 580              	.LVL58:
 581 0418 13010103 		addi	sp,sp,48
 582              		.cfi_def_cfa_offset 0
 583 041c 67800000 		jr	ra
 584              		.cfi_endproc
 585              	.LFE122:
 587              		.globl	_ZN13SlabAllocator16buff_cache_namesE
 588              		.globl	_ZN13SlabAllocator9allocatorE
 589              		.data
 590              		.align	3
 591              		.set	.LANCHOR0,. + 0
 594              	_ZN13SlabAllocator16buff_cache_namesE:
 595 0000 00000000 		.dword	.LC2
 595      00000000 
 596 0008 00000000 		.dword	.LC3
 596      00000000 
 597 0010 00000000 		.dword	.LC4
 597      00000000 
 598 0018 00000000 		.dword	.LC5
 598      00000000 
 599 0020 00000000 		.dword	.LC6
 599      00000000 
 600 0028 00000000 		.dword	.LC7
 600      00000000 
 601 0030 00000000 		.dword	.LC8
 601      00000000 
 602 0038 00000000 		.dword	.LC9
 602      00000000 
 603 0040 00000000 		.dword	.LC10
 603      00000000 
 604 0048 00000000 		.dword	.LC11
 604      00000000 
 605 0050 00000000 		.dword	.LC12
 605      00000000 
 606 0058 00000000 		.dword	.LC13
 606      00000000 
 607 0060 00000000 		.dword	.LC14
 607      00000000 
 608              		.section	.rodata.str1.8,"aMS",@progbits,1
 609              		.align	3
 610              	.LC0:
 611 0000 6F626A63 		.string	"objcache_cache"
 611      61636865 
 611      5F636163 
 611      686500
 612 000f 00       		.zero	1
 613              	.LC1:
 614 0010 736C6162 		.string	"slab_meta_cache"
GAS LISTING /tmp/ccf9HIjp.s 			page 15


 614      5F6D6574 
 614      615F6361 
 614      63686500 
 615              	.LC2:
 616 0020 736D625F 		.string	"smb_cache_5"
 616      63616368 
 616      655F3500 
 617 002c 00000000 		.zero	4
 618              	.LC3:
 619 0030 736D625F 		.string	"smb_cache_6"
 619      63616368 
 619      655F3600 
 620 003c 00000000 		.zero	4
 621              	.LC4:
 622 0040 736D625F 		.string	"smb_cache_7"
 622      63616368 
 622      655F3700 
 623 004c 00000000 		.zero	4
 624              	.LC5:
 625 0050 736D625F 		.string	"smb_cache_8"
 625      63616368 
 625      655F3800 
 626 005c 00000000 		.zero	4
 627              	.LC6:
 628 0060 736D625F 		.string	"smb_cache_9"
 628      63616368 
 628      655F3900 
 629 006c 00000000 		.zero	4
 630              	.LC7:
 631 0070 736D625F 		.string	"smb_cache_10"
 631      63616368 
 631      655F3130 
 631      00
 632 007d 000000   		.zero	3
 633              	.LC8:
 634 0080 736D625F 		.string	"smb_cache_11"
 634      63616368 
 634      655F3131 
 634      00
 635 008d 000000   		.zero	3
 636              	.LC9:
 637 0090 736D625F 		.string	"smb_cache_12"
 637      63616368 
 637      655F3132 
 637      00
 638 009d 000000   		.zero	3
 639              	.LC10:
 640 00a0 736D625F 		.string	"smb_cache_13"
 640      63616368 
 640      655F3133 
 640      00
 641 00ad 000000   		.zero	3
 642              	.LC11:
 643 00b0 736D625F 		.string	"smb_cache_14"
 643      63616368 
 643      655F3134 
 643      00
GAS LISTING /tmp/ccf9HIjp.s 			page 16


 644 00bd 000000   		.zero	3
 645              	.LC12:
 646 00c0 736D625F 		.string	"smb_cache_15"
 646      63616368 
 646      655F3135 
 646      00
 647 00cd 000000   		.zero	3
 648              	.LC13:
 649 00d0 736D625F 		.string	"smb_cache_16"
 649      63616368 
 649      655F3136 
 649      00
 650 00dd 000000   		.zero	3
 651              	.LC14:
 652 00e0 736D625F 		.string	"smb_cache_17"
 652      63616368 
 652      655F3137 
 652      00
 653              		.section	.sbss,"aw",@nobits
 654              		.align	3
 657              	_ZN13SlabAllocator9allocatorE:
 658 0000 00000000 		.zero	8
 658      00000000 
 659              		.text
 660              	.Letext0:
 661              		.file 4 "src/kernel/mmanagement/../../../h/../h/../lib/hw.h"
 662              		.file 5 "src/kernel/mmanagement/../../../h/../h/../h/../h/list.h"
 663              		.file 6 "src/kernel/mmanagement/../../../h/../h/noalloc_allocator.hpp"
 664              		.file 7 "src/kernel/mmanagement/../../../h/../h/slab.h"
 665              		.file 8 "src/kernel/mmanagement/../../../h/kernel_lib.h"
 666              		.file 9 "src/kernel/mmanagement/../../../h/../h/kernel_funs.h"
 4388              		.align	3
 4391              	DW.ref.__gxx_personality_v0:
 4392 0000 00000000 		.dword	__gxx_personality_v0
 4392      00000000 
 4393              		.ident	"GCC: () 8.3.0"
GAS LISTING /tmp/ccf9HIjp.s 			page 17


DEFINED SYMBOLS
                            *ABS*:0000000000000000 slab_allocator.cpp
     /tmp/ccf9HIjp.s:12     .text:0000000000000000 _ZN13SlabAllocatorC2Ev
     /tmp/ccf9HIjp.s:16     .text:0000000000000000 .L0 
     /tmp/ccf9HIjp.s:4391   .sdata.DW.ref.__gxx_personality_v0:0000000000000000 DW.ref.__gxx_personality_v0
     /tmp/ccf9HIjp.s:20     .text:0000000000000000 .L0 
     /tmp/ccf9HIjp.s:21     .text:0000000000000004 .L0 
     /tmp/ccf9HIjp.s:29     .text:0000000000000020 .L0 
     /tmp/ccf9HIjp.s:30     .text:0000000000000020 .L0 
     /tmp/ccf9HIjp.s:31     .text:0000000000000020 .L0 
     /tmp/ccf9HIjp.s:32     .text:0000000000000020 .L0 
     /tmp/ccf9HIjp.s:33     .text:0000000000000020 .L0 
     /tmp/ccf9HIjp.s:34     .text:0000000000000020 .L0 
     /tmp/ccf9HIjp.s:35     .text:0000000000000020 .L0 
     /tmp/ccf9HIjp.s:37     .text:0000000000000024 .L0 
     /tmp/ccf9HIjp.s:41     .text:0000000000000028 .L0 
     /tmp/ccf9HIjp.s:62     .text:0000000000000070 .L0 
     /tmp/ccf9HIjp.s:69     .text:0000000000000080 .L0 
     /tmp/ccf9HIjp.s:73     .text:0000000000000088 .L0 
     /tmp/ccf9HIjp.s:79     .text:000000000000008c .L0 
     /tmp/ccf9HIjp.s:93     .text:00000000000000a4 .L0 
     /tmp/ccf9HIjp.s:98     .text:00000000000000ac .L0 
     /tmp/ccf9HIjp.s:124    .text:0000000000000110 .L0 
     /tmp/ccf9HIjp.s:128    .text:000000000000011c .L0 
     /tmp/ccf9HIjp.s:132    .text:0000000000000120 .L0 
     /tmp/ccf9HIjp.s:135    .text:0000000000000128 .L0 
     /tmp/ccf9HIjp.s:136    .text:0000000000000128 .L0 
     /tmp/ccf9HIjp.s:138    .text:000000000000012c .L0 
     /tmp/ccf9HIjp.s:160    .text:000000000000016c .L0 
     /tmp/ccf9HIjp.s:169    .text:0000000000000188 .L0 
     /tmp/ccf9HIjp.s:177    .text:000000000000019c .L0 
     /tmp/ccf9HIjp.s:182    .text:00000000000001a8 .L0 
     /tmp/ccf9HIjp.s:199    .text:00000000000001d4 .L0 
     /tmp/ccf9HIjp.s:210    .text:00000000000001ec .L0 
     /tmp/ccf9HIjp.s:211    .text:00000000000001f0 .L0 
     /tmp/ccf9HIjp.s:213    .text:00000000000001f4 .L0 
     /tmp/ccf9HIjp.s:214    .text:00000000000001f4 .L0 
     /tmp/ccf9HIjp.s:216    .text:00000000000001f8 .L0 
     /tmp/ccf9HIjp.s:218    .text:00000000000001fc .L0 
     /tmp/ccf9HIjp.s:221    .text:0000000000000200 .L0 
     /tmp/ccf9HIjp.s:224    .text:0000000000000204 .L0 
     /tmp/ccf9HIjp.s:227    .text:0000000000000208 .L0 
     /tmp/ccf9HIjp.s:230    .text:000000000000020c .L0 
     /tmp/ccf9HIjp.s:232    .text:0000000000000210 .L0 
     /tmp/ccf9HIjp.s:12     .text:0000000000000000 _ZN13SlabAllocatorC1Ev
     /tmp/ccf9HIjp.s:268    .text:0000000000000210 _ZN13SlabAllocator11getInstanceEv
     /tmp/ccf9HIjp.s:271    .text:0000000000000210 .L0 
     /tmp/ccf9HIjp.s:272    .text:0000000000000210 .L0 
     /tmp/ccf9HIjp.s:273    .text:0000000000000210 .L0 
     /tmp/ccf9HIjp.s:657    .sbss:0000000000000000 _ZN13SlabAllocator9allocatorE
     /tmp/ccf9HIjp.s:274    .text:0000000000000210 .L0 
     /tmp/ccf9HIjp.s:277    .text:000000000000021c .L0 
     /tmp/ccf9HIjp.s:279    .text:0000000000000220 .L0 
     /tmp/ccf9HIjp.s:280    .text:0000000000000220 .L0 
     /tmp/ccf9HIjp.s:285    .text:0000000000000230 .L0 
     /tmp/ccf9HIjp.s:286    .text:0000000000000234 .L0 
     /tmp/ccf9HIjp.s:290    .text:0000000000000240 .L0 
GAS LISTING /tmp/ccf9HIjp.s 			page 18


     /tmp/ccf9HIjp.s:291    .text:0000000000000240 .L0 
     /tmp/ccf9HIjp.s:292    .text:0000000000000240 .L0 
     /tmp/ccf9HIjp.s:294    .text:0000000000000244 .L0 
     /tmp/ccf9HIjp.s:300    .text:0000000000000244 .L0 
     /tmp/ccf9HIjp.s:301    .text:0000000000000244 .L0 
     /tmp/ccf9HIjp.s:309    .text:0000000000000254 .L0 
     /tmp/ccf9HIjp.s:311    .text:0000000000000258 .L0 
     /tmp/ccf9HIjp.s:315    .text:0000000000000260 .L0 
     /tmp/ccf9HIjp.s:317    .text:0000000000000268 .L0 
     /tmp/ccf9HIjp.s:318    .text:0000000000000268 .L0 
     /tmp/ccf9HIjp.s:321    .text:0000000000000278 .L0 
     /tmp/ccf9HIjp.s:323    .text:000000000000027c .L0 
     /tmp/ccf9HIjp.s:324    .text:000000000000027c .L0 
     /tmp/ccf9HIjp.s:326    .text:0000000000000280 .L0 
     /tmp/ccf9HIjp.s:328    .text:0000000000000284 .L0 
     /tmp/ccf9HIjp.s:330    .text:0000000000000288 .L0 
     /tmp/ccf9HIjp.s:336    .text:0000000000000288 _ZN13SlabAllocator11print_stateEc
     /tmp/ccf9HIjp.s:339    .text:0000000000000288 .L0 
     /tmp/ccf9HIjp.s:341    .text:0000000000000288 .L0 
     /tmp/ccf9HIjp.s:342    .text:000000000000028c .L0 
     /tmp/ccf9HIjp.s:348    .text:00000000000002a0 .L0 
     /tmp/ccf9HIjp.s:349    .text:00000000000002a0 .L0 
     /tmp/ccf9HIjp.s:350    .text:00000000000002a0 .L0 
     /tmp/ccf9HIjp.s:351    .text:00000000000002a0 .L0 
     /tmp/ccf9HIjp.s:352    .text:00000000000002a0 .L0 
     /tmp/ccf9HIjp.s:354    .text:00000000000002a4 .L0 
     /tmp/ccf9HIjp.s:358    .text:00000000000002ac .L0 
     /tmp/ccf9HIjp.s:359    .text:00000000000002ac .L0 
     /tmp/ccf9HIjp.s:362    .text:00000000000002b4 .L0 
     /tmp/ccf9HIjp.s:363    .text:00000000000002b4 .L0 
     /tmp/ccf9HIjp.s:369    .text:00000000000002c4 .L0 
     /tmp/ccf9HIjp.s:370    .text:00000000000002c4 .L0 
     /tmp/ccf9HIjp.s:375    .text:00000000000002cc .L0 
     /tmp/ccf9HIjp.s:376    .text:00000000000002cc .L0 
     /tmp/ccf9HIjp.s:378    .text:00000000000002d0 .L0 
     /tmp/ccf9HIjp.s:386    .text:00000000000002ec .L0 
     /tmp/ccf9HIjp.s:390    .text:00000000000002f0 .L0 
     /tmp/ccf9HIjp.s:394    .text:00000000000002f8 .L0 
     /tmp/ccf9HIjp.s:395    .text:00000000000002fc .L0 
     /tmp/ccf9HIjp.s:397    .text:0000000000000300 .L0 
     /tmp/ccf9HIjp.s:398    .text:0000000000000300 .L0 
     /tmp/ccf9HIjp.s:400    .text:0000000000000304 .L0 
     /tmp/ccf9HIjp.s:403    .text:0000000000000308 .L0 
     /tmp/ccf9HIjp.s:406    .text:000000000000030c .L0 
     /tmp/ccf9HIjp.s:408    .text:0000000000000310 .L0 
     /tmp/ccf9HIjp.s:410    .text:0000000000000314 .L0 
     /tmp/ccf9HIjp.s:416    .text:0000000000000314 _ZN13SlabAllocator7kmallocEm
     /tmp/ccf9HIjp.s:419    .text:0000000000000314 .L0 
     /tmp/ccf9HIjp.s:421    .text:0000000000000314 .L0 
     /tmp/ccf9HIjp.s:422    .text:0000000000000314 .L0 
     /tmp/ccf9HIjp.s:424    .text:0000000000000318 .L0 
     /tmp/ccf9HIjp.s:425    .text:000000000000031c .L0 
     /tmp/ccf9HIjp.s:429    .text:0000000000000328 .L0 
     /tmp/ccf9HIjp.s:430    .text:0000000000000328 .L0 
     /tmp/ccf9HIjp.s:431    .text:0000000000000328 .L0 
     /tmp/ccf9HIjp.s:433    .text:000000000000032c .L0 
     /tmp/ccf9HIjp.s:436    .text:0000000000000330 .L0 
GAS LISTING /tmp/ccf9HIjp.s 			page 19


     /tmp/ccf9HIjp.s:437    .text:0000000000000330 .L0 
     /tmp/ccf9HIjp.s:442    .text:000000000000033c .L0 
     /tmp/ccf9HIjp.s:446    .text:0000000000000344 .L0 
     /tmp/ccf9HIjp.s:449    .text:000000000000034c .L0 
     /tmp/ccf9HIjp.s:452    .text:0000000000000354 .L0 
     /tmp/ccf9HIjp.s:456    .text:0000000000000358 .L0 
     /tmp/ccf9HIjp.s:457    .text:0000000000000358 .L0 
     /tmp/ccf9HIjp.s:460    .text:000000000000035c .L0 
     /tmp/ccf9HIjp.s:468    .text:0000000000000374 .L0 
     /tmp/ccf9HIjp.s:469    .text:0000000000000378 .L0 
     /tmp/ccf9HIjp.s:471    .text:000000000000037c .L0 
     /tmp/ccf9HIjp.s:472    .text:000000000000037c .L0 
     /tmp/ccf9HIjp.s:474    .text:0000000000000380 .L0 
     /tmp/ccf9HIjp.s:477    .text:0000000000000384 .L0 
     /tmp/ccf9HIjp.s:482    .text:0000000000000388 .L0 
     /tmp/ccf9HIjp.s:485    .text:000000000000038c .L0 
     /tmp/ccf9HIjp.s:488    .text:0000000000000390 .L0 
     /tmp/ccf9HIjp.s:489    .text:0000000000000390 .L0 
     /tmp/ccf9HIjp.s:490    .text:0000000000000390 .L0 
     /tmp/ccf9HIjp.s:491    .text:0000000000000390 .L0 
     /tmp/ccf9HIjp.s:493    .text:0000000000000390 .L0 
     /tmp/ccf9HIjp.s:495    .text:0000000000000398 .L0 
     /tmp/ccf9HIjp.s:501    .text:0000000000000398 _ZN13SlabAllocator5kfreeEPv
     /tmp/ccf9HIjp.s:504    .text:0000000000000398 .L0 
     /tmp/ccf9HIjp.s:506    .text:0000000000000398 .L0 
     /tmp/ccf9HIjp.s:507    .text:000000000000039c .L0 
     /tmp/ccf9HIjp.s:514    .text:00000000000003b4 .L0 
     /tmp/ccf9HIjp.s:515    .text:00000000000003b4 .L0 
     /tmp/ccf9HIjp.s:516    .text:00000000000003b4 .L0 
     /tmp/ccf9HIjp.s:517    .text:00000000000003b4 .L0 
     /tmp/ccf9HIjp.s:518    .text:00000000000003b4 .L0 
     /tmp/ccf9HIjp.s:519    .text:00000000000003b4 .L0 
     /tmp/ccf9HIjp.s:521    .text:00000000000003b8 .L0 
     /tmp/ccf9HIjp.s:525    .text:00000000000003bc .L0 
     /tmp/ccf9HIjp.s:526    .text:00000000000003bc .L0 
     /tmp/ccf9HIjp.s:532    .text:00000000000003c4 .L0 
     /tmp/ccf9HIjp.s:535    .text:00000000000003c8 .L0 
     /tmp/ccf9HIjp.s:536    .text:00000000000003c8 .L0 
     /tmp/ccf9HIjp.s:542    .text:00000000000003dc .L0 
     /tmp/ccf9HIjp.s:544    .text:00000000000003e0 .L0 
     /tmp/ccf9HIjp.s:550    .text:00000000000003e8 .L0 
     /tmp/ccf9HIjp.s:551    .text:00000000000003e8 .L0 
     /tmp/ccf9HIjp.s:555    .text:00000000000003f4 .L0 
     /tmp/ccf9HIjp.s:556    .text:00000000000003f4 .L0 
     /tmp/ccf9HIjp.s:561    .text:00000000000003f8 .L0 
     /tmp/ccf9HIjp.s:564    .text:00000000000003fc .L0 
     /tmp/ccf9HIjp.s:566    .text:0000000000000404 .L0 
     /tmp/ccf9HIjp.s:568    .text:0000000000000408 .L0 
     /tmp/ccf9HIjp.s:569    .text:0000000000000408 .L0 
     /tmp/ccf9HIjp.s:571    .text:000000000000040c .L0 
     /tmp/ccf9HIjp.s:574    .text:0000000000000410 .L0 
     /tmp/ccf9HIjp.s:576    .text:0000000000000414 .L0 
     /tmp/ccf9HIjp.s:579    .text:0000000000000418 .L0 
     /tmp/ccf9HIjp.s:582    .text:000000000000041c .L0 
     /tmp/ccf9HIjp.s:584    .text:0000000000000420 .L0 
     /tmp/ccf9HIjp.s:594    .data:0000000000000000 _ZN13SlabAllocator16buff_cache_namesE
     /tmp/ccf9HIjp.s:591    .data:0000000000000000 .LANCHOR0
GAS LISTING /tmp/ccf9HIjp.s 			page 20


     /tmp/ccf9HIjp.s:667    .text:0000000000000420 .L0 
     /tmp/ccf9HIjp.s:610    .rodata.str1.8:0000000000000000 .LC0
     /tmp/ccf9HIjp.s:45     .text:0000000000000038 .L0 
     /tmp/ccf9HIjp.s:613    .rodata.str1.8:0000000000000010 .LC1
     /tmp/ccf9HIjp.s:55     .text:000000000000005c .L0 
     /tmp/ccf9HIjp.s:139    .text:0000000000000130 .L0 
     /tmp/ccf9HIjp.s:274    .text:0000000000000210 .L0 
     /tmp/ccf9HIjp.s:280    .text:0000000000000220 .L0 
     /tmp/ccf9HIjp.s:315    .text:0000000000000260 .L0 
     /tmp/ccf9HIjp.s:318    .text:0000000000000268 .L0 
     /tmp/ccf9HIjp.s:71     .text:0000000000000088 .L3
     /tmp/ccf9HIjp.s:88     .text:00000000000000a4 .L13
     /tmp/ccf9HIjp.s:67     .text:0000000000000080 .L18
     /tmp/ccf9HIjp.s:130    .text:0000000000000120 .L2
     /tmp/ccf9HIjp.s:207    .text:00000000000001ec .L1
     /tmp/ccf9HIjp.s:96     .text:00000000000000ac .L19
     /tmp/ccf9HIjp.s:173    .text:0000000000000198 .L6
     /tmp/ccf9HIjp.s:165    .text:0000000000000180 .L7
     /tmp/ccf9HIjp.s:175    .text:000000000000019c .L8
     /tmp/ccf9HIjp.s:195    .text:00000000000001cc .L11
     /tmp/ccf9HIjp.s:180    .text:00000000000001a8 .L12
     /tmp/ccf9HIjp.s:283    .text:0000000000000230 .L27
     /tmp/ccf9HIjp.s:313    .text:0000000000000260 .L22
     /tmp/ccf9HIjp.s:388    .text:00000000000002f0 .L30
     /tmp/ccf9HIjp.s:373    .text:00000000000002cc .L32
     /tmp/ccf9HIjp.s:480    .text:0000000000000388 .L36
     /tmp/ccf9HIjp.s:487    .text:0000000000000390 .L37
     /tmp/ccf9HIjp.s:454    .text:0000000000000358 .L35
     /tmp/ccf9HIjp.s:466    .text:0000000000000374 .L33
     /tmp/ccf9HIjp.s:558    .text:00000000000003f8 .L47
     /tmp/ccf9HIjp.s:548    .text:00000000000003e8 .L49
     /tmp/ccf9HIjp.s:530    .text:00000000000003c4 .L46
     /tmp/ccf9HIjp.s:562    .text:00000000000003fc .L44
     /tmp/ccf9HIjp.s:615    .rodata.str1.8:0000000000000020 .LC2
     /tmp/ccf9HIjp.s:618    .rodata.str1.8:0000000000000030 .LC3
     /tmp/ccf9HIjp.s:621    .rodata.str1.8:0000000000000040 .LC4
     /tmp/ccf9HIjp.s:624    .rodata.str1.8:0000000000000050 .LC5
     /tmp/ccf9HIjp.s:627    .rodata.str1.8:0000000000000060 .LC6
     /tmp/ccf9HIjp.s:630    .rodata.str1.8:0000000000000070 .LC7
     /tmp/ccf9HIjp.s:633    .rodata.str1.8:0000000000000080 .LC8
     /tmp/ccf9HIjp.s:636    .rodata.str1.8:0000000000000090 .LC9
     /tmp/ccf9HIjp.s:639    .rodata.str1.8:00000000000000a0 .LC10
     /tmp/ccf9HIjp.s:642    .rodata.str1.8:00000000000000b0 .LC11
     /tmp/ccf9HIjp.s:645    .rodata.str1.8:00000000000000c0 .LC12
     /tmp/ccf9HIjp.s:648    .rodata.str1.8:00000000000000d0 .LC13
     /tmp/ccf9HIjp.s:651    .rodata.str1.8:00000000000000e0 .LC14
     /tmp/ccf9HIjp.s:46     .text:0000000000000040 .LEHB0
     /tmp/ccf9HIjp.s:13     .text:0000000000000000 .LFB117
     /tmp/ccf9HIjp.s:49     .text:0000000000000048 .LEHE0
     /tmp/ccf9HIjp.s:57     .text:0000000000000068 .LEHB1
     /tmp/ccf9HIjp.s:60     .text:0000000000000070 .LEHE1
     /tmp/ccf9HIjp.s:203    .text:00000000000001e4 .L14
     /tmp/ccf9HIjp.s:82     .text:0000000000000098 .LEHB2
     /tmp/ccf9HIjp.s:85     .text:00000000000000a0 .LEHE2
     /tmp/ccf9HIjp.s:154    .text:0000000000000164 .L15
     /tmp/ccf9HIjp.s:148    .text:0000000000000158 .LEHB3
     /tmp/ccf9HIjp.s:151    .text:0000000000000160 .LEHE3
GAS LISTING /tmp/ccf9HIjp.s 			page 21


     /tmp/ccf9HIjp.s:190    .text:00000000000001c0 .L16
     /tmp/ccf9HIjp.s:186    .text:00000000000001b8 .LEHB4
     /tmp/ccf9HIjp.s:189    .text:00000000000001c0 .LEHE4
     /tmp/ccf9HIjp.s:2497   .debug_abbrev:0000000000000000 .Ldebug_abbrev0
     /tmp/ccf9HIjp.s:4181   .debug_str:0000000000000545 .LASF170
     /tmp/ccf9HIjp.s:4163   .debug_str:000000000000049f .LASF171
     /tmp/ccf9HIjp.s:4289   .debug_str:000000000000097c .LASF172
     /tmp/ccf9HIjp.s:8      .text:0000000000000000 .Ltext0
     /tmp/ccf9HIjp.s:660    .text:0000000000000420 .Letext0
     /tmp/ccf9HIjp.s:4021   .debug_line:0000000000000000 .Ldebug_line0
     /tmp/ccf9HIjp.s:4051   .debug_str:00000000000000c2 .LASF0
     /tmp/ccf9HIjp.s:4359   .debug_str:0000000000000b68 .LASF1
     /tmp/ccf9HIjp.s:4357   .debug_str:0000000000000b62 .LASF3
     /tmp/ccf9HIjp.s:4319   .debug_str:0000000000000a3b .LASF2
     /tmp/ccf9HIjp.s:4295   .debug_str:00000000000009b0 .LASF4
     /tmp/ccf9HIjp.s:4307   .debug_str:00000000000009f4 .LASF5
     /tmp/ccf9HIjp.s:4125   .debug_str:0000000000000335 .LASF6
     /tmp/ccf9HIjp.s:4169   .debug_str:00000000000004e5 .LASF7
     /tmp/ccf9HIjp.s:4269   .debug_str:00000000000008ea .LASF8
     /tmp/ccf9HIjp.s:4067   .debug_str:000000000000010e .LASF9
     /tmp/ccf9HIjp.s:4351   .debug_str:0000000000000b21 .LASF10
     /tmp/ccf9HIjp.s:4129   .debug_str:0000000000000344 .LASF11
     /tmp/ccf9HIjp.s:4089   .debug_str:00000000000001df .LASF12
     /tmp/ccf9HIjp.s:4179   .debug_str:0000000000000535 .LASF13
     /tmp/ccf9HIjp.s:4133   .debug_str:0000000000000361 .LASF14
     /tmp/ccf9HIjp.s:4285   .debug_str:000000000000096b .LASF15
     /tmp/ccf9HIjp.s:4135   .debug_str:0000000000000371 .LASF16
     /tmp/ccf9HIjp.s:4117   .debug_str:00000000000002ed .LASF17
     /tmp/ccf9HIjp.s:4375   .debug_str:0000000000000c31 .LASF72
     /tmp/ccf9HIjp.s:4053   .debug_str:00000000000000cf .LASF18
     /tmp/ccf9HIjp.s:4075   .debug_str:000000000000013c .LASF19
     /tmp/ccf9HIjp.s:4159   .debug_str:0000000000000469 .LASF74
     /tmp/ccf9HIjp.s:4275   .debug_str:0000000000000928 .LASF25
     /tmp/ccf9HIjp.s:4155   .debug_str:0000000000000453 .LASF173
     /tmp/ccf9HIjp.s:4055   .debug_str:00000000000000d4 .LASF20
     /tmp/ccf9HIjp.s:4329   .debug_str:0000000000000a7f .LASF21
     /tmp/ccf9HIjp.s:4371   .debug_str:0000000000000c0f .LASF22
     /tmp/ccf9HIjp.s:4043   .debug_str:000000000000008d .LASF23
     /tmp/ccf9HIjp.s:4193   .debug_str:0000000000000660 .LASF24
     /tmp/ccf9HIjp.s:4111   .debug_str:000000000000029a .LASF32
     /tmp/ccf9HIjp.s:4079   .debug_str:0000000000000164 .LASF27
     /tmp/ccf9HIjp.s:4119   .debug_str:0000000000000303 .LASF26
     /tmp/ccf9HIjp.s:4327   .debug_str:0000000000000a6a .LASF28
     /tmp/ccf9HIjp.s:4249   .debug_str:000000000000085b .LASF29
     /tmp/ccf9HIjp.s:4253   .debug_str:000000000000087c .LASF30
     /tmp/ccf9HIjp.s:4241   .debug_str:000000000000081a .LASF42
     /tmp/ccf9HIjp.s:4143   .debug_str:00000000000003e4 .LASF44
     /tmp/ccf9HIjp.s:4151   .debug_str:000000000000042b .LASF31
     /tmp/ccf9HIjp.s:4267   .debug_str:00000000000008cd .LASF33
     /tmp/ccf9HIjp.s:4171   .debug_str:00000000000004f8 .LASF34
     /tmp/ccf9HIjp.s:4229   .debug_str:000000000000076d .LASF35
     /tmp/ccf9HIjp.s:4243   .debug_str:000000000000082a .LASF36
     /tmp/ccf9HIjp.s:4199   .debug_str:0000000000000694 .LASF37
     /tmp/ccf9HIjp.s:4321   .debug_str:0000000000000a49 .LASF38
     /tmp/ccf9HIjp.s:4235   .debug_str:00000000000007c9 .LASF39
     /tmp/ccf9HIjp.s:4215   .debug_str:00000000000006fd .LASF40
     /tmp/ccf9HIjp.s:4197   .debug_str:0000000000000675 .LASF41
GAS LISTING /tmp/ccf9HIjp.s 			page 22


     /tmp/ccf9HIjp.s:4349   .debug_str:0000000000000b14 .LASF43
     /tmp/ccf9HIjp.s:4231   .debug_str:000000000000078a .LASF45
     /tmp/ccf9HIjp.s:4039   .debug_str:0000000000000055 .LASF46
     /tmp/ccf9HIjp.s:4233   .debug_str:00000000000007ac .LASF47
     /tmp/ccf9HIjp.s:4291   .debug_str:000000000000099f .LASF48
     /tmp/ccf9HIjp.s:4069   .debug_str:000000000000011e .LASF49
     /tmp/ccf9HIjp.s:4315   .debug_str:0000000000000a2e .LASF50
     /tmp/ccf9HIjp.s:4317   .debug_str:0000000000000a36 .LASF51
     /tmp/ccf9HIjp.s:4217   .debug_str:0000000000000708 .LASF52
     /tmp/ccf9HIjp.s:4207   .debug_str:00000000000006db .LASF53
     /tmp/ccf9HIjp.s:4311   .debug_str:0000000000000a14 .LASF54
     /tmp/ccf9HIjp.s:4277   .debug_str:0000000000000934 .LASF55
     /tmp/ccf9HIjp.s:4057   .debug_str:00000000000000d9 .LASF56
     /tmp/ccf9HIjp.s:4261   .debug_str:00000000000008b9 .LASF57
     /tmp/ccf9HIjp.s:4341   .debug_str:0000000000000add .LASF58
     /tmp/ccf9HIjp.s:4227   .debug_str:0000000000000747 .LASF59
     /tmp/ccf9HIjp.s:4221   .debug_str:000000000000071d .LASF60
     /tmp/ccf9HIjp.s:4283   .debug_str:000000000000094c .LASF61
     /tmp/ccf9HIjp.s:4145   .debug_str:00000000000003fa .LASF62
     /tmp/ccf9HIjp.s:4077   .debug_str:0000000000000141 .LASF63
     /tmp/ccf9HIjp.s:4309   .debug_str:0000000000000a06 .LASF64
     /tmp/ccf9HIjp.s:4139   .debug_str:00000000000003b3 .LASF65
     /tmp/ccf9HIjp.s:4355   .debug_str:0000000000000b51 .LASF66
     /tmp/ccf9HIjp.s:4115   .debug_str:00000000000002c2 .LASF67
     /tmp/ccf9HIjp.s:4345   .debug_str:0000000000000af2 .LASF68
     /tmp/ccf9HIjp.s:4137   .debug_str:0000000000000387 .LASF69
     /tmp/ccf9HIjp.s:4185   .debug_str:000000000000062a .LASF70
     /tmp/ccf9HIjp.s:4237   .debug_str:00000000000007e6 .LASF71
     /tmp/ccf9HIjp.s:4333   .debug_str:0000000000000a99 .LASF73
     /tmp/ccf9HIjp.s:4365   .debug_str:0000000000000ba5 .LASF75
     /tmp/ccf9HIjp.s:4165   .debug_str:00000000000004c9 .LASF76
     /tmp/ccf9HIjp.s:4287   .debug_str:0000000000000977 .LASF77
     /tmp/ccf9HIjp.s:4383   .debug_str:0000000000000c63 .LASF116
     /tmp/ccf9HIjp.s:4263   .debug_str:00000000000008be .LASF78
     /tmp/ccf9HIjp.s:4061   .debug_str:00000000000000ed .LASF79
     /tmp/ccf9HIjp.s:4201   .debug_str:00000000000006ae .LASF80
     /tmp/ccf9HIjp.s:4297   .debug_str:00000000000009b7 .LASF81
     /tmp/ccf9HIjp.s:4093   .debug_str:00000000000001fe .LASF82
     /tmp/ccf9HIjp.s:4203   .debug_str:00000000000006b4 .LASF83
     /tmp/ccf9HIjp.s:4381   .debug_str:0000000000000c5b .LASF84
     /tmp/ccf9HIjp.s:4369   .debug_str:0000000000000bfc .LASF85
     /tmp/ccf9HIjp.s:4259   .debug_str:00000000000008af .LASF86
     /tmp/ccf9HIjp.s:4173   .debug_str:0000000000000501 .LASF87
     /tmp/ccf9HIjp.s:4127   .debug_str:000000000000033c .LASF88
     /tmp/ccf9HIjp.s:4245   .debug_str:0000000000000831 .LASF89
     /tmp/ccf9HIjp.s:4103   .debug_str:000000000000024b .LASF90
     /tmp/ccf9HIjp.s:4205   .debug_str:00000000000006d1 .LASF130
     /tmp/ccf9HIjp.s:4087   .debug_str:00000000000001cf .LASF174
     /tmp/ccf9HIjp.s:4023   .debug_str:0000000000000000 .LASF91
     /tmp/ccf9HIjp.s:4377   .debug_str:0000000000000c38 .LASF92
     /tmp/ccf9HIjp.s:4265   .debug_str:00000000000008c5 .LASF93
     /tmp/ccf9HIjp.s:4251   .debug_str:0000000000000868 .LASF94
     /tmp/ccf9HIjp.s:4029   .debug_str:0000000000000022 .LASF95
     /tmp/ccf9HIjp.s:4379   .debug_str:0000000000000c4b .LASF96
     /tmp/ccf9HIjp.s:4149   .debug_str:0000000000000426 .LASF97
     /tmp/ccf9HIjp.s:4091   .debug_str:00000000000001ee .LASF98
     /tmp/ccf9HIjp.s:4071   .debug_str:0000000000000124 .LASF99
GAS LISTING /tmp/ccf9HIjp.s 			page 23


     /tmp/ccf9HIjp.s:4105   .debug_str:0000000000000258 .LASF100
     /tmp/ccf9HIjp.s:4157   .debug_str:0000000000000460 .LASF101
     /tmp/ccf9HIjp.s:4175   .debug_str:0000000000000516 .LASF102
     /tmp/ccf9HIjp.s:4281   .debug_str:0000000000000947 .LASF103
     /tmp/ccf9HIjp.s:4065   .debug_str:0000000000000106 .LASF104
     /tmp/ccf9HIjp.s:4035   .debug_str:0000000000000042 .LASF105
     /tmp/ccf9HIjp.s:4031   .debug_str:0000000000000027 .LASF106
     /tmp/ccf9HIjp.s:4301   .debug_str:00000000000009ce .LASF109
     /tmp/ccf9HIjp.s:4109   .debug_str:0000000000000287 .LASF111
     /tmp/ccf9HIjp.s:4131   .debug_str:0000000000000353 .LASF137
     /tmp/ccf9HIjp.s:4147   .debug_str:0000000000000409 .LASF139
     /tmp/ccf9HIjp.s:4027   .debug_str:0000000000000018 .LASF107
     /tmp/ccf9HIjp.s:4373   .debug_str:0000000000000c19 .LASF108
     /tmp/ccf9HIjp.s:4083   .debug_str:00000000000001ae .LASF110
     /tmp/ccf9HIjp.s:4081   .debug_str:0000000000000197 .LASF112
     /tmp/ccf9HIjp.s:4335   .debug_str:0000000000000aa4 .LASF113
     /tmp/ccf9HIjp.s:4331   .debug_str:0000000000000a88 .LASF114
     /tmp/ccf9HIjp.s:4033   .debug_str:0000000000000038 .LASF115
     /tmp/ccf9HIjp.s:4097   .debug_str:0000000000000223 .LASF117
     /tmp/ccf9HIjp.s:4191   .debug_str:000000000000064f .LASF118
     /tmp/ccf9HIjp.s:4225   .debug_str:0000000000000738 .LASF119
     /tmp/ccf9HIjp.s:4195   .debug_str:000000000000066a .LASF120
     /tmp/ccf9HIjp.s:4219   .debug_str:0000000000000712 .LASF121
     /tmp/ccf9HIjp.s:4037   .debug_str:000000000000004a .LASF122
     /tmp/ccf9HIjp.s:4305   .debug_str:00000000000009dd .LASF123
     /tmp/ccf9HIjp.s:4025   .debug_str:0000000000000008 .LASF124
     /tmp/ccf9HIjp.s:4047   .debug_str:000000000000009b .LASF125
     /tmp/ccf9HIjp.s:4085   .debug_str:00000000000001b7 .LASF126
     /tmp/ccf9HIjp.s:4113   .debug_str:00000000000002af .LASF127
     /tmp/ccf9HIjp.s:4107   .debug_str:000000000000026f .LASF128
     /tmp/ccf9HIjp.s:4167   .debug_str:00000000000004ce .LASF129
     /tmp/ccf9HIjp.s:4257   .debug_str:0000000000000896 .LASF131
     /tmp/ccf9HIjp.s:4095   .debug_str:0000000000000209 .LASF132
     /tmp/ccf9HIjp.s:4073   .debug_str:000000000000012f .LASF133
     /tmp/ccf9HIjp.s:4041   .debug_str:000000000000005e .LASF134
     /tmp/ccf9HIjp.s:4141   .debug_str:00000000000003d6 .LASF135
     /tmp/ccf9HIjp.s:4367   .debug_str:0000000000000bcb .LASF136
     /tmp/ccf9HIjp.s:4063   .debug_str:00000000000000fa .LASF138
     /tmp/ccf9HIjp.s:4161   .debug_str:000000000000047d .LASF140
     /tmp/ccf9HIjp.s:4293   .debug_str:00000000000009a4 .LASF141
     /tmp/ccf9HIjp.s:4353   .debug_str:0000000000000b2f .LASF142
     /tmp/ccf9HIjp.s:4325   .debug_str:0000000000000a62 .LASF143
     /tmp/ccf9HIjp.s:4339   .debug_str:0000000000000ac0 .LASF144
     /tmp/ccf9HIjp.s:4213   .debug_str:00000000000006f7 .LASF145
     /tmp/ccf9HIjp.s:4121   .debug_str:0000000000000310 .LASF146
     /tmp/ccf9HIjp.s:4343   .debug_str:0000000000000ae7 .LASF147
     /tmp/ccf9HIjp.s:4299   .debug_str:00000000000009bc .LASF148
     /tmp/ccf9HIjp.s:4187   .debug_str:0000000000000638 .LASF149
     /tmp/ccf9HIjp.s:4239   .debug_str:0000000000000808 .LASF150
     /tmp/ccf9HIjp.s:4347   .debug_str:0000000000000b04 .LASF151
     /tmp/ccf9HIjp.s:4049   .debug_str:00000000000000b2 .LASF152
     /tmp/ccf9HIjp.s:4279   .debug_str:0000000000000939 .LASF153
     /tmp/ccf9HIjp.s:4059   .debug_str:00000000000000de .LASF154
     /tmp/ccf9HIjp.s:4211   .debug_str:00000000000006ea .LASF155
     /tmp/ccf9HIjp.s:4313   .debug_str:0000000000000a1e .LASF156
     /tmp/ccf9HIjp.s:4337   .debug_str:0000000000000ab2 .LASF157
     /tmp/ccf9HIjp.s:4361   .debug_str:0000000000000b7b .LASF158
GAS LISTING /tmp/ccf9HIjp.s 			page 24


     /tmp/ccf9HIjp.s:4223   .debug_str:0000000000000728 .LASF159
     /tmp/ccf9HIjp.s:4153   .debug_str:0000000000000435 .LASF160
     /tmp/ccf9HIjp.s:4271   .debug_str:00000000000008fd .LASF161
     /tmp/ccf9HIjp.s:502    .text:0000000000000398 .LFB122
     /tmp/ccf9HIjp.s:585    .text:0000000000000420 .LFE122
     /tmp/ccf9HIjp.s:4255   .debug_str:0000000000000891 .LASF166
     /tmp/ccf9HIjp.s:3730   .debug_loc:0000000000000000 .LLST10
     /tmp/ccf9HIjp.s:3750   .debug_loc:000000000000004f .LLST11
     /tmp/ccf9HIjp.s:524    .text:00000000000003bc .LBB18
     /tmp/ccf9HIjp.s:559    .text:00000000000003f8 .LBE18
     /tmp/ccf9HIjp.s:4177   .debug_str:000000000000052b .LASF162
     /tmp/ccf9HIjp.s:3768   .debug_loc:000000000000009b .LLST12
     /tmp/ccf9HIjp.s:4099   .debug_str:0000000000000234 .LASF163
     /tmp/ccf9HIjp.s:3785   .debug_loc:00000000000000e7 .LLST13
     /tmp/ccf9HIjp.s:4189   .debug_str:0000000000000643 .LASF164
     /tmp/ccf9HIjp.s:3807   .debug_loc:0000000000000139 .LLST14
     /tmp/ccf9HIjp.s:4303   .debug_str:00000000000009d3 .LASF165
     /tmp/ccf9HIjp.s:3814   .debug_loc:000000000000015c .LLST15
     /tmp/ccf9HIjp.s:539    .text:00000000000003d8 .LVL51
     /tmp/ccf9HIjp.s:553    .text:00000000000003f4 .LVL54
     /tmp/ccf9HIjp.s:417    .text:0000000000000314 .LFB121
     /tmp/ccf9HIjp.s:496    .text:0000000000000398 .LFE121
     /tmp/ccf9HIjp.s:3830   .debug_loc:0000000000000198 .LLST7
     /tmp/ccf9HIjp.s:4209   .debug_str:00000000000006e5 .LASF167
     /tmp/ccf9HIjp.s:3863   .debug_loc:0000000000000220 .LLST8
     /tmp/ccf9HIjp.s:4101   .debug_str:0000000000000240 .LASF168
     /tmp/ccf9HIjp.s:3888   .debug_loc:0000000000000282 .LLST9
     /tmp/ccf9HIjp.s:440    .text:000000000000033c .LVL38
     /tmp/ccf9HIjp.s:465    .text:0000000000000374 .LVL42
     /tmp/ccf9HIjp.s:337    .text:0000000000000288 .LFB120
     /tmp/ccf9HIjp.s:411    .text:0000000000000314 .LFE120
     /tmp/ccf9HIjp.s:3899   .debug_loc:00000000000002b8 .LLST4
     /tmp/ccf9HIjp.s:4045   .debug_str:0000000000000095 .LASF169
     /tmp/ccf9HIjp.s:3917   .debug_loc:0000000000000304 .LLST5
     /tmp/ccf9HIjp.s:368    .text:00000000000002c4 .LBB17
     /tmp/ccf9HIjp.s:392    .text:00000000000002f8 .LBE17
     /tmp/ccf9HIjp.s:3931   .debug_loc:000000000000033d .LLST6
     /tmp/ccf9HIjp.s:384    .text:00000000000002ec .LVL32
     /tmp/ccf9HIjp.s:360    .text:00000000000002b4 .LVL29
     /tmp/ccf9HIjp.s:366    .text:00000000000002c4 .LVL30
     /tmp/ccf9HIjp.s:269    .text:0000000000000210 .LFB119
     /tmp/ccf9HIjp.s:331    .text:0000000000000288 .LFE119
     /tmp/ccf9HIjp.s:297    .text:0000000000000244 .LBB15
     /tmp/ccf9HIjp.s:307    .text:0000000000000254 .LBE15
     /tmp/ccf9HIjp.s:3943   .debug_loc:0000000000000374 .LLST3
     /tmp/ccf9HIjp.s:303    .text:0000000000000250 .LVL25
     /tmp/ccf9HIjp.s:312    .text:0000000000000260 .LVL27
     /tmp/ccf9HIjp.s:4247   .debug_str:0000000000000844 .LASF175
     /tmp/ccf9HIjp.s:233    .text:0000000000000210 .LFE117
     /tmp/ccf9HIjp.s:3952   .debug_loc:000000000000039a .LLST0
     /tmp/ccf9HIjp.s:75     .text:000000000000008c .LBB12
     /tmp/ccf9HIjp.s:90     .text:00000000000000a4 .LBE12
     /tmp/ccf9HIjp.s:3982   .debug_loc:0000000000000412 .LLST1
     /tmp/ccf9HIjp.s:84     .text:00000000000000a0 .LVL5
     /tmp/ccf9HIjp.s:91     .text:00000000000000a4 .LBB14
     /tmp/ccf9HIjp.s:157    .text:0000000000000168 .LBE14
     /tmp/ccf9HIjp.s:3993   .debug_loc:0000000000000448 .LLST2
GAS LISTING /tmp/ccf9HIjp.s 			page 25


     /tmp/ccf9HIjp.s:126    .text:000000000000011c .LVL8
     /tmp/ccf9HIjp.s:150    .text:0000000000000160 .LVL10
     /tmp/ccf9HIjp.s:48     .text:0000000000000048 .LVL1
     /tmp/ccf9HIjp.s:59     .text:0000000000000070 .LVL2
     /tmp/ccf9HIjp.s:171    .text:0000000000000194 .LVL13
     /tmp/ccf9HIjp.s:179    .text:00000000000001a8 .LVL14
     /tmp/ccf9HIjp.s:184    .text:00000000000001b4 .LVL15
     /tmp/ccf9HIjp.s:188    .text:00000000000001c0 .LVL16
     /tmp/ccf9HIjp.s:201    .text:00000000000001e0 .LVL18
     /tmp/ccf9HIjp.s:4183   .debug_str:0000000000000615 .LASF176
     /tmp/ccf9HIjp.s:4123   .debug_str:000000000000032c .LASF177
     /tmp/ccf9HIjp.s:4273   .debug_str:0000000000000923 .LASF178
     /tmp/ccf9HIjp.s:4323   .debug_str:0000000000000a53 .LASF179
     /tmp/ccf9HIjp.s:4363   .debug_str:0000000000000b8d .LASF180
     /tmp/ccf9HIjp.s:505    .text:0000000000000398 .LVL47
     /tmp/ccf9HIjp.s:529    .text:00000000000003c4 .LVL49
     /tmp/ccf9HIjp.s:577    .text:0000000000000414 .LVL57
     /tmp/ccf9HIjp.s:580    .text:0000000000000418 .LVL58
     /tmp/ccf9HIjp.s:533    .text:00000000000003c8 .LVL50
     /tmp/ccf9HIjp.s:545    .text:00000000000003e4 .LVL52
     /tmp/ccf9HIjp.s:547    .text:00000000000003e8 .LVL53
     /tmp/ccf9HIjp.s:557    .text:00000000000003f8 .LVL55
     /tmp/ccf9HIjp.s:527    .text:00000000000003c0 .LVL48
     /tmp/ccf9HIjp.s:572    .text:000000000000040c .LVL56
     /tmp/ccf9HIjp.s:420    .text:0000000000000314 .LVL36
     /tmp/ccf9HIjp.s:438    .text:0000000000000334 .LVL37
     /tmp/ccf9HIjp.s:475    .text:0000000000000380 .LVL43
     /tmp/ccf9HIjp.s:479    .text:0000000000000388 .LVL44
     /tmp/ccf9HIjp.s:483    .text:000000000000038c .LVL45
     /tmp/ccf9HIjp.s:486    .text:0000000000000390 .LVL46
     /tmp/ccf9HIjp.s:444    .text:0000000000000344 .LVL39
     /tmp/ccf9HIjp.s:458    .text:000000000000035c .LVL41
     /tmp/ccf9HIjp.s:340    .text:0000000000000288 .LVL28
     /tmp/ccf9HIjp.s:404    .text:0000000000000308 .LVL35
     /tmp/ccf9HIjp.s:372    .text:00000000000002cc .LVL31
     /tmp/ccf9HIjp.s:401    .text:0000000000000304 .LVL34
     /tmp/ccf9HIjp.s:296    .text:0000000000000244 .LVL24
     /tmp/ccf9HIjp.s:305    .text:0000000000000254 .LVL26
     /tmp/ccf9HIjp.s:19     .text:0000000000000000 .LVL0
     /tmp/ccf9HIjp.s:222    .text:0000000000000200 .LVL21
     /tmp/ccf9HIjp.s:225    .text:0000000000000204 .LVL22
     /tmp/ccf9HIjp.s:228    .text:0000000000000208 .LVL23
     /tmp/ccf9HIjp.s:74     .text:000000000000008c .LVL4
     /tmp/ccf9HIjp.s:87     .text:00000000000000a4 .LVL6
     /tmp/ccf9HIjp.s:153    .text:0000000000000164 .LVL11
     /tmp/ccf9HIjp.s:156    .text:0000000000000168 .LVL12
     /tmp/ccf9HIjp.s:95     .text:00000000000000ac .LVL7
     /tmp/ccf9HIjp.s:194    .text:00000000000001cc .LVL17
     /tmp/ccf9HIjp.s:206    .text:00000000000001ec .LVL19
     /tmp/ccf9HIjp.s:219    .text:00000000000001fc .LVL20
     /tmp/ccf9HIjp.s:668    .debug_info:0000000000000000 .Ldebug_info0
     /tmp/ccf9HIjp.s:236    .gcc_except_table:0000000000000000 .LLSDA117

UNDEFINED SYMBOLS
_ZN11ObjectCacheC1EPKcmPFvPvES4_NS_12SlabMetaTypeE
_ZN6list_tC1EPS_S0_
_ZN11ObjectCacheD1Ev
GAS LISTING /tmp/ccf9HIjp.s 			page 26


_Unwind_Resume
__gxx_personality_v0
_ZN7NoAlloc9mem_allocEm
_ZN11ObjectCache9printInfoEc
_Z4log2m
_ZN11ObjectCache9alloc_objEv
_ZN11ObjectCache8free_objEPv
_ZN11ObjectCache6shrinkEv
