GAS LISTING /tmp/ccRZR06q.s 			page 1


   1              		.file	"slab.cpp"
   2              		.option nopic
   3              		.option norelax
   4              		.attribute arch, "rv64i2p0_m2p0_a2p0"
   5              		.attribute unaligned_access, 0
   6              		.attribute stack_align, 16
   7              		.text
   8              	.Ltext0:
   9              		.align	2
  10              		.globl	_Z17kmem_cache_createPKcmPFvPvES3_
  12              	_Z17kmem_cache_createPKcmPFvPvES3_:
  13              	.LFB113:
  14              		.file 1 "src/kernel/mmanagement/slab.cpp"
   1:src/kernel/mmanagement/slab.cpp **** #include"../../../h/kernel_lib.h"
   2:src/kernel/mmanagement/slab.cpp **** 
   3:src/kernel/mmanagement/slab.cpp **** // void kmem_init(void *space, int block_num);
   4:src/kernel/mmanagement/slab.cpp **** 
   5:src/kernel/mmanagement/slab.cpp **** kmem_cache_t *kmem_cache_create(const char *name, size_t size,
   6:src/kernel/mmanagement/slab.cpp ****     void (*ctor)(void *),
   7:src/kernel/mmanagement/slab.cpp ****     void (*dtor)(void *)){ // Allocate cache
  15              		.loc 1 7 26
  16              		.cfi_startproc
  17              		.cfi_personality 0x9b,DW.ref.__gxx_personality_v0
  18              		.cfi_lsda 0x1b,.LLSDA113
  19              	.LVL0:
  20 0000 130101FC 		addi	sp,sp,-64
  21              		.cfi_def_cfa_offset 64
  22 0004 233C1102 		sd	ra,56(sp)
  23 0008 23388102 		sd	s0,48(sp)
  24 000c 23349102 		sd	s1,40(sp)
  25 0010 23302103 		sd	s2,32(sp)
  26 0014 233C3101 		sd	s3,24(sp)
  27 0018 23384101 		sd	s4,16(sp)
  28 001c 23345101 		sd	s5,8(sp)
  29              		.cfi_offset 1, -8
  30              		.cfi_offset 8, -16
  31              		.cfi_offset 9, -24
  32              		.cfi_offset 18, -32
  33              		.cfi_offset 19, -40
  34              		.cfi_offset 20, -48
  35              		.cfi_offset 21, -56
  36 0020 13040104 		addi	s0,sp,64
  37              		.cfi_def_cfa 8, 0
  38 0024 13090500 		mv	s2,a0
  39 0028 93890500 		mv	s3,a1
  40 002c 130A0600 		mv	s4,a2
  41 0030 938A0600 		mv	s5,a3
   8:src/kernel/mmanagement/slab.cpp ****     
   9:src/kernel/mmanagement/slab.cpp ****     return new ObjectCache(name, size, ctor, dtor);
  42              		.loc 1 9 5
  43              		.loc 1 9 50 is_stmt 0
  44 0034 13058005 		li	a0,88
  45              	.LVL1:
  46              	.LEHB0:
  47 0038 97000000 		call	_ZN11ObjectCachenwEm
  47      E7800000 
  48              	.LVL2:
GAS LISTING /tmp/ccRZR06q.s 			page 2


  49              	.LEHE0:
  50 0040 93040500 		mv	s1,a0
  51 0044 63000504 		beq	a0,zero,.L1
  52              		.loc 1 9 50 discriminator 1
  53 0048 93070000 		li	a5,0
  54 004c 13870A00 		mv	a4,s5
  55 0050 93060A00 		mv	a3,s4
  56 0054 13860900 		mv	a2,s3
  57 0058 93050900 		mv	a1,s2
  58              	.LEHB1:
  59 005c 97000000 		call	_ZN11ObjectCacheC1EPKcmPFvPvES4_NS_12SlabMetaTypeE
  59      E7800000 
  60              	.LVL3:
  61              	.LEHE1:
  62 0064 6F000002 		j	.L1
  63              	.L4:
  64 0068 13090500 		mv	s2,a0
  65              	.LVL4:
  66              		.loc 1 9 50
  67 006c 13850400 		mv	a0,s1
  68 0070 97000000 		call	_ZN11ObjectCachedlEPv
  68      E7800000 
  69              	.LVL5:
  70 0078 13050900 		mv	a0,s2
  71              	.LEHB2:
  72 007c 97000000 		call	_Unwind_Resume
  72      E7800000 
  73              	.LVL6:
  74              	.LEHE2:
  75              	.L1:
  10:src/kernel/mmanagement/slab.cpp **** 
  11:src/kernel/mmanagement/slab.cpp **** }
  76              		.loc 1 11 1
  77 0084 13850400 		mv	a0,s1
  78 0088 83308103 		ld	ra,56(sp)
  79              		.cfi_restore 1
  80 008c 03340103 		ld	s0,48(sp)
  81              		.cfi_restore 8
  82              		.cfi_def_cfa 2, 64
  83 0090 83348102 		ld	s1,40(sp)
  84              		.cfi_restore 9
  85 0094 03390102 		ld	s2,32(sp)
  86              		.cfi_restore 18
  87              	.LVL7:
  88 0098 83398101 		ld	s3,24(sp)
  89              		.cfi_restore 19
  90              	.LVL8:
  91 009c 033A0101 		ld	s4,16(sp)
  92              		.cfi_restore 20
  93              	.LVL9:
  94 00a0 833A8100 		ld	s5,8(sp)
  95              		.cfi_restore 21
  96              	.LVL10:
  97 00a4 13010104 		addi	sp,sp,64
  98              		.cfi_def_cfa_offset 0
  99 00a8 67800000 		jr	ra
 100              		.cfi_endproc
GAS LISTING /tmp/ccRZR06q.s 			page 3


 101              	.LFE113:
 102              		.globl	__gxx_personality_v0
 103              		.section	.gcc_except_table,"aw",@progbits
 104              	.LLSDA113:
 105 0000 FF       		.byte	0xff
 106 0001 FF       		.byte	0xff
 107 0002 03       		.byte	0x3
 108 0003 27       		.byte	0x27
 109 0004 00000000 		.4byte	.LEHB0-.LFB113
 110 0008 00000000 		.4byte	.LEHE0-.LEHB0
 111 000c 00000000 		.4byte	0
 112 0010 00       		.byte	0
 113 0011 00000000 		.4byte	.LEHB1-.LFB113
 114 0015 00000000 		.4byte	.LEHE1-.LEHB1
 115 0019 00000000 		.4byte	.L4-.LFB113
 116 001d 00       		.byte	0
 117 001e 00000000 		.4byte	.LEHB2-.LFB113
 118 0022 00000000 		.4byte	.LEHE2-.LEHB2
 119 0026 00000000 		.4byte	0
 120 002a 00       		.byte	0
 121              		.text
 123              		.align	2
 124              		.globl	_Z17kmem_cache_shrinkP11ObjectCache
 126              	_Z17kmem_cache_shrinkP11ObjectCache:
 127              	.LFB114:
  12:src/kernel/mmanagement/slab.cpp **** int kmem_cache_shrink(kmem_cache_t *cachep){ // Shrink cache
 128              		.loc 1 12 44 is_stmt 1
 129              		.cfi_startproc
 130              	.LVL11:
 131 00ac 130101FF 		addi	sp,sp,-16
 132              		.cfi_def_cfa_offset 16
 133 00b0 23341100 		sd	ra,8(sp)
 134 00b4 23308100 		sd	s0,0(sp)
 135              		.cfi_offset 1, -8
 136              		.cfi_offset 8, -16
 137 00b8 13040101 		addi	s0,sp,16
 138              		.cfi_def_cfa 8, 0
  13:src/kernel/mmanagement/slab.cpp ****     return cachep->shrink();
 139              		.loc 1 13 5
 140              		.loc 1 13 26 is_stmt 0
 141 00bc 97000000 		call	_ZN11ObjectCache6shrinkEv
 141      E7800000 
 142              	.LVL12:
  14:src/kernel/mmanagement/slab.cpp **** }
 143              		.loc 1 14 1
 144 00c4 83308100 		ld	ra,8(sp)
 145              		.cfi_restore 1
 146 00c8 03340100 		ld	s0,0(sp)
 147              		.cfi_restore 8
 148              		.cfi_def_cfa 2, 16
 149 00cc 13010101 		addi	sp,sp,16
 150              		.cfi_def_cfa_offset 0
 151 00d0 67800000 		jr	ra
 152              		.cfi_endproc
 153              	.LFE114:
 155              		.align	2
 156              		.globl	_Z16kmem_cache_allocP11ObjectCache
GAS LISTING /tmp/ccRZR06q.s 			page 4


 158              	_Z16kmem_cache_allocP11ObjectCache:
 159              	.LFB115:
  15:src/kernel/mmanagement/slab.cpp **** void *kmem_cache_alloc(kmem_cache_t *cachep){// Allocate one object from cache
 160              		.loc 1 15 45 is_stmt 1
 161              		.cfi_startproc
 162              	.LVL13:
 163 00d4 130101FF 		addi	sp,sp,-16
 164              		.cfi_def_cfa_offset 16
 165 00d8 23341100 		sd	ra,8(sp)
 166 00dc 23308100 		sd	s0,0(sp)
 167              		.cfi_offset 1, -8
 168              		.cfi_offset 8, -16
 169 00e0 13040101 		addi	s0,sp,16
 170              		.cfi_def_cfa 8, 0
  16:src/kernel/mmanagement/slab.cpp ****     return cachep->alloc_obj();
 171              		.loc 1 16 5
 172              		.loc 1 16 29 is_stmt 0
 173 00e4 97000000 		call	_ZN11ObjectCache9alloc_objEv
 173      E7800000 
 174              	.LVL14:
  17:src/kernel/mmanagement/slab.cpp **** }
 175              		.loc 1 17 1
 176 00ec 83308100 		ld	ra,8(sp)
 177              		.cfi_restore 1
 178 00f0 03340100 		ld	s0,0(sp)
 179              		.cfi_restore 8
 180              		.cfi_def_cfa 2, 16
 181 00f4 13010101 		addi	sp,sp,16
 182              		.cfi_def_cfa_offset 0
 183 00f8 67800000 		jr	ra
 184              		.cfi_endproc
 185              	.LFE115:
 187              		.align	2
 188              		.globl	_Z15kmem_cache_freeP11ObjectCachePv
 190              	_Z15kmem_cache_freeP11ObjectCachePv:
 191              	.LFB116:
  18:src/kernel/mmanagement/slab.cpp **** void kmem_cache_free(kmem_cache_t *cachep, void *objp){ // Deallocate one object from cache
 192              		.loc 1 18 55 is_stmt 1
 193              		.cfi_startproc
 194              	.LVL15:
 195 00fc 130101FF 		addi	sp,sp,-16
 196              		.cfi_def_cfa_offset 16
 197 0100 23341100 		sd	ra,8(sp)
 198 0104 23308100 		sd	s0,0(sp)
 199              		.cfi_offset 1, -8
 200              		.cfi_offset 8, -16
 201 0108 13040101 		addi	s0,sp,16
 202              		.cfi_def_cfa 8, 0
  19:src/kernel/mmanagement/slab.cpp ****     cachep->free_obj(objp);
 203              		.loc 1 19 5
 204              		.loc 1 19 21 is_stmt 0
 205 010c 97000000 		call	_ZN11ObjectCache8free_objEPv
 205      E7800000 
 206              	.LVL16:
  20:src/kernel/mmanagement/slab.cpp **** }
 207              		.loc 1 20 1
 208 0114 83308100 		ld	ra,8(sp)
GAS LISTING /tmp/ccRZR06q.s 			page 5


 209              		.cfi_restore 1
 210 0118 03340100 		ld	s0,0(sp)
 211              		.cfi_restore 8
 212              		.cfi_def_cfa 2, 16
 213 011c 13010101 		addi	sp,sp,16
 214              		.cfi_def_cfa_offset 0
 215 0120 67800000 		jr	ra
 216              		.cfi_endproc
 217              	.LFE116:
 219              		.align	2
 220              		.globl	_Z7kmallocm
 222              	_Z7kmallocm:
 223              	.LFB117:
  21:src/kernel/mmanagement/slab.cpp **** void *kmalloc(size_t size){ // Alloacate one small memry buffer
 224              		.loc 1 21 27 is_stmt 1
 225              		.cfi_startproc
 226              	.LVL17:
 227 0124 130101FE 		addi	sp,sp,-32
 228              		.cfi_def_cfa_offset 32
 229 0128 233C1100 		sd	ra,24(sp)
 230 012c 23388100 		sd	s0,16(sp)
 231 0130 23349100 		sd	s1,8(sp)
 232              		.cfi_offset 1, -8
 233              		.cfi_offset 8, -16
 234              		.cfi_offset 9, -24
 235 0134 13040102 		addi	s0,sp,32
 236              		.cfi_def_cfa 8, 0
 237 0138 93040500 		mv	s1,a0
  22:src/kernel/mmanagement/slab.cpp ****     return SlabAllocator::getInstance().kmalloc(size);
 238              		.loc 1 22 5
 239              		.loc 1 22 39 is_stmt 0
 240 013c 97000000 		call	_ZN13SlabAllocator11getInstanceEv
 240      E7800000 
 241              	.LVL18:
 242              		.loc 1 22 48
 243 0144 93850400 		mv	a1,s1
 244 0148 97000000 		call	_ZN13SlabAllocator7kmallocEm
 244      E7800000 
 245              	.LVL19:
  23:src/kernel/mmanagement/slab.cpp **** }
 246              		.loc 1 23 1
 247 0150 83308101 		ld	ra,24(sp)
 248              		.cfi_restore 1
 249 0154 03340101 		ld	s0,16(sp)
 250              		.cfi_restore 8
 251              		.cfi_def_cfa 2, 32
 252 0158 83348100 		ld	s1,8(sp)
 253              		.cfi_restore 9
 254              	.LVL20:
 255 015c 13010102 		addi	sp,sp,32
 256              		.cfi_def_cfa_offset 0
 257 0160 67800000 		jr	ra
 258              		.cfi_endproc
 259              	.LFE117:
 261              		.align	2
 262              		.globl	_Z5kfreePv
 264              	_Z5kfreePv:
GAS LISTING /tmp/ccRZR06q.s 			page 6


 265              	.LFB118:
  24:src/kernel/mmanagement/slab.cpp **** void kfree(void *objp){ // Deallocate one small memory buffer
 266              		.loc 1 24 23 is_stmt 1
 267              		.cfi_startproc
 268              	.LVL21:
 269 0164 130101FE 		addi	sp,sp,-32
 270              		.cfi_def_cfa_offset 32
 271 0168 233C1100 		sd	ra,24(sp)
 272 016c 23388100 		sd	s0,16(sp)
 273 0170 23349100 		sd	s1,8(sp)
 274              		.cfi_offset 1, -8
 275              		.cfi_offset 8, -16
 276              		.cfi_offset 9, -24
 277 0174 13040102 		addi	s0,sp,32
 278              		.cfi_def_cfa 8, 0
 279 0178 93040500 		mv	s1,a0
  25:src/kernel/mmanagement/slab.cpp ****     SlabAllocator::getInstance().kfree(objp);
 280              		.loc 1 25 5
 281              		.loc 1 25 32 is_stmt 0
 282 017c 97000000 		call	_ZN13SlabAllocator11getInstanceEv
 282      E7800000 
 283              	.LVL22:
 284              		.loc 1 25 39
 285 0184 93850400 		mv	a1,s1
 286 0188 97000000 		call	_ZN13SlabAllocator5kfreeEPv
 286      E7800000 
 287              	.LVL23:
  26:src/kernel/mmanagement/slab.cpp **** }
 288              		.loc 1 26 1
 289 0190 83308101 		ld	ra,24(sp)
 290              		.cfi_restore 1
 291 0194 03340101 		ld	s0,16(sp)
 292              		.cfi_restore 8
 293              		.cfi_def_cfa 2, 32
 294 0198 83348100 		ld	s1,8(sp)
 295              		.cfi_restore 9
 296              	.LVL24:
 297 019c 13010102 		addi	sp,sp,32
 298              		.cfi_def_cfa_offset 0
 299 01a0 67800000 		jr	ra
 300              		.cfi_endproc
 301              	.LFE118:
 303              		.align	2
 304              		.globl	_Z18kmem_cache_destroyP11ObjectCache
 306              	_Z18kmem_cache_destroyP11ObjectCache:
 307              	.LFB119:
  27:src/kernel/mmanagement/slab.cpp **** void kmem_cache_destroy(kmem_cache_t *cachep){// Deallocate cache
 308              		.loc 1 27 46 is_stmt 1
 309              		.cfi_startproc
 310              	.LVL25:
  28:src/kernel/mmanagement/slab.cpp ****     delete cachep;
 311              		.loc 1 28 5
 312              		.loc 1 28 18 is_stmt 0
 313 01a4 63020504 		beq	a0,zero,.L19
  27:src/kernel/mmanagement/slab.cpp **** void kmem_cache_destroy(kmem_cache_t *cachep){// Deallocate cache
 314              		.loc 1 27 46 discriminator 1
 315 01a8 130101FE 		addi	sp,sp,-32
GAS LISTING /tmp/ccRZR06q.s 			page 7


 316              		.cfi_def_cfa_offset 32
 317 01ac 233C1100 		sd	ra,24(sp)
 318 01b0 23388100 		sd	s0,16(sp)
 319 01b4 23349100 		sd	s1,8(sp)
 320              		.cfi_offset 1, -8
 321              		.cfi_offset 8, -16
 322              		.cfi_offset 9, -24
 323 01b8 13040102 		addi	s0,sp,32
 324              		.cfi_def_cfa 8, 0
 325 01bc 93040500 		mv	s1,a0
 326              		.loc 1 28 12 discriminator 1
 327 01c0 97000000 		call	_ZN11ObjectCacheD1Ev
 327      E7800000 
 328              	.LVL26:
 329 01c8 13850400 		mv	a0,s1
 330 01cc 97000000 		call	_ZN11ObjectCachedlEPv
 330      E7800000 
 331              	.LVL27:
  29:src/kernel/mmanagement/slab.cpp **** }
 332              		.loc 1 29 1 discriminator 1
 333 01d4 83308101 		ld	ra,24(sp)
 334              		.cfi_restore 1
 335 01d8 03340101 		ld	s0,16(sp)
 336              		.cfi_restore 8
 337              		.cfi_def_cfa 2, 32
 338 01dc 83348100 		ld	s1,8(sp)
 339              		.cfi_restore 9
 340              	.LVL28:
 341 01e0 13010102 		addi	sp,sp,32
 342              		.cfi_def_cfa_offset 0
 343 01e4 67800000 		jr	ra
 344              	.LVL29:
 345              	.L19:
 346 01e8 67800000 		ret
 347              		.cfi_endproc
 348              	.LFE119:
 350              		.align	2
 351              		.globl	_Z15kmem_cache_infoP11ObjectCache
 353              	_Z15kmem_cache_infoP11ObjectCache:
 354              	.LFB120:
  30:src/kernel/mmanagement/slab.cpp **** void kmem_cache_info(kmem_cache_t *cachep){ // Print cache info
 355              		.loc 1 30 43 is_stmt 1
 356              		.cfi_startproc
 357              	.LVL30:
 358 01ec 130101FF 		addi	sp,sp,-16
 359              		.cfi_def_cfa_offset 16
 360 01f0 23341100 		sd	ra,8(sp)
 361 01f4 23308100 		sd	s0,0(sp)
 362              		.cfi_offset 1, -8
 363              		.cfi_offset 8, -16
 364 01f8 13040101 		addi	s0,sp,16
 365              		.cfi_def_cfa 8, 0
  31:src/kernel/mmanagement/slab.cpp ****     cachep->printInfo();
 366              		.loc 1 31 5
 367              		.loc 1 31 22 is_stmt 0
 368 01fc 93050000 		li	a1,0
 369 0200 97000000 		call	_ZN11ObjectCache9printInfoEc
GAS LISTING /tmp/ccRZR06q.s 			page 8


 369      E7800000 
 370              	.LVL31:
  32:src/kernel/mmanagement/slab.cpp **** }
 371              		.loc 1 32 1
 372 0208 83308100 		ld	ra,8(sp)
 373              		.cfi_restore 1
 374 020c 03340100 		ld	s0,0(sp)
 375              		.cfi_restore 8
 376              		.cfi_def_cfa 2, 16
 377 0210 13010101 		addi	sp,sp,16
 378              		.cfi_def_cfa_offset 0
 379 0214 67800000 		jr	ra
 380              		.cfi_endproc
 381              	.LFE120:
 383              		.align	2
 384              		.globl	_Z16kmem_cache_errorP11ObjectCache
 386              	_Z16kmem_cache_errorP11ObjectCache:
 387              	.LFB121:
  33:src/kernel/mmanagement/slab.cpp **** int kmem_cache_error(kmem_cache_t *cachep){ // Print error message
 388              		.loc 1 33 43 is_stmt 1
 389              		.cfi_startproc
 390              	.LVL32:
 391 0218 130101FF 		addi	sp,sp,-16
 392              		.cfi_def_cfa_offset 16
 393 021c 23341100 		sd	ra,8(sp)
 394 0220 23308100 		sd	s0,0(sp)
 395              		.cfi_offset 1, -8
 396              		.cfi_offset 8, -16
 397 0224 13040101 		addi	s0,sp,16
 398              		.cfi_def_cfa 8, 0
  34:src/kernel/mmanagement/slab.cpp ****     return cachep->printError();
 399              		.loc 1 34 5
 400              		.loc 1 34 30 is_stmt 0
 401 0228 97000000 		call	_ZN11ObjectCache10printErrorEv
 401      E7800000 
 402              	.LVL33:
  35:src/kernel/mmanagement/slab.cpp **** }
 403              		.loc 1 35 1
 404 0230 83308100 		ld	ra,8(sp)
 405              		.cfi_restore 1
 406 0234 03340100 		ld	s0,0(sp)
 407              		.cfi_restore 8
 408              		.cfi_def_cfa 2, 16
 409 0238 13010101 		addi	sp,sp,16
 410              		.cfi_def_cfa_offset 0
 411 023c 67800000 		jr	ra
 412              		.cfi_endproc
 413              	.LFE121:
 415              	.Letext0:
 416              		.file 2 "src/kernel/mmanagement/../../../h/../h/../lib/hw.h"
 417              		.file 3 "src/kernel/mmanagement/../../../h/../h/../h/../h/list.h"
 418              		.file 4 "src/kernel/mmanagement/../../../h/../h/../h/object_cache.h"
 419              		.file 5 "src/kernel/mmanagement/../../../h/../h/slab_allocator.h"
 420              		.file 6 "src/kernel/mmanagement/../../../h/../h/slab.h"
 421              		.file 7 "src/kernel/mmanagement/../../../h/kernel_lib.h"
 3487              		.align	3
 3490              	DW.ref.__gxx_personality_v0:
GAS LISTING /tmp/ccRZR06q.s 			page 9


 3491 0000 00000000 		.dword	__gxx_personality_v0
 3491      00000000 
 3492              		.ident	"GCC: () 8.3.0"
GAS LISTING /tmp/ccRZR06q.s 			page 10

