GAS LISTING /tmp/ccjvCYuF.s 			page 1


   1              		.file	"userMain.cpp"
   2              		.option nopic
   3              		.option norelax
   4              		.attribute arch, "rv64i2p0_m2p0_a2p0"
   5              		.attribute unaligned_access, 0
   6              		.attribute stack_align, 16
   7              		.text
   8              	.Ltext0:
   9              		.section	.text._ZN10ForkThread3runEv,"axG",@progbits,_ZN10ForkThread3runEv,comdat
  10              		.align	2
  11              		.weak	_ZN10ForkThread3runEv
  13              	_ZN10ForkThread3runEv:
  14              	.LFB116:
  15              		.file 1 "src/user/test/javni_test/prvi/userMain.cpp"
   1:src/user/test/javni_test/prvi/userMain.cpp **** #include "../../../../../h/syscall_c.h"
   2:src/user/test/javni_test/prvi/userMain.cpp **** #include "../../../../../h/syscall_cpp.hpp"
   3:src/user/test/javni_test/prvi/userMain.cpp **** #include "../../printing.hpp"
   4:src/user/test/javni_test/prvi/userMain.cpp **** #include "../../../../../h/kernel_lib.h"
   5:src/user/test/javni_test/prvi/userMain.cpp **** struct thread_data {
   6:src/user/test/javni_test/prvi/userMain.cpp ****     int id;
   7:src/user/test/javni_test/prvi/userMain.cpp **** };
   8:src/user/test/javni_test/prvi/userMain.cpp **** 
   9:src/user/test/javni_test/prvi/userMain.cpp **** class ForkThread : public Thread {
  10:src/user/test/javni_test/prvi/userMain.cpp **** public:
  11:src/user/test/javni_test/prvi/userMain.cpp ****     ForkThread(long _id) noexcept : Thread(), id(_id), finished(false) {}
  12:src/user/test/javni_test/prvi/userMain.cpp ****     virtual void run() {
  16              		.loc 1 12 18
  17              		.cfi_startproc
  18              	.LVL0:
  19 0000 130101FC 		addi	sp,sp,-64
  20              		.cfi_def_cfa_offset 64
  21 0004 233C1102 		sd	ra,56(sp)
  22 0008 23388102 		sd	s0,48(sp)
  23 000c 23349102 		sd	s1,40(sp)
  24 0010 23302103 		sd	s2,32(sp)
  25 0014 233C3101 		sd	s3,24(sp)
  26 0018 23384101 		sd	s4,16(sp)
  27 001c 23345101 		sd	s5,8(sp)
  28              		.cfi_offset 1, -8
  29              		.cfi_offset 8, -16
  30              		.cfi_offset 9, -24
  31              		.cfi_offset 18, -32
  32              		.cfi_offset 19, -40
  33              		.cfi_offset 20, -48
  34              		.cfi_offset 21, -56
  35 0020 13040104 		addi	s0,sp,64
  36              		.cfi_def_cfa 8, 0
  37 0024 13090500 		mv	s2,a0
  13:src/user/test/javni_test/prvi/userMain.cpp ****         printString("Started thread id:"); printInt(id); printString("\n");
  38              		.loc 1 13 9
  39              		.loc 1 13 20 is_stmt 0
  40 0028 17050000 		lla	a0,.LC0
  40      13050500 
  41              	.LVL1:
  42 0030 97000000 		call	_Z11printStringPKc
  42      E7800000 
  43              	.LVL2:
GAS LISTING /tmp/ccjvCYuF.s 			page 2


  44              		.loc 1 13 44 is_stmt 1
  45              		.loc 1 13 52 is_stmt 0
  46 0038 9305A000 		li	a1,10
  47 003c 03350901 		ld	a0,16(s2)
  48 0040 97000000 		call	_Z8printIntmi
  48      E7800000 
  49              	.LVL3:
  50              		.loc 1 13 58 is_stmt 1
  51              		.loc 1 13 69 is_stmt 0
  52 0048 17050000 		lla	a0,.LC1
  52      13050500 
  53 0050 97000000 		call	_Z11printStringPKc
  53      E7800000 
  54              	.LVL4:
  14:src/user/test/javni_test/prvi/userMain.cpp **** 
  15:src/user/test/javni_test/prvi/userMain.cpp ****         ForkThread* thread = new ForkThread(id + 1);
  55              		.loc 1 15 9 is_stmt 1
  56              		.loc 1 15 51 is_stmt 0
  57 0058 13050002 		li	a0,32
  58 005c 97000000 		call	_Znwm
  58      E7800000 
  59              	.LVL5:
  60 0064 130A0500 		mv	s4,a0
  61 0068 63020502 		beq	a0,zero,.L2
  62              		.loc 1 15 45 discriminator 1
  63 006c 83370901 		ld	a5,16(s2)
  64              		.loc 1 15 51 discriminator 1
  65 0070 93871700 		addi	a5,a5,1
  66              	.LVL6:
  67              	.LBB45:
  68              	.LBB46:
  69              	.LBB47:
  70              	.LBB48:
  71              		.file 2 "src/user/test/javni_test/prvi/../../../../../h/syscall_cpp.hpp"
   1:src/user/test/javni_test/prvi/../../../../../h/syscall_cpp.hpp **** #ifndef _syscall_cpp
   2:src/user/test/javni_test/prvi/../../../../../h/syscall_cpp.hpp **** #define _syscall_cpp
   3:src/user/test/javni_test/prvi/../../../../../h/syscall_cpp.hpp **** #include "syscall_c.h"
   4:src/user/test/javni_test/prvi/../../../../../h/syscall_cpp.hpp **** 
   5:src/user/test/javni_test/prvi/../../../../../h/syscall_cpp.hpp **** void* operator new (size_t);
   6:src/user/test/javni_test/prvi/../../../../../h/syscall_cpp.hpp **** void operator delete (void*);
   7:src/user/test/javni_test/prvi/../../../../../h/syscall_cpp.hpp **** 
   8:src/user/test/javni_test/prvi/../../../../../h/syscall_cpp.hpp **** class Thread {
   9:src/user/test/javni_test/prvi/../../../../../h/syscall_cpp.hpp **** public:
  10:src/user/test/javni_test/prvi/../../../../../h/syscall_cpp.hpp ****     Thread (void (*body)(void*), void* arg);
  11:src/user/test/javni_test/prvi/../../../../../h/syscall_cpp.hpp ****     virtual ~Thread ();
  12:src/user/test/javni_test/prvi/../../../../../h/syscall_cpp.hpp ****     int start ();
  13:src/user/test/javni_test/prvi/../../../../../h/syscall_cpp.hpp ****     static void dispatch () { thread_dispatch(); }
  14:src/user/test/javni_test/prvi/../../../../../h/syscall_cpp.hpp ****     static void sleep (time_t time){ time_sleep(time); }
  15:src/user/test/javni_test/prvi/../../../../../h/syscall_cpp.hpp **** protected:
  16:src/user/test/javni_test/prvi/../../../../../h/syscall_cpp.hpp ****     Thread (){ myHandle = nullptr;}
  72              		.loc 2 16 16 is_stmt 1 discriminator 1
  73              		.loc 2 16 25 is_stmt 0 discriminator 1
  74 0074 23340500 		sd	zero,8(a0)
  75              	.LVL7:
  76              	.LBE48:
  77              	.LBE47:
  11:src/user/test/javni_test/prvi/userMain.cpp ****     virtual void run() {
GAS LISTING /tmp/ccjvCYuF.s 			page 3


  78              		.loc 1 11 70 discriminator 1
  79 0078 17070000 		lla	a4,_ZTV10ForkThread+16
  79      13070700 
  80 0080 2330E500 		sd	a4,0(a0)
  81 0084 2338F500 		sd	a5,16(a0)
  82 0088 230C0500 		sb	zero,24(a0)
  83              	.LVL8:
  84              	.L2:
  85              	.LBE46:
  86              	.LBE45:
  16:src/user/test/javni_test/prvi/userMain.cpp ****         ForkThread** threads = (ForkThread** ) mem_alloc(sizeof(ForkThread*) * id);
  87              		.loc 1 16 9 is_stmt 1 discriminator 4
  88              		.loc 1 16 80 is_stmt 0 discriminator 4
  89 008c 03350901 		ld	a0,16(s2)
  90              	.LVL9:
  91              		.loc 1 16 57 discriminator 4
  92 0090 13153500 		slli	a0,a0,3
  93 0094 97000000 		call	mem_alloc
  93      E7800000 
  94              	.LVL10:
  95 009c 93090500 		mv	s3,a0
  96              	.LVL11:
  17:src/user/test/javni_test/prvi/userMain.cpp **** 
  18:src/user/test/javni_test/prvi/userMain.cpp ****         if (threads != nullptr) {
  97              		.loc 1 18 9 is_stmt 1 discriminator 4
  98              	.LBB49:
  99 00a0 63000510 		beq	a0,zero,.L3
 100              	.LBB50:
 101              	.LBB51:
  19:src/user/test/javni_test/prvi/userMain.cpp ****             for (long i = 0; i < id; i++) {
 102              		.loc 1 19 23 is_stmt 0
 103 00a4 93040000 		li	s1,0
 104 00a8 6F004001 		j	.L6
 105              	.LVL12:
 106              	.L5:
  20:src/user/test/javni_test/prvi/userMain.cpp ****                 threads[i] = new ForkThread(id);
 107              		.loc 1 20 26 discriminator 4
 108 00ac 93973400 		slli	a5,s1,3
 109 00b0 B387F900 		add	a5,s3,a5
 110              		.loc 1 20 28 discriminator 4
 111 00b4 23B0A700 		sd	a0,0(a5)
  19:src/user/test/javni_test/prvi/userMain.cpp ****             for (long i = 0; i < id; i++) {
 112              		.loc 1 19 13 discriminator 4
 113 00b8 93841400 		addi	s1,s1,1
 114              	.LVL13:
 115              	.L6:
  19:src/user/test/javni_test/prvi/userMain.cpp ****             for (long i = 0; i < id; i++) {
 116              		.loc 1 19 34 discriminator 2
 117 00bc 83370901 		ld	a5,16(s2)
  19:src/user/test/javni_test/prvi/userMain.cpp ****             for (long i = 0; i < id; i++) {
 118              		.loc 1 19 32 discriminator 2
 119 00c0 63DAF402 		ble	a5,s1,.L4
 120              		.loc 1 20 17 is_stmt 1
 121              		.loc 1 20 47 is_stmt 0
 122 00c4 13050002 		li	a0,32
 123 00c8 97000000 		call	_Znwm
 123      E7800000 
GAS LISTING /tmp/ccjvCYuF.s 			page 4


 124              	.LVL14:
 125 00d0 E30E05FC 		beq	a0,zero,.L5
 126              		.loc 1 20 47 discriminator 1
 127 00d4 83370901 		ld	a5,16(s2)
 128              	.LVL15:
 129              	.LBB52:
 130              	.LBB53:
 131              	.LBB54:
 132              	.LBB55:
 133              		.loc 2 16 16 is_stmt 1 discriminator 1
 134              		.loc 2 16 25 is_stmt 0 discriminator 1
 135 00d8 23340500 		sd	zero,8(a0)
 136              	.LVL16:
 137              	.LBE55:
 138              	.LBE54:
  11:src/user/test/javni_test/prvi/userMain.cpp ****     virtual void run() {
 139              		.loc 1 11 70 discriminator 1
 140 00dc 17070000 		lla	a4,_ZTV10ForkThread+16
 140      13070700 
 141 00e4 2330E500 		sd	a4,0(a0)
 142 00e8 2338F500 		sd	a5,16(a0)
 143 00ec 230C0500 		sb	zero,24(a0)
 144              	.LVL17:
 145              	.LBE53:
 146              	.LBE52:
 147 00f0 6FF0DFFB 		j	.L5
 148              	.L4:
 149              	.LBE51:
  21:src/user/test/javni_test/prvi/userMain.cpp ****             }
  22:src/user/test/javni_test/prvi/userMain.cpp **** 
  23:src/user/test/javni_test/prvi/userMain.cpp ****             if (thread != nullptr) {
 150              		.loc 1 23 13 is_stmt 1
 151              	.LBB56:
 152 00f4 63060A06 		beq	s4,zero,.L7
 153              	.LBB57:
  24:src/user/test/javni_test/prvi/userMain.cpp ****                 if (thread->start() == 0) {
 154              		.loc 1 24 17
 155              	.LBB58:
 156              		.loc 1 24 34 is_stmt 0
 157 00f8 13050A00 		mv	a0,s4
 158 00fc 97000000 		call	_ZN6Thread5startEv
 158      E7800000 
 159              	.LVL18:
 160 0104 930A0500 		mv	s5,a0
 161              		.loc 1 24 17
 162 0108 63140504 		bne	a0,zero,.L8
 163              	.LBB59:
 164              	.LBB60:
  25:src/user/test/javni_test/prvi/userMain.cpp **** 
  26:src/user/test/javni_test/prvi/userMain.cpp ****                 for (int i = 0; i < 50; i++) {
 165              		.loc 1 26 26
 166 010c 93040500 		mv	s1,a0
 167              	.LVL19:
 168 0110 6F000001 		j	.L12
 169              	.LVL20:
 170              	.L10:
 171              	.LBB61:
GAS LISTING /tmp/ccjvCYuF.s 			page 5


  27:src/user/test/javni_test/prvi/userMain.cpp ****                     for (int j = 0; j < 50; j++) {
  28:src/user/test/javni_test/prvi/userMain.cpp **** 
  29:src/user/test/javni_test/prvi/userMain.cpp ****                     }
  30:src/user/test/javni_test/prvi/userMain.cpp ****                     thread_dispatch();
 172              		.loc 1 30 21 is_stmt 1 discriminator 2
 173              		.loc 1 30 36 is_stmt 0 discriminator 2
 174 0114 97000000 		call	thread_dispatch
 174      E7800000 
 175              	.LVL21:
 176              	.LBE61:
  26:src/user/test/javni_test/prvi/userMain.cpp ****                     for (int j = 0; j < 50; j++) {
 177              		.loc 1 26 17 discriminator 2
 178 011c 9B841400 		addiw	s1,s1,1
 179              	.LVL22:
 180              	.L12:
  26:src/user/test/javni_test/prvi/userMain.cpp ****                     for (int j = 0; j < 50; j++) {
 181              		.loc 1 26 35 discriminator 1
 182 0120 93071003 		li	a5,49
 183 0124 63CC9700 		bgt	s1,a5,.L9
 184              	.LBB64:
 185              	.LBB62:
  27:src/user/test/javni_test/prvi/userMain.cpp ****                     for (int j = 0; j < 50; j++) {
 186              		.loc 1 27 30
 187 0128 93870A00 		mv	a5,s5
 188              	.L11:
 189              	.LVL23:
  27:src/user/test/javni_test/prvi/userMain.cpp ****                     for (int j = 0; j < 50; j++) {
 190              		.loc 1 27 39 discriminator 3
 191 012c 13071003 		li	a4,49
 192 0130 E342F7FE 		bgt	a5,a4,.L10
  27:src/user/test/javni_test/prvi/userMain.cpp ****                     for (int j = 0; j < 50; j++) {
 193              		.loc 1 27 21 discriminator 2
 194 0134 9B871700 		addiw	a5,a5,1
 195              	.LVL24:
 196 0138 6FF05FFF 		j	.L11
 197              	.L9:
 198              	.LBE62:
 199              	.LBE64:
 200              	.LBE60:
  31:src/user/test/javni_test/prvi/userMain.cpp ****                 }
  32:src/user/test/javni_test/prvi/userMain.cpp **** 
  33:src/user/test/javni_test/prvi/userMain.cpp ****                     while (!thread->isFinished()) {
 201              		.loc 1 33 21 is_stmt 1
 202              	.LVL25:
 203              	.LBB66:
 204              	.LBB67:
  34:src/user/test/javni_test/prvi/userMain.cpp ****                         thread_dispatch();
  35:src/user/test/javni_test/prvi/userMain.cpp ****                     }
  36:src/user/test/javni_test/prvi/userMain.cpp ****                 }
  37:src/user/test/javni_test/prvi/userMain.cpp ****                 delete thread;
  38:src/user/test/javni_test/prvi/userMain.cpp ****             }
  39:src/user/test/javni_test/prvi/userMain.cpp **** 
  40:src/user/test/javni_test/prvi/userMain.cpp ****             for (long i = 0; i < id; i++) {
  41:src/user/test/javni_test/prvi/userMain.cpp ****                 delete threads[i];
  42:src/user/test/javni_test/prvi/userMain.cpp ****             }
  43:src/user/test/javni_test/prvi/userMain.cpp **** 
  44:src/user/test/javni_test/prvi/userMain.cpp ****             mem_free(threads);
GAS LISTING /tmp/ccjvCYuF.s 			page 6


  45:src/user/test/javni_test/prvi/userMain.cpp ****         }
  46:src/user/test/javni_test/prvi/userMain.cpp **** 
  47:src/user/test/javni_test/prvi/userMain.cpp ****         printString("Finished thread id:"); printInt(id); printString("\n");
  48:src/user/test/javni_test/prvi/userMain.cpp **** 
  49:src/user/test/javni_test/prvi/userMain.cpp ****         finished = true;
  50:src/user/test/javni_test/prvi/userMain.cpp ****     }
  51:src/user/test/javni_test/prvi/userMain.cpp **** 
  52:src/user/test/javni_test/prvi/userMain.cpp ****     bool isFinished() const {
  53:src/user/test/javni_test/prvi/userMain.cpp ****         return finished;
 205              		.loc 1 53 9
 206              		.loc 1 53 16 is_stmt 0
 207 013c 83478A01 		lbu	a5,24(s4)
 208              	.LVL26:
 209              	.LBE67:
 210              	.LBE66:
  33:src/user/test/javni_test/prvi/userMain.cpp ****                         thread_dispatch();
 211              		.loc 1 33 28
 212 0140 63980700 		bne	a5,zero,.L8
  34:src/user/test/javni_test/prvi/userMain.cpp ****                         thread_dispatch();
 213              		.loc 1 34 25 is_stmt 1
  34:src/user/test/javni_test/prvi/userMain.cpp ****                         thread_dispatch();
 214              		.loc 1 34 40 is_stmt 0
 215 0144 97000000 		call	thread_dispatch
 215      E7800000 
 216              	.LVL27:
  33:src/user/test/javni_test/prvi/userMain.cpp ****                         thread_dispatch();
 217              		.loc 1 33 21
 218 014c 6FF01FFF 		j	.L9
 219              	.LVL28:
 220              	.L8:
 221              	.LBE59:
 222              	.LBE58:
  37:src/user/test/javni_test/prvi/userMain.cpp ****             }
 223              		.loc 1 37 17 is_stmt 1
  37:src/user/test/javni_test/prvi/userMain.cpp ****             }
 224              		.loc 1 37 24 is_stmt 0
 225 0150 83370A00 		ld	a5,0(s4)
 226 0154 83B78700 		ld	a5,8(a5)
 227 0158 13050A00 		mv	a0,s4
 228 015c E7800700 		jalr	a5
 229              	.LVL29:
 230              	.L7:
 231              	.LBB70:
 232              	.LBB69:
 233              	.LBB68:
 234              	.LBB65:
 235              	.LBB63:
  27:src/user/test/javni_test/prvi/userMain.cpp **** 
 236              		.loc 1 27 30 discriminator 1
 237 0160 93040000 		li	s1,0
 238 0164 6F004001 		j	.L15
 239              	.LVL30:
 240              	.L17:
 241              	.LBE63:
 242              	.LBE65:
 243              	.LBE68:
 244              	.LBE69:
GAS LISTING /tmp/ccjvCYuF.s 			page 7


 245              	.LBE70:
 246              	.LBE57:
 247              	.LBE56:
 248              	.LBB71:
  41:src/user/test/javni_test/prvi/userMain.cpp ****             }
 249              		.loc 1 41 33 discriminator 1
 250 0168 83370500 		ld	a5,0(a0)
 251 016c 83B78700 		ld	a5,8(a5)
 252 0170 E7800700 		jalr	a5
 253              	.LVL31:
 254              	.L14:
  40:src/user/test/javni_test/prvi/userMain.cpp ****                 delete threads[i];
 255              		.loc 1 40 13 discriminator 2
 256 0174 93841400 		addi	s1,s1,1
 257              	.LVL32:
 258              	.L15:
  40:src/user/test/javni_test/prvi/userMain.cpp ****                 delete threads[i];
 259              		.loc 1 40 34 discriminator 1
 260 0178 83370901 		ld	a5,16(s2)
  40:src/user/test/javni_test/prvi/userMain.cpp ****                 delete threads[i];
 261              		.loc 1 40 32 discriminator 1
 262 017c 63DCF400 		ble	a5,s1,.L13
  41:src/user/test/javni_test/prvi/userMain.cpp ****             }
 263              		.loc 1 41 17 is_stmt 1
  41:src/user/test/javni_test/prvi/userMain.cpp ****             }
 264              		.loc 1 41 33 is_stmt 0
 265 0180 93973400 		slli	a5,s1,3
 266 0184 B387F900 		add	a5,s3,a5
 267 0188 03B50700 		ld	a0,0(a5)
  41:src/user/test/javni_test/prvi/userMain.cpp ****             }
 268              		.loc 1 41 34
 269 018c E31E05FC 		bne	a0,zero,.L17
 270 0190 6FF05FFE 		j	.L14
 271              	.L13:
 272              	.LBE71:
  44:src/user/test/javni_test/prvi/userMain.cpp ****         }
 273              		.loc 1 44 13 is_stmt 1
  44:src/user/test/javni_test/prvi/userMain.cpp ****         }
 274              		.loc 1 44 21 is_stmt 0
 275 0194 13850900 		mv	a0,s3
 276 0198 97000000 		call	mem_free
 276      E7800000 
 277              	.LVL33:
 278              	.L3:
 279              	.LBE50:
 280              	.LBE49:
  47:src/user/test/javni_test/prvi/userMain.cpp **** 
 281              		.loc 1 47 9 is_stmt 1
  47:src/user/test/javni_test/prvi/userMain.cpp **** 
 282              		.loc 1 47 20 is_stmt 0
 283 01a0 17050000 		lla	a0,.LC2
 283      13050500 
 284 01a8 97000000 		call	_Z11printStringPKc
 284      E7800000 
 285              	.LVL34:
  47:src/user/test/javni_test/prvi/userMain.cpp **** 
 286              		.loc 1 47 45 is_stmt 1
GAS LISTING /tmp/ccjvCYuF.s 			page 8


  47:src/user/test/javni_test/prvi/userMain.cpp **** 
 287              		.loc 1 47 53 is_stmt 0
 288 01b0 9305A000 		li	a1,10
 289 01b4 03350901 		ld	a0,16(s2)
 290 01b8 97000000 		call	_Z8printIntmi
 290      E7800000 
 291              	.LVL35:
  47:src/user/test/javni_test/prvi/userMain.cpp **** 
 292              		.loc 1 47 59 is_stmt 1
  47:src/user/test/javni_test/prvi/userMain.cpp **** 
 293              		.loc 1 47 70 is_stmt 0
 294 01c0 17050000 		lla	a0,.LC1
 294      13050500 
 295 01c8 97000000 		call	_Z11printStringPKc
 295      E7800000 
 296              	.LVL36:
  49:src/user/test/javni_test/prvi/userMain.cpp ****     }
 297              		.loc 1 49 9 is_stmt 1
  49:src/user/test/javni_test/prvi/userMain.cpp ****     }
 298              		.loc 1 49 18 is_stmt 0
 299 01d0 93071000 		li	a5,1
 300 01d4 230CF900 		sb	a5,24(s2)
  50:src/user/test/javni_test/prvi/userMain.cpp **** 
 301              		.loc 1 50 5
 302 01d8 83308103 		ld	ra,56(sp)
 303              		.cfi_restore 1
 304 01dc 03340103 		ld	s0,48(sp)
 305              		.cfi_restore 8
 306              		.cfi_def_cfa 2, 64
 307 01e0 83348102 		ld	s1,40(sp)
 308              		.cfi_restore 9
 309 01e4 03390102 		ld	s2,32(sp)
 310              		.cfi_restore 18
 311              	.LVL37:
 312 01e8 83398101 		ld	s3,24(sp)
 313              		.cfi_restore 19
 314              	.LVL38:
 315 01ec 033A0101 		ld	s4,16(sp)
 316              		.cfi_restore 20
 317              	.LVL39:
 318 01f0 833A8100 		ld	s5,8(sp)
 319              		.cfi_restore 21
 320 01f4 13010104 		addi	sp,sp,64
 321              		.cfi_def_cfa_offset 0
 322 01f8 67800000 		jr	ra
 323              		.cfi_endproc
 324              	.LFE116:
 326              		.section	.text._ZN10ForkThreadD2Ev,"axG",@progbits,_ZN10ForkThreadD5Ev,comdat
 327              		.align	2
 328              		.weak	_ZN10ForkThreadD2Ev
 330              	_ZN10ForkThreadD2Ev:
 331              	.LFB121:
   9:src/user/test/javni_test/prvi/userMain.cpp **** public:
 332              		.loc 1 9 7 is_stmt 1
 333              		.cfi_startproc
 334              	.LVL40:
 335 0000 130101FF 		addi	sp,sp,-16
GAS LISTING /tmp/ccjvCYuF.s 			page 9


 336              		.cfi_def_cfa_offset 16
 337 0004 23341100 		sd	ra,8(sp)
 338 0008 23308100 		sd	s0,0(sp)
 339              		.cfi_offset 1, -8
 340              		.cfi_offset 8, -16
 341 000c 13040101 		addi	s0,sp,16
 342              		.cfi_def_cfa 8, 0
 343              	.LBB72:
   9:src/user/test/javni_test/prvi/userMain.cpp **** public:
 344              		.loc 1 9 7 is_stmt 0
 345 0010 97070000 		lla	a5,_ZTV10ForkThread+16
 345      93870700 
 346 0018 2330F500 		sd	a5,0(a0)
 347 001c 97000000 		call	_ZN6ThreadD2Ev
 347      E7800000 
 348              	.LVL41:
 349              	.LBE72:
 350 0024 83308100 		ld	ra,8(sp)
 351              		.cfi_restore 1
 352 0028 03340100 		ld	s0,0(sp)
 353              		.cfi_restore 8
 354              		.cfi_def_cfa 2, 16
 355 002c 13010101 		addi	sp,sp,16
 356              		.cfi_def_cfa_offset 0
 357 0030 67800000 		jr	ra
 358              		.cfi_endproc
 359              	.LFE121:
 361              		.weak	_ZN10ForkThreadD1Ev
 362              		.set	_ZN10ForkThreadD1Ev,_ZN10ForkThreadD2Ev
 363              		.section	.text._ZN10ForkThreadD0Ev,"axG",@progbits,_ZN10ForkThreadD5Ev,comdat
 364              		.align	2
 365              		.weak	_ZN10ForkThreadD0Ev
 367              	_ZN10ForkThreadD0Ev:
 368              	.LFB123:
   9:src/user/test/javni_test/prvi/userMain.cpp **** public:
 369              		.loc 1 9 7 is_stmt 1
 370              		.cfi_startproc
 371              	.LVL42:
 372 0000 130101FE 		addi	sp,sp,-32
 373              		.cfi_def_cfa_offset 32
 374 0004 233C1100 		sd	ra,24(sp)
 375 0008 23388100 		sd	s0,16(sp)
 376 000c 23349100 		sd	s1,8(sp)
 377              		.cfi_offset 1, -8
 378              		.cfi_offset 8, -16
 379              		.cfi_offset 9, -24
 380 0010 13040102 		addi	s0,sp,32
 381              		.cfi_def_cfa 8, 0
 382 0014 93040500 		mv	s1,a0
 383              	.LVL43:
 384              	.LBB73:
 385              	.LBB74:
   9:src/user/test/javni_test/prvi/userMain.cpp **** public:
 386              		.loc 1 9 7 is_stmt 0
 387 0018 97070000 		lla	a5,_ZTV10ForkThread+16
 387      93870700 
 388 0020 2330F500 		sd	a5,0(a0)
GAS LISTING /tmp/ccjvCYuF.s 			page 10


 389 0024 97000000 		call	_ZN6ThreadD2Ev
 389      E7800000 
 390              	.LVL44:
 391              	.LBE74:
 392              	.LBE73:
 393 002c 13850400 		mv	a0,s1
 394 0030 97000000 		call	_ZdlPv
 394      E7800000 
 395              	.LVL45:
 396 0038 83308101 		ld	ra,24(sp)
 397              		.cfi_restore 1
 398 003c 03340101 		ld	s0,16(sp)
 399              		.cfi_restore 8
 400              		.cfi_def_cfa 2, 32
 401 0040 83348100 		ld	s1,8(sp)
 402              		.cfi_restore 9
 403              	.LVL46:
 404 0044 13010102 		addi	sp,sp,32
 405              		.cfi_def_cfa_offset 0
 406 0048 67800000 		jr	ra
 407              		.cfi_endproc
 408              	.LFE123:
 410              		.text
 411              		.align	2
 412              		.globl	_Z8userMainv
 414              	_Z8userMainv:
 415              	.LFB118:
  54:src/user/test/javni_test/prvi/userMain.cpp ****     }
  55:src/user/test/javni_test/prvi/userMain.cpp **** 
  56:src/user/test/javni_test/prvi/userMain.cpp **** private:
  57:src/user/test/javni_test/prvi/userMain.cpp ****     long id;
  58:src/user/test/javni_test/prvi/userMain.cpp ****     bool finished;
  59:src/user/test/javni_test/prvi/userMain.cpp **** };
  60:src/user/test/javni_test/prvi/userMain.cpp **** 
  61:src/user/test/javni_test/prvi/userMain.cpp **** 
  62:src/user/test/javni_test/prvi/userMain.cpp **** 
  63:src/user/test/javni_test/prvi/userMain.cpp **** void userMain() {
 416              		.loc 1 63 17 is_stmt 1
 417              		.cfi_startproc
 418              		.cfi_personality 0x9b,DW.ref.__gxx_personality_v0
 419              		.cfi_lsda 0x1b,.LLSDA118
 420 0000 130101FC 		addi	sp,sp,-64
 421              		.cfi_def_cfa_offset 64
 422 0004 233C1102 		sd	ra,56(sp)
 423 0008 23388102 		sd	s0,48(sp)
 424 000c 23349102 		sd	s1,40(sp)
 425              		.cfi_offset 1, -8
 426              		.cfi_offset 8, -16
 427              		.cfi_offset 9, -24
 428 0010 13040104 		addi	s0,sp,64
 429              		.cfi_def_cfa 8, 0
  64:src/user/test/javni_test/prvi/userMain.cpp ****     ForkThread thread(1);
 430              		.loc 1 64 5
 431              	.LVL47:
 432              	.LBB75:
 433              	.LBB76:
 434              	.LBB77:
GAS LISTING /tmp/ccjvCYuF.s 			page 11


 435              	.LBB78:
 436              	.LBB79:
 437              	.LBB80:
 438              		.loc 2 16 16
 439              		.loc 2 16 25 is_stmt 0
 440 0014 233404FC 		sd	zero,-56(s0)
 441              	.LVL48:
 442              	.LBE80:
 443              	.LBE79:
 444              	.LBE78:
  11:src/user/test/javni_test/prvi/userMain.cpp ****     virtual void run() {
 445              		.loc 1 11 70
 446 0018 97070000 		lla	a5,_ZTV10ForkThread+16
 446      93870700 
 447 0020 2330F4FC 		sd	a5,-64(s0)
 448 0024 93071000 		li	a5,1
 449 0028 2338F4FC 		sd	a5,-48(s0)
 450 002c 230C04FC 		sb	zero,-40(s0)
 451              	.LVL49:
 452              	.LBE77:
 453              	.LBE76:
 454              	.LBE75:
  65:src/user/test/javni_test/prvi/userMain.cpp **** 
  66:src/user/test/javni_test/prvi/userMain.cpp ****     thread.start();
 455              		.loc 1 66 5 is_stmt 1
 456              		.loc 1 66 17 is_stmt 0
 457 0030 130504FC 		addi	a0,s0,-64
 458              	.LEHB0:
 459 0034 97000000 		call	_ZN6Thread5startEv
 459      E7800000 
 460              	.LVL50:
 461              	.L24:
  67:src/user/test/javni_test/prvi/userMain.cpp **** 
  68:src/user/test/javni_test/prvi/userMain.cpp ****     while (!thread.isFinished()) {
 462              		.loc 1 68 5 is_stmt 1
 463              	.LBB81:
 464              	.LBB82:
  53:src/user/test/javni_test/prvi/userMain.cpp ****     }
 465              		.loc 1 53 9
  53:src/user/test/javni_test/prvi/userMain.cpp ****     }
 466              		.loc 1 53 16 is_stmt 0
 467 003c 834784FD 		lbu	a5,-40(s0)
 468              	.LVL51:
 469              	.LBE82:
 470              	.LBE81:
 471              		.loc 1 68 12
 472 0040 63980700 		bne	a5,zero,.L23
  69:src/user/test/javni_test/prvi/userMain.cpp ****         thread_dispatch();
 473              		.loc 1 69 9 is_stmt 1
 474              		.loc 1 69 24 is_stmt 0
 475 0044 97000000 		call	thread_dispatch
 475      E7800000 
 476              	.LVL52:
 477 004c 6FF01FFF 		j	.L24
 478              	.L23:
  70:src/user/test/javni_test/prvi/userMain.cpp ****     }
  71:src/user/test/javni_test/prvi/userMain.cpp **** 
GAS LISTING /tmp/ccjvCYuF.s 			page 12


  72:src/user/test/javni_test/prvi/userMain.cpp ****     
  73:src/user/test/javni_test/prvi/userMain.cpp ****     while(1){
 479              		.loc 1 73 5 is_stmt 1
  74:src/user/test/javni_test/prvi/userMain.cpp ****         printString("a");
 480              		.loc 1 74 9
 481              		.loc 1 74 20 is_stmt 0
 482 0050 17050000 		lla	a0,.LC3
 482      13050500 
 483 0058 97000000 		call	_Z11printStringPKc
 483      E7800000 
 484              	.LVL53:
  75:src/user/test/javni_test/prvi/userMain.cpp ****         time_sleep(10);
 485              		.loc 1 75 9 is_stmt 1
 486              		.loc 1 75 19 is_stmt 0
 487 0060 1305A000 		li	a0,10
 488 0064 97000000 		call	time_sleep
 488      E7800000 
 489              	.LVL54:
 490              	.LEHE0:
 491 006c 6FF05FFE 		j	.L23
 492              	.L26:
 493 0070 93040500 		mv	s1,a0
 494              	.LVL55:
 495              	.LBB83:
 496              	.LBB84:
   9:src/user/test/javni_test/prvi/userMain.cpp **** public:
 497              		.loc 1 9 7
 498 0074 97070000 		lla	a5,_ZTV10ForkThread+16
 498      93870700 
 499 007c 2330F4FC 		sd	a5,-64(s0)
 500 0080 130504FC 		addi	a0,s0,-64
 501              	.LVL56:
 502 0084 97000000 		call	_ZN6ThreadD2Ev
 502      E7800000 
 503              	.LVL57:
 504 008c 13850400 		mv	a0,s1
 505              	.LEHB1:
 506 0090 97000000 		call	_Unwind_Resume
 506      E7800000 
 507              	.LVL58:
 508              	.LEHE1:
 509              	.LBE84:
 510              	.LBE83:
 511              		.cfi_endproc
 512              	.LFE118:
 513              		.globl	__gxx_personality_v0
 514              		.section	.gcc_except_table,"aw",@progbits
 515              	.LLSDA118:
 516 0000 FF       		.byte	0xff
 517 0001 FF       		.byte	0xff
 518 0002 03       		.byte	0x3
 519 0003 1A       		.byte	0x1a
 520 0004 00000000 		.4byte	.LEHB0-.LFB118
 521 0008 00000000 		.4byte	.LEHE0-.LEHB0
 522 000c 00000000 		.4byte	.L26-.LFB118
 523 0010 00       		.byte	0
 524 0011 00000000 		.4byte	.LEHB1-.LFB118
GAS LISTING /tmp/ccjvCYuF.s 			page 13


 525 0015 00000000 		.4byte	.LEHE1-.LEHB1
 526 0019 00000000 		.4byte	0
 527 001d 00       		.byte	0
 528              		.text
 530              		.align	2
 531              		.globl	_Z15userMainWrapperPv
 533              	_Z15userMainWrapperPv:
 534              	.LFB119:
  76:src/user/test/javni_test/prvi/userMain.cpp ****     }
  77:src/user/test/javni_test/prvi/userMain.cpp ****     printString("User main finished\n");
  78:src/user/test/javni_test/prvi/userMain.cpp **** }
  79:src/user/test/javni_test/prvi/userMain.cpp **** 
  80:src/user/test/javni_test/prvi/userMain.cpp **** void userMainWrapper(void*)
  81:src/user/test/javni_test/prvi/userMain.cpp **** {
 535              		.loc 1 81 1 is_stmt 1
 536              		.cfi_startproc
 537 0098 130101FF 		addi	sp,sp,-16
 538              		.cfi_def_cfa_offset 16
 539 009c 23341100 		sd	ra,8(sp)
 540 00a0 23308100 		sd	s0,0(sp)
 541              		.cfi_offset 1, -8
 542              		.cfi_offset 8, -16
 543 00a4 13040101 		addi	s0,sp,16
 544              		.cfi_def_cfa 8, 0
  82:src/user/test/javni_test/prvi/userMain.cpp ****     userMain();
 545              		.loc 1 82 5
 546              		.loc 1 82 13 is_stmt 0
 547 00a8 97000000 		call	_Z8userMainv
 547      E7800000 
 548              	.LVL59:
 549              		.cfi_endproc
 550              	.LFE119:
 552              		.weak	_ZTV10ForkThread
 553              		.section	.rodata._ZTV10ForkThread,"aG",@progbits,_ZTV10ForkThread,comdat
 554              		.align	3
 557              	_ZTV10ForkThread:
 558 0000 00000000 		.dword	0
 558      00000000 
 559 0008 00000000 		.dword	0
 559      00000000 
 560 0010 00000000 		.dword	_ZN10ForkThreadD1Ev
 560      00000000 
 561 0018 00000000 		.dword	_ZN10ForkThreadD0Ev
 561      00000000 
 562 0020 00000000 		.dword	_ZN10ForkThread3runEv
 562      00000000 
 563              		.section	.rodata._ZN10ForkThread3runEv.str1.8,"aMS",@progbits,1
 564              		.align	3
 565              	.LC0:
 566 0000 53746172 		.string	"Started thread id:"
 566      74656420 
 566      74687265 
 566      61642069 
 566      643A00
 567 0013 00000000 		.zero	5
 567      00
 568              	.LC1:
GAS LISTING /tmp/ccjvCYuF.s 			page 14


 569 0018 0A00     		.string	"\n"
 570 001a 00000000 		.zero	6
 570      0000
 571              	.LC2:
 572 0020 46696E69 		.string	"Finished thread id:"
 572      73686564 
 572      20746872 
 572      65616420 
 572      69643A00 
 573              		.section	.rodata.str1.8,"aMS",@progbits,1
 574              		.align	3
 575              	.LC3:
 576 0000 6100     		.string	"a"
 577              		.text
 578              	.Letext0:
 579              		.file 3 "src/user/test/javni_test/prvi/../../../../../h/../lib/hw.h"
 580              		.file 4 "src/user/test/javni_test/prvi/../../../../../h/../h/slab.h"
 581              		.file 5 "src/user/test/javni_test/prvi/../../../../../h/kernel_lib.h"
 582              		.file 6 "src/user/test/javni_test/prvi/../../../../../h/syscall_c.h"
 583              		.file 7 "src/user/test/javni_test/prvi/../../printing.hpp"
 2771              		.align	3
 2774              	DW.ref.__gxx_personality_v0:
 2775 0000 00000000 		.dword	__gxx_personality_v0
 2775      00000000 
 2776              		.ident	"GCC: () 8.3.0"
GAS LISTING /tmp/ccjvCYuF.s 			page 15

