GAS LISTING /tmp/ccGiF3FD.s 			page 1


   1              		.file	"interrupt_cpp.cpp"
   2              		.option nopic
   3              		.option norelax
   4              		.attribute arch, "rv64i2p0_m2p0_a2p0"
   5              		.attribute unaligned_access, 0
   6              		.attribute stack_align, 16
   7              		.text
   8              	.Ltext0:
   9              		.align	2
  10              		.globl	_Z13timer_handlerv
  12              	_Z13timer_handlerv:
  13              	.LFB68:
  14              		.file 1 "src/cpp/interrupt_cpp.cpp"
   1:src/cpp/interrupt_cpp.cpp **** #include"../../h/KInclude.hpp"
   2:src/cpp/interrupt_cpp.cpp **** 
   3:src/cpp/interrupt_cpp.cpp **** enum sysCallNum
   4:src/cpp/interrupt_cpp.cpp **** {
   5:src/cpp/interrupt_cpp.cpp ****     MA = 0x1, 
   6:src/cpp/interrupt_cpp.cpp ****     MF = 0x2,
   7:src/cpp/interrupt_cpp.cpp ****     TC = 0x11,
   8:src/cpp/interrupt_cpp.cpp ****     TE = 0x12,
   9:src/cpp/interrupt_cpp.cpp ****     TD = 0x13,
  10:src/cpp/interrupt_cpp.cpp ****     SO = 0x21,
  11:src/cpp/interrupt_cpp.cpp ****     SC = 0x22,
  12:src/cpp/interrupt_cpp.cpp ****     SW = 0x23,
  13:src/cpp/interrupt_cpp.cpp ****     SS = 0x24,
  14:src/cpp/interrupt_cpp.cpp ****     DTH = 0x69,
  15:src/cpp/interrupt_cpp.cpp ****     TS = 0x31,
  16:src/cpp/interrupt_cpp.cpp ****     GC = 0x41,
  17:src/cpp/interrupt_cpp.cpp ****     PC = 0x42,     
  18:src/cpp/interrupt_cpp.cpp **** };
  19:src/cpp/interrupt_cpp.cpp **** 
  20:src/cpp/interrupt_cpp.cpp **** enum intNum
  21:src/cpp/interrupt_cpp.cpp **** {
  22:src/cpp/interrupt_cpp.cpp ****     IH = 0x8000000000000009,
  23:src/cpp/interrupt_cpp.cpp ****     IT = 0x8000000000000001,
  24:src/cpp/interrupt_cpp.cpp ****     IS = 9,
  25:src/cpp/interrupt_cpp.cpp ****     IU = 8,
  26:src/cpp/interrupt_cpp.cpp **** };
  27:src/cpp/interrupt_cpp.cpp **** 
  28:src/cpp/interrupt_cpp.cpp **** void timer_handler()
  29:src/cpp/interrupt_cpp.cpp **** {
  15              		.loc 1 29 1
  16              		.cfi_startproc
  17 0000 130101FD 		addi	sp,sp,-48
  18              		.cfi_def_cfa_offset 48
  19 0004 23341102 		sd	ra,40(sp)
  20 0008 23308102 		sd	s0,32(sp)
  21 000c 233C9100 		sd	s1,24(sp)
  22 0010 23382101 		sd	s2,16(sp)
  23              		.cfi_offset 1, -8
  24              		.cfi_offset 8, -16
  25              		.cfi_offset 9, -24
  26              		.cfi_offset 18, -32
  27 0014 13040103 		addi	s0,sp,48
  28              		.cfi_def_cfa 8, 0
  30:src/cpp/interrupt_cpp.cpp ****     Scheduler::update_sleep();
GAS LISTING /tmp/ccGiF3FD.s 			page 2


  29              		.loc 1 30 5
  30              		.loc 1 30 28 is_stmt 0
  31 0018 97000000 		call	_ZN9Scheduler12update_sleepEv
  31      E7800000 
  32              	.LVL0:
  31:src/cpp/interrupt_cpp.cpp **** 
  32:src/cpp/interrupt_cpp.cpp ****     //uvecavanje vremena koriscenja procesora tekuceg thread
  33:src/cpp/interrupt_cpp.cpp ****     TCB::timeSliceCounter++;
  33              		.loc 1 33 5 is_stmt 1
  34              		.loc 1 33 26 is_stmt 0
  35 0020 17070000 		lla	a4,_ZN3TCB16timeSliceCounterE
  35      13070700 
  36 0028 83370700 		ld	a5,0(a4)
  37 002c 93871700 		addi	a5,a5,1
  38 0030 2330F700 		sd	a5,0(a4)
  34:src/cpp/interrupt_cpp.cpp ****     
  35:src/cpp/interrupt_cpp.cpp ****     if(TCB::timeSliceCounter >= TCB::running->getTimeSlice())
  39              		.loc 1 35 5 is_stmt 1
  40              	.LBB102:
  41              		.loc 1 35 59 is_stmt 0
  42 0034 17070000 		lla	a4,_ZN3TCB7runningE
  42      13070700 
  43 003c 03370700 		ld	a4,0(a4)
  44              	.LVL1:
  45              	.LBB103:
  46              	.LBB104:
  47              		.file 2 "src/cpp/../../h/../h/../h/tcb.hpp"
   1:src/cpp/../../h/../h/../h/tcb.hpp **** #ifndef __tcb__h
   2:src/cpp/../../h/../h/../h/tcb.hpp **** #define __tcb__h
   3:src/cpp/../../h/../h/../h/tcb.hpp **** 
   4:src/cpp/../../h/../h/../h/tcb.hpp **** #include"../h/memory_allocator.hpp"
   5:src/cpp/../../h/../h/../h/tcb.hpp **** 
   6:src/cpp/../../h/../h/../h/tcb.hpp **** class KSemaphore;
   7:src/cpp/../../h/../h/../h/tcb.hpp **** 
   8:src/cpp/../../h/../h/../h/tcb.hpp **** class TCB{
   9:src/cpp/../../h/../h/../h/tcb.hpp ****     
  10:src/cpp/../../h/../h/../h/tcb.hpp **** public:
  11:src/cpp/../../h/../h/../h/tcb.hpp ****     //alokacija
  12:src/cpp/../../h/../h/../h/tcb.hpp ****     #include"../h/kernel_operators.hpp"
  13:src/cpp/../../h/../h/../h/tcb.hpp ****     
  14:src/cpp/../../h/../h/../h/tcb.hpp ****     using Body = void (*)(void*);
  15:src/cpp/../../h/../h/../h/tcb.hpp ****     enum TCBState{
  16:src/cpp/../../h/../h/../h/tcb.hpp ****         BLOCKED,
  17:src/cpp/../../h/../h/../h/tcb.hpp ****         READY,
  18:src/cpp/../../h/../h/../h/tcb.hpp ****         FINISHED,
  19:src/cpp/../../h/../h/../h/tcb.hpp ****         SLEEPING
  20:src/cpp/../../h/../h/../h/tcb.hpp ****     };
  21:src/cpp/../../h/../h/../h/tcb.hpp ****     
  22:src/cpp/../../h/../h/../h/tcb.hpp ****     ~TCB(){ 
  23:src/cpp/../../h/../h/../h/tcb.hpp ****         MemoryAllocator& allocator = MemoryAllocator::getInstance(); 
  24:src/cpp/../../h/../h/../h/tcb.hpp ****         if(!allocator.invalidFreeAddress(this))
  25:src/cpp/../../h/../h/../h/tcb.hpp ****             allocator.mem_free(stack);
  26:src/cpp/../../h/../h/../h/tcb.hpp ****     }
  27:src/cpp/../../h/../h/../h/tcb.hpp ****     
  28:src/cpp/../../h/../h/../h/tcb.hpp ****     //nestaticki metodi
  29:src/cpp/../../h/../h/../h/tcb.hpp ****     void setState(TCBState s) {state = s;}
  30:src/cpp/../../h/../h/../h/tcb.hpp ****     TCBState getState() const{ return state; }
GAS LISTING /tmp/ccGiF3FD.s 			page 3


  31:src/cpp/../../h/../h/../h/tcb.hpp ****     void finish() { state = FINISHED; }
  32:src/cpp/../../h/../h/../h/tcb.hpp ****     bool isFinished(){ return state == FINISHED; }
  33:src/cpp/../../h/../h/../h/tcb.hpp ****     uint64 getTimeSlice() const { return timeSlice; }
  48              		.loc 2 33 35 is_stmt 1
  49              		.loc 2 33 42 is_stmt 0
  50 0040 03370703 		ld	a4,48(a4)
  51              	.LVL2:
  52              	.LBE104:
  53              	.LBE103:
  54              		.loc 1 35 5
  55 0044 63F2E702 		bgeu	a5,a4,.L4
  56              	.L2:
  57              	.LBE102:
  36:src/cpp/interrupt_cpp.cpp ****     {
  37:src/cpp/interrupt_cpp.cpp ****         uint64 sstatus = Riscv::r_sstatus(),
  38:src/cpp/interrupt_cpp.cpp ****         sepc = Riscv::r_sepc();
  39:src/cpp/interrupt_cpp.cpp ****         
  40:src/cpp/interrupt_cpp.cpp ****         TCB::timeSliceCounter = 0;
  41:src/cpp/interrupt_cpp.cpp ****         
  42:src/cpp/interrupt_cpp.cpp ****         TCB::yield();
  43:src/cpp/interrupt_cpp.cpp **** 
  44:src/cpp/interrupt_cpp.cpp ****         Riscv::w_sstatus(sstatus);
  45:src/cpp/interrupt_cpp.cpp ****         Riscv::w_sepc(sepc);
  46:src/cpp/interrupt_cpp.cpp ****     } 
  47:src/cpp/interrupt_cpp.cpp **** 
  48:src/cpp/interrupt_cpp.cpp ****     
  49:src/cpp/interrupt_cpp.cpp ****     Riscv::mc_sip(Riscv::SIP_SSIE);
  58              		.loc 1 49 5 is_stmt 1
  59              	.LVL3:
  60              	.LBB114:
  61              	.LBB115:
  62              		.file 3 "src/cpp/../../h/../h/riscv.hpp"
   1:src/cpp/../../h/../h/riscv.hpp **** #ifndef __riscv__
   2:src/cpp/../../h/../h/riscv.hpp **** #define __riscv__
   3:src/cpp/../../h/../h/riscv.hpp **** 
   4:src/cpp/../../h/../h/riscv.hpp **** #include"../lib/hw.h"
   5:src/cpp/../../h/../h/riscv.hpp **** 
   6:src/cpp/../../h/../h/riscv.hpp **** class Riscv{
   7:src/cpp/../../h/../h/riscv.hpp **** public:
   8:src/cpp/../../h/../h/riscv.hpp ****     
   9:src/cpp/../../h/../h/riscv.hpp ****     static void w_scause(uint64);
  10:src/cpp/../../h/../h/riscv.hpp ****     static uint64 r_scause(); 
  11:src/cpp/../../h/../h/riscv.hpp **** 
  12:src/cpp/../../h/../h/riscv.hpp ****     static void w_sepc(uint64);
  13:src/cpp/../../h/../h/riscv.hpp ****     static uint64 r_sepc();
  14:src/cpp/../../h/../h/riscv.hpp ****     static void ni_sepc();
  15:src/cpp/../../h/../h/riscv.hpp **** 
  16:src/cpp/../../h/../h/riscv.hpp ****     static void w_stvec(uint64);
  17:src/cpp/../../h/../h/riscv.hpp ****     static uint64 r_stvec();
  18:src/cpp/../../h/../h/riscv.hpp ****      
  19:src/cpp/../../h/../h/riscv.hpp ****     static void w_stval(uint64);
  20:src/cpp/../../h/../h/riscv.hpp ****     static uint64 r_stval();
  21:src/cpp/../../h/../h/riscv.hpp ****     
  22:src/cpp/../../h/../h/riscv.hpp ****     enum BitMaskSip{
  23:src/cpp/../../h/../h/riscv.hpp ****         SIP_SSIE = (1<<1),
  24:src/cpp/../../h/../h/riscv.hpp ****         SIP_STIE = (1<<5),
  25:src/cpp/../../h/../h/riscv.hpp ****         SIP_SEIE = (1<<9),
GAS LISTING /tmp/ccGiF3FD.s 			page 4


  26:src/cpp/../../h/../h/riscv.hpp ****     };
  27:src/cpp/../../h/../h/riscv.hpp **** 
  28:src/cpp/../../h/../h/riscv.hpp ****     static void ms_sip(uint64);
  29:src/cpp/../../h/../h/riscv.hpp ****     static void mc_sip(uint64);
  30:src/cpp/../../h/../h/riscv.hpp **** 
  31:src/cpp/../../h/../h/riscv.hpp ****     static void w_sip(uint64);
  32:src/cpp/../../h/../h/riscv.hpp ****     static uint64 r_sip();
  33:src/cpp/../../h/../h/riscv.hpp **** 
  34:src/cpp/../../h/../h/riscv.hpp ****     enum BitMaskSstatus{
  35:src/cpp/../../h/../h/riscv.hpp ****         SSTATUS_SIE = (1<<1),
  36:src/cpp/../../h/../h/riscv.hpp ****         SSTATUS_SPIE = (1<<5),
  37:src/cpp/../../h/../h/riscv.hpp ****         SSTATUS_SPP = (1<<8),
  38:src/cpp/../../h/../h/riscv.hpp ****     };
  39:src/cpp/../../h/../h/riscv.hpp **** 
  40:src/cpp/../../h/../h/riscv.hpp ****     static void ms_sstatus(uint64);
  41:src/cpp/../../h/../h/riscv.hpp ****     static void mc_sstatus(uint64);
  42:src/cpp/../../h/../h/riscv.hpp **** 
  43:src/cpp/../../h/../h/riscv.hpp ****     static void w_sstatus(uint64);
  44:src/cpp/../../h/../h/riscv.hpp ****     static uint64 r_sstatus();
  45:src/cpp/../../h/../h/riscv.hpp **** 
  46:src/cpp/../../h/../h/riscv.hpp ****     static uint64 r_a0();
  47:src/cpp/../../h/../h/riscv.hpp ****     static uint64 s_a0(uint64 a0);
  48:src/cpp/../../h/../h/riscv.hpp ****     static uint64 r_a1();
  49:src/cpp/../../h/../h/riscv.hpp ****     static uint64 r_a2();
  50:src/cpp/../../h/../h/riscv.hpp ****     static uint64 r_a3();
  51:src/cpp/../../h/../h/riscv.hpp ****     static uint64 r_a4();
  52:src/cpp/../../h/../h/riscv.hpp **** 
  53:src/cpp/../../h/../h/riscv.hpp ****     static void popRegisters();
  54:src/cpp/../../h/../h/riscv.hpp ****     static void pushRegisters();
  55:src/cpp/../../h/../h/riscv.hpp **** 
  56:src/cpp/../../h/../h/riscv.hpp ****     static void popSppSpie();
  57:src/cpp/../../h/../h/riscv.hpp **** 
  58:src/cpp/../../h/../h/riscv.hpp ****     static void mc_cstatus(uint64 mask);
  59:src/cpp/../../h/../h/riscv.hpp ****     static bool cstatus_ready(uint64 mask);
  60:src/cpp/../../h/../h/riscv.hpp **** };
  61:src/cpp/../../h/../h/riscv.hpp **** 
  62:src/cpp/../../h/../h/riscv.hpp **** inline uint64 Riscv::r_a0(){
  63:src/cpp/../../h/../h/riscv.hpp ****     uint64 a0;
  64:src/cpp/../../h/../h/riscv.hpp ****     asm volatile("mv %0, a0" : "=r" (a0));
  65:src/cpp/../../h/../h/riscv.hpp ****     return a0;
  66:src/cpp/../../h/../h/riscv.hpp **** }
  67:src/cpp/../../h/../h/riscv.hpp **** 
  68:src/cpp/../../h/../h/riscv.hpp **** inline uint64 Riscv::r_a1(){
  69:src/cpp/../../h/../h/riscv.hpp ****     uint64 a0;
  70:src/cpp/../../h/../h/riscv.hpp ****     asm volatile("mv %0, a1" : "=r" (a0));
  71:src/cpp/../../h/../h/riscv.hpp ****     return a0;
  72:src/cpp/../../h/../h/riscv.hpp **** }
  73:src/cpp/../../h/../h/riscv.hpp **** 
  74:src/cpp/../../h/../h/riscv.hpp **** inline uint64 Riscv::r_a2(){
  75:src/cpp/../../h/../h/riscv.hpp ****     uint64 a0;
  76:src/cpp/../../h/../h/riscv.hpp ****     asm volatile("mv %0, a2" : "=r" (a0));
  77:src/cpp/../../h/../h/riscv.hpp ****     return a0;
  78:src/cpp/../../h/../h/riscv.hpp **** }
  79:src/cpp/../../h/../h/riscv.hpp **** 
  80:src/cpp/../../h/../h/riscv.hpp **** inline uint64 Riscv::r_a3(){
  81:src/cpp/../../h/../h/riscv.hpp ****     uint64 a0;
  82:src/cpp/../../h/../h/riscv.hpp ****     asm volatile("mv %0, a3" : "=r" (a0));
GAS LISTING /tmp/ccGiF3FD.s 			page 5


  83:src/cpp/../../h/../h/riscv.hpp ****     return a0;
  84:src/cpp/../../h/../h/riscv.hpp **** }
  85:src/cpp/../../h/../h/riscv.hpp **** 
  86:src/cpp/../../h/../h/riscv.hpp **** inline uint64 Riscv::r_a4(){
  87:src/cpp/../../h/../h/riscv.hpp ****     uint64 a0;
  88:src/cpp/../../h/../h/riscv.hpp ****     asm volatile("mv %0, a4" : "=r" (a0));
  89:src/cpp/../../h/../h/riscv.hpp ****     return a0;
  90:src/cpp/../../h/../h/riscv.hpp **** }
  91:src/cpp/../../h/../h/riscv.hpp **** 
  92:src/cpp/../../h/../h/riscv.hpp **** 
  93:src/cpp/../../h/../h/riscv.hpp **** inline uint64 Riscv::s_a0(uint64 a0){
  94:src/cpp/../../h/../h/riscv.hpp ****     return a0;
  95:src/cpp/../../h/../h/riscv.hpp **** }
  96:src/cpp/../../h/../h/riscv.hpp **** 
  97:src/cpp/../../h/../h/riscv.hpp **** inline void Riscv::w_scause(uint64 scause){
  98:src/cpp/../../h/../h/riscv.hpp ****     asm volatile("csrw scause, %0" : : "r" (scause));
  99:src/cpp/../../h/../h/riscv.hpp **** }
 100:src/cpp/../../h/../h/riscv.hpp **** 
 101:src/cpp/../../h/../h/riscv.hpp **** inline uint64 Riscv::r_scause(){
 102:src/cpp/../../h/../h/riscv.hpp ****     uint64 volatile scause;
 103:src/cpp/../../h/../h/riscv.hpp ****     asm volatile("csrr %0, scause" : "=r" (scause));
 104:src/cpp/../../h/../h/riscv.hpp ****     return scause;
 105:src/cpp/../../h/../h/riscv.hpp **** } 
 106:src/cpp/../../h/../h/riscv.hpp **** 
 107:src/cpp/../../h/../h/riscv.hpp **** inline void Riscv::w_sepc(uint64 sepc){
 108:src/cpp/../../h/../h/riscv.hpp ****     asm volatile("csrw sepc, %0" : : "r" (sepc));
 109:src/cpp/../../h/../h/riscv.hpp **** }
 110:src/cpp/../../h/../h/riscv.hpp **** 
 111:src/cpp/../../h/../h/riscv.hpp **** inline uint64 Riscv::r_sepc(){
 112:src/cpp/../../h/../h/riscv.hpp ****     uint64 volatile sepc;
 113:src/cpp/../../h/../h/riscv.hpp ****     asm volatile("csrr %0, sepc" : "=r" (sepc));
 114:src/cpp/../../h/../h/riscv.hpp ****     return sepc;
 115:src/cpp/../../h/../h/riscv.hpp **** } 
 116:src/cpp/../../h/../h/riscv.hpp **** 
 117:src/cpp/../../h/../h/riscv.hpp **** inline void Riscv::w_stvec(uint64 stvec){
 118:src/cpp/../../h/../h/riscv.hpp ****     asm volatile("csrw stvec, %0" : : "r" (stvec));
 119:src/cpp/../../h/../h/riscv.hpp **** }
 120:src/cpp/../../h/../h/riscv.hpp **** 
 121:src/cpp/../../h/../h/riscv.hpp **** inline uint64 Riscv::r_stvec(){
 122:src/cpp/../../h/../h/riscv.hpp ****     uint64 volatile stvec;
 123:src/cpp/../../h/../h/riscv.hpp ****     asm volatile("csrr %0, stvec" : "=r" (stvec));
 124:src/cpp/../../h/../h/riscv.hpp ****     return stvec;
 125:src/cpp/../../h/../h/riscv.hpp **** } 
 126:src/cpp/../../h/../h/riscv.hpp **** 
 127:src/cpp/../../h/../h/riscv.hpp **** inline void Riscv::w_stval(uint64 stval){
 128:src/cpp/../../h/../h/riscv.hpp ****     asm volatile("csrw stval, %0" : : "r" (stval));
 129:src/cpp/../../h/../h/riscv.hpp **** }
 130:src/cpp/../../h/../h/riscv.hpp **** 
 131:src/cpp/../../h/../h/riscv.hpp **** inline uint64 Riscv::r_stval(){
 132:src/cpp/../../h/../h/riscv.hpp ****     uint64 volatile stval;
 133:src/cpp/../../h/../h/riscv.hpp ****     asm volatile("csrr %0, stval" : "=r" (stval));
 134:src/cpp/../../h/../h/riscv.hpp ****     return stval;
 135:src/cpp/../../h/../h/riscv.hpp **** } 
 136:src/cpp/../../h/../h/riscv.hpp **** 
 137:src/cpp/../../h/../h/riscv.hpp **** inline void Riscv::ms_sip(uint64 mask){
 138:src/cpp/../../h/../h/riscv.hpp ****     asm volatile ("csrs sip, %0" : : "r" (mask));
 139:src/cpp/../../h/../h/riscv.hpp **** }
GAS LISTING /tmp/ccGiF3FD.s 			page 6


 140:src/cpp/../../h/../h/riscv.hpp **** 
 141:src/cpp/../../h/../h/riscv.hpp **** inline void Riscv::mc_sip(uint64 mask){
 142:src/cpp/../../h/../h/riscv.hpp ****     asm volatile ("csrc sip, %0" : : "r" (mask));
  63              		.loc 3 142 5
  64              		.loc 3 142 49 is_stmt 0
  65 0048 93072000 		li	a5,2
  66              	 #APP
  67              	# 142 "src/cpp/../../h/../h/riscv.hpp" 1
 143              	}
  68              		csrc sip, a5
  69              	# 0 "" 2
  70              	.LVL4:
  71              	 #NO_APP
  72              	.LBE115:
  73              	.LBE114:
  50:src/cpp/interrupt_cpp.cpp **** }
  74              		.loc 1 50 1
  75 0050 83308102 		ld	ra,40(sp)
  76              		.cfi_remember_state
  77              		.cfi_restore 1
  78 0054 03340102 		ld	s0,32(sp)
  79              		.cfi_restore 8
  80              		.cfi_def_cfa 2, 48
  81 0058 83348101 		ld	s1,24(sp)
  82              		.cfi_restore 9
  83 005c 03390101 		ld	s2,16(sp)
  84              		.cfi_restore 18
  85 0060 13010103 		addi	sp,sp,48
  86              		.cfi_def_cfa_offset 0
  87 0064 67800000 		jr	ra
  88              	.L4:
  89              		.cfi_restore_state
  90              	.LBB116:
  91              	.LBB105:
  37:src/cpp/interrupt_cpp.cpp ****         sepc = Riscv::r_sepc();
  92              		.loc 1 37 9 is_stmt 1
  93              	.LBB106:
  94              	.LBB107:
 144:src/cpp/../../h/../h/riscv.hpp **** 
 145:src/cpp/../../h/../h/riscv.hpp **** inline void Riscv::w_sip(uint64 sip){
 146:src/cpp/../../h/../h/riscv.hpp ****     asm volatile("csrw sip, %0" : : "r" (sip));
 147:src/cpp/../../h/../h/riscv.hpp **** }
 148:src/cpp/../../h/../h/riscv.hpp **** 
 149:src/cpp/../../h/../h/riscv.hpp **** inline uint64 Riscv::r_sip(){
 150:src/cpp/../../h/../h/riscv.hpp ****     uint64 volatile sip;
 151:src/cpp/../../h/../h/riscv.hpp ****     asm volatile("csrr %0, sip" : "=r" (sip));
 152:src/cpp/../../h/../h/riscv.hpp ****     return sip;
 153:src/cpp/../../h/../h/riscv.hpp **** } 
 154:src/cpp/../../h/../h/riscv.hpp **** 
 155:src/cpp/../../h/../h/riscv.hpp **** inline void Riscv::ms_sstatus(uint64 mask){
 156:src/cpp/../../h/../h/riscv.hpp ****     asm volatile ("csrs sstatus, %0" : : "r" (mask));
 157:src/cpp/../../h/../h/riscv.hpp **** }
 158:src/cpp/../../h/../h/riscv.hpp **** 
 159:src/cpp/../../h/../h/riscv.hpp **** inline void Riscv::mc_sstatus(uint64 mask){
 160:src/cpp/../../h/../h/riscv.hpp ****     asm volatile ("csrc sstatus, %0" : : "r" (mask));
 161:src/cpp/../../h/../h/riscv.hpp **** }
 162:src/cpp/../../h/../h/riscv.hpp **** 
GAS LISTING /tmp/ccGiF3FD.s 			page 7


 163:src/cpp/../../h/../h/riscv.hpp **** inline void Riscv::w_sstatus(uint64 sstatus){
 164:src/cpp/../../h/../h/riscv.hpp ****     asm volatile("csrw sstatus, %0" : : "r" (sstatus));
 165:src/cpp/../../h/../h/riscv.hpp **** }
 166:src/cpp/../../h/../h/riscv.hpp **** 
 167:src/cpp/../../h/../h/riscv.hpp **** inline uint64 Riscv::r_sstatus(){
 168:src/cpp/../../h/../h/riscv.hpp ****     uint64 volatile sstatus;
  95              		.loc 3 168 5
 169:src/cpp/../../h/../h/riscv.hpp ****     asm volatile("csrr %0, sstatus" : "=r" (sstatus));
  96              		.loc 3 169 5
  97              		.loc 3 169 54 is_stmt 0
  98              	 #APP
  99              	# 169 "src/cpp/../../h/../h/riscv.hpp" 1
 170              	    return sstatus;
 100              		csrr a5, sstatus
 101              	# 0 "" 2
 102              	 #NO_APP
 103 006c 233CF4FC 		sd	a5,-40(s0)
 104              		.loc 3 170 5 is_stmt 1
 105              		.loc 3 170 12 is_stmt 0
 106 0070 033984FD 		ld	s2,-40(s0)
 107              	.LVL5:
 108              	.LBE107:
 109              	.LBE106:
 110              	.LBB108:
 111              	.LBB109:
 112:src/cpp/../../h/../h/riscv.hpp ****     asm volatile("csrr %0, sepc" : "=r" (sepc));
 112              		.loc 3 112 5 is_stmt 1
 113:src/cpp/../../h/../h/riscv.hpp ****     return sepc;
 113              		.loc 3 113 5
 113:src/cpp/../../h/../h/riscv.hpp ****     return sepc;
 114              		.loc 3 113 48 is_stmt 0
 115              	 #APP
 116              	# 113 "src/cpp/../../h/../h/riscv.hpp" 1
 117              		csrr a5, sepc
 118              	# 0 "" 2
 119              	 #NO_APP
 120 0078 2338F4FC 		sd	a5,-48(s0)
 114:src/cpp/../../h/../h/riscv.hpp **** } 
 121              		.loc 3 114 5 is_stmt 1
 114:src/cpp/../../h/../h/riscv.hpp **** } 
 122              		.loc 3 114 12 is_stmt 0
 123 007c 833404FD 		ld	s1,-48(s0)
 124              	.LVL6:
 125              	.LBE109:
 126              	.LBE108:
  40:src/cpp/interrupt_cpp.cpp ****         
 127              		.loc 1 40 9 is_stmt 1
  40:src/cpp/interrupt_cpp.cpp ****         
 128              		.loc 1 40 31 is_stmt 0
 129 0080 97070000 		sd	zero,_ZN3TCB16timeSliceCounterE,a5
 129      23B00700 
  42:src/cpp/interrupt_cpp.cpp **** 
 130              		.loc 1 42 9 is_stmt 1
  42:src/cpp/interrupt_cpp.cpp **** 
 131              		.loc 1 42 19 is_stmt 0
 132 0088 97000000 		call	_ZN3TCB5yieldEv
 132      E7800000 
GAS LISTING /tmp/ccGiF3FD.s 			page 8


 133              	.LVL7:
  44:src/cpp/interrupt_cpp.cpp ****         Riscv::w_sepc(sepc);
 134              		.loc 1 44 9 is_stmt 1
 135              	.LBB110:
 136              	.LBB111:
 164:src/cpp/../../h/../h/riscv.hpp **** }
 137              		.loc 3 164 5
 164:src/cpp/../../h/../h/riscv.hpp **** }
 138              		.loc 3 164 55 is_stmt 0
 139              	 #APP
 140              	# 164 "src/cpp/../../h/../h/riscv.hpp" 1
 141              		csrw sstatus, s2
 142              	# 0 "" 2
 143              	.LVL8:
 144              	 #NO_APP
 145              	.LBE111:
 146              	.LBE110:
  45:src/cpp/interrupt_cpp.cpp ****     } 
 147              		.loc 1 45 9 is_stmt 1
 148              	.LBB112:
 149              	.LBB113:
 108:src/cpp/../../h/../h/riscv.hpp **** }
 150              		.loc 3 108 5
 108:src/cpp/../../h/../h/riscv.hpp **** }
 151              		.loc 3 108 49 is_stmt 0
 152              	 #APP
 153              	# 108 "src/cpp/../../h/../h/riscv.hpp" 1
 154              		csrw sepc, s1
 155              	# 0 "" 2
 156              	 #NO_APP
 157 0098 6FF01FFB 		j	.L2
 158              	.LBE113:
 159              	.LBE112:
 160              	.LBE105:
 161              	.LBE116:
 162              		.cfi_endproc
 163              	.LFE68:
 165              		.align	2
 166              		.globl	_Z8usrEcallmmmmm
 168              	_Z8usrEcallmmmmm:
 169              	.LFB69:
  51:src/cpp/interrupt_cpp.cpp **** 
  52:src/cpp/interrupt_cpp.cpp **** uint64 usrEcall(uint64 a0, uint64 a1, uint64 a2, uint64 a3, uint64 a4)
  53:src/cpp/interrupt_cpp.cpp **** {
 170              		.loc 1 53 1 is_stmt 1
 171              		.cfi_startproc
 172              	.LVL9:
 173 009c 130101FB 		addi	sp,sp,-80
 174              		.cfi_def_cfa_offset 80
 175 00a0 23341104 		sd	ra,72(sp)
 176 00a4 23308104 		sd	s0,64(sp)
 177 00a8 233C9102 		sd	s1,56(sp)
 178 00ac 23382103 		sd	s2,48(sp)
 179 00b0 23343103 		sd	s3,40(sp)
 180 00b4 23304103 		sd	s4,32(sp)
 181 00b8 233C5101 		sd	s5,24(sp)
 182 00bc 23386101 		sd	s6,16(sp)
GAS LISTING /tmp/ccGiF3FD.s 			page 9


 183              		.cfi_offset 1, -8
 184              		.cfi_offset 8, -16
 185              		.cfi_offset 9, -24
 186              		.cfi_offset 18, -32
 187              		.cfi_offset 19, -40
 188              		.cfi_offset 20, -48
 189              		.cfi_offset 21, -56
 190              		.cfi_offset 22, -64
 191 00c0 13040105 		addi	s0,sp,80
 192              		.cfi_def_cfa 8, 0
 193 00c4 138A0500 		mv	s4,a1
  54:src/cpp/interrupt_cpp.cpp ****     uint64 sepc = Riscv::r_sepc()+4, sstatus = Riscv::r_sstatus(), ret = a0;
 194              		.loc 1 54 5
 195              	.LBB156:
 196              	.LBB157:
 112:src/cpp/../../h/../h/riscv.hpp ****     asm volatile("csrr %0, sepc" : "=r" (sepc));
 197              		.loc 3 112 5
 113:src/cpp/../../h/../h/riscv.hpp ****     return sepc;
 198              		.loc 3 113 5
 113:src/cpp/../../h/../h/riscv.hpp ****     return sepc;
 199              		.loc 3 113 48 is_stmt 0
 200              	 #APP
 201              	# 113 "src/cpp/../../h/../h/riscv.hpp" 1
 202              		csrr a5, sepc
 203              	# 0 "" 2
 204              	 #NO_APP
 205 00cc 233CF4FA 		sd	a5,-72(s0)
 114:src/cpp/../../h/../h/riscv.hpp **** } 
 206              		.loc 3 114 5 is_stmt 1
 114:src/cpp/../../h/../h/riscv.hpp **** } 
 207              		.loc 3 114 12 is_stmt 0
 208 00d0 033984FB 		ld	s2,-72(s0)
 209              	.LBE157:
 210              	.LBE156:
 211              		.loc 1 54 35
 212 00d4 13094900 		addi	s2,s2,4
 213              	.LVL10:
 214              	.LBB158:
 215              	.LBB159:
 168:src/cpp/../../h/../h/riscv.hpp ****     asm volatile("csrr %0, sstatus" : "=r" (sstatus));
 216              		.loc 3 168 5 is_stmt 1
 169:src/cpp/../../h/../h/riscv.hpp ****     return sstatus;
 217              		.loc 3 169 5
 169:src/cpp/../../h/../h/riscv.hpp ****     return sstatus;
 218              		.loc 3 169 54 is_stmt 0
 219              	 #APP
 220              	# 169 "src/cpp/../../h/../h/riscv.hpp" 1
 221              		csrr a5, sstatus
 222              	# 0 "" 2
 223              	 #NO_APP
 224 00dc 2338F4FA 		sd	a5,-80(s0)
 225              		.loc 3 170 5 is_stmt 1
 226              		.loc 3 170 12 is_stmt 0
 227 00e0 833904FB 		ld	s3,-80(s0)
 228              	.LVL11:
 229              	.LBE159:
 230              	.LBE158:
GAS LISTING /tmp/ccGiF3FD.s 			page 10


  55:src/cpp/interrupt_cpp.cpp **** 
  56:src/cpp/interrupt_cpp.cpp ****     if(a0 == MA){
 231              		.loc 1 56 5 is_stmt 1
 232              	.LBB160:
 233 00e4 93071000 		li	a5,1
 234 00e8 6306F50E 		beq	a0,a5,.L23
 235 00ec 93040500 		mv	s1,a0
 236 00f0 930A0600 		mv	s5,a2
 237              	.LBE160:
  57:src/cpp/interrupt_cpp.cpp ****         //mem_alloc
  58:src/cpp/interrupt_cpp.cpp ****         ret = (uint64)MemoryAllocator::getInstance().mem_alloc(a1);
  59:src/cpp/interrupt_cpp.cpp ****     }
  60:src/cpp/interrupt_cpp.cpp ****     else if(a0 == MF)
 238              		.loc 1 60 10
 239              	.LBB278:
 240              	.LBB161:
 241 00f4 93072000 		li	a5,2
 242 00f8 6300F512 		beq	a0,a5,.L24
 243              	.LBE161:
 244              	.LBE278:
  61:src/cpp/interrupt_cpp.cpp ****     {
  62:src/cpp/interrupt_cpp.cpp ****         //mem_free
  63:src/cpp/interrupt_cpp.cpp ****         ret = (uint64)MemoryAllocator::getInstance().mem_free((void*)a1);
  64:src/cpp/interrupt_cpp.cpp **** 
  65:src/cpp/interrupt_cpp.cpp ****     }
  66:src/cpp/interrupt_cpp.cpp ****     else if(a0 == TC)
 245              		.loc 1 66 10
 246              	.LBB279:
 247              	.LBB262:
 248              	.LBB162:
 249 00fc 93071001 		li	a5,17
 250 0100 6308F512 		beq	a0,a5,.L25
 251              	.LBE162:
 252              	.LBE262:
 253              	.LBE279:
  67:src/cpp/interrupt_cpp.cpp ****     {
  68:src/cpp/interrupt_cpp.cpp ****         //thread_create
  69:src/cpp/interrupt_cpp.cpp ****         uint64* t = (uint64*)a1;
  70:src/cpp/interrupt_cpp.cpp ****         *t = (uint64)TCB::createThread((TCB::Body)a2, (void*)a3, (uint64*)a4);
  71:src/cpp/interrupt_cpp.cpp ****         if(!(*t)) ret = -4;
  72:src/cpp/interrupt_cpp.cpp ****         else ret = 0;
  73:src/cpp/interrupt_cpp.cpp ****     }
  74:src/cpp/interrupt_cpp.cpp ****     else if(a0 == TE)
 254              		.loc 1 74 10
 255              	.LBB280:
 256              	.LBB263:
 257              	.LBB247:
 258              	.LBB163:
 259 0104 93072001 		li	a5,18
 260 0108 630AF514 		beq	a0,a5,.L26
 261              	.LBE163:
 262              	.LBE247:
 263              	.LBE263:
 264              	.LBE280:
  75:src/cpp/interrupt_cpp.cpp ****     {
  76:src/cpp/interrupt_cpp.cpp ****         //thread_exit
  77:src/cpp/interrupt_cpp.cpp ****         TCB::running->finish();
GAS LISTING /tmp/ccGiF3FD.s 			page 11


  78:src/cpp/interrupt_cpp.cpp ****         TCB::dispatch();
  79:src/cpp/interrupt_cpp.cpp ****     }
  80:src/cpp/interrupt_cpp.cpp ****     else if(a0 == TD)
 265              		.loc 1 80 10
 266              	.LBB281:
 267              	.LBB264:
 268              	.LBB248:
 269              	.LBB232:
 270              	.LBB164:
 271 010c 93073001 		li	a5,19
 272 0110 6308F516 		beq	a0,a5,.L27
 273              	.LBE164:
 274              	.LBE232:
 275              	.LBE248:
 276              	.LBE264:
 277              	.LBE281:
  81:src/cpp/interrupt_cpp.cpp ****     {
  82:src/cpp/interrupt_cpp.cpp ****         //thread_dispatch
  83:src/cpp/interrupt_cpp.cpp ****         TCB::timeSliceCounter = 0;
  84:src/cpp/interrupt_cpp.cpp ****         TCB::yield();
  85:src/cpp/interrupt_cpp.cpp ****     }
  86:src/cpp/interrupt_cpp.cpp ****     else if(a0 == DTH)
 278              		.loc 1 86 10
 279              	.LBB282:
 280              	.LBB265:
 281              	.LBB249:
 282              	.LBB233:
 283              	.LBB218:
 284              	.LBB165:
 285 0114 93079006 		li	a5,105
 286 0118 6300F518 		beq	a0,a5,.L28
 287              	.LBE165:
 288              	.LBE218:
 289              	.LBE233:
 290              	.LBE249:
 291              	.LBE265:
 292              	.LBE282:
  87:src/cpp/interrupt_cpp.cpp ****     {
  88:src/cpp/interrupt_cpp.cpp ****         //delete thread handle
  89:src/cpp/interrupt_cpp.cpp ****         TCB::deleteThread((TCB*)a1);
  90:src/cpp/interrupt_cpp.cpp ****     }
  91:src/cpp/interrupt_cpp.cpp ****     else if(a0 == SO)
 293              		.loc 1 91 10
 294              	.LBB283:
 295              	.LBB266:
 296              	.LBB250:
 297              	.LBB234:
 298              	.LBB219:
 299              	.LBB208:
 300              	.LBB166:
 301 011c 93071002 		li	a5,33
 302 0120 6306F518 		beq	a0,a5,.L29
 303              	.LBE166:
 304              	.LBE208:
 305              	.LBE219:
 306              	.LBE234:
 307              	.LBE250:
GAS LISTING /tmp/ccGiF3FD.s 			page 12


 308              	.LBE266:
 309              	.LBE283:
  92:src/cpp/interrupt_cpp.cpp ****     {
  93:src/cpp/interrupt_cpp.cpp ****         uint64* t = (uint64*)a1;
  94:src/cpp/interrupt_cpp.cpp ****         *t = (uint64)(new KSemaphore(a2));
  95:src/cpp/interrupt_cpp.cpp ****         if(!(*t)) ret = -2;
  96:src/cpp/interrupt_cpp.cpp ****     }
  97:src/cpp/interrupt_cpp.cpp ****     else if(a0 == SC)
 310              		.loc 1 97 10
 311              	.LBB284:
 312              	.LBB267:
 313              	.LBB251:
 314              	.LBB235:
 315              	.LBB220:
 316              	.LBB209:
 317              	.LBB200:
 318              	.LBB167:
 319 0124 93072002 		li	a5,34
 320 0128 6308F51A 		beq	a0,a5,.L30
 321              	.LBE167:
 322              	.LBE200:
 323              	.LBE209:
 324              	.LBE220:
 325              	.LBE235:
 326              	.LBE251:
 327              	.LBE267:
 328              	.LBE284:
  98:src/cpp/interrupt_cpp.cpp ****     {
  99:src/cpp/interrupt_cpp.cpp ****         KSemaphore* t = (KSemaphore*)a1;
 100:src/cpp/interrupt_cpp.cpp ****         delete t;
 101:src/cpp/interrupt_cpp.cpp ****     }
 102:src/cpp/interrupt_cpp.cpp ****     else if(a0 == SW)
 329              		.loc 1 102 10
 330              	.LBB285:
 331              	.LBB268:
 332              	.LBB252:
 333              	.LBB236:
 334              	.LBB221:
 335              	.LBB210:
 336              	.LBB201:
 337              	.LBB186:
 338              	.LBB168:
 339 012c 93073002 		li	a5,35
 340 0130 630AF51C 		beq	a0,a5,.L31
 341              	.LBE168:
 342              	.LBE186:
 343              	.LBE201:
 344              	.LBE210:
 345              	.LBE221:
 346              	.LBE236:
 347              	.LBE252:
 348              	.LBE268:
 349              	.LBE285:
 103:src/cpp/interrupt_cpp.cpp ****     {
 104:src/cpp/interrupt_cpp.cpp ****         KSemaphore* t = (KSemaphore*)a1;
 105:src/cpp/interrupt_cpp.cpp ****         ret = t->wait();
 106:src/cpp/interrupt_cpp.cpp ****     }
GAS LISTING /tmp/ccGiF3FD.s 			page 13


 107:src/cpp/interrupt_cpp.cpp ****     else if(a0 == SS)
 350              		.loc 1 107 10
 351              	.LBB286:
 352              	.LBB269:
 353              	.LBB253:
 354              	.LBB237:
 355              	.LBB222:
 356              	.LBB211:
 357              	.LBB202:
 358              	.LBB187:
 359              	.LBB179:
 360              	.LBB169:
 361 0134 93074002 		li	a5,36
 362 0138 630EF51C 		beq	a0,a5,.L32
 108:src/cpp/interrupt_cpp.cpp ****     {
 109:src/cpp/interrupt_cpp.cpp ****         KSemaphore* t = (KSemaphore*)a1;
 110:src/cpp/interrupt_cpp.cpp ****         t->signal();
 111:src/cpp/interrupt_cpp.cpp ****     }
 112:src/cpp/interrupt_cpp.cpp ****     else if(a0 == TS)
 363              		.loc 1 112 10
 364 013c 93071003 		li	a5,49
 365 0140 6304F51E 		beq	a0,a5,.L33
 113:src/cpp/interrupt_cpp.cpp ****     {
 114:src/cpp/interrupt_cpp.cpp ****         TCB::sleep(a1);
 115:src/cpp/interrupt_cpp.cpp ****     }
 116:src/cpp/interrupt_cpp.cpp ****     else if(a0 == GC)
 366              		.loc 1 116 10
 367 0144 93071004 		li	a5,65
 368 0148 630AF51E 		beq	a0,a5,.L34
 117:src/cpp/interrupt_cpp.cpp ****     {
 118:src/cpp/interrupt_cpp.cpp ****         ret = StdIO::ibuffer->get();
 119:src/cpp/interrupt_cpp.cpp ****     }
 120:src/cpp/interrupt_cpp.cpp ****     else if(a0 == PC)
 369              		.loc 1 120 10
 370 014c 93072004 		li	a5,66
 371 0150 631CF508 		bne	a0,a5,.L7
 121:src/cpp/interrupt_cpp.cpp ****     {
 122:src/cpp/interrupt_cpp.cpp ****         StdIO::obuffer->put((char)a1); 
 372              		.loc 1 122 9
 373              		.loc 1 122 28 is_stmt 0
 374 0154 97070000 		lla	a5,_ZN5StdIO7obufferE
 374      93870700 
 375 015c 83BA0700 		ld	s5,0(a5)
 376 0160 13FAF50F 		andi	s4,a1,0xff
 377              	.LVL12:
 378              	.LBB170:
 379              	.LBB171:
 380              		.file 4 "src/cpp/../../h/../h/../h/shared_buffer.hpp"
   1:src/cpp/../../h/../h/../h/shared_buffer.hpp **** #ifndef __shared_buffer__hpp
   2:src/cpp/../../h/../h/../h/shared_buffer.hpp **** #define __shared_buffer__hpp
   3:src/cpp/../../h/../h/../h/shared_buffer.hpp **** 
   4:src/cpp/../../h/../h/../h/shared_buffer.hpp **** #include"../h/ksemaphore.hpp"
   5:src/cpp/../../h/../h/../h/shared_buffer.hpp **** 
   6:src/cpp/../../h/../h/../h/shared_buffer.hpp **** template<typename T>
   7:src/cpp/../../h/../h/../h/shared_buffer.hpp **** class SharedBuffer{
   8:src/cpp/../../h/../h/../h/shared_buffer.hpp **** public:
   9:src/cpp/../../h/../h/../h/shared_buffer.hpp ****     static const int BUFFER_SIZE = 1024;
GAS LISTING /tmp/ccGiF3FD.s 			page 14


  10:src/cpp/../../h/../h/../h/shared_buffer.hpp **** private:
  11:src/cpp/../../h/../h/../h/shared_buffer.hpp ****     T buffer[BUFFER_SIZE];
  12:src/cpp/../../h/../h/../h/shared_buffer.hpp ****     KSemaphore mutex, itemAvailable, spaceAvailable; 
  13:src/cpp/../../h/../h/../h/shared_buffer.hpp ****     int head, tail;
  14:src/cpp/../../h/../h/../h/shared_buffer.hpp **** 
  15:src/cpp/../../h/../h/../h/shared_buffer.hpp **** public: 
  16:src/cpp/../../h/../h/../h/shared_buffer.hpp ****     int tmpLen;
  17:src/cpp/../../h/../h/../h/shared_buffer.hpp ****     #include"../h/kernel_operators.hpp"
  18:src/cpp/../../h/../h/../h/shared_buffer.hpp ****     SharedBuffer():mutex(1), itemAvailable(0), 
  19:src/cpp/../../h/../h/../h/shared_buffer.hpp ****     spaceAvailable(BUFFER_SIZE), head(0), tail(0), tmpLen(0){}
  20:src/cpp/../../h/../h/../h/shared_buffer.hpp **** 
  21:src/cpp/../../h/../h/../h/shared_buffer.hpp ****     void put(T c){
  22:src/cpp/../../h/../h/../h/shared_buffer.hpp ****         spaceAvailable.wait();
 381              		.loc 4 22 28
 382 0164 13850A43 		addi	a0,s5,1072
 383              	.LVL13:
 384 0168 97000000 		call	_ZN10KSemaphore4waitEv
 384      E7800000 
 385              	.LVL14:
  23:src/cpp/../../h/../h/../h/shared_buffer.hpp ****         mutex.wait();
 386              		.loc 4 23 19
 387 0170 138B0A40 		addi	s6,s5,1024
 388 0174 13050B00 		mv	a0,s6
 389 0178 97000000 		call	_ZN10KSemaphore4waitEv
 389      E7800000 
 390              	.LVL15:
  24:src/cpp/../../h/../h/../h/shared_buffer.hpp **** 
  25:src/cpp/../../h/../h/../h/shared_buffer.hpp ****         tmpLen++;
 391              		.loc 4 25 9
 392 0180 83A70A45 		lw	a5,1104(s5)
 393 0184 9B871700 		addiw	a5,a5,1
 394 0188 23A8FA44 		sw	a5,1104(s5)
  26:src/cpp/../../h/../h/../h/shared_buffer.hpp ****         buffer[tail]=c;
 395              		.loc 4 26 16
 396 018c 83A7CA44 		lw	a5,1100(s5)
 397              		.loc 4 26 9
 398 0190 3387FA00 		add	a4,s5,a5
 399 0194 23004701 		sb	s4,0(a4)
  27:src/cpp/../../h/../h/../h/shared_buffer.hpp ****         tail=(tail+1)%BUFFER_SIZE;
 400              		.loc 4 27 19
 401 0198 9B871700 		addiw	a5,a5,1
 402              		.loc 4 27 22
 403 019c 1BD7F741 		sraiw	a4,a5,31
 404 01a0 1B576701 		srliw	a4,a4,22
 405 01a4 BB87E700 		addw	a5,a5,a4
 406 01a8 93F7F73F 		andi	a5,a5,1023
 407 01ac BB87E740 		subw	a5,a5,a4
 408              		.loc 4 27 9
 409 01b0 23A6FA44 		sw	a5,1100(s5)
  28:src/cpp/../../h/../h/../h/shared_buffer.hpp ****     
  29:src/cpp/../../h/../h/../h/shared_buffer.hpp ****         itemAvailable.signal();
 410              		.loc 4 29 29
 411 01b4 13858A41 		addi	a0,s5,1048
 412 01b8 97000000 		call	_ZN10KSemaphore6signalEv
 412      E7800000 
 413              	.LVL16:
  30:src/cpp/../../h/../h/../h/shared_buffer.hpp ****         mutex.signal();
GAS LISTING /tmp/ccGiF3FD.s 			page 15


 414              		.loc 4 30 21
 415 01c0 13050B00 		mv	a0,s6
 416 01c4 97000000 		call	_ZN10KSemaphore6signalEv
 416      E7800000 
 417              	.LVL17:
 418              	.LBE171:
 419              	.LBE170:
 420              	.LBE169:
 421              	.LBE179:
 422              	.LBE187:
 423              	.LBE202:
 424              	.LBE211:
 425              	.LBE222:
 426              	.LBE237:
 427              	.LBE253:
 428              	.LBE269:
 429              	.LBE286:
  54:src/cpp/interrupt_cpp.cpp **** 
 430              		.loc 1 54 68
 431 01cc 13850400 		mv	a0,s1
 432 01d0 6F008001 		j	.L7
 433              	.LVL18:
 434              	.L23:
 435              	.LBB287:
  58:src/cpp/interrupt_cpp.cpp ****     }
 436              		.loc 1 58 9 is_stmt 1
  58:src/cpp/interrupt_cpp.cpp ****     }
 437              		.loc 1 58 52 is_stmt 0
 438 01d4 97000000 		call	_ZN15MemoryAllocator11getInstanceEv
 438      E7800000 
 439              	.LVL19:
  58:src/cpp/interrupt_cpp.cpp ****     }
 440              		.loc 1 58 63
 441 01dc 93050A00 		mv	a1,s4
 442 01e0 97000000 		call	_ZN15MemoryAllocator9mem_allocEm
 442      E7800000 
 443              	.LVL20:
 444              	.L7:
 445              	.LBE287:
 123:src/cpp/interrupt_cpp.cpp ****     }
 124:src/cpp/interrupt_cpp.cpp ****     Riscv::w_sstatus(sstatus);
 446              		.loc 1 124 5 is_stmt 1
 447              	.LBB288:
 448              	.LBB289:
 164:src/cpp/../../h/../h/riscv.hpp **** }
 449              		.loc 3 164 5
 164:src/cpp/../../h/../h/riscv.hpp **** }
 450              		.loc 3 164 55 is_stmt 0
 451              	 #APP
 452              	# 164 "src/cpp/../../h/../h/riscv.hpp" 1
 453              		csrw sstatus, s3
 454              	# 0 "" 2
 455              	.LVL21:
 456              	 #NO_APP
 457              	.LBE289:
 458              	.LBE288:
 125:src/cpp/interrupt_cpp.cpp ****     Riscv::w_sepc(sepc);
GAS LISTING /tmp/ccGiF3FD.s 			page 16


 459              		.loc 1 125 5 is_stmt 1
 460              	.LBB290:
 461              	.LBB291:
 108:src/cpp/../../h/../h/riscv.hpp **** }
 462              		.loc 3 108 5
 108:src/cpp/../../h/../h/riscv.hpp **** }
 463              		.loc 3 108 49 is_stmt 0
 464              	 #APP
 465              	# 108 "src/cpp/../../h/../h/riscv.hpp" 1
 466              		csrw sepc, s2
 467              	# 0 "" 2
 468              	.LVL22:
 469              	 #NO_APP
 470              	.LBE291:
 471              	.LBE290:
 126:src/cpp/interrupt_cpp.cpp ****     return ret;
 472              		.loc 1 126 5 is_stmt 1
 127:src/cpp/interrupt_cpp.cpp **** }
 473              		.loc 1 127 1 is_stmt 0
 474 01f0 83308104 		ld	ra,72(sp)
 475              		.cfi_remember_state
 476              		.cfi_restore 1
 477 01f4 03340104 		ld	s0,64(sp)
 478              		.cfi_restore 8
 479              		.cfi_def_cfa 2, 80
 480 01f8 83348103 		ld	s1,56(sp)
 481              		.cfi_restore 9
 482 01fc 03390103 		ld	s2,48(sp)
 483              		.cfi_restore 18
 484              	.LVL23:
 485 0200 83398102 		ld	s3,40(sp)
 486              		.cfi_restore 19
 487              	.LVL24:
 488 0204 033A0102 		ld	s4,32(sp)
 489              		.cfi_restore 20
 490 0208 833A8101 		ld	s5,24(sp)
 491              		.cfi_restore 21
 492 020c 033B0101 		ld	s6,16(sp)
 493              		.cfi_restore 22
 494 0210 13010105 		addi	sp,sp,80
 495              		.cfi_def_cfa_offset 0
 496 0214 67800000 		jr	ra
 497              	.LVL25:
 498              	.L24:
 499              		.cfi_restore_state
 500              	.LBB292:
 501              	.LBB270:
  63:src/cpp/interrupt_cpp.cpp **** 
 502              		.loc 1 63 9 is_stmt 1
  63:src/cpp/interrupt_cpp.cpp **** 
 503              		.loc 1 63 52 is_stmt 0
 504 0218 97000000 		call	_ZN15MemoryAllocator11getInstanceEv
 504      E7800000 
 505              	.LVL26:
  63:src/cpp/interrupt_cpp.cpp **** 
 506              		.loc 1 63 62
 507 0220 93050A00 		mv	a1,s4
GAS LISTING /tmp/ccGiF3FD.s 			page 17


 508 0224 97000000 		call	_ZN15MemoryAllocator8mem_freeEPv
 508      E7800000 
 509              	.LVL27:
 510 022c 6FF0DFFB 		j	.L7
 511              	.LVL28:
 512              	.L25:
 513              	.LBB254:
 514              	.LBB238:
  69:src/cpp/interrupt_cpp.cpp ****         *t = (uint64)TCB::createThread((TCB::Body)a2, (void*)a3, (uint64*)a4);
 515              		.loc 1 69 9 is_stmt 1
  70:src/cpp/interrupt_cpp.cpp ****         if(!(*t)) ret = -4;
 516              		.loc 1 70 9
  70:src/cpp/interrupt_cpp.cpp ****         if(!(*t)) ret = -4;
 517              		.loc 1 70 39 is_stmt 0
 518 0230 13060700 		mv	a2,a4
 519              	.LVL29:
 520 0234 93850600 		mv	a1,a3
 521              	.LVL30:
 522 0238 13850A00 		mv	a0,s5
 523 023c 97000000 		call	_ZN3TCB12createThreadEPFvPvES0_Pm
 523      E7800000 
 524              	.LVL31:
  70:src/cpp/interrupt_cpp.cpp ****         if(!(*t)) ret = -4;
 525              		.loc 1 70 12
 526 0244 2330AA00 		sd	a0,0(s4)
  71:src/cpp/interrupt_cpp.cpp ****         else ret = 0;
 527              		.loc 1 71 9 is_stmt 1
 528 0248 63060500 		beq	a0,zero,.L35
  72:src/cpp/interrupt_cpp.cpp ****     }
 529              		.loc 1 72 18 is_stmt 0
 530 024c 13050000 		li	a0,0
 531 0250 6FF09FF9 		j	.L7
 532              	.L35:
  71:src/cpp/interrupt_cpp.cpp ****         else ret = 0;
 533              		.loc 1 71 23
 534 0254 1305C0FF 		li	a0,-4
 535 0258 6FF01FF9 		j	.L7
 536              	.LVL32:
 537              	.L26:
 538              	.LBE238:
 539              	.LBB239:
  77:src/cpp/interrupt_cpp.cpp ****         TCB::dispatch();
 540              		.loc 1 77 9 is_stmt 1
  77:src/cpp/interrupt_cpp.cpp ****         TCB::dispatch();
 541              		.loc 1 77 29 is_stmt 0
 542 025c 97070000 		lla	a5,_ZN3TCB7runningE
 542      93870700 
 543 0264 83B70700 		ld	a5,0(a5)
 544              	.LVL33:
 545              	.LBB223:
 546              	.LBB224:
  31:src/cpp/../../h/../h/../h/tcb.hpp ****     bool isFinished(){ return state == FINISHED; }
 547              		.loc 2 31 21 is_stmt 1
  31:src/cpp/../../h/../h/../h/tcb.hpp ****     bool isFinished(){ return state == FINISHED; }
 548              		.loc 2 31 27 is_stmt 0
 549 0268 13072000 		li	a4,2
 550              	.LVL34:
GAS LISTING /tmp/ccGiF3FD.s 			page 18


 551 026c 23ACE702 		sw	a4,56(a5)
 552              	.LVL35:
 553              	.LBE224:
 554              	.LBE223:
  78:src/cpp/interrupt_cpp.cpp ****     }
 555              		.loc 1 78 9 is_stmt 1
  78:src/cpp/interrupt_cpp.cpp ****     }
 556              		.loc 1 78 22 is_stmt 0
 557 0270 97000000 		call	_ZN3TCB8dispatchEv
 557      E7800000 
 558              	.LVL36:
 559              	.LBE239:
 560              	.LBE254:
 561              	.LBE270:
 562              	.LBE292:
  54:src/cpp/interrupt_cpp.cpp **** 
 563              		.loc 1 54 68
 564 0278 13850400 		mv	a0,s1
 565              	.LBB293:
 566              	.LBB271:
 567              	.LBB255:
 568              	.LBB240:
 569 027c 6FF0DFF6 		j	.L7
 570              	.LVL37:
 571              	.L27:
 572              	.LBB225:
  83:src/cpp/interrupt_cpp.cpp ****         TCB::yield();
 573              		.loc 1 83 9 is_stmt 1
  83:src/cpp/interrupt_cpp.cpp ****         TCB::yield();
 574              		.loc 1 83 31 is_stmt 0
 575 0280 97070000 		sd	zero,_ZN3TCB16timeSliceCounterE,a5
 575      23B00700 
  84:src/cpp/interrupt_cpp.cpp ****     }
 576              		.loc 1 84 9 is_stmt 1
  84:src/cpp/interrupt_cpp.cpp ****     }
 577              		.loc 1 84 19 is_stmt 0
 578 0288 97000000 		call	_ZN3TCB5yieldEv
 578      E7800000 
 579              	.LVL38:
 580              	.LBE225:
 581              	.LBE240:
 582              	.LBE255:
 583              	.LBE271:
 584              	.LBE293:
  54:src/cpp/interrupt_cpp.cpp **** 
 585              		.loc 1 54 68
 586 0290 13850400 		mv	a0,s1
 587              	.LBB294:
 588              	.LBB272:
 589              	.LBB256:
 590              	.LBB241:
 591              	.LBB226:
 592 0294 6FF05FF5 		j	.L7
 593              	.LVL39:
 594              	.L28:
 595              	.LBB212:
  89:src/cpp/interrupt_cpp.cpp ****     }
GAS LISTING /tmp/ccGiF3FD.s 			page 19


 596              		.loc 1 89 9 is_stmt 1
  89:src/cpp/interrupt_cpp.cpp ****     }
 597              		.loc 1 89 26 is_stmt 0
 598 0298 13850500 		mv	a0,a1
 599 029c 97000000 		call	_ZN3TCB12deleteThreadEPS_
 599      E7800000 
 600              	.LVL40:
 601              	.LBE212:
 602              	.LBE226:
 603              	.LBE241:
 604              	.LBE256:
 605              	.LBE272:
 606              	.LBE294:
  54:src/cpp/interrupt_cpp.cpp **** 
 607              		.loc 1 54 68
 608 02a4 13850400 		mv	a0,s1
 609              	.LBB295:
 610              	.LBB273:
 611              	.LBB257:
 612              	.LBB242:
 613              	.LBB227:
 614              	.LBB213:
 615 02a8 6FF01FF4 		j	.L7
 616              	.LVL41:
 617              	.L29:
 618              	.LBB203:
 619              	.LBB188:
  93:src/cpp/interrupt_cpp.cpp ****         *t = (uint64)(new KSemaphore(a2));
 620              		.loc 1 93 9 is_stmt 1
  94:src/cpp/interrupt_cpp.cpp ****         if(!(*t)) ret = -2;
 621              		.loc 1 94 9
 622              	.LBB189:
 623              	.LBB190:
 624              		.file 5 "src/cpp/../../h/../h/../h/kernel_operators.hpp"
   1:src/cpp/../../h/../h/../h/kernel_operators.hpp **** void* operator new(size_t sz){return MemoryAllocator::getInstance().mem_alloc((sz-1)/MEM_BLOCK_SIZE
 625              		.loc 5 1 31
 626              		.loc 5 1 67 is_stmt 0
 627 02ac 97000000 		call	_ZN15MemoryAllocator11getInstanceEv
 627      E7800000 
 628              	.LVL42:
 629              		.loc 5 1 78
 630 02b4 93051000 		li	a1,1
 631 02b8 97000000 		call	_ZN15MemoryAllocator9mem_allocEm
 631      E7800000 
 632              	.LVL43:
 633              	.LBE190:
 634              	.LBE189:
 635              	.LBB191:
 636              	.LBB192:
 637              		.file 6 "src/cpp/../../h/../h/ksemaphore.hpp"
   1:src/cpp/../../h/../h/ksemaphore.hpp **** #ifndef __semaphore__
   2:src/cpp/../../h/../h/ksemaphore.hpp **** #define __semaphore__
   3:src/cpp/../../h/../h/ksemaphore.hpp **** 
   4:src/cpp/../../h/../h/ksemaphore.hpp **** #include"../h/ptr_queue.hpp"
   5:src/cpp/../../h/../h/ksemaphore.hpp **** class KSemaphore
   6:src/cpp/../../h/../h/ksemaphore.hpp **** {
   7:src/cpp/../../h/../h/ksemaphore.hpp **** public:
GAS LISTING /tmp/ccGiF3FD.s 			page 20


   8:src/cpp/../../h/../h/ksemaphore.hpp ****     #include"../h/kernel_operators.hpp"
   9:src/cpp/../../h/../h/ksemaphore.hpp ****     KSemaphore(unsigned val):val(val){}
 638              		.loc 6 9 37
 639 02c0 23205501 		sw	s5,0(a0)
 640              	.LVL44:
 641              	.LBB193:
 642              	.LBB194:
 643              		.file 7 "src/cpp/../../h/../h/ptr_queue.hpp"
   1:src/cpp/../../h/../h/ptr_queue.hpp **** #ifndef _queue_h
   2:src/cpp/../../h/../h/ptr_queue.hpp **** #define _queue_h
   3:src/cpp/../../h/../h/ptr_queue.hpp **** 
   4:src/cpp/../../h/../h/ptr_queue.hpp **** #include"../h/tcb.hpp"
   5:src/cpp/../../h/../h/ptr_queue.hpp **** //#include"../h/testing.hpp"
   6:src/cpp/../../h/../h/ptr_queue.hpp **** 
   7:src/cpp/../../h/../h/ptr_queue.hpp **** class TcbQueue{
   8:src/cpp/../../h/../h/ptr_queue.hpp ****        
   9:src/cpp/../../h/../h/ptr_queue.hpp ****    TCB *head, *tail;
  10:src/cpp/../../h/../h/ptr_queue.hpp **** 
  11:src/cpp/../../h/../h/ptr_queue.hpp ****     void brisi(){
  12:src/cpp/../../h/../h/ptr_queue.hpp ****         while(!isEmpty())
  13:src/cpp/../../h/../h/ptr_queue.hpp ****             remove();
  14:src/cpp/../../h/../h/ptr_queue.hpp ****     }
  15:src/cpp/../../h/../h/ptr_queue.hpp **** 
  16:src/cpp/../../h/../h/ptr_queue.hpp **** public:
  17:src/cpp/../../h/../h/ptr_queue.hpp ****     #include"../h/kernel_operators.hpp"
  18:src/cpp/../../h/../h/ptr_queue.hpp ****     TcbQueue():head(nullptr), tail(nullptr){}
 644              		.loc 7 18 43
 645 02c4 23340500 		sd	zero,8(a0)
 646 02c8 23380500 		sd	zero,16(a0)
 647              	.LVL45:
 648              	.LBE194:
 649              	.LBE193:
 650              	.LBE192:
 651              	.LBE191:
  94:src/cpp/interrupt_cpp.cpp ****         if(!(*t)) ret = -2;
 652              		.loc 1 94 12
 653 02cc 2330AA00 		sd	a0,0(s4)
  95:src/cpp/interrupt_cpp.cpp ****     }
 654              		.loc 1 95 9 is_stmt 1
 655              	.LBE188:
 656              	.LBE203:
 657              	.LBE213:
 658              	.LBE227:
 659              	.LBE242:
 660              	.LBE257:
 661              	.LBE273:
 662              	.LBE295:
  54:src/cpp/interrupt_cpp.cpp **** 
 663              		.loc 1 54 68 is_stmt 0
 664 02d0 13850400 		mv	a0,s1
 665              	.LBB296:
 666              	.LBB274:
 667              	.LBB258:
 668              	.LBB243:
 669              	.LBB228:
 670              	.LBB214:
 671              	.LBB204:
GAS LISTING /tmp/ccGiF3FD.s 			page 21


 672              	.LBB195:
 673 02d4 6FF05FF1 		j	.L7
 674              	.LVL46:
 675              	.L30:
 676              	.LBE195:
 677              	.LBB196:
 678              	.LBB180:
  99:src/cpp/interrupt_cpp.cpp ****         delete t;
 679              		.loc 1 99 9 is_stmt 1
 100:src/cpp/interrupt_cpp.cpp ****     }
 680              		.loc 1 100 9
 100:src/cpp/interrupt_cpp.cpp ****     }
 681              		.loc 1 100 17 is_stmt 0
 682 02d8 E38805F0 		beq	a1,zero,.L7
 100:src/cpp/interrupt_cpp.cpp ****     }
 683              		.loc 1 100 16 discriminator 1
 684 02dc 13850500 		mv	a0,a1
 685 02e0 97000000 		call	_ZN10KSemaphoreD1Ev
 685      E7800000 
 686              	.LVL47:
 687              	.LBB181:
 688              	.LBB182:
   2:src/cpp/../../h/../h/../h/kernel_operators.hpp **** void* operator new[](size_t sz){ return MemoryAllocator::getInstance().mem_alloc((sz-1)/MEM_BLOCK_S
   3:src/cpp/../../h/../h/../h/kernel_operators.hpp **** void operator delete(void* ptr){MemoryAllocator::getInstance().mem_free(ptr);}
 689              		.loc 5 3 33 is_stmt 1 discriminator 1
 690              		.loc 5 3 62 is_stmt 0 discriminator 1
 691 02e8 97000000 		call	_ZN15MemoryAllocator11getInstanceEv
 691      E7800000 
 692              	.LVL48:
 693              		.loc 5 3 72 discriminator 1
 694 02f0 93050A00 		mv	a1,s4
 695 02f4 97000000 		call	_ZN15MemoryAllocator8mem_freeEPv
 695      E7800000 
 696              	.LVL49:
 697              	.LBE182:
 698              	.LBE181:
 699              	.LBE180:
 700              	.LBE196:
 701              	.LBE204:
 702              	.LBE214:
 703              	.LBE228:
 704              	.LBE243:
 705              	.LBE258:
 706              	.LBE274:
 707              	.LBE296:
  54:src/cpp/interrupt_cpp.cpp **** 
 708              		.loc 1 54 68 discriminator 1
 709 02fc 13850400 		mv	a0,s1
 710 0300 6FF09FEE 		j	.L7
 711              	.LVL50:
 712              	.L31:
 713              	.LBB297:
 714              	.LBB275:
 715              	.LBB259:
 716              	.LBB244:
 717              	.LBB229:
 718              	.LBB215:
GAS LISTING /tmp/ccGiF3FD.s 			page 22


 719              	.LBB205:
 720              	.LBB197:
 721              	.LBB183:
 722              	.LBB175:
 104:src/cpp/interrupt_cpp.cpp ****         ret = t->wait();
 723              		.loc 1 104 9 is_stmt 1
 105:src/cpp/interrupt_cpp.cpp ****     }
 724              		.loc 1 105 9
 105:src/cpp/interrupt_cpp.cpp ****     }
 725              		.loc 1 105 22 is_stmt 0
 726 0304 13850500 		mv	a0,a1
 727 0308 97000000 		call	_ZN10KSemaphore4waitEv
 727      E7800000 
 728              	.LVL51:
 729              	.LBE175:
 730 0310 6FF09FED 		j	.L7
 731              	.LVL52:
 732              	.L32:
 733              	.LBB176:
 734              	.LBB172:
 109:src/cpp/interrupt_cpp.cpp ****         t->signal();
 735              		.loc 1 109 9 is_stmt 1
 110:src/cpp/interrupt_cpp.cpp ****     }
 736              		.loc 1 110 9
 110:src/cpp/interrupt_cpp.cpp ****     }
 737              		.loc 1 110 18 is_stmt 0
 738 0314 13850500 		mv	a0,a1
 739 0318 97000000 		call	_ZN10KSemaphore6signalEv
 739      E7800000 
 740              	.LVL53:
 741              	.LBE172:
 742              	.LBE176:
 743              	.LBE183:
 744              	.LBE197:
 745              	.LBE205:
 746              	.LBE215:
 747              	.LBE229:
 748              	.LBE244:
 749              	.LBE259:
 750              	.LBE275:
 751              	.LBE297:
  54:src/cpp/interrupt_cpp.cpp **** 
 752              		.loc 1 54 68
 753 0320 13850400 		mv	a0,s1
 754              	.LBB298:
 755              	.LBB276:
 756              	.LBB260:
 757              	.LBB245:
 758              	.LBB230:
 759              	.LBB216:
 760              	.LBB206:
 761              	.LBB198:
 762              	.LBB184:
 763              	.LBB177:
 764 0324 6FF05FEC 		j	.L7
 765              	.LVL54:
 766              	.L33:
GAS LISTING /tmp/ccGiF3FD.s 			page 23


 114:src/cpp/interrupt_cpp.cpp ****     }
 767              		.loc 1 114 9 is_stmt 1
 114:src/cpp/interrupt_cpp.cpp ****     }
 768              		.loc 1 114 19 is_stmt 0
 769 0328 13850500 		mv	a0,a1
 770 032c 97000000 		call	_ZN3TCB5sleepEm
 770      E7800000 
 771              	.LVL55:
 772              	.LBE177:
 773              	.LBE184:
 774              	.LBE198:
 775              	.LBE206:
 776              	.LBE216:
 777              	.LBE230:
 778              	.LBE245:
 779              	.LBE260:
 780              	.LBE276:
 781              	.LBE298:
  54:src/cpp/interrupt_cpp.cpp **** 
 782              		.loc 1 54 68
 783 0334 13850400 		mv	a0,s1
 784              	.LBB299:
 785              	.LBB277:
 786              	.LBB261:
 787              	.LBB246:
 788              	.LBB231:
 789              	.LBB217:
 790              	.LBB207:
 791              	.LBB199:
 792              	.LBB185:
 793              	.LBB178:
 794 0338 6FF01FEB 		j	.L7
 795              	.LVL56:
 796              	.L34:
 118:src/cpp/interrupt_cpp.cpp ****     }
 797              		.loc 1 118 9 is_stmt 1
 118:src/cpp/interrupt_cpp.cpp ****     }
 798              		.loc 1 118 34 is_stmt 0
 799 033c 97070000 		lla	a5,_ZN5StdIO7ibufferE
 799      93870700 
 800 0344 03BA0700 		ld	s4,0(a5)
 801              	.LVL57:
 802              	.LBB173:
 803              	.LBB174:
  31:src/cpp/../../h/../h/../h/shared_buffer.hpp ****     }
  32:src/cpp/../../h/../h/../h/shared_buffer.hpp **** 
  33:src/cpp/../../h/../h/../h/shared_buffer.hpp ****     T get(){
  34:src/cpp/../../h/../h/../h/shared_buffer.hpp ****         itemAvailable.wait();
 804              		.loc 4 34 27
 805 0348 13058A41 		addi	a0,s4,1048
 806 034c 97000000 		call	_ZN10KSemaphore4waitEv
 806      E7800000 
 807              	.LVL58:
  35:src/cpp/../../h/../h/../h/shared_buffer.hpp ****         mutex.wait();
 808              		.loc 4 35 19
 809 0354 930A0A40 		addi	s5,s4,1024
 810              	.LVL59:
GAS LISTING /tmp/ccGiF3FD.s 			page 24


 811 0358 13850A00 		mv	a0,s5
 812 035c 97000000 		call	_ZN10KSemaphore4waitEv
 812      E7800000 
 813              	.LVL60:
  36:src/cpp/../../h/../h/../h/shared_buffer.hpp **** 
  37:src/cpp/../../h/../h/../h/shared_buffer.hpp ****         tmpLen--;
 814              		.loc 4 37 9
 815 0364 83270A45 		lw	a5,1104(s4)
 816 0368 9B87F7FF 		addiw	a5,a5,-1
 817 036c 2328FA44 		sw	a5,1104(s4)
  38:src/cpp/../../h/../h/../h/shared_buffer.hpp ****         T r = buffer[head];
 818              		.loc 4 38 22
 819 0370 83278A44 		lw	a5,1096(s4)
 820              		.loc 4 38 11
 821 0374 3307FA00 		add	a4,s4,a5
 822 0378 83440700 		lbu	s1,0(a4)
 823              	.LVL61:
  39:src/cpp/../../h/../h/../h/shared_buffer.hpp ****         head = (head+1)%BUFFER_SIZE;
 824              		.loc 4 39 21
 825 037c 9B871700 		addiw	a5,a5,1
 826              		.loc 4 39 24
 827 0380 1BD7F741 		sraiw	a4,a5,31
 828 0384 1B576701 		srliw	a4,a4,22
 829 0388 BB87E700 		addw	a5,a5,a4
 830 038c 93F7F73F 		andi	a5,a5,1023
 831 0390 BB87E740 		subw	a5,a5,a4
 832              		.loc 4 39 9
 833 0394 2324FA44 		sw	a5,1096(s4)
  40:src/cpp/../../h/../h/../h/shared_buffer.hpp **** 
  41:src/cpp/../../h/../h/../h/shared_buffer.hpp ****         spaceAvailable.signal();
 834              		.loc 4 41 30
 835 0398 13050A43 		addi	a0,s4,1072
 836 039c 97000000 		call	_ZN10KSemaphore6signalEv
 836      E7800000 
 837              	.LVL62:
  42:src/cpp/../../h/../h/../h/shared_buffer.hpp ****         mutex.signal();
 838              		.loc 4 42 21
 839 03a4 13850A00 		mv	a0,s5
 840 03a8 97000000 		call	_ZN10KSemaphore6signalEv
 840      E7800000 
 841              	.LVL63:
 842              	.LBE174:
 843              	.LBE173:
 118:src/cpp/interrupt_cpp.cpp ****     }
 844              		.loc 1 118 13
 845 03b0 13850400 		mv	a0,s1
 846              	.LVL64:
 847 03b4 6FF05FE3 		j	.L7
 848              	.LBE178:
 849              	.LBE185:
 850              	.LBE199:
 851              	.LBE207:
 852              	.LBE217:
 853              	.LBE231:
 854              	.LBE246:
 855              	.LBE261:
 856              	.LBE277:
GAS LISTING /tmp/ccGiF3FD.s 			page 25


 857              	.LBE299:
 858              		.cfi_endproc
 859              	.LFE69:
 861              		.align	2
 862              		.globl	_Z8sysEcallmmmmm
 864              	_Z8sysEcallmmmmm:
 865              	.LFB70:
 128:src/cpp/interrupt_cpp.cpp **** 
 129:src/cpp/interrupt_cpp.cpp **** uint64 sysEcall(uint64 a0, uint64 a1, uint64 a2, uint64 a3, uint64 a4)
 130:src/cpp/interrupt_cpp.cpp **** {    
 866              		.loc 1 130 1 is_stmt 1
 867              		.cfi_startproc
 868              	.LVL65:
 869 03b8 130101FB 		addi	sp,sp,-80
 870              		.cfi_def_cfa_offset 80
 871 03bc 23341104 		sd	ra,72(sp)
 872 03c0 23308104 		sd	s0,64(sp)
 873 03c4 233C9102 		sd	s1,56(sp)
 874 03c8 23382103 		sd	s2,48(sp)
 875 03cc 23343103 		sd	s3,40(sp)
 876 03d0 23304103 		sd	s4,32(sp)
 877 03d4 233C5101 		sd	s5,24(sp)
 878              		.cfi_offset 1, -8
 879              		.cfi_offset 8, -16
 880              		.cfi_offset 9, -24
 881              		.cfi_offset 18, -32
 882              		.cfi_offset 19, -40
 883              		.cfi_offset 20, -48
 884              		.cfi_offset 21, -56
 885 03d8 13040105 		addi	s0,sp,80
 886              		.cfi_def_cfa 8, 0
 887 03dc 93890500 		mv	s3,a1
 131:src/cpp/interrupt_cpp.cpp ****     uint64 sepc = Riscv::r_sepc()+4, sstatus = Riscv::r_sstatus(), ret = a0;
 888              		.loc 1 131 5
 889              	.LBB345:
 890              	.LBB346:
 112:src/cpp/../../h/../h/riscv.hpp ****     asm volatile("csrr %0, sepc" : "=r" (sepc));
 891              		.loc 3 112 5
 113:src/cpp/../../h/../h/riscv.hpp ****     return sepc;
 892              		.loc 3 113 5
 113:src/cpp/../../h/../h/riscv.hpp ****     return sepc;
 893              		.loc 3 113 48 is_stmt 0
 894              	 #APP
 895              	# 113 "src/cpp/../../h/../h/riscv.hpp" 1
 896              		csrr a5, sepc
 897              	# 0 "" 2
 898              	 #NO_APP
 899 03e4 233CF4FA 		sd	a5,-72(s0)
 114:src/cpp/../../h/../h/riscv.hpp **** } 
 900              		.loc 3 114 5 is_stmt 1
 114:src/cpp/../../h/../h/riscv.hpp **** } 
 901              		.loc 3 114 12 is_stmt 0
 902 03e8 033984FB 		ld	s2,-72(s0)
 903              	.LBE346:
 904              	.LBE345:
 905              		.loc 1 131 35
 906 03ec 13094900 		addi	s2,s2,4
GAS LISTING /tmp/ccGiF3FD.s 			page 26


 907              	.LVL66:
 908              	.LBB347:
 909              	.LBB348:
 168:src/cpp/../../h/../h/riscv.hpp ****     asm volatile("csrr %0, sstatus" : "=r" (sstatus));
 910              		.loc 3 168 5 is_stmt 1
 169:src/cpp/../../h/../h/riscv.hpp ****     return sstatus;
 911              		.loc 3 169 5
 169:src/cpp/../../h/../h/riscv.hpp ****     return sstatus;
 912              		.loc 3 169 54 is_stmt 0
 913              	 #APP
 914              	# 169 "src/cpp/../../h/../h/riscv.hpp" 1
 915              		csrr a5, sstatus
 916              	# 0 "" 2
 917              	 #NO_APP
 918 03f4 2338F4FA 		sd	a5,-80(s0)
 919              		.loc 3 170 5 is_stmt 1
 920              		.loc 3 170 12 is_stmt 0
 921 03f8 033A04FB 		ld	s4,-80(s0)
 922              	.LVL67:
 923              	.LBE348:
 924              	.LBE347:
 132:src/cpp/interrupt_cpp.cpp ****     
 133:src/cpp/interrupt_cpp.cpp ****     if(a0 == MA){
 925              		.loc 1 133 5 is_stmt 1
 926              	.LBB349:
 927 03fc 93071000 		li	a5,1
 928 0400 6306F50E 		beq	a0,a5,.L54
 929 0404 93040500 		mv	s1,a0
 930 0408 930A0600 		mv	s5,a2
 931              	.LBE349:
 134:src/cpp/interrupt_cpp.cpp ****         //mem_alloc
 135:src/cpp/interrupt_cpp.cpp ****         ret = (uint64)MemoryAllocator::getInstance().mem_alloc(a1);    
 136:src/cpp/interrupt_cpp.cpp ****     }
 137:src/cpp/interrupt_cpp.cpp ****     else if(a0 == MF)
 932              		.loc 1 137 10
 933              	.LBB474:
 934              	.LBB350:
 935 040c 93072000 		li	a5,2
 936 0410 630CF510 		beq	a0,a5,.L55
 937              	.LBE350:
 938              	.LBE474:
 138:src/cpp/interrupt_cpp.cpp ****     {
 139:src/cpp/interrupt_cpp.cpp ****         //mem_free
 140:src/cpp/interrupt_cpp.cpp ****         ret = (uint64)MemoryAllocator::getInstance().mem_free((void*)a1);
 141:src/cpp/interrupt_cpp.cpp ****     
 142:src/cpp/interrupt_cpp.cpp ****     }
 143:src/cpp/interrupt_cpp.cpp ****     else if(a0 == TC)
 939              		.loc 1 143 10
 940              	.LBB475:
 941              	.LBB458:
 942              	.LBB351:
 943 0414 93071001 		li	a5,17
 944 0418 6304F512 		beq	a0,a5,.L56
 945              	.LBE351:
 946              	.LBE458:
 947              	.LBE475:
 144:src/cpp/interrupt_cpp.cpp ****     {
GAS LISTING /tmp/ccGiF3FD.s 			page 27


 145:src/cpp/interrupt_cpp.cpp ****         //thread_create
 146:src/cpp/interrupt_cpp.cpp ****         uint64* t = (uint64*)a1;
 147:src/cpp/interrupt_cpp.cpp ****         *t = (uint64)TCB::createThread((TCB::Body)a2, (void*)a3, (uint64*)a4); 
 148:src/cpp/interrupt_cpp.cpp ****         if(!(*t)) ret = -4;
 149:src/cpp/interrupt_cpp.cpp ****         else ret = 0;
 150:src/cpp/interrupt_cpp.cpp ****     }
 151:src/cpp/interrupt_cpp.cpp ****     else if(a0 == TE)
 948              		.loc 1 151 10
 949              	.LBB476:
 950              	.LBB459:
 951              	.LBB443:
 952              	.LBB352:
 953 041c 93072001 		li	a5,18
 954 0420 6306F514 		beq	a0,a5,.L57
 955              	.LBE352:
 956              	.LBE443:
 957              	.LBE459:
 958              	.LBE476:
 152:src/cpp/interrupt_cpp.cpp ****     {
 153:src/cpp/interrupt_cpp.cpp ****         //thread_exit
 154:src/cpp/interrupt_cpp.cpp ****         TCB::running->finish();
 155:src/cpp/interrupt_cpp.cpp ****         TCB::dispatch();
 156:src/cpp/interrupt_cpp.cpp ****         Riscv::w_sstatus(sstatus);
 157:src/cpp/interrupt_cpp.cpp ****     }
 158:src/cpp/interrupt_cpp.cpp ****     else if(a0 == TD)
 959              		.loc 1 158 10
 960              	.LBB477:
 961              	.LBB460:
 962              	.LBB444:
 963              	.LBB428:
 964              	.LBB353:
 965 0424 93073001 		li	a5,19
 966 0428 6306F516 		beq	a0,a5,.L58
 967              	.LBE353:
 968              	.LBE428:
 969              	.LBE444:
 970              	.LBE460:
 971              	.LBE477:
 159:src/cpp/interrupt_cpp.cpp ****     {
 160:src/cpp/interrupt_cpp.cpp ****         //thread_dispatch
 161:src/cpp/interrupt_cpp.cpp ****         TCB::timeSliceCounter = 0; 
 162:src/cpp/interrupt_cpp.cpp ****         TCB::yield();
 163:src/cpp/interrupt_cpp.cpp ****         Riscv::w_sstatus(sstatus);
 164:src/cpp/interrupt_cpp.cpp ****     }
 165:src/cpp/interrupt_cpp.cpp ****     else if(a0 == DTH)
 972              		.loc 1 165 10
 973              	.LBB478:
 974              	.LBB461:
 975              	.LBB445:
 976              	.LBB429:
 977              	.LBB412:
 978              	.LBB354:
 979 042c 93079006 		li	a5,105
 980 0430 6300F518 		beq	a0,a5,.L59
 981              	.LBE354:
 982              	.LBE412:
 983              	.LBE429:
GAS LISTING /tmp/ccGiF3FD.s 			page 28


 984              	.LBE445:
 985              	.LBE461:
 986              	.LBE478:
 166:src/cpp/interrupt_cpp.cpp ****     {
 167:src/cpp/interrupt_cpp.cpp ****         //delete thread handle
 168:src/cpp/interrupt_cpp.cpp ****         TCB::deleteThread((TCB*)a1);
 169:src/cpp/interrupt_cpp.cpp ****     }
 170:src/cpp/interrupt_cpp.cpp ****     else if(a0 == SO)
 987              		.loc 1 170 10
 988              	.LBB479:
 989              	.LBB462:
 990              	.LBB446:
 991              	.LBB430:
 992              	.LBB413:
 993              	.LBB400:
 994              	.LBB355:
 995 0434 93071002 		li	a5,33
 996 0438 6306F518 		beq	a0,a5,.L60
 997              	.LBE355:
 998              	.LBE400:
 999              	.LBE413:
 1000              	.LBE430:
 1001              	.LBE446:
 1002              	.LBE462:
 1003              	.LBE479:
 171:src/cpp/interrupt_cpp.cpp ****     {
 172:src/cpp/interrupt_cpp.cpp ****         uint64* t = (uint64*)a1;
 173:src/cpp/interrupt_cpp.cpp ****         *t = (uint64)(new KSemaphore(a2));
 174:src/cpp/interrupt_cpp.cpp ****     }
 175:src/cpp/interrupt_cpp.cpp ****     else if(a0 == SC)
 1004              		.loc 1 175 10
 1005              	.LBB480:
 1006              	.LBB463:
 1007              	.LBB447:
 1008              	.LBB431:
 1009              	.LBB414:
 1010              	.LBB401:
 1011              	.LBB392:
 1012              	.LBB356:
 1013 043c 93072002 		li	a5,34
 1014 0440 6308F51A 		beq	a0,a5,.L61
 1015              	.LBE356:
 1016              	.LBE392:
 1017              	.LBE401:
 1018              	.LBE414:
 1019              	.LBE431:
 1020              	.LBE447:
 1021              	.LBE463:
 1022              	.LBE480:
 176:src/cpp/interrupt_cpp.cpp ****     {
 177:src/cpp/interrupt_cpp.cpp ****         KSemaphore* t = (KSemaphore*)a1;
 178:src/cpp/interrupt_cpp.cpp ****         delete t;
 179:src/cpp/interrupt_cpp.cpp ****     }
 180:src/cpp/interrupt_cpp.cpp ****     else if(a0 == SW)
 1023              		.loc 1 180 10
 1024              	.LBB481:
 1025              	.LBB464:
GAS LISTING /tmp/ccGiF3FD.s 			page 29


 1026              	.LBB448:
 1027              	.LBB432:
 1028              	.LBB415:
 1029              	.LBB402:
 1030              	.LBB393:
 1031              	.LBB379:
 1032              	.LBB357:
 1033 0444 93073002 		li	a5,35
 1034 0448 630AF51C 		beq	a0,a5,.L62
 1035              	.LBE357:
 1036              	.LBE379:
 1037              	.LBE393:
 1038              	.LBE402:
 1039              	.LBE415:
 1040              	.LBE432:
 1041              	.LBE448:
 1042              	.LBE464:
 1043              	.LBE481:
 181:src/cpp/interrupt_cpp.cpp ****     {
 182:src/cpp/interrupt_cpp.cpp ****         KSemaphore* t = (KSemaphore*)a1;
 183:src/cpp/interrupt_cpp.cpp ****         ret = t->wait();
 184:src/cpp/interrupt_cpp.cpp ****         Riscv::w_sstatus(sstatus);
 185:src/cpp/interrupt_cpp.cpp ****     }
 186:src/cpp/interrupt_cpp.cpp ****     else if(a0 == SS)
 1044              		.loc 1 186 10
 1045              	.LBB482:
 1046              	.LBB465:
 1047              	.LBB449:
 1048              	.LBB433:
 1049              	.LBB416:
 1050              	.LBB403:
 1051              	.LBB394:
 1052              	.LBB380:
 1053              	.LBB372:
 1054              	.LBB358:
 1055 044c 93074002 		li	a5,36
 1056 0450 6300F51E 		beq	a0,a5,.L63
 187:src/cpp/interrupt_cpp.cpp ****     {
 188:src/cpp/interrupt_cpp.cpp ****         KSemaphore* t = (KSemaphore*)a1;
 189:src/cpp/interrupt_cpp.cpp ****         t->signal();
 190:src/cpp/interrupt_cpp.cpp ****     }
 191:src/cpp/interrupt_cpp.cpp ****     else if(a0 == TS)
 1057              		.loc 1 191 10
 1058 0454 93071003 		li	a5,49
 1059 0458 6306F51E 		beq	a0,a5,.L64
 192:src/cpp/interrupt_cpp.cpp ****     {      
 193:src/cpp/interrupt_cpp.cpp ****         TCB::sleep(a1);
 194:src/cpp/interrupt_cpp.cpp ****         Riscv::w_sstatus(sstatus);
 195:src/cpp/interrupt_cpp.cpp ****     }
 196:src/cpp/interrupt_cpp.cpp ****     else if(a0 == GC)
 1060              		.loc 1 196 10
 1061 045c 93071004 		li	a5,65
 1062 0460 630EF51E 		beq	a0,a5,.L65
 197:src/cpp/interrupt_cpp.cpp ****     {
 198:src/cpp/interrupt_cpp.cpp ****         ret = StdIO::ibuffer->get();
 199:src/cpp/interrupt_cpp.cpp ****     }
 200:src/cpp/interrupt_cpp.cpp ****     else if(a0 == PC)
GAS LISTING /tmp/ccGiF3FD.s 			page 30


 1063              		.loc 1 200 10
 1064 0464 93072004 		li	a5,66
 1065 0468 631CF508 		bne	a0,a5,.L38
 201:src/cpp/interrupt_cpp.cpp ****     {
 202:src/cpp/interrupt_cpp.cpp ****         StdIO::obuffer->put((char)a1);
 1066              		.loc 1 202 9
 1067              		.loc 1 202 28 is_stmt 0
 1068 046c 97070000 		lla	a5,_ZN5StdIO7obufferE
 1068      93870700 
 1069 0474 03BA0700 		ld	s4,0(a5)
 1070              	.LVL68:
 1071 0478 93F9F50F 		andi	s3,a1,0xff
 1072              	.LVL69:
 1073              	.LBB359:
 1074              	.LBB360:
  22:src/cpp/../../h/../h/../h/shared_buffer.hpp ****         mutex.wait();
 1075              		.loc 4 22 28
 1076 047c 13050A43 		addi	a0,s4,1072
 1077              	.LVL70:
 1078 0480 97000000 		call	_ZN10KSemaphore4waitEv
 1078      E7800000 
 1079              	.LVL71:
  23:src/cpp/../../h/../h/../h/shared_buffer.hpp **** 
 1080              		.loc 4 23 19
 1081 0488 930A0A40 		addi	s5,s4,1024
 1082              	.LVL72:
 1083 048c 13850A00 		mv	a0,s5
 1084 0490 97000000 		call	_ZN10KSemaphore4waitEv
 1084      E7800000 
 1085              	.LVL73:
  25:src/cpp/../../h/../h/../h/shared_buffer.hpp ****         buffer[tail]=c;
 1086              		.loc 4 25 9
 1087 0498 83270A45 		lw	a5,1104(s4)
 1088 049c 9B871700 		addiw	a5,a5,1
 1089 04a0 2328FA44 		sw	a5,1104(s4)
  26:src/cpp/../../h/../h/../h/shared_buffer.hpp ****         tail=(tail+1)%BUFFER_SIZE;
 1090              		.loc 4 26 16
 1091 04a4 8327CA44 		lw	a5,1100(s4)
  26:src/cpp/../../h/../h/../h/shared_buffer.hpp ****         tail=(tail+1)%BUFFER_SIZE;
 1092              		.loc 4 26 9
 1093 04a8 3307FA00 		add	a4,s4,a5
 1094 04ac 23003701 		sb	s3,0(a4)
  27:src/cpp/../../h/../h/../h/shared_buffer.hpp ****     
 1095              		.loc 4 27 19
 1096 04b0 9B871700 		addiw	a5,a5,1
  27:src/cpp/../../h/../h/../h/shared_buffer.hpp ****     
 1097              		.loc 4 27 22
 1098 04b4 1BD7F741 		sraiw	a4,a5,31
 1099 04b8 1B576701 		srliw	a4,a4,22
 1100 04bc BB87E700 		addw	a5,a5,a4
 1101 04c0 93F7F73F 		andi	a5,a5,1023
 1102 04c4 BB87E740 		subw	a5,a5,a4
  27:src/cpp/../../h/../h/../h/shared_buffer.hpp ****     
 1103              		.loc 4 27 9
 1104 04c8 2326FA44 		sw	a5,1100(s4)
  29:src/cpp/../../h/../h/../h/shared_buffer.hpp ****         mutex.signal();
 1105              		.loc 4 29 29
GAS LISTING /tmp/ccGiF3FD.s 			page 31


 1106 04cc 13058A41 		addi	a0,s4,1048
 1107 04d0 97000000 		call	_ZN10KSemaphore6signalEv
 1107      E7800000 
 1108              	.LVL74:
  30:src/cpp/../../h/../h/../h/shared_buffer.hpp ****     }
 1109              		.loc 4 30 21
 1110 04d8 13850A00 		mv	a0,s5
 1111 04dc 97000000 		call	_ZN10KSemaphore6signalEv
 1111      E7800000 
 1112              	.LVL75:
 1113              	.LBE360:
 1114              	.LBE359:
 1115              	.LBE358:
 1116              	.LBE372:
 1117              	.LBE380:
 1118              	.LBE394:
 1119              	.LBE403:
 1120              	.LBE416:
 1121              	.LBE433:
 1122              	.LBE449:
 1123              	.LBE465:
 1124              	.LBE482:
 131:src/cpp/interrupt_cpp.cpp ****     
 1125              		.loc 1 131 68
 1126 04e4 13850400 		mv	a0,s1
 1127 04e8 6F008001 		j	.L38
 1128              	.LVL76:
 1129              	.L54:
 1130              	.LBB483:
 135:src/cpp/interrupt_cpp.cpp ****     }
 1131              		.loc 1 135 9 is_stmt 1
 135:src/cpp/interrupt_cpp.cpp ****     }
 1132              		.loc 1 135 52 is_stmt 0
 1133 04ec 97000000 		call	_ZN15MemoryAllocator11getInstanceEv
 1133      E7800000 
 1134              	.LVL77:
 135:src/cpp/interrupt_cpp.cpp ****     }
 1135              		.loc 1 135 63
 1136 04f4 93850900 		mv	a1,s3
 1137 04f8 97000000 		call	_ZN15MemoryAllocator9mem_allocEm
 1137      E7800000 
 1138              	.LVL78:
 1139              	.L38:
 1140              	.LBE483:
 203:src/cpp/interrupt_cpp.cpp ****     }
 204:src/cpp/interrupt_cpp.cpp ****     Riscv::w_sepc(sepc);
 1141              		.loc 1 204 5 is_stmt 1
 1142              	.LBB484:
 1143              	.LBB485:
 108:src/cpp/../../h/../h/riscv.hpp **** }
 1144              		.loc 3 108 5
 108:src/cpp/../../h/../h/riscv.hpp **** }
 1145              		.loc 3 108 49 is_stmt 0
 1146              	 #APP
 1147              	# 108 "src/cpp/../../h/../h/riscv.hpp" 1
 1148              		csrw sepc, s2
 1149              	# 0 "" 2
GAS LISTING /tmp/ccGiF3FD.s 			page 32


 1150              	.LVL79:
 1151              	 #NO_APP
 1152              	.LBE485:
 1153              	.LBE484:
 205:src/cpp/interrupt_cpp.cpp ****     return ret;
 1154              		.loc 1 205 5 is_stmt 1
 206:src/cpp/interrupt_cpp.cpp **** }
 1155              		.loc 1 206 1 is_stmt 0
 1156 0504 83308104 		ld	ra,72(sp)
 1157              		.cfi_remember_state
 1158              		.cfi_restore 1
 1159 0508 03340104 		ld	s0,64(sp)
 1160              		.cfi_restore 8
 1161              		.cfi_def_cfa 2, 80
 1162 050c 83348103 		ld	s1,56(sp)
 1163              		.cfi_restore 9
 1164 0510 03390103 		ld	s2,48(sp)
 1165              		.cfi_restore 18
 1166              	.LVL80:
 1167 0514 83398102 		ld	s3,40(sp)
 1168              		.cfi_restore 19
 1169 0518 033A0102 		ld	s4,32(sp)
 1170              		.cfi_restore 20
 1171 051c 833A8101 		ld	s5,24(sp)
 1172              		.cfi_restore 21
 1173 0520 13010105 		addi	sp,sp,80
 1174              		.cfi_def_cfa_offset 0
 1175 0524 67800000 		jr	ra
 1176              	.LVL81:
 1177              	.L55:
 1178              		.cfi_restore_state
 1179              	.LBB486:
 1180              	.LBB466:
 140:src/cpp/interrupt_cpp.cpp ****     
 1181              		.loc 1 140 9 is_stmt 1
 140:src/cpp/interrupt_cpp.cpp ****     
 1182              		.loc 1 140 52 is_stmt 0
 1183 0528 97000000 		call	_ZN15MemoryAllocator11getInstanceEv
 1183      E7800000 
 1184              	.LVL82:
 140:src/cpp/interrupt_cpp.cpp ****     
 1185              		.loc 1 140 62
 1186 0530 93850900 		mv	a1,s3
 1187 0534 97000000 		call	_ZN15MemoryAllocator8mem_freeEPv
 1187      E7800000 
 1188              	.LVL83:
 1189 053c 6FF05FFC 		j	.L38
 1190              	.LVL84:
 1191              	.L56:
 1192              	.LBB450:
 1193              	.LBB434:
 146:src/cpp/interrupt_cpp.cpp ****         *t = (uint64)TCB::createThread((TCB::Body)a2, (void*)a3, (uint64*)a4); 
 1194              		.loc 1 146 9 is_stmt 1
 147:src/cpp/interrupt_cpp.cpp ****         if(!(*t)) ret = -4;
 1195              		.loc 1 147 9
 147:src/cpp/interrupt_cpp.cpp ****         if(!(*t)) ret = -4;
 1196              		.loc 1 147 39 is_stmt 0
GAS LISTING /tmp/ccGiF3FD.s 			page 33


 1197 0540 13060700 		mv	a2,a4
 1198              	.LVL85:
 1199 0544 93850600 		mv	a1,a3
 1200              	.LVL86:
 1201 0548 13850A00 		mv	a0,s5
 1202 054c 97000000 		call	_ZN3TCB12createThreadEPFvPvES0_Pm
 1202      E7800000 
 1203              	.LVL87:
 147:src/cpp/interrupt_cpp.cpp ****         if(!(*t)) ret = -4;
 1204              		.loc 1 147 12
 1205 0554 23B0A900 		sd	a0,0(s3)
 148:src/cpp/interrupt_cpp.cpp ****         else ret = 0;
 1206              		.loc 1 148 9 is_stmt 1
 1207 0558 63060500 		beq	a0,zero,.L66
 149:src/cpp/interrupt_cpp.cpp ****     }
 1208              		.loc 1 149 18 is_stmt 0
 1209 055c 13050000 		li	a0,0
 1210 0560 6FF01FFA 		j	.L38
 1211              	.L66:
 148:src/cpp/interrupt_cpp.cpp ****         else ret = 0;
 1212              		.loc 1 148 23
 1213 0564 1305C0FF 		li	a0,-4
 1214 0568 6FF09FF9 		j	.L38
 1215              	.LVL88:
 1216              	.L57:
 1217              	.LBE434:
 1218              	.LBB435:
 154:src/cpp/interrupt_cpp.cpp ****         TCB::dispatch();
 1219              		.loc 1 154 9 is_stmt 1
 154:src/cpp/interrupt_cpp.cpp ****         TCB::dispatch();
 1220              		.loc 1 154 29 is_stmt 0
 1221 056c 97070000 		lla	a5,_ZN3TCB7runningE
 1221      93870700 
 1222 0574 83B70700 		ld	a5,0(a5)
 1223              	.LVL89:
 1224              	.LBB417:
 1225              	.LBB418:
  31:src/cpp/../../h/../h/../h/tcb.hpp ****     bool isFinished(){ return state == FINISHED; }
 1226              		.loc 2 31 21 is_stmt 1
  31:src/cpp/../../h/../h/../h/tcb.hpp ****     bool isFinished(){ return state == FINISHED; }
 1227              		.loc 2 31 27 is_stmt 0
 1228 0578 13072000 		li	a4,2
 1229              	.LVL90:
 1230 057c 23ACE702 		sw	a4,56(a5)
 1231              	.LVL91:
 1232              	.LBE418:
 1233              	.LBE417:
 155:src/cpp/interrupt_cpp.cpp ****         Riscv::w_sstatus(sstatus);
 1234              		.loc 1 155 9 is_stmt 1
 155:src/cpp/interrupt_cpp.cpp ****         Riscv::w_sstatus(sstatus);
 1235              		.loc 1 155 22 is_stmt 0
 1236 0580 97000000 		call	_ZN3TCB8dispatchEv
 1236      E7800000 
 1237              	.LVL92:
 156:src/cpp/interrupt_cpp.cpp ****     }
 1238              		.loc 1 156 9 is_stmt 1
 1239              	.LBB419:
GAS LISTING /tmp/ccGiF3FD.s 			page 34


 1240              	.LBB420:
 164:src/cpp/../../h/../h/riscv.hpp **** }
 1241              		.loc 3 164 5
 164:src/cpp/../../h/../h/riscv.hpp **** }
 1242              		.loc 3 164 55 is_stmt 0
 1243              	 #APP
 1244              	# 164 "src/cpp/../../h/../h/riscv.hpp" 1
 1245              		csrw sstatus, s4
 1246              	# 0 "" 2
 1247              	 #NO_APP
 1248              	.LBE420:
 1249              	.LBE419:
 1250              	.LBE435:
 1251              	.LBE450:
 1252              	.LBE466:
 1253              	.LBE486:
 131:src/cpp/interrupt_cpp.cpp ****     
 1254              		.loc 1 131 68
 1255 058c 13850400 		mv	a0,s1
 1256 0590 6FF01FF7 		j	.L38
 1257              	.LVL93:
 1258              	.L58:
 1259              	.LBB487:
 1260              	.LBB467:
 1261              	.LBB451:
 1262              	.LBB436:
 1263              	.LBB421:
 161:src/cpp/interrupt_cpp.cpp ****         TCB::yield();
 1264              		.loc 1 161 9 is_stmt 1
 161:src/cpp/interrupt_cpp.cpp ****         TCB::yield();
 1265              		.loc 1 161 31 is_stmt 0
 1266 0594 97070000 		sd	zero,_ZN3TCB16timeSliceCounterE,a5
 1266      23B00700 
 162:src/cpp/interrupt_cpp.cpp ****         Riscv::w_sstatus(sstatus);
 1267              		.loc 1 162 9 is_stmt 1
 162:src/cpp/interrupt_cpp.cpp ****         Riscv::w_sstatus(sstatus);
 1268              		.loc 1 162 19 is_stmt 0
 1269 059c 97000000 		call	_ZN3TCB5yieldEv
 1269      E7800000 
 1270              	.LVL94:
 163:src/cpp/interrupt_cpp.cpp ****     }
 1271              		.loc 1 163 9 is_stmt 1
 1272              	.LBB404:
 1273              	.LBB405:
 164:src/cpp/../../h/../h/riscv.hpp **** }
 1274              		.loc 3 164 5
 164:src/cpp/../../h/../h/riscv.hpp **** }
 1275              		.loc 3 164 55 is_stmt 0
 1276              	 #APP
 1277              	# 164 "src/cpp/../../h/../h/riscv.hpp" 1
 1278              		csrw sstatus, s4
 1279              	# 0 "" 2
 1280              	 #NO_APP
 1281              	.LBE405:
 1282              	.LBE404:
 1283              	.LBE421:
 1284              	.LBE436:
GAS LISTING /tmp/ccGiF3FD.s 			page 35


 1285              	.LBE451:
 1286              	.LBE467:
 1287              	.LBE487:
 131:src/cpp/interrupt_cpp.cpp ****     
 1288              		.loc 1 131 68
 1289 05a8 13850400 		mv	a0,s1
 1290 05ac 6FF05FF5 		j	.L38
 1291              	.LVL95:
 1292              	.L59:
 1293              	.LBB488:
 1294              	.LBB468:
 1295              	.LBB452:
 1296              	.LBB437:
 1297              	.LBB422:
 1298              	.LBB406:
 168:src/cpp/interrupt_cpp.cpp ****     }
 1299              		.loc 1 168 9 is_stmt 1
 168:src/cpp/interrupt_cpp.cpp ****     }
 1300              		.loc 1 168 26 is_stmt 0
 1301 05b0 13850500 		mv	a0,a1
 1302 05b4 97000000 		call	_ZN3TCB12deleteThreadEPS_
 1302      E7800000 
 1303              	.LVL96:
 1304              	.LBE406:
 1305              	.LBE422:
 1306              	.LBE437:
 1307              	.LBE452:
 1308              	.LBE468:
 1309              	.LBE488:
 131:src/cpp/interrupt_cpp.cpp ****     
 1310              		.loc 1 131 68
 1311 05bc 13850400 		mv	a0,s1
 1312              	.LBB489:
 1313              	.LBB469:
 1314              	.LBB453:
 1315              	.LBB438:
 1316              	.LBB423:
 1317              	.LBB407:
 1318 05c0 6FF01FF4 		j	.L38
 1319              	.LVL97:
 1320              	.L60:
 1321              	.LBB395:
 1322              	.LBB381:
 172:src/cpp/interrupt_cpp.cpp ****         *t = (uint64)(new KSemaphore(a2));
 1323              		.loc 1 172 9 is_stmt 1
 173:src/cpp/interrupt_cpp.cpp ****     }
 1324              		.loc 1 173 9
 1325              	.LBB382:
 1326              	.LBB383:
   1:src/cpp/../../h/../h/../h/kernel_operators.hpp **** void* operator new[](size_t sz){ return MemoryAllocator::getInstance().mem_alloc((sz-1)/MEM_BLOCK_S
 1327              		.loc 5 1 31
   1:src/cpp/../../h/../h/../h/kernel_operators.hpp **** void* operator new[](size_t sz){ return MemoryAllocator::getInstance().mem_alloc((sz-1)/MEM_BLOCK_S
 1328              		.loc 5 1 67 is_stmt 0
 1329 05c4 97000000 		call	_ZN15MemoryAllocator11getInstanceEv
 1329      E7800000 
 1330              	.LVL98:
   1:src/cpp/../../h/../h/../h/kernel_operators.hpp **** void* operator new[](size_t sz){ return MemoryAllocator::getInstance().mem_alloc((sz-1)/MEM_BLOCK_S
GAS LISTING /tmp/ccGiF3FD.s 			page 36


 1331              		.loc 5 1 78
 1332 05cc 93051000 		li	a1,1
 1333 05d0 97000000 		call	_ZN15MemoryAllocator9mem_allocEm
 1333      E7800000 
 1334              	.LVL99:
 1335              	.LBE383:
 1336              	.LBE382:
 1337              	.LBB384:
 1338              	.LBB385:
 1339              		.loc 6 9 37
 1340 05d8 23205501 		sw	s5,0(a0)
 1341              	.LVL100:
 1342              	.LBB386:
 1343              	.LBB387:
 1344              		.loc 7 18 43
 1345 05dc 23340500 		sd	zero,8(a0)
 1346 05e0 23380500 		sd	zero,16(a0)
 1347              	.LVL101:
 1348              	.LBE387:
 1349              	.LBE386:
 1350              	.LBE385:
 1351              	.LBE384:
 173:src/cpp/interrupt_cpp.cpp ****     }
 1352              		.loc 1 173 12
 1353 05e4 23B0A900 		sd	a0,0(s3)
 1354              	.LBE381:
 1355              	.LBE395:
 1356              	.LBE407:
 1357              	.LBE423:
 1358              	.LBE438:
 1359              	.LBE453:
 1360              	.LBE469:
 1361              	.LBE489:
 131:src/cpp/interrupt_cpp.cpp ****     
 1362              		.loc 1 131 68
 1363 05e8 13850400 		mv	a0,s1
 1364              	.LBB490:
 1365              	.LBB470:
 1366              	.LBB454:
 1367              	.LBB439:
 1368              	.LBB424:
 1369              	.LBB408:
 1370              	.LBB396:
 1371 05ec 6FF05FF1 		j	.L38
 1372              	.LVL102:
 1373              	.L61:
 1374              	.LBB388:
 1375              	.LBB373:
 177:src/cpp/interrupt_cpp.cpp ****         delete t;
 1376              		.loc 1 177 9 is_stmt 1
 178:src/cpp/interrupt_cpp.cpp ****     }
 1377              		.loc 1 178 9
 178:src/cpp/interrupt_cpp.cpp ****     }
 1378              		.loc 1 178 17 is_stmt 0
 1379 05f0 E38805F0 		beq	a1,zero,.L38
 178:src/cpp/interrupt_cpp.cpp ****     }
 1380              		.loc 1 178 16 discriminator 1
GAS LISTING /tmp/ccGiF3FD.s 			page 37


 1381 05f4 13850500 		mv	a0,a1
 1382 05f8 97000000 		call	_ZN10KSemaphoreD1Ev
 1382      E7800000 
 1383              	.LVL103:
 1384              	.LBB374:
 1385              	.LBB375:
 1386              		.loc 5 3 33 is_stmt 1 discriminator 1
 1387              		.loc 5 3 62 is_stmt 0 discriminator 1
 1388 0600 97000000 		call	_ZN15MemoryAllocator11getInstanceEv
 1388      E7800000 
 1389              	.LVL104:
 1390              		.loc 5 3 72 discriminator 1
 1391 0608 93850900 		mv	a1,s3
 1392 060c 97000000 		call	_ZN15MemoryAllocator8mem_freeEPv
 1392      E7800000 
 1393              	.LVL105:
 1394              	.LBE375:
 1395              	.LBE374:
 1396              	.LBE373:
 1397              	.LBE388:
 1398              	.LBE396:
 1399              	.LBE408:
 1400              	.LBE424:
 1401              	.LBE439:
 1402              	.LBE454:
 1403              	.LBE470:
 1404              	.LBE490:
 131:src/cpp/interrupt_cpp.cpp ****     
 1405              		.loc 1 131 68 discriminator 1
 1406 0614 13850400 		mv	a0,s1
 1407 0618 6FF09FEE 		j	.L38
 1408              	.LVL106:
 1409              	.L62:
 1410              	.LBB491:
 1411              	.LBB471:
 1412              	.LBB455:
 1413              	.LBB440:
 1414              	.LBB425:
 1415              	.LBB409:
 1416              	.LBB397:
 1417              	.LBB389:
 1418              	.LBB376:
 1419              	.LBB366:
 182:src/cpp/interrupt_cpp.cpp ****         ret = t->wait();
 1420              		.loc 1 182 9 is_stmt 1
 183:src/cpp/interrupt_cpp.cpp ****         Riscv::w_sstatus(sstatus);
 1421              		.loc 1 183 9
 183:src/cpp/interrupt_cpp.cpp ****         Riscv::w_sstatus(sstatus);
 1422              		.loc 1 183 22 is_stmt 0
 1423 061c 13850500 		mv	a0,a1
 1424 0620 97000000 		call	_ZN10KSemaphore4waitEv
 1424      E7800000 
 1425              	.LVL107:
 184:src/cpp/interrupt_cpp.cpp ****     }
 1426              		.loc 1 184 9 is_stmt 1
 1427              	.LBB367:
 1428              	.LBB368:
GAS LISTING /tmp/ccGiF3FD.s 			page 38


 164:src/cpp/../../h/../h/riscv.hpp **** }
 1429              		.loc 3 164 5
 164:src/cpp/../../h/../h/riscv.hpp **** }
 1430              		.loc 3 164 55 is_stmt 0
 1431              	 #APP
 1432              	# 164 "src/cpp/../../h/../h/riscv.hpp" 1
 1433              		csrw sstatus, s4
 1434              	# 0 "" 2
 1435              	 #NO_APP
 1436 062c 6FF05FED 		j	.L38
 1437              	.LVL108:
 1438              	.L63:
 1439              	.LBE368:
 1440              	.LBE367:
 1441              	.LBE366:
 1442              	.LBB369:
 1443              	.LBB361:
 188:src/cpp/interrupt_cpp.cpp ****         t->signal();
 1444              		.loc 1 188 9 is_stmt 1
 189:src/cpp/interrupt_cpp.cpp ****     }
 1445              		.loc 1 189 9
 189:src/cpp/interrupt_cpp.cpp ****     }
 1446              		.loc 1 189 18 is_stmt 0
 1447 0630 13850500 		mv	a0,a1
 1448 0634 97000000 		call	_ZN10KSemaphore6signalEv
 1448      E7800000 
 1449              	.LVL109:
 1450              	.LBE361:
 1451              	.LBE369:
 1452              	.LBE376:
 1453              	.LBE389:
 1454              	.LBE397:
 1455              	.LBE409:
 1456              	.LBE425:
 1457              	.LBE440:
 1458              	.LBE455:
 1459              	.LBE471:
 1460              	.LBE491:
 131:src/cpp/interrupt_cpp.cpp ****     
 1461              		.loc 1 131 68
 1462 063c 13850400 		mv	a0,s1
 1463              	.LBB492:
 1464              	.LBB472:
 1465              	.LBB456:
 1466              	.LBB441:
 1467              	.LBB426:
 1468              	.LBB410:
 1469              	.LBB398:
 1470              	.LBB390:
 1471              	.LBB377:
 1472              	.LBB370:
 1473 0640 6FF01FEC 		j	.L38
 1474              	.LVL110:
 1475              	.L64:
 193:src/cpp/interrupt_cpp.cpp ****         Riscv::w_sstatus(sstatus);
 1476              		.loc 1 193 9 is_stmt 1
 193:src/cpp/interrupt_cpp.cpp ****         Riscv::w_sstatus(sstatus);
GAS LISTING /tmp/ccGiF3FD.s 			page 39


 1477              		.loc 1 193 19 is_stmt 0
 1478 0644 13850500 		mv	a0,a1
 1479 0648 97000000 		call	_ZN3TCB5sleepEm
 1479      E7800000 
 1480              	.LVL111:
 194:src/cpp/interrupt_cpp.cpp ****     }
 1481              		.loc 1 194 9 is_stmt 1
 1482              	.LBB362:
 1483              	.LBB363:
 164:src/cpp/../../h/../h/riscv.hpp **** }
 1484              		.loc 3 164 5
 164:src/cpp/../../h/../h/riscv.hpp **** }
 1485              		.loc 3 164 55 is_stmt 0
 1486              	 #APP
 1487              	# 164 "src/cpp/../../h/../h/riscv.hpp" 1
 1488              		csrw sstatus, s4
 1489              	# 0 "" 2
 1490              	 #NO_APP
 1491              	.LBE363:
 1492              	.LBE362:
 1493              	.LBE370:
 1494              	.LBE377:
 1495              	.LBE390:
 1496              	.LBE398:
 1497              	.LBE410:
 1498              	.LBE426:
 1499              	.LBE441:
 1500              	.LBE456:
 1501              	.LBE472:
 1502              	.LBE492:
 131:src/cpp/interrupt_cpp.cpp ****     
 1503              		.loc 1 131 68
 1504 0654 13850400 		mv	a0,s1
 1505 0658 6FF09FEA 		j	.L38
 1506              	.LVL112:
 1507              	.L65:
 1508              	.LBB493:
 1509              	.LBB473:
 1510              	.LBB457:
 1511              	.LBB442:
 1512              	.LBB427:
 1513              	.LBB411:
 1514              	.LBB399:
 1515              	.LBB391:
 1516              	.LBB378:
 1517              	.LBB371:
 198:src/cpp/interrupt_cpp.cpp ****     }
 1518              		.loc 1 198 9 is_stmt 1
 198:src/cpp/interrupt_cpp.cpp ****     }
 1519              		.loc 1 198 34 is_stmt 0
 1520 065c 97070000 		lla	a5,_ZN5StdIO7ibufferE
 1520      93870700 
 1521 0664 83B90700 		ld	s3,0(a5)
 1522              	.LVL113:
 1523              	.LBB364:
 1524              	.LBB365:
  34:src/cpp/../../h/../h/../h/shared_buffer.hpp ****         mutex.wait();
GAS LISTING /tmp/ccGiF3FD.s 			page 40


 1525              		.loc 4 34 27
 1526 0668 13858941 		addi	a0,s3,1048
 1527 066c 97000000 		call	_ZN10KSemaphore4waitEv
 1527      E7800000 
 1528              	.LVL114:
  35:src/cpp/../../h/../h/../h/shared_buffer.hpp **** 
 1529              		.loc 4 35 19
 1530 0674 138A0940 		addi	s4,s3,1024
 1531              	.LVL115:
 1532 0678 13050A00 		mv	a0,s4
 1533 067c 97000000 		call	_ZN10KSemaphore4waitEv
 1533      E7800000 
 1534              	.LVL116:
  37:src/cpp/../../h/../h/../h/shared_buffer.hpp ****         T r = buffer[head];
 1535              		.loc 4 37 9
 1536 0684 83A70945 		lw	a5,1104(s3)
 1537 0688 9B87F7FF 		addiw	a5,a5,-1
 1538 068c 23A8F944 		sw	a5,1104(s3)
  38:src/cpp/../../h/../h/../h/shared_buffer.hpp ****         head = (head+1)%BUFFER_SIZE;
 1539              		.loc 4 38 22
 1540 0690 83A78944 		lw	a5,1096(s3)
  38:src/cpp/../../h/../h/../h/shared_buffer.hpp ****         head = (head+1)%BUFFER_SIZE;
 1541              		.loc 4 38 11
 1542 0694 3387F900 		add	a4,s3,a5
 1543 0698 83440700 		lbu	s1,0(a4)
 1544              	.LVL117:
  39:src/cpp/../../h/../h/../h/shared_buffer.hpp **** 
 1545              		.loc 4 39 21
 1546 069c 9B871700 		addiw	a5,a5,1
  39:src/cpp/../../h/../h/../h/shared_buffer.hpp **** 
 1547              		.loc 4 39 24
 1548 06a0 1BD7F741 		sraiw	a4,a5,31
 1549 06a4 1B576701 		srliw	a4,a4,22
 1550 06a8 BB87E700 		addw	a5,a5,a4
 1551 06ac 93F7F73F 		andi	a5,a5,1023
 1552 06b0 BB87E740 		subw	a5,a5,a4
  39:src/cpp/../../h/../h/../h/shared_buffer.hpp **** 
 1553              		.loc 4 39 9
 1554 06b4 23A4F944 		sw	a5,1096(s3)
  41:src/cpp/../../h/../h/../h/shared_buffer.hpp ****         mutex.signal();
 1555              		.loc 4 41 30
 1556 06b8 13850943 		addi	a0,s3,1072
 1557 06bc 97000000 		call	_ZN10KSemaphore6signalEv
 1557      E7800000 
 1558              	.LVL118:
 1559              		.loc 4 42 21
 1560 06c4 13050A00 		mv	a0,s4
 1561 06c8 97000000 		call	_ZN10KSemaphore6signalEv
 1561      E7800000 
 1562              	.LVL119:
 1563              	.LBE365:
 1564              	.LBE364:
 198:src/cpp/interrupt_cpp.cpp ****     }
 1565              		.loc 1 198 13
 1566 06d0 13850400 		mv	a0,s1
 1567              	.LVL120:
 1568 06d4 6FF0DFE2 		j	.L38
GAS LISTING /tmp/ccGiF3FD.s 			page 41


 1569              	.LBE371:
 1570              	.LBE378:
 1571              	.LBE391:
 1572              	.LBE399:
 1573              	.LBE411:
 1574              	.LBE427:
 1575              	.LBE442:
 1576              	.LBE457:
 1577              	.LBE473:
 1578              	.LBE493:
 1579              		.cfi_endproc
 1580              	.LFE70:
 1582              		.align	2
 1583              		.globl	interrupt
 1585              	interrupt:
 1586              	.LFB71:
 207:src/cpp/interrupt_cpp.cpp **** 
 208:src/cpp/interrupt_cpp.cpp **** extern "C" volatile  void interrupt(uint64 a0, uint64 a1, uint64 a2, uint64 a3, uint64 a4)
 209:src/cpp/interrupt_cpp.cpp **** {
 1587              		.loc 1 209 1 is_stmt 1
 1588              		.cfi_startproc
 1589              	.LVL121:
 1590 06d8 130101FC 		addi	sp,sp,-64
 1591              		.cfi_def_cfa_offset 64
 1592 06dc 233C1102 		sd	ra,56(sp)
 1593 06e0 23388102 		sd	s0,48(sp)
 1594 06e4 23349102 		sd	s1,40(sp)
 1595              		.cfi_offset 1, -8
 1596              		.cfi_offset 8, -16
 1597              		.cfi_offset 9, -24
 1598 06e8 13040104 		addi	s0,sp,64
 1599              		.cfi_def_cfa 8, 0
 210:src/cpp/interrupt_cpp.cpp ****     uint64 scause = Riscv::r_scause();
 1600              		.loc 1 210 5
 1601              	.LBB494:
 1602              	.LBB495:
 102:src/cpp/../../h/../h/riscv.hpp ****     asm volatile("csrr %0, scause" : "=r" (scause));
 1603              		.loc 3 102 5
 103:src/cpp/../../h/../h/riscv.hpp ****     return scause;
 1604              		.loc 3 103 5
 103:src/cpp/../../h/../h/riscv.hpp ****     return scause;
 1605              		.loc 3 103 52 is_stmt 0
 1606              	 #APP
 1607              	# 103 "src/cpp/../../h/../h/riscv.hpp" 1
 1608              		csrr a5, scause
 1609              	# 0 "" 2
 1610              	 #NO_APP
 1611 06f0 2334F4FC 		sd	a5,-56(s0)
 104:src/cpp/../../h/../h/riscv.hpp **** } 
 1612              		.loc 3 104 5 is_stmt 1
 104:src/cpp/../../h/../h/riscv.hpp **** } 
 1613              		.loc 3 104 12 is_stmt 0
 1614 06f4 833484FC 		ld	s1,-56(s0)
 1615              	.LVL122:
 1616              	.LBE495:
 1617              	.LBE494:
 211:src/cpp/interrupt_cpp.cpp ****     static int t = 0;
GAS LISTING /tmp/ccGiF3FD.s 			page 42


 1618              		.loc 1 211 5 is_stmt 1
 212:src/cpp/interrupt_cpp.cpp **** 
 213:src/cpp/interrupt_cpp.cpp ****     if(scause == IS)
 1619              		.loc 1 213 5
 1620 06f8 93079000 		li	a5,9
 1621 06fc 6380F40A 		beq	s1,a5,.L76
 214:src/cpp/interrupt_cpp.cpp ****     {
 215:src/cpp/interrupt_cpp.cpp ****         //ecall iz sistemskog rezima
 216:src/cpp/interrupt_cpp.cpp ****         a0 = sysEcall(a0, a1, a2, a3, a4);
 217:src/cpp/interrupt_cpp.cpp ****         asm volatile("sd %0, 10 * 8(s0)" :: "r" (a0));
 218:src/cpp/interrupt_cpp.cpp ****     
 219:src/cpp/interrupt_cpp.cpp ****     } 
 220:src/cpp/interrupt_cpp.cpp ****     else if(scause == IU)
 1622              		.loc 1 220 10
 1623 0700 93078000 		li	a5,8
 1624 0704 638CF40A 		beq	s1,a5,.L77
 221:src/cpp/interrupt_cpp.cpp ****     {
 222:src/cpp/interrupt_cpp.cpp ****         //ecall iz korisnickog rezima
 223:src/cpp/interrupt_cpp.cpp ****         a0 = usrEcall(a0, a1, a2, a3, a4);
 224:src/cpp/interrupt_cpp.cpp ****         asm volatile("sd %0, 10 * 8(s0)" :: "r" (a0));
 225:src/cpp/interrupt_cpp.cpp ****         
 226:src/cpp/interrupt_cpp.cpp ****     } 
 227:src/cpp/interrupt_cpp.cpp ****     else if(scause == IH)
 1625              		.loc 1 227 10
 1626 0708 9307F0FF 		li	a5,-1
 1627 070c 9397F703 		slli	a5,a5,63
 1628 0710 93879700 		addi	a5,a5,9
 1629 0714 638CF40A 		beq	s1,a5,.L78
 228:src/cpp/interrupt_cpp.cpp ****     {
 229:src/cpp/interrupt_cpp.cpp ****         //hardverski prekid
 230:src/cpp/interrupt_cpp.cpp ****        StdIO::console_handler();
 231:src/cpp/interrupt_cpp.cpp ****     
 232:src/cpp/interrupt_cpp.cpp ****     } 
 233:src/cpp/interrupt_cpp.cpp ****     else if(scause == IT)
 1630              		.loc 1 233 10
 1631 0718 9307F0FF 		li	a5,-1
 1632 071c 9397F703 		slli	a5,a5,63
 1633 0720 93871700 		addi	a5,a5,1
 1634 0724 638AF40A 		beq	s1,a5,.L79
 234:src/cpp/interrupt_cpp.cpp ****     {
 235:src/cpp/interrupt_cpp.cpp ****         //prekid od timera
 236:src/cpp/interrupt_cpp.cpp ****         timer_handler();      
 237:src/cpp/interrupt_cpp.cpp ****     
 238:src/cpp/interrupt_cpp.cpp ****     }
 239:src/cpp/interrupt_cpp.cpp ****     else if(scause == 2)
 1635              		.loc 1 239 10
 1636 0728 93072000 		li	a5,2
 1637 072c 638CF40A 		beq	s1,a5,.L80
 240:src/cpp/interrupt_cpp.cpp ****     {
 241:src/cpp/interrupt_cpp.cpp ****         if(t<5)
 242:src/cpp/interrupt_cpp.cpp ****         {
 243:src/cpp/interrupt_cpp.cpp ****             print(scause);
 244:src/cpp/interrupt_cpp.cpp ****             t++;
 245:src/cpp/interrupt_cpp.cpp ****         }
 246:src/cpp/interrupt_cpp.cpp ****     }
 247:src/cpp/interrupt_cpp.cpp ****     else if(scause == 1)
 1638              		.loc 1 247 10
GAS LISTING /tmp/ccGiF3FD.s 			page 43


 1639 0730 93071000 		li	a5,1
 1640 0734 6388F40E 		beq	s1,a5,.L81
 248:src/cpp/interrupt_cpp.cpp ****     {
 249:src/cpp/interrupt_cpp.cpp ****         if(t<10)
 250:src/cpp/interrupt_cpp.cpp ****         {
 251:src/cpp/interrupt_cpp.cpp ****             print((uint64) Riscv::r_sepc());
 252:src/cpp/interrupt_cpp.cpp ****             print(scause);
 253:src/cpp/interrupt_cpp.cpp ****             t++;
 254:src/cpp/interrupt_cpp.cpp ****         }
 255:src/cpp/interrupt_cpp.cpp ****     }
 256:src/cpp/interrupt_cpp.cpp ****     else
 257:src/cpp/interrupt_cpp.cpp ****     {
 258:src/cpp/interrupt_cpp.cpp ****         if(t<15)
 1641              		.loc 1 258 9
 1642              		.loc 1 258 13 is_stmt 0
 1643 0738 97070000 		lla	a5,_ZZ9interruptE1t
 1643      93870700 
 1644 0740 03A70700 		lw	a4,0(a5)
 1645              	.LVL123:
 1646              		.loc 1 258 9
 1647 0744 9307E000 		li	a5,14
 1648 0748 63C0E706 		bgt	a4,a5,.L67
 259:src/cpp/interrupt_cpp.cpp ****         {
 260:src/cpp/interrupt_cpp.cpp ****             Scheduler::print_queue();
 1649              		.loc 1 260 13 is_stmt 1
 1650              		.loc 1 260 35 is_stmt 0
 1651 074c 97000000 		call	_ZN9Scheduler11print_queueEv
 1651      E7800000 
 1652              	.LVL124:
 261:src/cpp/interrupt_cpp.cpp ****             if(scause == 0x7)
 1653              		.loc 1 261 13 is_stmt 1
 262:src/cpp/interrupt_cpp.cpp ****             {
 263:src/cpp/interrupt_cpp.cpp ****                 //print((uint64) TCB::running, '\n', 0);
 264:src/cpp/interrupt_cpp.cpp ****                 
 265:src/cpp/interrupt_cpp.cpp ****             }
 266:src/cpp/interrupt_cpp.cpp ****             print((uint64) Riscv::r_sepc());
 1654              		.loc 1 266 13
 1655              	.LBB496:
 1656              	.LBB497:
 112:src/cpp/../../h/../h/riscv.hpp ****     asm volatile("csrr %0, sepc" : "=r" (sepc));
 1657              		.loc 3 112 5
 113:src/cpp/../../h/../h/riscv.hpp ****     return sepc;
 1658              		.loc 3 113 5
 113:src/cpp/../../h/../h/riscv.hpp ****     return sepc;
 1659              		.loc 3 113 48 is_stmt 0
 1660              	 #APP
 1661              	# 113 "src/cpp/../../h/../h/riscv.hpp" 1
 1662              		csrr a5, sepc
 1663              	# 0 "" 2
 1664              	 #NO_APP
 1665 0758 233CF4FC 		sd	a5,-40(s0)
 114:src/cpp/../../h/../h/riscv.hpp **** } 
 1666              		.loc 3 114 5 is_stmt 1
 114:src/cpp/../../h/../h/riscv.hpp **** } 
 1667              		.loc 3 114 12 is_stmt 0
 1668 075c 033584FD 		ld	a0,-40(s0)
 1669              	.LBE497:
GAS LISTING /tmp/ccGiF3FD.s 			page 44


 1670              	.LBE496:
 1671              		.loc 1 266 18
 1672 0760 13061000 		li	a2,1
 1673 0764 9305A000 		li	a1,10
 1674 0768 97000000 		call	_Z5printmcb
 1674      E7800000 
 1675              	.LVL125:
 267:src/cpp/interrupt_cpp.cpp ****             print(scause);
 1676              		.loc 1 267 13 is_stmt 1
 1677              		.loc 1 267 18 is_stmt 0
 1678 0770 13061000 		li	a2,1
 1679 0774 9305A000 		li	a1,10
 1680 0778 13850400 		mv	a0,s1
 1681 077c 97000000 		call	_Z5printmcb
 1681      E7800000 
 1682              	.LVL126:
 268:src/cpp/interrupt_cpp.cpp ****             t++;
 1683              		.loc 1 268 13 is_stmt 1
 1684              		.loc 1 268 14 is_stmt 0
 1685 0784 17070000 		lla	a4,_ZZ9interruptE1t
 1685      13070700 
 1686 078c 83270700 		lw	a5,0(a4)
 1687 0790 9B871700 		addiw	a5,a5,1
 1688 0794 2320F700 		sw	a5,0(a4)
 269:src/cpp/interrupt_cpp.cpp ****         }
 270:src/cpp/interrupt_cpp.cpp ****     }
 271:src/cpp/interrupt_cpp.cpp ****     //print(a4);
 272:src/cpp/interrupt_cpp.cpp **** }...
 1689              		.loc 1 272 1
 1690 0798 6F000001 		j	.L67
 1691              	.LVL127:
 1692              	.L76:
 216:src/cpp/interrupt_cpp.cpp ****         a0 = sysEcall(a0, a1, a2, a3, a4);
 1693              		.loc 1 216 9 is_stmt 1
 216:src/cpp/interrupt_cpp.cpp ****         a0 = sysEcall(a0, a1, a2, a3, a4);
 1694              		.loc 1 216 22 is_stmt 0
 1695 079c 97000000 		call	_Z8sysEcallmmmmm
 1695      E7800000 
 1696              	.LVL128:
 217:src/cpp/interrupt_cpp.cpp ****         asm volatile("sd %0, 10 * 8(s0)" :: "r" (a0));
 1697              		.loc 1 217 9 is_stmt 1
 217:src/cpp/interrupt_cpp.cpp ****         asm volatile("sd %0, 10 * 8(s0)" :: "r" (a0));
 1698              		.loc 1 217 54 is_stmt 0
 1699              	 #APP
 1700              	# 217 "src/cpp/interrupt_cpp.cpp" 1
 1701              		sd a0, 10 * 8(s0)
 1702              	# 0 "" 2
 1703              	.LVL129:
 1704              	 #NO_APP
 1705              	.L67:
 1706              		.loc 1 272 1
 1707 07a8 83308103 		ld	ra,56(sp)
 1708              		.cfi_remember_state
 1709              		.cfi_restore 1
 1710 07ac 03340103 		ld	s0,48(sp)
 1711              		.cfi_restore 8
 1712              		.cfi_def_cfa 2, 64
GAS LISTING /tmp/ccGiF3FD.s 			page 45


 1713 07b0 83348102 		ld	s1,40(sp)
 1714              		.cfi_restore 9
 1715              	.LVL130:
 1716 07b4 13010104 		addi	sp,sp,64
 1717              		.cfi_def_cfa_offset 0
 1718 07b8 67800000 		jr	ra
 1719              	.LVL131:
 1720              	.L77:
 1721              		.cfi_restore_state
 223:src/cpp/interrupt_cpp.cpp ****         a0 = usrEcall(a0, a1, a2, a3, a4);
 1722              		.loc 1 223 9 is_stmt 1
 223:src/cpp/interrupt_cpp.cpp ****         a0 = usrEcall(a0, a1, a2, a3, a4);
 1723              		.loc 1 223 22 is_stmt 0
 1724 07bc 97000000 		call	_Z8usrEcallmmmmm
 1724      E7800000 
 1725              	.LVL132:
 224:src/cpp/interrupt_cpp.cpp ****         asm volatile("sd %0, 10 * 8(s0)" :: "r" (a0));
 1726              		.loc 1 224 9 is_stmt 1
 224:src/cpp/interrupt_cpp.cpp ****         asm volatile("sd %0, 10 * 8(s0)" :: "r" (a0));
 1727              		.loc 1 224 54 is_stmt 0
 1728              	 #APP
 1729              	# 224 "src/cpp/interrupt_cpp.cpp" 1
 1730              		sd a0, 10 * 8(s0)
 1731              	# 0 "" 2
 1732              	 #NO_APP
 1733 07c8 6FF01FFE 		j	.L67
 1734              	.LVL133:
 1735              	.L78:
 230:src/cpp/interrupt_cpp.cpp ****        StdIO::console_handler();
 1736              		.loc 1 230 8 is_stmt 1
 230:src/cpp/interrupt_cpp.cpp ****        StdIO::console_handler();
 1737              		.loc 1 230 30 is_stmt 0
 1738 07cc 97000000 		call	_ZN5StdIO15console_handlerEv
 1738      E7800000 
 1739              	.LVL134:
 1740 07d4 6FF05FFD 		j	.L67
 1741              	.LVL135:
 1742              	.L79:
 236:src/cpp/interrupt_cpp.cpp ****         timer_handler();      
 1743              		.loc 1 236 9 is_stmt 1
 236:src/cpp/interrupt_cpp.cpp ****         timer_handler();      
 1744              		.loc 1 236 22 is_stmt 0
 1745 07d8 97000000 		call	_Z13timer_handlerv
 1745      E7800000 
 1746              	.LVL136:
 1747 07e0 6FF09FFC 		j	.L67
 1748              	.LVL137:
 1749              	.L80:
 241:src/cpp/interrupt_cpp.cpp ****         if(t<5)
 1750              		.loc 1 241 9 is_stmt 1
 241:src/cpp/interrupt_cpp.cpp ****         if(t<5)
 1751              		.loc 1 241 13 is_stmt 0
 1752 07e4 97070000 		lla	a5,_ZZ9interruptE1t
 1752      93870700 
 1753 07ec 03A70700 		lw	a4,0(a5)
 1754              	.LVL138:
 241:src/cpp/interrupt_cpp.cpp ****         if(t<5)
GAS LISTING /tmp/ccGiF3FD.s 			page 46


 1755              		.loc 1 241 9
 1756 07f0 93074000 		li	a5,4
 1757 07f4 E3CAE7FA 		bgt	a4,a5,.L67
 243:src/cpp/interrupt_cpp.cpp ****             print(scause);
 1758              		.loc 1 243 13 is_stmt 1
 243:src/cpp/interrupt_cpp.cpp ****             print(scause);
 1759              		.loc 1 243 18 is_stmt 0
 1760 07f8 13061000 		li	a2,1
 1761              	.LVL139:
 1762 07fc 9305A000 		li	a1,10
 1763              	.LVL140:
 1764 0800 13850400 		mv	a0,s1
 1765              	.LVL141:
 1766 0804 97000000 		call	_Z5printmcb
 1766      E7800000 
 1767              	.LVL142:
 244:src/cpp/interrupt_cpp.cpp ****             t++;
 1768              		.loc 1 244 13 is_stmt 1
 244:src/cpp/interrupt_cpp.cpp ****             t++;
 1769              		.loc 1 244 14 is_stmt 0
 1770 080c 17070000 		lla	a4,_ZZ9interruptE1t
 1770      13070700 
 1771 0814 83270700 		lw	a5,0(a4)
 1772 0818 9B871700 		addiw	a5,a5,1
 1773 081c 2320F700 		sw	a5,0(a4)
 1774 0820 6FF09FF8 		j	.L67
 1775              	.LVL143:
 1776              	.L81:
 249:src/cpp/interrupt_cpp.cpp ****         if(t<10)
 1777              		.loc 1 249 9 is_stmt 1
 249:src/cpp/interrupt_cpp.cpp ****         if(t<10)
 1778              		.loc 1 249 13 is_stmt 0
 1779 0824 97070000 		lla	a5,_ZZ9interruptE1t
 1779      93870700 
 1780 082c 03A70700 		lw	a4,0(a5)
 1781              	.LVL144:
 249:src/cpp/interrupt_cpp.cpp ****         if(t<10)
 1782              		.loc 1 249 9
 1783 0830 93079000 		li	a5,9
 1784 0834 E3CAE7F6 		bgt	a4,a5,.L67
 251:src/cpp/interrupt_cpp.cpp ****             print((uint64) Riscv::r_sepc());
 1785              		.loc 1 251 13 is_stmt 1
 1786              	.LBB498:
 1787              	.LBB499:
 112:src/cpp/../../h/../h/riscv.hpp ****     asm volatile("csrr %0, sepc" : "=r" (sepc));
 1788              		.loc 3 112 5
 113:src/cpp/../../h/../h/riscv.hpp ****     return sepc;
 1789              		.loc 3 113 5
 113:src/cpp/../../h/../h/riscv.hpp ****     return sepc;
 1790              		.loc 3 113 48 is_stmt 0
 1791              	 #APP
 1792              	# 113 "src/cpp/../../h/../h/riscv.hpp" 1
 1793              		csrr a5, sepc
 1794              	# 0 "" 2
 1795              	 #NO_APP
 1796 083c 2338F4FC 		sd	a5,-48(s0)
 114:src/cpp/../../h/../h/riscv.hpp **** } 
GAS LISTING /tmp/ccGiF3FD.s 			page 47


 1797              		.loc 3 114 5 is_stmt 1
 114:src/cpp/../../h/../h/riscv.hpp **** } 
 1798              		.loc 3 114 12 is_stmt 0
 1799 0840 033504FD 		ld	a0,-48(s0)
 1800              	.LVL145:
 1801              	.LBE499:
 1802              	.LBE498:
 251:src/cpp/interrupt_cpp.cpp ****             print((uint64) Riscv::r_sepc());
 1803              		.loc 1 251 18
 1804 0844 13061000 		li	a2,1
 1805              	.LVL146:
 1806 0848 9305A000 		li	a1,10
 1807              	.LVL147:
 1808 084c 97000000 		call	_Z5printmcb
 1808      E7800000 
 1809              	.LVL148:
 252:src/cpp/interrupt_cpp.cpp ****             print(scause);
 1810              		.loc 1 252 13 is_stmt 1
 252:src/cpp/interrupt_cpp.cpp ****             print(scause);
 1811              		.loc 1 252 18 is_stmt 0
 1812 0854 13061000 		li	a2,1
 1813 0858 9305A000 		li	a1,10
 1814 085c 13850400 		mv	a0,s1
 1815 0860 97000000 		call	_Z5printmcb
 1815      E7800000 
 1816              	.LVL149:
 253:src/cpp/interrupt_cpp.cpp ****             t++;
 1817              		.loc 1 253 13 is_stmt 1
 253:src/cpp/interrupt_cpp.cpp ****             t++;
 1818              		.loc 1 253 14 is_stmt 0
 1819 0868 17070000 		lla	a4,_ZZ9interruptE1t
 1819      13070700 
 1820 0870 83270700 		lw	a5,0(a4)
 1821 0874 9B871700 		addiw	a5,a5,1
 1822 0878 2320F700 		sw	a5,0(a4)
 1823 087c 6FF0DFF2 		j	.L67
 1824              		.cfi_endproc
 1825              	.LFE71:
 1827              		.section	.sbss,"aw",@nobits
 1828              		.align	2
 1831              	_ZZ9interruptE1t:
 1832 0000 00000000 		.zero	4
 1833              		.text
 1834              	.Letext0:
 1835              		.file 8 "src/cpp/../../h/../h/../h/../h/../lib/hw.h"
 1836              		.file 9 "src/cpp/../../h/../h/../h/../h/memory_allocator.hpp"
 1837              		.file 10 "src/cpp/../../h/../h/../h/../h/kernel_operators.hpp"
 1838              		.file 11 "src/cpp/../../h/../h/stdio.hpp"
 1839              		.file 12 "src/cpp/../../h/../h/scheduler.hpp"
 1840              		.file 13 "src/cpp/../../h/../h/testing.hpp"
GAS LISTING /tmp/ccGiF3FD.s 			page 48


DEFINED SYMBOLS
                            *ABS*:0000000000000000 interrupt_cpp.cpp
     /tmp/ccGiF3FD.s:12     .text:0000000000000000 _Z13timer_handlerv
     /tmp/ccGiF3FD.s:16     .text:0000000000000000 .L0 
     /tmp/ccGiF3FD.s:17     .text:0000000000000000 .L0 
     /tmp/ccGiF3FD.s:18     .text:0000000000000004 .L0 
     /tmp/ccGiF3FD.s:23     .text:0000000000000014 .L0 
     /tmp/ccGiF3FD.s:24     .text:0000000000000014 .L0 
     /tmp/ccGiF3FD.s:25     .text:0000000000000014 .L0 
     /tmp/ccGiF3FD.s:26     .text:0000000000000014 .L0 
     /tmp/ccGiF3FD.s:28     .text:0000000000000018 .L0 
     /tmp/ccGiF3FD.s:30     .text:0000000000000018 .L0 
     /tmp/ccGiF3FD.s:31     .text:0000000000000018 .L0 
     /tmp/ccGiF3FD.s:34     .text:0000000000000020 .L0 
     /tmp/ccGiF3FD.s:35     .text:0000000000000020 .L0 
     /tmp/ccGiF3FD.s:41     .text:0000000000000034 .L0 
     /tmp/ccGiF3FD.s:42     .text:0000000000000034 .L0 
     /tmp/ccGiF3FD.s:49     .text:0000000000000040 .L0 
     /tmp/ccGiF3FD.s:50     .text:0000000000000040 .L0 
     /tmp/ccGiF3FD.s:55     .text:0000000000000044 .L0 
     /tmp/ccGiF3FD.s:63     .text:0000000000000048 .L0 
     /tmp/ccGiF3FD.s:64     .text:0000000000000048 .L0 
     /tmp/ccGiF3FD.s:65     .text:0000000000000048 .L0 
     /tmp/ccGiF3FD.s:75     .text:0000000000000050 .L0 
     /tmp/ccGiF3FD.s:76     .text:0000000000000054 .L0 
     /tmp/ccGiF3FD.s:77     .text:0000000000000054 .L0 
     /tmp/ccGiF3FD.s:79     .text:0000000000000058 .L0 
     /tmp/ccGiF3FD.s:80     .text:0000000000000058 .L0 
     /tmp/ccGiF3FD.s:82     .text:000000000000005c .L0 
     /tmp/ccGiF3FD.s:84     .text:0000000000000060 .L0 
     /tmp/ccGiF3FD.s:86     .text:0000000000000064 .L0 
     /tmp/ccGiF3FD.s:89     .text:0000000000000068 .L0 
     /tmp/ccGiF3FD.s:95     .text:0000000000000068 .L0 
     /tmp/ccGiF3FD.s:96     .text:0000000000000068 .L0 
     /tmp/ccGiF3FD.s:97     .text:0000000000000068 .L0 
src/cpp/../../h/../h/riscv.hpp:169    .text:0000000000000068 .L0 
     /tmp/ccGiF3FD.s:105    .text:0000000000000070 .L0 
     /tmp/ccGiF3FD.s:106    .text:0000000000000070 .L0 
     /tmp/ccGiF3FD.s:113    .text:0000000000000074 .L0 
     /tmp/ccGiF3FD.s:114    .text:0000000000000074 .L0 
src/cpp/../../h/../h/riscv.hpp:113    .text:0000000000000074 .L0 
     /tmp/ccGiF3FD.s:122    .text:000000000000007c .L0 
     /tmp/ccGiF3FD.s:123    .text:000000000000007c .L0 
     /tmp/ccGiF3FD.s:128    .text:0000000000000080 .L0 
     /tmp/ccGiF3FD.s:129    .text:0000000000000080 .L0 
     /tmp/ccGiF3FD.s:131    .text:0000000000000088 .L0 
     /tmp/ccGiF3FD.s:132    .text:0000000000000088 .L0 
     /tmp/ccGiF3FD.s:137    .text:0000000000000090 .L0 
     /tmp/ccGiF3FD.s:138    .text:0000000000000090 .L0 
src/cpp/../../h/../h/riscv.hpp:164    .text:0000000000000090 .L0 
     /tmp/ccGiF3FD.s:150    .text:0000000000000094 .L0 
     /tmp/ccGiF3FD.s:151    .text:0000000000000094 .L0 
src/cpp/../../h/../h/riscv.hpp:108    .text:0000000000000094 .L0 
     /tmp/ccGiF3FD.s:162    .text:000000000000009c .L0 
     /tmp/ccGiF3FD.s:168    .text:000000000000009c _Z8usrEcallmmmmm
     /tmp/ccGiF3FD.s:171    .text:000000000000009c .L0 
     /tmp/ccGiF3FD.s:173    .text:000000000000009c .L0 
GAS LISTING /tmp/ccGiF3FD.s 			page 49


     /tmp/ccGiF3FD.s:174    .text:00000000000000a0 .L0 
     /tmp/ccGiF3FD.s:183    .text:00000000000000c0 .L0 
     /tmp/ccGiF3FD.s:184    .text:00000000000000c0 .L0 
     /tmp/ccGiF3FD.s:185    .text:00000000000000c0 .L0 
     /tmp/ccGiF3FD.s:186    .text:00000000000000c0 .L0 
     /tmp/ccGiF3FD.s:187    .text:00000000000000c0 .L0 
     /tmp/ccGiF3FD.s:188    .text:00000000000000c0 .L0 
     /tmp/ccGiF3FD.s:189    .text:00000000000000c0 .L0 
     /tmp/ccGiF3FD.s:190    .text:00000000000000c0 .L0 
     /tmp/ccGiF3FD.s:192    .text:00000000000000c4 .L0 
     /tmp/ccGiF3FD.s:197    .text:00000000000000c8 .L0 
     /tmp/ccGiF3FD.s:198    .text:00000000000000c8 .L0 
     /tmp/ccGiF3FD.s:199    .text:00000000000000c8 .L0 
src/cpp/../../h/../h/riscv.hpp:113    .text:00000000000000c8 .L0 
     /tmp/ccGiF3FD.s:207    .text:00000000000000d0 .L0 
     /tmp/ccGiF3FD.s:208    .text:00000000000000d0 .L0 
     /tmp/ccGiF3FD.s:212    .text:00000000000000d4 .L0 
     /tmp/ccGiF3FD.s:217    .text:00000000000000d8 .L0 
     /tmp/ccGiF3FD.s:218    .text:00000000000000d8 .L0 
src/cpp/../../h/../h/riscv.hpp:169    .text:00000000000000d8 .L0 
     /tmp/ccGiF3FD.s:226    .text:00000000000000e0 .L0 
     /tmp/ccGiF3FD.s:227    .text:00000000000000e0 .L0 
     /tmp/ccGiF3FD.s:233    .text:00000000000000e4 .L0 
     /tmp/ccGiF3FD.s:241    .text:00000000000000f4 .L0 
     /tmp/ccGiF3FD.s:249    .text:00000000000000fc .L0 
     /tmp/ccGiF3FD.s:259    .text:0000000000000104 .L0 
     /tmp/ccGiF3FD.s:271    .text:000000000000010c .L0 
     /tmp/ccGiF3FD.s:285    .text:0000000000000114 .L0 
     /tmp/ccGiF3FD.s:301    .text:000000000000011c .L0 
     /tmp/ccGiF3FD.s:319    .text:0000000000000124 .L0 
     /tmp/ccGiF3FD.s:339    .text:000000000000012c .L0 
     /tmp/ccGiF3FD.s:361    .text:0000000000000134 .L0 
     /tmp/ccGiF3FD.s:364    .text:000000000000013c .L0 
     /tmp/ccGiF3FD.s:367    .text:0000000000000144 .L0 
     /tmp/ccGiF3FD.s:370    .text:000000000000014c .L0 
     /tmp/ccGiF3FD.s:373    .text:0000000000000154 .L0 
     /tmp/ccGiF3FD.s:374    .text:0000000000000154 .L0 
     /tmp/ccGiF3FD.s:382    .text:0000000000000164 .L0 
     /tmp/ccGiF3FD.s:387    .text:0000000000000170 .L0 
     /tmp/ccGiF3FD.s:392    .text:0000000000000180 .L0 
     /tmp/ccGiF3FD.s:396    .text:000000000000018c .L0 
     /tmp/ccGiF3FD.s:398    .text:0000000000000190 .L0 
     /tmp/ccGiF3FD.s:401    .text:0000000000000198 .L0 
     /tmp/ccGiF3FD.s:403    .text:000000000000019c .L0 
     /tmp/ccGiF3FD.s:409    .text:00000000000001b0 .L0 
     /tmp/ccGiF3FD.s:411    .text:00000000000001b4 .L0 
     /tmp/ccGiF3FD.s:415    .text:00000000000001c0 .L0 
     /tmp/ccGiF3FD.s:431    .text:00000000000001cc .L0 
     /tmp/ccGiF3FD.s:437    .text:00000000000001d4 .L0 
     /tmp/ccGiF3FD.s:438    .text:00000000000001d4 .L0 
     /tmp/ccGiF3FD.s:441    .text:00000000000001dc .L0 
     /tmp/ccGiF3FD.s:449    .text:00000000000001e8 .L0 
     /tmp/ccGiF3FD.s:450    .text:00000000000001e8 .L0 
src/cpp/../../h/../h/riscv.hpp:164    .text:00000000000001e8 .L0 
     /tmp/ccGiF3FD.s:462    .text:00000000000001ec .L0 
     /tmp/ccGiF3FD.s:463    .text:00000000000001ec .L0 
src/cpp/../../h/../h/riscv.hpp:108    .text:00000000000001ec .L0 
GAS LISTING /tmp/ccGiF3FD.s 			page 50


     /tmp/ccGiF3FD.s:473    .text:00000000000001f0 .L0 
     /tmp/ccGiF3FD.s:474    .text:00000000000001f0 .L0 
     /tmp/ccGiF3FD.s:475    .text:00000000000001f4 .L0 
     /tmp/ccGiF3FD.s:476    .text:00000000000001f4 .L0 
     /tmp/ccGiF3FD.s:478    .text:00000000000001f8 .L0 
     /tmp/ccGiF3FD.s:479    .text:00000000000001f8 .L0 
     /tmp/ccGiF3FD.s:481    .text:00000000000001fc .L0 
     /tmp/ccGiF3FD.s:483    .text:0000000000000200 .L0 
     /tmp/ccGiF3FD.s:486    .text:0000000000000204 .L0 
     /tmp/ccGiF3FD.s:489    .text:0000000000000208 .L0 
     /tmp/ccGiF3FD.s:491    .text:000000000000020c .L0 
     /tmp/ccGiF3FD.s:493    .text:0000000000000210 .L0 
     /tmp/ccGiF3FD.s:495    .text:0000000000000214 .L0 
     /tmp/ccGiF3FD.s:499    .text:0000000000000218 .L0 
     /tmp/ccGiF3FD.s:503    .text:0000000000000218 .L0 
     /tmp/ccGiF3FD.s:504    .text:0000000000000218 .L0 
     /tmp/ccGiF3FD.s:507    .text:0000000000000220 .L0 
     /tmp/ccGiF3FD.s:516    .text:0000000000000230 .L0 
     /tmp/ccGiF3FD.s:517    .text:0000000000000230 .L0 
     /tmp/ccGiF3FD.s:518    .text:0000000000000230 .L0 
     /tmp/ccGiF3FD.s:526    .text:0000000000000244 .L0 
     /tmp/ccGiF3FD.s:528    .text:0000000000000248 .L0 
     /tmp/ccGiF3FD.s:530    .text:000000000000024c .L0 
     /tmp/ccGiF3FD.s:534    .text:0000000000000254 .L0 
     /tmp/ccGiF3FD.s:541    .text:000000000000025c .L0 
     /tmp/ccGiF3FD.s:542    .text:000000000000025c .L0 
     /tmp/ccGiF3FD.s:548    .text:0000000000000268 .L0 
     /tmp/ccGiF3FD.s:549    .text:0000000000000268 .L0 
     /tmp/ccGiF3FD.s:556    .text:0000000000000270 .L0 
     /tmp/ccGiF3FD.s:557    .text:0000000000000270 .L0 
     /tmp/ccGiF3FD.s:564    .text:0000000000000278 .L0 
     /tmp/ccGiF3FD.s:574    .text:0000000000000280 .L0 
     /tmp/ccGiF3FD.s:575    .text:0000000000000280 .L0 
     /tmp/ccGiF3FD.s:577    .text:0000000000000288 .L0 
     /tmp/ccGiF3FD.s:578    .text:0000000000000288 .L0 
     /tmp/ccGiF3FD.s:586    .text:0000000000000290 .L0 
     /tmp/ccGiF3FD.s:597    .text:0000000000000298 .L0 
     /tmp/ccGiF3FD.s:598    .text:0000000000000298 .L0 
     /tmp/ccGiF3FD.s:608    .text:00000000000002a4 .L0 
     /tmp/ccGiF3FD.s:621    .text:00000000000002ac .L0 
     /tmp/ccGiF3FD.s:625    .text:00000000000002ac .L0 
     /tmp/ccGiF3FD.s:626    .text:00000000000002ac .L0 
     /tmp/ccGiF3FD.s:627    .text:00000000000002ac .L0 
     /tmp/ccGiF3FD.s:630    .text:00000000000002b4 .L0 
     /tmp/ccGiF3FD.s:639    .text:00000000000002c0 .L0 
     /tmp/ccGiF3FD.s:645    .text:00000000000002c4 .L0 
     /tmp/ccGiF3FD.s:653    .text:00000000000002cc .L0 
     /tmp/ccGiF3FD.s:663    .text:00000000000002d0 .L0 
     /tmp/ccGiF3FD.s:664    .text:00000000000002d0 .L0 
     /tmp/ccGiF3FD.s:680    .text:00000000000002d8 .L0 
     /tmp/ccGiF3FD.s:681    .text:00000000000002d8 .L0 
     /tmp/ccGiF3FD.s:682    .text:00000000000002d8 .L0 
     /tmp/ccGiF3FD.s:684    .text:00000000000002dc .L0 
     /tmp/ccGiF3FD.s:690    .text:00000000000002e8 .L0 
     /tmp/ccGiF3FD.s:691    .text:00000000000002e8 .L0 
     /tmp/ccGiF3FD.s:694    .text:00000000000002f0 .L0 
     /tmp/ccGiF3FD.s:709    .text:00000000000002fc .L0 
GAS LISTING /tmp/ccGiF3FD.s 			page 51


     /tmp/ccGiF3FD.s:724    .text:0000000000000304 .L0 
     /tmp/ccGiF3FD.s:725    .text:0000000000000304 .L0 
     /tmp/ccGiF3FD.s:726    .text:0000000000000304 .L0 
     /tmp/ccGiF3FD.s:736    .text:0000000000000314 .L0 
     /tmp/ccGiF3FD.s:737    .text:0000000000000314 .L0 
     /tmp/ccGiF3FD.s:738    .text:0000000000000314 .L0 
     /tmp/ccGiF3FD.s:753    .text:0000000000000320 .L0 
     /tmp/ccGiF3FD.s:768    .text:0000000000000328 .L0 
     /tmp/ccGiF3FD.s:769    .text:0000000000000328 .L0 
     /tmp/ccGiF3FD.s:783    .text:0000000000000334 .L0 
     /tmp/ccGiF3FD.s:798    .text:000000000000033c .L0 
     /tmp/ccGiF3FD.s:799    .text:000000000000033c .L0 
     /tmp/ccGiF3FD.s:805    .text:0000000000000348 .L0 
     /tmp/ccGiF3FD.s:809    .text:0000000000000354 .L0 
     /tmp/ccGiF3FD.s:815    .text:0000000000000364 .L0 
     /tmp/ccGiF3FD.s:819    .text:0000000000000370 .L0 
     /tmp/ccGiF3FD.s:821    .text:0000000000000374 .L0 
     /tmp/ccGiF3FD.s:825    .text:000000000000037c .L0 
     /tmp/ccGiF3FD.s:827    .text:0000000000000380 .L0 
     /tmp/ccGiF3FD.s:833    .text:0000000000000394 .L0 
     /tmp/ccGiF3FD.s:835    .text:0000000000000398 .L0 
     /tmp/ccGiF3FD.s:839    .text:00000000000003a4 .L0 
     /tmp/ccGiF3FD.s:845    .text:00000000000003b0 .L0 
     /tmp/ccGiF3FD.s:858    .text:00000000000003b8 .L0 
     /tmp/ccGiF3FD.s:864    .text:00000000000003b8 _Z8sysEcallmmmmm
     /tmp/ccGiF3FD.s:867    .text:00000000000003b8 .L0 
     /tmp/ccGiF3FD.s:869    .text:00000000000003b8 .L0 
     /tmp/ccGiF3FD.s:870    .text:00000000000003bc .L0 
     /tmp/ccGiF3FD.s:878    .text:00000000000003d8 .L0 
     /tmp/ccGiF3FD.s:879    .text:00000000000003d8 .L0 
     /tmp/ccGiF3FD.s:880    .text:00000000000003d8 .L0 
     /tmp/ccGiF3FD.s:881    .text:00000000000003d8 .L0 
     /tmp/ccGiF3FD.s:882    .text:00000000000003d8 .L0 
     /tmp/ccGiF3FD.s:883    .text:00000000000003d8 .L0 
     /tmp/ccGiF3FD.s:884    .text:00000000000003d8 .L0 
     /tmp/ccGiF3FD.s:886    .text:00000000000003dc .L0 
     /tmp/ccGiF3FD.s:891    .text:00000000000003e0 .L0 
     /tmp/ccGiF3FD.s:892    .text:00000000000003e0 .L0 
     /tmp/ccGiF3FD.s:893    .text:00000000000003e0 .L0 
src/cpp/../../h/../h/riscv.hpp:113    .text:00000000000003e0 .L0 
     /tmp/ccGiF3FD.s:901    .text:00000000000003e8 .L0 
     /tmp/ccGiF3FD.s:902    .text:00000000000003e8 .L0 
     /tmp/ccGiF3FD.s:906    .text:00000000000003ec .L0 
     /tmp/ccGiF3FD.s:911    .text:00000000000003f0 .L0 
     /tmp/ccGiF3FD.s:912    .text:00000000000003f0 .L0 
src/cpp/../../h/../h/riscv.hpp:169    .text:00000000000003f0 .L0 
     /tmp/ccGiF3FD.s:920    .text:00000000000003f8 .L0 
     /tmp/ccGiF3FD.s:921    .text:00000000000003f8 .L0 
     /tmp/ccGiF3FD.s:927    .text:00000000000003fc .L0 
     /tmp/ccGiF3FD.s:935    .text:000000000000040c .L0 
     /tmp/ccGiF3FD.s:943    .text:0000000000000414 .L0 
     /tmp/ccGiF3FD.s:953    .text:000000000000041c .L0 
     /tmp/ccGiF3FD.s:965    .text:0000000000000424 .L0 
     /tmp/ccGiF3FD.s:979    .text:000000000000042c .L0 
     /tmp/ccGiF3FD.s:995    .text:0000000000000434 .L0 
     /tmp/ccGiF3FD.s:1013   .text:000000000000043c .L0 
     /tmp/ccGiF3FD.s:1033   .text:0000000000000444 .L0 
GAS LISTING /tmp/ccGiF3FD.s 			page 52


     /tmp/ccGiF3FD.s:1055   .text:000000000000044c .L0 
     /tmp/ccGiF3FD.s:1058   .text:0000000000000454 .L0 
     /tmp/ccGiF3FD.s:1061   .text:000000000000045c .L0 
     /tmp/ccGiF3FD.s:1064   .text:0000000000000464 .L0 
     /tmp/ccGiF3FD.s:1067   .text:000000000000046c .L0 
     /tmp/ccGiF3FD.s:1068   .text:000000000000046c .L0 
     /tmp/ccGiF3FD.s:1076   .text:000000000000047c .L0 
     /tmp/ccGiF3FD.s:1081   .text:0000000000000488 .L0 
     /tmp/ccGiF3FD.s:1087   .text:0000000000000498 .L0 
     /tmp/ccGiF3FD.s:1091   .text:00000000000004a4 .L0 
     /tmp/ccGiF3FD.s:1093   .text:00000000000004a8 .L0 
     /tmp/ccGiF3FD.s:1096   .text:00000000000004b0 .L0 
     /tmp/ccGiF3FD.s:1098   .text:00000000000004b4 .L0 
     /tmp/ccGiF3FD.s:1104   .text:00000000000004c8 .L0 
     /tmp/ccGiF3FD.s:1106   .text:00000000000004cc .L0 
     /tmp/ccGiF3FD.s:1110   .text:00000000000004d8 .L0 
     /tmp/ccGiF3FD.s:1126   .text:00000000000004e4 .L0 
     /tmp/ccGiF3FD.s:1132   .text:00000000000004ec .L0 
     /tmp/ccGiF3FD.s:1133   .text:00000000000004ec .L0 
     /tmp/ccGiF3FD.s:1136   .text:00000000000004f4 .L0 
     /tmp/ccGiF3FD.s:1144   .text:0000000000000500 .L0 
     /tmp/ccGiF3FD.s:1145   .text:0000000000000500 .L0 
src/cpp/../../h/../h/riscv.hpp:108    .text:0000000000000500 .L0 
     /tmp/ccGiF3FD.s:1155   .text:0000000000000504 .L0 
     /tmp/ccGiF3FD.s:1156   .text:0000000000000504 .L0 
     /tmp/ccGiF3FD.s:1157   .text:0000000000000508 .L0 
     /tmp/ccGiF3FD.s:1158   .text:0000000000000508 .L0 
     /tmp/ccGiF3FD.s:1160   .text:000000000000050c .L0 
     /tmp/ccGiF3FD.s:1161   .text:000000000000050c .L0 
     /tmp/ccGiF3FD.s:1163   .text:0000000000000510 .L0 
     /tmp/ccGiF3FD.s:1165   .text:0000000000000514 .L0 
     /tmp/ccGiF3FD.s:1168   .text:0000000000000518 .L0 
     /tmp/ccGiF3FD.s:1170   .text:000000000000051c .L0 
     /tmp/ccGiF3FD.s:1172   .text:0000000000000520 .L0 
     /tmp/ccGiF3FD.s:1174   .text:0000000000000524 .L0 
     /tmp/ccGiF3FD.s:1178   .text:0000000000000528 .L0 
     /tmp/ccGiF3FD.s:1182   .text:0000000000000528 .L0 
     /tmp/ccGiF3FD.s:1183   .text:0000000000000528 .L0 
     /tmp/ccGiF3FD.s:1186   .text:0000000000000530 .L0 
     /tmp/ccGiF3FD.s:1195   .text:0000000000000540 .L0 
     /tmp/ccGiF3FD.s:1196   .text:0000000000000540 .L0 
     /tmp/ccGiF3FD.s:1197   .text:0000000000000540 .L0 
     /tmp/ccGiF3FD.s:1205   .text:0000000000000554 .L0 
     /tmp/ccGiF3FD.s:1207   .text:0000000000000558 .L0 
     /tmp/ccGiF3FD.s:1209   .text:000000000000055c .L0 
     /tmp/ccGiF3FD.s:1213   .text:0000000000000564 .L0 
     /tmp/ccGiF3FD.s:1220   .text:000000000000056c .L0 
     /tmp/ccGiF3FD.s:1221   .text:000000000000056c .L0 
     /tmp/ccGiF3FD.s:1227   .text:0000000000000578 .L0 
     /tmp/ccGiF3FD.s:1228   .text:0000000000000578 .L0 
     /tmp/ccGiF3FD.s:1235   .text:0000000000000580 .L0 
     /tmp/ccGiF3FD.s:1236   .text:0000000000000580 .L0 
     /tmp/ccGiF3FD.s:1241   .text:0000000000000588 .L0 
     /tmp/ccGiF3FD.s:1242   .text:0000000000000588 .L0 
src/cpp/../../h/../h/riscv.hpp:164    .text:0000000000000588 .L0 
     /tmp/ccGiF3FD.s:1255   .text:000000000000058c .L0 
     /tmp/ccGiF3FD.s:1265   .text:0000000000000594 .L0 
GAS LISTING /tmp/ccGiF3FD.s 			page 53


     /tmp/ccGiF3FD.s:1266   .text:0000000000000594 .L0 
     /tmp/ccGiF3FD.s:1268   .text:000000000000059c .L0 
     /tmp/ccGiF3FD.s:1269   .text:000000000000059c .L0 
     /tmp/ccGiF3FD.s:1274   .text:00000000000005a4 .L0 
     /tmp/ccGiF3FD.s:1275   .text:00000000000005a4 .L0 
src/cpp/../../h/../h/riscv.hpp:164    .text:00000000000005a4 .L0 
     /tmp/ccGiF3FD.s:1289   .text:00000000000005a8 .L0 
     /tmp/ccGiF3FD.s:1300   .text:00000000000005b0 .L0 
     /tmp/ccGiF3FD.s:1301   .text:00000000000005b0 .L0 
     /tmp/ccGiF3FD.s:1311   .text:00000000000005bc .L0 
     /tmp/ccGiF3FD.s:1324   .text:00000000000005c4 .L0 
     /tmp/ccGiF3FD.s:1327   .text:00000000000005c4 .L0 
     /tmp/ccGiF3FD.s:1328   .text:00000000000005c4 .L0 
     /tmp/ccGiF3FD.s:1329   .text:00000000000005c4 .L0 
     /tmp/ccGiF3FD.s:1332   .text:00000000000005cc .L0 
     /tmp/ccGiF3FD.s:1340   .text:00000000000005d8 .L0 
     /tmp/ccGiF3FD.s:1345   .text:00000000000005dc .L0 
     /tmp/ccGiF3FD.s:1353   .text:00000000000005e4 .L0 
     /tmp/ccGiF3FD.s:1363   .text:00000000000005e8 .L0 
     /tmp/ccGiF3FD.s:1377   .text:00000000000005f0 .L0 
     /tmp/ccGiF3FD.s:1378   .text:00000000000005f0 .L0 
     /tmp/ccGiF3FD.s:1379   .text:00000000000005f0 .L0 
     /tmp/ccGiF3FD.s:1381   .text:00000000000005f4 .L0 
     /tmp/ccGiF3FD.s:1387   .text:0000000000000600 .L0 
     /tmp/ccGiF3FD.s:1388   .text:0000000000000600 .L0 
     /tmp/ccGiF3FD.s:1391   .text:0000000000000608 .L0 
     /tmp/ccGiF3FD.s:1406   .text:0000000000000614 .L0 
     /tmp/ccGiF3FD.s:1421   .text:000000000000061c .L0 
     /tmp/ccGiF3FD.s:1422   .text:000000000000061c .L0 
     /tmp/ccGiF3FD.s:1423   .text:000000000000061c .L0 
     /tmp/ccGiF3FD.s:1429   .text:0000000000000628 .L0 
     /tmp/ccGiF3FD.s:1430   .text:0000000000000628 .L0 
src/cpp/../../h/../h/riscv.hpp:164    .text:0000000000000628 .L0 
     /tmp/ccGiF3FD.s:1445   .text:0000000000000630 .L0 
     /tmp/ccGiF3FD.s:1446   .text:0000000000000630 .L0 
     /tmp/ccGiF3FD.s:1447   .text:0000000000000630 .L0 
     /tmp/ccGiF3FD.s:1462   .text:000000000000063c .L0 
     /tmp/ccGiF3FD.s:1477   .text:0000000000000644 .L0 
     /tmp/ccGiF3FD.s:1478   .text:0000000000000644 .L0 
     /tmp/ccGiF3FD.s:1484   .text:0000000000000650 .L0 
     /tmp/ccGiF3FD.s:1485   .text:0000000000000650 .L0 
src/cpp/../../h/../h/riscv.hpp:164    .text:0000000000000650 .L0 
     /tmp/ccGiF3FD.s:1504   .text:0000000000000654 .L0 
     /tmp/ccGiF3FD.s:1519   .text:000000000000065c .L0 
     /tmp/ccGiF3FD.s:1520   .text:000000000000065c .L0 
     /tmp/ccGiF3FD.s:1526   .text:0000000000000668 .L0 
     /tmp/ccGiF3FD.s:1530   .text:0000000000000674 .L0 
     /tmp/ccGiF3FD.s:1536   .text:0000000000000684 .L0 
     /tmp/ccGiF3FD.s:1540   .text:0000000000000690 .L0 
     /tmp/ccGiF3FD.s:1542   .text:0000000000000694 .L0 
     /tmp/ccGiF3FD.s:1546   .text:000000000000069c .L0 
     /tmp/ccGiF3FD.s:1548   .text:00000000000006a0 .L0 
     /tmp/ccGiF3FD.s:1554   .text:00000000000006b4 .L0 
     /tmp/ccGiF3FD.s:1556   .text:00000000000006b8 .L0 
     /tmp/ccGiF3FD.s:1560   .text:00000000000006c4 .L0 
     /tmp/ccGiF3FD.s:1566   .text:00000000000006d0 .L0 
     /tmp/ccGiF3FD.s:1579   .text:00000000000006d8 .L0 
GAS LISTING /tmp/ccGiF3FD.s 			page 54


     /tmp/ccGiF3FD.s:1585   .text:00000000000006d8 interrupt
     /tmp/ccGiF3FD.s:1588   .text:00000000000006d8 .L0 
     /tmp/ccGiF3FD.s:1590   .text:00000000000006d8 .L0 
     /tmp/ccGiF3FD.s:1591   .text:00000000000006dc .L0 
     /tmp/ccGiF3FD.s:1595   .text:00000000000006e8 .L0 
     /tmp/ccGiF3FD.s:1596   .text:00000000000006e8 .L0 
     /tmp/ccGiF3FD.s:1597   .text:00000000000006e8 .L0 
     /tmp/ccGiF3FD.s:1599   .text:00000000000006ec .L0 
     /tmp/ccGiF3FD.s:1603   .text:00000000000006ec .L0 
     /tmp/ccGiF3FD.s:1604   .text:00000000000006ec .L0 
     /tmp/ccGiF3FD.s:1605   .text:00000000000006ec .L0 
src/cpp/../../h/../h/riscv.hpp:103    .text:00000000000006ec .L0 
     /tmp/ccGiF3FD.s:1613   .text:00000000000006f4 .L0 
     /tmp/ccGiF3FD.s:1614   .text:00000000000006f4 .L0 
     /tmp/ccGiF3FD.s:1619   .text:00000000000006f8 .L0 
     /tmp/ccGiF3FD.s:1620   .text:00000000000006f8 .L0 
     /tmp/ccGiF3FD.s:1623   .text:0000000000000700 .L0 
     /tmp/ccGiF3FD.s:1626   .text:0000000000000708 .L0 
     /tmp/ccGiF3FD.s:1631   .text:0000000000000718 .L0 
     /tmp/ccGiF3FD.s:1636   .text:0000000000000728 .L0 
     /tmp/ccGiF3FD.s:1639   .text:0000000000000730 .L0 
     /tmp/ccGiF3FD.s:1642   .text:0000000000000738 .L0 
     /tmp/ccGiF3FD.s:1831   .sbss:0000000000000000 _ZZ9interruptE1t
     /tmp/ccGiF3FD.s:1643   .text:0000000000000738 .L0 
     /tmp/ccGiF3FD.s:1647   .text:0000000000000744 .L0 
     /tmp/ccGiF3FD.s:1650   .text:000000000000074c .L0 
     /tmp/ccGiF3FD.s:1651   .text:000000000000074c .L0 
     /tmp/ccGiF3FD.s:1654   .text:0000000000000754 .L0 
     /tmp/ccGiF3FD.s:1657   .text:0000000000000754 .L0 
     /tmp/ccGiF3FD.s:1658   .text:0000000000000754 .L0 
     /tmp/ccGiF3FD.s:1659   .text:0000000000000754 .L0 
src/cpp/../../h/../h/riscv.hpp:113    .text:0000000000000754 .L0 
     /tmp/ccGiF3FD.s:1667   .text:000000000000075c .L0 
     /tmp/ccGiF3FD.s:1668   .text:000000000000075c .L0 
     /tmp/ccGiF3FD.s:1672   .text:0000000000000760 .L0 
     /tmp/ccGiF3FD.s:1677   .text:0000000000000770 .L0 
     /tmp/ccGiF3FD.s:1678   .text:0000000000000770 .L0 
     /tmp/ccGiF3FD.s:1684   .text:0000000000000784 .L0 
     /tmp/ccGiF3FD.s:1685   .text:0000000000000784 .L0 
     /tmp/ccGiF3FD.s:1690   .text:0000000000000798 .L0 
     /tmp/ccGiF3FD.s:1694   .text:000000000000079c .L0 
     /tmp/ccGiF3FD.s:1695   .text:000000000000079c .L0 
     /tmp/ccGiF3FD.s:1698   .text:00000000000007a4 .L0 
src/cpp/interrupt_cpp.cpp:217    .text:00000000000007a4 .L0 
     /tmp/ccGiF3FD.s:1707   .text:00000000000007a8 .L0 
     /tmp/ccGiF3FD.s:1708   .text:00000000000007ac .L0 
     /tmp/ccGiF3FD.s:1709   .text:00000000000007ac .L0 
     /tmp/ccGiF3FD.s:1711   .text:00000000000007b0 .L0 
     /tmp/ccGiF3FD.s:1712   .text:00000000000007b0 .L0 
     /tmp/ccGiF3FD.s:1714   .text:00000000000007b4 .L0 
     /tmp/ccGiF3FD.s:1717   .text:00000000000007b8 .L0 
     /tmp/ccGiF3FD.s:1721   .text:00000000000007bc .L0 
     /tmp/ccGiF3FD.s:1723   .text:00000000000007bc .L0 
     /tmp/ccGiF3FD.s:1724   .text:00000000000007bc .L0 
     /tmp/ccGiF3FD.s:1727   .text:00000000000007c4 .L0 
src/cpp/interrupt_cpp.cpp:224    .text:00000000000007c4 .L0 
     /tmp/ccGiF3FD.s:1737   .text:00000000000007cc .L0 
GAS LISTING /tmp/ccGiF3FD.s 			page 55


     /tmp/ccGiF3FD.s:1738   .text:00000000000007cc .L0 
     /tmp/ccGiF3FD.s:1744   .text:00000000000007d8 .L0 
     /tmp/ccGiF3FD.s:1745   .text:00000000000007d8 .L0 
     /tmp/ccGiF3FD.s:1751   .text:00000000000007e4 .L0 
     /tmp/ccGiF3FD.s:1752   .text:00000000000007e4 .L0 
     /tmp/ccGiF3FD.s:1756   .text:00000000000007f0 .L0 
     /tmp/ccGiF3FD.s:1759   .text:00000000000007f8 .L0 
     /tmp/ccGiF3FD.s:1760   .text:00000000000007f8 .L0 
     /tmp/ccGiF3FD.s:1769   .text:000000000000080c .L0 
     /tmp/ccGiF3FD.s:1770   .text:000000000000080c .L0 
     /tmp/ccGiF3FD.s:1778   .text:0000000000000824 .L0 
     /tmp/ccGiF3FD.s:1779   .text:0000000000000824 .L0 
     /tmp/ccGiF3FD.s:1783   .text:0000000000000830 .L0 
     /tmp/ccGiF3FD.s:1788   .text:0000000000000838 .L0 
     /tmp/ccGiF3FD.s:1789   .text:0000000000000838 .L0 
     /tmp/ccGiF3FD.s:1790   .text:0000000000000838 .L0 
src/cpp/../../h/../h/riscv.hpp:113    .text:0000000000000838 .L0 
     /tmp/ccGiF3FD.s:1798   .text:0000000000000840 .L0 
     /tmp/ccGiF3FD.s:1799   .text:0000000000000840 .L0 
     /tmp/ccGiF3FD.s:1804   .text:0000000000000844 .L0 
     /tmp/ccGiF3FD.s:1811   .text:0000000000000854 .L0 
     /tmp/ccGiF3FD.s:1812   .text:0000000000000854 .L0 
     /tmp/ccGiF3FD.s:1818   .text:0000000000000868 .L0 
     /tmp/ccGiF3FD.s:1819   .text:0000000000000868 .L0 
     /tmp/ccGiF3FD.s:1824   .text:0000000000000880 .L0 
     /tmp/ccGiF3FD.s:1841   .text:0000000000000880 .L0 
     /tmp/ccGiF3FD.s:35     .text:0000000000000020 .L0 
     /tmp/ccGiF3FD.s:42     .text:0000000000000034 .L0 
     /tmp/ccGiF3FD.s:129    .text:0000000000000080 .L0 
     /tmp/ccGiF3FD.s:374    .text:0000000000000154 .L0 
     /tmp/ccGiF3FD.s:542    .text:000000000000025c .L0 
     /tmp/ccGiF3FD.s:575    .text:0000000000000280 .L0 
     /tmp/ccGiF3FD.s:799    .text:000000000000033c .L0 
     /tmp/ccGiF3FD.s:1068   .text:000000000000046c .L0 
     /tmp/ccGiF3FD.s:1221   .text:000000000000056c .L0 
     /tmp/ccGiF3FD.s:1266   .text:0000000000000594 .L0 
     /tmp/ccGiF3FD.s:1520   .text:000000000000065c .L0 
     /tmp/ccGiF3FD.s:1643   .text:0000000000000738 .L0 
     /tmp/ccGiF3FD.s:1685   .text:0000000000000784 .L0 
     /tmp/ccGiF3FD.s:1752   .text:00000000000007e4 .L0 
     /tmp/ccGiF3FD.s:1770   .text:000000000000080c .L0 
     /tmp/ccGiF3FD.s:1779   .text:0000000000000824 .L0 
     /tmp/ccGiF3FD.s:1819   .text:0000000000000868 .L0 
     /tmp/ccGiF3FD.s:88     .text:0000000000000068 .L4
     /tmp/ccGiF3FD.s:56     .text:0000000000000048 .L2
     /tmp/ccGiF3FD.s:434    .text:00000000000001d4 .L23
     /tmp/ccGiF3FD.s:498    .text:0000000000000218 .L24
     /tmp/ccGiF3FD.s:512    .text:0000000000000230 .L25
     /tmp/ccGiF3FD.s:537    .text:000000000000025c .L26
     /tmp/ccGiF3FD.s:571    .text:0000000000000280 .L27
     /tmp/ccGiF3FD.s:594    .text:0000000000000298 .L28
     /tmp/ccGiF3FD.s:617    .text:00000000000002ac .L29
     /tmp/ccGiF3FD.s:675    .text:00000000000002d8 .L30
     /tmp/ccGiF3FD.s:712    .text:0000000000000304 .L31
     /tmp/ccGiF3FD.s:732    .text:0000000000000314 .L32
     /tmp/ccGiF3FD.s:766    .text:0000000000000328 .L33
     /tmp/ccGiF3FD.s:796    .text:000000000000033c .L34
GAS LISTING /tmp/ccGiF3FD.s 			page 56


     /tmp/ccGiF3FD.s:444    .text:00000000000001e8 .L7
     /tmp/ccGiF3FD.s:532    .text:0000000000000254 .L35
     /tmp/ccGiF3FD.s:1129   .text:00000000000004ec .L54
     /tmp/ccGiF3FD.s:1177   .text:0000000000000528 .L55
     /tmp/ccGiF3FD.s:1191   .text:0000000000000540 .L56
     /tmp/ccGiF3FD.s:1216   .text:000000000000056c .L57
     /tmp/ccGiF3FD.s:1258   .text:0000000000000594 .L58
     /tmp/ccGiF3FD.s:1292   .text:00000000000005b0 .L59
     /tmp/ccGiF3FD.s:1320   .text:00000000000005c4 .L60
     /tmp/ccGiF3FD.s:1373   .text:00000000000005f0 .L61
     /tmp/ccGiF3FD.s:1409   .text:000000000000061c .L62
     /tmp/ccGiF3FD.s:1438   .text:0000000000000630 .L63
     /tmp/ccGiF3FD.s:1475   .text:0000000000000644 .L64
     /tmp/ccGiF3FD.s:1507   .text:000000000000065c .L65
     /tmp/ccGiF3FD.s:1139   .text:0000000000000500 .L38
     /tmp/ccGiF3FD.s:1211   .text:0000000000000564 .L66
     /tmp/ccGiF3FD.s:1692   .text:000000000000079c .L76
     /tmp/ccGiF3FD.s:1720   .text:00000000000007bc .L77
     /tmp/ccGiF3FD.s:1735   .text:00000000000007cc .L78
     /tmp/ccGiF3FD.s:1742   .text:00000000000007d8 .L79
     /tmp/ccGiF3FD.s:1749   .text:00000000000007e4 .L80
     /tmp/ccGiF3FD.s:1776   .text:0000000000000824 .L81
     /tmp/ccGiF3FD.s:1705   .text:00000000000007a8 .L67
     /tmp/ccGiF3FD.s:5317   .debug_abbrev:0000000000000000 .Ldebug_abbrev0
     /tmp/ccGiF3FD.s:9126   .debug_str:00000000000006cb .LASF268
     /tmp/ccGiF3FD.s:9068   .debug_str:000000000000050f .LASF269
     /tmp/ccGiF3FD.s:9370   .debug_str:0000000000000eaa .LASF270
     /tmp/ccGiF3FD.s:8      .text:0000000000000000 .Ltext0
     /tmp/ccGiF3FD.s:1834   .text:0000000000000880 .Letext0
     /tmp/ccGiF3FD.s:8904   .debug_line:0000000000000000 .Ldebug_line0
     /tmp/ccGiF3FD.s:9094   .debug_str:00000000000005f8 .LASF0
     /tmp/ccGiF3FD.s:9144   .debug_str:00000000000007fa .LASF1
     /tmp/ccGiF3FD.s:9270   .debug_str:0000000000000bce .LASF2
     /tmp/ccGiF3FD.s:9284   .debug_str:0000000000000c36 .LASF4
     /tmp/ccGiF3FD.s:9112   .debug_str:000000000000066e .LASF3
     /tmp/ccGiF3FD.s:8926   .debug_str:00000000000000a8 .LASF5
     /tmp/ccGiF3FD.s:9236   .debug_str:0000000000000ac9 .LASF6
     /tmp/ccGiF3FD.s:9224   .debug_str:0000000000000a6a .LASF7
     /tmp/ccGiF3FD.s:9130   .debug_str:0000000000000797 .LASF8
     /tmp/ccGiF3FD.s:9060   .debug_str:00000000000004d7 .LASF9
     /tmp/ccGiF3FD.s:9072   .debug_str:000000000000053d .LASF10
     /tmp/ccGiF3FD.s:8980   .debug_str:000000000000023d .LASF11
     /tmp/ccGiF3FD.s:9048   .debug_str:000000000000048d .LASF12
     /tmp/ccGiF3FD.s:8998   .debug_str:00000000000002b3 .LASF13
     /tmp/ccGiF3FD.s:8978   .debug_str:000000000000022d .LASF14
     /tmp/ccGiF3FD.s:9330   .debug_str:0000000000000d62 .LASF15
     /tmp/ccGiF3FD.s:9032   .debug_str:00000000000003ec .LASF16
     /tmp/ccGiF3FD.s:9312   .debug_str:0000000000000cde .LASF17
     /tmp/ccGiF3FD.s:9058   .debug_str:00000000000004cb .LASF271
     /tmp/ccGiF3FD.s:8982   .debug_str:000000000000024c .LASF18
     /tmp/ccGiF3FD.s:9142   .debug_str:00000000000007f5 .LASF19
     /tmp/ccGiF3FD.s:9218   .debug_str:0000000000000a45 .LASF22
     /tmp/ccGiF3FD.s:8956   .debug_str:00000000000001a2 .LASF20
     /tmp/ccGiF3FD.s:9308   .debug_str:0000000000000cc1 .LASF21
     /tmp/ccGiF3FD.s:9396   .debug_str:0000000000000fa6 .LASF84
     /tmp/ccGiF3FD.s:8948   .debug_str:000000000000015b .LASF24
     /tmp/ccGiF3FD.s:9106   .debug_str:0000000000000640 .LASF23
GAS LISTING /tmp/ccGiF3FD.s 			page 57


     /tmp/ccGiF3FD.s:9352   .debug_str:0000000000000e03 .LASF25
     /tmp/ccGiF3FD.s:9432   .debug_str:000000000000109c .LASF26
     /tmp/ccGiF3FD.s:8934   .debug_str:00000000000000e4 .LASF27
     /tmp/ccGiF3FD.s:9118   .debug_str:0000000000000697 .LASF28
     /tmp/ccGiF3FD.s:9416   .debug_str:0000000000001041 .LASF29
     /tmp/ccGiF3FD.s:9444   .debug_str:00000000000010fa .LASF31
     /tmp/ccGiF3FD.s:9274   .debug_str:0000000000000be9 .LASF30
     /tmp/ccGiF3FD.s:9398   .debug_str:0000000000000fb0 .LASF32
     /tmp/ccGiF3FD.s:9036   .debug_str:000000000000041d .LASF33
     /tmp/ccGiF3FD.s:9084   .debug_str:000000000000059e .LASF34
     /tmp/ccGiF3FD.s:9434   .debug_str:00000000000010af .LASF145
     /tmp/ccGiF3FD.s:9180   .debug_str:000000000000090a .LASF147
     /tmp/ccGiF3FD.s:9178   .debug_str:0000000000000900 .LASF35
     /tmp/ccGiF3FD.s:8930   .debug_str:00000000000000ba .LASF36
     /tmp/ccGiF3FD.s:9340   .debug_str:0000000000000dbf .LASF37
     /tmp/ccGiF3FD.s:9044   .debug_str:000000000000045b .LASF38
     /tmp/ccGiF3FD.s:9422   .debug_str:000000000000105d .LASF48
     /tmp/ccGiF3FD.s:9012   .debug_str:000000000000033a .LASF50
     /tmp/ccGiF3FD.s:9162   .debug_str:000000000000088c .LASF39
     /tmp/ccGiF3FD.s:9358   .debug_str:0000000000000e4e .LASF138
     /tmp/ccGiF3FD.s:8910   .debug_str:000000000000002d .LASF40
     /tmp/ccGiF3FD.s:8974   .debug_str:000000000000020a .LASF41
     /tmp/ccGiF3FD.s:8964   .debug_str:00000000000001c8 .LASF42
     /tmp/ccGiF3FD.s:8986   .debug_str:0000000000000257 .LASF43
     /tmp/ccGiF3FD.s:8988   .debug_str:0000000000000260 .LASF272
     /tmp/ccGiF3FD.s:9456   .debug_str:0000000000001160 .LASF44
     /tmp/ccGiF3FD.s:9066   .debug_str:0000000000000503 .LASF45
     /tmp/ccGiF3FD.s:8968   .debug_str:00000000000001df .LASF46
     /tmp/ccGiF3FD.s:9054   .debug_str:00000000000004b5 .LASF47
     /tmp/ccGiF3FD.s:8914   .debug_str:000000000000003a .LASF49
     /tmp/ccGiF3FD.s:9206   .debug_str:00000000000009ea .LASF51
     /tmp/ccGiF3FD.s:9310   .debug_str:0000000000000ccb .LASF52
     /tmp/ccGiF3FD.s:9272   .debug_str:0000000000000bdc .LASF53
     /tmp/ccGiF3FD.s:9286   .debug_str:0000000000000c3d .LASF54
     /tmp/ccGiF3FD.s:8920   .debug_str:0000000000000083 .LASF55
     /tmp/ccGiF3FD.s:9280   .debug_str:0000000000000c16 .LASF56
     /tmp/ccGiF3FD.s:9002   .debug_str:00000000000002e1 .LASF57
     /tmp/ccGiF3FD.s:9298   .debug_str:0000000000000c81 .LASF58
     /tmp/ccGiF3FD.s:9256   .debug_str:0000000000000b5f .LASF59
     /tmp/ccGiF3FD.s:9166   .debug_str:00000000000008a2 .LASF60
     /tmp/ccGiF3FD.s:9046   .debug_str:000000000000047c .LASF61
     /tmp/ccGiF3FD.s:9342   .debug_str:0000000000000dc8 .LASF62
     /tmp/ccGiF3FD.s:9336   .debug_str:0000000000000d7e .LASF63
     /tmp/ccGiF3FD.s:9150   .debug_str:000000000000081c .LASF64
     /tmp/ccGiF3FD.s:9360   .debug_str:0000000000000e57 .LASF65
     /tmp/ccGiF3FD.s:9062   .debug_str:00000000000004e7 .LASF66
     /tmp/ccGiF3FD.s:9282   .debug_str:0000000000000c1f .LASF67
     /tmp/ccGiF3FD.s:9222   .debug_str:0000000000000a5c .LASF68
     /tmp/ccGiF3FD.s:9460   .debug_str:0000000000001176 .LASF69
     /tmp/ccGiF3FD.s:9362   .debug_str:0000000000000e70 .LASF70
     /tmp/ccGiF3FD.s:9400   .debug_str:0000000000000fcc .LASF71
     /tmp/ccGiF3FD.s:9328   .debug_str:0000000000000d55 .LASF72
     /tmp/ccGiF3FD.s:9426   .debug_str:000000000000106d .LASF73
     /tmp/ccGiF3FD.s:9212   .debug_str:0000000000000a14 .LASF273
     /tmp/ccGiF3FD.s:9148   .debug_str:0000000000000816 .LASF74
     /tmp/ccGiF3FD.s:9264   .debug_str:0000000000000b9e .LASF76
     /tmp/ccGiF3FD.s:9014   .debug_str:000000000000035d .LASF75
GAS LISTING /tmp/ccGiF3FD.s 			page 58


     /tmp/ccGiF3FD.s:8990   .debug_str:0000000000000268 .LASF77
     /tmp/ccGiF3FD.s:9406   .debug_str:0000000000001015 .LASF78
     /tmp/ccGiF3FD.s:9170   .debug_str:00000000000008b5 .LASF79
     /tmp/ccGiF3FD.s:8946   .debug_str:0000000000000155 .LASF80
     /tmp/ccGiF3FD.s:9354   .debug_str:0000000000000e36 .LASF81
     /tmp/ccGiF3FD.s:9296   .debug_str:0000000000000c70 .LASF82
     /tmp/ccGiF3FD.s:9356   .debug_str:0000000000000e46 .LASF83
     /tmp/ccGiF3FD.s:9438   .debug_str:00000000000010c7 .LASF85
     /tmp/ccGiF3FD.s:9380   .debug_str:0000000000000f3d .LASF86
     /tmp/ccGiF3FD.s:8912   .debug_str:0000000000000035 .LASF87
     /tmp/ccGiF3FD.s:9450   .debug_str:000000000000113a .LASF88
     /tmp/ccGiF3FD.s:9304   .debug_str:0000000000000ca8 .LASF89
     /tmp/ccGiF3FD.s:9366   .debug_str:0000000000000e85 .LASF90
     /tmp/ccGiF3FD.s:9022   .debug_str:000000000000039e .LASF91
     /tmp/ccGiF3FD.s:9168   .debug_str:00000000000008a9 .LASF92
     /tmp/ccGiF3FD.s:9122   .debug_str:00000000000006b8 .LASF93
     /tmp/ccGiF3FD.s:9220   .debug_str:0000000000000a55 .LASF94
     /tmp/ccGiF3FD.s:9384   .debug_str:0000000000000f60 .LASF95
     /tmp/ccGiF3FD.s:9318   .debug_str:0000000000000d03 .LASF237
     /tmp/ccGiF3FD.s:8966   .debug_str:00000000000001d1 .LASF96
     /tmp/ccGiF3FD.s:9152   .debug_str:0000000000000829 .LASF98
     /tmp/ccGiF3FD.s:9008   .debug_str:000000000000031a .LASF274
     /tmp/ccGiF3FD.s:8918   .debug_str:000000000000005b .LASF275
     /tmp/ccGiF3FD.s:8950   .debug_str:0000000000000174 .LASF97
     /tmp/ccGiF3FD.s:9184   .debug_str:000000000000093a .LASF99
     /tmp/ccGiF3FD.s:9250   .debug_str:0000000000000b31 .LASF100
     /tmp/ccGiF3FD.s:9108   .debug_str:000000000000064e .LASF101
     /tmp/ccGiF3FD.s:9158   .debug_str:000000000000085f .LASF102
     /tmp/ccGiF3FD.s:9266   .debug_str:0000000000000bae .LASF103
     /tmp/ccGiF3FD.s:9392   .debug_str:0000000000000f8b .LASF104
     /tmp/ccGiF3FD.s:9070   .debug_str:0000000000000529 .LASF105
     /tmp/ccGiF3FD.s:9016   .debug_str:0000000000000366 .LASF106
     /tmp/ccGiF3FD.s:9302   .debug_str:0000000000000c91 .LASF107
     /tmp/ccGiF3FD.s:9334   .debug_str:0000000000000d77 .LASF108
     /tmp/ccGiF3FD.s:9188   .debug_str:0000000000000967 .LASF109
     /tmp/ccGiF3FD.s:9182   .debug_str:000000000000092e .LASF110
     /tmp/ccGiF3FD.s:9024   .debug_str:00000000000003a4 .LASF111
     /tmp/ccGiF3FD.s:9208   .debug_str:00000000000009f7 .LASF112
     /tmp/ccGiF3FD.s:9388   .debug_str:0000000000000f7d .LASF113
     /tmp/ccGiF3FD.s:9320   .debug_str:0000000000000d1a .LASF114
     /tmp/ccGiF3FD.s:9190   .debug_str:0000000000000980 .LASF115
     /tmp/ccGiF3FD.s:9394   .debug_str:0000000000000fa0 .LASF116
     /tmp/ccGiF3FD.s:9154   .debug_str:0000000000000842 .LASF117
     /tmp/ccGiF3FD.s:9176   .debug_str:00000000000008ef .LASF118
     /tmp/ccGiF3FD.s:9164   .debug_str:0000000000000891 .LASF119
     /tmp/ccGiF3FD.s:9174   .debug_str:00000000000008dd .LASF120
     /tmp/ccGiF3FD.s:9226   .debug_str:0000000000000a7d .LASF121
     /tmp/ccGiF3FD.s:9092   .debug_str:00000000000005e7 .LASF122
     /tmp/ccGiF3FD.s:9088   .debug_str:00000000000005d9 .LASF123
     /tmp/ccGiF3FD.s:9322   .debug_str:0000000000000d1f .LASF124
     /tmp/ccGiF3FD.s:9090   .debug_str:00000000000005e0 .LASF125
     /tmp/ccGiF3FD.s:9372   .debug_str:0000000000000ee6 .LASF126
     /tmp/ccGiF3FD.s:8970   .debug_str:00000000000001ef .LASF127
     /tmp/ccGiF3FD.s:8994   .debug_str:0000000000000287 .LASF128
     /tmp/ccGiF3FD.s:9374   .debug_str:0000000000000f00 .LASF233
     /tmp/ccGiF3FD.s:9104   .debug_str:0000000000000638 .LASF129
     /tmp/ccGiF3FD.s:9440   .debug_str:00000000000010d2 .LASF130
GAS LISTING /tmp/ccGiF3FD.s 			page 59


     /tmp/ccGiF3FD.s:9028   .debug_str:00000000000003ce .LASF131
     /tmp/ccGiF3FD.s:9082   .debug_str:0000000000000583 .LASF132
     /tmp/ccGiF3FD.s:9076   .debug_str:0000000000000558 .LASF133
     /tmp/ccGiF3FD.s:9338   .debug_str:0000000000000d94 .LASF134
     /tmp/ccGiF3FD.s:8992   .debug_str:000000000000027b .LASF135
     /tmp/ccGiF3FD.s:8908   .debug_str:000000000000000d .LASF136
     /tmp/ccGiF3FD.s:9410   .debug_str:000000000000102c .LASF137
     /tmp/ccGiF3FD.s:9248   .debug_str:0000000000000b26 .LASF139
     /tmp/ccGiF3FD.s:9136   .debug_str:00000000000007c5 .LASF140
     /tmp/ccGiF3FD.s:9462   .debug_str:000000000000118f .LASF141
     /tmp/ccGiF3FD.s:9420   .debug_str:0000000000001054 .LASF142
     /tmp/ccGiF3FD.s:9458   .debug_str:000000000000116d .LASF143
     /tmp/ccGiF3FD.s:9210   .debug_str:00000000000009ff .LASF144
     /tmp/ccGiF3FD.s:9146   .debug_str:000000000000080d .LASF146
     /tmp/ccGiF3FD.s:9386   .debug_str:0000000000000f68 .LASF148
     /tmp/ccGiF3FD.s:9192   .debug_str:0000000000000985 .LASF149
     /tmp/ccGiF3FD.s:9134   .debug_str:00000000000007b2 .LASF150
     /tmp/ccGiF3FD.s:9240   .debug_str:0000000000000af2 .LASF151
     /tmp/ccGiF3FD.s:9244   .debug_str:0000000000000aff .LASF152
     /tmp/ccGiF3FD.s:8940   .debug_str:0000000000000134 .LASF153
     /tmp/ccGiF3FD.s:9402   .debug_str:0000000000000fe7 .LASF154
     /tmp/ccGiF3FD.s:9128   .debug_str:000000000000078f .LASF155
     /tmp/ccGiF3FD.s:9050   .debug_str:000000000000049c .LASF156
     /tmp/ccGiF3FD.s:9430   .debug_str:0000000000001094 .LASF157
     /tmp/ccGiF3FD.s:9326   .debug_str:0000000000000d41 .LASF158
     /tmp/ccGiF3FD.s:9314   .debug_str:0000000000000cf4 .LASF159
     /tmp/ccGiF3FD.s:9102   .debug_str:0000000000000624 .LASF160
     /tmp/ccGiF3FD.s:9156   .debug_str:0000000000000857 .LASF161
     /tmp/ccGiF3FD.s:9246   .debug_str:0000000000000b12 .LASF162
     /tmp/ccGiF3FD.s:9324   .debug_str:0000000000000d3a .LASF163
     /tmp/ccGiF3FD.s:9290   .debug_str:0000000000000c48 .LASF164
     /tmp/ccGiF3FD.s:9292   .debug_str:0000000000000c5b .LASF165
     /tmp/ccGiF3FD.s:9030   .debug_str:00000000000003d9 .LASF166
     /tmp/ccGiF3FD.s:9100   .debug_str:000000000000061e .LASF167
     /tmp/ccGiF3FD.s:9010   .debug_str:0000000000000328 .LASF168
     /tmp/ccGiF3FD.s:9288   .debug_str:0000000000000c42 .LASF169
     /tmp/ccGiF3FD.s:9346   .debug_str:0000000000000dd8 .LASF170
     /tmp/ccGiF3FD.s:8928   .debug_str:00000000000000af .LASF171
     /tmp/ccGiF3FD.s:9276   .debug_str:0000000000000bf3 .LASF172
     /tmp/ccGiF3FD.s:9268   .debug_str:0000000000000bc3 .LASF173
     /tmp/ccGiF3FD.s:9454   .debug_str:0000000000001148 .LASF174
     /tmp/ccGiF3FD.s:9408   .debug_str:0000000000001022 .LASF175
     /tmp/ccGiF3FD.s:8936   .debug_str:0000000000000110 .LASF176
     /tmp/ccGiF3FD.s:9414   .debug_str:0000000000001037 .LASF177
     /tmp/ccGiF3FD.s:8996   .debug_str:000000000000029d .LASF178
     /tmp/ccGiF3FD.s:9198   .debug_str:00000000000009b5 .LASF179
     /tmp/ccGiF3FD.s:9214   .debug_str:0000000000000a19 .LASF180
     /tmp/ccGiF3FD.s:9364   .debug_str:0000000000000e80 .LASF181
     /tmp/ccGiF3FD.s:9442   .debug_str:00000000000010e9 .LASF182
     /tmp/ccGiF3FD.s:9202   .debug_str:00000000000009d4 .LASF183
     /tmp/ccGiF3FD.s:9116   .debug_str:0000000000000686 .LASF184
     /tmp/ccGiF3FD.s:9424   .debug_str:0000000000001068 .LASF185
     /tmp/ccGiF3FD.s:8916   .debug_str:000000000000004a .LASF186
     /tmp/ccGiF3FD.s:9120   .debug_str:00000000000006b3 .LASF187
     /tmp/ccGiF3FD.s:9350   .debug_str:0000000000000df2 .LASF188
     /tmp/ccGiF3FD.s:9428   .debug_str:000000000000108f .LASF189
     /tmp/ccGiF3FD.s:9376   .debug_str:0000000000000f13 .LASF190
GAS LISTING /tmp/ccGiF3FD.s 			page 60


     /tmp/ccGiF3FD.s:9098   .debug_str:0000000000000611 .LASF191
     /tmp/ccGiF3FD.s:9404   .debug_str:0000000000000ffb .LASF192
     /tmp/ccGiF3FD.s:9294   .debug_str:0000000000000c62 .LASF193
     /tmp/ccGiF3FD.s:9034   .debug_str:0000000000000402 .LASF194
     /tmp/ccGiF3FD.s:9080   .debug_str:0000000000000578 .LASF195
     /tmp/ccGiF3FD.s:9194   .debug_str:000000000000098c .LASF196
     /tmp/ccGiF3FD.s:9252   .debug_str:0000000000000b3c .LASF197
     /tmp/ccGiF3FD.s:9254   .debug_str:0000000000000b47 .LASF198
     /tmp/ccGiF3FD.s:8938   .debug_str:0000000000000126 .LASF199
     /tmp/ccGiF3FD.s:9368   .debug_str:0000000000000e8f .LASF200
     /tmp/ccGiF3FD.s:9344   .debug_str:0000000000000dd3 .LASF201
     /tmp/ccGiF3FD.s:9242   .debug_str:0000000000000af9 .LASF202
     /tmp/ccGiF3FD.s:9452   .debug_str:000000000000113f .LASF203
     /tmp/ccGiF3FD.s:9114   .debug_str:0000000000000680 .LASF204
     /tmp/ccGiF3FD.s:8984   .debug_str:0000000000000251 .LASF205
     /tmp/ccGiF3FD.s:9332   .debug_str:0000000000000d6e .LASF206
     /tmp/ccGiF3FD.s:9026   .debug_str:00000000000003b8 .LASF207
     /tmp/ccGiF3FD.s:8924   .debug_str:000000000000009b .LASF208
     /tmp/ccGiF3FD.s:9216   .debug_str:0000000000000a2a .LASF209
     /tmp/ccGiF3FD.s:9258   .debug_str:0000000000000b73 .LASF210
     /tmp/ccGiF3FD.s:9466   .debug_str:00000000000011b2 .LASF211
     /tmp/ccGiF3FD.s:9064   .debug_str:00000000000004f3 .LASF212
     /tmp/ccGiF3FD.s:8976   .debug_str:0000000000000210 .LASF213
     /tmp/ccGiF3FD.s:9096   .debug_str:0000000000000605 .LASF214
     /tmp/ccGiF3FD.s:9020   .debug_str:0000000000000385 .LASF215
     /tmp/ccGiF3FD.s:8906   .debug_str:0000000000000000 .LASF216
     /tmp/ccGiF3FD.s:9200   .debug_str:00000000000009ba .LASF217
     /tmp/ccGiF3FD.s:8944   .debug_str:000000000000014a .LASF218
     /tmp/ccGiF3FD.s:9132   .debug_str:00000000000007aa .LASF219
     /tmp/ccGiF3FD.s:9348   .debug_str:0000000000000dea .LASF220
     /tmp/ccGiF3FD.s:9306   .debug_str:0000000000000cae .LASF221
     /tmp/ccGiF3FD.s:8922   .debug_str:000000000000008f .LASF276
     /tmp/ccGiF3FD.s:9300   .debug_str:0000000000000c8a .LASF222
     /tmp/ccGiF3FD.s:9262   .debug_str:0000000000000b98 .LASF223
     /tmp/ccGiF3FD.s:9172   .debug_str:00000000000008cf .LASF224
     /tmp/ccGiF3FD.s:9038   .debug_str:0000000000000428 .LASF225
     /tmp/ccGiF3FD.s:8954   .debug_str:000000000000019b .LASF226
     /tmp/ccGiF3FD.s:9186   .debug_str:000000000000094e .LASF227
     /tmp/ccGiF3FD.s:9260   .debug_str:0000000000000b7f .LASF228
     /tmp/ccGiF3FD.s:9464   .debug_str:0000000000001198 .LASF229
     /tmp/ccGiF3FD.s:9018   .debug_str:000000000000036b .LASF230
     /tmp/ccGiF3FD.s:9074   .debug_str:000000000000054b .LASF231
     /tmp/ccGiF3FD.s:9378   .debug_str:0000000000000f24 .LASF232
     /tmp/ccGiF3FD.s:9230   .debug_str:0000000000000a9c .LASF277
     /tmp/ccGiF3FD.s:9382   .debug_str:0000000000000f45 .LASF234
     /tmp/ccGiF3FD.s:9124   .debug_str:00000000000006c1 .LASF235
     /tmp/ccGiF3FD.s:9448   .debug_str:0000000000001120 .LASF236
     /tmp/ccGiF3FD.s:8962   .debug_str:00000000000001b4 .LASF278
     /tmp/ccGiF3FD.s:9086   .debug_str:00000000000005c1 .LASF238
     /tmp/ccGiF3FD.s:8932   .debug_str:00000000000000db .LASF239
     /tmp/ccGiF3FD.s:9160   .debug_str:0000000000000873 .LASF240
     /tmp/ccGiF3FD.s:9138   .debug_str:00000000000007ce .LASF241
     /tmp/ccGiF3FD.s:9238   .debug_str:0000000000000ad0 .LASF242
     /tmp/ccGiF3FD.s:9228   .debug_str:0000000000000a8f .LASF243
     /tmp/ccGiF3FD.s:9000   .debug_str:00000000000002c3 .LASF244
     /tmp/ccGiF3FD.s:9446   .debug_str:0000000000001116 .LASF245
     /tmp/ccGiF3FD.s:9040   .debug_str:0000000000000437 .LASF246
GAS LISTING /tmp/ccGiF3FD.s 			page 61


     /tmp/ccGiF3FD.s:9436   .debug_str:00000000000010bb .LASF247
     /tmp/ccGiF3FD.s:8952   .debug_str:000000000000017e .LASF248
     /tmp/ccGiF3FD.s:9140   .debug_str:00000000000007da .LASF249
     /tmp/ccGiF3FD.s:9042   .debug_str:0000000000000455 .LASF250
     /tmp/ccGiF3FD.s:9234   .debug_str:0000000000000ac0 .LASF251
     /tmp/ccGiF3FD.s:9278   .debug_str:0000000000000c0b .LASF252
     /tmp/ccGiF3FD.s:8960   .debug_str:00000000000001ad .LASF253
     /tmp/ccGiF3FD.s:9052   .debug_str:00000000000004b0 .LASF254
     /tmp/ccGiF3FD.s:9056   .debug_str:00000000000004c1 .LASF255
     /tmp/ccGiF3FD.s:1586   .text:00000000000006d8 .LFB71
     /tmp/ccGiF3FD.s:1825   .text:0000000000000880 .LFE71
     /tmp/ccGiF3FD.s:6852   .debug_loc:0000000000000000 .LLST56
     /tmp/ccGiF3FD.s:6936   .debug_loc:0000000000000142 .LLST57
     /tmp/ccGiF3FD.s:7016   .debug_loc:0000000000000271 .LLST58
     /tmp/ccGiF3FD.s:7096   .debug_loc:00000000000003a0 .LLST59
     /tmp/ccGiF3FD.s:7176   .debug_loc:00000000000004cf .LLST60
     /tmp/ccGiF3FD.s:9316   .debug_str:0000000000000cfc .LASF256
     /tmp/ccGiF3FD.s:7256   .debug_loc:00000000000005fe .LLST61
     /tmp/ccGiF3FD.s:1601   .text:00000000000006ec .LBB494
     /tmp/ccGiF3FD.s:1617   .text:00000000000006f8 .LBE494
     /tmp/ccGiF3FD.s:1602   .text:00000000000006ec .LBB495
     /tmp/ccGiF3FD.s:1616   .text:00000000000006f8 .LBE495
     /tmp/ccGiF3FD.s:1655   .text:0000000000000754 .LBB496
     /tmp/ccGiF3FD.s:1670   .text:0000000000000760 .LBE496
     /tmp/ccGiF3FD.s:1656   .text:0000000000000754 .LBB497
     /tmp/ccGiF3FD.s:1669   .text:0000000000000760 .LBE497
     /tmp/ccGiF3FD.s:1786   .text:0000000000000838 .LBB498
     /tmp/ccGiF3FD.s:1802   .text:0000000000000844 .LBE498
     /tmp/ccGiF3FD.s:1787   .text:0000000000000838 .LBB499
     /tmp/ccGiF3FD.s:1801   .text:0000000000000844 .LBE499
     /tmp/ccGiF3FD.s:1652   .text:0000000000000754 .LVL124
     /tmp/ccGiF3FD.s:1675   .text:0000000000000770 .LVL125
     /tmp/ccGiF3FD.s:1682   .text:0000000000000784 .LVL126
     /tmp/ccGiF3FD.s:1696   .text:00000000000007a4 .LVL128
     /tmp/ccGiF3FD.s:1725   .text:00000000000007c4 .LVL132
     /tmp/ccGiF3FD.s:1739   .text:00000000000007d4 .LVL134
     /tmp/ccGiF3FD.s:1746   .text:00000000000007e0 .LVL136
     /tmp/ccGiF3FD.s:1767   .text:000000000000080c .LVL142
     /tmp/ccGiF3FD.s:1809   .text:0000000000000854 .LVL148
     /tmp/ccGiF3FD.s:1816   .text:0000000000000868 .LVL149
     /tmp/ccGiF3FD.s:9006   .debug_str:0000000000000311 .LASF257
     /tmp/ccGiF3FD.s:9204   .debug_str:00000000000009d9 .LASF258
     /tmp/ccGiF3FD.s:865    .text:00000000000003b8 .LFB70
     /tmp/ccGiF3FD.s:1580   .text:00000000000006d8 .LFE70
     /tmp/ccGiF3FD.s:7267   .debug_loc:0000000000000634 .LLST28
     /tmp/ccGiF3FD.s:7300   .debug_loc:00000000000006bc .LLST29
     /tmp/ccGiF3FD.s:7420   .debug_loc:00000000000008d6 .LLST30
     /tmp/ccGiF3FD.s:7537   .debug_loc:0000000000000aed .LLST31
     /tmp/ccGiF3FD.s:7683   .debug_loc:0000000000000d12 .LLST32
     /tmp/ccGiF3FD.s:9412   .debug_str:0000000000001032 .LASF259
     /tmp/ccGiF3FD.s:7829   .debug_loc:0000000000000f37 .LLST33
     /tmp/ccGiF3FD.s:9418   .debug_str:000000000000104c .LASF260
     /tmp/ccGiF3FD.s:7840   .debug_loc:0000000000000f6d .LLST34
     /tmp/ccGiF3FD.s:7855   .debug_loc:0000000000000fb6 .LLST35
     /tmp/ccGiF3FD.s:1193   .text:0000000000000540 .LBB434
     /tmp/ccGiF3FD.s:1217   .text:000000000000056c .LBE434
     /tmp/ccGiF3FD.s:7912   .debug_loc:00000000000010b0 .LLST54
GAS LISTING /tmp/ccGiF3FD.s 			page 62


     /tmp/ccGiF3FD.s:1203   .text:0000000000000554 .LVL87
     /tmp/ccGiF3FD.s:1322   .text:00000000000005c4 .LBB381
     /tmp/ccGiF3FD.s:1354   .text:00000000000005e8 .LBE381
     /tmp/ccGiF3FD.s:7923   .debug_loc:00000000000010e6 .LLST46
     /tmp/ccGiF3FD.s:1325   .text:00000000000005c4 .LBB382
     /tmp/ccGiF3FD.s:1336   .text:00000000000005d8 .LBE382
     /tmp/ccGiF3FD.s:7934   .debug_loc:000000000000111c .LLST47
     /tmp/ccGiF3FD.s:1330   .text:00000000000005cc .LVL98
     /tmp/ccGiF3FD.s:1334   .text:00000000000005d8 .LVL99
     /tmp/ccGiF3FD.s:1337   .text:00000000000005d8 .LBB384
     /tmp/ccGiF3FD.s:1351   .text:00000000000005e4 .LBE384
     /tmp/ccGiF3FD.s:7942   .debug_loc:0000000000001140 .LLST48
     /tmp/ccGiF3FD.s:7949   .debug_loc:0000000000001163 .LLST49
     /tmp/ccGiF3FD.s:1342   .text:00000000000005dc .LBB386
     /tmp/ccGiF3FD.s:1349   .text:00000000000005e4 .LBE386
     /tmp/ccGiF3FD.s:7956   .debug_loc:0000000000001186 .LLST50
     /tmp/ccGiF3FD.s:1375   .text:00000000000005f0 .LBB373
     /tmp/ccGiF3FD.s:1396   .text:0000000000000614 .LBE373
     /tmp/ccGiF3FD.s:7965   .debug_loc:00000000000011ab .LLST44
     /tmp/ccGiF3FD.s:1384   .text:0000000000000600 .LBB374
     /tmp/ccGiF3FD.s:1395   .text:0000000000000614 .LBE374
     /tmp/ccGiF3FD.s:7976   .debug_loc:00000000000011e1 .LLST45
     /tmp/ccGiF3FD.s:1389   .text:0000000000000608 .LVL104
     /tmp/ccGiF3FD.s:1393   .text:0000000000000614 .LVL105
     /tmp/ccGiF3FD.s:1383   .text:0000000000000600 .LVL103
     /tmp/ccGiF3FD.s:1419   .text:000000000000061c .LBB366
     /tmp/ccGiF3FD.s:1441   .text:0000000000000630 .LBE366
     /tmp/ccGiF3FD.s:7983   .debug_loc:0000000000001204 .LLST42
     /tmp/ccGiF3FD.s:1427   .text:0000000000000628 .LBB367
     /tmp/ccGiF3FD.s:1440   .text:0000000000000630 .LBE367
     /tmp/ccGiF3FD.s:7994   .debug_loc:000000000000123a .LLST43
     /tmp/ccGiF3FD.s:1425   .text:0000000000000628 .LVL107
     /tmp/ccGiF3FD.s:1443   .text:0000000000000630 .LBB361
     /tmp/ccGiF3FD.s:1450   .text:000000000000063c .LBE361
     /tmp/ccGiF3FD.s:8001   .debug_loc:000000000000125d .LLST38
     /tmp/ccGiF3FD.s:1449   .text:000000000000063c .LVL109
     /tmp/ccGiF3FD.s:889    .text:00000000000003e0 .LBB345
     /tmp/ccGiF3FD.s:904    .text:00000000000003ec .LBE345
     /tmp/ccGiF3FD.s:890    .text:00000000000003e0 .LBB346
     /tmp/ccGiF3FD.s:903    .text:00000000000003ec .LBE346
     /tmp/ccGiF3FD.s:908    .text:00000000000003f0 .LBB347
     /tmp/ccGiF3FD.s:924    .text:00000000000003fc .LBE347
     /tmp/ccGiF3FD.s:909    .text:00000000000003f0 .LBB348
     /tmp/ccGiF3FD.s:923    .text:00000000000003fc .LBE348
     /tmp/ccGiF3FD.s:1073   .text:000000000000047c .LBB359
     /tmp/ccGiF3FD.s:1114   .text:00000000000004e4 .LBE359
     /tmp/ccGiF3FD.s:8012   .debug_loc:0000000000001293 .LLST36
     /tmp/ccGiF3FD.s:8019   .debug_loc:00000000000012b6 .LLST37
     /tmp/ccGiF3FD.s:1079   .text:0000000000000488 .LVL71
     /tmp/ccGiF3FD.s:1085   .text:0000000000000498 .LVL73
     /tmp/ccGiF3FD.s:1108   .text:00000000000004d8 .LVL74
     /tmp/ccGiF3FD.s:1112   .text:00000000000004e4 .LVL75
     /tmp/ccGiF3FD.s:1482   .text:0000000000000650 .LBB362
     /tmp/ccGiF3FD.s:1492   .text:0000000000000654 .LBE362
     /tmp/ccGiF3FD.s:8026   .debug_loc:00000000000012d9 .LLST39
     /tmp/ccGiF3FD.s:1523   .text:0000000000000668 .LBB364
     /tmp/ccGiF3FD.s:1564   .text:00000000000006d0 .LBE364
GAS LISTING /tmp/ccGiF3FD.s 			page 63


     /tmp/ccGiF3FD.s:8033   .debug_loc:00000000000012fc .LLST40
     /tmp/ccGiF3FD.s:1524   .text:0000000000000668 .LBB365
     /tmp/ccGiF3FD.s:1563   .text:00000000000006d0 .LBE365
     /tmp/ccGiF3FD.s:8040   .debug_loc:000000000000131f .LLST41
     /tmp/ccGiF3FD.s:1528   .text:0000000000000674 .LVL114
     /tmp/ccGiF3FD.s:1534   .text:0000000000000684 .LVL116
     /tmp/ccGiF3FD.s:1558   .text:00000000000006c4 .LVL118
     /tmp/ccGiF3FD.s:1562   .text:00000000000006d0 .LVL119
     /tmp/ccGiF3FD.s:1272   .text:00000000000005a4 .LBB404
     /tmp/ccGiF3FD.s:1282   .text:00000000000005a8 .LBE404
     /tmp/ccGiF3FD.s:8047   .debug_loc:0000000000001342 .LLST51
     /tmp/ccGiF3FD.s:1224   .text:0000000000000578 .LBB417
     /tmp/ccGiF3FD.s:1233   .text:0000000000000580 .LBE417
     /tmp/ccGiF3FD.s:8054   .debug_loc:0000000000001365 .LLST52
     /tmp/ccGiF3FD.s:1239   .text:0000000000000588 .LBB419
     /tmp/ccGiF3FD.s:1249   .text:000000000000058c .LBE419
     /tmp/ccGiF3FD.s:8061   .debug_loc:0000000000001388 .LLST53
     /tmp/ccGiF3FD.s:1142   .text:0000000000000500 .LBB484
     /tmp/ccGiF3FD.s:1153   .text:0000000000000504 .LBE484
     /tmp/ccGiF3FD.s:8068   .debug_loc:00000000000013ab .LLST55
     /tmp/ccGiF3FD.s:1134   .text:00000000000004f4 .LVL77
     /tmp/ccGiF3FD.s:1138   .text:0000000000000500 .LVL78
     /tmp/ccGiF3FD.s:1184   .text:0000000000000530 .LVL82
     /tmp/ccGiF3FD.s:1188   .text:000000000000053c .LVL83
     /tmp/ccGiF3FD.s:1237   .text:0000000000000588 .LVL92
     /tmp/ccGiF3FD.s:1270   .text:00000000000005a4 .LVL94
     /tmp/ccGiF3FD.s:1303   .text:00000000000005bc .LVL96
     /tmp/ccGiF3FD.s:1480   .text:0000000000000650 .LVL111
     /tmp/ccGiF3FD.s:9232   .debug_str:0000000000000ab7 .LASF261
     /tmp/ccGiF3FD.s:9004   .debug_str:0000000000000300 .LASF262
     /tmp/ccGiF3FD.s:169    .text:000000000000009c .LFB69
     /tmp/ccGiF3FD.s:859    .text:00000000000003b8 .LFE69
     /tmp/ccGiF3FD.s:8075   .debug_loc:00000000000013ce .LLST3
     /tmp/ccGiF3FD.s:8108   .debug_loc:0000000000001456 .LLST4
     /tmp/ccGiF3FD.s:8228   .debug_loc:0000000000001670 .LLST5
     /tmp/ccGiF3FD.s:8348   .debug_loc:000000000000188a .LLST6
     /tmp/ccGiF3FD.s:8494   .debug_loc:0000000000001aaf .LLST7
     /tmp/ccGiF3FD.s:8640   .debug_loc:0000000000001cd4 .LLST8
     /tmp/ccGiF3FD.s:8651   .debug_loc:0000000000001d0a .LLST9
     /tmp/ccGiF3FD.s:8662   .debug_loc:0000000000001d40 .LLST10
     /tmp/ccGiF3FD.s:514    .text:0000000000000230 .LBB238
     /tmp/ccGiF3FD.s:538    .text:000000000000025c .LBE238
     /tmp/ccGiF3FD.s:8719   .debug_loc:0000000000001e3a .LLST25
     /tmp/ccGiF3FD.s:524    .text:0000000000000244 .LVL31
     /tmp/ccGiF3FD.s:8896   .debug_ranges:0000000000000000 .Ldebug_ranges0
     /tmp/ccGiF3FD.s:8730   .debug_loc:0000000000001e70 .LLST19
     /tmp/ccGiF3FD.s:622    .text:00000000000002ac .LBB189
     /tmp/ccGiF3FD.s:634    .text:00000000000002c0 .LBE189
     /tmp/ccGiF3FD.s:8741   .debug_loc:0000000000001ea6 .LLST20
     /tmp/ccGiF3FD.s:628    .text:00000000000002b4 .LVL42
     /tmp/ccGiF3FD.s:632    .text:00000000000002c0 .LVL43
     /tmp/ccGiF3FD.s:635    .text:00000000000002c0 .LBB191
     /tmp/ccGiF3FD.s:651    .text:00000000000002cc .LBE191
     /tmp/ccGiF3FD.s:8749   .debug_loc:0000000000001eca .LLST21
     /tmp/ccGiF3FD.s:8756   .debug_loc:0000000000001eed .LLST22
     /tmp/ccGiF3FD.s:641    .text:00000000000002c4 .LBB193
     /tmp/ccGiF3FD.s:649    .text:00000000000002cc .LBE193
GAS LISTING /tmp/ccGiF3FD.s 			page 64


     /tmp/ccGiF3FD.s:8763   .debug_loc:0000000000001f10 .LLST23
     /tmp/ccGiF3FD.s:678    .text:00000000000002d8 .LBB180
     /tmp/ccGiF3FD.s:699    .text:00000000000002fc .LBE180
     /tmp/ccGiF3FD.s:8772   .debug_loc:0000000000001f35 .LLST17
     /tmp/ccGiF3FD.s:687    .text:00000000000002e8 .LBB181
     /tmp/ccGiF3FD.s:698    .text:00000000000002fc .LBE181
     /tmp/ccGiF3FD.s:8783   .debug_loc:0000000000001f6b .LLST18
     /tmp/ccGiF3FD.s:692    .text:00000000000002f0 .LVL48
     /tmp/ccGiF3FD.s:696    .text:00000000000002fc .LVL49
     /tmp/ccGiF3FD.s:686    .text:00000000000002e8 .LVL47
     /tmp/ccGiF3FD.s:722    .text:0000000000000304 .LBB175
     /tmp/ccGiF3FD.s:729    .text:0000000000000310 .LBE175
     /tmp/ccGiF3FD.s:8790   .debug_loc:0000000000001f8e .LLST16
     /tmp/ccGiF3FD.s:728    .text:0000000000000310 .LVL51
     /tmp/ccGiF3FD.s:734    .text:0000000000000314 .LBB172
     /tmp/ccGiF3FD.s:741    .text:0000000000000320 .LBE172
     /tmp/ccGiF3FD.s:8801   .debug_loc:0000000000001fc4 .LLST13
     /tmp/ccGiF3FD.s:740    .text:0000000000000320 .LVL53
     /tmp/ccGiF3FD.s:195    .text:00000000000000c8 .LBB156
     /tmp/ccGiF3FD.s:210    .text:00000000000000d4 .LBE156
     /tmp/ccGiF3FD.s:196    .text:00000000000000c8 .LBB157
     /tmp/ccGiF3FD.s:209    .text:00000000000000d4 .LBE157
     /tmp/ccGiF3FD.s:214    .text:00000000000000d8 .LBB158
     /tmp/ccGiF3FD.s:230    .text:00000000000000e4 .LBE158
     /tmp/ccGiF3FD.s:215    .text:00000000000000d8 .LBB159
     /tmp/ccGiF3FD.s:229    .text:00000000000000e4 .LBE159
     /tmp/ccGiF3FD.s:378    .text:0000000000000164 .LBB170
     /tmp/ccGiF3FD.s:419    .text:00000000000001cc .LBE170
     /tmp/ccGiF3FD.s:8812   .debug_loc:0000000000001ffa .LLST11
     /tmp/ccGiF3FD.s:8819   .debug_loc:000000000000201d .LLST12
     /tmp/ccGiF3FD.s:385    .text:0000000000000170 .LVL14
     /tmp/ccGiF3FD.s:390    .text:0000000000000180 .LVL15
     /tmp/ccGiF3FD.s:413    .text:00000000000001c0 .LVL16
     /tmp/ccGiF3FD.s:417    .text:00000000000001cc .LVL17
     /tmp/ccGiF3FD.s:802    .text:0000000000000348 .LBB173
     /tmp/ccGiF3FD.s:843    .text:00000000000003b0 .LBE173
     /tmp/ccGiF3FD.s:8826   .debug_loc:0000000000002040 .LLST14
     /tmp/ccGiF3FD.s:803    .text:0000000000000348 .LBB174
     /tmp/ccGiF3FD.s:842    .text:00000000000003b0 .LBE174
     /tmp/ccGiF3FD.s:8833   .debug_loc:0000000000002063 .LLST15
     /tmp/ccGiF3FD.s:807    .text:0000000000000354 .LVL58
     /tmp/ccGiF3FD.s:813    .text:0000000000000364 .LVL60
     /tmp/ccGiF3FD.s:837    .text:00000000000003a4 .LVL62
     /tmp/ccGiF3FD.s:841    .text:00000000000003b0 .LVL63
     /tmp/ccGiF3FD.s:545    .text:0000000000000268 .LBB223
     /tmp/ccGiF3FD.s:554    .text:0000000000000270 .LBE223
     /tmp/ccGiF3FD.s:8840   .debug_loc:0000000000002086 .LLST24
     /tmp/ccGiF3FD.s:447    .text:00000000000001e8 .LBB288
     /tmp/ccGiF3FD.s:458    .text:00000000000001ec .LBE288
     /tmp/ccGiF3FD.s:8847   .debug_loc:00000000000020a9 .LLST26
     /tmp/ccGiF3FD.s:460    .text:00000000000001ec .LBB290
     /tmp/ccGiF3FD.s:471    .text:00000000000001f0 .LBE290
     /tmp/ccGiF3FD.s:8854   .debug_loc:00000000000020cc .LLST27
     /tmp/ccGiF3FD.s:439    .text:00000000000001dc .LVL19
     /tmp/ccGiF3FD.s:443    .text:00000000000001e8 .LVL20
     /tmp/ccGiF3FD.s:505    .text:0000000000000220 .LVL26
     /tmp/ccGiF3FD.s:509    .text:000000000000022c .LVL27
GAS LISTING /tmp/ccGiF3FD.s 			page 65


     /tmp/ccGiF3FD.s:558    .text:0000000000000278 .LVL36
     /tmp/ccGiF3FD.s:579    .text:0000000000000290 .LVL38
     /tmp/ccGiF3FD.s:600    .text:00000000000002a4 .LVL40
     /tmp/ccGiF3FD.s:771    .text:0000000000000334 .LVL55
     /tmp/ccGiF3FD.s:8942   .debug_str:000000000000013c .LASF263
     /tmp/ccGiF3FD.s:9078   .debug_str:0000000000000565 .LASF264
     /tmp/ccGiF3FD.s:13     .text:0000000000000000 .LFB68
     /tmp/ccGiF3FD.s:163    .text:000000000000009c .LFE68
     /tmp/ccGiF3FD.s:91     .text:0000000000000068 .LBB105
     /tmp/ccGiF3FD.s:160    .text:000000000000009c .LBE105
     /tmp/ccGiF3FD.s:93     .text:0000000000000068 .LBB106
     /tmp/ccGiF3FD.s:109    .text:0000000000000074 .LBE106
     /tmp/ccGiF3FD.s:94     .text:0000000000000068 .LBB107
     /tmp/ccGiF3FD.s:108    .text:0000000000000074 .LBE107
     /tmp/ccGiF3FD.s:110    .text:0000000000000074 .LBB108
     /tmp/ccGiF3FD.s:126    .text:0000000000000080 .LBE108
     /tmp/ccGiF3FD.s:111    .text:0000000000000074 .LBB109
     /tmp/ccGiF3FD.s:125    .text:0000000000000080 .LBE109
     /tmp/ccGiF3FD.s:135    .text:0000000000000090 .LBB110
     /tmp/ccGiF3FD.s:146    .text:0000000000000094 .LBE110
     /tmp/ccGiF3FD.s:8861   .debug_loc:00000000000020ef .LLST1
     /tmp/ccGiF3FD.s:148    .text:0000000000000094 .LBB112
     /tmp/ccGiF3FD.s:159    .text:000000000000009c .LBE112
     /tmp/ccGiF3FD.s:133    .text:0000000000000090 .LVL7
     /tmp/ccGiF3FD.s:45     .text:0000000000000040 .LBB103
     /tmp/ccGiF3FD.s:53     .text:0000000000000044 .LBE103
     /tmp/ccGiF3FD.s:8868   .debug_loc:0000000000002112 .LLST0
     /tmp/ccGiF3FD.s:60     .text:0000000000000048 .LBB114
     /tmp/ccGiF3FD.s:73     .text:0000000000000050 .LBE114
     /tmp/ccGiF3FD.s:8875   .debug_loc:0000000000002135 .LLST2
     /tmp/ccGiF3FD.s:32     .text:0000000000000020 .LVL0
     /tmp/ccGiF3FD.s:8972   .debug_str:00000000000001f6 .LASF266
     /tmp/ccGiF3FD.s:9390   .debug_str:0000000000000f86 .LASF265
     /tmp/ccGiF3FD.s:9196   .debug_str:00000000000009a4 .LASF267
     /tmp/ccGiF3FD.s:9110   .debug_str:0000000000000662 .LASF279
     /tmp/ccGiF3FD.s:8958   .debug_str:00000000000001a7 .LASF280
     /tmp/ccGiF3FD.s:1589   .text:00000000000006d8 .LVL121
     /tmp/ccGiF3FD.s:1691   .text:000000000000079c .LVL127
     /tmp/ccGiF3FD.s:1703   .text:00000000000007a8 .LVL129
     /tmp/ccGiF3FD.s:1719   .text:00000000000007bc .LVL131
     /tmp/ccGiF3FD.s:1741   .text:00000000000007d8 .LVL135
     /tmp/ccGiF3FD.s:1748   .text:00000000000007e4 .LVL137
     /tmp/ccGiF3FD.s:1765   .text:0000000000000804 .LVL141
     /tmp/ccGiF3FD.s:1775   .text:0000000000000824 .LVL143
     /tmp/ccGiF3FD.s:1800   .text:0000000000000844 .LVL145
     /tmp/ccGiF3FD.s:1734   .text:00000000000007cc .LVL133
     /tmp/ccGiF3FD.s:1763   .text:0000000000000800 .LVL140
     /tmp/ccGiF3FD.s:1807   .text:000000000000084c .LVL147
     /tmp/ccGiF3FD.s:1761   .text:00000000000007fc .LVL139
     /tmp/ccGiF3FD.s:1805   .text:0000000000000848 .LVL146
     /tmp/ccGiF3FD.s:1645   .text:0000000000000744 .LVL123
     /tmp/ccGiF3FD.s:1754   .text:00000000000007f0 .LVL138
     /tmp/ccGiF3FD.s:1781   .text:0000000000000830 .LVL144
     /tmp/ccGiF3FD.s:1615   .text:00000000000006f8 .LVL122
     /tmp/ccGiF3FD.s:1715   .text:00000000000007b4 .LVL130
     /tmp/ccGiF3FD.s:868    .text:00000000000003b8 .LVL65
     /tmp/ccGiF3FD.s:1077   .text:0000000000000480 .LVL70
GAS LISTING /tmp/ccGiF3FD.s 			page 66


     /tmp/ccGiF3FD.s:1128   .text:00000000000004ec .LVL76
     /tmp/ccGiF3FD.s:1176   .text:0000000000000528 .LVL81
     /tmp/ccGiF3FD.s:1544   .text:000000000000069c .LVL117
     /tmp/ccGiF3FD.s:1190   .text:0000000000000540 .LVL84
     /tmp/ccGiF3FD.s:1200   .text:0000000000000548 .LVL86
     /tmp/ccGiF3FD.s:1215   .text:000000000000056c .LVL88
     /tmp/ccGiF3FD.s:1257   .text:0000000000000594 .LVL93
     /tmp/ccGiF3FD.s:1291   .text:00000000000005b0 .LVL95
     /tmp/ccGiF3FD.s:1319   .text:00000000000005c4 .LVL97
     /tmp/ccGiF3FD.s:1372   .text:00000000000005f0 .LVL102
     /tmp/ccGiF3FD.s:1408   .text:000000000000061c .LVL106
     /tmp/ccGiF3FD.s:1437   .text:0000000000000630 .LVL108
     /tmp/ccGiF3FD.s:1474   .text:0000000000000644 .LVL110
     /tmp/ccGiF3FD.s:1506   .text:000000000000065c .LVL112
     /tmp/ccGiF3FD.s:1082   .text:000000000000048c .LVL72
     /tmp/ccGiF3FD.s:1198   .text:0000000000000544 .LVL85
     /tmp/ccGiF3FD.s:1229   .text:000000000000057c .LVL90
     /tmp/ccGiF3FD.s:907    .text:00000000000003f0 .LVL66
     /tmp/ccGiF3FD.s:1166   .text:0000000000000514 .LVL80
     /tmp/ccGiF3FD.s:922    .text:00000000000003fc .LVL67
     /tmp/ccGiF3FD.s:1070   .text:0000000000000478 .LVL68
     /tmp/ccGiF3FD.s:1531   .text:0000000000000678 .LVL115
     /tmp/ccGiF3FD.s:1567   .text:00000000000006d4 .LVL120
     /tmp/ccGiF3FD.s:1347   .text:00000000000005e4 .LVL101
     /tmp/ccGiF3FD.s:1341   .text:00000000000005dc .LVL100
     /tmp/ccGiF3FD.s:1072   .text:000000000000047c .LVL69
     /tmp/ccGiF3FD.s:1522   .text:0000000000000668 .LVL113
     /tmp/ccGiF3FD.s:1223   .text:0000000000000578 .LVL89
     /tmp/ccGiF3FD.s:1231   .text:0000000000000580 .LVL91
     /tmp/ccGiF3FD.s:1150   .text:0000000000000504 .LVL79
     /tmp/ccGiF3FD.s:172    .text:000000000000009c .LVL9
     /tmp/ccGiF3FD.s:383    .text:0000000000000168 .LVL13
     /tmp/ccGiF3FD.s:433    .text:00000000000001d4 .LVL18
     /tmp/ccGiF3FD.s:497    .text:0000000000000218 .LVL25
     /tmp/ccGiF3FD.s:823    .text:000000000000037c .LVL61
     /tmp/ccGiF3FD.s:511    .text:0000000000000230 .LVL28
     /tmp/ccGiF3FD.s:521    .text:0000000000000238 .LVL30
     /tmp/ccGiF3FD.s:536    .text:000000000000025c .LVL32
     /tmp/ccGiF3FD.s:570    .text:0000000000000280 .LVL37
     /tmp/ccGiF3FD.s:593    .text:0000000000000298 .LVL39
     /tmp/ccGiF3FD.s:616    .text:00000000000002ac .LVL41
     /tmp/ccGiF3FD.s:674    .text:00000000000002d8 .LVL46
     /tmp/ccGiF3FD.s:711    .text:0000000000000304 .LVL50
     /tmp/ccGiF3FD.s:731    .text:0000000000000314 .LVL52
     /tmp/ccGiF3FD.s:765    .text:0000000000000328 .LVL54
     /tmp/ccGiF3FD.s:795    .text:000000000000033c .LVL56
     /tmp/ccGiF3FD.s:519    .text:0000000000000234 .LVL29
     /tmp/ccGiF3FD.s:810    .text:0000000000000358 .LVL59
     /tmp/ccGiF3FD.s:550    .text:000000000000026c .LVL34
     /tmp/ccGiF3FD.s:213    .text:00000000000000d8 .LVL10
     /tmp/ccGiF3FD.s:484    .text:0000000000000200 .LVL23
     /tmp/ccGiF3FD.s:228    .text:00000000000000e4 .LVL11
     /tmp/ccGiF3FD.s:487    .text:0000000000000204 .LVL24
     /tmp/ccGiF3FD.s:846    .text:00000000000003b4 .LVL64
     /tmp/ccGiF3FD.s:647    .text:00000000000002cc .LVL45
     /tmp/ccGiF3FD.s:640    .text:00000000000002c4 .LVL44
     /tmp/ccGiF3FD.s:377    .text:0000000000000164 .LVL12
GAS LISTING /tmp/ccGiF3FD.s 			page 67


     /tmp/ccGiF3FD.s:801    .text:0000000000000348 .LVL57
     /tmp/ccGiF3FD.s:544    .text:0000000000000268 .LVL33
     /tmp/ccGiF3FD.s:552    .text:0000000000000270 .LVL35
     /tmp/ccGiF3FD.s:455    .text:00000000000001ec .LVL21
     /tmp/ccGiF3FD.s:468    .text:00000000000001f0 .LVL22
     /tmp/ccGiF3FD.s:143    .text:0000000000000094 .LVL8
     /tmp/ccGiF3FD.s:44     .text:0000000000000040 .LVL1
     /tmp/ccGiF3FD.s:51     .text:0000000000000044 .LVL2
     /tmp/ccGiF3FD.s:59     .text:0000000000000048 .LVL3
     /tmp/ccGiF3FD.s:70     .text:0000000000000050 .LVL4
     /tmp/ccGiF3FD.s:1842   .debug_info:0000000000000000 .Ldebug_info0
     /tmp/ccGiF3FD.s:619    .text:00000000000002ac .LBB188
     /tmp/ccGiF3FD.s:655    .text:00000000000002d0 .LBE188
     /tmp/ccGiF3FD.s:672    .text:00000000000002d4 .LBB195
     /tmp/ccGiF3FD.s:676    .text:00000000000002d8 .LBE195

UNDEFINED SYMBOLS
_ZN9Scheduler12update_sleepEv
_ZN3TCB16timeSliceCounterE
_ZN3TCB7runningE
_ZN3TCB5yieldEv
_ZN5StdIO7obufferE
_ZN10KSemaphore4waitEv
_ZN10KSemaphore6signalEv
_ZN15MemoryAllocator11getInstanceEv
_ZN15MemoryAllocator9mem_allocEm
_ZN15MemoryAllocator8mem_freeEPv
_ZN3TCB12createThreadEPFvPvES0_Pm
_ZN3TCB8dispatchEv
_ZN3TCB12deleteThreadEPS_
_ZN10KSemaphoreD1Ev
_ZN3TCB5sleepEm
_ZN5StdIO7ibufferE
_ZN9Scheduler11print_queueEv
_Z5printmcb
_ZN5StdIO15console_handlerEv
