GAS LISTING /tmp/ccPwzfv0.s 			page 1


   1              		.file	"ksemaphore.cpp"
   2              		.option nopic
   3              		.option norelax
   4              		.attribute arch, "rv64i2p0_m2p0_a2p0"
   5              		.attribute unaligned_access, 0
   6              		.attribute stack_align, 16
   7              		.text
   8              	.Ltext0:
   9              		.align	2
  10              		.globl	_ZN10KSemaphore4waitEv
  12              	_ZN10KSemaphore4waitEv:
  13              	.LFB68:
  14              		.file 1 "src/cpp/ksemaphore.cpp"
   1:src/cpp/ksemaphore.cpp **** #include"../../h/KInclude.hpp"
   2:src/cpp/ksemaphore.cpp **** 
   3:src/cpp/ksemaphore.cpp **** int KSemaphore::wait(){
  15              		.loc 1 3 23
  16              		.cfi_startproc
  17              	.LVL0:
   4:src/cpp/ksemaphore.cpp ****     if(val > 0)
  18              		.loc 1 4 5
  19              		.loc 1 4 8 is_stmt 0
  20 0000 83270500 		lw	a5,0(a0)
  21              		.loc 1 4 5
  22 0004 638A0700 		beq	a5,zero,.L2
   5:src/cpp/ksemaphore.cpp ****     {
   6:src/cpp/ksemaphore.cpp ****         val--;
  23              		.loc 1 6 9 is_stmt 1
  24              		.loc 1 6 12 is_stmt 0
  25 0008 9B87F7FF 		addiw	a5,a5,-1
  26 000c 2320F500 		sw	a5,0(a0)
   7:src/cpp/ksemaphore.cpp ****     }
   8:src/cpp/ksemaphore.cpp ****     else
   9:src/cpp/ksemaphore.cpp ****     {
  10:src/cpp/ksemaphore.cpp ****         TCB::running->setState(TCB::BLOCKED);
  11:src/cpp/ksemaphore.cpp ****         blocked.insert(TCB::running);
  12:src/cpp/ksemaphore.cpp ****         
  13:src/cpp/ksemaphore.cpp ****         TCB::yield();
  14:src/cpp/ksemaphore.cpp ****         
  15:src/cpp/ksemaphore.cpp ****         if(TCB::running->getState() != TCB::BLOCKED)
  16:src/cpp/ksemaphore.cpp ****             return -2;
  17:src/cpp/ksemaphore.cpp ****         TCB::running->setState(TCB::READY);
  18:src/cpp/ksemaphore.cpp ****     }
  19:src/cpp/ksemaphore.cpp ****     return 0;
  27              		.loc 1 19 12
  28 0010 13050000 		li	a0,0
  29              	.LVL1:
  20:src/cpp/ksemaphore.cpp **** }
  30              		.loc 1 20 1
  31 0014 67800000 		ret
  32              	.LVL2:
  33              	.L2:
   3:src/cpp/ksemaphore.cpp ****         val--;
  34              		.loc 1 3 23
  35 0018 130101FE 		addi	sp,sp,-32
  36              		.cfi_def_cfa_offset 32
  37 001c 233C1100 		sd	ra,24(sp)
GAS LISTING /tmp/ccPwzfv0.s 			page 2


  38 0020 23388100 		sd	s0,16(sp)
  39 0024 23349100 		sd	s1,8(sp)
  40              		.cfi_offset 1, -8
  41              		.cfi_offset 8, -16
  42              		.cfi_offset 9, -24
  43 0028 13040102 		addi	s0,sp,32
  44              		.cfi_def_cfa 8, 0
  10:src/cpp/ksemaphore.cpp ****         blocked.insert(TCB::running);
  45              		.loc 1 10 9 is_stmt 1
  10:src/cpp/ksemaphore.cpp ****         blocked.insert(TCB::running);
  46              		.loc 1 10 31 is_stmt 0
  47 002c 97040000 		lla	s1,_ZN3TCB7runningE
  47      93840400 
  48 0034 83B50400 		ld	a1,0(s1)
  49              	.LVL3:
  50              	.LBB17:
  51              	.LBB18:
  52              		.file 2 "src/cpp/../../h/../h/../h/tcb.hpp"
   1:src/cpp/../../h/../h/../h/tcb.hpp **** #ifndef __tcb__h
   2:src/cpp/../../h/../h/../h/tcb.hpp **** #define __tcb__h
   3:src/cpp/../../h/../h/../h/tcb.hpp **** 
   4:src/cpp/../../h/../h/../h/tcb.hpp **** #include"../h/memory_allocator.hpp"
   5:src/cpp/../../h/../h/../h/tcb.hpp **** 
   6:src/cpp/../../h/../h/../h/tcb.hpp **** class KSemaphore;
   7:src/cpp/../../h/../h/../h/tcb.hpp **** 
   8:src/cpp/../../h/../h/../h/tcb.hpp **** class TCB{
   9:src/cpp/../../h/../h/../h/tcb.hpp ****     
  10:src/cpp/../../h/../h/../h/tcb.hpp **** public:
  11:src/cpp/../../h/../h/../h/tcb.hpp ****     //alokacija
  12:src/cpp/../../h/../h/../h/tcb.hpp ****     #include"../h/kernel_operators.hpp"
  13:src/cpp/../../h/../h/../h/tcb.hpp ****     
  14:src/cpp/../../h/../h/../h/tcb.hpp ****     using Body = void (*)(void*);
  15:src/cpp/../../h/../h/../h/tcb.hpp ****     enum TCBState{
  16:src/cpp/../../h/../h/../h/tcb.hpp ****         BLOCKED,
  17:src/cpp/../../h/../h/../h/tcb.hpp ****         READY,
  18:src/cpp/../../h/../h/../h/tcb.hpp ****         FINISHED,
  19:src/cpp/../../h/../h/../h/tcb.hpp ****         SLEEPING
  20:src/cpp/../../h/../h/../h/tcb.hpp ****     };
  21:src/cpp/../../h/../h/../h/tcb.hpp ****     
  22:src/cpp/../../h/../h/../h/tcb.hpp ****     ~TCB(){ 
  23:src/cpp/../../h/../h/../h/tcb.hpp ****         MemoryAllocator& allocator = MemoryAllocator::getInstance(); 
  24:src/cpp/../../h/../h/../h/tcb.hpp ****         if(!allocator.invalidFreeAddress(this))
  25:src/cpp/../../h/../h/../h/tcb.hpp ****             allocator.mem_free(stack);
  26:src/cpp/../../h/../h/../h/tcb.hpp ****     }
  27:src/cpp/../../h/../h/../h/tcb.hpp ****     
  28:src/cpp/../../h/../h/../h/tcb.hpp ****     //nestaticki metodi
  29:src/cpp/../../h/../h/../h/tcb.hpp ****     void setState(TCBState s) {state = s;}
  53              		.loc 2 29 32 is_stmt 1
  54              		.loc 2 29 38 is_stmt 0
  55 0038 23AC0502 		sw	zero,56(a1)
  56              	.LVL4:
  57              	.LBE18:
  58              	.LBE17:
  11:src/cpp/ksemaphore.cpp ****         
  59              		.loc 1 11 9 is_stmt 1
  11:src/cpp/ksemaphore.cpp ****         
  60              		.loc 1 11 36 is_stmt 0
GAS LISTING /tmp/ccPwzfv0.s 			page 3


  61 003c 13058500 		addi	a0,a0,8
  62              	.LVL5:
  63 0040 97000000 		call	_ZN8TcbQueue6insertEP3TCB
  63      E7800000 
  64              	.LVL6:
  13:src/cpp/ksemaphore.cpp ****         
  65              		.loc 1 13 9 is_stmt 1
  13:src/cpp/ksemaphore.cpp ****         
  66              		.loc 1 13 19 is_stmt 0
  67 0048 97000000 		call	_ZN3TCB5yieldEv
  67      E7800000 
  68              	.LVL7:
  15:src/cpp/ksemaphore.cpp ****             return -2;
  69              		.loc 1 15 9 is_stmt 1
  15:src/cpp/ksemaphore.cpp ****             return -2;
  70              		.loc 1 15 34 is_stmt 0
  71 0050 83B70400 		ld	a5,0(s1)
  72              	.LVL8:
  73              	.LBB19:
  74              	.LBB20:
  30:src/cpp/../../h/../h/../h/tcb.hpp ****     TCBState getState() const{ return state; }
  75              		.loc 2 30 32 is_stmt 1
  76              		.loc 2 30 39 is_stmt 0
  77 0054 03A78703 		lw	a4,56(a5)
  78              	.LVL9:
  79              	.LBE20:
  80              	.LBE19:
  15:src/cpp/ksemaphore.cpp ****             return -2;
  81              		.loc 1 15 9
  82 0058 63120702 		bne	a4,zero,.L4
  17:src/cpp/ksemaphore.cpp ****     }
  83              		.loc 1 17 9 is_stmt 1
  84              	.LVL10:
  85              	.LBB21:
  86              	.LBB22:
  29:src/cpp/../../h/../h/../h/tcb.hpp ****     TCBState getState() const{ return state; }
  87              		.loc 2 29 32
  29:src/cpp/../../h/../h/../h/tcb.hpp ****     TCBState getState() const{ return state; }
  88              		.loc 2 29 38 is_stmt 0
  89 005c 13071000 		li	a4,1
  90 0060 23ACE702 		sw	a4,56(a5)
  91              	.LBE22:
  92              	.LBE21:
  19:src/cpp/ksemaphore.cpp **** }
  93              		.loc 1 19 12
  94 0064 13050000 		li	a0,0
  95              	.LVL11:
  96              	.L3:
  97              		.loc 1 20 1
  98 0068 83308101 		ld	ra,24(sp)
  99              		.cfi_remember_state
 100              		.cfi_restore 1
 101 006c 03340101 		ld	s0,16(sp)
 102              		.cfi_restore 8
 103              		.cfi_def_cfa 2, 32
 104 0070 83348100 		ld	s1,8(sp)
 105              		.cfi_restore 9
GAS LISTING /tmp/ccPwzfv0.s 			page 4


 106 0074 13010102 		addi	sp,sp,32
 107              		.cfi_def_cfa_offset 0
 108 0078 67800000 		jr	ra
 109              	.L4:
 110              		.cfi_restore_state
  16:src/cpp/ksemaphore.cpp ****         TCB::running->setState(TCB::READY);
 111              		.loc 1 16 21
 112 007c 1305E0FF 		li	a0,-2
 113 0080 6FF09FFE 		j	.L3
 114              		.cfi_endproc
 115              	.LFE68:
 117              		.align	2
 118              		.globl	_ZN10KSemaphore6signalEv
 120              	_ZN10KSemaphore6signalEv:
 121              	.LFB69:
  21:src/cpp/ksemaphore.cpp **** 
  22:src/cpp/ksemaphore.cpp **** int KSemaphore::signal()
  23:src/cpp/ksemaphore.cpp **** {
 122              		.loc 1 23 1 is_stmt 1
 123              		.cfi_startproc
 124              	.LVL12:
  24:src/cpp/ksemaphore.cpp ****     if(!blocked.isEmpty())
 125              		.loc 1 24 5
 126              	.LBB23:
 127              	.LBB24:
 128              		.file 3 "src/cpp/../../h/../h/ptr_queue.hpp"
   1:src/cpp/../../h/../h/ptr_queue.hpp **** #ifndef _queue_h
   2:src/cpp/../../h/../h/ptr_queue.hpp **** #define _queue_h
   3:src/cpp/../../h/../h/ptr_queue.hpp **** 
   4:src/cpp/../../h/../h/ptr_queue.hpp **** #include"../h/tcb.hpp"
   5:src/cpp/../../h/../h/ptr_queue.hpp **** //#include"../h/testing.hpp"
   6:src/cpp/../../h/../h/ptr_queue.hpp **** 
   7:src/cpp/../../h/../h/ptr_queue.hpp **** class TcbQueue{
   8:src/cpp/../../h/../h/ptr_queue.hpp ****        
   9:src/cpp/../../h/../h/ptr_queue.hpp ****    TCB *head, *tail;
  10:src/cpp/../../h/../h/ptr_queue.hpp **** 
  11:src/cpp/../../h/../h/ptr_queue.hpp ****     void brisi(){
  12:src/cpp/../../h/../h/ptr_queue.hpp ****         while(!isEmpty())
  13:src/cpp/../../h/../h/ptr_queue.hpp ****             remove();
  14:src/cpp/../../h/../h/ptr_queue.hpp ****     }
  15:src/cpp/../../h/../h/ptr_queue.hpp **** 
  16:src/cpp/../../h/../h/ptr_queue.hpp **** public:
  17:src/cpp/../../h/../h/ptr_queue.hpp ****     #include"../h/kernel_operators.hpp"
  18:src/cpp/../../h/../h/ptr_queue.hpp ****     TcbQueue():head(nullptr), tail(nullptr){}
  19:src/cpp/../../h/../h/ptr_queue.hpp ****     
  20:src/cpp/../../h/../h/ptr_queue.hpp ****     bool exists(TCB* info) const;
  21:src/cpp/../../h/../h/ptr_queue.hpp **** 
  22:src/cpp/../../h/../h/ptr_queue.hpp ****     TcbQueue& insert(TCB* info);
  23:src/cpp/../../h/../h/ptr_queue.hpp ****    
  24:src/cpp/../../h/../h/ptr_queue.hpp ****     TCB* remove();
  25:src/cpp/../../h/../h/ptr_queue.hpp **** 
  26:src/cpp/../../h/../h/ptr_queue.hpp ****     TCB* top();
  27:src/cpp/../../h/../h/ptr_queue.hpp **** 
  28:src/cpp/../../h/../h/ptr_queue.hpp ****     bool isEmpty() { return !head; }
 129              		.loc 3 28 22
 130              		.loc 3 28 30 is_stmt 0
 131 0084 83378500 		ld	a5,8(a0)
GAS LISTING /tmp/ccPwzfv0.s 			page 5


 132              	.LVL13:
 133              	.LBE24:
 134              	.LBE23:
 135              		.loc 1 24 5
 136 0088 638E0702 		beq	a5,zero,.L9
  23:src/cpp/ksemaphore.cpp ****     if(!blocked.isEmpty())
 137              		.loc 1 23 1
 138 008c 130101FF 		addi	sp,sp,-16
 139              		.cfi_def_cfa_offset 16
 140 0090 23341100 		sd	ra,8(sp)
 141 0094 23308100 		sd	s0,0(sp)
 142              		.cfi_offset 1, -8
 143              		.cfi_offset 8, -16
 144 0098 13040101 		addi	s0,sp,16
 145              		.cfi_def_cfa 8, 0
  25:src/cpp/ksemaphore.cpp ****         Scheduler::put(blocked.remove());
 146              		.loc 1 25 9 is_stmt 1
 147              		.loc 1 25 23 is_stmt 0
 148 009c 13058500 		addi	a0,a0,8
 149              	.LVL14:
 150 00a0 97000000 		call	_ZN8TcbQueue6removeEv
 150      E7800000 
 151              	.LVL15:
 152 00a8 97000000 		call	_ZN9Scheduler3putEP3TCB
 152      E7800000 
 153              	.LVL16:
  26:src/cpp/ksemaphore.cpp ****     else
  27:src/cpp/ksemaphore.cpp ****         val++;
  28:src/cpp/ksemaphore.cpp ****     return 0;
 154              		.loc 1 28 5 is_stmt 1
  29:src/cpp/ksemaphore.cpp **** }
 155              		.loc 1 29 1 is_stmt 0
 156 00b0 13050000 		li	a0,0
 157 00b4 83308100 		ld	ra,8(sp)
 158              		.cfi_restore 1
 159 00b8 03340100 		ld	s0,0(sp)
 160              		.cfi_restore 8
 161              		.cfi_def_cfa 2, 16
 162 00bc 13010101 		addi	sp,sp,16
 163              		.cfi_def_cfa_offset 0
 164 00c0 67800000 		jr	ra
 165              	.LVL17:
 166              	.L9:
  27:src/cpp/ksemaphore.cpp ****     return 0;
 167              		.loc 1 27 9 is_stmt 1
 168 00c4 83270500 		lw	a5,0(a0)
  27:src/cpp/ksemaphore.cpp ****     return 0;
 169              		.loc 1 27 12 is_stmt 0
 170 00c8 9B871700 		addiw	a5,a5,1
 171 00cc 2320F500 		sw	a5,0(a0)
  28:src/cpp/ksemaphore.cpp **** }
 172              		.loc 1 28 5 is_stmt 1
 173              		.loc 1 29 1 is_stmt 0
 174 00d0 13050000 		li	a0,0
 175              	.LVL18:
 176 00d4 67800000 		ret
 177              		.cfi_endproc
GAS LISTING /tmp/ccPwzfv0.s 			page 6


 178              	.LFE69:
 180              		.align	2
 181              		.globl	_ZN10KSemaphoreD2Ev
 183              	_ZN10KSemaphoreD2Ev:
 184              	.LFB71:
  30:src/cpp/ksemaphore.cpp **** 
  31:src/cpp/ksemaphore.cpp **** KSemaphore::~KSemaphore()
 185              		.loc 1 31 1 is_stmt 1
 186              		.cfi_startproc
 187              		.cfi_personality 0x9b,DW.ref.__gxx_personality_v0
 188              		.cfi_lsda 0x1b,.LLSDA71
 189              	.LVL19:
 190 00d8 130101FE 		addi	sp,sp,-32
 191              		.cfi_def_cfa_offset 32
 192 00dc 233C1100 		sd	ra,24(sp)
 193 00e0 23388100 		sd	s0,16(sp)
 194 00e4 23349100 		sd	s1,8(sp)
 195              		.cfi_offset 1, -8
 196              		.cfi_offset 8, -16
 197              		.cfi_offset 9, -24
 198 00e8 13040102 		addi	s0,sp,32
 199              		.cfi_def_cfa 8, 0
 200 00ec 93040500 		mv	s1,a0
 201              	.LVL20:
 202              	.L17:
 203              	.LBB25:
  32:src/cpp/ksemaphore.cpp **** {
  33:src/cpp/ksemaphore.cpp ****     while(!blocked.isEmpty()){
 204              		.loc 1 33 5
 205              	.LBB26:
 206              	.LBB27:
 207              		.loc 3 28 22
 208              		.loc 3 28 30 is_stmt 0
 209 00f0 83B78400 		ld	a5,8(s1)
 210              	.LVL21:
 211              	.LBE27:
 212              	.LBE26:
 213              		.loc 1 33 11
 214 00f4 63820702 		beq	a5,zero,.L15
 215              	.LBB28:
  34:src/cpp/ksemaphore.cpp ****         TCB* t = blocked.remove();
 216              		.loc 1 34 9 is_stmt 1
 217              		.loc 1 34 32 is_stmt 0
 218 00f8 13858400 		addi	a0,s1,8
 219 00fc 97000000 		call	_ZN8TcbQueue6removeEv
 219      E7800000 
 220              	.LVL22:
  35:src/cpp/ksemaphore.cpp ****         t->setState(TCB::READY);
 221              		.loc 1 35 9 is_stmt 1
 222              	.LBB29:
 223              	.LBB30:
  29:src/cpp/../../h/../h/../h/tcb.hpp ****     TCBState getState() const{ return state; }
 224              		.loc 2 29 32
  29:src/cpp/../../h/../h/../h/tcb.hpp ****     TCBState getState() const{ return state; }
 225              		.loc 2 29 38 is_stmt 0
 226 0104 93071000 		li	a5,1
 227 0108 232CF502 		sw	a5,56(a0)
GAS LISTING /tmp/ccPwzfv0.s 			page 7


 228              	.LVL23:
 229              	.LBE30:
 230              	.LBE29:
  36:src/cpp/ksemaphore.cpp ****         Scheduler::put(t);
 231              		.loc 1 36 9 is_stmt 1
 232              		.loc 1 36 23 is_stmt 0
 233 010c 97000000 		call	_ZN9Scheduler3putEP3TCB
 233      E7800000 
 234              	.LVL24:
 235              	.LBE28:
  33:src/cpp/ksemaphore.cpp ****         TCB* t = blocked.remove();
 236              		.loc 1 33 5
 237 0114 6FF0DFFD 		j	.L17
 238              	.L15:
 239              	.LBE25:
  37:src/cpp/ksemaphore.cpp ****     }
  38:src/cpp/ksemaphore.cpp **** }
 240              		.loc 1 38 1
 241 0118 83308101 		ld	ra,24(sp)
 242              		.cfi_restore 1
 243 011c 03340101 		ld	s0,16(sp)
 244              		.cfi_restore 8
 245              		.cfi_def_cfa 2, 32
 246 0120 83348100 		ld	s1,8(sp)
 247              		.cfi_restore 9
 248              	.LVL25:
 249 0124 13010102 		addi	sp,sp,32
 250              		.cfi_def_cfa_offset 0
 251 0128 67800000 		jr	ra
 252              		.cfi_endproc
 253              	.LFE71:
 254              		.globl	__gxx_personality_v0
 255              		.section	.gcc_except_table,"aw",@progbits
 256              	.LLSDA71:
 257 0000 FF       		.byte	0xff
 258 0001 FF       		.byte	0xff
 259 0002 03       		.byte	0x3
 260 0003 00       		.byte	0
 261              		.text
 263              		.globl	_ZN10KSemaphoreD1Ev
 264              		.set	_ZN10KSemaphoreD1Ev,_ZN10KSemaphoreD2Ev
 265              	.Letext0:
 266              		.file 4 "src/cpp/../../h/../h/../h/../h/../lib/hw.h"
 267              		.file 5 "src/cpp/../../h/../h/../h/../h/kernel_operators.hpp"
 268              		.file 6 "src/cpp/../../h/../h/../h/kernel_operators.hpp"
 269              		.file 7 "src/cpp/../../h/../h/ksemaphore.hpp"
 270              		.file 8 "src/cpp/../../h/../h/scheduler.hpp"
 2970              		.align	3
 2973              	DW.ref.__gxx_personality_v0:
 2974 0000 00000000 		.dword	__gxx_personality_v0
 2974      00000000 
 2975              		.ident	"GCC: () 8.3.0"
GAS LISTING /tmp/ccPwzfv0.s 			page 8

