GAS LISTING /tmp/ccjfCtIn.s 			page 1


   1              		.file	"main.cpp"
   2              		.option nopic
   3              		.option norelax
   4              		.attribute arch, "rv64i2p0_m2p0_a2p0"
   5              		.attribute unaligned_access, 0
   6              		.attribute stack_align, 16
   7              		.text
   8              	.Ltext0:
   9              		.align	2
  10              		.globl	_Z15userMainWrapperPv
  12              	_Z15userMainWrapperPv:
  13              	.LFB68:
  14              		.file 1 "src/cpp/main.cpp"
   1:src/cpp/main.cpp **** #include "../../h/testing.hpp"
   2:src/cpp/main.cpp **** #include"../../h/riscv.hpp"
   3:src/cpp/main.cpp **** #include "../../h/tcb.hpp"
   4:src/cpp/main.cpp **** #include "../../h/syscall_c.h"
   5:src/cpp/main.cpp **** #include"../../h/scheduler.hpp"
   6:src/cpp/main.cpp **** #include"../../test/printing.hpp"
   7:src/cpp/main.cpp **** #include "../../h/stdio.hpp"
   8:src/cpp/main.cpp **** 
   9:src/cpp/main.cpp **** extern "C" void interruptvec();
  10:src/cpp/main.cpp **** 
  11:src/cpp/main.cpp **** extern void userMain();
  12:src/cpp/main.cpp **** 
  13:src/cpp/main.cpp **** void userMainWrapper(void*){
  15              		.loc 1 13 28
  16              		.cfi_startproc
  17 0000 130101FF 		addi	sp,sp,-16
  18              		.cfi_def_cfa_offset 16
  19 0004 23341100 		sd	ra,8(sp)
  20 0008 23308100 		sd	s0,0(sp)
  21              		.cfi_offset 1, -8
  22              		.cfi_offset 8, -16
  23 000c 13040101 		addi	s0,sp,16
  24              		.cfi_def_cfa 8, 0
  14:src/cpp/main.cpp ****     userMain();
  25              		.loc 1 14 5
  26              		.loc 1 14 13 is_stmt 0
  27 0010 97000000 		call	_Z8userMainv
  27      E7800000 
  28              	.LVL0:
  15:src/cpp/main.cpp **** }
  29              		.loc 1 15 1
  30 0018 83308100 		ld	ra,8(sp)
  31              		.cfi_restore 1
  32 001c 03340100 		ld	s0,0(sp)
  33              		.cfi_restore 8
  34              		.cfi_def_cfa 2, 16
  35 0020 13010101 		addi	sp,sp,16
  36              		.cfi_def_cfa_offset 0
  37 0024 67800000 		jr	ra
  38              		.cfi_endproc
  39              	.LFE68:
  41              		.align	2
  42              		.globl	_Z12idleFunctionPv
  44              	_Z12idleFunctionPv:
GAS LISTING /tmp/ccjfCtIn.s 			page 2


  45              	.LFB69:
  16:src/cpp/main.cpp **** 
  17:src/cpp/main.cpp **** void idleFunction(void*){
  46              		.loc 1 17 25 is_stmt 1
  47              		.cfi_startproc
  48 0028 130101FF 		addi	sp,sp,-16
  49              		.cfi_def_cfa_offset 16
  50 002c 23341100 		sd	ra,8(sp)
  51 0030 23308100 		sd	s0,0(sp)
  52              		.cfi_offset 1, -8
  53              		.cfi_offset 8, -16
  54 0034 13040101 		addi	s0,sp,16
  55              		.cfi_def_cfa 8, 0
  56              	.L4:
  18:src/cpp/main.cpp ****     while(1){
  57              		.loc 1 18 5 discriminator 1
  19:src/cpp/main.cpp ****         thread_dispatch();
  58              		.loc 1 19 9 discriminator 1
  59              		.loc 1 19 24 is_stmt 0 discriminator 1
  60 0038 97000000 		call	thread_dispatch
  60      E7800000 
  61              	.LVL1:
  62 0040 6FF09FFF 		j	.L4
  63              		.cfi_endproc
  64              	.LFE69:
  66              		.align	2
  67              		.globl	main
  69              	main:
  70              	.LFB70:
  20:src/cpp/main.cpp ****     }
  21:src/cpp/main.cpp **** }
  22:src/cpp/main.cpp **** 
  23:src/cpp/main.cpp **** int main(){
  71              		.loc 1 23 11 is_stmt 1
  72              		.cfi_startproc
  73 0044 130101FD 		addi	sp,sp,-48
  74              		.cfi_def_cfa_offset 48
  75 0048 23341102 		sd	ra,40(sp)
  76 004c 23308102 		sd	s0,32(sp)
  77 0050 233C9100 		sd	s1,24(sp)
  78 0054 23382101 		sd	s2,16(sp)
  79              		.cfi_offset 1, -8
  80              		.cfi_offset 8, -16
  81              		.cfi_offset 9, -24
  82              		.cfi_offset 18, -32
  83 0058 13040103 		addi	s0,sp,48
  84              		.cfi_def_cfa 8, 0
  24:src/cpp/main.cpp ****     size_t dssb = (DEFAULT_STACK_SIZE-1)/MEM_BLOCK_SIZE + 1;
  85              		.loc 1 24 5
  86              	.LVL2:
  25:src/cpp/main.cpp **** 
  26:src/cpp/main.cpp ****     print("sizeof(TCB): ", sizeof(TCB), 0);
  87              		.loc 1 26 5
  88              		.loc 1 26 10 is_stmt 0
  89 005c 13060000 		li	a2,0
  90 0060 93050005 		li	a1,80
  91 0064 17050000 		lla	a0,.LC0
GAS LISTING /tmp/ccjfCtIn.s 			page 3


  91      13050500 
  92 006c 97000000 		call	_Z5printPKcmb
  92      E7800000 
  93              	.LVL3:
  27:src/cpp/main.cpp ****     print("DEFAULT_STACK_SIZE_BLOCKS: ", dssb, 0);
  94              		.loc 1 27 5 is_stmt 1
  95              		.loc 1 27 10 is_stmt 0
  96 0074 13060000 		li	a2,0
  97 0078 93050004 		li	a1,64
  98 007c 17050000 		lla	a0,.LC1
  98      13050500 
  99 0084 97000000 		call	_Z5printPKcmb
  99      E7800000 
 100              	.LVL4:
  28:src/cpp/main.cpp ****     print("DEFAULT_TIME_SLICE: ", DEFAULT_TIME_SLICE, 0);
 101              		.loc 1 28 5 is_stmt 1
 102              		.loc 1 28 10 is_stmt 0
 103 008c 13060000 		li	a2,0
 104 0090 93052000 		li	a1,2
 105 0094 17050000 		lla	a0,.LC2
 105      13050500 
 106 009c 97000000 		call	_Z5printPKcmb
 106      E7800000 
 107              	.LVL5:
  29:src/cpp/main.cpp ****     print("HEAP_START_ADDR", (uint64)HEAP_START_ADDR);
 108              		.loc 1 29 5 is_stmt 1
 109              		.loc 1 29 10 is_stmt 0
 110 00a4 13061000 		li	a2,1
 111 00a8 97070000 		lla	a5,HEAP_START_ADDR
 111      93870700 
 112 00b0 83B50700 		ld	a1,0(a5)
 113 00b4 17050000 		lla	a0,.LC3
 113      13050500 
 114 00bc 97000000 		call	_Z5printPKcmb
 114      E7800000 
 115              	.LVL6:
  30:src/cpp/main.cpp ****     print("HEAP_END_ADDR", (uint64)HEAP_END_ADDR);
 116              		.loc 1 30 5 is_stmt 1
 117              		.loc 1 30 10 is_stmt 0
 118 00c4 13061000 		li	a2,1
 119 00c8 97070000 		lla	a5,HEAP_END_ADDR
 119      93870700 
 120 00d0 83B50700 		ld	a1,0(a5)
 121 00d4 17050000 		lla	a0,.LC4
 121      13050500 
 122 00dc 97000000 		call	_Z5printPKcmb
 122      E7800000 
 123              	.LVL7:
  31:src/cpp/main.cpp ****     print("-------------------------------\n\n");
 124              		.loc 1 31 5 is_stmt 1
 125              		.loc 1 31 10 is_stmt 0
 126 00e4 9305A000 		li	a1,10
 127 00e8 17050000 		lla	a0,.LC5
 127      13050500 
 128 00f0 97000000 		call	_Z5printPKcc
 128      E7800000 
 129              	.LVL8:
GAS LISTING /tmp/ccjfCtIn.s 			page 4


  32:src/cpp/main.cpp ****     
  33:src/cpp/main.cpp ****     print("kernelInit\n-------------------------------");
 130              		.loc 1 33 5 is_stmt 1
 131              		.loc 1 33 10 is_stmt 0
 132 00f8 9305A000 		li	a1,10
 133 00fc 17050000 		lla	a0,.LC6
 133      13050500 
 134 0104 97000000 		call	_Z5printPKcc
 134      E7800000 
 135              	.LVL9:
  34:src/cpp/main.cpp ****     Scheduler::initalize();
 136              		.loc 1 34 5 is_stmt 1
 137              		.loc 1 34 25 is_stmt 0
 138 010c 97000000 		call	_ZN9Scheduler9initalizeEv
 138      E7800000 
 139              	.LVL10:
  35:src/cpp/main.cpp ****     print("Scheduler initalized");
 140              		.loc 1 35 5 is_stmt 1
 141              		.loc 1 35 10 is_stmt 0
 142 0114 9305A000 		li	a1,10
 143 0118 17050000 		lla	a0,.LC7
 143      13050500 
 144 0120 97000000 		call	_Z5printPKcc
 144      E7800000 
 145              	.LVL11:
  36:src/cpp/main.cpp ****     StdIO::initalize();
 146              		.loc 1 36 5 is_stmt 1
 147              		.loc 1 36 21 is_stmt 0
 148 0128 97000000 		call	_ZN5StdIO9initalizeEv
 148      E7800000 
 149              	.LVL12:
  37:src/cpp/main.cpp ****     print("StdIO initalized");
 150              		.loc 1 37 5 is_stmt 1
 151              		.loc 1 37 10 is_stmt 0
 152 0130 9305A000 		li	a1,10
 153 0134 17050000 		lla	a0,.LC8
 153      13050500 
 154 013c 97000000 		call	_Z5printPKcc
 154      E7800000 
 155              	.LVL13:
  38:src/cpp/main.cpp ****     MemoryAllocator& allocator = MemoryAllocator::getInstance();
 156              		.loc 1 38 5 is_stmt 1
 157              		.loc 1 38 63 is_stmt 0
 158 0144 97000000 		call	_ZN15MemoryAllocator11getInstanceEv
 158      E7800000 
 159              	.LVL14:
  39:src/cpp/main.cpp ****     if(allocator.initalized()) print("Allocator initalized");
 160              		.loc 1 39 5 is_stmt 1
 161              	.LBB13:
 162              	.LBB14:
 163              		.file 2 "src/cpp/../../h/../h/memory_allocator.hpp"
   1:src/cpp/../../h/../h/memory_allocator.hpp **** #ifndef _memory_h
   2:src/cpp/../../h/../h/memory_allocator.hpp **** #define _memory_h
   3:src/cpp/../../h/../h/memory_allocator.hpp **** #include"../lib/hw.h"
   4:src/cpp/../../h/../h/memory_allocator.hpp **** 
   5:src/cpp/../../h/../h/memory_allocator.hpp **** struct FreeSegment{
   6:src/cpp/../../h/../h/memory_allocator.hpp ****     struct FreeSegment* next;
GAS LISTING /tmp/ccjfCtIn.s 			page 5


   7:src/cpp/../../h/../h/memory_allocator.hpp ****     size_t size;
   8:src/cpp/../../h/../h/memory_allocator.hpp **** };
   9:src/cpp/../../h/../h/memory_allocator.hpp **** 
  10:src/cpp/../../h/../h/memory_allocator.hpp **** class MemoryAllocator{
  11:src/cpp/../../h/../h/memory_allocator.hpp **** private:
  12:src/cpp/../../h/../h/memory_allocator.hpp ****     bool init;
  13:src/cpp/../../h/../h/memory_allocator.hpp ****     FreeSegment* fmem_head;
  14:src/cpp/../../h/../h/memory_allocator.hpp ****     static MemoryAllocator allocator;
  15:src/cpp/../../h/../h/memory_allocator.hpp **** 
  16:src/cpp/../../h/../h/memory_allocator.hpp ****     MemoryAllocator() = default;
  17:src/cpp/../../h/../h/memory_allocator.hpp ****     
  18:src/cpp/../../h/../h/memory_allocator.hpp ****     FreeSegment* mergeWithNext(FreeSegment*);
  19:src/cpp/../../h/../h/memory_allocator.hpp **** public:
  20:src/cpp/../../h/../h/memory_allocator.hpp ****     bool invalidFreeAddress(void* adr);
  21:src/cpp/../../h/../h/memory_allocator.hpp ****     MemoryAllocator(const MemoryAllocator&) = delete;
  22:src/cpp/../../h/../h/memory_allocator.hpp ****     bool operator==(const MemoryAllocator&) = delete;
  23:src/cpp/../../h/../h/memory_allocator.hpp ****     MemoryAllocator& operator=(const MemoryAllocator&) = delete;
  24:src/cpp/../../h/../h/memory_allocator.hpp ****     
  25:src/cpp/../../h/../h/memory_allocator.hpp ****     bool initalized(){ return init;}
 164              		.loc 2 25 24
 165              		.loc 2 25 31 is_stmt 0
 166 014c 83470500 		lbu	a5,0(a0)
 167              	.LVL15:
 168              	.LBE14:
 169              	.LBE13:
 170              		.loc 1 39 5
 171 0150 63820716 		beq	a5,zero,.L7
 172              		.loc 1 39 32 is_stmt 1 discriminator 1
 173              		.loc 1 39 37 is_stmt 0 discriminator 1
 174 0154 9305A000 		li	a1,10
 175 0158 17050000 		lla	a0,.LC9
 175      13050500 
 176              	.LVL16:
 177 0160 97000000 		call	_Z5printPKcc
 177      E7800000 
 178              	.LVL17:
  40:src/cpp/main.cpp ****     else { 
  41:src/cpp/main.cpp ****         print("ERROR: allocator not initalized");
  42:src/cpp/main.cpp ****         return 0;
  43:src/cpp/main.cpp ****     }
  44:src/cpp/main.cpp ****     Riscv::w_stvec((uint64)interruptvec);
 179              		.loc 1 44 5 is_stmt 1 discriminator 1
 180              		.loc 1 44 19 is_stmt 0 discriminator 1
 181 0168 97070000 		lla	a5,interruptvec
 181      93870700 
 182              	.LVL18:
 183              	.LBB15:
 184              	.LBB16:
 185              		.file 3 "src/cpp/../../h/riscv.hpp"
   1:src/cpp/../../h/riscv.hpp **** #ifndef __riscv__
   2:src/cpp/../../h/riscv.hpp **** #define __riscv__
   3:src/cpp/../../h/riscv.hpp **** 
   4:src/cpp/../../h/riscv.hpp **** #include"../lib/hw.h"
   5:src/cpp/../../h/riscv.hpp **** 
   6:src/cpp/../../h/riscv.hpp **** class Riscv{
   7:src/cpp/../../h/riscv.hpp **** public:
   8:src/cpp/../../h/riscv.hpp ****     
GAS LISTING /tmp/ccjfCtIn.s 			page 6


   9:src/cpp/../../h/riscv.hpp ****     static void w_scause(uint64);
  10:src/cpp/../../h/riscv.hpp ****     static uint64 r_scause(); 
  11:src/cpp/../../h/riscv.hpp **** 
  12:src/cpp/../../h/riscv.hpp ****     static void w_sepc(uint64);
  13:src/cpp/../../h/riscv.hpp ****     static uint64 r_sepc();
  14:src/cpp/../../h/riscv.hpp ****     static void ni_sepc();
  15:src/cpp/../../h/riscv.hpp **** 
  16:src/cpp/../../h/riscv.hpp ****     static void w_stvec(uint64);
  17:src/cpp/../../h/riscv.hpp ****     static uint64 r_stvec();
  18:src/cpp/../../h/riscv.hpp ****      
  19:src/cpp/../../h/riscv.hpp ****     static void w_stval(uint64);
  20:src/cpp/../../h/riscv.hpp ****     static uint64 r_stval();
  21:src/cpp/../../h/riscv.hpp ****     
  22:src/cpp/../../h/riscv.hpp ****     enum BitMaskSip{
  23:src/cpp/../../h/riscv.hpp ****         SIP_SSIE = (1<<1),
  24:src/cpp/../../h/riscv.hpp ****         SIP_STIE = (1<<5),
  25:src/cpp/../../h/riscv.hpp ****         SIP_SEIE = (1<<9),
  26:src/cpp/../../h/riscv.hpp ****     };
  27:src/cpp/../../h/riscv.hpp **** 
  28:src/cpp/../../h/riscv.hpp ****     static void ms_sip(uint64);
  29:src/cpp/../../h/riscv.hpp ****     static void mc_sip(uint64);
  30:src/cpp/../../h/riscv.hpp **** 
  31:src/cpp/../../h/riscv.hpp ****     static void w_sip(uint64);
  32:src/cpp/../../h/riscv.hpp ****     static uint64 r_sip();
  33:src/cpp/../../h/riscv.hpp **** 
  34:src/cpp/../../h/riscv.hpp ****     enum BitMaskSstatus{
  35:src/cpp/../../h/riscv.hpp ****         SSTATUS_SIE = (1<<1),
  36:src/cpp/../../h/riscv.hpp ****         SSTATUS_SPIE = (1<<5),
  37:src/cpp/../../h/riscv.hpp ****         SSTATUS_SPP = (1<<8),
  38:src/cpp/../../h/riscv.hpp ****     };
  39:src/cpp/../../h/riscv.hpp **** 
  40:src/cpp/../../h/riscv.hpp ****     static void ms_sstatus(uint64);
  41:src/cpp/../../h/riscv.hpp ****     static void mc_sstatus(uint64);
  42:src/cpp/../../h/riscv.hpp **** 
  43:src/cpp/../../h/riscv.hpp ****     static void w_sstatus(uint64);
  44:src/cpp/../../h/riscv.hpp ****     static uint64 r_sstatus();
  45:src/cpp/../../h/riscv.hpp **** 
  46:src/cpp/../../h/riscv.hpp ****     static uint64 r_a0();
  47:src/cpp/../../h/riscv.hpp ****     static uint64 s_a0(uint64 a0);
  48:src/cpp/../../h/riscv.hpp ****     static uint64 r_a1();
  49:src/cpp/../../h/riscv.hpp ****     static uint64 r_a2();
  50:src/cpp/../../h/riscv.hpp ****     static uint64 r_a3();
  51:src/cpp/../../h/riscv.hpp ****     static uint64 r_a4();
  52:src/cpp/../../h/riscv.hpp **** 
  53:src/cpp/../../h/riscv.hpp ****     static void popRegisters();
  54:src/cpp/../../h/riscv.hpp ****     static void pushRegisters();
  55:src/cpp/../../h/riscv.hpp **** 
  56:src/cpp/../../h/riscv.hpp ****     static void popSppSpie();
  57:src/cpp/../../h/riscv.hpp **** 
  58:src/cpp/../../h/riscv.hpp ****     static void mc_cstatus(uint64 mask);
  59:src/cpp/../../h/riscv.hpp ****     static bool cstatus_ready(uint64 mask);
  60:src/cpp/../../h/riscv.hpp **** };
  61:src/cpp/../../h/riscv.hpp **** 
  62:src/cpp/../../h/riscv.hpp **** inline uint64 Riscv::r_a0(){
  63:src/cpp/../../h/riscv.hpp ****     uint64 a0;
  64:src/cpp/../../h/riscv.hpp ****     asm volatile("mv %0, a0" : "=r" (a0));
  65:src/cpp/../../h/riscv.hpp ****     return a0;
GAS LISTING /tmp/ccjfCtIn.s 			page 7


  66:src/cpp/../../h/riscv.hpp **** }
  67:src/cpp/../../h/riscv.hpp **** 
  68:src/cpp/../../h/riscv.hpp **** inline uint64 Riscv::r_a1(){
  69:src/cpp/../../h/riscv.hpp ****     uint64 a0;
  70:src/cpp/../../h/riscv.hpp ****     asm volatile("mv %0, a1" : "=r" (a0));
  71:src/cpp/../../h/riscv.hpp ****     return a0;
  72:src/cpp/../../h/riscv.hpp **** }
  73:src/cpp/../../h/riscv.hpp **** 
  74:src/cpp/../../h/riscv.hpp **** inline uint64 Riscv::r_a2(){
  75:src/cpp/../../h/riscv.hpp ****     uint64 a0;
  76:src/cpp/../../h/riscv.hpp ****     asm volatile("mv %0, a2" : "=r" (a0));
  77:src/cpp/../../h/riscv.hpp ****     return a0;
  78:src/cpp/../../h/riscv.hpp **** }
  79:src/cpp/../../h/riscv.hpp **** 
  80:src/cpp/../../h/riscv.hpp **** inline uint64 Riscv::r_a3(){
  81:src/cpp/../../h/riscv.hpp ****     uint64 a0;
  82:src/cpp/../../h/riscv.hpp ****     asm volatile("mv %0, a3" : "=r" (a0));
  83:src/cpp/../../h/riscv.hpp ****     return a0;
  84:src/cpp/../../h/riscv.hpp **** }
  85:src/cpp/../../h/riscv.hpp **** 
  86:src/cpp/../../h/riscv.hpp **** inline uint64 Riscv::r_a4(){
  87:src/cpp/../../h/riscv.hpp ****     uint64 a0;
  88:src/cpp/../../h/riscv.hpp ****     asm volatile("mv %0, a4" : "=r" (a0));
  89:src/cpp/../../h/riscv.hpp ****     return a0;
  90:src/cpp/../../h/riscv.hpp **** }
  91:src/cpp/../../h/riscv.hpp **** 
  92:src/cpp/../../h/riscv.hpp **** 
  93:src/cpp/../../h/riscv.hpp **** inline uint64 Riscv::s_a0(uint64 a0){
  94:src/cpp/../../h/riscv.hpp ****     return a0;
  95:src/cpp/../../h/riscv.hpp **** }
  96:src/cpp/../../h/riscv.hpp **** 
  97:src/cpp/../../h/riscv.hpp **** inline void Riscv::w_scause(uint64 scause){
  98:src/cpp/../../h/riscv.hpp ****     asm volatile("csrw scause, %0" : : "r" (scause));
  99:src/cpp/../../h/riscv.hpp **** }
 100:src/cpp/../../h/riscv.hpp **** 
 101:src/cpp/../../h/riscv.hpp **** inline uint64 Riscv::r_scause(){
 102:src/cpp/../../h/riscv.hpp ****     uint64 volatile scause;
 103:src/cpp/../../h/riscv.hpp ****     asm volatile("csrr %0, scause" : "=r" (scause));
 104:src/cpp/../../h/riscv.hpp ****     return scause;
 105:src/cpp/../../h/riscv.hpp **** } 
 106:src/cpp/../../h/riscv.hpp **** 
 107:src/cpp/../../h/riscv.hpp **** inline void Riscv::w_sepc(uint64 sepc){
 108:src/cpp/../../h/riscv.hpp ****     asm volatile("csrw sepc, %0" : : "r" (sepc));
 109:src/cpp/../../h/riscv.hpp **** }
 110:src/cpp/../../h/riscv.hpp **** 
 111:src/cpp/../../h/riscv.hpp **** inline uint64 Riscv::r_sepc(){
 112:src/cpp/../../h/riscv.hpp ****     uint64 volatile sepc;
 113:src/cpp/../../h/riscv.hpp ****     asm volatile("csrr %0, sepc" : "=r" (sepc));
 114:src/cpp/../../h/riscv.hpp ****     return sepc;
 115:src/cpp/../../h/riscv.hpp **** } 
 116:src/cpp/../../h/riscv.hpp **** 
 117:src/cpp/../../h/riscv.hpp **** inline void Riscv::w_stvec(uint64 stvec){
 118:src/cpp/../../h/riscv.hpp ****     asm volatile("csrw stvec, %0" : : "r" (stvec));
 186              		.loc 3 118 5 is_stmt 1 discriminator 1
 187              		.loc 3 118 51 is_stmt 0 discriminator 1
 188              	 #APP
 189              	# 118 "src/cpp/../../h/riscv.hpp" 1
GAS LISTING /tmp/ccjfCtIn.s 			page 8


 119              	}
 190              		csrw stvec, a5
 191              	# 0 "" 2
 192              	.LVL19:
 193              	 #NO_APP
 194              	.LBE16:
 195              	.LBE15:
  45:src/cpp/main.cpp ****     print("stvec initalized");
 196              		.loc 1 45 5 is_stmt 1 discriminator 1
 197              		.loc 1 45 10 is_stmt 0 discriminator 1
 198 0174 9305A000 		li	a1,10
 199 0178 17050000 		lla	a0,.LC10
 199      13050500 
 200 0180 97000000 		call	_Z5printPKcc
 200      E7800000 
 201              	.LVL20:
  46:src/cpp/main.cpp **** 
  47:src/cpp/main.cpp ****     TCB* kernelThread, * userMainThread, * idleThread;
 202              		.loc 1 47 5 is_stmt 1 discriminator 1
  48:src/cpp/main.cpp **** 
  49:src/cpp/main.cpp ****     print("Thread making...");
 203              		.loc 1 49 5 discriminator 1
 204              		.loc 1 49 10 is_stmt 0 discriminator 1
 205 0188 9305A000 		li	a1,10
 206 018c 17050000 		lla	a0,.LC11
 206      13050500 
 207 0194 97000000 		call	_Z5printPKcc
 207      E7800000 
 208              	.LVL21:
  50:src/cpp/main.cpp ****     //mainThread
  51:src/cpp/main.cpp ****     kernelThread = TCB::createThread(nullptr);
 209              		.loc 1 51 5 is_stmt 1 discriminator 1
 210              		.loc 1 51 37 is_stmt 0 discriminator 1
 211 019c 13060000 		li	a2,0
 212 01a0 93050000 		li	a1,0
 213 01a4 13050000 		li	a0,0
 214 01a8 97000000 		call	_ZN3TCB12createThreadEPFvPvES0_Pm
 214      E7800000 
 215              	.LVL22:
  52:src/cpp/main.cpp ****     TCB::running = kernelThread;
 216              		.loc 1 52 5 is_stmt 1 discriminator 1
 217              		.loc 1 52 18 is_stmt 0 discriminator 1
 218 01b0 97070000 		sd	a0,_ZN3TCB7runningE,a5
 218      23B0A700 
  53:src/cpp/main.cpp ****     if(kernelThread) print("KernelThread created");
 219              		.loc 1 53 5 is_stmt 1 discriminator 1
 220 01b8 630C0500 		beq	a0,zero,.L9
 221              		.loc 1 53 22 discriminator 1
 222              		.loc 1 53 27 is_stmt 0 discriminator 1
 223 01bc 9305A000 		li	a1,10
 224 01c0 17050000 		lla	a0,.LC13
 224      13050500 
 225              	.LVL23:
 226 01c8 97000000 		call	_Z5printPKcc
 226      E7800000 
 227              	.LVL24:
 228              	.L9:
GAS LISTING /tmp/ccjfCtIn.s 			page 9


  54:src/cpp/main.cpp **** 
  55:src/cpp/main.cpp ****     uint64* userMainStack = (uint64*)kmalloc(DEFAULT_STACK_SIZE);
 229              		.loc 1 55 5 is_stmt 1
 230              		.loc 1 55 45 is_stmt 0
 231 01d0 37150000 		li	a0,4096
 232 01d4 97000000 		call	_Z7kmallocm
 232      E7800000 
 233              	.LVL25:
 234 01dc 93040500 		mv	s1,a0
 235              	.LVL26:
  56:src/cpp/main.cpp ****     userMainThread = TCB::createThread(userMainWrapper, nullptr, userMainStack);
 236              		.loc 1 56 5 is_stmt 1
 237              		.loc 1 56 39 is_stmt 0
 238 01e0 13060500 		mv	a2,a0
 239 01e4 93050000 		li	a1,0
 240 01e8 17050000 		lla	a0,_Z15userMainWrapperPv
 240      13050500 
 241 01f0 97000000 		call	_ZN3TCB12createThreadEPFvPvES0_Pm
 241      E7800000 
 242              	.LVL27:
 243 01f8 13090500 		mv	s2,a0
 244              	.LVL28:
  57:src/cpp/main.cpp ****     if(userMainThread && userMainStack) print("UserMain thread created");
 245              		.loc 1 57 5 is_stmt 1
 246 01fc 630E0500 		beq	a0,zero,.L11
 247              		.loc 1 57 23 is_stmt 0 discriminator 1
 248 0200 638C0400 		beq	s1,zero,.L11
 249              		.loc 1 57 41 is_stmt 1 discriminator 2
 250              		.loc 1 57 46 is_stmt 0 discriminator 2
 251 0204 9305A000 		li	a1,10
 252 0208 17050000 		lla	a0,.LC14
 252      13050500 
 253              	.LVL29:
 254 0210 97000000 		call	_Z5printPKcc
 254      E7800000 
 255              	.LVL30:
 256              	.L11:
  58:src/cpp/main.cpp **** 
  59:src/cpp/main.cpp ****     uint64* idleThreadStack = (uint64*)kmalloc(DEFAULT_STACK_SIZE);
 257              		.loc 1 59 5 is_stmt 1
 258              		.loc 1 59 47 is_stmt 0
 259 0218 37150000 		li	a0,4096
 260 021c 97000000 		call	_Z7kmallocm
 260      E7800000 
 261              	.LVL31:
 262 0224 93040500 		mv	s1,a0
 263              	.LVL32:
  60:src/cpp/main.cpp ****     idleThread = TCB::createThread(idleFunction, nullptr, idleThreadStack);
 264              		.loc 1 60 5 is_stmt 1
 265              		.loc 1 60 35 is_stmt 0
 266 0228 13060500 		mv	a2,a0
 267 022c 93050000 		li	a1,0
 268 0230 17050000 		lla	a0,_Z12idleFunctionPv
 268      13050500 
 269 0238 97000000 		call	_ZN3TCB12createThreadEPFvPvES0_Pm
 269      E7800000 
 270              	.LVL33:
GAS LISTING /tmp/ccjfCtIn.s 			page 10


  61:src/cpp/main.cpp ****     if(idleThread && idleThreadStack)  print("Idle thread created");
 271              		.loc 1 61 5 is_stmt 1
 272 0240 630E0500 		beq	a0,zero,.L12
 273              		.loc 1 61 19 is_stmt 0 discriminator 1
 274 0244 638C0400 		beq	s1,zero,.L12
 275              		.loc 1 61 40 is_stmt 1 discriminator 2
 276              		.loc 1 61 45 is_stmt 0 discriminator 2
 277 0248 9305A000 		li	a1,10
 278 024c 17050000 		lla	a0,.LC15
 278      13050500 
 279              	.LVL34:
 280 0254 97000000 		call	_Z5printPKcc
 280      E7800000 
 281              	.LVL35:
 282              	.L12:
  62:src/cpp/main.cpp **** 
  63:src/cpp/main.cpp ****     print("Scheduler queue", ' ');
 283              		.loc 1 63 5 is_stmt 1
 284              		.loc 1 63 10 is_stmt 0
 285 025c 93050002 		li	a1,32
 286 0260 17050000 		lla	a0,.LC16
 286      13050500 
 287 0268 97000000 		call	_Z5printPKcc
 287      E7800000 
 288              	.LVL36:
  64:src/cpp/main.cpp ****     Scheduler::print_queue();
 289              		.loc 1 64 5 is_stmt 1
 290              		.loc 1 64 27 is_stmt 0
 291 0270 97000000 		call	_ZN9Scheduler11print_queueEv
 291      E7800000 
 292              	.LVL37:
  65:src/cpp/main.cpp ****     print("-------------------------------\n\n");
 293              		.loc 1 65 5 is_stmt 1
 294              		.loc 1 65 10 is_stmt 0
 295 0278 9305A000 		li	a1,10
 296 027c 17050000 		lla	a0,.LC5
 296      13050500 
 297 0284 97000000 		call	_Z5printPKcc
 297      E7800000 
 298              	.LVL38:
 299              	.L14:
  66:src/cpp/main.cpp ****     //Riscv::ms_sstatus(Riscv::SSTATUS_SIE);
  67:src/cpp/main.cpp ****     while (!userMainThread->isFinished())
 300              		.loc 1 67 5 is_stmt 1
 301              	.LBB17:
 302              	.LBB18:
 303              		.file 4 "src/cpp/../../h/tcb.hpp"
   1:src/cpp/../../h/tcb.hpp **** #ifndef __tcb__h
   2:src/cpp/../../h/tcb.hpp **** #define __tcb__h
   3:src/cpp/../../h/tcb.hpp **** 
   4:src/cpp/../../h/tcb.hpp **** #include"../h/memory_allocator.hpp"
   5:src/cpp/../../h/tcb.hpp **** 
   6:src/cpp/../../h/tcb.hpp **** class KSemaphore;
   7:src/cpp/../../h/tcb.hpp **** 
   8:src/cpp/../../h/tcb.hpp **** class TCB{
   9:src/cpp/../../h/tcb.hpp ****     
  10:src/cpp/../../h/tcb.hpp **** public:
GAS LISTING /tmp/ccjfCtIn.s 			page 11


  11:src/cpp/../../h/tcb.hpp ****     //alokacija
  12:src/cpp/../../h/tcb.hpp ****     #include"../h/kernel_operators.hpp"
  13:src/cpp/../../h/tcb.hpp ****     
  14:src/cpp/../../h/tcb.hpp ****     using Body = void (*)(void*);
  15:src/cpp/../../h/tcb.hpp ****     enum TCBState{
  16:src/cpp/../../h/tcb.hpp ****         BLOCKED,
  17:src/cpp/../../h/tcb.hpp ****         READY,
  18:src/cpp/../../h/tcb.hpp ****         FINISHED,
  19:src/cpp/../../h/tcb.hpp ****         SLEEPING
  20:src/cpp/../../h/tcb.hpp ****     };
  21:src/cpp/../../h/tcb.hpp ****     
  22:src/cpp/../../h/tcb.hpp ****     ~TCB(){ 
  23:src/cpp/../../h/tcb.hpp ****         MemoryAllocator& allocator = MemoryAllocator::getInstance(); 
  24:src/cpp/../../h/tcb.hpp ****         if(!allocator.invalidFreeAddress(this))
  25:src/cpp/../../h/tcb.hpp ****             allocator.mem_free(stack);
  26:src/cpp/../../h/tcb.hpp ****     }
  27:src/cpp/../../h/tcb.hpp ****     
  28:src/cpp/../../h/tcb.hpp ****     //nestaticki metodi
  29:src/cpp/../../h/tcb.hpp ****     void setState(TCBState s) {state = s;}
  30:src/cpp/../../h/tcb.hpp ****     TCBState getState() const{ return state; }
  31:src/cpp/../../h/tcb.hpp ****     void finish() { state = FINISHED; }
  32:src/cpp/../../h/tcb.hpp ****     bool isFinished(){ return state == FINISHED; }
 304              		.loc 4 32 24
 305              		.loc 4 32 31 is_stmt 0
 306 028c 03278903 		lw	a4,56(s2)
 307              	.LVL39:
 308              	.LBE18:
 309              	.LBE17:
 310              		.loc 1 67 12
 311 0290 93072000 		li	a5,2
 312 0294 630CF702 		beq	a4,a5,.L13
 313              	.LBB19:
  68:src/cpp/main.cpp ****     {
  69:src/cpp/main.cpp ****         //print("Kernel idle thread");
  70:src/cpp/main.cpp ****         uint64 sstatus = Riscv::r_sstatus();
 314              		.loc 1 70 9 is_stmt 1
 315              	.LBB20:
 316              	.LBB21:
 120:src/cpp/../../h/riscv.hpp **** 
 121:src/cpp/../../h/riscv.hpp **** inline uint64 Riscv::r_stvec(){
 122:src/cpp/../../h/riscv.hpp ****     uint64 volatile stvec;
 123:src/cpp/../../h/riscv.hpp ****     asm volatile("csrr %0, stvec" : "=r" (stvec));
 124:src/cpp/../../h/riscv.hpp ****     return stvec;
 125:src/cpp/../../h/riscv.hpp **** } 
 126:src/cpp/../../h/riscv.hpp **** 
 127:src/cpp/../../h/riscv.hpp **** inline void Riscv::w_stval(uint64 stval){
 128:src/cpp/../../h/riscv.hpp ****     asm volatile("csrw stval, %0" : : "r" (stval));
 129:src/cpp/../../h/riscv.hpp **** }
 130:src/cpp/../../h/riscv.hpp **** 
 131:src/cpp/../../h/riscv.hpp **** inline uint64 Riscv::r_stval(){
 132:src/cpp/../../h/riscv.hpp ****     uint64 volatile stval;
 133:src/cpp/../../h/riscv.hpp ****     asm volatile("csrr %0, stval" : "=r" (stval));
 134:src/cpp/../../h/riscv.hpp ****     return stval;
 135:src/cpp/../../h/riscv.hpp **** } 
 136:src/cpp/../../h/riscv.hpp **** 
 137:src/cpp/../../h/riscv.hpp **** inline void Riscv::ms_sip(uint64 mask){
 138:src/cpp/../../h/riscv.hpp ****     asm volatile ("csrs sip, %0" : : "r" (mask));
GAS LISTING /tmp/ccjfCtIn.s 			page 12


 139:src/cpp/../../h/riscv.hpp **** }
 140:src/cpp/../../h/riscv.hpp **** 
 141:src/cpp/../../h/riscv.hpp **** inline void Riscv::mc_sip(uint64 mask){
 142:src/cpp/../../h/riscv.hpp ****     asm volatile ("csrc sip, %0" : : "r" (mask));
 143:src/cpp/../../h/riscv.hpp **** }
 144:src/cpp/../../h/riscv.hpp **** 
 145:src/cpp/../../h/riscv.hpp **** inline void Riscv::w_sip(uint64 sip){
 146:src/cpp/../../h/riscv.hpp ****     asm volatile("csrw sip, %0" : : "r" (sip));
 147:src/cpp/../../h/riscv.hpp **** }
 148:src/cpp/../../h/riscv.hpp **** 
 149:src/cpp/../../h/riscv.hpp **** inline uint64 Riscv::r_sip(){
 150:src/cpp/../../h/riscv.hpp ****     uint64 volatile sip;
 151:src/cpp/../../h/riscv.hpp ****     asm volatile("csrr %0, sip" : "=r" (sip));
 152:src/cpp/../../h/riscv.hpp ****     return sip;
 153:src/cpp/../../h/riscv.hpp **** } 
 154:src/cpp/../../h/riscv.hpp **** 
 155:src/cpp/../../h/riscv.hpp **** inline void Riscv::ms_sstatus(uint64 mask){
 156:src/cpp/../../h/riscv.hpp ****     asm volatile ("csrs sstatus, %0" : : "r" (mask));
 157:src/cpp/../../h/riscv.hpp **** }
 158:src/cpp/../../h/riscv.hpp **** 
 159:src/cpp/../../h/riscv.hpp **** inline void Riscv::mc_sstatus(uint64 mask){
 160:src/cpp/../../h/riscv.hpp ****     asm volatile ("csrc sstatus, %0" : : "r" (mask));
 161:src/cpp/../../h/riscv.hpp **** }
 162:src/cpp/../../h/riscv.hpp **** 
 163:src/cpp/../../h/riscv.hpp **** inline void Riscv::w_sstatus(uint64 sstatus){
 164:src/cpp/../../h/riscv.hpp ****     asm volatile("csrw sstatus, %0" : : "r" (sstatus));
 165:src/cpp/../../h/riscv.hpp **** }
 166:src/cpp/../../h/riscv.hpp **** 
 167:src/cpp/../../h/riscv.hpp **** inline uint64 Riscv::r_sstatus(){
 168:src/cpp/../../h/riscv.hpp ****     uint64 volatile sstatus;
 317              		.loc 3 168 5
 169:src/cpp/../../h/riscv.hpp ****     asm volatile("csrr %0, sstatus" : "=r" (sstatus));
 318              		.loc 3 169 5
 319              		.loc 3 169 54 is_stmt 0
 320              	 #APP
 321              	# 169 "src/cpp/../../h/riscv.hpp" 1
 170              	    return sstatus;
 322              		csrr a5, sstatus
 323              	# 0 "" 2
 324              	 #NO_APP
 325 029c 233CF4FC 		sd	a5,-40(s0)
 326              		.loc 3 170 5 is_stmt 1
 327              		.loc 3 170 12 is_stmt 0
 328 02a0 833484FD 		ld	s1,-40(s0)
 329              	.LVL40:
 330              	.LBE21:
 331              	.LBE20:
  71:src/cpp/main.cpp ****         TCB::yield();
 332              		.loc 1 71 9 is_stmt 1
 333              		.loc 1 71 19 is_stmt 0
 334 02a4 97000000 		call	_ZN3TCB5yieldEv
 334      E7800000 
 335              	.LVL41:
  72:src/cpp/main.cpp ****         Riscv::w_sstatus(sstatus);
 336              		.loc 1 72 9 is_stmt 1
 337              	.LBB22:
 338              	.LBB23:
GAS LISTING /tmp/ccjfCtIn.s 			page 13


 164:src/cpp/../../h/riscv.hpp **** }
 339              		.loc 3 164 5
 164:src/cpp/../../h/riscv.hpp **** }
 340              		.loc 3 164 55 is_stmt 0
 341              	 #APP
 342              	# 164 "src/cpp/../../h/riscv.hpp" 1
 343              		csrw sstatus, s1
 344              	# 0 "" 2
 345              	 #NO_APP
 346 02b0 6FF0DFFD 		j	.L14
 347              	.LVL42:
 348              	.L7:
 349              	.LBE23:
 350              	.LBE22:
 351              	.LBE19:
  41:src/cpp/main.cpp ****         return 0;
 352              		.loc 1 41 9 is_stmt 1
  41:src/cpp/main.cpp ****         return 0;
 353              		.loc 1 41 14 is_stmt 0
 354 02b4 9305A000 		li	a1,10
 355 02b8 17050000 		lla	a0,.LC12
 355      13050500 
 356              	.LVL43:
 357 02c0 97000000 		call	_Z5printPKcc
 357      E7800000 
 358              	.LVL44:
  42:src/cpp/main.cpp ****     }
 359              		.loc 1 42 9 is_stmt 1
  42:src/cpp/main.cpp ****     }
 360              		.loc 1 42 16 is_stmt 0
 361 02c8 6F008001 		j	.L10
 362              	.LVL45:
 363              	.L13:
  73:src/cpp/main.cpp ****     }
  74:src/cpp/main.cpp ****     //Riscv::ms_sstatus(Riscv::SSTATUS_SIE);
  75:src/cpp/main.cpp **** 
  76:src/cpp/main.cpp ****     print("Kernel kraj");
 364              		.loc 1 76 5 is_stmt 1
 365              		.loc 1 76 10 is_stmt 0
 366 02cc 9305A000 		li	a1,10
 367 02d0 17050000 		lla	a0,.LC17
 367      13050500 
 368 02d8 97000000 		call	_Z5printPKcc
 368      E7800000 
 369              	.LVL46:
  77:src/cpp/main.cpp ****     return 0;
 370              		.loc 1 77 5 is_stmt 1
 371              	.L10:
  78:src/cpp/main.cpp **** }   ...
 372              		.loc 1 78 1 is_stmt 0
 373 02e0 13050000 		li	a0,0
 374 02e4 83308102 		ld	ra,40(sp)
 375              		.cfi_restore 1
 376 02e8 03340102 		ld	s0,32(sp)
 377              		.cfi_restore 8
 378              		.cfi_def_cfa 2, 48
 379 02ec 83348101 		ld	s1,24(sp)
GAS LISTING /tmp/ccjfCtIn.s 			page 14


 380              		.cfi_restore 9
 381 02f0 03390101 		ld	s2,16(sp)
 382              		.cfi_restore 18
 383 02f4 13010103 		addi	sp,sp,48
 384              		.cfi_def_cfa_offset 0
 385 02f8 67800000 		jr	ra
 386              		.cfi_endproc
 387              	.LFE70:
 389              		.section	.rodata.str1.8,"aMS",@progbits,1
 390              		.align	3
 391              	.LC0:
 392 0000 73697A65 		.string	"sizeof(TCB): "
 392      6F662854 
 392      4342293A 
 392      2000
 393 000e 0000     		.zero	2
 394              	.LC1:
 395 0010 44454641 		.string	"DEFAULT_STACK_SIZE_BLOCKS: "
 395      554C545F 
 395      53544143 
 395      4B5F5349 
 395      5A455F42 
 396 002c 00000000 		.zero	4
 397              	.LC2:
 398 0030 44454641 		.string	"DEFAULT_TIME_SLICE: "
 398      554C545F 
 398      54494D45 
 398      5F534C49 
 398      43453A20 
 399 0045 000000   		.zero	3
 400              	.LC3:
 401 0048 48454150 		.string	"HEAP_START_ADDR"
 401      5F535441 
 401      52545F41 
 401      44445200 
 402              	.LC4:
 403 0058 48454150 		.string	"HEAP_END_ADDR"
 403      5F454E44 
 403      5F414444 
 403      5200
 404 0066 0000     		.zero	2
 405              	.LC5:
 406 0068 2D2D2D2D 		.string	"-------------------------------\n\n"
 406      2D2D2D2D 
 406      2D2D2D2D 
 406      2D2D2D2D 
 406      2D2D2D2D 
 407 008a 00000000 		.zero	6
 407      0000
 408              	.LC6:
 409 0090 6B65726E 		.string	"kernelInit\n-------------------------------"
 409      656C496E 
 409      69740A2D 
 409      2D2D2D2D 
 409      2D2D2D2D 
 410 00bb 00000000 		.zero	5
 410      00
GAS LISTING /tmp/ccjfCtIn.s 			page 15


 411              	.LC7:
 412 00c0 53636865 		.string	"Scheduler initalized"
 412      64756C65 
 412      7220696E 
 412      6974616C 
 412      697A6564 
 413 00d5 000000   		.zero	3
 414              	.LC8:
 415 00d8 53746449 		.string	"StdIO initalized"
 415      4F20696E 
 415      6974616C 
 415      697A6564 
 415      00
 416 00e9 00000000 		.zero	7
 416      000000
 417              	.LC9:
 418 00f0 416C6C6F 		.string	"Allocator initalized"
 418      6361746F 
 418      7220696E 
 418      6974616C 
 418      697A6564 
 419 0105 000000   		.zero	3
 420              	.LC10:
 421 0108 73747665 		.string	"stvec initalized"
 421      6320696E 
 421      6974616C 
 421      697A6564 
 421      00
 422 0119 00000000 		.zero	7
 422      000000
 423              	.LC11:
 424 0120 54687265 		.string	"Thread making..."
 424      6164206D 
 424      616B696E 
 424      672E2E2E 
 424      00
 425 0131 00000000 		.zero	7
 425      000000
 426              	.LC12:
 427 0138 4552524F 		.string	"ERROR: allocator not initalized"
 427      523A2061 
 427      6C6C6F63 
 427      61746F72 
 427      206E6F74 
 428              	.LC13:
 429 0158 4B65726E 		.string	"KernelThread created"
 429      656C5468 
 429      72656164 
 429      20637265 
 429      61746564 
 430 016d 000000   		.zero	3
 431              	.LC14:
 432 0170 55736572 		.string	"UserMain thread created"
 432      4D61696E 
 432      20746872 
 432      65616420 
 432      63726561 
GAS LISTING /tmp/ccjfCtIn.s 			page 16


 433              	.LC15:
 434 0188 49646C65 		.string	"Idle thread created"
 434      20746872 
 434      65616420 
 434      63726561 
 434      74656400 
 435 019c 00000000 		.zero	4
 436              	.LC16:
 437 01a0 53636865 		.string	"Scheduler queue"
 437      64756C65 
 437      72207175 
 437      65756500 
 438              	.LC17:
 439 01b0 4B65726E 		.string	"Kernel kraj"
 439      656C206B 
 439      72616A00 
 440              		.text
 441              	.Letext0:
 442              		.file 5 "src/cpp/../../h/../h/../lib/hw.h"
 443              		.file 6 "src/cpp/../../h/../h/kernel_operators.hpp"
 444              		.file 7 "src/cpp/../../h/../h/../h/ksemaphore.hpp"
 445              		.file 8 "src/cpp/../../h/../h/../h/../h/kernel_operators.hpp"
 446              		.file 9 "src/cpp/../../h/../h/ptr_queue.hpp"
 447              		.file 10 "src/cpp/../../h/../h/../h/kernel_operators.hpp"
 448              		.file 11 "src/cpp/../../h/scheduler.hpp"
 449              		.file 12 "src/cpp/../../h/stdio.hpp"
 450              		.file 13 "src/cpp/../../h/testing.hpp"
 451              		.file 14 "src/cpp/../../h/syscall_c.h"
GAS LISTING /tmp/ccjfCtIn.s 			page 17


DEFINED SYMBOLS
                            *ABS*:0000000000000000 main.cpp
     /tmp/ccjfCtIn.s:12     .text:0000000000000000 _Z15userMainWrapperPv
     /tmp/ccjfCtIn.s:16     .text:0000000000000000 .L0 
     /tmp/ccjfCtIn.s:17     .text:0000000000000000 .L0 
     /tmp/ccjfCtIn.s:18     .text:0000000000000004 .L0 
     /tmp/ccjfCtIn.s:21     .text:000000000000000c .L0 
     /tmp/ccjfCtIn.s:22     .text:000000000000000c .L0 
     /tmp/ccjfCtIn.s:24     .text:0000000000000010 .L0 
     /tmp/ccjfCtIn.s:26     .text:0000000000000010 .L0 
     /tmp/ccjfCtIn.s:27     .text:0000000000000010 .L0 
     /tmp/ccjfCtIn.s:30     .text:0000000000000018 .L0 
     /tmp/ccjfCtIn.s:31     .text:000000000000001c .L0 
     /tmp/ccjfCtIn.s:33     .text:0000000000000020 .L0 
     /tmp/ccjfCtIn.s:34     .text:0000000000000020 .L0 
     /tmp/ccjfCtIn.s:36     .text:0000000000000024 .L0 
     /tmp/ccjfCtIn.s:38     .text:0000000000000028 .L0 
     /tmp/ccjfCtIn.s:44     .text:0000000000000028 _Z12idleFunctionPv
     /tmp/ccjfCtIn.s:47     .text:0000000000000028 .L0 
     /tmp/ccjfCtIn.s:48     .text:0000000000000028 .L0 
     /tmp/ccjfCtIn.s:49     .text:000000000000002c .L0 
     /tmp/ccjfCtIn.s:52     .text:0000000000000034 .L0 
     /tmp/ccjfCtIn.s:53     .text:0000000000000034 .L0 
     /tmp/ccjfCtIn.s:55     .text:0000000000000038 .L0 
     /tmp/ccjfCtIn.s:58     .text:0000000000000038 .L0 
     /tmp/ccjfCtIn.s:59     .text:0000000000000038 .L0 
     /tmp/ccjfCtIn.s:60     .text:0000000000000038 .L0 
     /tmp/ccjfCtIn.s:63     .text:0000000000000044 .L0 
     /tmp/ccjfCtIn.s:69     .text:0000000000000044 main
     /tmp/ccjfCtIn.s:72     .text:0000000000000044 .L0 
     /tmp/ccjfCtIn.s:73     .text:0000000000000044 .L0 
     /tmp/ccjfCtIn.s:74     .text:0000000000000048 .L0 
     /tmp/ccjfCtIn.s:79     .text:0000000000000058 .L0 
     /tmp/ccjfCtIn.s:80     .text:0000000000000058 .L0 
     /tmp/ccjfCtIn.s:81     .text:0000000000000058 .L0 
     /tmp/ccjfCtIn.s:82     .text:0000000000000058 .L0 
     /tmp/ccjfCtIn.s:84     .text:000000000000005c .L0 
     /tmp/ccjfCtIn.s:87     .text:000000000000005c .L0 
     /tmp/ccjfCtIn.s:88     .text:000000000000005c .L0 
     /tmp/ccjfCtIn.s:89     .text:000000000000005c .L0 
     /tmp/ccjfCtIn.s:95     .text:0000000000000074 .L0 
     /tmp/ccjfCtIn.s:96     .text:0000000000000074 .L0 
     /tmp/ccjfCtIn.s:102    .text:000000000000008c .L0 
     /tmp/ccjfCtIn.s:103    .text:000000000000008c .L0 
     /tmp/ccjfCtIn.s:109    .text:00000000000000a4 .L0 
     /tmp/ccjfCtIn.s:110    .text:00000000000000a4 .L0 
     /tmp/ccjfCtIn.s:117    .text:00000000000000c4 .L0 
     /tmp/ccjfCtIn.s:118    .text:00000000000000c4 .L0 
     /tmp/ccjfCtIn.s:125    .text:00000000000000e4 .L0 
     /tmp/ccjfCtIn.s:126    .text:00000000000000e4 .L0 
     /tmp/ccjfCtIn.s:131    .text:00000000000000f8 .L0 
     /tmp/ccjfCtIn.s:132    .text:00000000000000f8 .L0 
     /tmp/ccjfCtIn.s:137    .text:000000000000010c .L0 
     /tmp/ccjfCtIn.s:138    .text:000000000000010c .L0 
     /tmp/ccjfCtIn.s:141    .text:0000000000000114 .L0 
     /tmp/ccjfCtIn.s:142    .text:0000000000000114 .L0 
     /tmp/ccjfCtIn.s:147    .text:0000000000000128 .L0 
GAS LISTING /tmp/ccjfCtIn.s 			page 18


     /tmp/ccjfCtIn.s:148    .text:0000000000000128 .L0 
     /tmp/ccjfCtIn.s:151    .text:0000000000000130 .L0 
     /tmp/ccjfCtIn.s:152    .text:0000000000000130 .L0 
     /tmp/ccjfCtIn.s:157    .text:0000000000000144 .L0 
     /tmp/ccjfCtIn.s:158    .text:0000000000000144 .L0 
     /tmp/ccjfCtIn.s:164    .text:000000000000014c .L0 
     /tmp/ccjfCtIn.s:165    .text:000000000000014c .L0 
     /tmp/ccjfCtIn.s:166    .text:000000000000014c .L0 
     /tmp/ccjfCtIn.s:171    .text:0000000000000150 .L0 
     /tmp/ccjfCtIn.s:173    .text:0000000000000154 .L0 
     /tmp/ccjfCtIn.s:174    .text:0000000000000154 .L0 
     /tmp/ccjfCtIn.s:180    .text:0000000000000168 .L0 
     /tmp/ccjfCtIn.s:181    .text:0000000000000168 .L0 
     /tmp/ccjfCtIn.s:187    .text:0000000000000170 .L0 
src/cpp/../../h/riscv.hpp:118    .text:0000000000000170 .L0 
     /tmp/ccjfCtIn.s:197    .text:0000000000000174 .L0 
     /tmp/ccjfCtIn.s:198    .text:0000000000000174 .L0 
     /tmp/ccjfCtIn.s:203    .text:0000000000000188 .L0 
     /tmp/ccjfCtIn.s:204    .text:0000000000000188 .L0 
     /tmp/ccjfCtIn.s:205    .text:0000000000000188 .L0 
     /tmp/ccjfCtIn.s:210    .text:000000000000019c .L0 
     /tmp/ccjfCtIn.s:211    .text:000000000000019c .L0 
     /tmp/ccjfCtIn.s:217    .text:00000000000001b0 .L0 
     /tmp/ccjfCtIn.s:218    .text:00000000000001b0 .L0 
     /tmp/ccjfCtIn.s:220    .text:00000000000001b8 .L0 
     /tmp/ccjfCtIn.s:222    .text:00000000000001bc .L0 
     /tmp/ccjfCtIn.s:223    .text:00000000000001bc .L0 
     /tmp/ccjfCtIn.s:230    .text:00000000000001d0 .L0 
     /tmp/ccjfCtIn.s:231    .text:00000000000001d0 .L0 
     /tmp/ccjfCtIn.s:237    .text:00000000000001e0 .L0 
     /tmp/ccjfCtIn.s:238    .text:00000000000001e0 .L0 
     /tmp/ccjfCtIn.s:246    .text:00000000000001fc .L0 
     /tmp/ccjfCtIn.s:248    .text:0000000000000200 .L0 
     /tmp/ccjfCtIn.s:250    .text:0000000000000204 .L0 
     /tmp/ccjfCtIn.s:251    .text:0000000000000204 .L0 
     /tmp/ccjfCtIn.s:258    .text:0000000000000218 .L0 
     /tmp/ccjfCtIn.s:259    .text:0000000000000218 .L0 
     /tmp/ccjfCtIn.s:265    .text:0000000000000228 .L0 
     /tmp/ccjfCtIn.s:266    .text:0000000000000228 .L0 
     /tmp/ccjfCtIn.s:272    .text:0000000000000240 .L0 
     /tmp/ccjfCtIn.s:274    .text:0000000000000244 .L0 
     /tmp/ccjfCtIn.s:276    .text:0000000000000248 .L0 
     /tmp/ccjfCtIn.s:277    .text:0000000000000248 .L0 
     /tmp/ccjfCtIn.s:284    .text:000000000000025c .L0 
     /tmp/ccjfCtIn.s:285    .text:000000000000025c .L0 
     /tmp/ccjfCtIn.s:290    .text:0000000000000270 .L0 
     /tmp/ccjfCtIn.s:291    .text:0000000000000270 .L0 
     /tmp/ccjfCtIn.s:294    .text:0000000000000278 .L0 
     /tmp/ccjfCtIn.s:295    .text:0000000000000278 .L0 
     /tmp/ccjfCtIn.s:304    .text:000000000000028c .L0 
     /tmp/ccjfCtIn.s:305    .text:000000000000028c .L0 
     /tmp/ccjfCtIn.s:306    .text:000000000000028c .L0 
     /tmp/ccjfCtIn.s:311    .text:0000000000000290 .L0 
     /tmp/ccjfCtIn.s:317    .text:0000000000000298 .L0 
     /tmp/ccjfCtIn.s:318    .text:0000000000000298 .L0 
     /tmp/ccjfCtIn.s:319    .text:0000000000000298 .L0 
src/cpp/../../h/riscv.hpp:169    .text:0000000000000298 .L0 
GAS LISTING /tmp/ccjfCtIn.s 			page 19


     /tmp/ccjfCtIn.s:327    .text:00000000000002a0 .L0 
     /tmp/ccjfCtIn.s:328    .text:00000000000002a0 .L0 
     /tmp/ccjfCtIn.s:333    .text:00000000000002a4 .L0 
     /tmp/ccjfCtIn.s:334    .text:00000000000002a4 .L0 
     /tmp/ccjfCtIn.s:339    .text:00000000000002ac .L0 
     /tmp/ccjfCtIn.s:340    .text:00000000000002ac .L0 
src/cpp/../../h/riscv.hpp:164    .text:00000000000002ac .L0 
     /tmp/ccjfCtIn.s:353    .text:00000000000002b4 .L0 
     /tmp/ccjfCtIn.s:354    .text:00000000000002b4 .L0 
     /tmp/ccjfCtIn.s:360    .text:00000000000002c8 .L0 
     /tmp/ccjfCtIn.s:361    .text:00000000000002c8 .L0 
     /tmp/ccjfCtIn.s:365    .text:00000000000002cc .L0 
     /tmp/ccjfCtIn.s:366    .text:00000000000002cc .L0 
     /tmp/ccjfCtIn.s:372    .text:00000000000002e0 .L0 
     /tmp/ccjfCtIn.s:373    .text:00000000000002e0 .L0 
     /tmp/ccjfCtIn.s:375    .text:00000000000002e8 .L0 
     /tmp/ccjfCtIn.s:377    .text:00000000000002ec .L0 
     /tmp/ccjfCtIn.s:378    .text:00000000000002ec .L0 
     /tmp/ccjfCtIn.s:380    .text:00000000000002f0 .L0 
     /tmp/ccjfCtIn.s:382    .text:00000000000002f4 .L0 
     /tmp/ccjfCtIn.s:384    .text:00000000000002f8 .L0 
     /tmp/ccjfCtIn.s:386    .text:00000000000002fc .L0 
     /tmp/ccjfCtIn.s:452    .text:00000000000002fc .L0 
     /tmp/ccjfCtIn.s:391    .rodata.str1.8:0000000000000000 .LC0
     /tmp/ccjfCtIn.s:91     .text:0000000000000064 .L0 
     /tmp/ccjfCtIn.s:394    .rodata.str1.8:0000000000000010 .LC1
     /tmp/ccjfCtIn.s:98     .text:000000000000007c .L0 
     /tmp/ccjfCtIn.s:397    .rodata.str1.8:0000000000000030 .LC2
     /tmp/ccjfCtIn.s:105    .text:0000000000000094 .L0 
     /tmp/ccjfCtIn.s:111    .text:00000000000000a8 .L0 
     /tmp/ccjfCtIn.s:400    .rodata.str1.8:0000000000000048 .LC3
     /tmp/ccjfCtIn.s:113    .text:00000000000000b4 .L0 
     /tmp/ccjfCtIn.s:119    .text:00000000000000c8 .L0 
     /tmp/ccjfCtIn.s:402    .rodata.str1.8:0000000000000058 .LC4
     /tmp/ccjfCtIn.s:121    .text:00000000000000d4 .L0 
     /tmp/ccjfCtIn.s:405    .rodata.str1.8:0000000000000068 .LC5
     /tmp/ccjfCtIn.s:127    .text:00000000000000e8 .L0 
     /tmp/ccjfCtIn.s:408    .rodata.str1.8:0000000000000090 .LC6
     /tmp/ccjfCtIn.s:133    .text:00000000000000fc .L0 
     /tmp/ccjfCtIn.s:411    .rodata.str1.8:00000000000000c0 .LC7
     /tmp/ccjfCtIn.s:143    .text:0000000000000118 .L0 
     /tmp/ccjfCtIn.s:414    .rodata.str1.8:00000000000000d8 .LC8
     /tmp/ccjfCtIn.s:153    .text:0000000000000134 .L0 
     /tmp/ccjfCtIn.s:417    .rodata.str1.8:00000000000000f0 .LC9
     /tmp/ccjfCtIn.s:175    .text:0000000000000158 .L0 
     /tmp/ccjfCtIn.s:181    .text:0000000000000168 .L0 
     /tmp/ccjfCtIn.s:420    .rodata.str1.8:0000000000000108 .LC10
     /tmp/ccjfCtIn.s:199    .text:0000000000000178 .L0 
     /tmp/ccjfCtIn.s:423    .rodata.str1.8:0000000000000120 .LC11
     /tmp/ccjfCtIn.s:206    .text:000000000000018c .L0 
     /tmp/ccjfCtIn.s:218    .text:00000000000001b0 .L0 
     /tmp/ccjfCtIn.s:428    .rodata.str1.8:0000000000000158 .LC13
     /tmp/ccjfCtIn.s:224    .text:00000000000001c0 .L0 
     /tmp/ccjfCtIn.s:240    .text:00000000000001e8 .L0 
     /tmp/ccjfCtIn.s:431    .rodata.str1.8:0000000000000170 .LC14
     /tmp/ccjfCtIn.s:252    .text:0000000000000208 .L0 
     /tmp/ccjfCtIn.s:268    .text:0000000000000230 .L0 
GAS LISTING /tmp/ccjfCtIn.s 			page 20


     /tmp/ccjfCtIn.s:433    .rodata.str1.8:0000000000000188 .LC15
     /tmp/ccjfCtIn.s:278    .text:000000000000024c .L0 
     /tmp/ccjfCtIn.s:436    .rodata.str1.8:00000000000001a0 .LC16
     /tmp/ccjfCtIn.s:286    .text:0000000000000260 .L0 
     /tmp/ccjfCtIn.s:296    .text:000000000000027c .L0 
     /tmp/ccjfCtIn.s:426    .rodata.str1.8:0000000000000138 .LC12
     /tmp/ccjfCtIn.s:355    .text:00000000000002b8 .L0 
     /tmp/ccjfCtIn.s:438    .rodata.str1.8:00000000000001b0 .LC17
     /tmp/ccjfCtIn.s:367    .text:00000000000002d0 .L0 
     /tmp/ccjfCtIn.s:56     .text:0000000000000038 .L4
     /tmp/ccjfCtIn.s:348    .text:00000000000002b4 .L7
     /tmp/ccjfCtIn.s:228    .text:00000000000001d0 .L9
     /tmp/ccjfCtIn.s:256    .text:0000000000000218 .L11
     /tmp/ccjfCtIn.s:282    .text:000000000000025c .L12
     /tmp/ccjfCtIn.s:363    .text:00000000000002cc .L13
     /tmp/ccjfCtIn.s:299    .text:000000000000028c .L14
     /tmp/ccjfCtIn.s:371    .text:00000000000002e0 .L10
     /tmp/ccjfCtIn.s:2771   .debug_abbrev:0000000000000000 .Ldebug_abbrev0
     /tmp/ccjfCtIn.s:4228   .debug_str:000000000000064e .LASF255
     /tmp/ccjfCtIn.s:4218   .debug_str:00000000000005fd .LASF256
     /tmp/ccjfCtIn.s:4462   .debug_str:0000000000000ddd .LASF257
     /tmp/ccjfCtIn.s:8      .text:0000000000000000 .Ltext0
     /tmp/ccjfCtIn.s:441    .text:00000000000002fc .Letext0
     /tmp/ccjfCtIn.s:4024   .debug_line:0000000000000000 .Ldebug_line0
     /tmp/ccjfCtIn.s:4198   .debug_str:0000000000000574 .LASF0
     /tmp/ccjfCtIn.s:4242   .debug_str:0000000000000754 .LASF1
     /tmp/ccjfCtIn.s:4362   .debug_str:0000000000000ae8 .LASF2
     /tmp/ccjfCtIn.s:4376   .debug_str:0000000000000b62 .LASF4
     /tmp/ccjfCtIn.s:4216   .debug_str:00000000000005eb .LASF3
     /tmp/ccjfCtIn.s:4042   .debug_str:000000000000008b .LASF5
     /tmp/ccjfCtIn.s:4332   .debug_str:0000000000000a1c .LASF6
     /tmp/ccjfCtIn.s:4322   .debug_str:00000000000009d8 .LASF7
     /tmp/ccjfCtIn.s:4232   .debug_str:0000000000000718 .LASF8
     /tmp/ccjfCtIn.s:4162   .debug_str:0000000000000447 .LASF9
     /tmp/ccjfCtIn.s:4174   .debug_str:00000000000004a3 .LASF10
     /tmp/ccjfCtIn.s:4086   .debug_str:00000000000001e9 .LASF11
     /tmp/ccjfCtIn.s:4150   .debug_str:000000000000040e .LASF12
     /tmp/ccjfCtIn.s:4102   .debug_str:0000000000000253 .LASF13
     /tmp/ccjfCtIn.s:4084   .debug_str:00000000000001d9 .LASF14
     /tmp/ccjfCtIn.s:4424   .debug_str:0000000000000cad .LASF15
     /tmp/ccjfCtIn.s:4132   .debug_str:000000000000034f .LASF16
     /tmp/ccjfCtIn.s:4408   .debug_str:0000000000000c2a .LASF17
     /tmp/ccjfCtIn.s:4160   .debug_str:000000000000043b .LASF258
     /tmp/ccjfCtIn.s:4088   .debug_str:00000000000001f8 .LASF18
     /tmp/ccjfCtIn.s:4240   .debug_str:000000000000074f .LASF19
     /tmp/ccjfCtIn.s:4316   .debug_str:00000000000009ad .LASF22
     /tmp/ccjfCtIn.s:4066   .debug_str:000000000000015f .LASF20
     /tmp/ccjfCtIn.s:4404   .debug_str:0000000000000c0d .LASF21
     /tmp/ccjfCtIn.s:4482   .debug_str:0000000000000e94 .LASF143
     /tmp/ccjfCtIn.s:4060   .debug_str:000000000000011a .LASF24
     /tmp/ccjfCtIn.s:4212   .debug_str:00000000000005c9 .LASF23
     /tmp/ccjfCtIn.s:4446   .debug_str:0000000000000d4d .LASF25
     /tmp/ccjfCtIn.s:4522   .debug_str:0000000000000f93 .LASF26
     /tmp/ccjfCtIn.s:4050   .debug_str:00000000000000c7 .LASF27
     /tmp/ccjfCtIn.s:4222   .debug_str:000000000000061f .LASF28
     /tmp/ccjfCtIn.s:4506   .debug_str:0000000000000f59 .LASF29
     /tmp/ccjfCtIn.s:4538   .debug_str:0000000000001018 .LASF31
GAS LISTING /tmp/ccjfCtIn.s 			page 21


     /tmp/ccjfCtIn.s:4366   .debug_str:0000000000000b03 .LASF30
     /tmp/ccjfCtIn.s:4484   .debug_str:0000000000000e9e .LASF32
     /tmp/ccjfCtIn.s:4140   .debug_str:00000000000003a9 .LASF33
     /tmp/ccjfCtIn.s:4186   .debug_str:00000000000004fb .LASF34
     /tmp/ccjfCtIn.s:4524   .debug_str:0000000000000fa6 .LASF45
     /tmp/ccjfCtIn.s:4286   .debug_str:00000000000008bc .LASF47
     /tmp/ccjfCtIn.s:4284   .debug_str:00000000000008b2 .LASF35
     /tmp/ccjfCtIn.s:4046   .debug_str:000000000000009d .LASF36
     /tmp/ccjfCtIn.s:4434   .debug_str:0000000000000d0a .LASF37
     /tmp/ccjfCtIn.s:4146   .debug_str:00000000000003dc .LASF38
     /tmp/ccjfCtIn.s:4512   .debug_str:0000000000000f71 .LASF41
     /tmp/ccjfCtIn.s:4116   .debug_str:00000000000002e7 .LASF43
     /tmp/ccjfCtIn.s:4264   .debug_str:0000000000000805 .LASF39
     /tmp/ccjfCtIn.s:4502   .debug_str:0000000000000f49 .LASF40
     /tmp/ccjfCtIn.s:4358   .debug_str:0000000000000ad4 .LASF42
     /tmp/ccjfCtIn.s:4308   .debug_str:0000000000000967 .LASF44
     /tmp/ccjfCtIn.s:4478   .debug_str:0000000000000e85 .LASF46
     /tmp/ccjfCtIn.s:4474   .debug_str:0000000000000e67 .LASF48
     /tmp/ccjfCtIn.s:4296   .debug_str:000000000000091a .LASF49
     /tmp/ccjfCtIn.s:4236   .debug_str:0000000000000733 .LASF50
     /tmp/ccjfCtIn.s:4338   .debug_str:0000000000000a39 .LASF51
     /tmp/ccjfCtIn.s:4342   .debug_str:0000000000000a46 .LASF52
     /tmp/ccjfCtIn.s:4054   .debug_str:0000000000000101 .LASF89
     /tmp/ccjfCtIn.s:4320   .debug_str:00000000000009c4 .LASF91
     /tmp/ccjfCtIn.s:4292   .debug_str:000000000000090d .LASF53
     /tmp/ccjfCtIn.s:4306   .debug_str:0000000000000953 .LASF54
     /tmp/ccjfCtIn.s:4520   .debug_str:0000000000000f8b .LASF55
     /tmp/ccjfCtIn.s:4456   .debug_str:0000000000000dba .LASF56
     /tmp/ccjfCtIn.s:4554   .debug_str:00000000000010a8 .LASF57
     /tmp/ccjfCtIn.s:4208   .debug_str:00000000000005ad .LASF58
     /tmp/ccjfCtIn.s:4256   .debug_str:00000000000007ca .LASF59
     /tmp/ccjfCtIn.s:4344   .debug_str:0000000000000a59 .LASF60
     /tmp/ccjfCtIn.s:4420   .debug_str:0000000000000c99 .LASF61
     /tmp/ccjfCtIn.s:4382   .debug_str:0000000000000b74 .LASF62
     /tmp/ccjfCtIn.s:4384   .debug_str:0000000000000b87 .LASF63
     /tmp/ccjfCtIn.s:4092   .debug_str:0000000000000203 .LASF64
     /tmp/ccjfCtIn.s:4206   .debug_str:00000000000005a7 .LASF65
     /tmp/ccjfCtIn.s:4114   .debug_str:00000000000002d5 .LASF66
     /tmp/ccjfCtIn.s:4126   .debug_str:0000000000000337 .LASF67
     /tmp/ccjfCtIn.s:4190   .debug_str:0000000000000536 .LASF68
     /tmp/ccjfCtIn.s:4044   .debug_str:0000000000000092 .LASF69
     /tmp/ccjfCtIn.s:4368   .debug_str:0000000000000b0d .LASF70
     /tmp/ccjfCtIn.s:4360   .debug_str:0000000000000add .LASF71
     /tmp/ccjfCtIn.s:4548   .debug_str:000000000000107c .LASF72
     /tmp/ccjfCtIn.s:4500   .debug_str:0000000000000f3f .LASF73
     /tmp/ccjfCtIn.s:4280   .debug_str:000000000000088e .LASF74
     /tmp/ccjfCtIn.s:4504   .debug_str:0000000000000f4f .LASF75
     /tmp/ccjfCtIn.s:4530   .debug_str:0000000000000fc9 .LASF76
     /tmp/ccjfCtIn.s:4510   .debug_str:0000000000000f6c .LASF77
     /tmp/ccjfCtIn.s:4312   .debug_str:0000000000000981 .LASF78
     /tmp/ccjfCtIn.s:4458   .debug_str:0000000000000dce .LASF79
     /tmp/ccjfCtIn.s:4536   .debug_str:0000000000001007 .LASF80
     /tmp/ccjfCtIn.s:4302   .debug_str:0000000000000941 .LASF81
     /tmp/ccjfCtIn.s:4220   .debug_str:000000000000060e .LASF82
     /tmp/ccjfCtIn.s:4514   .debug_str:0000000000000f7c .LASF83
     /tmp/ccjfCtIn.s:4076   .debug_str:000000000000019a .LASF84
     /tmp/ccjfCtIn.s:4516   .debug_str:0000000000000f81 .LASF85
GAS LISTING /tmp/ccjfCtIn.s 			page 22


     /tmp/ccjfCtIn.s:4556   .debug_str:00000000000010b0 .LASF86
     /tmp/ccjfCtIn.s:4518   .debug_str:0000000000000f86 .LASF87
     /tmp/ccjfCtIn.s:4468   .debug_str:0000000000000e46 .LASF88
     /tmp/ccjfCtIn.s:4204   .debug_str:000000000000059a .LASF90
     /tmp/ccjfCtIn.s:4490   .debug_str:0000000000000ee5 .LASF92
     /tmp/ccjfCtIn.s:4386   .debug_str:0000000000000b8e .LASF93
     /tmp/ccjfCtIn.s:4136   .debug_str:000000000000037e .LASF94
     /tmp/ccjfCtIn.s:4182   .debug_str:00000000000004db .LASF95
     /tmp/ccjfCtIn.s:4194   .debug_str:000000000000054f .LASF96
     /tmp/ccjfCtIn.s:4078   .debug_str:00000000000001ab .LASF97
     /tmp/ccjfCtIn.s:4350   .debug_str:0000000000000a8c .LASF98
     /tmp/ccjfCtIn.s:4052   .debug_str:00000000000000f3 .LASF99
     /tmp/ccjfCtIn.s:4268   .debug_str:000000000000081b .LASF100
     /tmp/ccjfCtIn.s:4452   .debug_str:0000000000000d98 .LASF259
     /tmp/ccjfCtIn.s:4030   .debug_str:000000000000002d .LASF101
     /tmp/ccjfCtIn.s:4080   .debug_str:00000000000001b6 .LASF102
     /tmp/ccjfCtIn.s:4072   .debug_str:0000000000000183 .LASF103
     /tmp/ccjfCtIn.s:4238   .debug_str:0000000000000746 .LASF104
     /tmp/ccjfCtIn.s:4094   .debug_str:0000000000000216 .LASF260
     /tmp/ccjfCtIn.s:4550   .debug_str:0000000000001094 .LASF105
     /tmp/ccjfCtIn.s:4170   .debug_str:0000000000000483 .LASF106
     /tmp/ccjfCtIn.s:4274   .debug_str:000000000000085c .LASF107
     /tmp/ccjfCtIn.s:4158   .debug_str:000000000000042f .LASF108
     /tmp/ccjfCtIn.s:4034   .debug_str:000000000000003a .LASF109
     /tmp/ccjfCtIn.s:4304   .debug_str:0000000000000946 .LASF110
     /tmp/ccjfCtIn.s:4406   .debug_str:0000000000000c17 .LASF111
     /tmp/ccjfCtIn.s:4364   .debug_str:0000000000000af6 .LASF112
     /tmp/ccjfCtIn.s:4378   .debug_str:0000000000000b69 .LASF113
     /tmp/ccjfCtIn.s:4038   .debug_str:0000000000000072 .LASF114
     /tmp/ccjfCtIn.s:4372   .debug_str:0000000000000b42 .LASF115
     /tmp/ccjfCtIn.s:4106   .debug_str:0000000000000281 .LASF116
     /tmp/ccjfCtIn.s:4390   .debug_str:0000000000000bad .LASF117
     /tmp/ccjfCtIn.s:4352   .debug_str:0000000000000aa4 .LASF118
     /tmp/ccjfCtIn.s:4110   .debug_str:00000000000002bb .LASF119
     /tmp/ccjfCtIn.s:4148   .debug_str:00000000000003fd .LASF120
     /tmp/ccjfCtIn.s:4436   .debug_str:0000000000000d13 .LASF121
     /tmp/ccjfCtIn.s:4430   .debug_str:0000000000000cc9 .LASF122
     /tmp/ccjfCtIn.s:4246   .debug_str:000000000000076d .LASF123
     /tmp/ccjfCtIn.s:4454   .debug_str:0000000000000da1 .LASF124
     /tmp/ccjfCtIn.s:4166   .debug_str:0000000000000467 .LASF125
     /tmp/ccjfCtIn.s:4374   .debug_str:0000000000000b4b .LASF126
     /tmp/ccjfCtIn.s:4282   .debug_str:00000000000008a4 .LASF127
     /tmp/ccjfCtIn.s:4288   .debug_str:00000000000008e0 .LASF128
     /tmp/ccjfCtIn.s:4138   .debug_str:0000000000000399 .LASF129
     /tmp/ccjfCtIn.s:4486   .debug_str:0000000000000eba .LASF130
     /tmp/ccjfCtIn.s:4422   .debug_str:0000000000000ca0 .LASF131
     /tmp/ccjfCtIn.s:4498   .debug_str:0000000000000f1d .LASF132
     /tmp/ccjfCtIn.s:4310   .debug_str:000000000000097c .LASF261
     /tmp/ccjfCtIn.s:4244   .debug_str:0000000000000767 .LASF133
     /tmp/ccjfCtIn.s:4356   .debug_str:0000000000000ac4 .LASF134
     /tmp/ccjfCtIn.s:4118   .debug_str:000000000000030a .LASF135
     /tmp/ccjfCtIn.s:4096   .debug_str:000000000000021e .LASF136
     /tmp/ccjfCtIn.s:4492   .debug_str:0000000000000eff .LASF137
     /tmp/ccjfCtIn.s:4272   .debug_str:0000000000000842 .LASF138
     /tmp/ccjfCtIn.s:4058   .debug_str:0000000000000114 .LASF139
     /tmp/ccjfCtIn.s:4448   .debug_str:0000000000000d80 .LASF140
     /tmp/ccjfCtIn.s:4388   .debug_str:0000000000000b9c .LASF141
GAS LISTING /tmp/ccjfCtIn.s 			page 23


     /tmp/ccjfCtIn.s:4450   .debug_str:0000000000000d90 .LASF142
     /tmp/ccjfCtIn.s:4528   .debug_str:0000000000000fbe .LASF144
     /tmp/ccjfCtIn.s:4470   .debug_str:0000000000000e57 .LASF145
     /tmp/ccjfCtIn.s:4032   .debug_str:0000000000000035 .LASF146
     /tmp/ccjfCtIn.s:4544   .debug_str:000000000000105c .LASF147
     /tmp/ccjfCtIn.s:4398   .debug_str:0000000000000be3 .LASF148
     /tmp/ccjfCtIn.s:4460   .debug_str:0000000000000dd3 .LASF149
     /tmp/ccjfCtIn.s:4124   .debug_str:0000000000000331 .LASF150
     /tmp/ccjfCtIn.s:4270   .debug_str:0000000000000836 .LASF151
     /tmp/ccjfCtIn.s:4224   .debug_str:000000000000063b .LASF152
     /tmp/ccjfCtIn.s:4318   .debug_str:00000000000009bd .LASF153
     /tmp/ccjfCtIn.s:4472   .debug_str:0000000000000e5f .LASF154
     /tmp/ccjfCtIn.s:4414   .debug_str:0000000000000c62 .LASF198
     /tmp/ccjfCtIn.s:4074   .debug_str:000000000000018c .LASF155
     /tmp/ccjfCtIn.s:4248   .debug_str:000000000000077a .LASF157
     /tmp/ccjfCtIn.s:4540   .debug_str:0000000000001034 .LASF262
     /tmp/ccjfCtIn.s:4036   .debug_str:000000000000004a .LASF263
     /tmp/ccjfCtIn.s:4062   .debug_str:0000000000000133 .LASF156
     /tmp/ccjfCtIn.s:4290   .debug_str:00000000000008f9 .LASF158
     /tmp/ccjfCtIn.s:4348   .debug_str:0000000000000a81 .LASF159
     /tmp/ccjfCtIn.s:4214   .debug_str:00000000000005d7 .LASF160
     /tmp/ccjfCtIn.s:4260   .debug_str:00000000000007d8 .LASF161
     /tmp/ccjfCtIn.s:4184   .debug_str:00000000000004e6 .LASF162
     /tmp/ccjfCtIn.s:4438   .debug_str:0000000000000d1e .LASF163
     /tmp/ccjfCtIn.s:4172   .debug_str:000000000000048f .LASF164
     /tmp/ccjfCtIn.s:4120   .debug_str:0000000000000313 .LASF165
     /tmp/ccjfCtIn.s:4396   .debug_str:0000000000000bcc .LASF166
     /tmp/ccjfCtIn.s:4428   .debug_str:0000000000000cc2 .LASF167
     /tmp/ccjfCtIn.s:4134   .debug_str:0000000000000365 .LASF168
     /tmp/ccjfCtIn.s:4496   .debug_str:0000000000000f11 .LASF169
     /tmp/ccjfCtIn.s:4346   .debug_str:0000000000000a6d .LASF170
     /tmp/ccjfCtIn.s:4334   .debug_str:0000000000000a23 .LASF171
     /tmp/ccjfCtIn.s:4476   .debug_str:0000000000000e7c .LASF172
     /tmp/ccjfCtIn.s:4416   .debug_str:0000000000000c79 .LASF173
     /tmp/ccjfCtIn.s:4294   .debug_str:0000000000000915 .LASF174
     /tmp/ccjfCtIn.s:4480   .debug_str:0000000000000e8e .LASF175
     /tmp/ccjfCtIn.s:4254   .debug_str:00000000000007b5 .LASF176
     /tmp/ccjfCtIn.s:4402   .debug_str:0000000000000bfc .LASF177
     /tmp/ccjfCtIn.s:4266   .debug_str:000000000000080a .LASF178
     /tmp/ccjfCtIn.s:4278   .debug_str:000000000000087c .LASF179
     /tmp/ccjfCtIn.s:4324   .debug_str:00000000000009eb .LASF180
     /tmp/ccjfCtIn.s:4534   .debug_str:0000000000000ff6 .LASF181
     /tmp/ccjfCtIn.s:4552   .debug_str:00000000000010a1 .LASF182
     /tmp/ccjfCtIn.s:4418   .debug_str:0000000000000c7e .LASF183
     /tmp/ccjfCtIn.s:4192   .debug_str:0000000000000548 .LASF184
     /tmp/ccjfCtIn.s:4464   .debug_str:0000000000000e19 .LASF185
     /tmp/ccjfCtIn.s:4128   .debug_str:000000000000033d .LASF186
     /tmp/ccjfCtIn.s:4100   .debug_str:000000000000023d .LASF187
     /tmp/ccjfCtIn.s:4466   .debug_str:0000000000000e33 .LASF264
     /tmp/ccjfCtIn.s:4210   .debug_str:00000000000005c1 .LASF188
     /tmp/ccjfCtIn.s:4532   .debug_str:0000000000000fdf .LASF189
     /tmp/ccjfCtIn.s:4130   .debug_str:0000000000000344 .LASF190
     /tmp/ccjfCtIn.s:4546   .debug_str:0000000000001061 .LASF191
     /tmp/ccjfCtIn.s:4180   .debug_str:00000000000004ce .LASF192
     /tmp/ccjfCtIn.s:4432   .debug_str:0000000000000cdf .LASF193
     /tmp/ccjfCtIn.s:4098   .debug_str:0000000000000231 .LASF194
     /tmp/ccjfCtIn.s:4028   .debug_str:000000000000000d .LASF195
GAS LISTING /tmp/ccjfCtIn.s 			page 24


     /tmp/ccjfCtIn.s:4226   .debug_str:0000000000000644 .LASF196
     /tmp/ccjfCtIn.s:4542   .debug_str:0000000000001042 .LASF197
     /tmp/ccjfCtIn.s:4070   .debug_str:000000000000016f .LASF265
     /tmp/ccjfCtIn.s:4188   .debug_str:000000000000051e .LASF199
     /tmp/ccjfCtIn.s:4048   .debug_str:00000000000000be .LASF200
     /tmp/ccjfCtIn.s:4262   .debug_str:00000000000007ec .LASF201
     /tmp/ccjfCtIn.s:4412   .debug_str:0000000000000c56 .LASF202
     /tmp/ccjfCtIn.s:4064   .debug_str:000000000000013d .LASF203
     /tmp/ccjfCtIn.s:4328   .debug_str:0000000000000a06 .LASF204
     /tmp/ccjfCtIn.s:4104   .debug_str:0000000000000263 .LASF205
     /tmp/ccjfCtIn.s:4144   .debug_str:00000000000003d2 .LASF206
     /tmp/ccjfCtIn.s:4142   .debug_str:00000000000003b4 .LASF207
     /tmp/ccjfCtIn.s:4526   .debug_str:0000000000000fb2 .LASF208
     /tmp/ccjfCtIn.s:4370   .debug_str:0000000000000b25 .LASF209
     /tmp/ccjfCtIn.s:4108   .debug_str:00000000000002a0 .LASF210
     /tmp/ccjfCtIn.s:4298   .debug_str:0000000000000921 .LASF211
     /tmp/ccjfCtIn.s:4330   .debug_str:0000000000000a13 .LASF212
     /tmp/ccjfCtIn.s:4440   .debug_str:0000000000000d33 .LASF213
     /tmp/ccjfCtIn.s:4340   .debug_str:0000000000000a40 .LASF214
     /tmp/ccjfCtIn.s:4394   .debug_str:0000000000000bc3 .LASF215
     /tmp/ccjfCtIn.s:4380   .debug_str:0000000000000b6e .LASF216
     /tmp/ccjfCtIn.s:4090   .debug_str:00000000000001fd .LASF217
     /tmp/ccjfCtIn.s:4426   .debug_str:0000000000000cb9 .LASF218
     /tmp/ccjfCtIn.s:4410   .debug_str:0000000000000c40 .LASF219
     /tmp/ccjfCtIn.s:4040   .debug_str:000000000000007e .LASF220
     /tmp/ccjfCtIn.s:4314   .debug_str:0000000000000992 .LASF221
     /tmp/ccjfCtIn.s:4354   .debug_str:0000000000000ab8 .LASF222
     /tmp/ccjfCtIn.s:4558   .debug_str:00000000000010c1 .LASF223
     /tmp/ccjfCtIn.s:4168   .debug_str:0000000000000473 .LASF224
     /tmp/ccjfCtIn.s:4082   .debug_str:00000000000001bc .LASF225
     /tmp/ccjfCtIn.s:4202   .debug_str:000000000000058e .LASF226
     /tmp/ccjfCtIn.s:4122   .debug_str:0000000000000318 .LASF227
     /tmp/ccjfCtIn.s:4026   .debug_str:0000000000000000 .LASF228
     /tmp/ccjfCtIn.s:4300   .debug_str:0000000000000927 .LASF229
     /tmp/ccjfCtIn.s:4056   .debug_str:0000000000000109 .LASF230
     /tmp/ccjfCtIn.s:4234   .debug_str:000000000000072b .LASF231
     /tmp/ccjfCtIn.s:4442   .debug_str:0000000000000d38 .LASF232
     /tmp/ccjfCtIn.s:4400   .debug_str:0000000000000be9 .LASF266
     /tmp/ccjfCtIn.s:4156   .debug_str:000000000000042a .LASF233
     /tmp/ccjfCtIn.s:70     .text:0000000000000044 .LFB70
     /tmp/ccjfCtIn.s:387    .text:00000000000002fc .LFE70
     /tmp/ccjfCtIn.s:4494   .debug_str:0000000000000f0c .LASF234
     /tmp/ccjfCtIn.s:3929   .debug_loc:0000000000000000 .LLST0
     /tmp/ccjfCtIn.s:4200   .debug_str:0000000000000581 .LASF235
     /tmp/ccjfCtIn.s:3940   .debug_loc:0000000000000036 .LLST1
     /tmp/ccjfCtIn.s:4178   .debug_str:00000000000004bf .LASF236
     /tmp/ccjfCtIn.s:3947   .debug_loc:0000000000000059 .LLST2
     /tmp/ccjfCtIn.s:4068   .debug_str:0000000000000164 .LASF237
     /tmp/ccjfCtIn.s:3962   .debug_loc:00000000000000a2 .LLST3
     /tmp/ccjfCtIn.s:4336   .debug_str:0000000000000a2b .LASF238
     /tmp/ccjfCtIn.s:3969   .debug_loc:00000000000000c5 .LLST4
     /tmp/ccjfCtIn.s:4164   .debug_str:0000000000000457 .LASF239
     /tmp/ccjfCtIn.s:3976   .debug_loc:00000000000000e8 .LLST5
     /tmp/ccjfCtIn.s:313    .text:0000000000000298 .LBB19
     /tmp/ccjfCtIn.s:351    .text:00000000000002b4 .LBE19
     /tmp/ccjfCtIn.s:4508   .debug_str:0000000000000f64 .LASF240
     /tmp/ccjfCtIn.s:3983   .debug_loc:000000000000010b .LLST8
GAS LISTING /tmp/ccjfCtIn.s 			page 25


     /tmp/ccjfCtIn.s:315    .text:0000000000000298 .LBB20
     /tmp/ccjfCtIn.s:331    .text:00000000000002a4 .LBE20
     /tmp/ccjfCtIn.s:316    .text:0000000000000298 .LBB21
     /tmp/ccjfCtIn.s:330    .text:00000000000002a4 .LBE21
     /tmp/ccjfCtIn.s:337    .text:00000000000002ac .LBB22
     /tmp/ccjfCtIn.s:350    .text:00000000000002b4 .LBE22
     /tmp/ccjfCtIn.s:3990   .debug_loc:000000000000012e .LLST9
     /tmp/ccjfCtIn.s:335    .text:00000000000002ac .LVL41
     /tmp/ccjfCtIn.s:161    .text:000000000000014c .LBB13
     /tmp/ccjfCtIn.s:169    .text:0000000000000150 .LBE13
     /tmp/ccjfCtIn.s:3997   .debug_loc:0000000000000151 .LLST6
     /tmp/ccjfCtIn.s:183    .text:0000000000000170 .LBB15
     /tmp/ccjfCtIn.s:195    .text:0000000000000174 .LBE15
     /tmp/ccjfCtIn.s:301    .text:000000000000028c .LBB17
     /tmp/ccjfCtIn.s:309    .text:0000000000000290 .LBE17
     /tmp/ccjfCtIn.s:4004   .debug_loc:0000000000000174 .LLST7
     /tmp/ccjfCtIn.s:93     .text:0000000000000074 .LVL3
     /tmp/ccjfCtIn.s:100    .text:000000000000008c .LVL4
     /tmp/ccjfCtIn.s:107    .text:00000000000000a4 .LVL5
     /tmp/ccjfCtIn.s:115    .text:00000000000000c4 .LVL6
     /tmp/ccjfCtIn.s:123    .text:00000000000000e4 .LVL7
     /tmp/ccjfCtIn.s:129    .text:00000000000000f8 .LVL8
     /tmp/ccjfCtIn.s:135    .text:000000000000010c .LVL9
     /tmp/ccjfCtIn.s:139    .text:0000000000000114 .LVL10
     /tmp/ccjfCtIn.s:145    .text:0000000000000128 .LVL11
     /tmp/ccjfCtIn.s:149    .text:0000000000000130 .LVL12
     /tmp/ccjfCtIn.s:155    .text:0000000000000144 .LVL13
     /tmp/ccjfCtIn.s:159    .text:000000000000014c .LVL14
     /tmp/ccjfCtIn.s:178    .text:0000000000000168 .LVL17
     /tmp/ccjfCtIn.s:201    .text:0000000000000188 .LVL20
     /tmp/ccjfCtIn.s:208    .text:000000000000019c .LVL21
     /tmp/ccjfCtIn.s:215    .text:00000000000001b0 .LVL22
     /tmp/ccjfCtIn.s:227    .text:00000000000001d0 .LVL24
     /tmp/ccjfCtIn.s:233    .text:00000000000001dc .LVL25
     /tmp/ccjfCtIn.s:242    .text:00000000000001f8 .LVL27
     /tmp/ccjfCtIn.s:255    .text:0000000000000218 .LVL30
     /tmp/ccjfCtIn.s:261    .text:0000000000000224 .LVL31
     /tmp/ccjfCtIn.s:270    .text:0000000000000240 .LVL33
     /tmp/ccjfCtIn.s:281    .text:000000000000025c .LVL35
     /tmp/ccjfCtIn.s:288    .text:0000000000000270 .LVL36
     /tmp/ccjfCtIn.s:292    .text:0000000000000278 .LVL37
     /tmp/ccjfCtIn.s:298    .text:000000000000028c .LVL38
     /tmp/ccjfCtIn.s:358    .text:00000000000002c8 .LVL44
     /tmp/ccjfCtIn.s:369    .text:00000000000002e0 .LVL46
     /tmp/ccjfCtIn.s:4444   .debug_str:0000000000000d40 .LASF241
     /tmp/ccjfCtIn.s:4112   .debug_str:00000000000002c2 .LASF242
     /tmp/ccjfCtIn.s:45     .text:0000000000000028 .LFB69
     /tmp/ccjfCtIn.s:64     .text:0000000000000044 .LFE69
     /tmp/ccjfCtIn.s:61     .text:0000000000000040 .LVL1
     /tmp/ccjfCtIn.s:4276   .debug_str:000000000000086c .LASF243
     /tmp/ccjfCtIn.s:4252   .debug_str:000000000000079f .LASF244
     /tmp/ccjfCtIn.s:13     .text:0000000000000000 .LFB68
     /tmp/ccjfCtIn.s:39     .text:0000000000000028 .LFE68
     /tmp/ccjfCtIn.s:28     .text:0000000000000018 .LVL0
     /tmp/ccjfCtIn.s:4154   .debug_str:0000000000000425 .LASF246
     /tmp/ccjfCtIn.s:4258   .debug_str:00000000000007d2 .LASF245
     /tmp/ccjfCtIn.s:4176   .debug_str:00000000000004b1 .LASF247
GAS LISTING /tmp/ccjfCtIn.s 			page 26


     /tmp/ccjfCtIn.s:4230   .debug_str:0000000000000712 .LASF249
     /tmp/ccjfCtIn.s:4392   .debug_str:0000000000000bb6 .LASF248
     /tmp/ccjfCtIn.s:4250   .debug_str:0000000000000793 .LASF250
     /tmp/ccjfCtIn.s:4152   .debug_str:000000000000041d .LASF251
     /tmp/ccjfCtIn.s:4488   .debug_str:0000000000000ed5 .LASF252
     /tmp/ccjfCtIn.s:4196   .debug_str:0000000000000567 .LASF253
     /tmp/ccjfCtIn.s:4326   .debug_str:00000000000009fd .LASF254
     /tmp/ccjfCtIn.s:176    .text:0000000000000160 .LVL16
     /tmp/ccjfCtIn.s:347    .text:00000000000002b4 .LVL42
     /tmp/ccjfCtIn.s:356    .text:00000000000002c0 .LVL43
     /tmp/ccjfCtIn.s:225    .text:00000000000001c8 .LVL23
     /tmp/ccjfCtIn.s:244    .text:00000000000001fc .LVL28
     /tmp/ccjfCtIn.s:253    .text:0000000000000210 .LVL29
     /tmp/ccjfCtIn.s:362    .text:00000000000002cc .LVL45
     /tmp/ccjfCtIn.s:279    .text:0000000000000254 .LVL34
     /tmp/ccjfCtIn.s:235    .text:00000000000001e0 .LVL26
     /tmp/ccjfCtIn.s:263    .text:0000000000000228 .LVL32
     /tmp/ccjfCtIn.s:329    .text:00000000000002a4 .LVL40
     /tmp/ccjfCtIn.s:167    .text:0000000000000150 .LVL15
     /tmp/ccjfCtIn.s:307    .text:0000000000000290 .LVL39
     /tmp/ccjfCtIn.s:453    .debug_info:0000000000000000 .Ldebug_info0

UNDEFINED SYMBOLS
_Z8userMainv
thread_dispatch
_Z5printPKcmb
HEAP_START_ADDR
HEAP_END_ADDR
_Z5printPKcc
_ZN9Scheduler9initalizeEv
_ZN5StdIO9initalizeEv
_ZN15MemoryAllocator11getInstanceEv
interruptvec
_ZN3TCB12createThreadEPFvPvES0_Pm
_ZN3TCB7runningE
_Z7kmallocm
_ZN9Scheduler11print_queueEv
_ZN3TCB5yieldEv
