GAS LISTING /tmp/cchTIhoV.s 			page 1


   1              		.file	"main.cpp"
   2              		.option nopic
   3              		.option norelax
   4              		.attribute arch, "rv64i2p0_m2p0_a2p0"
   5              		.attribute unaligned_access, 0
   6              		.attribute stack_align, 16
   7              		.text
   8              	.Ltext0:
   9              		.align	2
  10              		.globl	_Z11workerBodyAPv
  12              	_Z11workerBodyAPv:
  13              	.LFB50:
  14              		.file 1 "src/cpp/main.cpp"
   1:src/cpp/main.cpp **** #include "../../h/testing.hpp"
   2:src/cpp/main.cpp **** #include"../../h/riscv.hpp"
   3:src/cpp/main.cpp **** #include "../../h/tcb.hpp"
   4:src/cpp/main.cpp **** #include "../../h/syscall_c.h"
   5:src/cpp/main.cpp **** #include"../../h/scheduler.hpp"
   6:src/cpp/main.cpp **** 
   7:src/cpp/main.cpp **** extern "C" void interruptvec();
   8:src/cpp/main.cpp **** 
   9:src/cpp/main.cpp **** void userMain(){
  10:src/cpp/main.cpp **** 
  11:src/cpp/main.cpp **** }
  12:src/cpp/main.cpp **** 
  13:src/cpp/main.cpp **** void workerBodyA(void*) {
  15              		.loc 1 13 25
  16              		.cfi_startproc
  17 0000 130101FE 		addi	sp,sp,-32
  18              		.cfi_def_cfa_offset 32
  19 0004 233C1100 		sd	ra,24(sp)
  20 0008 23388100 		sd	s0,16(sp)
  21 000c 23349100 		sd	s1,8(sp)
  22              		.cfi_offset 1, -8
  23              		.cfi_offset 8, -16
  24              		.cfi_offset 9, -24
  25 0010 13040102 		addi	s0,sp,32
  26              		.cfi_def_cfa 8, 0
  14:src/cpp/main.cpp ****     for (uint64 i = 0; i < 10; i++) {
  27              		.loc 1 14 5
  28              	.LVL0:
  29              	.LBB11:
  30              		.loc 1 14 17 is_stmt 0
  31 0014 93040000 		li	s1,0
  32 0018 6F000003 		j	.L7
  33              	.LVL1:
  34              	.L4:
  35              	.LBB12:
  36              	.LBB13:
  15:src/cpp/main.cpp ****         print("A: i=", i, 0);
  16:src/cpp/main.cpp ****         for (uint64 j = 0; j < 10000; j++) {
  37              		.loc 1 16 9 discriminator 2
  38 001c 93861600 		addi	a3,a3,1
  39              	.LVL2:
  40              	.L6:
  41              		.loc 1 16 30 discriminator 1
  42 0020 B7270000 		li	a5,8192
GAS LISTING /tmp/cchTIhoV.s 			page 2


  43 0024 9387F770 		addi	a5,a5,1807
  44 0028 63EED700 		bgtu	a3,a5,.L3
  45              	.LBB14:
  17:src/cpp/main.cpp ****             for (uint64 k = 0; k < 30000; k++) { /* busy wait */ }
  46              		.loc 1 17 25
  47 002c 13070000 		li	a4,0
  48              	.L5:
  49              	.LVL3:
  50              		.loc 1 17 34 discriminator 3
  51 0030 B7770000 		li	a5,28672
  52 0034 9387F752 		addi	a5,a5,1327
  53 0038 E3E2E7FE 		bgtu	a4,a5,.L4
  54              		.loc 1 17 13 discriminator 2
  55 003c 13071700 		addi	a4,a4,1
  56              	.LVL4:
  57 0040 6FF01FFF 		j	.L5
  58              	.LVL5:
  59              	.L3:
  60              	.LBE14:
  61              	.LBE13:
  62              	.LBE12:
  14:src/cpp/main.cpp ****     for (uint64 i = 0; i < 10; i++) {
  63              		.loc 1 14 5 discriminator 2
  64 0044 93841400 		addi	s1,s1,1
  65              	.LVL6:
  66              	.L7:
  14:src/cpp/main.cpp ****     for (uint64 i = 0; i < 10; i++) {
  67              		.loc 1 14 26 discriminator 1
  68 0048 93079000 		li	a5,9
  69 004c 63E29702 		bgtu	s1,a5,.L1
  70              	.LBB16:
  15:src/cpp/main.cpp ****         print("A: i=", i, 0);
  71              		.loc 1 15 9 is_stmt 1
  15:src/cpp/main.cpp ****         print("A: i=", i, 0);
  72              		.loc 1 15 14 is_stmt 0
  73 0050 13060000 		li	a2,0
  74 0054 93850400 		mv	a1,s1
  75 0058 17050000 		lla	a0,.LC0
  75      13050500 
  76 0060 97000000 		call	_Z5printPKcmb
  76      E7800000 
  77              	.LVL7:
  16:src/cpp/main.cpp ****             for (uint64 k = 0; k < 30000; k++) { /* busy wait */ }
  78              		.loc 1 16 9 is_stmt 1
  79              	.LBB15:
  16:src/cpp/main.cpp ****             for (uint64 k = 0; k < 30000; k++) { /* busy wait */ }
  80              		.loc 1 16 21 is_stmt 0
  81 0068 93060000 		li	a3,0
  82 006c 6FF05FFB 		j	.L6
  83              	.LVL8:
  84              	.L1:
  85              	.LBE15:
  86              	.LBE16:
  87              	.LBE11:
  18:src/cpp/main.cpp ****             // TCB::yield();
  19:src/cpp/main.cpp ****         }
  20:src/cpp/main.cpp ****     }
GAS LISTING /tmp/cchTIhoV.s 			page 3


  21:src/cpp/main.cpp **** }
  88              		.loc 1 21 1
  89 0070 83308101 		ld	ra,24(sp)
  90              		.cfi_restore 1
  91 0074 03340101 		ld	s0,16(sp)
  92              		.cfi_restore 8
  93              		.cfi_def_cfa 2, 32
  94 0078 83348100 		ld	s1,8(sp)
  95              		.cfi_restore 9
  96              	.LVL9:
  97 007c 13010102 		addi	sp,sp,32
  98              		.cfi_def_cfa_offset 0
  99 0080 67800000 		jr	ra
 100              		.cfi_endproc
 101              	.LFE50:
 103              		.align	2
 104              		.globl	_Z11workerBodyBPv
 106              	_Z11workerBodyBPv:
 107              	.LFB51:
  22:src/cpp/main.cpp **** 
  23:src/cpp/main.cpp **** void workerBodyB(void*) {
 108              		.loc 1 23 25 is_stmt 1
 109              		.cfi_startproc
 110 0084 130101FE 		addi	sp,sp,-32
 111              		.cfi_def_cfa_offset 32
 112 0088 233C1100 		sd	ra,24(sp)
 113 008c 23388100 		sd	s0,16(sp)
 114 0090 23349100 		sd	s1,8(sp)
 115              		.cfi_offset 1, -8
 116              		.cfi_offset 8, -16
 117              		.cfi_offset 9, -24
 118 0094 13040102 		addi	s0,sp,32
 119              		.cfi_def_cfa 8, 0
  24:src/cpp/main.cpp ****     for (uint64 i = 0; i < 16; i++) {
 120              		.loc 1 24 5
 121              	.LVL10:
 122              	.LBB17:
 123              		.loc 1 24 17 is_stmt 0
 124 0098 93040000 		li	s1,0
 125 009c 6F000003 		j	.L15
 126              	.LVL11:
 127              	.L12:
 128              	.LBB18:
 129              	.LBB19:
  25:src/cpp/main.cpp ****         print("B: i=", i, 0);
  26:src/cpp/main.cpp ****         for (uint64 j = 0; j < 10000; j++) {
 130              		.loc 1 26 9 discriminator 2
 131 00a0 93861600 		addi	a3,a3,1
 132              	.LVL12:
 133              	.L14:
 134              		.loc 1 26 30 discriminator 1
 135 00a4 B7270000 		li	a5,8192
 136 00a8 9387F770 		addi	a5,a5,1807
 137 00ac 63EED700 		bgtu	a3,a5,.L11
 138              	.LBB20:
  27:src/cpp/main.cpp ****             for (uint64 k = 0; k < 30000; k++) { /* busy wait */ }
 139              		.loc 1 27 25
GAS LISTING /tmp/cchTIhoV.s 			page 4


 140 00b0 13070000 		li	a4,0
 141              	.L13:
 142              	.LVL13:
 143              		.loc 1 27 34 discriminator 3
 144 00b4 B7770000 		li	a5,28672
 145 00b8 9387F752 		addi	a5,a5,1327
 146 00bc E3E2E7FE 		bgtu	a4,a5,.L12
 147              		.loc 1 27 13 discriminator 2
 148 00c0 13071700 		addi	a4,a4,1
 149              	.LVL14:
 150 00c4 6FF01FFF 		j	.L13
 151              	.LVL15:
 152              	.L11:
 153              	.LBE20:
 154              	.LBE19:
 155              	.LBE18:
  24:src/cpp/main.cpp ****     for (uint64 i = 0; i < 16; i++) {
 156              		.loc 1 24 5 discriminator 2
 157 00c8 93841400 		addi	s1,s1,1
 158              	.LVL16:
 159              	.L15:
  24:src/cpp/main.cpp ****     for (uint64 i = 0; i < 16; i++) {
 160              		.loc 1 24 26 discriminator 1
 161 00cc 9307F000 		li	a5,15
 162 00d0 63E29702 		bgtu	s1,a5,.L9
 163              	.LBB22:
  25:src/cpp/main.cpp ****         print("B: i=", i, 0);
 164              		.loc 1 25 9 is_stmt 1
  25:src/cpp/main.cpp ****         print("B: i=", i, 0);
 165              		.loc 1 25 14 is_stmt 0
 166 00d4 13060000 		li	a2,0
 167 00d8 93850400 		mv	a1,s1
 168 00dc 17050000 		lla	a0,.LC1
 168      13050500 
 169 00e4 97000000 		call	_Z5printPKcmb
 169      E7800000 
 170              	.LVL17:
  26:src/cpp/main.cpp ****             for (uint64 k = 0; k < 30000; k++) { /* busy wait */ }
 171              		.loc 1 26 9 is_stmt 1
 172              	.LBB21:
  26:src/cpp/main.cpp ****             for (uint64 k = 0; k < 30000; k++) { /* busy wait */ }
 173              		.loc 1 26 21 is_stmt 0
 174 00ec 93060000 		li	a3,0
 175 00f0 6FF05FFB 		j	.L14
 176              	.LVL18:
 177              	.L9:
 178              	.LBE21:
 179              	.LBE22:
 180              	.LBE17:
  28:src/cpp/main.cpp ****             // TCB::yield();
  29:src/cpp/main.cpp ****         }
  30:src/cpp/main.cpp ****     }
  31:src/cpp/main.cpp **** }
 181              		.loc 1 31 1
 182 00f4 83308101 		ld	ra,24(sp)
 183              		.cfi_restore 1
 184 00f8 03340101 		ld	s0,16(sp)
GAS LISTING /tmp/cchTIhoV.s 			page 5


 185              		.cfi_restore 8
 186              		.cfi_def_cfa 2, 32
 187 00fc 83348100 		ld	s1,8(sp)
 188              		.cfi_restore 9
 189              	.LVL19:
 190 0100 13010102 		addi	sp,sp,32
 191              		.cfi_def_cfa_offset 0
 192 0104 67800000 		jr	ra
 193              		.cfi_endproc
 194              	.LFE51:
 196              		.align	2
 197              		.globl	_Z8userMainv
 199              	_Z8userMainv:
 200              	.LFB49:
   9:src/cpp/main.cpp **** 
 201              		.loc 1 9 16 is_stmt 1
 202              		.cfi_startproc
 203 0108 130101FF 		addi	sp,sp,-16
 204              		.cfi_def_cfa_offset 16
 205 010c 23348100 		sd	s0,8(sp)
 206              		.cfi_offset 8, -8
 207 0110 13040101 		addi	s0,sp,16
 208              		.cfi_def_cfa 8, 0
  11:src/cpp/main.cpp **** 
 209              		.loc 1 11 1 is_stmt 0
 210 0114 03348100 		ld	s0,8(sp)
 211              		.cfi_restore 8
 212              		.cfi_def_cfa 2, 16
 213 0118 13010101 		addi	sp,sp,16
 214              		.cfi_def_cfa_offset 0
 215 011c 67800000 		jr	ra
 216              		.cfi_endproc
 217              	.LFE49:
 219              		.align	2
 220              		.globl	_Z9fibonaccim
 222              	_Z9fibonaccim:
 223              	.LFB52:
  32:src/cpp/main.cpp **** 
  33:src/cpp/main.cpp **** uint64 fibonacci(uint64 n) {
 224              		.loc 1 33 28 is_stmt 1
 225              		.cfi_startproc
 226              	.LVL20:
  34:src/cpp/main.cpp ****     if (n == 0 || n == 1) { return n; }
 227              		.loc 1 34 5
 228 0120 93071000 		li	a5,1
 229 0124 63F8A706 		bleu	a0,a5,.L24
  33:src/cpp/main.cpp ****     if (n == 0 || n == 1) { return n; }
 230              		.loc 1 33 28 is_stmt 0
 231 0128 130101FE 		addi	sp,sp,-32
 232              		.cfi_def_cfa_offset 32
 233 012c 233C1100 		sd	ra,24(sp)
 234 0130 23388100 		sd	s0,16(sp)
 235 0134 23349100 		sd	s1,8(sp)
 236 0138 23302101 		sd	s2,0(sp)
 237              		.cfi_offset 1, -8
 238              		.cfi_offset 8, -16
 239              		.cfi_offset 9, -24
GAS LISTING /tmp/cchTIhoV.s 			page 6


 240              		.cfi_offset 18, -32
 241 013c 13040102 		addi	s0,sp,32
 242              		.cfi_def_cfa 8, 0
 243 0140 93040500 		mv	s1,a0
  35:src/cpp/main.cpp ****     if (n % 10 == 0) { thread_dispatch(); }
 244              		.loc 1 35 5 is_stmt 1
 245              		.loc 1 35 11 is_stmt 0
 246 0144 9307A000 		li	a5,10
 247 0148 B377F502 		remu	a5,a0,a5
 248              		.loc 1 35 5
 249 014c 638E0702 		beq	a5,zero,.L27
 250              	.LVL21:
 251              	.L21:
  36:src/cpp/main.cpp ****     return fibonacci(n - 1) + fibonacci(n - 2);
 252              		.loc 1 36 5 is_stmt 1
 253              		.loc 1 36 21 is_stmt 0
 254 0150 1385F4FF 		addi	a0,s1,-1
 255 0154 97000000 		call	_Z9fibonaccim
 255      E7800000 
 256              	.LVL22:
 257 015c 13090500 		mv	s2,a0
 258              		.loc 1 36 40
 259 0160 1385E4FF 		addi	a0,s1,-2
 260 0164 97000000 		call	_Z9fibonaccim
 260      E7800000 
 261              	.LVL23:
 262              		.loc 1 36 46
 263 016c 3305A900 		add	a0,s2,a0
  37:src/cpp/main.cpp **** }
 264              		.loc 1 37 1
 265 0170 83308101 		ld	ra,24(sp)
 266              		.cfi_remember_state
 267              		.cfi_restore 1
 268 0174 03340101 		ld	s0,16(sp)
 269              		.cfi_restore 8
 270              		.cfi_def_cfa 2, 32
 271 0178 83348100 		ld	s1,8(sp)
 272              		.cfi_restore 9
 273              	.LVL24:
 274 017c 03390100 		ld	s2,0(sp)
 275              		.cfi_restore 18
 276 0180 13010102 		addi	sp,sp,32
 277              		.cfi_def_cfa_offset 0
 278 0184 67800000 		jr	ra
 279              	.LVL25:
 280              	.L27:
 281              		.cfi_restore_state
  35:src/cpp/main.cpp ****     if (n % 10 == 0) { thread_dispatch(); }
 282              		.loc 1 35 24 is_stmt 1 discriminator 1
  35:src/cpp/main.cpp ****     if (n % 10 == 0) { thread_dispatch(); }
 283              		.loc 1 35 39 is_stmt 0 discriminator 1
 284 0188 97000000 		call	thread_dispatch
 284      E7800000 
 285              	.LVL26:
 286 0190 6FF01FFC 		j	.L21
 287              	.LVL27:
 288              	.L24:
GAS LISTING /tmp/cchTIhoV.s 			page 7


 289              		.cfi_def_cfa_register 2
 290              		.cfi_restore 1
 291              		.cfi_restore 8
 292              		.cfi_restore 9
 293              		.cfi_restore 18
 294              		.loc 1 37 1
 295 0194 67800000 		ret
 296              		.cfi_endproc
 297              	.LFE52:
 299              		.align	2
 300              		.globl	_Z11workerBodyCPv
 302              	_Z11workerBodyCPv:
 303              	.LFB53:
  38:src/cpp/main.cpp **** 
  39:src/cpp/main.cpp **** void workerBodyC(void*) {
 304              		.loc 1 39 25 is_stmt 1
 305              		.cfi_startproc
 306 0198 130101FE 		addi	sp,sp,-32
 307              		.cfi_def_cfa_offset 32
 308 019c 233C1100 		sd	ra,24(sp)
 309 01a0 23388100 		sd	s0,16(sp)
 310 01a4 23349100 		sd	s1,8(sp)
 311              		.cfi_offset 1, -8
 312              		.cfi_offset 8, -16
 313              		.cfi_offset 9, -24
 314 01a8 13040102 		addi	s0,sp,32
 315              		.cfi_def_cfa 8, 0
  40:src/cpp/main.cpp ****     uint8 i = 0;
 316              		.loc 1 40 5
 317              	.LVL28:
 318              		.loc 1 40 11 is_stmt 0
 319 01ac 93040000 		li	s1,0
 320              	.LVL29:
 321              	.L30:
  41:src/cpp/main.cpp ****     for (; i < 3; i++) {
 322              		.loc 1 41 5 is_stmt 1 discriminator 2
 323              		.loc 1 41 14 is_stmt 0 discriminator 2
 324 01b0 93072000 		li	a5,2
 325 01b4 63E49702 		bgtu	s1,a5,.L29
  42:src/cpp/main.cpp ****         print("C: i=", i, 0);
 326              		.loc 1 42 9 is_stmt 1 discriminator 1
 327              		.loc 1 42 14 is_stmt 0 discriminator 1
 328 01b8 13060000 		li	a2,0
 329 01bc 93850400 		mv	a1,s1
 330 01c0 17050000 		lla	a0,.LC2
 330      13050500 
 331 01c8 97000000 		call	_Z5printPKcmb
 331      E7800000 
 332              	.LVL30:
  41:src/cpp/main.cpp ****     for (; i < 3; i++) {
 333              		.loc 1 41 5 discriminator 1
 334 01d0 9B841400 		addiw	s1,s1,1
 335              	.LVL31:
 336 01d4 93F4F40F 		andi	s1,s1,0xff
 337              	.LVL32:
 338 01d8 6FF09FFD 		j	.L30
 339              	.L29:
GAS LISTING /tmp/cchTIhoV.s 			page 8


  43:src/cpp/main.cpp ****     }
  44:src/cpp/main.cpp **** 
  45:src/cpp/main.cpp ****     print("C: yield");
 340              		.loc 1 45 5 is_stmt 1
 341              		.loc 1 45 10 is_stmt 0
 342 01dc 9305A000 		li	a1,10
 343 01e0 17050000 		lla	a0,.LC3
 343      13050500 
 344 01e8 97000000 		call	_Z5printPKcc
 344      E7800000 
 345              	.LVL33:
  46:src/cpp/main.cpp ****     __asm__ ("li t1, 7");
 346              		.loc 1 46 5 is_stmt 1
 347              		.loc 1 46 25 is_stmt 0
 348              	 #APP
 349              	# 46 "src/cpp/main.cpp" 1
  47              	    thread_dispatch();
 350              		li t1, 7
 351              	# 0 "" 2
 352              		.loc 1 47 5 is_stmt 1
 353              		.loc 1 47 20 is_stmt 0
 354              	 #NO_APP
 355 01f4 97000000 		call	thread_dispatch
 355      E7800000 
 356              	.LVL34:
  48:src/cpp/main.cpp **** 
  49:src/cpp/main.cpp ****     uint64 t1 = 0;
 357              		.loc 1 49 5 is_stmt 1
  50:src/cpp/main.cpp ****     asm ("mv %0, t1" : "=r" (t1));
 358              		.loc 1 50 5
 359              		.loc 1 50 34 is_stmt 0
 360              	 #APP
 361              	# 50 "src/cpp/main.cpp" 1
  51              	
 362              		mv a1, t1
 363              	# 0 "" 2
 364              	.LVL35:
  52:src/cpp/main.cpp ****     print("C: t1=", t1, 0);
 365              		.loc 1 52 5 is_stmt 1
 366              		.loc 1 52 10 is_stmt 0
 367              	 #NO_APP
 368 0200 13060000 		li	a2,0
 369 0204 17050000 		lla	a0,.LC4
 369      13050500 
 370 020c 97000000 		call	_Z5printPKcmb
 370      E7800000 
 371              	.LVL36:
  53:src/cpp/main.cpp **** 
  54:src/cpp/main.cpp ****     uint64 result = fibonacci(12);
 372              		.loc 1 54 5 is_stmt 1
 373              		.loc 1 54 30 is_stmt 0
 374 0214 1305C000 		li	a0,12
 375 0218 97000000 		call	_Z9fibonaccim
 375      E7800000 
 376              	.LVL37:
  55:src/cpp/main.cpp ****     print("C: fibonaci=", result, 0);
 377              		.loc 1 55 5 is_stmt 1
GAS LISTING /tmp/cchTIhoV.s 			page 9


 378              		.loc 1 55 10 is_stmt 0
 379 0220 13060000 		li	a2,0
 380 0224 93050500 		mv	a1,a0
 381 0228 17050000 		lla	a0,.LC5
 381      13050500 
 382              	.LVL38:
 383 0230 97000000 		call	_Z5printPKcmb
 383      E7800000 
 384              	.LVL39:
 385              	.L32:
  56:src/cpp/main.cpp **** 
  57:src/cpp/main.cpp ****     for (; i < 6; i++) {
 386              		.loc 1 57 5 is_stmt 1 discriminator 2
 387              		.loc 1 57 14 is_stmt 0 discriminator 2
 388 0238 93075000 		li	a5,5
 389 023c 63E49702 		bgtu	s1,a5,.L28
  58:src/cpp/main.cpp ****         print("C: i=", i, 0);
 390              		.loc 1 58 9 is_stmt 1 discriminator 1
 391              		.loc 1 58 14 is_stmt 0 discriminator 1
 392 0240 13060000 		li	a2,0
 393 0244 93850400 		mv	a1,s1
 394 0248 17050000 		lla	a0,.LC2
 394      13050500 
 395 0250 97000000 		call	_Z5printPKcmb
 395      E7800000 
 396              	.LVL40:
  57:src/cpp/main.cpp ****         print("C: i=", i, 0);
 397              		.loc 1 57 5 discriminator 1
 398 0258 9B841400 		addiw	s1,s1,1
 399              	.LVL41:
 400 025c 93F4F40F 		andi	s1,s1,0xff
 401              	.LVL42:
 402 0260 6FF09FFD 		j	.L32
 403              	.L28:
  59:src/cpp/main.cpp ****     }
  60:src/cpp/main.cpp **** //    TCB::yield();
  61:src/cpp/main.cpp **** }
 404              		.loc 1 61 1
 405 0264 83308101 		ld	ra,24(sp)
 406              		.cfi_restore 1
 407 0268 03340101 		ld	s0,16(sp)
 408              		.cfi_restore 8
 409              		.cfi_def_cfa 2, 32
 410 026c 83348100 		ld	s1,8(sp)
 411              		.cfi_restore 9
 412              	.LVL43:
 413 0270 13010102 		addi	sp,sp,32
 414              		.cfi_def_cfa_offset 0
 415 0274 67800000 		jr	ra
 416              		.cfi_endproc
 417              	.LFE53:
 419              		.align	2
 420              		.globl	_Z11mainWrapperPv
 422              	_Z11mainWrapperPv:
 423              	.LFB54:
  62:src/cpp/main.cpp **** 
  63:src/cpp/main.cpp **** void mainWrapper(void*){
GAS LISTING /tmp/cchTIhoV.s 			page 10


 424              		.loc 1 63 24 is_stmt 1
 425              		.cfi_startproc
 426 0278 130101FF 		addi	sp,sp,-16
 427              		.cfi_def_cfa_offset 16
 428 027c 23348100 		sd	s0,8(sp)
 429              		.cfi_offset 8, -8
 430 0280 13040101 		addi	s0,sp,16
 431              		.cfi_def_cfa 8, 0
  64:src/cpp/main.cpp ****     userMain();
 432              		.loc 1 64 5
  65:src/cpp/main.cpp **** }
 433              		.loc 1 65 1 is_stmt 0
 434 0284 03348100 		ld	s0,8(sp)
 435              		.cfi_restore 8
 436              		.cfi_def_cfa 2, 16
 437 0288 13010101 		addi	sp,sp,16
 438              		.cfi_def_cfa_offset 0
 439 028c 67800000 		jr	ra
 440              		.cfi_endproc
 441              	.LFE54:
 443              		.align	2
 444              		.globl	main
 446              	main:
 447              	.LFB55:
  66:src/cpp/main.cpp **** 
  67:src/cpp/main.cpp **** int main(){
 448              		.loc 1 67 11 is_stmt 1
 449              		.cfi_startproc
 450 0290 130101FB 		addi	sp,sp,-80
 451              		.cfi_def_cfa_offset 80
 452 0294 23341104 		sd	ra,72(sp)
 453 0298 23308104 		sd	s0,64(sp)
 454 029c 233C9102 		sd	s1,56(sp)
 455              		.cfi_offset 1, -8
 456              		.cfi_offset 8, -16
 457              		.cfi_offset 9, -24
 458 02a0 13040105 		addi	s0,sp,80
 459              		.cfi_def_cfa 8, 0
  68:src/cpp/main.cpp ****     //init
  69:src/cpp/main.cpp ****     MemoryAllocator& allocator = MemoryAllocator::getInstance();
 460              		.loc 1 69 5
 461              		.loc 1 69 63 is_stmt 0
 462 02a4 97000000 		call	_ZN15MemoryAllocator11getInstanceEv
 462      E7800000 
 463              	.LVL44:
 464 02ac 93040500 		mv	s1,a0
 465              	.LVL45:
  70:src/cpp/main.cpp ****     size_t dssb = (DEFAULT_STACK_SIZE-1)/MEM_BLOCK_SIZE + 1;
 466              		.loc 1 70 5 is_stmt 1
  71:src/cpp/main.cpp **** 
  72:src/cpp/main.cpp ****     print("sizeof(PtrQueue): ", sizeof(PtrQueue<TCB>), 0);
 467              		.loc 1 72 5
 468              		.loc 1 72 10 is_stmt 0
 469 02b0 13060000 		li	a2,0
 470 02b4 93050001 		li	a1,16
 471 02b8 17050000 		lla	a0,.LC6
 471      13050500 
GAS LISTING /tmp/cchTIhoV.s 			page 11


 472 02c0 97000000 		call	_Z5printPKcmb
 472      E7800000 
 473              	.LVL46:
  73:src/cpp/main.cpp ****     print("sizeof(TCB): ", sizeof(TCB), 0);
 474              		.loc 1 73 5 is_stmt 1
 475              		.loc 1 73 10 is_stmt 0
 476 02c8 13060000 		li	a2,0
 477 02cc 93058003 		li	a1,56
 478 02d0 17050000 		lla	a0,.LC7
 478      13050500 
 479 02d8 97000000 		call	_Z5printPKcmb
 479      E7800000 
 480              	.LVL47:
  74:src/cpp/main.cpp ****     print("DEFAULT_STACK_SIZE_BLOCKS: ", dssb, 0);
 481              		.loc 1 74 5 is_stmt 1
 482              		.loc 1 74 10 is_stmt 0
 483 02e0 13060000 		li	a2,0
 484 02e4 93050004 		li	a1,64
 485 02e8 17050000 		lla	a0,.LC8
 485      13050500 
 486 02f0 97000000 		call	_Z5printPKcmb
 486      E7800000 
 487              	.LVL48:
  75:src/cpp/main.cpp ****     print("DEFAULT_TIME_SLICE: ", DEFAULT_TIME_SLICE, 0);
 488              		.loc 1 75 5 is_stmt 1
 489              		.loc 1 75 10 is_stmt 0
 490 02f8 13060000 		li	a2,0
 491 02fc 93052000 		li	a1,2
 492 0300 17050000 		lla	a0,.LC9
 492      13050500 
 493 0308 97000000 		call	_Z5printPKcmb
 493      E7800000 
 494              	.LVL49:
  76:src/cpp/main.cpp **** 
  77:src/cpp/main.cpp ****     //allocator.print_list();
  78:src/cpp/main.cpp ****     Scheduler::initalize();
 495              		.loc 1 78 5 is_stmt 1
 496              		.loc 1 78 25 is_stmt 0
 497 0310 97000000 		call	_ZN9Scheduler9initalizeEv
 497      E7800000 
 498              	.LVL50:
  79:src/cpp/main.cpp ****     TCB *threads[5];
 499              		.loc 1 79 5 is_stmt 1
  80:src/cpp/main.cpp ****     //allocator.print_list();
  81:src/cpp/main.cpp **** 
  82:src/cpp/main.cpp ****    
  83:src/cpp/main.cpp ****     //mainThread
  84:src/cpp/main.cpp ****     threads[0] = TCB::createThread(nullptr);
 500              		.loc 1 84 5
 501              		.loc 1 84 35 is_stmt 0
 502 0318 13060000 		li	a2,0
 503 031c 93050000 		li	a1,0
 504 0320 13050000 		li	a0,0
 505 0324 97000000 		call	_ZN3TCB12createThreadEPFvPvES0_Pm
 505      E7800000 
 506              	.LVL51:
 507 032c 93050500 		mv	a1,a0
GAS LISTING /tmp/cchTIhoV.s 			page 12


 508              		.loc 1 84 16
 509 0330 233CA4FA 		sd	a0,-72(s0)
  85:src/cpp/main.cpp ****     TCB::running = threads[0];
 510              		.loc 1 85 5 is_stmt 1
 511              		.loc 1 85 18 is_stmt 0
 512 0334 97070000 		sd	a0,_ZN3TCB7runningE,a5
 512      23B0A700 
  86:src/cpp/main.cpp ****     //allocator.print_list();
  87:src/cpp/main.cpp ****     print("Thread0 adr:", (uint64)threads[0], 0);
 513              		.loc 1 87 5 is_stmt 1
 514              		.loc 1 87 10 is_stmt 0
 515 033c 13060000 		li	a2,0
 516 0340 17050000 		lla	a0,.LC10
 516      13050500 
 517 0348 97000000 		call	_Z5printPKcmb
 517      E7800000 
 518              	.LVL52:
  88:src/cpp/main.cpp ****     
  89:src/cpp/main.cpp ****     //firstThread
  90:src/cpp/main.cpp ****     threads[1] = TCB::createThread(workerBodyA, nullptr, (uint64*)allocator.mem_alloc(dssb));
 519              		.loc 1 90 5 is_stmt 1
 520              		.loc 1 90 86 is_stmt 0
 521 0350 93050004 		li	a1,64
 522 0354 13850400 		mv	a0,s1
 523 0358 97000000 		call	_ZN15MemoryAllocator9mem_allocEm
 523      E7800000 
 524              	.LVL53:
 525              		.loc 1 90 35
 526 0360 13060500 		mv	a2,a0
 527 0364 93050000 		li	a1,0
 528 0368 17050000 		lla	a0,_Z11workerBodyAPv
 528      13050500 
 529 0370 97000000 		call	_ZN3TCB12createThreadEPFvPvES0_Pm
 529      E7800000 
 530              	.LVL54:
 531 0378 93050500 		mv	a1,a0
 532              		.loc 1 90 16
 533 037c 2330A4FC 		sd	a0,-64(s0)
  91:src/cpp/main.cpp ****     //allocator.print_list();
  92:src/cpp/main.cpp ****     print("Thread1 adr:", (uint64)threads[1], 0);
 534              		.loc 1 92 5 is_stmt 1
 535              		.loc 1 92 10 is_stmt 0
 536 0380 13060000 		li	a2,0
 537 0384 17050000 		lla	a0,.LC11
 537      13050500 
 538 038c 97000000 		call	_Z5printPKcmb
 538      E7800000 
 539              	.LVL55:
  93:src/cpp/main.cpp ****     //if(threads[1] != nullptr) print("ThreadA created\n");
  94:src/cpp/main.cpp ****     
  95:src/cpp/main.cpp ****     //secondThread
  96:src/cpp/main.cpp ****     threads[2] = TCB::createThread(workerBodyB, nullptr, (uint64*)allocator.mem_alloc(dssb));
 540              		.loc 1 96 5 is_stmt 1
 541              		.loc 1 96 86 is_stmt 0
 542 0394 93050004 		li	a1,64
 543 0398 13850400 		mv	a0,s1
 544 039c 97000000 		call	_ZN15MemoryAllocator9mem_allocEm
GAS LISTING /tmp/cchTIhoV.s 			page 13


 544      E7800000 
 545              	.LVL56:
 546              		.loc 1 96 35
 547 03a4 13060500 		mv	a2,a0
 548 03a8 93050000 		li	a1,0
 549 03ac 17050000 		lla	a0,_Z11workerBodyBPv
 549      13050500 
 550 03b4 97000000 		call	_ZN3TCB12createThreadEPFvPvES0_Pm
 550      E7800000 
 551              	.LVL57:
 552 03bc 93050500 		mv	a1,a0
 553              		.loc 1 96 16
 554 03c0 2334A4FC 		sd	a0,-56(s0)
  97:src/cpp/main.cpp ****     //allocator.print_list();
  98:src/cpp/main.cpp ****     print("Thread2 adr:", (uint64)threads[2], 0);
 555              		.loc 1 98 5 is_stmt 1
 556              		.loc 1 98 10 is_stmt 0
 557 03c4 13060000 		li	a2,0
 558 03c8 17050000 		lla	a0,.LC12
 558      13050500 
 559 03d0 97000000 		call	_Z5printPKcmb
 559      E7800000 
 560              	.LVL58:
  99:src/cpp/main.cpp ****     //if(threads[2] != nullptr) print("ThreadB created\n");
 100:src/cpp/main.cpp ****     
 101:src/cpp/main.cpp ****     //thirdThread
 102:src/cpp/main.cpp ****     threads[3] = TCB::createThread(workerBodyC, nullptr, (uint64*)allocator.mem_alloc(dssb));
 561              		.loc 1 102 5 is_stmt 1
 562              		.loc 1 102 86 is_stmt 0
 563 03d8 93050004 		li	a1,64
 564 03dc 13850400 		mv	a0,s1
 565 03e0 97000000 		call	_ZN15MemoryAllocator9mem_allocEm
 565      E7800000 
 566              	.LVL59:
 567              		.loc 1 102 35
 568 03e8 13060500 		mv	a2,a0
 569 03ec 93050000 		li	a1,0
 570 03f0 17050000 		lla	a0,_Z11workerBodyCPv
 570      13050500 
 571 03f8 97000000 		call	_ZN3TCB12createThreadEPFvPvES0_Pm
 571      E7800000 
 572              	.LVL60:
 573 0400 93050500 		mv	a1,a0
 574              		.loc 1 102 16
 575 0404 2338A4FC 		sd	a0,-48(s0)
 103:src/cpp/main.cpp ****     //allocator.print_list();
 104:src/cpp/main.cpp ****     print("Thread3 adr:", (uint64)threads[3], 0);
 576              		.loc 1 104 5 is_stmt 1
 577              		.loc 1 104 10 is_stmt 0
 578 0408 13060000 		li	a2,0
 579 040c 17050000 		lla	a0,.LC13
 579      13050500 
 580 0414 97000000 		call	_Z5printPKcmb
 580      E7800000 
 581              	.LVL61:
 105:src/cpp/main.cpp ****     //if(threads[3] != nullptr) print("ThreadC created\n");
 106:src/cpp/main.cpp **** 
GAS LISTING /tmp/cchTIhoV.s 			page 14


 107:src/cpp/main.cpp ****     //threads[4] = TCB::createThread(workerBodyD);
 108:src/cpp/main.cpp ****     //printString("ThreadD created\n");
 109:src/cpp/main.cpp **** 
 110:src/cpp/main.cpp ****     Riscv::w_stvec((uint64)interruptvec);
 582              		.loc 1 110 5 is_stmt 1
 583              		.loc 1 110 19 is_stmt 0
 584 041c 97070000 		lla	a5,interruptvec
 584      93870700 
 585              	.LVL62:
 586              	.LBB23:
 587              	.LBB24:
 588              		.file 2 "src/cpp/../../h/../h/riscv.hpp"
   1:src/cpp/../../h/../h/riscv.hpp **** #ifndef __riscv__
   2:src/cpp/../../h/../h/riscv.hpp **** #define __riscv__
   3:src/cpp/../../h/../h/riscv.hpp **** 
   4:src/cpp/../../h/../h/riscv.hpp **** #include"../lib/hw.h"
   5:src/cpp/../../h/../h/riscv.hpp **** 
   6:src/cpp/../../h/../h/riscv.hpp **** class Riscv{
   7:src/cpp/../../h/../h/riscv.hpp **** public:
   8:src/cpp/../../h/../h/riscv.hpp ****     
   9:src/cpp/../../h/../h/riscv.hpp ****     static void w_scause(uint64);
  10:src/cpp/../../h/../h/riscv.hpp ****     static uint64 r_scause(); 
  11:src/cpp/../../h/../h/riscv.hpp **** 
  12:src/cpp/../../h/../h/riscv.hpp ****     static void w_sepc(uint64);
  13:src/cpp/../../h/../h/riscv.hpp ****     static uint64 r_sepc();
  14:src/cpp/../../h/../h/riscv.hpp ****     static void ni_sepc();
  15:src/cpp/../../h/../h/riscv.hpp **** 
  16:src/cpp/../../h/../h/riscv.hpp ****     static void w_stvec(uint64);
  17:src/cpp/../../h/../h/riscv.hpp ****     static uint64 r_stvec();
  18:src/cpp/../../h/../h/riscv.hpp ****      
  19:src/cpp/../../h/../h/riscv.hpp ****     static void w_stval(uint64);
  20:src/cpp/../../h/../h/riscv.hpp ****     static uint64 r_stval();
  21:src/cpp/../../h/../h/riscv.hpp ****     
  22:src/cpp/../../h/../h/riscv.hpp ****     enum BitMaskSip{
  23:src/cpp/../../h/../h/riscv.hpp ****         SIP_SSIE = (1<<1),
  24:src/cpp/../../h/../h/riscv.hpp ****         SIP_STIE = (1<<5),
  25:src/cpp/../../h/../h/riscv.hpp ****         SIP_SEIE = (1<<9),
  26:src/cpp/../../h/../h/riscv.hpp ****     };
  27:src/cpp/../../h/../h/riscv.hpp **** 
  28:src/cpp/../../h/../h/riscv.hpp ****     static void ms_sip(uint64);
  29:src/cpp/../../h/../h/riscv.hpp ****     static void mc_sip(uint64);
  30:src/cpp/../../h/../h/riscv.hpp **** 
  31:src/cpp/../../h/../h/riscv.hpp ****     static void w_sip(uint64);
  32:src/cpp/../../h/../h/riscv.hpp ****     static uint64 r_sip();
  33:src/cpp/../../h/../h/riscv.hpp **** 
  34:src/cpp/../../h/../h/riscv.hpp ****     enum BitMaskSstatus{
  35:src/cpp/../../h/../h/riscv.hpp ****         SSTATUS_SIE = (1<<1),
  36:src/cpp/../../h/../h/riscv.hpp ****         SSTATUS_SPIE = (1<<5),
  37:src/cpp/../../h/../h/riscv.hpp ****         SSTATUS_SPP = (1<<8),
  38:src/cpp/../../h/../h/riscv.hpp ****     };
  39:src/cpp/../../h/../h/riscv.hpp **** 
  40:src/cpp/../../h/../h/riscv.hpp ****     static void ms_sstatus(uint64);
  41:src/cpp/../../h/../h/riscv.hpp ****     static void mc_sstatus(uint64);
  42:src/cpp/../../h/../h/riscv.hpp **** 
  43:src/cpp/../../h/../h/riscv.hpp ****     static void w_sstatus(uint64);
  44:src/cpp/../../h/../h/riscv.hpp ****     static uint64 r_sstatus();
  45:src/cpp/../../h/../h/riscv.hpp **** 
GAS LISTING /tmp/cchTIhoV.s 			page 15


  46:src/cpp/../../h/../h/riscv.hpp ****     static uint64 r_a0();
  47:src/cpp/../../h/../h/riscv.hpp ****     static uint64 s_a0(uint64 a0);
  48:src/cpp/../../h/../h/riscv.hpp ****     static uint64 r_a1();
  49:src/cpp/../../h/../h/riscv.hpp ****     static uint64 r_a2();
  50:src/cpp/../../h/../h/riscv.hpp ****     static uint64 r_a3();
  51:src/cpp/../../h/../h/riscv.hpp ****     static uint64 r_a4();
  52:src/cpp/../../h/../h/riscv.hpp **** 
  53:src/cpp/../../h/../h/riscv.hpp ****     static void popSppSpie();
  54:src/cpp/../../h/../h/riscv.hpp **** };
  55:src/cpp/../../h/../h/riscv.hpp **** 
  56:src/cpp/../../h/../h/riscv.hpp **** inline uint64 Riscv::r_a0(){
  57:src/cpp/../../h/../h/riscv.hpp ****     uint64 a0;
  58:src/cpp/../../h/../h/riscv.hpp ****     asm volatile("mv %0, a0" : "=r" (a0));
  59:src/cpp/../../h/../h/riscv.hpp ****     return a0;
  60:src/cpp/../../h/../h/riscv.hpp **** }
  61:src/cpp/../../h/../h/riscv.hpp **** 
  62:src/cpp/../../h/../h/riscv.hpp **** inline uint64 Riscv::r_a1(){
  63:src/cpp/../../h/../h/riscv.hpp ****     uint64 a0;
  64:src/cpp/../../h/../h/riscv.hpp ****     asm volatile("mv %0, a1" : "=r" (a0));
  65:src/cpp/../../h/../h/riscv.hpp ****     return a0;
  66:src/cpp/../../h/../h/riscv.hpp **** }
  67:src/cpp/../../h/../h/riscv.hpp **** 
  68:src/cpp/../../h/../h/riscv.hpp **** inline uint64 Riscv::r_a2(){
  69:src/cpp/../../h/../h/riscv.hpp ****     uint64 a0;
  70:src/cpp/../../h/../h/riscv.hpp ****     asm volatile("mv %0, a2" : "=r" (a0));
  71:src/cpp/../../h/../h/riscv.hpp ****     return a0;
  72:src/cpp/../../h/../h/riscv.hpp **** }
  73:src/cpp/../../h/../h/riscv.hpp **** 
  74:src/cpp/../../h/../h/riscv.hpp **** inline uint64 Riscv::r_a3(){
  75:src/cpp/../../h/../h/riscv.hpp ****     uint64 a0;
  76:src/cpp/../../h/../h/riscv.hpp ****     asm volatile("mv %0, a3" : "=r" (a0));
  77:src/cpp/../../h/../h/riscv.hpp ****     return a0;
  78:src/cpp/../../h/../h/riscv.hpp **** }
  79:src/cpp/../../h/../h/riscv.hpp **** 
  80:src/cpp/../../h/../h/riscv.hpp **** inline uint64 Riscv::r_a4(){
  81:src/cpp/../../h/../h/riscv.hpp ****     uint64 a0;
  82:src/cpp/../../h/../h/riscv.hpp ****     asm volatile("mv %0, a4" : "=r" (a0));
  83:src/cpp/../../h/../h/riscv.hpp ****     return a0;
  84:src/cpp/../../h/../h/riscv.hpp **** }
  85:src/cpp/../../h/../h/riscv.hpp **** 
  86:src/cpp/../../h/../h/riscv.hpp **** 
  87:src/cpp/../../h/../h/riscv.hpp **** inline uint64 Riscv::s_a0(uint64 a0){
  88:src/cpp/../../h/../h/riscv.hpp ****     return a0;
  89:src/cpp/../../h/../h/riscv.hpp **** }
  90:src/cpp/../../h/../h/riscv.hpp **** 
  91:src/cpp/../../h/../h/riscv.hpp **** inline void Riscv::w_scause(uint64 scause){
  92:src/cpp/../../h/../h/riscv.hpp ****     asm volatile("csrw scause, %0" : : "r" (scause));
  93:src/cpp/../../h/../h/riscv.hpp **** }
  94:src/cpp/../../h/../h/riscv.hpp **** 
  95:src/cpp/../../h/../h/riscv.hpp **** inline uint64 Riscv::r_scause(){
  96:src/cpp/../../h/../h/riscv.hpp ****     uint64 volatile scause;
  97:src/cpp/../../h/../h/riscv.hpp ****     asm volatile("csrr %0, scause" : "=r" (scause));
  98:src/cpp/../../h/../h/riscv.hpp ****     return scause;
  99:src/cpp/../../h/../h/riscv.hpp **** } 
 100:src/cpp/../../h/../h/riscv.hpp **** 
 101:src/cpp/../../h/../h/riscv.hpp **** inline void Riscv::w_sepc(uint64 sepc){
 102:src/cpp/../../h/../h/riscv.hpp ****     asm volatile("csrw sepc, %0" : : "r" (sepc));
GAS LISTING /tmp/cchTIhoV.s 			page 16


 103:src/cpp/../../h/../h/riscv.hpp **** }
 104:src/cpp/../../h/../h/riscv.hpp **** 
 105:src/cpp/../../h/../h/riscv.hpp **** inline uint64 Riscv::r_sepc(){
 106:src/cpp/../../h/../h/riscv.hpp ****     uint64 volatile sepc;
 107:src/cpp/../../h/../h/riscv.hpp ****     asm volatile("csrr %0, sepc" : "=r" (sepc));
 108:src/cpp/../../h/../h/riscv.hpp ****     return sepc;
 109:src/cpp/../../h/../h/riscv.hpp **** } 
 110:src/cpp/../../h/../h/riscv.hpp **** 
 111:src/cpp/../../h/../h/riscv.hpp **** inline void Riscv::w_stvec(uint64 stvec){
 112:src/cpp/../../h/../h/riscv.hpp ****     asm volatile("csrw stvec, %0" : : "r" (stvec));
 589              		.loc 2 112 5 is_stmt 1
 590              		.loc 2 112 51 is_stmt 0
 591              	 #APP
 592              	# 112 "src/cpp/../../h/../h/riscv.hpp" 1
 113              	}
 593              		csrw stvec, a5
 594              	# 0 "" 2
 595              	.LVL63:
 596              	 #NO_APP
 597              	.LBE24:
 598              	.LBE23:
 111:src/cpp/main.cpp ****     Riscv::ms_sstatus(Riscv::SSTATUS_SIE);
 599              		.loc 1 111 5 is_stmt 1
 600              	.LBB25:
 601              	.LBB26:
 114:src/cpp/../../h/../h/riscv.hpp **** 
 115:src/cpp/../../h/../h/riscv.hpp **** inline uint64 Riscv::r_stvec(){
 116:src/cpp/../../h/../h/riscv.hpp ****     uint64 volatile stvec;
 117:src/cpp/../../h/../h/riscv.hpp ****     asm volatile("csrr %0, stvec" : "=r" (stvec));
 118:src/cpp/../../h/../h/riscv.hpp ****     return stvec;
 119:src/cpp/../../h/../h/riscv.hpp **** } 
 120:src/cpp/../../h/../h/riscv.hpp **** 
 121:src/cpp/../../h/../h/riscv.hpp **** inline void Riscv::w_stval(uint64 stval){
 122:src/cpp/../../h/../h/riscv.hpp ****     asm volatile("csrw stval, %0" : : "r" (stval));
 123:src/cpp/../../h/../h/riscv.hpp **** }
 124:src/cpp/../../h/../h/riscv.hpp **** 
 125:src/cpp/../../h/../h/riscv.hpp **** inline uint64 Riscv::r_stval(){
 126:src/cpp/../../h/../h/riscv.hpp ****     uint64 volatile stval;
 127:src/cpp/../../h/../h/riscv.hpp ****     asm volatile("csrr %0, stval" : "=r" (stval));
 128:src/cpp/../../h/../h/riscv.hpp ****     return stval;
 129:src/cpp/../../h/../h/riscv.hpp **** } 
 130:src/cpp/../../h/../h/riscv.hpp **** 
 131:src/cpp/../../h/../h/riscv.hpp **** inline void Riscv::ms_sip(uint64 mask){
 132:src/cpp/../../h/../h/riscv.hpp ****     asm volatile ("csrs sip, %0" : : "r" (mask));
 133:src/cpp/../../h/../h/riscv.hpp **** }
 134:src/cpp/../../h/../h/riscv.hpp **** 
 135:src/cpp/../../h/../h/riscv.hpp **** inline void Riscv::mc_sip(uint64 mask){
 136:src/cpp/../../h/../h/riscv.hpp ****     asm volatile ("csrc sip, %0" : : "r" (mask));
 137:src/cpp/../../h/../h/riscv.hpp **** }
 138:src/cpp/../../h/../h/riscv.hpp **** 
 139:src/cpp/../../h/../h/riscv.hpp **** inline void Riscv::w_sip(uint64 sip){
 140:src/cpp/../../h/../h/riscv.hpp ****     asm volatile("csrw sip, %0" : : "r" (sip));
 141:src/cpp/../../h/../h/riscv.hpp **** }
 142:src/cpp/../../h/../h/riscv.hpp **** 
 143:src/cpp/../../h/../h/riscv.hpp **** inline uint64 Riscv::r_sip(){
 144:src/cpp/../../h/../h/riscv.hpp ****     uint64 volatile sip;
 145:src/cpp/../../h/../h/riscv.hpp ****     asm volatile("csrr %0, sip" : "=r" (sip));
GAS LISTING /tmp/cchTIhoV.s 			page 17


 146:src/cpp/../../h/../h/riscv.hpp ****     return sip;
 147:src/cpp/../../h/../h/riscv.hpp **** } 
 148:src/cpp/../../h/../h/riscv.hpp **** 
 149:src/cpp/../../h/../h/riscv.hpp **** inline void Riscv::ms_sstatus(uint64 mask){
 150:src/cpp/../../h/../h/riscv.hpp ****     asm volatile ("csrs sstatus, %0" : : "r" (mask));
 602              		.loc 2 150 5
 603              		.loc 2 150 53 is_stmt 0
 604 0428 93072000 		li	a5,2
 605              	 #APP
 606              	# 150 "src/cpp/../../h/../h/riscv.hpp" 1
 151              	}
 607              		csrs sstatus, a5
 608              	# 0 "" 2
 609              	 #NO_APP
 610 0430 6F000002 		j	.L39
 611              	.L37:
 612              	.LBE26:
 613              	.LBE25:
 112:src/cpp/main.cpp ****     while (!(threads[1]->isFinished() && threads[2]->isFinished() /*&&
 113:src/cpp/main.cpp ****              threads[3]->isFinished()*/)) {
 114:src/cpp/main.cpp ****         //print("vrtim se");
 115:src/cpp/main.cpp ****         print("deo kernela");
 614              		.loc 1 115 9 is_stmt 1 discriminator 3
 615              		.loc 1 115 14 is_stmt 0 discriminator 3
 616 0434 9305A000 		li	a1,10
 617 0438 17050000 		lla	a0,.LC14
 617      13050500 
 618 0440 97000000 		call	_Z5printPKcc
 618      E7800000 
 619              	.LVL64:
 116:src/cpp/main.cpp ****         thread_dispatch();
 620              		.loc 1 116 9 is_stmt 1 discriminator 3
 621              		.loc 1 116 24 is_stmt 0 discriminator 3
 622 0448 97000000 		call	thread_dispatch
 622      E7800000 
 623              	.LVL65:
 624              	.L39:
 112:src/cpp/main.cpp ****     while (!(threads[1]->isFinished() && threads[2]->isFinished() /*&&
 625              		.loc 1 112 5 is_stmt 1
 112:src/cpp/main.cpp ****     while (!(threads[1]->isFinished() && threads[2]->isFinished() /*&&
 626              		.loc 1 112 23 is_stmt 0
 627 0450 833704FC 		ld	a5,-64(s0)
 628              	.LVL66:
 629              	.LBB27:
 630              	.LBB28:
 631              		.file 3 "src/cpp/../../h/tcb.hpp"
   1:src/cpp/../../h/tcb.hpp **** #ifndef __tcb__h
   2:src/cpp/../../h/tcb.hpp **** #define __tcb__h
   3:src/cpp/../../h/tcb.hpp **** 
   4:src/cpp/../../h/tcb.hpp **** #include"../h/memory_allocator.hpp"
   5:src/cpp/../../h/tcb.hpp **** 
   6:src/cpp/../../h/tcb.hpp **** class TCB{
   7:src/cpp/../../h/tcb.hpp ****     
   8:src/cpp/../../h/tcb.hpp **** public:
   9:src/cpp/../../h/tcb.hpp ****     //alokacija
  10:src/cpp/../../h/tcb.hpp ****     #include"../h/kernel_operators.hpp"
  11:src/cpp/../../h/tcb.hpp ****     
GAS LISTING /tmp/cchTIhoV.s 			page 18


  12:src/cpp/../../h/tcb.hpp ****     using Body = void (*)(void*);
  13:src/cpp/../../h/tcb.hpp ****     
  14:src/cpp/../../h/tcb.hpp ****     ~TCB(){  MemoryAllocator::getInstance().mem_free(stack); }
  15:src/cpp/../../h/tcb.hpp ****     
  16:src/cpp/../../h/tcb.hpp ****     //da li je thread zavrsen
  17:src/cpp/../../h/tcb.hpp ****     bool isFinished() const { return finished; }
 632              		.loc 3 17 31 is_stmt 1
 633              		.loc 3 17 38 is_stmt 0
 634 0454 83C70702 		lbu	a5,32(a5)
 635              	.LVL67:
 636              	.LBE28:
 637              	.LBE27:
 112:src/cpp/main.cpp ****              threads[3]->isFinished()*/)) {
 638              		.loc 1 112 12
 639 0458 E38E07FC 		beq	a5,zero,.L37
 112:src/cpp/main.cpp ****              threads[3]->isFinished()*/)) {
 640              		.loc 1 112 51 discriminator 2
 641 045c 833784FC 		ld	a5,-56(s0)
 642              	.LVL68:
 643              	.LBB29:
 644              	.LBB30:
 645              		.loc 3 17 31 is_stmt 1 discriminator 2
 646              		.loc 3 17 38 is_stmt 0 discriminator 2
 647 0460 83C70702 		lbu	a5,32(a5)
 648              	.LVL69:
 649              	.LBE30:
 650              	.LBE29:
 112:src/cpp/main.cpp ****              threads[3]->isFinished()*/)) {
 651              		.loc 1 112 12 discriminator 2
 652 0464 E38807FC 		beq	a5,zero,.L37
 653              	.LBB31:
 117:src/cpp/main.cpp ****     }
 118:src/cpp/main.cpp **** 
 119:src/cpp/main.cpp ****     for(auto &thread: threads){MemoryAllocator::getInstance().mem_free(thread);}
 654              		.loc 1 119 23
 655 0468 930484FB 		addi	s1,s0,-72
 656              	.LVL70:
 657              	.L38:
 658              		.loc 1 119 23 discriminator 5
 659 046c 930704FE 		addi	a5,s0,-32
 660 0470 6380F402 		beq	s1,a5,.L40
 661              	.LVL71:
 662              		.loc 1 119 32 is_stmt 1 discriminator 2
 663              		.loc 1 119 61 is_stmt 0 discriminator 2
 664 0474 97000000 		call	_ZN15MemoryAllocator11getInstanceEv
 664      E7800000 
 665              	.LVL72:
 666              		.loc 1 119 71 discriminator 2
 667 047c 83B50400 		ld	a1,0(s1)
 668 0480 97000000 		call	_ZN15MemoryAllocator8mem_freeEPv
 668      E7800000 
 669              	.LVL73:
 670              		.loc 1 119 5 discriminator 2
 671 0488 93848400 		addi	s1,s1,8
 672              	.LVL74:
 673 048c 6FF01FFE 		j	.L38
 674              	.LVL75:
GAS LISTING /tmp/cchTIhoV.s 			page 19


 675              	.L40:
 676              	.LBE31:
 120:src/cpp/main.cpp ****     print("Kernel kraj");
 677              		.loc 1 120 5 is_stmt 1
 678              		.loc 1 120 10 is_stmt 0
 679 0490 9305A000 		li	a1,10
 680 0494 17050000 		lla	a0,.LC15
 680      13050500 
 681 049c 97000000 		call	_Z5printPKcc
 681      E7800000 
 682              	.LVL76:
 121:src/cpp/main.cpp ****     return 0;
 683              		.loc 1 121 5 is_stmt 1
 122:src/cpp/main.cpp **** }   ...
 684              		.loc 1 122 1 is_stmt 0
 685 04a4 13050000 		li	a0,0
 686 04a8 83308104 		ld	ra,72(sp)
 687              		.cfi_restore 1
 688 04ac 03340104 		ld	s0,64(sp)
 689              		.cfi_restore 8
 690              		.cfi_def_cfa 2, 80
 691 04b0 83348103 		ld	s1,56(sp)
 692              		.cfi_restore 9
 693              	.LVL77:
 694 04b4 13010105 		addi	sp,sp,80
 695              		.cfi_def_cfa_offset 0
 696 04b8 67800000 		jr	ra
 697              		.cfi_endproc
 698              	.LFE55:
 700              		.section	.rodata.str1.8,"aMS",@progbits,1
 701              		.align	3
 702              	.LC0:
 703 0000 413A2069 		.string	"A: i="
 703      3D00
 704 0006 0000     		.zero	2
 705              	.LC1:
 706 0008 423A2069 		.string	"B: i="
 706      3D00
 707 000e 0000     		.zero	2
 708              	.LC2:
 709 0010 433A2069 		.string	"C: i="
 709      3D00
 710 0016 0000     		.zero	2
 711              	.LC3:
 712 0018 433A2079 		.string	"C: yield"
 712      69656C64 
 712      00
 713 0021 00000000 		.zero	7
 713      000000
 714              	.LC4:
 715 0028 433A2074 		.string	"C: t1="
 715      313D00
 716 002f 00       		.zero	1
 717              	.LC5:
 718 0030 433A2066 		.string	"C: fibonaci="
 718      69626F6E 
 718      6163693D 
GAS LISTING /tmp/cchTIhoV.s 			page 20


 718      00
 719 003d 000000   		.zero	3
 720              	.LC6:
 721 0040 73697A65 		.string	"sizeof(PtrQueue): "
 721      6F662850 
 721      74725175 
 721      65756529 
 721      3A2000
 722 0053 00000000 		.zero	5
 722      00
 723              	.LC7:
 724 0058 73697A65 		.string	"sizeof(TCB): "
 724      6F662854 
 724      4342293A 
 724      2000
 725 0066 0000     		.zero	2
 726              	.LC8:
 727 0068 44454641 		.string	"DEFAULT_STACK_SIZE_BLOCKS: "
 727      554C545F 
 727      53544143 
 727      4B5F5349 
 727      5A455F42 
 728 0084 00000000 		.zero	4
 729              	.LC9:
 730 0088 44454641 		.string	"DEFAULT_TIME_SLICE: "
 730      554C545F 
 730      54494D45 
 730      5F534C49 
 730      43453A20 
 731 009d 000000   		.zero	3
 732              	.LC10:
 733 00a0 54687265 		.string	"Thread0 adr:"
 733      61643020 
 733      6164723A 
 733      00
 734 00ad 000000   		.zero	3
 735              	.LC11:
 736 00b0 54687265 		.string	"Thread1 adr:"
 736      61643120 
 736      6164723A 
 736      00
 737 00bd 000000   		.zero	3
 738              	.LC12:
 739 00c0 54687265 		.string	"Thread2 adr:"
 739      61643220 
 739      6164723A 
 739      00
 740 00cd 000000   		.zero	3
 741              	.LC13:
 742 00d0 54687265 		.string	"Thread3 adr:"
 742      61643320 
 742      6164723A 
 742      00
 743 00dd 000000   		.zero	3
 744              	.LC14:
 745 00e0 64656F20 		.string	"deo kernela"
 745      6B65726E 
GAS LISTING /tmp/cchTIhoV.s 			page 21


 745      656C6100 
 746 00ec 00000000 		.zero	4
 747              	.LC15:
 748 00f0 4B65726E 		.string	"Kernel kraj"
 748      656C206B 
 748      72616A00 
 749              		.text
 750              	.Letext0:
 751              		.file 4 "src/cpp/../../h/../h/../lib/hw.h"
 752              		.file 5 "src/cpp/../../h/../h/memory_allocator.hpp"
 753              		.file 6 "src/cpp/../../h/../h/kernel_operators.hpp"
 754              		.file 7 "src/cpp/../../h/scheduler.hpp"
 755              		.file 8 "src/cpp/../../h/../h/ptr_queue.hpp"
 756              		.file 9 "src/cpp/../../h/../h/../h/kernel_operators.hpp"
 757              		.file 10 "src/cpp/../../h/testing.hpp"
 758              		.file 11 "src/cpp/../../h/../h/syscall_c.h"
GAS LISTING /tmp/cchTIhoV.s 			page 22

