GAS LISTING /tmp/cc6TWgky.s 			page 1


   1              		.file	"memory_allocator.cpp"
   2              		.option nopic
   3              		.option norelax
   4              		.attribute arch, "rv64i2p0_m2p0_a2p0"
   5              		.attribute unaligned_access, 0
   6              		.attribute stack_align, 16
   7              		.text
   8              	.Ltext0:
   9              		.align	2
  10              		.globl	_ZN15MemoryAllocator11getInstanceEv
  12              	_ZN15MemoryAllocator11getInstanceEv:
  13              	.LFB25:
  14              		.file 1 "src/cpp/memory_allocator.cpp"
   1:src/cpp/memory_allocator.cpp **** #include"../../h/memory_allocator.hpp"
   2:src/cpp/memory_allocator.cpp **** #include"../../h/testing.hpp"
   3:src/cpp/memory_allocator.cpp **** 
   4:src/cpp/memory_allocator.cpp **** /*MemoryAllocator::MemoryAllocator(){
   5:src/cpp/memory_allocator.cpp ****     print("aaaa");
   6:src/cpp/memory_allocator.cpp ****     fmem_head = (FreeSegment*)HEAP_START_ADDR;
   7:src/cpp/memory_allocator.cpp ****     fmem_head->next = nullptr;
   8:src/cpp/memory_allocator.cpp ****     fmem_head->size = ((size_t)HEAP_END_ADDR - (size_t)HEAP_START_ADDR - sizeof(FreeSegment));
   9:src/cpp/memory_allocator.cpp **** }*/
  10:src/cpp/memory_allocator.cpp **** 
  11:src/cpp/memory_allocator.cpp **** MemoryAllocator MemoryAllocator::allocator;
  12:src/cpp/memory_allocator.cpp **** 
  13:src/cpp/memory_allocator.cpp **** MemoryAllocator& MemoryAllocator::getInstance(){
  15              		.loc 1 13 48
  16              		.cfi_startproc
  17 0000 130101FF 		addi	sp,sp,-16
  18              		.cfi_def_cfa_offset 16
  19 0004 23348100 		sd	s0,8(sp)
  20              		.cfi_offset 8, -8
  21 0008 13040101 		addi	s0,sp,16
  22              		.cfi_def_cfa 8, 0
  14:src/cpp/memory_allocator.cpp ****     if(!allocator.init){
  23              		.loc 1 14 5
  24              		.loc 1 14 19 is_stmt 0
  25 000c 97070000 		lbu	a5,.LANCHOR0
  25      83C70700 
  26              		.loc 1 14 5
  27 0014 63940704 		bne	a5,zero,.L2
  15:src/cpp/memory_allocator.cpp ****         allocator.fmem_head = (FreeSegment*)HEAP_START_ADDR;
  28              		.loc 1 15 9 is_stmt 1
  29              		.loc 1 15 29 is_stmt 0
  30 0018 97060000 		lla	a3,HEAP_START_ADDR
  30      93860600 
  31 0020 83B70600 		ld	a5,0(a3)
  32 0024 17070000 		lla	a4,.LANCHOR0
  32      13070700 
  33 002c 2334F700 		sd	a5,8(a4)
  16:src/cpp/memory_allocator.cpp ****         allocator.fmem_head->next = nullptr;
  34              		.loc 1 16 9 is_stmt 1
  35              		.loc 1 16 35 is_stmt 0
  36 0030 23B00700 		sd	zero,0(a5)
  17:src/cpp/memory_allocator.cpp ****         allocator.fmem_head->size = ((size_t)HEAP_END_ADDR - (size_t)HEAP_START_ADDR - sizeof(FreeS
  37              		.loc 1 17 9 is_stmt 1
  38              		.loc 1 17 60 is_stmt 0
GAS LISTING /tmp/cc6TWgky.s 			page 2


  39 0034 97070000 		lla	a5,HEAP_END_ADDR
  39      93870700 
  40 003c 83B70700 		ld	a5,0(a5)
  41 0040 83B60600 		ld	a3,0(a3)
  42 0044 B387D740 		sub	a5,a5,a3
  43              		.loc 1 17 19
  44 0048 83368700 		ld	a3,8(a4)
  45              		.loc 1 17 86
  46 004c 938707FF 		addi	a5,a5,-16
  47              		.loc 1 17 35
  48 0050 23B4F600 		sd	a5,8(a3)
  18:src/cpp/memory_allocator.cpp ****         allocator.init = true;
  49              		.loc 1 18 9 is_stmt 1
  50              		.loc 1 18 24 is_stmt 0
  51 0054 93071000 		li	a5,1
  52 0058 2300F700 		sb	a5,0(a4)
  53              	.L2:
  19:src/cpp/memory_allocator.cpp ****     }
  20:src/cpp/memory_allocator.cpp ****     return allocator;
  54              		.loc 1 20 5 is_stmt 1
  21:src/cpp/memory_allocator.cpp **** }
  55              		.loc 1 21 1 is_stmt 0
  56 005c 17050000 		lla	a0,.LANCHOR0
  56      13050500 
  57 0064 03348100 		ld	s0,8(sp)
  58              		.cfi_restore 8
  59              		.cfi_def_cfa 2, 16
  60 0068 13010101 		addi	sp,sp,16
  61              		.cfi_def_cfa_offset 0
  62 006c 67800000 		jr	ra
  63              		.cfi_endproc
  64              	.LFE25:
  66              		.align	2
  67              		.globl	_ZN15MemoryAllocator9mem_allocEm
  69              	_ZN15MemoryAllocator9mem_allocEm:
  70              	.LFB26:
  22:src/cpp/memory_allocator.cpp **** 
  23:src/cpp/memory_allocator.cpp **** void* MemoryAllocator::mem_alloc(size_t size){
  71              		.loc 1 23 46 is_stmt 1
  72              		.cfi_startproc
  73              	.LVL0:
  74 0070 130101FF 		addi	sp,sp,-16
  75              		.cfi_def_cfa_offset 16
  76 0074 23348100 		sd	s0,8(sp)
  77              		.cfi_offset 8, -8
  78 0078 13040101 		addi	s0,sp,16
  79              		.cfi_def_cfa 8, 0
  24:src/cpp/memory_allocator.cpp ****     FreeSegment* best = nullptr,*best_prev = nullptr,* curr = fmem_head, *prev = nullptr;
  80              		.loc 1 24 5
  81              	.LVL1:
  82              		.loc 1 24 56 is_stmt 0
  83 007c 83378500 		ld	a5,8(a0)
  84              	.LVL2:
  25:src/cpp/memory_allocator.cpp ****     size = size*MEM_BLOCK_SIZE;
  85              		.loc 1 25 5 is_stmt 1
  86              		.loc 1 25 10 is_stmt 0
  87 0080 93956500 		slli	a1,a1,6
GAS LISTING /tmp/cc6TWgky.s 			page 3


  88              	.LVL3:
  24:src/cpp/memory_allocator.cpp ****     FreeSegment* best = nullptr,*best_prev = nullptr,* curr = fmem_head, *prev = nullptr;
  89              		.loc 1 24 75
  90 0084 13060000 		li	a2,0
  24:src/cpp/memory_allocator.cpp ****     FreeSegment* best = nullptr,*best_prev = nullptr,* curr = fmem_head, *prev = nullptr;
  91              		.loc 1 24 34
  92 0088 93080000 		li	a7,0
  24:src/cpp/memory_allocator.cpp ****     FreeSegment* best = nullptr,*best_prev = nullptr,* curr = fmem_head, *prev = nullptr;
  93              		.loc 1 24 18
  94 008c 93060000 		li	a3,0
  95 0090 6F004001 		j	.L7
  96              	.LVL4:
  97              	.L13:
  26:src/cpp/memory_allocator.cpp ****     while(curr){
  27:src/cpp/memory_allocator.cpp ****         if(curr->size >= size)
  28:src/cpp/memory_allocator.cpp ****             if (!best || (curr->size < best->size)){
  29:src/cpp/memory_allocator.cpp ****                 best = curr;     
  30:src/cpp/memory_allocator.cpp ****                 best_prev = prev;
  98              		.loc 1 30 27
  99 0094 93080600 		mv	a7,a2
 100              	.LVL5:
  29:src/cpp/memory_allocator.cpp ****                 best_prev = prev;
 101              		.loc 1 29 22
 102 0098 93860700 		mv	a3,a5
 103              	.LVL6:
 104              	.L6:
  31:src/cpp/memory_allocator.cpp ****             }
  32:src/cpp/memory_allocator.cpp ****         prev = curr;
 105              		.loc 1 32 9 is_stmt 1
  33:src/cpp/memory_allocator.cpp ****         curr = curr->next;
 106              		.loc 1 33 9
  32:src/cpp/memory_allocator.cpp ****         curr = curr->next;
 107              		.loc 1 32 14 is_stmt 0
 108 009c 13860700 		mv	a2,a5
 109              		.loc 1 33 14
 110 00a0 83B70700 		ld	a5,0(a5)
 111              	.LVL7:
 112              	.L7:
  26:src/cpp/memory_allocator.cpp ****         if(curr->size >= size)
 113              		.loc 1 26 5 is_stmt 1
  26:src/cpp/memory_allocator.cpp ****         if(curr->size >= size)
 114              		.loc 1 26 11 is_stmt 0
 115 00a4 63820702 		beq	a5,zero,.L5
  27:src/cpp/memory_allocator.cpp ****             if (!best || (curr->size < best->size)){
 116              		.loc 1 27 9 is_stmt 1
  27:src/cpp/memory_allocator.cpp ****             if (!best || (curr->size < best->size)){
 117              		.loc 1 27 18 is_stmt 0
 118 00a8 03B78700 		ld	a4,8(a5)
  27:src/cpp/memory_allocator.cpp ****             if (!best || (curr->size < best->size)){
 119              		.loc 1 27 9
 120 00ac E368B7FE 		bltu	a4,a1,.L6
  28:src/cpp/memory_allocator.cpp ****                 best = curr;     
 121              		.loc 1 28 13 is_stmt 1
 122 00b0 E38206FE 		beq	a3,zero,.L13
  28:src/cpp/memory_allocator.cpp ****                 best = curr;     
 123              		.loc 1 28 46 is_stmt 0 discriminator 1
 124 00b4 03B88600 		ld	a6,8(a3)
GAS LISTING /tmp/cc6TWgky.s 			page 4


  28:src/cpp/memory_allocator.cpp ****                 best = curr;     
 125              		.loc 1 28 23 discriminator 1
 126 00b8 E37207FF 		bgeu	a4,a6,.L6
  30:src/cpp/memory_allocator.cpp ****             }
 127              		.loc 1 30 27
 128 00bc 93080600 		mv	a7,a2
 129              	.LVL8:
  29:src/cpp/memory_allocator.cpp ****                 best_prev = prev;
 130              		.loc 1 29 22
 131 00c0 93860700 		mv	a3,a5
 132              	.LVL9:
 133 00c4 6FF09FFD 		j	.L6
 134              	.LVL10:
 135              	.L5:
  34:src/cpp/memory_allocator.cpp ****     } 
  35:src/cpp/memory_allocator.cpp ****     if(!best)
 136              		.loc 1 35 5 is_stmt 1
 137 00c8 63840602 		beq	a3,zero,.L4
  36:src/cpp/memory_allocator.cpp ****         return nullptr;
  37:src/cpp/memory_allocator.cpp ****     if(best->size - size < sizeof(FreeSegment) + MEM_BLOCK_SIZE){
 138              		.loc 1 37 5
 139              		.loc 1 37 14 is_stmt 0
 140 00cc 83B78600 		ld	a5,8(a3)
 141              	.LVL11:
 142              		.loc 1 37 19
 143 00d0 B387B740 		sub	a5,a5,a1
 144              		.loc 1 37 5
 145 00d4 1307F004 		li	a4,79
 146 00d8 636AF702 		bgtu	a5,a4,.L9
  38:src/cpp/memory_allocator.cpp ****         if(!best_prev) fmem_head = best->next;
 147              		.loc 1 38 9 is_stmt 1
 148 00dc 63820802 		beq	a7,zero,.L16
  39:src/cpp/memory_allocator.cpp ****         else best_prev->next = best->next;
 149              		.loc 1 39 14
 150              		.loc 1 39 38 is_stmt 0
 151 00e0 83B70600 		ld	a5,0(a3)
 152              		.loc 1 39 30
 153 00e4 23B0F800 		sd	a5,0(a7)
 154              	.L11:
  40:src/cpp/memory_allocator.cpp ****     }else{
  41:src/cpp/memory_allocator.cpp ****         curr = (FreeSegment*)((char*)best + sizeof(FreeSegment) + size);
  42:src/cpp/memory_allocator.cpp ****         curr->next = best->next;
  43:src/cpp/memory_allocator.cpp ****         curr->size = best->size - size - sizeof(FreeSegment);
  44:src/cpp/memory_allocator.cpp ****         best->size = size;
  45:src/cpp/memory_allocator.cpp ****         if(best_prev) best_prev->next = curr;
  46:src/cpp/memory_allocator.cpp ****         else fmem_head = curr;
  47:src/cpp/memory_allocator.cpp ****     }
  48:src/cpp/memory_allocator.cpp ****     //print((uint64)best);
  49:src/cpp/memory_allocator.cpp ****     //print((uint64)best->size);
  50:src/cpp/memory_allocator.cpp ****     best->next = nullptr;
 155              		.loc 1 50 5 is_stmt 1
 156              		.loc 1 50 16 is_stmt 0
 157 00e8 23B00600 		sd	zero,0(a3)
  51:src/cpp/memory_allocator.cpp ****     return (char*)best+sizeof(FreeSegment);
 158              		.loc 1 51 5 is_stmt 1
 159              		.loc 1 51 42 is_stmt 0
 160 00ec 93860601 		addi	a3,a3,16
GAS LISTING /tmp/cc6TWgky.s 			page 5


 161              	.LVL12:
 162              	.L4:
  52:src/cpp/memory_allocator.cpp **** }
 163              		.loc 1 52 1
 164 00f0 13850600 		mv	a0,a3
 165              	.LVL13:
 166 00f4 03348100 		ld	s0,8(sp)
 167              		.cfi_remember_state
 168              		.cfi_restore 8
 169              		.cfi_def_cfa 2, 16
 170 00f8 13010101 		addi	sp,sp,16
 171              		.cfi_def_cfa_offset 0
 172 00fc 67800000 		jr	ra
 173              	.LVL14:
 174              	.L16:
 175              		.cfi_restore_state
  38:src/cpp/memory_allocator.cpp ****         else best_prev->next = best->next;
 176              		.loc 1 38 24 is_stmt 1 discriminator 1
  38:src/cpp/memory_allocator.cpp ****         else best_prev->next = best->next;
 177              		.loc 1 38 42 is_stmt 0 discriminator 1
 178 0100 83B70600 		ld	a5,0(a3)
  38:src/cpp/memory_allocator.cpp ****         else best_prev->next = best->next;
 179              		.loc 1 38 34 discriminator 1
 180 0104 2334F500 		sd	a5,8(a0)
 181 0108 6FF01FFE 		j	.L11
 182              	.L9:
  41:src/cpp/memory_allocator.cpp ****         curr->next = best->next;
 183              		.loc 1 41 9 is_stmt 1
  41:src/cpp/memory_allocator.cpp ****         curr->next = best->next;
 184              		.loc 1 41 65 is_stmt 0
 185 010c 93870501 		addi	a5,a1,16
  41:src/cpp/memory_allocator.cpp ****         curr->next = best->next;
 186              		.loc 1 41 14
 187 0110 B387F600 		add	a5,a3,a5
 188              	.LVL15:
  42:src/cpp/memory_allocator.cpp ****         curr->size = best->size - size - sizeof(FreeSegment);
 189              		.loc 1 42 9 is_stmt 1
  42:src/cpp/memory_allocator.cpp ****         curr->size = best->size - size - sizeof(FreeSegment);
 190              		.loc 1 42 28 is_stmt 0
 191 0114 03B70600 		ld	a4,0(a3)
  42:src/cpp/memory_allocator.cpp ****         curr->size = best->size - size - sizeof(FreeSegment);
 192              		.loc 1 42 20
 193 0118 23B0E700 		sd	a4,0(a5)
  43:src/cpp/memory_allocator.cpp ****         best->size = size;
 194              		.loc 1 43 9 is_stmt 1
  43:src/cpp/memory_allocator.cpp ****         best->size = size;
 195              		.loc 1 43 28 is_stmt 0
 196 011c 03B78600 		ld	a4,8(a3)
  43:src/cpp/memory_allocator.cpp ****         best->size = size;
 197              		.loc 1 43 33
 198 0120 3307B740 		sub	a4,a4,a1
  43:src/cpp/memory_allocator.cpp ****         best->size = size;
 199              		.loc 1 43 40
 200 0124 130707FF 		addi	a4,a4,-16
  43:src/cpp/memory_allocator.cpp ****         best->size = size;
 201              		.loc 1 43 20
 202 0128 23B4E700 		sd	a4,8(a5)
GAS LISTING /tmp/cc6TWgky.s 			page 6


  44:src/cpp/memory_allocator.cpp ****         if(best_prev) best_prev->next = curr;
 203              		.loc 1 44 9 is_stmt 1
  44:src/cpp/memory_allocator.cpp ****         if(best_prev) best_prev->next = curr;
 204              		.loc 1 44 20 is_stmt 0
 205 012c 23B4B600 		sd	a1,8(a3)
  45:src/cpp/memory_allocator.cpp ****         else fmem_head = curr;
 206              		.loc 1 45 9 is_stmt 1
 207 0130 63860800 		beq	a7,zero,.L12
  45:src/cpp/memory_allocator.cpp ****         else fmem_head = curr;
 208              		.loc 1 45 23 discriminator 1
  45:src/cpp/memory_allocator.cpp ****         else fmem_head = curr;
 209              		.loc 1 45 39 is_stmt 0 discriminator 1
 210 0134 23B0F800 		sd	a5,0(a7)
 211 0138 6FF01FFB 		j	.L11
 212              	.L12:
  46:src/cpp/memory_allocator.cpp ****     }
 213              		.loc 1 46 14 is_stmt 1
  46:src/cpp/memory_allocator.cpp ****     }
 214              		.loc 1 46 24 is_stmt 0
 215 013c 2334F500 		sd	a5,8(a0)
 216 0140 6FF09FFA 		j	.L11
 217              		.cfi_endproc
 218              	.LFE26:
 220              		.align	2
 221              		.globl	_ZN15MemoryAllocator18invalidFreeAddressEPv
 223              	_ZN15MemoryAllocator18invalidFreeAddressEPv:
 224              	.LFB27:
  53:src/cpp/memory_allocator.cpp **** 
  54:src/cpp/memory_allocator.cpp **** bool MemoryAllocator::invalidFreeAddress(void* adr){
 225              		.loc 1 54 52 is_stmt 1
 226              		.cfi_startproc
 227              	.LVL16:
 228 0144 130101FF 		addi	sp,sp,-16
 229              		.cfi_def_cfa_offset 16
 230 0148 23348100 		sd	s0,8(sp)
 231              		.cfi_offset 8, -8
 232 014c 13040101 		addi	s0,sp,16
 233              		.cfi_def_cfa 8, 0
  55:src/cpp/memory_allocator.cpp ****     if(adr < HEAP_START_ADDR || adr >= HEAP_END_ADDR)
 234              		.loc 1 55 5
 235              		.loc 1 55 12 is_stmt 0
 236 0150 97070000 		lla	a5,HEAP_START_ADDR
 236      93870700 
 237 0158 83B70700 		ld	a5,0(a5)
 238              		.loc 1 55 5
 239 015c 63E0F504 		bgtu	a5,a1,.L21
 240              		.loc 1 55 37 discriminator 1
 241 0160 97070000 		lla	a5,HEAP_END_ADDR
 241      93870700 
 242 0168 83B70700 		ld	a5,0(a5)
 243              		.loc 1 55 30 discriminator 1
 244 016c 63F0F504 		bleu	a5,a1,.L22
  56:src/cpp/memory_allocator.cpp ****         return true;
  57:src/cpp/memory_allocator.cpp ****     size_t t = (size_t)adr;
 245              		.loc 1 57 5 is_stmt 1
 246              	.LVL17:
  58:src/cpp/memory_allocator.cpp ****     for(FreeSegment* cur = fmem_head; cur; cur = cur->next)
GAS LISTING /tmp/cc6TWgky.s 			page 7


 247              		.loc 1 58 5
 248              	.LBB2:
 249              		.loc 1 58 22 is_stmt 0
 250 0170 83378500 		ld	a5,8(a0)
 251              	.LVL18:
 252 0174 6F008000 		j	.L20
 253              	.L19:
 254              		.loc 1 58 48 discriminator 2
 255 0178 83B70700 		ld	a5,0(a5)
 256              	.LVL19:
 257              	.L20:
 258              		.loc 1 58 39 discriminator 1
 259 017c 638C0702 		beq	a5,zero,.L23
  59:src/cpp/memory_allocator.cpp ****         if(t >= (size_t)cur && t < (size_t)cur+2*sizeof(FreeSegment)+cur->size)
 260              		.loc 1 59 9 is_stmt 1
 261 0180 E3ECF5FE 		bgtu	a5,a1,.L19
 262              		.loc 1 59 75 is_stmt 0 discriminator 1
 263 0184 03B78700 		ld	a4,8(a5)
 264              		.loc 1 59 69 discriminator 1
 265 0188 3387E700 		add	a4,a5,a4
 266 018c 13070702 		addi	a4,a4,32
 267              		.loc 1 59 29 discriminator 1
 268 0190 E3F4E5FE 		bleu	a4,a1,.L19
  60:src/cpp/memory_allocator.cpp ****             return true;
 269              		.loc 1 60 20
 270 0194 13051000 		li	a0,1
 271              	.LVL20:
 272 0198 6F008000 		j	.L18
 273              	.LVL21:
 274              	.L21:
 275              	.LBE2:
  56:src/cpp/memory_allocator.cpp ****     size_t t = (size_t)adr;
 276              		.loc 1 56 16
 277 019c 13051000 		li	a0,1
 278              	.LVL22:
 279              	.L18:
  61:src/cpp/memory_allocator.cpp ****     return false;
  62:src/cpp/memory_allocator.cpp **** }
 280              		.loc 1 62 1
 281 01a0 03348100 		ld	s0,8(sp)
 282              		.cfi_remember_state
 283              		.cfi_restore 8
 284              		.cfi_def_cfa 2, 16
 285 01a4 13010101 		addi	sp,sp,16
 286              		.cfi_def_cfa_offset 0
 287 01a8 67800000 		jr	ra
 288              	.LVL23:
 289              	.L22:
 290              		.cfi_restore_state
  56:src/cpp/memory_allocator.cpp ****     size_t t = (size_t)adr;
 291              		.loc 1 56 16
 292 01ac 13051000 		li	a0,1
 293              	.LVL24:
 294 01b0 6FF01FFF 		j	.L18
 295              	.LVL25:
 296              	.L23:
  61:src/cpp/memory_allocator.cpp ****     return false;
GAS LISTING /tmp/cc6TWgky.s 			page 8


 297              		.loc 1 61 12
 298 01b4 13050000 		li	a0,0
 299              	.LVL26:
 300 01b8 6FF09FFE 		j	.L18
 301              		.cfi_endproc
 302              	.LFE27:
 304              		.align	2
 305              		.globl	_ZN15MemoryAllocator13mergeWithNextEP11FreeSegment
 307              	_ZN15MemoryAllocator13mergeWithNextEP11FreeSegment:
 308              	.LFB28:
  63:src/cpp/memory_allocator.cpp **** 
  64:src/cpp/memory_allocator.cpp **** FreeSegment* MemoryAllocator::mergeWithNext(FreeSegment* t){
 309              		.loc 1 64 60 is_stmt 1
 310              		.cfi_startproc
 311              	.LVL27:
 312 01bc 130101FF 		addi	sp,sp,-16
 313              		.cfi_def_cfa_offset 16
 314 01c0 23348100 		sd	s0,8(sp)
 315              		.cfi_offset 8, -8
 316 01c4 13040101 		addi	s0,sp,16
 317              		.cfi_def_cfa 8, 0
  65:src/cpp/memory_allocator.cpp ****     if((char*)t + sizeof(FreeSegment) + t->size == (char*)t->next){
 318              		.loc 1 65 5
 319              		.loc 1 65 44 is_stmt 0
 320 01c8 03B78500 		ld	a4,8(a1)
 321              		.loc 1 65 39
 322 01cc 93070701 		addi	a5,a4,16
 323 01d0 B387F500 		add	a5,a1,a5
 324              		.loc 1 65 62
 325 01d4 03B50500 		ld	a0,0(a1)
 326              	.LVL28:
 327              		.loc 1 65 5
 328 01d8 6388A700 		beq	a5,a0,.L29
 329              	.L26:
  66:src/cpp/memory_allocator.cpp ****         t->size += t->next->size + sizeof(FreeSegment);
  67:src/cpp/memory_allocator.cpp ****         t->next = t->next->next;
  68:src/cpp/memory_allocator.cpp ****         return t;
  69:src/cpp/memory_allocator.cpp ****     }
  70:src/cpp/memory_allocator.cpp ****     return t->next;
  71:src/cpp/memory_allocator.cpp **** }
 330              		.loc 1 71 1
 331 01dc 03348100 		ld	s0,8(sp)
 332              		.cfi_remember_state
 333              		.cfi_restore 8
 334              		.cfi_def_cfa 2, 16
 335 01e0 13010101 		addi	sp,sp,16
 336              		.cfi_def_cfa_offset 0
 337 01e4 67800000 		jr	ra
 338              	.L29:
 339              		.cfi_restore_state
  66:src/cpp/memory_allocator.cpp ****         t->size += t->next->size + sizeof(FreeSegment);
 340              		.loc 1 66 9 is_stmt 1
  66:src/cpp/memory_allocator.cpp ****         t->size += t->next->size + sizeof(FreeSegment);
 341              		.loc 1 66 29 is_stmt 0
 342 01e8 83378500 		ld	a5,8(a0)
  66:src/cpp/memory_allocator.cpp ****         t->size += t->next->size + sizeof(FreeSegment);
 343              		.loc 1 66 17
GAS LISTING /tmp/cc6TWgky.s 			page 9


 344 01ec 3307F700 		add	a4,a4,a5
 345 01f0 13070701 		addi	a4,a4,16
 346 01f4 23B4E500 		sd	a4,8(a1)
  67:src/cpp/memory_allocator.cpp ****         return t;
 347              		.loc 1 67 9 is_stmt 1
  67:src/cpp/memory_allocator.cpp ****         return t;
 348              		.loc 1 67 28 is_stmt 0
 349 01f8 83370500 		ld	a5,0(a0)
  67:src/cpp/memory_allocator.cpp ****         return t;
 350              		.loc 1 67 17
 351 01fc 23B0F500 		sd	a5,0(a1)
  68:src/cpp/memory_allocator.cpp ****     }
 352              		.loc 1 68 9 is_stmt 1
  68:src/cpp/memory_allocator.cpp ****     }
 353              		.loc 1 68 16 is_stmt 0
 354 0200 13850500 		mv	a0,a1
 355 0204 6FF09FFD 		j	.L26
 356              		.cfi_endproc
 357              	.LFE28:
 359              		.align	2
 360              		.globl	_ZN15MemoryAllocator8mem_freeEPv
 362              	_ZN15MemoryAllocator8mem_freeEPv:
 363              	.LFB29:
  72:src/cpp/memory_allocator.cpp **** 
  73:src/cpp/memory_allocator.cpp **** int MemoryAllocator::mem_free(void* adr){
 364              		.loc 1 73 41 is_stmt 1
 365              		.cfi_startproc
 366              	.LVL29:
 367 0208 130101FD 		addi	sp,sp,-48
 368              		.cfi_def_cfa_offset 48
 369 020c 23341102 		sd	ra,40(sp)
 370 0210 23308102 		sd	s0,32(sp)
 371 0214 233C9100 		sd	s1,24(sp)
 372 0218 23382101 		sd	s2,16(sp)
 373 021c 23343101 		sd	s3,8(sp)
 374 0220 23304101 		sd	s4,0(sp)
 375              		.cfi_offset 1, -8
 376              		.cfi_offset 8, -16
 377              		.cfi_offset 9, -24
 378              		.cfi_offset 18, -32
 379              		.cfi_offset 19, -40
 380              		.cfi_offset 20, -48
 381 0224 13040103 		addi	s0,sp,48
 382              		.cfi_def_cfa 8, 0
 383 0228 93090500 		mv	s3,a0
 384 022c 13890500 		mv	s2,a1
  74:src/cpp/memory_allocator.cpp ****     if(invalidFreeAddress(adr)) return -1;
 385              		.loc 1 74 5
 386              		.loc 1 74 26 is_stmt 0
 387 0230 97000000 		call	_ZN15MemoryAllocator18invalidFreeAddressEPv
 387      E7800000 
 388              	.LVL30:
 389              		.loc 1 74 5
 390 0238 6310050A 		bne	a0,zero,.L39
  75:src/cpp/memory_allocator.cpp ****     if(!fmem_head)
 391              		.loc 1 75 5 is_stmt 1
 392              	.LBB3:
GAS LISTING /tmp/cc6TWgky.s 			page 10


 393              		.loc 1 75 9 is_stmt 0
 394 023c 83B78900 		ld	a5,8(s3)
 395              		.loc 1 75 5
 396 0240 63880700 		beq	a5,zero,.L41
 397              	.LBB4:
  76:src/cpp/memory_allocator.cpp ****         fmem_head = (FreeSegment*)((char*)adr - sizeof(FreeSegment));
  77:src/cpp/memory_allocator.cpp ****     else{
  78:src/cpp/memory_allocator.cpp ****         FreeSegment* newsgm = (FreeSegment*)((char*)adr - sizeof(FreeSegment)), *prev,* cur;
 398              		.loc 1 78 9 is_stmt 1
 399              		.loc 1 78 22 is_stmt 0
 400 0244 130A09FF 		addi	s4,s2,-16
 401              	.LVL31:
  79:src/cpp/memory_allocator.cpp ****         //print((uint64)newsgm);
  80:src/cpp/memory_allocator.cpp ****         for(prev = nullptr, cur = fmem_head; cur; prev = cur, cur = cur->next)
 402              		.loc 1 80 9 is_stmt 1
 403              		.loc 1 80 18 is_stmt 0
 404 0248 93040000 		li	s1,0
 405 024c 6F00C001 		j	.L36
 406              	.LVL32:
 407              	.L41:
 408              	.LBE4:
  76:src/cpp/memory_allocator.cpp ****         fmem_head = (FreeSegment*)((char*)adr - sizeof(FreeSegment));
 409              		.loc 1 76 9 is_stmt 1
  76:src/cpp/memory_allocator.cpp ****         fmem_head = (FreeSegment*)((char*)adr - sizeof(FreeSegment));
 410              		.loc 1 76 21 is_stmt 0
 411 0250 130909FF 		addi	s2,s2,-16
 412              	.LVL33:
  76:src/cpp/memory_allocator.cpp ****         fmem_head = (FreeSegment*)((char*)adr - sizeof(FreeSegment));
 413              		.loc 1 76 19
 414 0254 23B42901 		sd	s2,8(s3)
 415 0258 6F004005 		j	.L31
 416              	.LVL34:
 417              	.L34:
 418              	.LBB5:
  81:src/cpp/memory_allocator.cpp ****             if((!prev || (size_t)adr > (size_t)prev) && (size_t)adr < (size_t)cur)
 419              		.loc 1 81 54 discriminator 3
 420 025c 636EF900 		bltu	s2,a5,.L33
 421              	.L35:
 422              	.LVL35:
  80:src/cpp/memory_allocator.cpp ****             if((!prev || (size_t)adr > (size_t)prev) && (size_t)adr < (size_t)cur)
 423              		.loc 1 80 56 discriminator 2
 424 0260 93840700 		mv	s1,a5
  80:src/cpp/memory_allocator.cpp ****             if((!prev || (size_t)adr > (size_t)prev) && (size_t)adr < (size_t)cur)
 425              		.loc 1 80 67 discriminator 2
 426 0264 83B70700 		ld	a5,0(a5)
 427              	.LVL36:
 428              	.L36:
  80:src/cpp/memory_allocator.cpp ****             if((!prev || (size_t)adr > (size_t)prev) && (size_t)adr < (size_t)cur)
 429              		.loc 1 80 46 discriminator 1
 430 0268 63880700 		beq	a5,zero,.L33
 431              		.loc 1 81 13 is_stmt 1
 432 026c E38804FE 		beq	s1,zero,.L34
 433              		.loc 1 81 23 is_stmt 0 discriminator 2
 434 0270 E3F824FF 		bleu	s2,s1,.L35
 435 0274 6FF09FFE 		j	.L34
 436              	.L33:
  82:src/cpp/memory_allocator.cpp ****                 break;
GAS LISTING /tmp/cc6TWgky.s 			page 11


  83:src/cpp/memory_allocator.cpp ****         //print((ull)prev);
  84:src/cpp/memory_allocator.cpp ****         newsgm->next = cur;
 437              		.loc 1 84 9 is_stmt 1
 438              		.loc 1 84 22 is_stmt 0
 439 0278 2338F9FE 		sd	a5,-16(s2)
  85:src/cpp/memory_allocator.cpp ****         if(cur)
 440              		.loc 1 85 9 is_stmt 1
 441 027c 638A0700 		beq	a5,zero,.L37
  86:src/cpp/memory_allocator.cpp ****             mergeWithNext(newsgm);
 442              		.loc 1 86 13
 443              		.loc 1 86 26 is_stmt 0
 444 0280 93050A00 		mv	a1,s4
 445 0284 13850900 		mv	a0,s3
 446 0288 97000000 		call	_ZN15MemoryAllocator13mergeWithNextEP11FreeSegment
 446      E7800000 
 447              	.LVL37:
 448              	.L37:
  87:src/cpp/memory_allocator.cpp ****         if(prev){
 449              		.loc 1 87 9 is_stmt 1
 450 0290 638E0402 		beq	s1,zero,.L38
  88:src/cpp/memory_allocator.cpp ****             prev->next = newsgm;
 451              		.loc 1 88 13
 452              		.loc 1 88 24 is_stmt 0
 453 0294 23B04401 		sd	s4,0(s1)
  89:src/cpp/memory_allocator.cpp ****             mergeWithNext(prev);
 454              		.loc 1 89 13 is_stmt 1
 455              		.loc 1 89 26 is_stmt 0
 456 0298 93850400 		mv	a1,s1
 457 029c 13850900 		mv	a0,s3
 458 02a0 97000000 		call	_ZN15MemoryAllocator13mergeWithNextEP11FreeSegment
 458      E7800000 
 459              	.LVL38:
 460              	.LBE5:
 461              	.LBE3:
  90:src/cpp/memory_allocator.cpp ****         }
  91:src/cpp/memory_allocator.cpp ****         else
  92:src/cpp/memory_allocator.cpp ****             fmem_head = newsgm;
  93:src/cpp/memory_allocator.cpp ****     }
  94:src/cpp/memory_allocator.cpp ****     return 0;
 462              		.loc 1 94 12
 463 02a8 13050000 		li	a0,0
 464              	.LVL39:
 465              	.L31:
  95:src/cpp/memory_allocator.cpp **** }
 466              		.loc 1 95 1
 467 02ac 83308102 		ld	ra,40(sp)
 468              		.cfi_remember_state
 469              		.cfi_restore 1
 470 02b0 03340102 		ld	s0,32(sp)
 471              		.cfi_restore 8
 472              		.cfi_def_cfa 2, 48
 473 02b4 83348101 		ld	s1,24(sp)
 474              		.cfi_restore 9
 475 02b8 03390101 		ld	s2,16(sp)
 476              		.cfi_restore 18
 477 02bc 83398100 		ld	s3,8(sp)
 478              		.cfi_restore 19
GAS LISTING /tmp/cc6TWgky.s 			page 12


 479              	.LVL40:
 480 02c0 033A0100 		ld	s4,0(sp)
 481              		.cfi_restore 20
 482 02c4 13010103 		addi	sp,sp,48
 483              		.cfi_def_cfa_offset 0
 484 02c8 67800000 		jr	ra
 485              	.LVL41:
 486              	.L38:
 487              		.cfi_restore_state
 488              	.LBB7:
 489              	.LBB6:
  92:src/cpp/memory_allocator.cpp ****     }
 490              		.loc 1 92 13 is_stmt 1
  92:src/cpp/memory_allocator.cpp ****     }
 491              		.loc 1 92 23 is_stmt 0
 492 02cc 23B44901 		sd	s4,8(s3)
 493              	.LBE6:
 494              	.LBE7:
  94:src/cpp/memory_allocator.cpp **** }
 495              		.loc 1 94 12
 496 02d0 13050000 		li	a0,0
 497 02d4 6FF09FFD 		j	.L31
 498              	.LVL42:
 499              	.L39:
  74:src/cpp/memory_allocator.cpp ****     if(!fmem_head)
 500              		.loc 1 74 41
 501 02d8 1305F0FF 		li	a0,-1
 502 02dc 6FF01FFD 		j	.L31
 503              		.cfi_endproc
 504              	.LFE29:
 506              		.align	2
 507              		.globl	_ZN15MemoryAllocator10print_listEv
 509              	_ZN15MemoryAllocator10print_listEv:
 510              	.LFB30:
  96:src/cpp/memory_allocator.cpp **** 
  97:src/cpp/memory_allocator.cpp **** void MemoryAllocator::print_list(){
 511              		.loc 1 97 35 is_stmt 1
 512              		.cfi_startproc
 513              	.LVL43:
 514 02e0 130101FE 		addi	sp,sp,-32
 515              		.cfi_def_cfa_offset 32
 516 02e4 233C1100 		sd	ra,24(sp)
 517 02e8 23388100 		sd	s0,16(sp)
 518 02ec 23349100 		sd	s1,8(sp)
 519              		.cfi_offset 1, -8
 520              		.cfi_offset 8, -16
 521              		.cfi_offset 9, -24
 522 02f0 13040102 		addi	s0,sp,32
 523              		.cfi_def_cfa 8, 0
 524 02f4 93040500 		mv	s1,a0
  98:src/cpp/memory_allocator.cpp ****     //print("MEM_BLOCK_SIZE: ", ' ');
  99:src/cpp/memory_allocator.cpp ****     //print(MEM_BLOCK_SIZE, '\n', 0);
 100:src/cpp/memory_allocator.cpp ****     print("------Free Segment Lista------");
 525              		.loc 1 100 5
 526              		.loc 1 100 10 is_stmt 0
 527 02f8 9305A000 		li	a1,10
 528 02fc 17050000 		lla	a0,.LC0
GAS LISTING /tmp/cc6TWgky.s 			page 13


 528      13050500 
 529              	.LVL44:
 530 0304 97000000 		call	_Z5printPKcc
 530      E7800000 
 531              	.LVL45:
 101:src/cpp/memory_allocator.cpp ****     if(!fmem_head)
 532              		.loc 1 101 5 is_stmt 1
 533              		.loc 1 101 9 is_stmt 0
 534 030c 83B78400 		ld	a5,8(s1)
 535              		.loc 1 101 5
 536 0310 63840704 		beq	a5,zero,.L47
 537              	.L43:
 102:src/cpp/memory_allocator.cpp ****         print("LISTA JE PRAZNA!");
 103:src/cpp/memory_allocator.cpp ****     for(FreeSegment* curr = fmem_head; curr; curr = curr->next){
 538              		.loc 1 103 5 is_stmt 1
 539              	.LBB8:
 540              		.loc 1 103 22 is_stmt 0
 541 0314 83B48400 		ld	s1,8(s1)
 542              	.LVL46:
 543              	.L45:
 544              		.loc 1 103 40 discriminator 3
 545 0318 638C0404 		beq	s1,zero,.L44
 104:src/cpp/memory_allocator.cpp ****         print((uint64)curr, '\n', 0);
 546              		.loc 1 104 9 is_stmt 1 discriminator 2
 547              		.loc 1 104 14 is_stmt 0 discriminator 2
 548 031c 13060000 		li	a2,0
 549 0320 9305A000 		li	a1,10
 550 0324 13850400 		mv	a0,s1
 551 0328 97000000 		call	_Z5printmcb
 551      E7800000 
 552              	.LVL47:
 105:src/cpp/memory_allocator.cpp ****         print((uint64)curr->size, '\n', 0);
 553              		.loc 1 105 9 is_stmt 1 discriminator 2
 554              		.loc 1 105 14 is_stmt 0 discriminator 2
 555 0330 13060000 		li	a2,0
 556 0334 9305A000 		li	a1,10
 557 0338 03B58400 		ld	a0,8(s1)
 558 033c 97000000 		call	_Z5printmcb
 558      E7800000 
 559              	.LVL48:
 106:src/cpp/memory_allocator.cpp ****         __putc('\n');
 560              		.loc 1 106 9 is_stmt 1 discriminator 2
 561              		.loc 1 106 15 is_stmt 0 discriminator 2
 562 0344 1305A000 		li	a0,10
 563 0348 97000000 		call	__putc
 563      E7800000 
 564              	.LVL49:
 103:src/cpp/memory_allocator.cpp ****         print((uint64)curr, '\n', 0);
 565              		.loc 1 103 51 discriminator 2
 566 0350 83B40400 		ld	s1,0(s1)
 567              	.LVL50:
 103:src/cpp/memory_allocator.cpp ****         print((uint64)curr, '\n', 0);
 568              		.loc 1 103 5 discriminator 2
 569 0354 6FF05FFC 		j	.L45
 570              	.LVL51:
 571              	.L47:
 572              	.LBE8:
GAS LISTING /tmp/cc6TWgky.s 			page 14


 102:src/cpp/memory_allocator.cpp ****     for(FreeSegment* curr = fmem_head; curr; curr = curr->next){
 573              		.loc 1 102 9 is_stmt 1
 102:src/cpp/memory_allocator.cpp ****     for(FreeSegment* curr = fmem_head; curr; curr = curr->next){
 574              		.loc 1 102 14 is_stmt 0
 575 0358 9305A000 		li	a1,10
 576 035c 17050000 		lla	a0,.LC1
 576      13050500 
 577 0364 97000000 		call	_Z5printPKcc
 577      E7800000 
 578              	.LVL52:
 579 036c 6FF09FFA 		j	.L43
 580              	.LVL53:
 581              	.L44:
 107:src/cpp/memory_allocator.cpp ****     }
 108:src/cpp/memory_allocator.cpp ****     print("------------------------------");
 582              		.loc 1 108 5 is_stmt 1
 583              		.loc 1 108 10 is_stmt 0
 584 0370 9305A000 		li	a1,10
 585 0374 17050000 		lla	a0,.LC2
 585      13050500 
 586 037c 97000000 		call	_Z5printPKcc
 586      E7800000 
 587              	.LVL54:
 109:src/cpp/memory_allocator.cpp **** }
 588              		.loc 1 109 1
 589 0384 83308101 		ld	ra,24(sp)
 590              		.cfi_restore 1
 591 0388 03340101 		ld	s0,16(sp)
 592              		.cfi_restore 8
 593              		.cfi_def_cfa 2, 32
 594 038c 83348100 		ld	s1,8(sp)
 595              		.cfi_restore 9
 596              	.LVL55:
 597 0390 13010102 		addi	sp,sp,32
 598              		.cfi_def_cfa_offset 0
 599 0394 67800000 		jr	ra
 600              		.cfi_endproc
 601              	.LFE30:
 603              		.globl	_ZN15MemoryAllocator9allocatorE
 604              		.bss
 605              		.align	3
 606              		.set	.LANCHOR0,. + 0
 609              	_ZN15MemoryAllocator9allocatorE:
 610 0000 00000000 		.zero	16
 610      00000000 
 610      00000000 
 610      00000000 
 611              		.section	.rodata.str1.8,"aMS",@progbits,1
 612              		.align	3
 613              	.LC0:
 614 0000 2D2D2D2D 		.string	"------Free Segment Lista------"
 614      2D2D4672 
 614      65652053 
 614      65676D65 
 614      6E74204C 
 615 001f 00       		.zero	1
 616              	.LC1:
GAS LISTING /tmp/cc6TWgky.s 			page 15


 617 0020 4C495354 		.string	"LISTA JE PRAZNA!"
 617      41204A45 
 617      20505241 
 617      5A4E4121 
 617      00
 618 0031 00000000 		.zero	7
 618      000000
 619              	.LC2:
 620 0038 2D2D2D2D 		.string	"------------------------------"
 620      2D2D2D2D 
 620      2D2D2D2D 
 620      2D2D2D2D 
 620      2D2D2D2D 
 621              		.text
 622              	.Letext0:
 623              		.file 2 "src/cpp/../../h/../lib/hw.h"
 624              		.file 3 "src/cpp/../../h/memory_allocator.hpp"
 625              		.file 4 "src/cpp/../../h/testing.hpp"
 626              		.file 5 "src/cpp/../../h/../lib/console.h"
GAS LISTING /tmp/cc6TWgky.s 			page 16

