GAS LISTING /tmp/ccEIowlA.s 			page 1


   1              		.file	"ptr_queue.cpp"
   2              		.option nopic
   3              		.option norelax
   4              		.attribute arch, "rv64i2p0_m2p0_a2p0"
   5              		.attribute unaligned_access, 0
   6              		.attribute stack_align, 16
   7              		.text
   8              	.Ltext0:
   9              		.align	2
  10              		.globl	_ZNK8TcbQueue6existsEP3TCB
  12              	_ZNK8TcbQueue6existsEP3TCB:
  13              	.LFB25:
  14              		.file 1 "src/cpp/ptr_queue.cpp"
   1:src/cpp/ptr_queue.cpp **** #include"../../h/ptr_queue.hpp"
   2:src/cpp/ptr_queue.cpp **** #include"../../h/testing.hpp"
   3:src/cpp/ptr_queue.cpp **** bool TcbQueue::exists(TCB* info) const 
   4:src/cpp/ptr_queue.cpp **** {
  15              		.loc 1 4 1
  16              		.cfi_startproc
  17              	.LVL0:
  18 0000 130101FF 		addi	sp,sp,-16
  19              		.cfi_def_cfa_offset 16
  20 0004 23348100 		sd	s0,8(sp)
  21              		.cfi_offset 8, -8
  22 0008 13040101 		addi	s0,sp,16
  23              		.cfi_def_cfa 8, 0
   5:src/cpp/ptr_queue.cpp ****     for(TCB* node = head; node; node = node->next)
  24              		.loc 1 5 5
  25              	.LBB2:
  26              		.loc 1 5 14 is_stmt 0
  27 000c 83370500 		ld	a5,0(a0)
  28              	.LVL1:
  29              	.L3:
  30              		.loc 1 5 27 discriminator 1
  31 0010 63880700 		beq	a5,zero,.L4
   6:src/cpp/ptr_queue.cpp ****     {
   7:src/cpp/ptr_queue.cpp ****         if(node == info)
  32              		.loc 1 7 9 is_stmt 1
  33 0014 638EB700 		beq	a5,a1,.L5
   5:src/cpp/ptr_queue.cpp ****     for(TCB* node = head; node; node = node->next)
  34              		.loc 1 5 38 is_stmt 0 discriminator 2
  35 0018 83B70700 		ld	a5,0(a5)
  36              	.LVL2:
   5:src/cpp/ptr_queue.cpp ****     for(TCB* node = head; node; node = node->next)
  37              		.loc 1 5 5 discriminator 2
  38 001c 6FF05FFF 		j	.L3
  39              	.L4:
  40              	.LBE2:
   8:src/cpp/ptr_queue.cpp ****             return true;
   9:src/cpp/ptr_queue.cpp ****     }
  10:src/cpp/ptr_queue.cpp ****     return false;
  41              		.loc 1 10 12
  42 0020 13050000 		li	a0,0
  43              	.LVL3:
  44              	.L2:
  11:src/cpp/ptr_queue.cpp **** }
  45              		.loc 1 11 1
GAS LISTING /tmp/ccEIowlA.s 			page 2


  46 0024 03348100 		ld	s0,8(sp)
  47              		.cfi_remember_state
  48              		.cfi_restore 8
  49              		.cfi_def_cfa 2, 16
  50 0028 13010101 		addi	sp,sp,16
  51              		.cfi_def_cfa_offset 0
  52 002c 67800000 		jr	ra
  53              	.LVL4:
  54              	.L5:
  55              		.cfi_restore_state
  56              	.LBB3:
   8:src/cpp/ptr_queue.cpp ****             return true;
  57              		.loc 1 8 20
  58 0030 13051000 		li	a0,1
  59              	.LVL5:
  60 0034 6FF01FFF 		j	.L2
  61              	.LBE3:
  62              		.cfi_endproc
  63              	.LFE25:
  65              		.align	2
  66              		.globl	_ZN8TcbQueue6insertEP3TCB
  68              	_ZN8TcbQueue6insertEP3TCB:
  69              	.LFB26:
  12:src/cpp/ptr_queue.cpp **** 
  13:src/cpp/ptr_queue.cpp **** TcbQueue& TcbQueue::insert(TCB* info)
  14:src/cpp/ptr_queue.cpp **** {
  70              		.loc 1 14 1 is_stmt 1
  71              		.cfi_startproc
  72              	.LVL6:
  73 0038 130101FF 		addi	sp,sp,-16
  74              		.cfi_def_cfa_offset 16
  75 003c 23348100 		sd	s0,8(sp)
  76              		.cfi_offset 8, -8
  77 0040 13040101 		addi	s0,sp,16
  78              		.cfi_def_cfa 8, 0
  15:src/cpp/ptr_queue.cpp ****     info->next = nullptr;
  79              		.loc 1 15 5
  80              		.loc 1 15 16 is_stmt 0
  81 0044 23B00500 		sd	zero,0(a1)
  16:src/cpp/ptr_queue.cpp ****     tail = tail==nullptr?(head = info):(tail->next = info);
  82              		.loc 1 16 5 is_stmt 1
  83              		.loc 1 16 12 is_stmt 0
  84 0048 83378500 		ld	a5,8(a0)
  85              		.loc 1 16 25
  86 004c 638C0700 		beq	a5,zero,.L11
  87              		.loc 1 16 52 discriminator 2
  88 0050 23B0B700 		sd	a1,0(a5)
  89              	.L9:
  90              		.loc 1 16 10 discriminator 4
  91 0054 2334B500 		sd	a1,8(a0)
  17:src/cpp/ptr_queue.cpp ****     return *this;
  92              		.loc 1 17 5 is_stmt 1 discriminator 4
  18:src/cpp/ptr_queue.cpp **** }
  93              		.loc 1 18 1 is_stmt 0 discriminator 4
  94 0058 03348100 		ld	s0,8(sp)
  95              		.cfi_remember_state
  96              		.cfi_restore 8
GAS LISTING /tmp/ccEIowlA.s 			page 3


  97              		.cfi_def_cfa 2, 16
  98 005c 13010101 		addi	sp,sp,16
  99              		.cfi_def_cfa_offset 0
 100 0060 67800000 		jr	ra
 101              	.L11:
 102              		.cfi_restore_state
  16:src/cpp/ptr_queue.cpp ****     tail = tail==nullptr?(head = info):(tail->next = info);
 103              		.loc 1 16 32 discriminator 1
 104 0064 2330B500 		sd	a1,0(a0)
 105 0068 6FF0DFFE 		j	.L9
 106              		.cfi_endproc
 107              	.LFE26:
 109              		.align	2
 110              		.globl	_ZN8TcbQueue6removeEv
 112              	_ZN8TcbQueue6removeEv:
 113              	.LFB27:
  19:src/cpp/ptr_queue.cpp ****    
  20:src/cpp/ptr_queue.cpp **** TCB* TcbQueue::remove(){
 114              		.loc 1 20 24 is_stmt 1
 115              		.cfi_startproc
 116              	.LVL7:
 117 006c 130101FF 		addi	sp,sp,-16
 118              		.cfi_def_cfa_offset 16
 119 0070 23348100 		sd	s0,8(sp)
 120              		.cfi_offset 8, -8
 121 0074 13040101 		addi	s0,sp,16
 122              		.cfi_def_cfa 8, 0
  21:src/cpp/ptr_queue.cpp ****     if(head!=nullptr){
 123              		.loc 1 21 5
 124              	.LBB4:
 125              		.loc 1 21 8 is_stmt 0
 126 0078 83370500 		ld	a5,0(a0)
 127              		.loc 1 21 5
 128 007c 638C0700 		beq	a5,zero,.L12
 129              	.LBB5:
  22:src/cpp/ptr_queue.cpp ****         TCB* ret = head;
 130              		.loc 1 22 9 is_stmt 1
 131              	.LVL8:
  23:src/cpp/ptr_queue.cpp ****         head = head==tail?(tail = nullptr):head->next;
 132              		.loc 1 23 9
 133              		.loc 1 23 22 is_stmt 0
 134 0080 03378500 		ld	a4,8(a0)
 135              		.loc 1 23 26
 136 0084 6380E702 		beq	a5,a4,.L17
 137              		.loc 1 23 26 discriminator 2
 138 0088 03B70700 		ld	a4,0(a5)
 139              	.L15:
 140              		.loc 1 23 14 discriminator 4
 141 008c 2330E500 		sd	a4,0(a0)
  24:src/cpp/ptr_queue.cpp ****         ret->next = nullptr;
 142              		.loc 1 24 9 is_stmt 1 discriminator 4
 143              		.loc 1 24 19 is_stmt 0 discriminator 4
 144 0090 23B00700 		sd	zero,0(a5)
  25:src/cpp/ptr_queue.cpp ****         return ret;            
 145              		.loc 1 25 9 is_stmt 1 discriminator 4
 146              	.LVL9:
 147              	.L12:
GAS LISTING /tmp/ccEIowlA.s 			page 4


 148              	.LBE5:
 149              	.LBE4:
  26:src/cpp/ptr_queue.cpp ****     }
  27:src/cpp/ptr_queue.cpp ****     return nullptr;
  28:src/cpp/ptr_queue.cpp **** }
 150              		.loc 1 28 1 is_stmt 0
 151 0094 13850700 		mv	a0,a5
 152              	.LVL10:
 153 0098 03348100 		ld	s0,8(sp)
 154              		.cfi_remember_state
 155              		.cfi_restore 8
 156              		.cfi_def_cfa 2, 16
 157 009c 13010101 		addi	sp,sp,16
 158              		.cfi_def_cfa_offset 0
 159 00a0 67800000 		jr	ra
 160              	.LVL11:
 161              	.L17:
 162              		.cfi_restore_state
 163              	.LBB7:
 164              	.LBB6:
  23:src/cpp/ptr_queue.cpp ****         ret->next = nullptr;
 165              		.loc 1 23 33 discriminator 1
 166 00a4 23340500 		sd	zero,8(a0)
  23:src/cpp/ptr_queue.cpp ****         ret->next = nullptr;
 167              		.loc 1 23 26 discriminator 1
 168 00a8 13070000 		li	a4,0
 169 00ac 6FF01FFE 		j	.L15
 170              	.LBE6:
 171              	.LBE7:
 172              		.cfi_endproc
 173              	.LFE27:
 175              		.align	2
 176              		.globl	_ZN8TcbQueue3topEv
 178              	_ZN8TcbQueue3topEv:
 179              	.LFB28:
  29:src/cpp/ptr_queue.cpp **** 
  30:src/cpp/ptr_queue.cpp **** TCB* TcbQueue::top(){
 180              		.loc 1 30 21 is_stmt 1
 181              		.cfi_startproc
 182              	.LVL12:
 183 00b0 130101FF 		addi	sp,sp,-16
 184              		.cfi_def_cfa_offset 16
 185 00b4 23348100 		sd	s0,8(sp)
 186              		.cfi_offset 8, -8
 187 00b8 13040101 		addi	s0,sp,16
 188              		.cfi_def_cfa 8, 0
  31:src/cpp/ptr_queue.cpp ****     return head;
 189              		.loc 1 31 5
  32:src/cpp/ptr_queue.cpp **** }
 190              		.loc 1 32 1 is_stmt 0
 191 00bc 03350500 		ld	a0,0(a0)
 192              	.LVL13:
 193 00c0 03348100 		ld	s0,8(sp)
 194              		.cfi_restore 8
 195              		.cfi_def_cfa 2, 16
 196 00c4 13010101 		addi	sp,sp,16
 197              		.cfi_def_cfa_offset 0
GAS LISTING /tmp/ccEIowlA.s 			page 5


 198 00c8 67800000 		jr	ra
 199              		.cfi_endproc
 200              	.LFE28:
 202              		.align	2
 203              		.globl	_ZN8TcbQueue10printQueueEv
 205              	_ZN8TcbQueue10printQueueEv:
 206              	.LFB29:
  33:src/cpp/ptr_queue.cpp **** 
  34:src/cpp/ptr_queue.cpp **** void TcbQueue::printQueue(){
 207              		.loc 1 34 28 is_stmt 1
 208              		.cfi_startproc
 209              	.LVL14:
 210 00cc 130101FE 		addi	sp,sp,-32
 211              		.cfi_def_cfa_offset 32
 212 00d0 233C1100 		sd	ra,24(sp)
 213 00d4 23388100 		sd	s0,16(sp)
 214 00d8 23349100 		sd	s1,8(sp)
 215              		.cfi_offset 1, -8
 216              		.cfi_offset 8, -16
 217              		.cfi_offset 9, -24
 218 00dc 13040102 		addi	s0,sp,32
 219              		.cfi_def_cfa 8, 0
  35:src/cpp/ptr_queue.cpp ****     TCB* t = head;
 220              		.loc 1 35 5
 221              		.loc 1 35 10 is_stmt 0
 222 00e0 83340500 		ld	s1,0(a0)
 223              	.LVL15:
 224              	.L22:
  36:src/cpp/ptr_queue.cpp ****     while(t){
 225              		.loc 1 36 5 is_stmt 1
 226              		.loc 1 36 11 is_stmt 0
 227 00e4 638A0402 		beq	s1,zero,.L21
  37:src/cpp/ptr_queue.cpp ****         print("->",' ');
 228              		.loc 1 37 9 is_stmt 1
 229              		.loc 1 37 14 is_stmt 0
 230 00e8 93050002 		li	a1,32
 231 00ec 17050000 		lla	a0,.LC0
 231      13050500 
 232 00f4 97000000 		call	_Z5printPKcc
 232      E7800000 
 233              	.LVL16:
  38:src/cpp/ptr_queue.cpp ****         print((uint64)t, ' ', 0);
 234              		.loc 1 38 9 is_stmt 1
 235              		.loc 1 38 14 is_stmt 0
 236 00fc 13060000 		li	a2,0
 237 0100 93050002 		li	a1,32
 238 0104 13850400 		mv	a0,s1
 239 0108 97000000 		call	_Z5printmcb
 239      E7800000 
 240              	.LVL17:
  39:src/cpp/ptr_queue.cpp ****         t = t->next;            
 241              		.loc 1 39 9 is_stmt 1
 242              		.loc 1 39 11 is_stmt 0
 243 0110 83B40400 		ld	s1,0(s1)
 244              	.LVL18:
  36:src/cpp/ptr_queue.cpp ****         print("->",' ');
 245              		.loc 1 36 5
GAS LISTING /tmp/ccEIowlA.s 			page 6


 246 0114 6FF01FFD 		j	.L22
 247              	.L21:
  40:src/cpp/ptr_queue.cpp ****     }
  41:src/cpp/ptr_queue.cpp ****     print("");
 248              		.loc 1 41 5 is_stmt 1
 249              		.loc 1 41 10 is_stmt 0
 250 0118 9305A000 		li	a1,10
 251 011c 17050000 		lla	a0,.LC1
 251      13050500 
 252 0124 97000000 		call	_Z5printPKcc
 252      E7800000 
 253              	.LVL19:
  42:src/cpp/ptr_queue.cpp **** }
 254              		.loc 1 42 1
 255 012c 83308101 		ld	ra,24(sp)
 256              		.cfi_restore 1
 257 0130 03340101 		ld	s0,16(sp)
 258              		.cfi_restore 8
 259              		.cfi_def_cfa 2, 32
 260 0134 83348100 		ld	s1,8(sp)
 261              		.cfi_restore 9
 262              	.LVL20:
 263 0138 13010102 		addi	sp,sp,32
 264              		.cfi_def_cfa_offset 0
 265 013c 67800000 		jr	ra
 266              		.cfi_endproc
 267              	.LFE29:
 269              		.align	2
 270              		.globl	_ZN8TcbQueue12insertSortedEP3TCBPFiS1_S1_E
 272              	_ZN8TcbQueue12insertSortedEP3TCBPFiS1_S1_E:
 273              	.LFB30:
  43:src/cpp/ptr_queue.cpp ****     
  44:src/cpp/ptr_queue.cpp **** void TcbQueue::insertSorted(TCB* info, int(*cmp)(TCB*, TCB*)){
 274              		.loc 1 44 62 is_stmt 1
 275              		.cfi_startproc
 276              	.LVL21:
 277 0140 130101FC 		addi	sp,sp,-64
 278              		.cfi_def_cfa_offset 64
 279 0144 233C1102 		sd	ra,56(sp)
 280 0148 23388102 		sd	s0,48(sp)
 281 014c 23349102 		sd	s1,40(sp)
 282 0150 23302103 		sd	s2,32(sp)
 283 0154 233C3101 		sd	s3,24(sp)
 284 0158 23384101 		sd	s4,16(sp)
 285 015c 23345101 		sd	s5,8(sp)
 286              		.cfi_offset 1, -8
 287              		.cfi_offset 8, -16
 288              		.cfi_offset 9, -24
 289              		.cfi_offset 18, -32
 290              		.cfi_offset 19, -40
 291              		.cfi_offset 20, -48
 292              		.cfi_offset 21, -56
 293 0160 13040104 		addi	s0,sp,64
 294              		.cfi_def_cfa 8, 0
 295 0164 930A0500 		mv	s5,a0
 296 0168 13890500 		mv	s2,a1
 297 016c 130A0600 		mv	s4,a2
GAS LISTING /tmp/ccEIowlA.s 			page 7


  45:src/cpp/ptr_queue.cpp ****     TCB* prev = nullptr,* cur = head;
 298              		.loc 1 45 5
 299              	.LVL22:
 300              		.loc 1 45 27 is_stmt 0
 301 0170 83340500 		ld	s1,0(a0)
 302              	.LVL23:
 303              		.loc 1 45 10
 304 0174 93090000 		li	s3,0
 305              	.LVL24:
 306              	.L26:
  46:src/cpp/ptr_queue.cpp ****     while(cur && cmp(info, cur) >= 0){
 307              		.loc 1 46 5 is_stmt 1
 308              		.loc 1 46 15 is_stmt 0
 309 0178 63800402 		beq	s1,zero,.L25
 310              		.loc 1 46 21 discriminator 1
 311 017c 93850400 		mv	a1,s1
 312 0180 13050900 		mv	a0,s2
 313 0184 E7000A00 		jalr	s4
 314              	.LVL25:
 315              		.loc 1 46 15 discriminator 1
 316 0188 63480500 		blt	a0,zero,.L25
  47:src/cpp/ptr_queue.cpp ****         prev = cur;
 317              		.loc 1 47 9 is_stmt 1
 318              	.LVL26:
  48:src/cpp/ptr_queue.cpp ****         cur = cur->next;
 319              		.loc 1 48 9
  47:src/cpp/ptr_queue.cpp ****         prev = cur;
 320              		.loc 1 47 14 is_stmt 0
 321 018c 93890400 		mv	s3,s1
 322              		.loc 1 48 13
 323 0190 83B40400 		ld	s1,0(s1)
 324              	.LVL27:
  46:src/cpp/ptr_queue.cpp ****     while(cur && cmp(info, cur) >= 0){
 325              		.loc 1 46 5
 326 0194 6FF05FFE 		j	.L26
 327              	.L25:
  49:src/cpp/ptr_queue.cpp ****     }
  50:src/cpp/ptr_queue.cpp ****     if(!prev){
 328              		.loc 1 50 5 is_stmt 1 discriminator 4
 329 0198 638A0902 		beq	s3,zero,.L32
  51:src/cpp/ptr_queue.cpp ****         info->next = head;
  52:src/cpp/ptr_queue.cpp ****         head = head==nullptr?(tail = info):info; 
  53:src/cpp/ptr_queue.cpp ****     }else{
  54:src/cpp/ptr_queue.cpp ****         info->next = cur;
 330              		.loc 1 54 9
 331              		.loc 1 54 20 is_stmt 0
 332 019c 23309900 		sd	s1,0(s2)
  55:src/cpp/ptr_queue.cpp ****         prev->next = cur==nullptr?(tail=info):info;
 333              		.loc 1 55 9 is_stmt 1
 334              		.loc 1 55 34 is_stmt 0
 335 01a0 63840404 		beq	s1,zero,.L33
 336              	.L30:
 337              		.loc 1 55 20 discriminator 4
 338 01a4 23B02901 		sd	s2,0(s3)
 339              	.L24:
  56:src/cpp/ptr_queue.cpp ****     }
  57:src/cpp/ptr_queue.cpp **** }
GAS LISTING /tmp/ccEIowlA.s 			page 8


 340              		.loc 1 57 1
 341 01a8 83308103 		ld	ra,56(sp)
 342              		.cfi_remember_state
 343              		.cfi_restore 1
 344 01ac 03340103 		ld	s0,48(sp)
 345              		.cfi_restore 8
 346              		.cfi_def_cfa 2, 64
 347 01b0 83348102 		ld	s1,40(sp)
 348              		.cfi_restore 9
 349              	.LVL28:
 350 01b4 03390102 		ld	s2,32(sp)
 351              		.cfi_restore 18
 352              	.LVL29:
 353 01b8 83398101 		ld	s3,24(sp)
 354              		.cfi_restore 19
 355              	.LVL30:
 356 01bc 033A0101 		ld	s4,16(sp)
 357              		.cfi_restore 20
 358              	.LVL31:
 359 01c0 833A8100 		ld	s5,8(sp)
 360              		.cfi_restore 21
 361              	.LVL32:
 362 01c4 13010104 		addi	sp,sp,64
 363              		.cfi_def_cfa_offset 0
 364 01c8 67800000 		jr	ra
 365              	.LVL33:
 366              	.L32:
 367              		.cfi_restore_state
  51:src/cpp/ptr_queue.cpp ****         head = head==nullptr?(tail = info):info; 
 368              		.loc 1 51 9 is_stmt 1
  51:src/cpp/ptr_queue.cpp ****         head = head==nullptr?(tail = info):info; 
 369              		.loc 1 51 22 is_stmt 0
 370 01cc 83B70A00 		ld	a5,0(s5)
  51:src/cpp/ptr_queue.cpp ****         head = head==nullptr?(tail = info):info; 
 371              		.loc 1 51 20
 372 01d0 2330F900 		sd	a5,0(s2)
  52:src/cpp/ptr_queue.cpp ****     }else{
 373              		.loc 1 52 9 is_stmt 1
  52:src/cpp/ptr_queue.cpp ****     }else{
 374              		.loc 1 52 29 is_stmt 0
 375 01d4 63860700 		beq	a5,zero,.L34
 376              	.L28:
  52:src/cpp/ptr_queue.cpp ****     }else{
 377              		.loc 1 52 14 discriminator 4
 378 01d8 23B02A01 		sd	s2,0(s5)
 379 01dc 6FF0DFFC 		j	.L24
 380              	.L34:
  52:src/cpp/ptr_queue.cpp ****     }else{
 381              		.loc 1 52 36 discriminator 1
 382 01e0 23B42A01 		sd	s2,8(s5)
 383 01e4 6FF05FFF 		j	.L28
 384              	.L33:
  55:src/cpp/ptr_queue.cpp ****     }
 385              		.loc 1 55 40 discriminator 1
 386 01e8 23B42A01 		sd	s2,8(s5)
 387 01ec 6FF09FFB 		j	.L30
 388              		.cfi_endproc
GAS LISTING /tmp/ccEIowlA.s 			page 9


 389              	.LFE30:
 391              		.align	2
 392              		.globl	_ZN8TcbQueue11insertFrontEP3TCB
 394              	_ZN8TcbQueue11insertFrontEP3TCB:
 395              	.LFB31:
  58:src/cpp/ptr_queue.cpp **** 
  59:src/cpp/ptr_queue.cpp **** void TcbQueue::insertFront(TCB* info){
 396              		.loc 1 59 38 is_stmt 1
 397              		.cfi_startproc
 398              	.LVL34:
 399 01f0 130101FF 		addi	sp,sp,-16
 400              		.cfi_def_cfa_offset 16
 401 01f4 23348100 		sd	s0,8(sp)
 402              		.cfi_offset 8, -8
 403 01f8 13040101 		addi	s0,sp,16
 404              		.cfi_def_cfa 8, 0
  60:src/cpp/ptr_queue.cpp ****     info->next = head;
 405              		.loc 1 60 5
 406              		.loc 1 60 18 is_stmt 0
 407 01fc 83370500 		ld	a5,0(a0)
 408              		.loc 1 60 16
 409 0200 23B0F500 		sd	a5,0(a1)
  61:src/cpp/ptr_queue.cpp ****     head = head==nullptr?(tail = info):info;
 410              		.loc 1 61 5 is_stmt 1
 411              		.loc 1 61 25 is_stmt 0
 412 0204 638A0700 		beq	a5,zero,.L38
 413              	.L36:
 414              		.loc 1 61 10 discriminator 4
 415 0208 2330B500 		sd	a1,0(a0)
  62:src/cpp/ptr_queue.cpp **** }...
 416              		.loc 1 62 1 discriminator 4
 417 020c 03348100 		ld	s0,8(sp)
 418              		.cfi_remember_state
 419              		.cfi_restore 8
 420              		.cfi_def_cfa 2, 16
 421 0210 13010101 		addi	sp,sp,16
 422              		.cfi_def_cfa_offset 0
 423 0214 67800000 		jr	ra
 424              	.L38:
 425              		.cfi_restore_state
  61:src/cpp/ptr_queue.cpp ****     head = head==nullptr?(tail = info):info;
 426              		.loc 1 61 32 discriminator 1
 427 0218 2334B500 		sd	a1,8(a0)
 428 021c 6FF0DFFE 		j	.L36
 429              		.cfi_endproc
 430              	.LFE31:
 432              		.section	.rodata.str1.8,"aMS",@progbits,1
 433              		.align	3
 434              	.LC0:
 435 0000 2D3E00   		.string	"->"
 436 0003 00000000 		.zero	5
 436      00
 437              	.LC1:
 438 0008 00       		.string	""
 439              		.text
 440              	.Letext0:
 441              		.file 2 "src/cpp/../../h/../h/../h/../lib/hw.h"
GAS LISTING /tmp/ccEIowlA.s 			page 10


 442              		.file 3 "src/cpp/../../h/../h/tcb.hpp"
 443              		.file 4 "src/cpp/../../h/../h/../h/kernel_operators.hpp"
 444              		.file 5 "src/cpp/../../h/ptr_queue.hpp"
 445              		.file 6 "src/cpp/../../h/../h/kernel_operators.hpp"
 446              		.file 7 "src/cpp/../../h/testing.hpp"
GAS LISTING /tmp/ccEIowlA.s 			page 11

