GAS LISTING /tmp/ccIEzqIP.s 			page 1


   1              		.file	"scheduler.cpp"
   2              		.option nopic
   3              		.option norelax
   4              		.attribute arch, "rv64i2p0_m2p0_a2p0"
   5              		.attribute unaligned_access, 0
   6              		.attribute stack_align, 16
   7              		.text
   8              	.Ltext0:
   9              		.align	2
  10              		.globl	_ZN9Scheduler9initalizeEv
  12              	_ZN9Scheduler9initalizeEv:
  13              	.LFB52:
  14              		.file 1 "src/cpp/scheduler.cpp"
   1:src/cpp/scheduler.cpp **** #include"../../h/scheduler.hpp"
   2:src/cpp/scheduler.cpp **** 
   3:src/cpp/scheduler.cpp **** PtrQueue<TCB>* Scheduler::queue = nullptr;
   4:src/cpp/scheduler.cpp **** 
   5:src/cpp/scheduler.cpp **** void Scheduler::initalize(){
  15              		.loc 1 5 28
  16              		.cfi_startproc
  17 0000 130101FF 		addi	sp,sp,-16
  18              		.cfi_def_cfa_offset 16
  19 0004 23341100 		sd	ra,8(sp)
  20 0008 23308100 		sd	s0,0(sp)
  21              		.cfi_offset 1, -8
  22              		.cfi_offset 8, -16
  23 000c 13040101 		addi	s0,sp,16
  24              		.cfi_def_cfa 8, 0
   6:src/cpp/scheduler.cpp ****     queue = new PtrQueue<TCB>();
  25              		.loc 1 6 5
  26              	.LVL0:
  27              	.LBB29:
  28              	.LBB30:
  29              		.file 2 "src/cpp/../../h/../h/../h/kernel_operators.hpp"
   1:src/cpp/../../h/../h/../h/kernel_operators.hpp **** void* operator new(size_t sz){return MemoryAllocator::getInstance().mem_alloc((sz-1)/MEM_BLOCK_SIZE
  30              		.loc 2 1 67 is_stmt 0
  31 0010 97000000 		call	_ZN15MemoryAllocator11getInstanceEv
  31      E7800000 
  32              	.LVL1:
  33              		.loc 2 1 78
  34 0018 93051000 		li	a1,1
  35 001c 97000000 		call	_ZN15MemoryAllocator9mem_allocEm
  35      E7800000 
  36              	.LVL2:
  37              	.LBE30:
  38              	.LBE29:
  39 0024 23300500 		sd	zero,0(a0)
  40 0028 23340500 		sd	zero,8(a0)
  41              		.loc 1 6 11
  42 002c 97070000 		sd	a0,_ZN9Scheduler5queueE,a5
  42      23B0A700 
   7:src/cpp/scheduler.cpp **** }
  43              		.loc 1 7 1
  44 0034 83308100 		ld	ra,8(sp)
  45              		.cfi_restore 1
  46 0038 03340100 		ld	s0,0(sp)
  47              		.cfi_restore 8
GAS LISTING /tmp/ccIEzqIP.s 			page 2


  48              		.cfi_def_cfa 2, 16
  49 003c 13010101 		addi	sp,sp,16
  50              		.cfi_def_cfa_offset 0
  51 0040 67800000 		jr	ra
  52              		.cfi_endproc
  53              	.LFE52:
  55              		.align	2
  56              		.globl	_ZN9Scheduler3getEv
  58              	_ZN9Scheduler3getEv:
  59              	.LFB53:
   8:src/cpp/scheduler.cpp **** 
   9:src/cpp/scheduler.cpp **** TCB* Scheduler::get(){
  60              		.loc 1 9 22 is_stmt 1
  61              		.cfi_startproc
  62 0044 130101FE 		addi	sp,sp,-32
  63              		.cfi_def_cfa_offset 32
  64 0048 233C1100 		sd	ra,24(sp)
  65 004c 23388100 		sd	s0,16(sp)
  66 0050 23349100 		sd	s1,8(sp)
  67 0054 23302101 		sd	s2,0(sp)
  68              		.cfi_offset 1, -8
  69              		.cfi_offset 8, -16
  70              		.cfi_offset 9, -24
  71              		.cfi_offset 18, -32
  72 0058 13040102 		addi	s0,sp,32
  73              		.cfi_def_cfa 8, 0
  10:src/cpp/scheduler.cpp ****     return queue->remove();
  74              		.loc 1 10 5
  75              		.loc 1 10 25 is_stmt 0
  76 005c 97070000 		lla	a5,_ZN9Scheduler5queueE
  76      93870700 
  77 0064 83B70700 		ld	a5,0(a5)
  78              	.LVL3:
  79              	.LBB37:
  80              	.LBB38:
  81              	.LBB39:
  82              		.file 3 "src/cpp/../../h/../h/ptr_queue.hpp"
   1:src/cpp/../../h/../h/ptr_queue.hpp **** #ifndef _queue_h
   2:src/cpp/../../h/../h/ptr_queue.hpp **** #define _queue_h
   3:src/cpp/../../h/../h/ptr_queue.hpp **** 
   4:src/cpp/../../h/../h/ptr_queue.hpp **** #include"../h/memory_allocator.hpp"
   5:src/cpp/../../h/../h/ptr_queue.hpp **** #include "testing.hpp"
   6:src/cpp/../../h/../h/ptr_queue.hpp **** //#include"../h/testing.hpp"
   7:src/cpp/../../h/../h/ptr_queue.hpp **** template<typename T>
   8:src/cpp/../../h/../h/ptr_queue.hpp **** class PtrQueue{
   9:src/cpp/../../h/../h/ptr_queue.hpp ****        
  10:src/cpp/../../h/../h/ptr_queue.hpp ****     struct Node{
  11:src/cpp/../../h/../h/ptr_queue.hpp ****         #include"../h/kernel_operators.hpp"
  12:src/cpp/../../h/../h/ptr_queue.hpp ****         Node* next;
  13:src/cpp/../../h/../h/ptr_queue.hpp ****         T* info;
  14:src/cpp/../../h/../h/ptr_queue.hpp ****         Node(T* info = nullptr, Node* next = nullptr):next(next), info(info){}
  15:src/cpp/../../h/../h/ptr_queue.hpp ****     } *head, *tail;
  16:src/cpp/../../h/../h/ptr_queue.hpp **** 
  17:src/cpp/../../h/../h/ptr_queue.hpp ****     void brisi(){
  18:src/cpp/../../h/../h/ptr_queue.hpp ****         while(!isEmpty())
  19:src/cpp/../../h/../h/ptr_queue.hpp ****             remove();
  20:src/cpp/../../h/../h/ptr_queue.hpp ****     }
GAS LISTING /tmp/ccIEzqIP.s 			page 3


  21:src/cpp/../../h/../h/ptr_queue.hpp **** 
  22:src/cpp/../../h/../h/ptr_queue.hpp **** public:
  23:src/cpp/../../h/../h/ptr_queue.hpp ****     #include"../h/kernel_operators.hpp"
  24:src/cpp/../../h/../h/ptr_queue.hpp ****     //PtrQueue():head(nullptr), tail(nullptr){}
  25:src/cpp/../../h/../h/ptr_queue.hpp ****     
  26:src/cpp/../../h/../h/ptr_queue.hpp ****     PtrQueue& insert(T* info){
  27:src/cpp/../../h/../h/ptr_queue.hpp ****         Node* node = new Node(info);
  28:src/cpp/../../h/../h/ptr_queue.hpp ****         tail = tail==nullptr?(head = node):(tail->next = node);
  29:src/cpp/../../h/../h/ptr_queue.hpp ****         return *this;
  30:src/cpp/../../h/../h/ptr_queue.hpp ****     }
  31:src/cpp/../../h/../h/ptr_queue.hpp ****    
  32:src/cpp/../../h/../h/ptr_queue.hpp ****     T* remove(){
  33:src/cpp/../../h/../h/ptr_queue.hpp ****         if(head!=nullptr){
  83              		.loc 3 33 12
  84 0068 83B40700 		ld	s1,0(a5)
  85              		.loc 3 33 9
  86 006c 638A0404 		beq	s1,zero,.L7
  87              	.LBB40:
  34:src/cpp/../../h/../h/ptr_queue.hpp ****             T* ret = head->info;
  88              		.loc 3 34 16
  89 0070 03B98400 		ld	s2,8(s1)
  90              	.LVL4:
  35:src/cpp/../../h/../h/ptr_queue.hpp ****             Node* old = head;
  36:src/cpp/../../h/../h/ptr_queue.hpp ****             head = head==tail?(tail = nullptr):head->next;
  91              		.loc 3 36 26
  92 0074 03B78700 		ld	a4,8(a5)
  93              		.loc 3 36 30
  94 0078 638EE402 		beq	s1,a4,.L9
  95 007c 03B70400 		ld	a4,0(s1)
  96              	.L6:
  97              		.loc 3 36 13
  98 0080 23B0E700 		sd	a4,0(a5)
  99              	.LVL5:
 100              	.LBB41:
 101              	.LBB42:
   2:src/cpp/../../h/../h/../h/kernel_operators.hpp **** void* operator new[](size_t sz){ return MemoryAllocator::getInstance().mem_alloc((sz-1)/MEM_BLOCK_S
   3:src/cpp/../../h/../h/../h/kernel_operators.hpp **** void operator delete(void* ptr){MemoryAllocator::getInstance().mem_free(ptr);}
 102              		.loc 2 3 62
 103 0084 97000000 		call	_ZN15MemoryAllocator11getInstanceEv
 103      E7800000 
 104              	.LVL6:
 105              		.loc 2 3 72
 106 008c 93850400 		mv	a1,s1
 107 0090 97000000 		call	_ZN15MemoryAllocator8mem_freeEPv
 107      E7800000 
 108              	.LVL7:
 109              	.L3:
 110              	.LBE42:
 111              	.LBE41:
 112              	.LBE40:
 113              	.LBE39:
 114              	.LBE38:
 115              	.LBE37:
  11:src/cpp/scheduler.cpp **** }
 116              		.loc 1 11 1
 117 0098 13050900 		mv	a0,s2
 118 009c 83308101 		ld	ra,24(sp)
GAS LISTING /tmp/ccIEzqIP.s 			page 4


 119              		.cfi_remember_state
 120              		.cfi_restore 1
 121 00a0 03340101 		ld	s0,16(sp)
 122              		.cfi_restore 8
 123              		.cfi_def_cfa 2, 32
 124 00a4 83348100 		ld	s1,8(sp)
 125              		.cfi_restore 9
 126 00a8 03390100 		ld	s2,0(sp)
 127              		.cfi_restore 18
 128 00ac 13010102 		addi	sp,sp,32
 129              		.cfi_def_cfa_offset 0
 130 00b0 67800000 		jr	ra
 131              	.LVL8:
 132              	.L9:
 133              		.cfi_restore_state
 134              	.LBB46:
 135              	.LBB45:
 136              	.LBB44:
 137              	.LBB43:
 138              		.loc 3 36 30
 139 00b4 23B40700 		sd	zero,8(a5)
 140 00b8 13070000 		li	a4,0
 141 00bc 6FF05FFC 		j	.L6
 142              	.LVL9:
 143              	.L7:
 144              	.LBE43:
 145              	.LBE44:
  37:src/cpp/../../h/../h/ptr_queue.hpp ****             delete old;
  38:src/cpp/../../h/../h/ptr_queue.hpp ****             return ret;            
  39:src/cpp/../../h/../h/ptr_queue.hpp ****         }
  40:src/cpp/../../h/../h/ptr_queue.hpp ****         return nullptr;
 146              		.loc 3 40 16
 147 00c0 13890400 		mv	s2,s1
 148              	.LVL10:
 149              	.LBE45:
 150              	.LBE46:
  10:src/cpp/scheduler.cpp **** }
 151              		.loc 1 10 26
 152 00c4 6FF05FFD 		j	.L3
 153              		.cfi_endproc
 154              	.LFE53:
 156              		.align	2
 157              		.globl	_ZN9Scheduler3putEP3TCB
 159              	_ZN9Scheduler3putEP3TCB:
 160              	.LFB54:
  12:src/cpp/scheduler.cpp **** 
  13:src/cpp/scheduler.cpp **** void Scheduler::put(TCB* ptr){
 161              		.loc 1 13 30 is_stmt 1
 162              		.cfi_startproc
 163              	.LVL11:
 164 00c8 130101FE 		addi	sp,sp,-32
 165              		.cfi_def_cfa_offset 32
 166 00cc 233C1100 		sd	ra,24(sp)
 167 00d0 23388100 		sd	s0,16(sp)
 168 00d4 23349100 		sd	s1,8(sp)
 169 00d8 23302101 		sd	s2,0(sp)
 170              		.cfi_offset 1, -8
GAS LISTING /tmp/ccIEzqIP.s 			page 5


 171              		.cfi_offset 8, -16
 172              		.cfi_offset 9, -24
 173              		.cfi_offset 18, -32
 174 00dc 13040102 		addi	s0,sp,32
 175              		.cfi_def_cfa 8, 0
 176 00e0 13090500 		mv	s2,a0
  14:src/cpp/scheduler.cpp ****     queue->insert(ptr);
 177              		.loc 1 14 5
 178              		.loc 1 14 22 is_stmt 0
 179 00e4 97070000 		lla	a5,_ZN9Scheduler5queueE
 179      93870700 
 180 00ec 83B40700 		ld	s1,0(a5)
 181              	.LVL12:
 182              	.LBB54:
 183              	.LBB55:
 184              	.LBB56:
 185              	.LBB57:
   1:src/cpp/../../h/../h/../h/kernel_operators.hpp **** void* operator new[](size_t sz){ return MemoryAllocator::getInstance().mem_alloc((sz-1)/MEM_BLOCK_S
 186              		.loc 2 1 67
 187 00f0 97000000 		call	_ZN15MemoryAllocator11getInstanceEv
 187      E7800000 
 188              	.LVL13:
   1:src/cpp/../../h/../h/../h/kernel_operators.hpp **** void* operator new[](size_t sz){ return MemoryAllocator::getInstance().mem_alloc((sz-1)/MEM_BLOCK_S
 189              		.loc 2 1 78
 190 00f8 93051000 		li	a1,1
 191 00fc 97000000 		call	_ZN15MemoryAllocator9mem_allocEm
 191      E7800000 
 192              	.LVL14:
 193              	.LBE57:
 194              	.LBE56:
 195              	.LBB58:
 196              	.LBB59:
  14:src/cpp/../../h/../h/ptr_queue.hpp ****     } *head, *tail;
 197              		.loc 3 14 76
 198 0104 23300500 		sd	zero,0(a0)
 199 0108 23342501 		sd	s2,8(a0)
 200              	.LVL15:
 201              	.LBE59:
 202              	.LBE58:
  28:src/cpp/../../h/../h/ptr_queue.hpp ****         return *this;
 203              		.loc 3 28 16
 204 010c 83B78400 		ld	a5,8(s1)
  28:src/cpp/../../h/../h/ptr_queue.hpp ****         return *this;
 205              		.loc 3 28 29
 206 0110 63820702 		beq	a5,zero,.L14
 207 0114 23B0A700 		sd	a0,0(a5)
 208              	.L12:
  28:src/cpp/../../h/../h/ptr_queue.hpp ****         return *this;
 209              		.loc 3 28 9
 210 0118 23B4A400 		sd	a0,8(s1)
 211              	.LVL16:
 212              	.LBE55:
 213              	.LBE54:
  15:src/cpp/scheduler.cpp **** }
 214              		.loc 1 15 1
 215 011c 83308101 		ld	ra,24(sp)
 216              		.cfi_remember_state
GAS LISTING /tmp/ccIEzqIP.s 			page 6


 217              		.cfi_restore 1
 218 0120 03340101 		ld	s0,16(sp)
 219              		.cfi_restore 8
 220              		.cfi_def_cfa 2, 32
 221 0124 83348100 		ld	s1,8(sp)
 222              		.cfi_restore 9
 223 0128 03390100 		ld	s2,0(sp)
 224              		.cfi_restore 18
 225              	.LVL17:
 226 012c 13010102 		addi	sp,sp,32
 227              		.cfi_def_cfa_offset 0
 228 0130 67800000 		jr	ra
 229              	.LVL18:
 230              	.L14:
 231              		.cfi_restore_state
 232              	.LBB61:
 233              	.LBB60:
  28:src/cpp/../../h/../h/ptr_queue.hpp ****         return *this;
 234              		.loc 3 28 29
 235 0134 23B0A400 		sd	a0,0(s1)
 236 0138 6FF01FFE 		j	.L12
 237              	.LBE60:
 238              	.LBE61:
 239              		.cfi_endproc
 240              	.LFE54:
 242              		.align	2
 243              		.globl	_ZN9Scheduler8finalizeEv
 245              	_ZN9Scheduler8finalizeEv:
 246              	.LFB55:
  16:src/cpp/scheduler.cpp **** 
  17:src/cpp/scheduler.cpp **** void Scheduler::finalize(){
 247              		.loc 1 17 27 is_stmt 1
 248              		.cfi_startproc
 249              		.cfi_personality 0x9b,DW.ref.__gxx_personality_v0
 250              		.cfi_lsda 0x1b,.LLSDA55
 251 013c 130101FE 		addi	sp,sp,-32
 252              		.cfi_def_cfa_offset 32
 253 0140 233C1100 		sd	ra,24(sp)
 254 0144 23388100 		sd	s0,16(sp)
 255 0148 23349100 		sd	s1,8(sp)
 256 014c 23302101 		sd	s2,0(sp)
 257              		.cfi_offset 1, -8
 258              		.cfi_offset 8, -16
 259              		.cfi_offset 9, -24
 260              		.cfi_offset 18, -32
 261 0150 13040102 		addi	s0,sp,32
 262              		.cfi_def_cfa 8, 0
  18:src/cpp/scheduler.cpp ****     if(queue) delete queue;
 263              		.loc 1 18 5
 264              		.loc 1 18 13 is_stmt 0
 265 0154 97070000 		lla	a5,_ZN9Scheduler5queueE
 265      93870700 
 266 015c 83B40700 		ld	s1,0(a5)
 267              		.loc 1 18 5
 268 0160 63940402 		bne	s1,zero,.L21
 269 0164 6F008005 		j	.L15
 270              	.LVL19:
GAS LISTING /tmp/ccIEzqIP.s 			page 7


 271              	.L23:
 272              	.LBB76:
 273              	.LBB77:
 274              	.LBB78:
 275              	.LBB79:
 276              	.LBB80:
 277              	.LBB81:
  36:src/cpp/../../h/../h/ptr_queue.hpp ****             delete old;
 278              		.loc 3 36 30
 279 0168 23B40400 		sd	zero,8(s1)
 280              	.LVL20:
 281 016c 93070000 		li	a5,0
 282              	.L20:
  36:src/cpp/../../h/../h/ptr_queue.hpp ****             delete old;
 283              		.loc 3 36 13
 284 0170 23B0F400 		sd	a5,0(s1)
 285              	.LVL21:
 286              	.LBB82:
 287              	.LBB83:
 288              		.loc 2 3 62
 289 0174 97000000 		call	_ZN15MemoryAllocator11getInstanceEv
 289      E7800000 
 290              	.LVL22:
 291              		.loc 2 3 72
 292 017c 93050900 		mv	a1,s2
 293 0180 97000000 		call	_ZN15MemoryAllocator8mem_freeEPv
 293      E7800000 
 294              	.LVL23:
 295              	.L21:
 296              	.LBE83:
 297              	.LBE82:
 298              	.LBE81:
 299              	.LBE80:
 300              	.LBE79:
 301              	.LBB86:
 302              	.LBB87:
  41:src/cpp/../../h/../h/ptr_queue.hpp ****     }
  42:src/cpp/../../h/../h/ptr_queue.hpp **** 
  43:src/cpp/../../h/../h/ptr_queue.hpp ****     bool isEmpty() {return !head;}
 303              		.loc 3 43 29
 304 0188 83B70400 		ld	a5,0(s1)
 305              	.LVL24:
 306              	.LBE87:
 307              	.LBE86:
  18:src/cpp/../../h/../h/ptr_queue.hpp ****             remove();
 308              		.loc 3 18 15
 309 018c 638E0700 		beq	a5,zero,.L17
 310              	.LVL25:
 311              	.LBB88:
 312              	.LBB85:
  33:src/cpp/../../h/../h/ptr_queue.hpp ****             T* ret = head->info;
 313              		.loc 3 33 12
 314 0190 13890700 		mv	s2,a5
  33:src/cpp/../../h/../h/ptr_queue.hpp ****             T* ret = head->info;
 315              		.loc 3 33 9
 316 0194 E38A07FE 		beq	a5,zero,.L21
 317              	.LVL26:
GAS LISTING /tmp/ccIEzqIP.s 			page 8


 318              	.LBB84:
  36:src/cpp/../../h/../h/ptr_queue.hpp ****             delete old;
 319              		.loc 3 36 26
 320 0198 83B78400 		ld	a5,8(s1)
 321              	.LVL27:
  36:src/cpp/../../h/../h/ptr_queue.hpp ****             delete old;
 322              		.loc 3 36 30
 323 019c E306F9FC 		beq	s2,a5,.L23
 324 01a0 83370900 		ld	a5,0(s2)
 325 01a4 6FF0DFFC 		j	.L20
 326              	.LVL28:
 327              	.L17:
 328              	.LEHB0:
 329              	.LBE84:
 330              	.LBE85:
 331              	.LBE88:
 332              	.LBE78:
 333              	.LBE77:
 334              	.LBE76:
 335              	.LBB89:
 336              	.LBB90:
 337              		.loc 2 3 62
 338 01a8 97000000 		call	_ZN15MemoryAllocator11getInstanceEv
 338      E7800000 
 339              	.LVL29:
 340              		.loc 2 3 72
 341 01b0 93850400 		mv	a1,s1
 342 01b4 97000000 		call	_ZN15MemoryAllocator8mem_freeEPv
 342      E7800000 
 343              	.LVL30:
 344              	.LEHE0:
 345              	.L15:
 346              	.LBE90:
 347              	.LBE89:
  19:src/cpp/scheduler.cpp **** }
 348              		.loc 1 19 1
 349 01bc 83308101 		ld	ra,24(sp)
 350              		.cfi_restore 1
 351 01c0 03340101 		ld	s0,16(sp)
 352              		.cfi_restore 8
 353              		.cfi_def_cfa 2, 32
 354 01c4 83348100 		ld	s1,8(sp)
 355              		.cfi_restore 9
 356 01c8 03390100 		ld	s2,0(sp)
 357              		.cfi_restore 18
 358 01cc 13010102 		addi	sp,sp,32
 359              		.cfi_def_cfa_offset 0
 360 01d0 67800000 		jr	ra
 361              		.cfi_endproc
 362              	.LFE55:
 363              		.globl	__gxx_personality_v0
 364              		.section	.gcc_except_table,"aw",@progbits
 365              	.LLSDA55:
 366 0000 FF       		.byte	0xff
 367 0001 FF       		.byte	0xff
 368 0002 03       		.byte	0x3
 369 0003 0D       		.byte	0xd
GAS LISTING /tmp/ccIEzqIP.s 			page 9


 370 0004 00000000 		.4byte	.LEHB0-.LFB55
 371 0008 00000000 		.4byte	.LEHE0-.LEHB0
 372 000c 00000000 		.4byte	0
 373 0010 00       		.byte	0
 374              		.text
 376              		.align	2
 377              		.globl	_ZN9Scheduler11print_queueEv
 379              	_ZN9Scheduler11print_queueEv:
 380              	.LFB56:
  20:src/cpp/scheduler.cpp **** 
  21:src/cpp/scheduler.cpp **** void Scheduler::print_queue(){
 381              		.loc 1 21 30 is_stmt 1
 382              		.cfi_startproc
 383 01d4 130101FE 		addi	sp,sp,-32
 384              		.cfi_def_cfa_offset 32
 385 01d8 233C1100 		sd	ra,24(sp)
 386 01dc 23388100 		sd	s0,16(sp)
 387 01e0 23349100 		sd	s1,8(sp)
 388              		.cfi_offset 1, -8
 389              		.cfi_offset 8, -16
 390              		.cfi_offset 9, -24
 391 01e4 13040102 		addi	s0,sp,32
 392              		.cfi_def_cfa 8, 0
  22:src/cpp/scheduler.cpp ****     queue->printQueue();
 393              		.loc 1 22 5
 394              		.loc 1 22 22 is_stmt 0
 395 01e8 97070000 		lla	a5,_ZN9Scheduler5queueE
 395      93870700 
 396 01f0 83B70700 		ld	a5,0(a5)
 397              	.LVL31:
 398              	.LBB93:
 399              	.LBB94:
  44:src/cpp/../../h/../h/ptr_queue.hpp **** 
  45:src/cpp/../../h/../h/ptr_queue.hpp ****     void printQueue(){
  46:src/cpp/../../h/../h/ptr_queue.hpp ****         Node* t = head;
 400              		.loc 3 46 15
 401 01f4 83B40700 		ld	s1,0(a5)
 402              	.LVL32:
 403              	.L26:
  47:src/cpp/../../h/../h/ptr_queue.hpp ****         while(t){
 404              		.loc 3 47 9
 405 01f8 638A0402 		beq	s1,zero,.L25
  48:src/cpp/../../h/../h/ptr_queue.hpp ****             print("->",' ');
 406              		.loc 3 48 18
 407 01fc 93050002 		li	a1,32
 408 0200 17050000 		lla	a0,.LC0
 408      13050500 
 409 0208 97000000 		call	_Z5printPKcc
 409      E7800000 
 410              	.LVL33:
  49:src/cpp/../../h/../h/ptr_queue.hpp ****             print((uint64)t->info, ' ', 0);
 411              		.loc 3 49 18
 412 0210 13060000 		li	a2,0
 413 0214 93050002 		li	a1,32
 414 0218 03B58400 		ld	a0,8(s1)
 415 021c 97000000 		call	_Z5printmcb
 415      E7800000 
GAS LISTING /tmp/ccIEzqIP.s 			page 10


 416              	.LVL34:
  50:src/cpp/../../h/../h/ptr_queue.hpp ****             t = t->next;            
 417              		.loc 3 50 13
 418 0224 83B40400 		ld	s1,0(s1)
 419              	.LVL35:
 420 0228 6FF01FFD 		j	.L26
 421              	.L25:
  51:src/cpp/../../h/../h/ptr_queue.hpp ****         }
  52:src/cpp/../../h/../h/ptr_queue.hpp ****         print("");
 422              		.loc 3 52 14
 423 022c 9305A000 		li	a1,10
 424 0230 17050000 		lla	a0,.LC1
 424      13050500 
 425 0238 97000000 		call	_Z5printPKcc
 425      E7800000 
 426              	.LVL36:
 427              	.LBE94:
 428              	.LBE93:
  23:src/cpp/scheduler.cpp **** }
 429              		.loc 1 23 1
 430 0240 83308101 		ld	ra,24(sp)
 431              		.cfi_restore 1
 432 0244 03340101 		ld	s0,16(sp)
 433              		.cfi_restore 8
 434              		.cfi_def_cfa 2, 32
 435 0248 83348100 		ld	s1,8(sp)
 436              		.cfi_restore 9
 437 024c 13010102 		addi	sp,sp,32
 438              		.cfi_def_cfa_offset 0
 439 0250 67800000 		jr	ra
 440              		.cfi_endproc
 441              	.LFE56:
 443              		.globl	_ZN9Scheduler5queueE
 444              		.section	.rodata.str1.8,"aMS",@progbits,1
 445              		.align	3
 446              	.LC0:
 447 0000 2D3E00   		.string	"->"
 448 0003 00000000 		.zero	5
 448      00
 449              	.LC1:
 450 0008 00       		.string	""
 451              		.section	.sbss,"aw",@nobits
 452              		.align	3
 455              	_ZN9Scheduler5queueE:
 456 0000 00000000 		.zero	8
 456      00000000 
 457              		.text
 458              	.Letext0:
 459              		.file 4 "src/cpp/../../h/../h/../h/../lib/hw.h"
 460              		.file 5 "src/cpp/../../h/../h/../h/memory_allocator.hpp"
 461              		.file 6 "src/cpp/../../h/../h/tcb.hpp"
 462              		.file 7 "src/cpp/../../h/scheduler.hpp"
 463              		.file 8 "src/cpp/../../h/../h/testing.hpp"
 3768              		.align	3
 3771              	DW.ref.__gxx_personality_v0:
 3772 0000 00000000 		.dword	__gxx_personality_v0
 3772      00000000 
GAS LISTING /tmp/ccIEzqIP.s 			page 11


 3773              		.ident	"GCC: () 8.3.0"
GAS LISTING /tmp/ccIEzqIP.s 			page 12


DEFINED SYMBOLS
                            *ABS*:0000000000000000 scheduler.cpp
     /tmp/ccIEzqIP.s:12     .text:0000000000000000 _ZN9Scheduler9initalizeEv
     /tmp/ccIEzqIP.s:16     .text:0000000000000000 .L0 
     /tmp/ccIEzqIP.s:17     .text:0000000000000000 .L0 
     /tmp/ccIEzqIP.s:18     .text:0000000000000004 .L0 
     /tmp/ccIEzqIP.s:21     .text:000000000000000c .L0 
     /tmp/ccIEzqIP.s:22     .text:000000000000000c .L0 
     /tmp/ccIEzqIP.s:24     .text:0000000000000010 .L0 
     /tmp/ccIEzqIP.s:30     .text:0000000000000010 .L0 
     /tmp/ccIEzqIP.s:31     .text:0000000000000010 .L0 
     /tmp/ccIEzqIP.s:34     .text:0000000000000018 .L0 
     /tmp/ccIEzqIP.s:455    .sbss:0000000000000000 _ZN9Scheduler5queueE
     /tmp/ccIEzqIP.s:42     .text:000000000000002c .L0 
     /tmp/ccIEzqIP.s:44     .text:0000000000000034 .L0 
     /tmp/ccIEzqIP.s:45     .text:0000000000000038 .L0 
     /tmp/ccIEzqIP.s:47     .text:000000000000003c .L0 
     /tmp/ccIEzqIP.s:48     .text:000000000000003c .L0 
     /tmp/ccIEzqIP.s:50     .text:0000000000000040 .L0 
     /tmp/ccIEzqIP.s:52     .text:0000000000000044 .L0 
     /tmp/ccIEzqIP.s:58     .text:0000000000000044 _ZN9Scheduler3getEv
     /tmp/ccIEzqIP.s:61     .text:0000000000000044 .L0 
     /tmp/ccIEzqIP.s:62     .text:0000000000000044 .L0 
     /tmp/ccIEzqIP.s:63     .text:0000000000000048 .L0 
     /tmp/ccIEzqIP.s:68     .text:0000000000000058 .L0 
     /tmp/ccIEzqIP.s:69     .text:0000000000000058 .L0 
     /tmp/ccIEzqIP.s:70     .text:0000000000000058 .L0 
     /tmp/ccIEzqIP.s:71     .text:0000000000000058 .L0 
     /tmp/ccIEzqIP.s:73     .text:000000000000005c .L0 
     /tmp/ccIEzqIP.s:75     .text:000000000000005c .L0 
     /tmp/ccIEzqIP.s:76     .text:000000000000005c .L0 
     /tmp/ccIEzqIP.s:84     .text:0000000000000068 .L0 
     /tmp/ccIEzqIP.s:86     .text:000000000000006c .L0 
     /tmp/ccIEzqIP.s:89     .text:0000000000000070 .L0 
     /tmp/ccIEzqIP.s:92     .text:0000000000000074 .L0 
     /tmp/ccIEzqIP.s:94     .text:0000000000000078 .L0 
     /tmp/ccIEzqIP.s:98     .text:0000000000000080 .L0 
     /tmp/ccIEzqIP.s:103    .text:0000000000000084 .L0 
     /tmp/ccIEzqIP.s:106    .text:000000000000008c .L0 
     /tmp/ccIEzqIP.s:117    .text:0000000000000098 .L0 
     /tmp/ccIEzqIP.s:119    .text:00000000000000a0 .L0 
     /tmp/ccIEzqIP.s:120    .text:00000000000000a0 .L0 
     /tmp/ccIEzqIP.s:122    .text:00000000000000a4 .L0 
     /tmp/ccIEzqIP.s:123    .text:00000000000000a4 .L0 
     /tmp/ccIEzqIP.s:125    .text:00000000000000a8 .L0 
     /tmp/ccIEzqIP.s:127    .text:00000000000000ac .L0 
     /tmp/ccIEzqIP.s:129    .text:00000000000000b0 .L0 
     /tmp/ccIEzqIP.s:133    .text:00000000000000b4 .L0 
     /tmp/ccIEzqIP.s:139    .text:00000000000000b4 .L0 
     /tmp/ccIEzqIP.s:147    .text:00000000000000c0 .L0 
     /tmp/ccIEzqIP.s:152    .text:00000000000000c4 .L0 
     /tmp/ccIEzqIP.s:153    .text:00000000000000c8 .L0 
     /tmp/ccIEzqIP.s:159    .text:00000000000000c8 _ZN9Scheduler3putEP3TCB
     /tmp/ccIEzqIP.s:162    .text:00000000000000c8 .L0 
     /tmp/ccIEzqIP.s:164    .text:00000000000000c8 .L0 
     /tmp/ccIEzqIP.s:165    .text:00000000000000cc .L0 
     /tmp/ccIEzqIP.s:170    .text:00000000000000dc .L0 
GAS LISTING /tmp/ccIEzqIP.s 			page 13


     /tmp/ccIEzqIP.s:171    .text:00000000000000dc .L0 
     /tmp/ccIEzqIP.s:172    .text:00000000000000dc .L0 
     /tmp/ccIEzqIP.s:173    .text:00000000000000dc .L0 
     /tmp/ccIEzqIP.s:175    .text:00000000000000e0 .L0 
     /tmp/ccIEzqIP.s:178    .text:00000000000000e4 .L0 
     /tmp/ccIEzqIP.s:179    .text:00000000000000e4 .L0 
     /tmp/ccIEzqIP.s:187    .text:00000000000000f0 .L0 
     /tmp/ccIEzqIP.s:190    .text:00000000000000f8 .L0 
     /tmp/ccIEzqIP.s:198    .text:0000000000000104 .L0 
     /tmp/ccIEzqIP.s:204    .text:000000000000010c .L0 
     /tmp/ccIEzqIP.s:206    .text:0000000000000110 .L0 
     /tmp/ccIEzqIP.s:210    .text:0000000000000118 .L0 
     /tmp/ccIEzqIP.s:215    .text:000000000000011c .L0 
     /tmp/ccIEzqIP.s:216    .text:0000000000000120 .L0 
     /tmp/ccIEzqIP.s:217    .text:0000000000000120 .L0 
     /tmp/ccIEzqIP.s:219    .text:0000000000000124 .L0 
     /tmp/ccIEzqIP.s:220    .text:0000000000000124 .L0 
     /tmp/ccIEzqIP.s:222    .text:0000000000000128 .L0 
     /tmp/ccIEzqIP.s:224    .text:000000000000012c .L0 
     /tmp/ccIEzqIP.s:227    .text:0000000000000130 .L0 
     /tmp/ccIEzqIP.s:231    .text:0000000000000134 .L0 
     /tmp/ccIEzqIP.s:235    .text:0000000000000134 .L0 
     /tmp/ccIEzqIP.s:239    .text:000000000000013c .L0 
     /tmp/ccIEzqIP.s:245    .text:000000000000013c _ZN9Scheduler8finalizeEv
     /tmp/ccIEzqIP.s:248    .text:000000000000013c .L0 
     /tmp/ccIEzqIP.s:3771   .sdata.DW.ref.__gxx_personality_v0:0000000000000000 DW.ref.__gxx_personality_v0
     /tmp/ccIEzqIP.s:251    .text:000000000000013c .L0 
     /tmp/ccIEzqIP.s:252    .text:0000000000000140 .L0 
     /tmp/ccIEzqIP.s:257    .text:0000000000000150 .L0 
     /tmp/ccIEzqIP.s:258    .text:0000000000000150 .L0 
     /tmp/ccIEzqIP.s:259    .text:0000000000000150 .L0 
     /tmp/ccIEzqIP.s:260    .text:0000000000000150 .L0 
     /tmp/ccIEzqIP.s:262    .text:0000000000000154 .L0 
     /tmp/ccIEzqIP.s:264    .text:0000000000000154 .L0 
     /tmp/ccIEzqIP.s:265    .text:0000000000000154 .L0 
     /tmp/ccIEzqIP.s:268    .text:0000000000000160 .L0 
     /tmp/ccIEzqIP.s:279    .text:0000000000000168 .L0 
     /tmp/ccIEzqIP.s:284    .text:0000000000000170 .L0 
     /tmp/ccIEzqIP.s:289    .text:0000000000000174 .L0 
     /tmp/ccIEzqIP.s:292    .text:000000000000017c .L0 
     /tmp/ccIEzqIP.s:304    .text:0000000000000188 .L0 
     /tmp/ccIEzqIP.s:309    .text:000000000000018c .L0 
     /tmp/ccIEzqIP.s:314    .text:0000000000000190 .L0 
     /tmp/ccIEzqIP.s:316    .text:0000000000000194 .L0 
     /tmp/ccIEzqIP.s:320    .text:0000000000000198 .L0 
     /tmp/ccIEzqIP.s:323    .text:000000000000019c .L0 
     /tmp/ccIEzqIP.s:338    .text:00000000000001a8 .L0 
     /tmp/ccIEzqIP.s:341    .text:00000000000001b0 .L0 
     /tmp/ccIEzqIP.s:349    .text:00000000000001bc .L0 
     /tmp/ccIEzqIP.s:350    .text:00000000000001c0 .L0 
     /tmp/ccIEzqIP.s:352    .text:00000000000001c4 .L0 
     /tmp/ccIEzqIP.s:353    .text:00000000000001c4 .L0 
     /tmp/ccIEzqIP.s:355    .text:00000000000001c8 .L0 
     /tmp/ccIEzqIP.s:357    .text:00000000000001cc .L0 
     /tmp/ccIEzqIP.s:359    .text:00000000000001d0 .L0 
     /tmp/ccIEzqIP.s:361    .text:00000000000001d4 .L0 
     /tmp/ccIEzqIP.s:379    .text:00000000000001d4 _ZN9Scheduler11print_queueEv
GAS LISTING /tmp/ccIEzqIP.s 			page 14


     /tmp/ccIEzqIP.s:382    .text:00000000000001d4 .L0 
     /tmp/ccIEzqIP.s:383    .text:00000000000001d4 .L0 
     /tmp/ccIEzqIP.s:384    .text:00000000000001d8 .L0 
     /tmp/ccIEzqIP.s:388    .text:00000000000001e4 .L0 
     /tmp/ccIEzqIP.s:389    .text:00000000000001e4 .L0 
     /tmp/ccIEzqIP.s:390    .text:00000000000001e4 .L0 
     /tmp/ccIEzqIP.s:392    .text:00000000000001e8 .L0 
     /tmp/ccIEzqIP.s:394    .text:00000000000001e8 .L0 
     /tmp/ccIEzqIP.s:395    .text:00000000000001e8 .L0 
     /tmp/ccIEzqIP.s:401    .text:00000000000001f4 .L0 
     /tmp/ccIEzqIP.s:405    .text:00000000000001f8 .L0 
     /tmp/ccIEzqIP.s:407    .text:00000000000001fc .L0 
     /tmp/ccIEzqIP.s:412    .text:0000000000000210 .L0 
     /tmp/ccIEzqIP.s:418    .text:0000000000000224 .L0 
     /tmp/ccIEzqIP.s:423    .text:000000000000022c .L0 
     /tmp/ccIEzqIP.s:430    .text:0000000000000240 .L0 
     /tmp/ccIEzqIP.s:431    .text:0000000000000244 .L0 
     /tmp/ccIEzqIP.s:433    .text:0000000000000248 .L0 
     /tmp/ccIEzqIP.s:434    .text:0000000000000248 .L0 
     /tmp/ccIEzqIP.s:436    .text:000000000000024c .L0 
     /tmp/ccIEzqIP.s:438    .text:0000000000000250 .L0 
     /tmp/ccIEzqIP.s:440    .text:0000000000000254 .L0 
     /tmp/ccIEzqIP.s:464    .text:0000000000000254 .L0 
     /tmp/ccIEzqIP.s:42     .text:000000000000002c .L0 
     /tmp/ccIEzqIP.s:76     .text:000000000000005c .L0 
     /tmp/ccIEzqIP.s:179    .text:00000000000000e4 .L0 
     /tmp/ccIEzqIP.s:265    .text:0000000000000154 .L0 
     /tmp/ccIEzqIP.s:395    .text:00000000000001e8 .L0 
     /tmp/ccIEzqIP.s:446    .rodata.str1.8:0000000000000000 .LC0
     /tmp/ccIEzqIP.s:408    .text:0000000000000200 .L0 
     /tmp/ccIEzqIP.s:449    .rodata.str1.8:0000000000000008 .LC1
     /tmp/ccIEzqIP.s:424    .text:0000000000000230 .L0 
     /tmp/ccIEzqIP.s:143    .text:00000000000000c0 .L7
     /tmp/ccIEzqIP.s:132    .text:00000000000000b4 .L9
     /tmp/ccIEzqIP.s:96     .text:0000000000000080 .L6
     /tmp/ccIEzqIP.s:109    .text:0000000000000098 .L3
     /tmp/ccIEzqIP.s:230    .text:0000000000000134 .L14
     /tmp/ccIEzqIP.s:208    .text:0000000000000118 .L12
     /tmp/ccIEzqIP.s:295    .text:0000000000000188 .L21
     /tmp/ccIEzqIP.s:345    .text:00000000000001bc .L15
     /tmp/ccIEzqIP.s:327    .text:00000000000001a8 .L17
     /tmp/ccIEzqIP.s:271    .text:0000000000000168 .L23
     /tmp/ccIEzqIP.s:282    .text:0000000000000170 .L20
     /tmp/ccIEzqIP.s:421    .text:000000000000022c .L25
     /tmp/ccIEzqIP.s:403    .text:00000000000001f8 .L26
     /tmp/ccIEzqIP.s:328    .text:00000000000001a8 .LEHB0
     /tmp/ccIEzqIP.s:246    .text:000000000000013c .LFB55
     /tmp/ccIEzqIP.s:344    .text:00000000000001bc .LEHE0
     /tmp/ccIEzqIP.s:2007   .debug_abbrev:0000000000000000 .Ldebug_abbrev0
     /tmp/ccIEzqIP.s:3667   .debug_str:000000000000060f .LASF129
     /tmp/ccIEzqIP.s:3715   .debug_str:00000000000007f6 .LASF130
     /tmp/ccIEzqIP.s:3729   .debug_str:0000000000000883 .LASF131
     /tmp/ccIEzqIP.s:8      .text:0000000000000000 .Ltext0
     /tmp/ccIEzqIP.s:458    .text:0000000000000254 .Letext0
     /tmp/ccIEzqIP.s:3479   .debug_line:0000000000000000 .Ldebug_line0
     /tmp/ccIEzqIP.s:3587   .debug_str:0000000000000370 .LASF0
     /tmp/ccIEzqIP.s:3611   .debug_str:0000000000000428 .LASF1
GAS LISTING /tmp/ccIEzqIP.s 			page 15


     /tmp/ccIEzqIP.s:3733   .debug_str:00000000000008c7 .LASF2
     /tmp/ccIEzqIP.s:3677   .debug_str:00000000000006d6 .LASF4
     /tmp/ccIEzqIP.s:3595   .debug_str:00000000000003a3 .LASF3
     /tmp/ccIEzqIP.s:3493   .debug_str:000000000000005b .LASF5
     /tmp/ccIEzqIP.s:3657   .debug_str:000000000000059e .LASF6
     /tmp/ccIEzqIP.s:3603   .debug_str:00000000000003e1 .LASF7
     /tmp/ccIEzqIP.s:3573   .debug_str:00000000000002e7 .LASF8
     /tmp/ccIEzqIP.s:3579   .debug_str:0000000000000320 .LASF9
     /tmp/ccIEzqIP.s:3523   .debug_str:000000000000015d .LASF10
     /tmp/ccIEzqIP.s:3565   .debug_str:00000000000002bb .LASF11
     /tmp/ccIEzqIP.s:3533   .debug_str:00000000000001a3 .LASF12
     /tmp/ccIEzqIP.s:3521   .debug_str:000000000000014d .LASF13
     /tmp/ccIEzqIP.s:3705   .debug_str:00000000000007a9 .LASF14
     /tmp/ccIEzqIP.s:3553   .debug_str:0000000000000246 .LASF15
     /tmp/ccIEzqIP.s:3695   .debug_str:0000000000000747 .LASF16
     /tmp/ccIEzqIP.s:3571   .debug_str:00000000000002db .LASF95
     /tmp/ccIEzqIP.s:3525   .debug_str:000000000000016c .LASF17
     /tmp/ccIEzqIP.s:3609   .debug_str:0000000000000423 .LASF18
     /tmp/ccIEzqIP.s:3653   .debug_str:0000000000000573 .LASF21
     /tmp/ccIEzqIP.s:3507   .debug_str:00000000000000f8 .LASF19
     /tmp/ccIEzqIP.s:3691   .debug_str:000000000000072a .LASF20
     /tmp/ccIEzqIP.s:3737   .debug_str:00000000000008db .LASF83
     /tmp/ccIEzqIP.s:3501   .debug_str:00000000000000b8 .LASF23
     /tmp/ccIEzqIP.s:3591   .debug_str:0000000000000389 .LASF22
     /tmp/ccIEzqIP.s:3717   .debug_str:000000000000080c .LASF24
     /tmp/ccIEzqIP.s:3749   .debug_str:0000000000000946 .LASF25
     /tmp/ccIEzqIP.s:3499   .debug_str:000000000000008c .LASF26
     /tmp/ccIEzqIP.s:3597   .debug_str:00000000000003b5 .LASF27
     /tmp/ccIEzqIP.s:3743   .debug_str:000000000000090e .LASF28
     /tmp/ccIEzqIP.s:3755   .debug_str:0000000000000984 .LASF30
     /tmp/ccIEzqIP.s:3671   .debug_str:00000000000006be .LASF29
     /tmp/ccIEzqIP.s:3739   .debug_str:00000000000008e5 .LASF31
     /tmp/ccIEzqIP.s:3555   .debug_str:000000000000025c .LASF32
     /tmp/ccIEzqIP.s:3581   .debug_str:000000000000032e .LASF33
     /tmp/ccIEzqIP.s:3751   .debug_str:0000000000000959 .LASF87
     /tmp/ccIEzqIP.s:3635   .debug_str:00000000000004d7 .LASF132
     /tmp/ccIEzqIP.s:3633   .debug_str:00000000000004cd .LASF34
     /tmp/ccIEzqIP.s:3495   .debug_str:0000000000000062 .LASF35
     /tmp/ccIEzqIP.s:3711   .debug_str:00000000000007e2 .LASF36
     /tmp/ccIEzqIP.s:3561   .debug_str:0000000000000289 .LASF37
     /tmp/ccIEzqIP.s:3745   .debug_str:0000000000000919 .LASF47
     /tmp/ccIEzqIP.s:3541   .debug_str:00000000000001e5 .LASF49
     /tmp/ccIEzqIP.s:3623   .debug_str:000000000000048e .LASF38
     /tmp/ccIEzqIP.s:3721   .debug_str:0000000000000847 .LASF133
     /tmp/ccIEzqIP.s:3481   .debug_str:0000000000000000 .LASF39
     /tmp/ccIEzqIP.s:3519   .debug_str:0000000000000147 .LASF40
     /tmp/ccIEzqIP.s:3637   .debug_str:00000000000004fb .LASF41
     /tmp/ccIEzqIP.s:3511   .debug_str:0000000000000119 .LASF42
     /tmp/ccIEzqIP.s:3529   .debug_str:0000000000000188 .LASF134
     /tmp/ccIEzqIP.s:3761   .debug_str:00000000000009b9 .LASF43
     /tmp/ccIEzqIP.s:3575   .debug_str:00000000000002f7 .LASF44
     /tmp/ccIEzqIP.s:3515   .debug_str:0000000000000130 .LASF45
     /tmp/ccIEzqIP.s:3569   .debug_str:00000000000002cf .LASF46
     /tmp/ccIEzqIP.s:3485   .debug_str:000000000000000d .LASF48
     /tmp/ccIEzqIP.s:3647   .debug_str:0000000000000547 .LASF50
     /tmp/ccIEzqIP.s:3693   .debug_str:0000000000000734 .LASF51
     /tmp/ccIEzqIP.s:3669   .debug_str:00000000000006b1 .LASF52
GAS LISTING /tmp/ccIEzqIP.s 			page 16


     /tmp/ccIEzqIP.s:3679   .debug_str:00000000000006dd .LASF53
     /tmp/ccIEzqIP.s:3489   .debug_str:0000000000000045 .LASF54
     /tmp/ccIEzqIP.s:3675   .debug_str:00000000000006cd .LASF55
     /tmp/ccIEzqIP.s:3535   .debug_str:00000000000001b3 .LASF56
     /tmp/ccIEzqIP.s:3685   .debug_str:00000000000006f8 .LASF57
     /tmp/ccIEzqIP.s:3665   .debug_str:00000000000005fb .LASF58
     /tmp/ccIEzqIP.s:3625   .debug_str:0000000000000493 .LASF59
     /tmp/ccIEzqIP.s:3563   .debug_str:00000000000002aa .LASF60
     /tmp/ccIEzqIP.s:3713   .debug_str:00000000000007eb .LASF61
     /tmp/ccIEzqIP.s:3709   .debug_str:00000000000007cc .LASF62
     /tmp/ccIEzqIP.s:3615   .debug_str:0000000000000441 .LASF63
     /tmp/ccIEzqIP.s:3723   .debug_str:0000000000000850 .LASF64
     /tmp/ccIEzqIP.s:3703   .debug_str:000000000000079c .LASF65
     /tmp/ccIEzqIP.s:3747   .debug_str:0000000000000924 .LASF66
     /tmp/ccIEzqIP.s:3651   .debug_str:000000000000056e .LASF135
     /tmp/ccIEzqIP.s:3613   .debug_str:000000000000043b .LASF67
     /tmp/ccIEzqIP.s:3725   .debug_str:0000000000000869 .LASF69
     /tmp/ccIEzqIP.s:3543   .debug_str:0000000000000208 .LASF68
     /tmp/ccIEzqIP.s:3531   .debug_str:0000000000000190 .LASF70
     /tmp/ccIEzqIP.s:3741   .debug_str:0000000000000901 .LASF71
     /tmp/ccIEzqIP.s:3629   .debug_str:00000000000004a6 .LASF72
     /tmp/ccIEzqIP.s:3719   .debug_str:000000000000083f .LASF73
     /tmp/ccIEzqIP.s:3683   .debug_str:00000000000006e7 .LASF74
     /tmp/ccIEzqIP.s:3483   .debug_str:0000000000000008 .LASF75
     /tmp/ccIEzqIP.s:3759   .debug_str:00000000000009b4 .LASF76
     /tmp/ccIEzqIP.s:3687   .debug_str:0000000000000701 .LASF77
     /tmp/ccIEzqIP.s:3727   .debug_str:0000000000000879 .LASF78
     /tmp/ccIEzqIP.s:3545   .debug_str:0000000000000211 .LASF79
     /tmp/ccIEzqIP.s:3627   .debug_str:000000000000049a .LASF80
     /tmp/ccIEzqIP.s:3731   .debug_str:00000000000008bf .LASF81
     /tmp/ccIEzqIP.s:3699   .debug_str:0000000000000780 .LASF88
     /tmp/ccIEzqIP.s:3513   .debug_str:0000000000000122 .LASF136
     /tmp/ccIEzqIP.s:3617   .debug_str:000000000000044e .LASF137
     /tmp/ccIEzqIP.s:3537   .debug_str:00000000000001d2 .LASF138
     /tmp/ccIEzqIP.s:3487   .debug_str:000000000000001d .LASF139
     /tmp/ccIEzqIP.s:3599   .debug_str:00000000000003d1 .LASF82
     /tmp/ccIEzqIP.s:3559   .debug_str:0000000000000283 .LASF84
     /tmp/ccIEzqIP.s:3503   .debug_str:00000000000000d1 .LASF85
     /tmp/ccIEzqIP.s:3649   .debug_str:0000000000000554 .LASF86
     /tmp/ccIEzqIP.s:3757   .debug_str:00000000000009a0 .LASF140
     /tmp/ccIEzqIP.s:3583   .debug_str:0000000000000351 .LASF89
     /tmp/ccIEzqIP.s:3497   .debug_str:0000000000000083 .LASF90
     /tmp/ccIEzqIP.s:3619   .debug_str:0000000000000467 .LASF91
     /tmp/ccIEzqIP.s:3589   .debug_str:000000000000037d .LASF92
     /tmp/ccIEzqIP.s:3505   .debug_str:00000000000000db .LASF93
     /tmp/ccIEzqIP.s:3621   .debug_str:0000000000000480 .LASF94
     /tmp/ccIEzqIP.s:3539   .debug_str:00000000000001e0 .LASF96
     /tmp/ccIEzqIP.s:3557   .debug_str:0000000000000267 .LASF97
     /tmp/ccIEzqIP.s:3551   .debug_str:000000000000022a .LASF98
     /tmp/ccIEzqIP.s:3643   .debug_str:0000000000000525 .LASF99
     /tmp/ccIEzqIP.s:3577   .debug_str:0000000000000303 .LASF100
     /tmp/ccIEzqIP.s:3681   .debug_str:00000000000006e2 .LASF101
     /tmp/ccIEzqIP.s:3697   .debug_str:000000000000075d .LASF102
     /tmp/ccIEzqIP.s:3701   .debug_str:0000000000000797 .LASF103
     /tmp/ccIEzqIP.s:3645   .debug_str:0000000000000542 .LASF104
     /tmp/ccIEzqIP.s:3735   .debug_str:00000000000008d5 .LASF105
     /tmp/ccIEzqIP.s:3655   .debug_str:0000000000000583 .LASF106
GAS LISTING /tmp/ccIEzqIP.s 			page 17


     /tmp/ccIEzqIP.s:3607   .debug_str:000000000000040c .LASF107
     /tmp/ccIEzqIP.s:3707   .debug_str:00000000000007b5 .LASF108
     /tmp/ccIEzqIP.s:3605   .debug_str:00000000000003f4 .LASF109
     /tmp/ccIEzqIP.s:3659   .debug_str:00000000000005b1 .LASF110
     /tmp/ccIEzqIP.s:3585   .debug_str:0000000000000369 .LASF111
     /tmp/ccIEzqIP.s:3753   .debug_str:0000000000000965 .LASF112
     /tmp/ccIEzqIP.s:3517   .debug_str:0000000000000140 .LASF113
     /tmp/ccIEzqIP.s:3509   .debug_str:00000000000000fd .LASF114
     /tmp/ccIEzqIP.s:3547   .debug_str:0000000000000217 .LASF115
     /tmp/ccIEzqIP.s:3663   .debug_str:00000000000005de .LASF116
     /tmp/ccIEzqIP.s:3549   .debug_str:000000000000021f .LASF117
     /tmp/ccIEzqIP.s:3763   .debug_str:00000000000009c6 .LASF118
     /tmp/ccIEzqIP.s:3641   .debug_str:000000000000051b .LASF119
     /tmp/ccIEzqIP.s:3527   .debug_str:0000000000000171 .LASF120
     /tmp/ccIEzqIP.s:3661   .debug_str:00000000000005c9 .LASF141
     /tmp/ccIEzqIP.s:3567   .debug_str:00000000000002ca .LASF121
     /tmp/ccIEzqIP.s:3689   .debug_str:0000000000000707 .LASF123
     /tmp/ccIEzqIP.s:3491   .debug_str:0000000000000051 .LASF122
     /tmp/ccIEzqIP.s:3639   .debug_str:0000000000000504 .LASF124
     /tmp/ccIEzqIP.s:3673   .debug_str:00000000000006c8 .LASF125
     /tmp/ccIEzqIP.s:380    .text:00000000000001d4 .LFB56
     /tmp/ccIEzqIP.s:441    .text:0000000000000254 .LFE56
     /tmp/ccIEzqIP.s:398    .text:00000000000001f4 .LBB93
     /tmp/ccIEzqIP.s:428    .text:0000000000000240 .LBE93
     /tmp/ccIEzqIP.s:3229   .debug_loc:0000000000000000 .LLST18
     /tmp/ccIEzqIP.s:399    .text:00000000000001f4 .LBB94
     /tmp/ccIEzqIP.s:427    .text:0000000000000240 .LBE94
     /tmp/ccIEzqIP.s:3236   .debug_loc:0000000000000023 .LLST19
     /tmp/ccIEzqIP.s:410    .text:0000000000000210 .LVL33
     /tmp/ccIEzqIP.s:416    .text:0000000000000224 .LVL34
     /tmp/ccIEzqIP.s:426    .text:0000000000000240 .LVL36
     /tmp/ccIEzqIP.s:362    .text:00000000000001d4 .LFE55
     /tmp/ccIEzqIP.s:272    .text:0000000000000168 .LBB76
     /tmp/ccIEzqIP.s:334    .text:00000000000001a8 .LBE76
     /tmp/ccIEzqIP.s:273    .text:0000000000000168 .LBB77
     /tmp/ccIEzqIP.s:333    .text:00000000000001a8 .LBE77
     /tmp/ccIEzqIP.s:275    .text:0000000000000168 .LBB79
     /tmp/ccIEzqIP.s:3447   .debug_ranges:0000000000000000 .Ldebug_ranges0
     /tmp/ccIEzqIP.s:3243   .debug_loc:0000000000000046 .LLST12
     /tmp/ccIEzqIP.s:3254   .debug_loc:000000000000007c .LLST13
     /tmp/ccIEzqIP.s:3272   .debug_loc:00000000000000c8 .LLST14
     /tmp/ccIEzqIP.s:286    .text:0000000000000174 .LBB82
     /tmp/ccIEzqIP.s:297    .text:0000000000000188 .LBE82
     /tmp/ccIEzqIP.s:3287   .debug_loc:0000000000000111 .LLST15
     /tmp/ccIEzqIP.s:290    .text:000000000000017c .LVL22
     /tmp/ccIEzqIP.s:294    .text:0000000000000188 .LVL23
     /tmp/ccIEzqIP.s:301    .text:0000000000000188 .LBB86
     /tmp/ccIEzqIP.s:307    .text:000000000000018c .LBE86
     /tmp/ccIEzqIP.s:3294   .debug_loc:0000000000000134 .LLST16
     /tmp/ccIEzqIP.s:335    .text:00000000000001a8 .LBB89
     /tmp/ccIEzqIP.s:347    .text:00000000000001bc .LBE89
     /tmp/ccIEzqIP.s:3301   .debug_loc:0000000000000157 .LLST17
     /tmp/ccIEzqIP.s:339    .text:00000000000001b0 .LVL29
     /tmp/ccIEzqIP.s:343    .text:00000000000001bc .LVL30
     /tmp/ccIEzqIP.s:160    .text:00000000000000c8 .LFB54
     /tmp/ccIEzqIP.s:240    .text:000000000000013c .LFE54
     /tmp/ccIEzqIP.s:3308   .debug_loc:000000000000017a .LLST5
GAS LISTING /tmp/ccIEzqIP.s 			page 18


     /tmp/ccIEzqIP.s:182    .text:00000000000000f0 .LBB54
     /tmp/ccIEzqIP.s:3330   .debug_loc:00000000000001d9 .LLST6
     /tmp/ccIEzqIP.s:3345   .debug_loc:0000000000000222 .LLST7
     /tmp/ccIEzqIP.s:184    .text:00000000000000f0 .LBB56
     /tmp/ccIEzqIP.s:194    .text:0000000000000104 .LBE56
     /tmp/ccIEzqIP.s:3356   .debug_loc:0000000000000258 .LLST8
     /tmp/ccIEzqIP.s:188    .text:00000000000000f8 .LVL13
     /tmp/ccIEzqIP.s:192    .text:0000000000000104 .LVL14
     /tmp/ccIEzqIP.s:195    .text:0000000000000104 .LBB58
     /tmp/ccIEzqIP.s:202    .text:000000000000010c .LBE58
     /tmp/ccIEzqIP.s:3364   .debug_loc:000000000000027c .LLST9
     /tmp/ccIEzqIP.s:3372   .debug_loc:00000000000002a0 .LLST10
     /tmp/ccIEzqIP.s:3379   .debug_loc:00000000000002c3 .LLST11
     /tmp/ccIEzqIP.s:59     .text:0000000000000044 .LFB53
     /tmp/ccIEzqIP.s:154    .text:00000000000000c8 .LFE53
     /tmp/ccIEzqIP.s:79     .text:0000000000000068 .LBB37
     /tmp/ccIEzqIP.s:3386   .debug_loc:00000000000002e6 .LLST1
     /tmp/ccIEzqIP.s:3397   .debug_loc:000000000000031c .LLST2
     /tmp/ccIEzqIP.s:3408   .debug_loc:0000000000000352 .LLST3
     /tmp/ccIEzqIP.s:100    .text:0000000000000084 .LBB41
     /tmp/ccIEzqIP.s:111    .text:0000000000000098 .LBE41
     /tmp/ccIEzqIP.s:3419   .debug_loc:0000000000000388 .LLST4
     /tmp/ccIEzqIP.s:104    .text:000000000000008c .LVL6
     /tmp/ccIEzqIP.s:108    .text:0000000000000098 .LVL7
     /tmp/ccIEzqIP.s:13     .text:0000000000000000 .LFB52
     /tmp/ccIEzqIP.s:53     .text:0000000000000044 .LFE52
     /tmp/ccIEzqIP.s:27     .text:0000000000000010 .LBB29
     /tmp/ccIEzqIP.s:38     .text:0000000000000024 .LBE29
     /tmp/ccIEzqIP.s:3426   .debug_loc:00000000000003ab .LLST0
     /tmp/ccIEzqIP.s:32     .text:0000000000000018 .LVL1
     /tmp/ccIEzqIP.s:36     .text:0000000000000024 .LVL2
     /tmp/ccIEzqIP.s:3631   .debug_str:00000000000004c0 .LASF126
     /tmp/ccIEzqIP.s:3601   .debug_str:00000000000003db .LASF128
     /tmp/ccIEzqIP.s:3593   .debug_str:0000000000000397 .LASF127
     /tmp/ccIEzqIP.s:397    .text:00000000000001f4 .LVL31
     /tmp/ccIEzqIP.s:402    .text:00000000000001f8 .LVL32
     /tmp/ccIEzqIP.s:270    .text:0000000000000168 .LVL19
     /tmp/ccIEzqIP.s:310    .text:0000000000000190 .LVL25
     /tmp/ccIEzqIP.s:326    .text:00000000000001a8 .LVL28
     /tmp/ccIEzqIP.s:280    .text:000000000000016c .LVL20
     /tmp/ccIEzqIP.s:317    .text:0000000000000198 .LVL26
     /tmp/ccIEzqIP.s:321    .text:000000000000019c .LVL27
     /tmp/ccIEzqIP.s:285    .text:0000000000000174 .LVL21
     /tmp/ccIEzqIP.s:305    .text:000000000000018c .LVL24
     /tmp/ccIEzqIP.s:163    .text:00000000000000c8 .LVL11
     /tmp/ccIEzqIP.s:225    .text:000000000000012c .LVL17
     /tmp/ccIEzqIP.s:229    .text:0000000000000134 .LVL18
     /tmp/ccIEzqIP.s:181    .text:00000000000000f0 .LVL12
     /tmp/ccIEzqIP.s:211    .text:000000000000011c .LVL16
     /tmp/ccIEzqIP.s:200    .text:000000000000010c .LVL15
     /tmp/ccIEzqIP.s:78     .text:0000000000000068 .LVL3
     /tmp/ccIEzqIP.s:131    .text:00000000000000b4 .LVL8
     /tmp/ccIEzqIP.s:148    .text:00000000000000c4 .LVL10
     /tmp/ccIEzqIP.s:90     .text:0000000000000074 .LVL4
     /tmp/ccIEzqIP.s:142    .text:00000000000000c0 .LVL9
     /tmp/ccIEzqIP.s:99     .text:0000000000000084 .LVL5
     /tmp/ccIEzqIP.s:26     .text:0000000000000010 .LVL0
GAS LISTING /tmp/ccIEzqIP.s 			page 19


     /tmp/ccIEzqIP.s:465    .debug_info:0000000000000000 .Ldebug_info0
     /tmp/ccIEzqIP.s:115    .text:0000000000000098 .LBE37
     /tmp/ccIEzqIP.s:134    .text:00000000000000b4 .LBB46
     /tmp/ccIEzqIP.s:150    .text:00000000000000c4 .LBE46
     /tmp/ccIEzqIP.s:87     .text:0000000000000070 .LBB40
     /tmp/ccIEzqIP.s:112    .text:0000000000000098 .LBE40
     /tmp/ccIEzqIP.s:137    .text:00000000000000b4 .LBB43
     /tmp/ccIEzqIP.s:144    .text:00000000000000c0 .LBE43
     /tmp/ccIEzqIP.s:213    .text:000000000000011c .LBE54
     /tmp/ccIEzqIP.s:232    .text:0000000000000134 .LBB61
     /tmp/ccIEzqIP.s:238    .text:000000000000013c .LBE61
     /tmp/ccIEzqIP.s:300    .text:0000000000000188 .LBE79
     /tmp/ccIEzqIP.s:311    .text:0000000000000190 .LBB88
     /tmp/ccIEzqIP.s:331    .text:00000000000001a8 .LBE88
     /tmp/ccIEzqIP.s:277    .text:0000000000000168 .LBB81
     /tmp/ccIEzqIP.s:298    .text:0000000000000188 .LBE81
     /tmp/ccIEzqIP.s:318    .text:0000000000000198 .LBB84
     /tmp/ccIEzqIP.s:329    .text:00000000000001a8 .LBE84
     /tmp/ccIEzqIP.s:365    .gcc_except_table:0000000000000000 .LLSDA55

UNDEFINED SYMBOLS
_ZN15MemoryAllocator11getInstanceEv
_ZN15MemoryAllocator9mem_allocEm
_ZN15MemoryAllocator8mem_freeEPv
__gxx_personality_v0
_Z5printPKcc
_Z5printmcb
