GAS LISTING /tmp/ccYq4BGl.s 			page 1


   1              		.file	"scheduler.cpp"
   2              		.option nopic
   3              		.option norelax
   4              		.attribute arch, "rv64i2p0_m2p0_a2p0"
   5              		.attribute unaligned_access, 0
   6              		.attribute stack_align, 16
   7              		.text
   8              	.Ltext0:
   9              		.align	2
  10              		.globl	_ZN9Scheduler3cmpEP3TCBS1_
  12              	_ZN9Scheduler3cmpEP3TCBS1_:
  13              	.LFB31:
  14              		.file 1 "src/cpp/scheduler.cpp"
   1:src/cpp/scheduler.cpp **** #include"../../h/ptr_queue.hpp"
   2:src/cpp/scheduler.cpp **** #include"../../h/tcb.hpp"
   3:src/cpp/scheduler.cpp **** #include"../../h/scheduler.hpp"
   4:src/cpp/scheduler.cpp **** 
   5:src/cpp/scheduler.cpp **** TcbQueue Scheduler::queue;
   6:src/cpp/scheduler.cpp **** TcbQueue Scheduler::sleeping;
   7:src/cpp/scheduler.cpp **** 
   8:src/cpp/scheduler.cpp **** 
   9:src/cpp/scheduler.cpp **** TCB* Scheduler::get() { return queue.remove(); }
  10:src/cpp/scheduler.cpp **** 
  11:src/cpp/scheduler.cpp **** void Scheduler::put(TCB* ptr) { queue.insert(ptr); }
  12:src/cpp/scheduler.cpp **** 
  13:src/cpp/scheduler.cpp **** void Scheduler::initalize(){}
  14:src/cpp/scheduler.cpp **** 
  15:src/cpp/scheduler.cpp **** void Scheduler::finalize(){}
  16:src/cpp/scheduler.cpp **** 
  17:src/cpp/scheduler.cpp **** void Scheduler::print_queue() { queue.printQueue(); }
  18:src/cpp/scheduler.cpp **** 
  19:src/cpp/scheduler.cpp **** int Scheduler::cmp(TCB* x1, TCB* x2)
  20:src/cpp/scheduler.cpp **** {
  15              		.loc 1 20 1
  16              		.cfi_startproc
  17              	.LVL0:
  18 0000 130101FF 		addi	sp,sp,-16
  19              		.cfi_def_cfa_offset 16
  20 0004 23348100 		sd	s0,8(sp)
  21              		.cfi_offset 8, -8
  22 0008 13040101 		addi	s0,sp,16
  23              		.cfi_def_cfa 8, 0
  21:src/cpp/scheduler.cpp ****     int diff = (int)x1->sleep_time-(int)x2->sleep_time;
  24              		.loc 1 21 5
  25              		.loc 1 21 35 is_stmt 0
  26 000c 83268500 		lw	a3,8(a0)
  27 0010 03A78500 		lw	a4,8(a1)
  28              		.loc 1 21 9
  29 0014 BB87E640 		subw	a5,a3,a4
  30              	.LVL1:
  22:src/cpp/scheduler.cpp ****     if(diff>=0)
  31              		.loc 1 22 5 is_stmt 1
  32 0018 63CC0700 		blt	a5,zero,.L2
  23:src/cpp/scheduler.cpp ****         x1->sleep_time = diff;
  33              		.loc 1 23 9
  34              		.loc 1 23 24 is_stmt 0
  35 001c 2334F500 		sd	a5,8(a0)
GAS LISTING /tmp/ccYq4BGl.s 			page 2


  36              	.LVL2:
  37              	.L3:
  24:src/cpp/scheduler.cpp ****     else
  25:src/cpp/scheduler.cpp ****         x2->sleep_time = -diff;
  26:src/cpp/scheduler.cpp ****     return diff;
  38              		.loc 1 26 5 is_stmt 1
  27:src/cpp/scheduler.cpp **** }
  39              		.loc 1 27 1 is_stmt 0
  40 0020 13850700 		mv	a0,a5
  41              	.LVL3:
  42 0024 03348100 		ld	s0,8(sp)
  43              		.cfi_remember_state
  44              		.cfi_restore 8
  45              		.cfi_def_cfa 2, 16
  46 0028 13010101 		addi	sp,sp,16
  47              		.cfi_def_cfa_offset 0
  48 002c 67800000 		jr	ra
  49              	.LVL4:
  50              	.L2:
  51              		.cfi_restore_state
  25:src/cpp/scheduler.cpp ****     return diff;
  52              		.loc 1 25 9 is_stmt 1
  25:src/cpp/scheduler.cpp ****     return diff;
  53              		.loc 1 25 26 is_stmt 0
  54 0030 3B07D740 		subw	a4,a4,a3
  55              	.LVL5:
  25:src/cpp/scheduler.cpp ****     return diff;
  56              		.loc 1 25 24
  57 0034 23B4E500 		sd	a4,8(a1)
  58              	.LVL6:
  59 0038 6FF09FFE 		j	.L3
  60              		.cfi_endproc
  61              	.LFE31:
  63              		.align	2
  65              	_Z41__static_initialization_and_destruction_0ii:
  66              	.LFB34:
  28:src/cpp/scheduler.cpp **** 
  29:src/cpp/scheduler.cpp **** void Scheduler::put_sleeper(TCB* t, time_t time)
  30:src/cpp/scheduler.cpp **** {
  31:src/cpp/scheduler.cpp ****     t->sleep_time = time;
  32:src/cpp/scheduler.cpp ****     sleeping.insertSorted(t, cmp);  
  33:src/cpp/scheduler.cpp **** }
  34:src/cpp/scheduler.cpp **** 
  35:src/cpp/scheduler.cpp **** void Scheduler::update_sleep()
  36:src/cpp/scheduler.cpp **** {
  37:src/cpp/scheduler.cpp ****     TCB* t = sleeping.top();
  38:src/cpp/scheduler.cpp ****     if(t == nullptr) return;
  39:src/cpp/scheduler.cpp ****     t->sleep_time--;
  40:src/cpp/scheduler.cpp ****     while(t && t->sleep_time == 0){
  41:src/cpp/scheduler.cpp ****         sleeping.remove();
  42:src/cpp/scheduler.cpp ****         
  43:src/cpp/scheduler.cpp ****         t->setState(TCB::READY);
  44:src/cpp/scheduler.cpp ****         put(t);
  45:src/cpp/scheduler.cpp ****         
  46:src/cpp/scheduler.cpp ****         t = sleeping.top();
  47:src/cpp/scheduler.cpp ****     }
  48:src/cpp/scheduler.cpp **** }...
GAS LISTING /tmp/ccYq4BGl.s 			page 3


  67              		.loc 1 48 1 is_stmt 1
  68              		.cfi_startproc
  69              	.LVL7:
  70 003c 130101FF 		addi	sp,sp,-16
  71              		.cfi_def_cfa_offset 16
  72 0040 23348100 		sd	s0,8(sp)
  73              		.cfi_offset 8, -8
  74 0044 13040101 		addi	s0,sp,16
  75              		.cfi_def_cfa 8, 0
  76              		.loc 1 48 1 is_stmt 0
  77 0048 93071000 		li	a5,1
  78 004c 6308F500 		beq	a0,a5,.L8
  79              	.L5:
  80 0050 03348100 		ld	s0,8(sp)
  81              		.cfi_remember_state
  82              		.cfi_restore 8
  83              		.cfi_def_cfa 2, 16
  84 0054 13010101 		addi	sp,sp,16
  85              		.cfi_def_cfa_offset 0
  86 0058 67800000 		jr	ra
  87              	.L8:
  88              		.cfi_restore_state
  89              		.loc 1 48 1 discriminator 1
  90 005c B7070100 		li	a5,65536
  91 0060 9387F7FF 		addi	a5,a5,-1
  92 0064 E396F5FE 		bne	a1,a5,.L5
  93              	.LVL8:
  94              	.LBB10:
  95              	.LBB11:
  96              	.LBB12:
  97              		.file 2 "src/cpp/../../h/ptr_queue.hpp"
   1:src/cpp/../../h/ptr_queue.hpp **** #ifndef _queue_h
   2:src/cpp/../../h/ptr_queue.hpp **** #define _queue_h
   3:src/cpp/../../h/ptr_queue.hpp **** 
   4:src/cpp/../../h/ptr_queue.hpp **** #include"../h/tcb.hpp"
   5:src/cpp/../../h/ptr_queue.hpp **** //#include"../h/testing.hpp"
   6:src/cpp/../../h/ptr_queue.hpp **** 
   7:src/cpp/../../h/ptr_queue.hpp **** class TcbQueue{
   8:src/cpp/../../h/ptr_queue.hpp ****        
   9:src/cpp/../../h/ptr_queue.hpp ****    TCB *head, *tail;
  10:src/cpp/../../h/ptr_queue.hpp **** 
  11:src/cpp/../../h/ptr_queue.hpp ****     void brisi(){
  12:src/cpp/../../h/ptr_queue.hpp ****         while(!isEmpty())
  13:src/cpp/../../h/ptr_queue.hpp ****             remove();
  14:src/cpp/../../h/ptr_queue.hpp ****     }
  15:src/cpp/../../h/ptr_queue.hpp **** 
  16:src/cpp/../../h/ptr_queue.hpp **** public:
  17:src/cpp/../../h/ptr_queue.hpp ****     #include"../h/kernel_operators.hpp"
  18:src/cpp/../../h/ptr_queue.hpp ****     TcbQueue():head(nullptr), tail(nullptr){}
  98              		.loc 2 18 43
  99 0068 97070000 		lla	a5,.LANCHOR0
  99      93870700 
 100 0070 23B00700 		sd	zero,0(a5)
 101 0074 23B40700 		sd	zero,8(a5)
 102              	.LVL9:
 103              	.LBE12:
 104              	.LBE11:
GAS LISTING /tmp/ccYq4BGl.s 			page 4


 105              	.LBE10:
 106              	.LBB13:
 107              	.LBB14:
 108              	.LBB15:
 109 0078 23B80700 		sd	zero,16(a5)
 110 007c 23BC0700 		sd	zero,24(a5)
 111              	.LBE15:
 112              	.LBE14:
 113              	.LBE13:
 114              		.loc 1 48 1
 115 0080 6FF01FFD 		j	.L5
 116              		.cfi_endproc
 117              	.LFE34:
 119              		.align	2
 120              		.globl	_ZN9Scheduler3getEv
 122              	_ZN9Scheduler3getEv:
 123              	.LFB26:
   9:src/cpp/scheduler.cpp **** TCB* Scheduler::get() { return queue.remove(); }
 124              		.loc 1 9 23 is_stmt 1
 125              		.cfi_startproc
 126 0084 130101FF 		addi	sp,sp,-16
 127              		.cfi_def_cfa_offset 16
 128 0088 23341100 		sd	ra,8(sp)
 129 008c 23308100 		sd	s0,0(sp)
 130              		.cfi_offset 1, -8
 131              		.cfi_offset 8, -16
 132 0090 13040101 		addi	s0,sp,16
 133              		.cfi_def_cfa 8, 0
   9:src/cpp/scheduler.cpp **** TCB* Scheduler::get() { return queue.remove(); }
 134              		.loc 1 9 25
   9:src/cpp/scheduler.cpp **** TCB* Scheduler::get() { return queue.remove(); }
 135              		.loc 1 9 44 is_stmt 0
 136 0094 17050000 		lla	a0,.LANCHOR0
 136      13050500 
 137 009c 97000000 		call	_ZN8TcbQueue6removeEv
 137      E7800000 
 138              	.LVL10:
   9:src/cpp/scheduler.cpp **** TCB* Scheduler::get() { return queue.remove(); }
 139              		.loc 1 9 48
 140 00a4 83308100 		ld	ra,8(sp)
 141              		.cfi_restore 1
 142 00a8 03340100 		ld	s0,0(sp)
 143              		.cfi_restore 8
 144              		.cfi_def_cfa 2, 16
 145 00ac 13010101 		addi	sp,sp,16
 146              		.cfi_def_cfa_offset 0
 147 00b0 67800000 		jr	ra
 148              		.cfi_endproc
 149              	.LFE26:
 151              		.align	2
 152              		.globl	_ZN9Scheduler3putEP3TCB
 154              	_ZN9Scheduler3putEP3TCB:
 155              	.LFB27:
  11:src/cpp/scheduler.cpp **** void Scheduler::put(TCB* ptr) { queue.insert(ptr); }
 156              		.loc 1 11 31 is_stmt 1
 157              		.cfi_startproc
 158              	.LVL11:
GAS LISTING /tmp/ccYq4BGl.s 			page 5


 159 00b4 130101FF 		addi	sp,sp,-16
 160              		.cfi_def_cfa_offset 16
 161 00b8 23341100 		sd	ra,8(sp)
 162 00bc 23308100 		sd	s0,0(sp)
 163              		.cfi_offset 1, -8
 164              		.cfi_offset 8, -16
 165 00c0 13040101 		addi	s0,sp,16
 166              		.cfi_def_cfa 8, 0
  11:src/cpp/scheduler.cpp **** void Scheduler::put(TCB* ptr) { queue.insert(ptr); }
 167              		.loc 1 11 33
  11:src/cpp/scheduler.cpp **** void Scheduler::put(TCB* ptr) { queue.insert(ptr); }
 168              		.loc 1 11 49 is_stmt 0
 169 00c4 93050500 		mv	a1,a0
 170 00c8 17050000 		lla	a0,.LANCHOR0
 170      13050500 
 171              	.LVL12:
 172 00d0 97000000 		call	_ZN8TcbQueue6insertEP3TCB
 172      E7800000 
 173              	.LVL13:
  11:src/cpp/scheduler.cpp **** void Scheduler::put(TCB* ptr) { queue.insert(ptr); }
 174              		.loc 1 11 52
 175 00d8 83308100 		ld	ra,8(sp)
 176              		.cfi_restore 1
 177 00dc 03340100 		ld	s0,0(sp)
 178              		.cfi_restore 8
 179              		.cfi_def_cfa 2, 16
 180 00e0 13010101 		addi	sp,sp,16
 181              		.cfi_def_cfa_offset 0
 182 00e4 67800000 		jr	ra
 183              		.cfi_endproc
 184              	.LFE27:
 186              		.align	2
 187              		.globl	_ZN9Scheduler9initalizeEv
 189              	_ZN9Scheduler9initalizeEv:
 190              	.LFB28:
  13:src/cpp/scheduler.cpp **** void Scheduler::initalize(){}
 191              		.loc 1 13 28 is_stmt 1
 192              		.cfi_startproc
 193 00e8 130101FF 		addi	sp,sp,-16
 194              		.cfi_def_cfa_offset 16
 195 00ec 23348100 		sd	s0,8(sp)
 196              		.cfi_offset 8, -8
 197 00f0 13040101 		addi	s0,sp,16
 198              		.cfi_def_cfa 8, 0
  13:src/cpp/scheduler.cpp **** void Scheduler::initalize(){}
 199              		.loc 1 13 29 is_stmt 0
 200 00f4 03348100 		ld	s0,8(sp)
 201              		.cfi_restore 8
 202              		.cfi_def_cfa 2, 16
 203 00f8 13010101 		addi	sp,sp,16
 204              		.cfi_def_cfa_offset 0
 205 00fc 67800000 		jr	ra
 206              		.cfi_endproc
 207              	.LFE28:
 209              		.align	2
 210              		.globl	_ZN9Scheduler8finalizeEv
 212              	_ZN9Scheduler8finalizeEv:
GAS LISTING /tmp/ccYq4BGl.s 			page 6


 213              	.LFB29:
  15:src/cpp/scheduler.cpp **** void Scheduler::finalize(){}
 214              		.loc 1 15 27 is_stmt 1
 215              		.cfi_startproc
 216 0100 130101FF 		addi	sp,sp,-16
 217              		.cfi_def_cfa_offset 16
 218 0104 23348100 		sd	s0,8(sp)
 219              		.cfi_offset 8, -8
 220 0108 13040101 		addi	s0,sp,16
 221              		.cfi_def_cfa 8, 0
  15:src/cpp/scheduler.cpp **** void Scheduler::finalize(){}
 222              		.loc 1 15 28 is_stmt 0
 223 010c 03348100 		ld	s0,8(sp)
 224              		.cfi_restore 8
 225              		.cfi_def_cfa 2, 16
 226 0110 13010101 		addi	sp,sp,16
 227              		.cfi_def_cfa_offset 0
 228 0114 67800000 		jr	ra
 229              		.cfi_endproc
 230              	.LFE29:
 232              		.align	2
 233              		.globl	_ZN9Scheduler11print_queueEv
 235              	_ZN9Scheduler11print_queueEv:
 236              	.LFB30:
  17:src/cpp/scheduler.cpp **** void Scheduler::print_queue() { queue.printQueue(); }
 237              		.loc 1 17 31 is_stmt 1
 238              		.cfi_startproc
 239 0118 130101FF 		addi	sp,sp,-16
 240              		.cfi_def_cfa_offset 16
 241 011c 23341100 		sd	ra,8(sp)
 242 0120 23308100 		sd	s0,0(sp)
 243              		.cfi_offset 1, -8
 244              		.cfi_offset 8, -16
 245 0124 13040101 		addi	s0,sp,16
 246              		.cfi_def_cfa 8, 0
  17:src/cpp/scheduler.cpp **** void Scheduler::print_queue() { queue.printQueue(); }
 247              		.loc 1 17 33
  17:src/cpp/scheduler.cpp **** void Scheduler::print_queue() { queue.printQueue(); }
 248              		.loc 1 17 49 is_stmt 0
 249 0128 17050000 		lla	a0,.LANCHOR0
 249      13050500 
 250 0130 97000000 		call	_ZN8TcbQueue10printQueueEv
 250      E7800000 
 251              	.LVL14:
  17:src/cpp/scheduler.cpp **** void Scheduler::print_queue() { queue.printQueue(); }
 252              		.loc 1 17 53
 253 0138 83308100 		ld	ra,8(sp)
 254              		.cfi_restore 1
 255 013c 03340100 		ld	s0,0(sp)
 256              		.cfi_restore 8
 257              		.cfi_def_cfa 2, 16
 258 0140 13010101 		addi	sp,sp,16
 259              		.cfi_def_cfa_offset 0
 260 0144 67800000 		jr	ra
 261              		.cfi_endproc
 262              	.LFE30:
 264              		.align	2
GAS LISTING /tmp/ccYq4BGl.s 			page 7


 265              		.globl	_ZN9Scheduler11put_sleeperEP3TCBm
 267              	_ZN9Scheduler11put_sleeperEP3TCBm:
 268              	.LFB32:
  30:src/cpp/scheduler.cpp **** {
 269              		.loc 1 30 1 is_stmt 1
 270              		.cfi_startproc
 271              	.LVL15:
 272 0148 130101FF 		addi	sp,sp,-16
 273              		.cfi_def_cfa_offset 16
 274 014c 23341100 		sd	ra,8(sp)
 275 0150 23308100 		sd	s0,0(sp)
 276              		.cfi_offset 1, -8
 277              		.cfi_offset 8, -16
 278 0154 13040101 		addi	s0,sp,16
 279              		.cfi_def_cfa 8, 0
  31:src/cpp/scheduler.cpp ****     t->sleep_time = time;
 280              		.loc 1 31 5
  31:src/cpp/scheduler.cpp ****     t->sleep_time = time;
 281              		.loc 1 31 19 is_stmt 0
 282 0158 2334B500 		sd	a1,8(a0)
  32:src/cpp/scheduler.cpp ****     sleeping.insertSorted(t, cmp);  
 283              		.loc 1 32 5 is_stmt 1
  32:src/cpp/scheduler.cpp ****     sleeping.insertSorted(t, cmp);  
 284              		.loc 1 32 26 is_stmt 0
 285 015c 17060000 		lla	a2,_ZN9Scheduler3cmpEP3TCBS1_
 285      13060600 
 286 0164 93050500 		mv	a1,a0
 287              	.LVL16:
 288 0168 17050000 		lla	a0,.LANCHOR0+16
 288      13050500 
 289              	.LVL17:
 290 0170 97000000 		call	_ZN8TcbQueue12insertSortedEP3TCBPFiS1_S1_E
 290      E7800000 
 291              	.LVL18:
  33:src/cpp/scheduler.cpp **** }
 292              		.loc 1 33 1
 293 0178 83308100 		ld	ra,8(sp)
 294              		.cfi_restore 1
 295 017c 03340100 		ld	s0,0(sp)
 296              		.cfi_restore 8
 297              		.cfi_def_cfa 2, 16
 298 0180 13010101 		addi	sp,sp,16
 299              		.cfi_def_cfa_offset 0
 300 0184 67800000 		jr	ra
 301              		.cfi_endproc
 302              	.LFE32:
 304              		.align	2
 305              		.globl	_ZN9Scheduler12update_sleepEv
 307              	_ZN9Scheduler12update_sleepEv:
 308              	.LFB33:
  36:src/cpp/scheduler.cpp **** {
 309              		.loc 1 36 1 is_stmt 1
 310              		.cfi_startproc
 311 0188 130101FE 		addi	sp,sp,-32
 312              		.cfi_def_cfa_offset 32
 313 018c 233C1100 		sd	ra,24(sp)
 314 0190 23388100 		sd	s0,16(sp)
GAS LISTING /tmp/ccYq4BGl.s 			page 8


 315 0194 23349100 		sd	s1,8(sp)
 316 0198 23302101 		sd	s2,0(sp)
 317              		.cfi_offset 1, -8
 318              		.cfi_offset 8, -16
 319              		.cfi_offset 9, -24
 320              		.cfi_offset 18, -32
 321 019c 13040102 		addi	s0,sp,32
 322              		.cfi_def_cfa 8, 0
  37:src/cpp/scheduler.cpp ****     TCB* t = sleeping.top();
 323              		.loc 1 37 5
  37:src/cpp/scheduler.cpp ****     TCB* t = sleeping.top();
 324              		.loc 1 37 26 is_stmt 0
 325 01a0 17050000 		lla	a0,.LANCHOR0+16
 325      13050500 
 326 01a8 97000000 		call	_ZN8TcbQueue3topEv
 326      E7800000 
 327              	.LVL19:
  38:src/cpp/scheduler.cpp ****     if(t == nullptr) return;
 328              		.loc 1 38 5 is_stmt 1
 329 01b0 630E0504 		beq	a0,zero,.L21
 330 01b4 93040500 		mv	s1,a0
  39:src/cpp/scheduler.cpp ****     t->sleep_time--;
 331              		.loc 1 39 5
  39:src/cpp/scheduler.cpp ****     t->sleep_time--;
 332              		.loc 1 39 8 is_stmt 0
 333 01b8 83378500 		ld	a5,8(a0)
  39:src/cpp/scheduler.cpp ****     t->sleep_time--;
 334              		.loc 1 39 18
 335 01bc 9387F7FF 		addi	a5,a5,-1
 336 01c0 2334F500 		sd	a5,8(a0)
 337              	.LVL20:
 338              	.L23:
  40:src/cpp/scheduler.cpp ****     while(t && t->sleep_time == 0){
 339              		.loc 1 40 5 is_stmt 1
  40:src/cpp/scheduler.cpp ****     while(t && t->sleep_time == 0){
 340              		.loc 1 40 13 is_stmt 0
 341 01c4 63840404 		beq	s1,zero,.L21
  40:src/cpp/scheduler.cpp ****     while(t && t->sleep_time == 0){
 342              		.loc 1 40 19 discriminator 1
 343 01c8 83B78400 		ld	a5,8(s1)
  40:src/cpp/scheduler.cpp ****     while(t && t->sleep_time == 0){
 344              		.loc 1 40 13 discriminator 1
 345 01cc 63900704 		bne	a5,zero,.L21
  41:src/cpp/scheduler.cpp ****         sleeping.remove();
 346              		.loc 1 41 9 is_stmt 1
  41:src/cpp/scheduler.cpp ****         sleeping.remove();
 347              		.loc 1 41 24 is_stmt 0
 348 01d0 17090000 		lla	s2,.LANCHOR0+16
 348      13090900 
 349 01d8 13050900 		mv	a0,s2
 350 01dc 97000000 		call	_ZN8TcbQueue6removeEv
 350      E7800000 
 351              	.LVL21:
  43:src/cpp/scheduler.cpp ****         t->setState(TCB::READY);
 352              		.loc 1 43 9 is_stmt 1
 353              	.LBB16:
 354              	.LBB17:
GAS LISTING /tmp/ccYq4BGl.s 			page 9


 355              		.file 3 "src/cpp/../../h/../h/tcb.hpp"
   1:src/cpp/../../h/../h/tcb.hpp **** #ifndef __tcb__h
   2:src/cpp/../../h/../h/tcb.hpp **** #define __tcb__h
   3:src/cpp/../../h/../h/tcb.hpp **** 
   4:src/cpp/../../h/../h/tcb.hpp **** #include"../h/memory_allocator.hpp"
   5:src/cpp/../../h/../h/tcb.hpp **** 
   6:src/cpp/../../h/../h/tcb.hpp **** class KSemaphore;
   7:src/cpp/../../h/../h/tcb.hpp **** 
   8:src/cpp/../../h/../h/tcb.hpp **** class TCB{
   9:src/cpp/../../h/../h/tcb.hpp ****     
  10:src/cpp/../../h/../h/tcb.hpp **** public:
  11:src/cpp/../../h/../h/tcb.hpp ****     //alokacija
  12:src/cpp/../../h/../h/tcb.hpp ****     #include"../h/kernel_operators.hpp"
  13:src/cpp/../../h/../h/tcb.hpp ****     
  14:src/cpp/../../h/../h/tcb.hpp ****     using Body = void (*)(void*);
  15:src/cpp/../../h/../h/tcb.hpp ****     enum TCBState{
  16:src/cpp/../../h/../h/tcb.hpp ****         BLOCKED,
  17:src/cpp/../../h/../h/tcb.hpp ****         READY,
  18:src/cpp/../../h/../h/tcb.hpp ****         FINISHED,
  19:src/cpp/../../h/../h/tcb.hpp ****         SLEEPING
  20:src/cpp/../../h/../h/tcb.hpp ****     };
  21:src/cpp/../../h/../h/tcb.hpp ****     
  22:src/cpp/../../h/../h/tcb.hpp ****     ~TCB(){ 
  23:src/cpp/../../h/../h/tcb.hpp ****         MemoryAllocator& allocator = MemoryAllocator::getInstance(); 
  24:src/cpp/../../h/../h/tcb.hpp ****         if(!allocator.invalidFreeAddress(this))
  25:src/cpp/../../h/../h/tcb.hpp ****             allocator.mem_free(stack);
  26:src/cpp/../../h/../h/tcb.hpp ****     }
  27:src/cpp/../../h/../h/tcb.hpp ****     
  28:src/cpp/../../h/../h/tcb.hpp ****     //nestaticki metodi
  29:src/cpp/../../h/../h/tcb.hpp ****     void setState(TCBState s) {state = s;}
 356              		.loc 3 29 32
 357              		.loc 3 29 38 is_stmt 0
 358 01e4 93071000 		li	a5,1
 359 01e8 23ACF402 		sw	a5,56(s1)
 360              	.LVL22:
 361              	.LBE17:
 362              	.LBE16:
  44:src/cpp/scheduler.cpp ****         put(t);
 363              		.loc 1 44 9 is_stmt 1
  44:src/cpp/scheduler.cpp ****         put(t);
 364              		.loc 1 44 12 is_stmt 0
 365 01ec 13850400 		mv	a0,s1
 366 01f0 97000000 		call	_ZN9Scheduler3putEP3TCB
 366      E7800000 
 367              	.LVL23:
  46:src/cpp/scheduler.cpp ****         t = sleeping.top();
 368              		.loc 1 46 9 is_stmt 1
  46:src/cpp/scheduler.cpp ****         t = sleeping.top();
 369              		.loc 1 46 25 is_stmt 0
 370 01f8 13050900 		mv	a0,s2
 371 01fc 97000000 		call	_ZN8TcbQueue3topEv
 371      E7800000 
 372              	.LVL24:
 373 0204 93040500 		mv	s1,a0
 374              	.LVL25:
  40:src/cpp/scheduler.cpp ****     while(t && t->sleep_time == 0){
 375              		.loc 1 40 5
GAS LISTING /tmp/ccYq4BGl.s 			page 10


 376 0208 6FF0DFFB 		j	.L23
 377              	.LVL26:
 378              	.L21:
 379              		.loc 1 48 1
 380 020c 83308101 		ld	ra,24(sp)
 381              		.cfi_restore 1
 382 0210 03340101 		ld	s0,16(sp)
 383              		.cfi_restore 8
 384              		.cfi_def_cfa 2, 32
 385 0214 83348100 		ld	s1,8(sp)
 386              		.cfi_restore 9
 387 0218 03390100 		ld	s2,0(sp)
 388              		.cfi_restore 18
 389 021c 13010102 		addi	sp,sp,32
 390              		.cfi_def_cfa_offset 0
 391 0220 67800000 		jr	ra
 392              		.cfi_endproc
 393              	.LFE33:
 395              		.align	2
 397              	_GLOBAL__sub_I__ZN9Scheduler5queueE:
 398              	.LFB35:
 399              		.loc 1 48 1 is_stmt 1
 400              		.cfi_startproc
 401 0224 130101FF 		addi	sp,sp,-16
 402              		.cfi_def_cfa_offset 16
 403 0228 23341100 		sd	ra,8(sp)
 404 022c 23308100 		sd	s0,0(sp)
 405              		.cfi_offset 1, -8
 406              		.cfi_offset 8, -16
 407 0230 13040101 		addi	s0,sp,16
 408              		.cfi_def_cfa 8, 0
 409              		.loc 1 48 1 is_stmt 0
 410 0234 B7050100 		li	a1,65536
 411 0238 9385F5FF 		addi	a1,a1,-1
 412 023c 13051000 		li	a0,1
 413 0240 97000000 		call	_Z41__static_initialization_and_destruction_0ii
 413      E7800000 
 414              	.LVL27:
 415 0248 83308100 		ld	ra,8(sp)
 416              		.cfi_restore 1
 417 024c 03340100 		ld	s0,0(sp)
 418              		.cfi_restore 8
 419              		.cfi_def_cfa 2, 16
 420 0250 13010101 		addi	sp,sp,16
 421              		.cfi_def_cfa_offset 0
 422 0254 67800000 		jr	ra
 423              		.cfi_endproc
 424              	.LFE35:
 426              		.section	.init_array,"aw"
 427              		.align	3
 428 0000 00000000 		.dword	_GLOBAL__sub_I__ZN9Scheduler5queueE
 428      00000000 
 429              		.globl	_ZN9Scheduler8sleepingE
 430              		.globl	_ZN9Scheduler5queueE
 431              		.bss
 432              		.align	3
 433              		.set	.LANCHOR0,. + 0
GAS LISTING /tmp/ccYq4BGl.s 			page 11


 436              	_ZN9Scheduler5queueE:
 437 0000 00000000 		.zero	16
 437      00000000 
 437      00000000 
 437      00000000 
 440              	_ZN9Scheduler8sleepingE:
 441 0010 00000000 		.zero	16
 441      00000000 
 441      00000000 
 441      00000000 
 442              		.text
 443              	.Letext0:
 444              		.file 4 "src/cpp/../../h/../h/../h/../lib/hw.h"
 445              		.file 5 "src/cpp/../../h/../h/../h/kernel_operators.hpp"
 446              		.file 6 "src/cpp/../../h/../h/kernel_operators.hpp"
 447              		.file 7 "src/cpp/../../h/scheduler.hpp"
GAS LISTING /tmp/ccYq4BGl.s 			page 12


DEFINED SYMBOLS
                            *ABS*:0000000000000000 scheduler.cpp
     /tmp/ccYq4BGl.s:12     .text:0000000000000000 _ZN9Scheduler3cmpEP3TCBS1_
     /tmp/ccYq4BGl.s:16     .text:0000000000000000 .L0 
     /tmp/ccYq4BGl.s:18     .text:0000000000000000 .L0 
     /tmp/ccYq4BGl.s:19     .text:0000000000000004 .L0 
     /tmp/ccYq4BGl.s:21     .text:0000000000000008 .L0 
     /tmp/ccYq4BGl.s:23     .text:000000000000000c .L0 
     /tmp/ccYq4BGl.s:25     .text:000000000000000c .L0 
     /tmp/ccYq4BGl.s:26     .text:000000000000000c .L0 
     /tmp/ccYq4BGl.s:29     .text:0000000000000014 .L0 
     /tmp/ccYq4BGl.s:32     .text:0000000000000018 .L0 
     /tmp/ccYq4BGl.s:34     .text:000000000000001c .L0 
     /tmp/ccYq4BGl.s:35     .text:000000000000001c .L0 
     /tmp/ccYq4BGl.s:39     .text:0000000000000020 .L0 
     /tmp/ccYq4BGl.s:40     .text:0000000000000020 .L0 
     /tmp/ccYq4BGl.s:43     .text:0000000000000028 .L0 
     /tmp/ccYq4BGl.s:44     .text:0000000000000028 .L0 
     /tmp/ccYq4BGl.s:45     .text:0000000000000028 .L0 
     /tmp/ccYq4BGl.s:47     .text:000000000000002c .L0 
     /tmp/ccYq4BGl.s:51     .text:0000000000000030 .L0 
     /tmp/ccYq4BGl.s:53     .text:0000000000000030 .L0 
     /tmp/ccYq4BGl.s:54     .text:0000000000000030 .L0 
     /tmp/ccYq4BGl.s:57     .text:0000000000000034 .L0 
     /tmp/ccYq4BGl.s:60     .text:000000000000003c .L0 
     /tmp/ccYq4BGl.s:65     .text:000000000000003c _Z41__static_initialization_and_destruction_0ii
     /tmp/ccYq4BGl.s:68     .text:000000000000003c .L0 
     /tmp/ccYq4BGl.s:70     .text:000000000000003c .L0 
     /tmp/ccYq4BGl.s:71     .text:0000000000000040 .L0 
     /tmp/ccYq4BGl.s:73     .text:0000000000000044 .L0 
     /tmp/ccYq4BGl.s:75     .text:0000000000000048 .L0 
     /tmp/ccYq4BGl.s:77     .text:0000000000000048 .L0 
     /tmp/ccYq4BGl.s:81     .text:0000000000000054 .L0 
     /tmp/ccYq4BGl.s:82     .text:0000000000000054 .L0 
     /tmp/ccYq4BGl.s:83     .text:0000000000000054 .L0 
     /tmp/ccYq4BGl.s:85     .text:0000000000000058 .L0 
     /tmp/ccYq4BGl.s:88     .text:000000000000005c .L0 
     /tmp/ccYq4BGl.s:90     .text:000000000000005c .L0 
     /tmp/ccYq4BGl.s:99     .text:0000000000000068 .L0 
     /tmp/ccYq4BGl.s:115    .text:0000000000000080 .L0 
     /tmp/ccYq4BGl.s:116    .text:0000000000000084 .L0 
     /tmp/ccYq4BGl.s:122    .text:0000000000000084 _ZN9Scheduler3getEv
     /tmp/ccYq4BGl.s:125    .text:0000000000000084 .L0 
     /tmp/ccYq4BGl.s:126    .text:0000000000000084 .L0 
     /tmp/ccYq4BGl.s:127    .text:0000000000000088 .L0 
     /tmp/ccYq4BGl.s:130    .text:0000000000000090 .L0 
     /tmp/ccYq4BGl.s:131    .text:0000000000000090 .L0 
     /tmp/ccYq4BGl.s:133    .text:0000000000000094 .L0 
     /tmp/ccYq4BGl.s:135    .text:0000000000000094 .L0 
     /tmp/ccYq4BGl.s:136    .text:0000000000000094 .L0 
     /tmp/ccYq4BGl.s:140    .text:00000000000000a4 .L0 
     /tmp/ccYq4BGl.s:141    .text:00000000000000a8 .L0 
     /tmp/ccYq4BGl.s:143    .text:00000000000000ac .L0 
     /tmp/ccYq4BGl.s:144    .text:00000000000000ac .L0 
     /tmp/ccYq4BGl.s:146    .text:00000000000000b0 .L0 
     /tmp/ccYq4BGl.s:148    .text:00000000000000b4 .L0 
     /tmp/ccYq4BGl.s:154    .text:00000000000000b4 _ZN9Scheduler3putEP3TCB
GAS LISTING /tmp/ccYq4BGl.s 			page 13


     /tmp/ccYq4BGl.s:157    .text:00000000000000b4 .L0 
     /tmp/ccYq4BGl.s:159    .text:00000000000000b4 .L0 
     /tmp/ccYq4BGl.s:160    .text:00000000000000b8 .L0 
     /tmp/ccYq4BGl.s:163    .text:00000000000000c0 .L0 
     /tmp/ccYq4BGl.s:164    .text:00000000000000c0 .L0 
     /tmp/ccYq4BGl.s:166    .text:00000000000000c4 .L0 
     /tmp/ccYq4BGl.s:168    .text:00000000000000c4 .L0 
     /tmp/ccYq4BGl.s:169    .text:00000000000000c4 .L0 
     /tmp/ccYq4BGl.s:175    .text:00000000000000d8 .L0 
     /tmp/ccYq4BGl.s:176    .text:00000000000000dc .L0 
     /tmp/ccYq4BGl.s:178    .text:00000000000000e0 .L0 
     /tmp/ccYq4BGl.s:179    .text:00000000000000e0 .L0 
     /tmp/ccYq4BGl.s:181    .text:00000000000000e4 .L0 
     /tmp/ccYq4BGl.s:183    .text:00000000000000e8 .L0 
     /tmp/ccYq4BGl.s:189    .text:00000000000000e8 _ZN9Scheduler9initalizeEv
     /tmp/ccYq4BGl.s:192    .text:00000000000000e8 .L0 
     /tmp/ccYq4BGl.s:193    .text:00000000000000e8 .L0 
     /tmp/ccYq4BGl.s:194    .text:00000000000000ec .L0 
     /tmp/ccYq4BGl.s:196    .text:00000000000000f0 .L0 
     /tmp/ccYq4BGl.s:198    .text:00000000000000f4 .L0 
     /tmp/ccYq4BGl.s:200    .text:00000000000000f4 .L0 
     /tmp/ccYq4BGl.s:201    .text:00000000000000f8 .L0 
     /tmp/ccYq4BGl.s:202    .text:00000000000000f8 .L0 
     /tmp/ccYq4BGl.s:204    .text:00000000000000fc .L0 
     /tmp/ccYq4BGl.s:206    .text:0000000000000100 .L0 
     /tmp/ccYq4BGl.s:212    .text:0000000000000100 _ZN9Scheduler8finalizeEv
     /tmp/ccYq4BGl.s:215    .text:0000000000000100 .L0 
     /tmp/ccYq4BGl.s:216    .text:0000000000000100 .L0 
     /tmp/ccYq4BGl.s:217    .text:0000000000000104 .L0 
     /tmp/ccYq4BGl.s:219    .text:0000000000000108 .L0 
     /tmp/ccYq4BGl.s:221    .text:000000000000010c .L0 
     /tmp/ccYq4BGl.s:223    .text:000000000000010c .L0 
     /tmp/ccYq4BGl.s:224    .text:0000000000000110 .L0 
     /tmp/ccYq4BGl.s:225    .text:0000000000000110 .L0 
     /tmp/ccYq4BGl.s:227    .text:0000000000000114 .L0 
     /tmp/ccYq4BGl.s:229    .text:0000000000000118 .L0 
     /tmp/ccYq4BGl.s:235    .text:0000000000000118 _ZN9Scheduler11print_queueEv
     /tmp/ccYq4BGl.s:238    .text:0000000000000118 .L0 
     /tmp/ccYq4BGl.s:239    .text:0000000000000118 .L0 
     /tmp/ccYq4BGl.s:240    .text:000000000000011c .L0 
     /tmp/ccYq4BGl.s:243    .text:0000000000000124 .L0 
     /tmp/ccYq4BGl.s:244    .text:0000000000000124 .L0 
     /tmp/ccYq4BGl.s:246    .text:0000000000000128 .L0 
     /tmp/ccYq4BGl.s:248    .text:0000000000000128 .L0 
     /tmp/ccYq4BGl.s:249    .text:0000000000000128 .L0 
     /tmp/ccYq4BGl.s:253    .text:0000000000000138 .L0 
     /tmp/ccYq4BGl.s:254    .text:000000000000013c .L0 
     /tmp/ccYq4BGl.s:256    .text:0000000000000140 .L0 
     /tmp/ccYq4BGl.s:257    .text:0000000000000140 .L0 
     /tmp/ccYq4BGl.s:259    .text:0000000000000144 .L0 
     /tmp/ccYq4BGl.s:261    .text:0000000000000148 .L0 
     /tmp/ccYq4BGl.s:267    .text:0000000000000148 _ZN9Scheduler11put_sleeperEP3TCBm
     /tmp/ccYq4BGl.s:270    .text:0000000000000148 .L0 
     /tmp/ccYq4BGl.s:272    .text:0000000000000148 .L0 
     /tmp/ccYq4BGl.s:273    .text:000000000000014c .L0 
     /tmp/ccYq4BGl.s:276    .text:0000000000000154 .L0 
     /tmp/ccYq4BGl.s:277    .text:0000000000000154 .L0 
GAS LISTING /tmp/ccYq4BGl.s 			page 14


     /tmp/ccYq4BGl.s:279    .text:0000000000000158 .L0 
     /tmp/ccYq4BGl.s:281    .text:0000000000000158 .L0 
     /tmp/ccYq4BGl.s:282    .text:0000000000000158 .L0 
     /tmp/ccYq4BGl.s:284    .text:000000000000015c .L0 
     /tmp/ccYq4BGl.s:285    .text:000000000000015c .L0 
     /tmp/ccYq4BGl.s:293    .text:0000000000000178 .L0 
     /tmp/ccYq4BGl.s:294    .text:000000000000017c .L0 
     /tmp/ccYq4BGl.s:296    .text:0000000000000180 .L0 
     /tmp/ccYq4BGl.s:297    .text:0000000000000180 .L0 
     /tmp/ccYq4BGl.s:299    .text:0000000000000184 .L0 
     /tmp/ccYq4BGl.s:301    .text:0000000000000188 .L0 
     /tmp/ccYq4BGl.s:307    .text:0000000000000188 _ZN9Scheduler12update_sleepEv
     /tmp/ccYq4BGl.s:310    .text:0000000000000188 .L0 
     /tmp/ccYq4BGl.s:311    .text:0000000000000188 .L0 
     /tmp/ccYq4BGl.s:312    .text:000000000000018c .L0 
     /tmp/ccYq4BGl.s:317    .text:000000000000019c .L0 
     /tmp/ccYq4BGl.s:318    .text:000000000000019c .L0 
     /tmp/ccYq4BGl.s:319    .text:000000000000019c .L0 
     /tmp/ccYq4BGl.s:320    .text:000000000000019c .L0 
     /tmp/ccYq4BGl.s:322    .text:00000000000001a0 .L0 
     /tmp/ccYq4BGl.s:324    .text:00000000000001a0 .L0 
     /tmp/ccYq4BGl.s:325    .text:00000000000001a0 .L0 
     /tmp/ccYq4BGl.s:329    .text:00000000000001b0 .L0 
     /tmp/ccYq4BGl.s:332    .text:00000000000001b8 .L0 
     /tmp/ccYq4BGl.s:333    .text:00000000000001b8 .L0 
     /tmp/ccYq4BGl.s:335    .text:00000000000001bc .L0 
     /tmp/ccYq4BGl.s:340    .text:00000000000001c4 .L0 
     /tmp/ccYq4BGl.s:341    .text:00000000000001c4 .L0 
     /tmp/ccYq4BGl.s:343    .text:00000000000001c8 .L0 
     /tmp/ccYq4BGl.s:345    .text:00000000000001cc .L0 
     /tmp/ccYq4BGl.s:347    .text:00000000000001d0 .L0 
     /tmp/ccYq4BGl.s:348    .text:00000000000001d0 .L0 
     /tmp/ccYq4BGl.s:356    .text:00000000000001e4 .L0 
     /tmp/ccYq4BGl.s:357    .text:00000000000001e4 .L0 
     /tmp/ccYq4BGl.s:358    .text:00000000000001e4 .L0 
     /tmp/ccYq4BGl.s:364    .text:00000000000001ec .L0 
     /tmp/ccYq4BGl.s:365    .text:00000000000001ec .L0 
     /tmp/ccYq4BGl.s:369    .text:00000000000001f8 .L0 
     /tmp/ccYq4BGl.s:370    .text:00000000000001f8 .L0 
     /tmp/ccYq4BGl.s:376    .text:0000000000000208 .L0 
     /tmp/ccYq4BGl.s:380    .text:000000000000020c .L0 
     /tmp/ccYq4BGl.s:381    .text:0000000000000210 .L0 
     /tmp/ccYq4BGl.s:383    .text:0000000000000214 .L0 
     /tmp/ccYq4BGl.s:384    .text:0000000000000214 .L0 
     /tmp/ccYq4BGl.s:386    .text:0000000000000218 .L0 
     /tmp/ccYq4BGl.s:388    .text:000000000000021c .L0 
     /tmp/ccYq4BGl.s:390    .text:0000000000000220 .L0 
     /tmp/ccYq4BGl.s:392    .text:0000000000000224 .L0 
     /tmp/ccYq4BGl.s:397    .text:0000000000000224 _GLOBAL__sub_I__ZN9Scheduler5queueE
     /tmp/ccYq4BGl.s:400    .text:0000000000000224 .L0 
     /tmp/ccYq4BGl.s:401    .text:0000000000000224 .L0 
     /tmp/ccYq4BGl.s:402    .text:0000000000000228 .L0 
     /tmp/ccYq4BGl.s:405    .text:0000000000000230 .L0 
     /tmp/ccYq4BGl.s:406    .text:0000000000000230 .L0 
     /tmp/ccYq4BGl.s:408    .text:0000000000000234 .L0 
     /tmp/ccYq4BGl.s:410    .text:0000000000000234 .L0 
     /tmp/ccYq4BGl.s:416    .text:000000000000024c .L0 
GAS LISTING /tmp/ccYq4BGl.s 			page 15


     /tmp/ccYq4BGl.s:418    .text:0000000000000250 .L0 
     /tmp/ccYq4BGl.s:419    .text:0000000000000250 .L0 
     /tmp/ccYq4BGl.s:421    .text:0000000000000254 .L0 
     /tmp/ccYq4BGl.s:423    .text:0000000000000258 .L0 
     /tmp/ccYq4BGl.s:440    .bss:0000000000000010 _ZN9Scheduler8sleepingE
     /tmp/ccYq4BGl.s:436    .bss:0000000000000000 _ZN9Scheduler5queueE
     /tmp/ccYq4BGl.s:433    .bss:0000000000000000 .LANCHOR0
     /tmp/ccYq4BGl.s:448    .text:0000000000000258 .L0 
     /tmp/ccYq4BGl.s:99     .text:0000000000000068 .L0 
     /tmp/ccYq4BGl.s:136    .text:0000000000000094 .L0 
     /tmp/ccYq4BGl.s:170    .text:00000000000000c8 .L0 
     /tmp/ccYq4BGl.s:249    .text:0000000000000128 .L0 
     /tmp/ccYq4BGl.s:285    .text:000000000000015c .L0 
     /tmp/ccYq4BGl.s:288    .text:0000000000000168 .L0 
     /tmp/ccYq4BGl.s:325    .text:00000000000001a0 .L0 
     /tmp/ccYq4BGl.s:348    .text:00000000000001d0 .L0 
     /tmp/ccYq4BGl.s:50     .text:0000000000000030 .L2
     /tmp/ccYq4BGl.s:37     .text:0000000000000020 .L3
     /tmp/ccYq4BGl.s:87     .text:000000000000005c .L8
     /tmp/ccYq4BGl.s:79     .text:0000000000000050 .L5
     /tmp/ccYq4BGl.s:378    .text:000000000000020c .L21
     /tmp/ccYq4BGl.s:338    .text:00000000000001c4 .L23
     /tmp/ccYq4BGl.s:1737   .debug_abbrev:0000000000000000 .Ldebug_abbrev0
     /tmp/ccYq4BGl.s:3111   .debug_str:000000000000049d .LASF127
     /tmp/ccYq4BGl.s:3107   .debug_str:0000000000000482 .LASF128
     /tmp/ccYq4BGl.s:2991   .debug_str:00000000000000c2 .LASF129
     /tmp/ccYq4BGl.s:8      .text:0000000000000000 .Ltext0
     /tmp/ccYq4BGl.s:443    .text:0000000000000258 .Letext0
     /tmp/ccYq4BGl.s:2963   .debug_line:0000000000000000 .Ldebug_line0
     /tmp/ccYq4BGl.s:3119   .debug_str:000000000000059b .LASF0
     /tmp/ccYq4BGl.s:3135   .debug_str:00000000000005e6 .LASF1
     /tmp/ccYq4BGl.s:3105   .debug_str:0000000000000474 .LASF2
     /tmp/ccYq4BGl.s:3071   .debug_str:0000000000000384 .LASF4
     /tmp/ccYq4BGl.s:3185   .debug_str:0000000000000779 .LASF3
     /tmp/ccYq4BGl.s:2987   .debug_str:00000000000000b0 .LASF5
     /tmp/ccYq4BGl.s:3021   .debug_str:00000000000001ea .LASF6
     /tmp/ccYq4BGl.s:3139   .debug_str:0000000000000605 .LASF7
     /tmp/ccYq4BGl.s:3117   .debug_str:0000000000000588 .LASF8
     /tmp/ccYq4BGl.s:3215   .debug_str:000000000000085f .LASF9
     /tmp/ccYq4BGl.s:3055   .debug_str:00000000000002f4 .LASF10
     /tmp/ccYq4BGl.s:3155   .debug_str:000000000000067e .LASF11
     /tmp/ccYq4BGl.s:3209   .debug_str:000000000000082a .LASF12
     /tmp/ccYq4BGl.s:2993   .debug_str:00000000000000fe .LASF13
     /tmp/ccYq4BGl.s:2973   .debug_str:0000000000000049 .LASF14
     /tmp/ccYq4BGl.s:3005   .debug_str:0000000000000182 .LASF15
     /tmp/ccYq4BGl.s:3175   .debug_str:000000000000071d .LASF16
     /tmp/ccYq4BGl.s:3017   .debug_str:00000000000001cf .LASF17
     /tmp/ccYq4BGl.s:3043   .debug_str:000000000000028c .LASF18
     /tmp/ccYq4BGl.s:3183   .debug_str:0000000000000770 .LASF130
     /tmp/ccYq4BGl.s:3073   .debug_str:000000000000038b .LASF19
     /tmp/ccYq4BGl.s:3153   .debug_str:0000000000000678 .LASF20
     /tmp/ccYq4BGl.s:3193   .debug_str:00000000000007ad .LASF21
     /tmp/ccYq4BGl.s:2979   .debug_str:000000000000007b .LASF22
     /tmp/ccYq4BGl.s:2977   .debug_str:0000000000000073 .LASF131
     /tmp/ccYq4BGl.s:3227   .debug_str:00000000000008ac .LASF23
     /tmp/ccYq4BGl.s:3201   .debug_str:00000000000007f0 .LASF25
     /tmp/ccYq4BGl.s:3051   .debug_str:00000000000002dc .LASF24
GAS LISTING /tmp/ccYq4BGl.s 			page 16


     /tmp/ccYq4BGl.s:3059   .debug_str:000000000000030e .LASF26
     /tmp/ccYq4BGl.s:3029   .debug_str:0000000000000220 .LASF27
     /tmp/ccYq4BGl.s:3169   .debug_str:00000000000006e7 .LASF29
     /tmp/ccYq4BGl.s:3197   .debug_str:00000000000007c8 .LASF28
     /tmp/ccYq4BGl.s:3205   .debug_str:0000000000000813 .LASF30
     /tmp/ccYq4BGl.s:3065   .debug_str:000000000000035b .LASF31
     /tmp/ccYq4BGl.s:3163   .debug_str:00000000000006b6 .LASF32
     /tmp/ccYq4BGl.s:3113   .debug_str:0000000000000561 .LASF33
     /tmp/ccYq4BGl.s:3091   .debug_str:00000000000003e9 .LASF34
     /tmp/ccYq4BGl.s:3081   .debug_str:00000000000003ab .LASF37
     /tmp/ccYq4BGl.s:3069   .debug_str:0000000000000370 .LASF39
     /tmp/ccYq4BGl.s:2965   .debug_str:0000000000000000 .LASF35
     /tmp/ccYq4BGl.s:3237   .debug_str:0000000000000921 .LASF36
     /tmp/ccYq4BGl.s:3141   .debug_str:0000000000000618 .LASF38
     /tmp/ccYq4BGl.s:3089   .debug_str:00000000000003d3 .LASF40
     /tmp/ccYq4BGl.s:3093   .debug_str:0000000000000408 .LASF41
     /tmp/ccYq4BGl.s:2985   .debug_str:0000000000000097 .LASF42
     /tmp/ccYq4BGl.s:3087   .debug_str:00000000000003c7 .LASF43
     /tmp/ccYq4BGl.s:3203   .debug_str:00000000000007fc .LASF44
     /tmp/ccYq4BGl.s:2983   .debug_str:0000000000000089 .LASF45
     /tmp/ccYq4BGl.s:3171   .debug_str:00000000000006f4 .LASF46
     /tmp/ccYq4BGl.s:3023   .debug_str:00000000000001f1 .LASF47
     /tmp/ccYq4BGl.s:3031   .debug_str:0000000000000230 .LASF48
     /tmp/ccYq4BGl.s:3083   .debug_str:00000000000003b4 .LASF49
     /tmp/ccYq4BGl.s:3231   .debug_str:00000000000008c3 .LASF50
     /tmp/ccYq4BGl.s:3167   .debug_str:00000000000006e2 .LASF132
     /tmp/ccYq4BGl.s:3177   .debug_str:0000000000000733 .LASF51
     /tmp/ccYq4BGl.s:3067   .debug_str:0000000000000360 .LASF53
     /tmp/ccYq4BGl.s:3123   .debug_str:00000000000005b3 .LASF52
     /tmp/ccYq4BGl.s:3041   .debug_str:0000000000000279 .LASF54
     /tmp/ccYq4BGl.s:3007   .debug_str:000000000000018e .LASF55
     /tmp/ccYq4BGl.s:2975   .debug_str:0000000000000059 .LASF56
     /tmp/ccYq4BGl.s:3131   .debug_str:00000000000005ce .LASF57
     /tmp/ccYq4BGl.s:3173   .debug_str:000000000000070d .LASF58
     /tmp/ccYq4BGl.s:3187   .debug_str:000000000000078b .LASF59
     /tmp/ccYq4BGl.s:3035   .debug_str:000000000000025f .LASF60
     /tmp/ccYq4BGl.s:3239   .debug_str:0000000000000932 .LASF61
     /tmp/ccYq4BGl.s:3121   .debug_str:00000000000005a8 .LASF62
     /tmp/ccYq4BGl.s:3053   .debug_str:00000000000002ec .LASF63
     /tmp/ccYq4BGl.s:3077   .debug_str:000000000000039e .LASF64
     /tmp/ccYq4BGl.s:3127   .debug_str:00000000000005c2 .LASF65
     /tmp/ccYq4BGl.s:3125   .debug_str:00000000000005bc .LASF66
     /tmp/ccYq4BGl.s:3207   .debug_str:0000000000000820 .LASF67
     /tmp/ccYq4BGl.s:3085   .debug_str:00000000000003c1 .LASF68
     /tmp/ccYq4BGl.s:3213   .debug_str:0000000000000853 .LASF69
     /tmp/ccYq4BGl.s:3039   .debug_str:0000000000000270 .LASF70
     /tmp/ccYq4BGl.s:3145   .debug_str:000000000000063b .LASF71
     /tmp/ccYq4BGl.s:3079   .debug_str:00000000000003a3 .LASF72
     /tmp/ccYq4BGl.s:3147   .debug_str:0000000000000642 .LASF103
     /tmp/ccYq4BGl.s:3097   .debug_str:000000000000042b .LASF73
     /tmp/ccYq4BGl.s:3063   .debug_str:0000000000000342 .LASF75
     /tmp/ccYq4BGl.s:3223   .debug_str:0000000000000898 .LASF133
     /tmp/ccYq4BGl.s:3061   .debug_str:000000000000031a .LASF134
     /tmp/ccYq4BGl.s:3013   .debug_str:00000000000001c0 .LASF74
     /tmp/ccYq4BGl.s:3033   .debug_str:000000000000024b .LASF76
     /tmp/ccYq4BGl.s:3025   .debug_str:0000000000000201 .LASF135
     /tmp/ccYq4BGl.s:3047   .debug_str:00000000000002a8 .LASF77
GAS LISTING /tmp/ccYq4BGl.s 			page 17


     /tmp/ccYq4BGl.s:3019   .debug_str:00000000000001e5 .LASF78
     /tmp/ccYq4BGl.s:3109   .debug_str:0000000000000498 .LASF79
     /tmp/ccYq4BGl.s:3225   .debug_str:00000000000008a6 .LASF80
     /tmp/ccYq4BGl.s:2999   .debug_str:0000000000000144 .LASF81
     /tmp/ccYq4BGl.s:2971   .debug_str:0000000000000038 .LASF82
     /tmp/ccYq4BGl.s:3103   .debug_str:0000000000000463 .LASF83
     /tmp/ccYq4BGl.s:3133   .debug_str:00000000000005d4 .LASF84
     /tmp/ccYq4BGl.s:3195   .debug_str:00000000000007b6 .LASF85
     /tmp/ccYq4BGl.s:3003   .debug_str:0000000000000171 .LASF86
     /tmp/ccYq4BGl.s:3129   .debug_str:00000000000005c7 .LASF87
     /tmp/ccYq4BGl.s:2995   .debug_str:000000000000010e .LASF88
     /tmp/ccYq4BGl.s:3159   .debug_str:0000000000000696 .LASF89
     /tmp/ccYq4BGl.s:3235   .debug_str:0000000000000907 .LASF90
     /tmp/ccYq4BGl.s:3189   .debug_str:000000000000079c .LASF91
     /tmp/ccYq4BGl.s:3095   .debug_str:0000000000000415 .LASF92
     /tmp/ccYq4BGl.s:3149   .debug_str:0000000000000659 .LASF136
     /tmp/ccYq4BGl.s:3009   .debug_str:000000000000019b .LASF93
     /tmp/ccYq4BGl.s:3045   .debug_str:0000000000000291 .LASF94
     /tmp/ccYq4BGl.s:2989   .debug_str:00000000000000b7 .LASF95
     /tmp/ccYq4BGl.s:2997   .debug_str:0000000000000129 .LASF96
     /tmp/ccYq4BGl.s:2969   .debug_str:000000000000002b .LASF97
     /tmp/ccYq4BGl.s:3049   .debug_str:00000000000002b1 .LASF98
     /tmp/ccYq4BGl.s:3151   .debug_str:000000000000066c .LASF99
     /tmp/ccYq4BGl.s:3165   .debug_str:00000000000006c2 .LASF100
     /tmp/ccYq4BGl.s:3191   .debug_str:00000000000007a3 .LASF101
     /tmp/ccYq4BGl.s:3211   .debug_str:0000000000000839 .LASF102
     /tmp/ccYq4BGl.s:3027   .debug_str:000000000000020c .LASF137
     /tmp/ccYq4BGl.s:3001   .debug_str:0000000000000159 .LASF104
     /tmp/ccYq4BGl.s:3037   .debug_str:0000000000000267 .LASF105
     /tmp/ccYq4BGl.s:3161   .debug_str:000000000000069d .LASF106
     /tmp/ccYq4BGl.s:3057   .debug_str:0000000000000302 .LASF107
     /tmp/ccYq4BGl.s:3233   .debug_str:00000000000008e5 .LASF108
     /tmp/ccYq4BGl.s:3179   .debug_str:0000000000000739 .LASF109
     /tmp/ccYq4BGl.s:3217   .debug_str:000000000000086f .LASF110
     /tmp/ccYq4BGl.s:3229   .debug_str:00000000000008b9 .LASF111
     /tmp/ccYq4BGl.s:3115   .debug_str:000000000000056a .LASF112
     /tmp/ccYq4BGl.s:3137   .debug_str:00000000000005f9 .LASF113
     /tmp/ccYq4BGl.s:3011   .debug_str:00000000000001a3 .LASF114
     /tmp/ccYq4BGl.s:3101   .debug_str:0000000000000448 .LASF115
     /tmp/ccYq4BGl.s:3221   .debug_str:0000000000000892 .LASF116
     /tmp/ccYq4BGl.s:3157   .debug_str:000000000000068d .LASF117
     /tmp/ccYq4BGl.s:3199   .debug_str:00000000000007db .LASF118
     /tmp/ccYq4BGl.s:3143   .debug_str:0000000000000623 .LASF119
     /tmp/ccYq4BGl.s:2967   .debug_str:0000000000000007 .LASF120
     /tmp/ccYq4BGl.s:398    .text:0000000000000224 .LFB35
     /tmp/ccYq4BGl.s:424    .text:0000000000000258 .LFE35
     /tmp/ccYq4BGl.s:414    .text:0000000000000248 .LVL27
     /tmp/ccYq4BGl.s:3181   .debug_str:0000000000000746 .LASF121
     /tmp/ccYq4BGl.s:66     .text:000000000000003c .LFB34
     /tmp/ccYq4BGl.s:117    .text:0000000000000084 .LFE34
     /tmp/ccYq4BGl.s:3099   .debug_str:0000000000000439 .LASF122
     /tmp/ccYq4BGl.s:3075   .debug_str:0000000000000393 .LASF123
     /tmp/ccYq4BGl.s:94     .text:0000000000000068 .LBB10
     /tmp/ccYq4BGl.s:105    .text:0000000000000078 .LBE10
     /tmp/ccYq4BGl.s:2805   .debug_loc:0000000000000000 .LLST2
     /tmp/ccYq4BGl.s:106    .text:0000000000000078 .LBB13
     /tmp/ccYq4BGl.s:113    .text:0000000000000080 .LBE13
GAS LISTING /tmp/ccYq4BGl.s 			page 18


     /tmp/ccYq4BGl.s:308    .text:0000000000000188 .LFB33
     /tmp/ccYq4BGl.s:393    .text:0000000000000224 .LFE33
     /tmp/ccYq4BGl.s:2814   .debug_loc:000000000000002c .LLST6
     /tmp/ccYq4BGl.s:353    .text:00000000000001e4 .LBB16
     /tmp/ccYq4BGl.s:362    .text:00000000000001ec .LBE16
     /tmp/ccYq4BGl.s:2825   .debug_loc:0000000000000062 .LLST7
     /tmp/ccYq4BGl.s:2833   .debug_loc:0000000000000086 .LLST8
     /tmp/ccYq4BGl.s:327    .text:00000000000001b0 .LVL19
     /tmp/ccYq4BGl.s:351    .text:00000000000001e4 .LVL21
     /tmp/ccYq4BGl.s:367    .text:00000000000001f8 .LVL23
     /tmp/ccYq4BGl.s:372    .text:0000000000000204 .LVL24
     /tmp/ccYq4BGl.s:268    .text:0000000000000148 .LFB32
     /tmp/ccYq4BGl.s:302    .text:0000000000000188 .LFE32
     /tmp/ccYq4BGl.s:2840   .debug_loc:00000000000000a9 .LLST4
     /tmp/ccYq4BGl.s:3219   .debug_str:000000000000088d .LASF124
     /tmp/ccYq4BGl.s:2858   .debug_loc:00000000000000f5 .LLST5
     /tmp/ccYq4BGl.s:291    .text:0000000000000178 .LVL18
     /tmp/ccYq4BGl.s:13     .text:0000000000000000 .LFB31
     /tmp/ccYq4BGl.s:61     .text:000000000000003c .LFE31
     /tmp/ccYq4BGl.s:2882   .debug_loc:0000000000000156 .LLST0
     /tmp/ccYq4BGl.s:2981   .debug_str:0000000000000084 .LASF125
     /tmp/ccYq4BGl.s:2900   .debug_loc:00000000000001a2 .LLST1
     /tmp/ccYq4BGl.s:236    .text:0000000000000118 .LFB30
     /tmp/ccYq4BGl.s:262    .text:0000000000000148 .LFE30
     /tmp/ccYq4BGl.s:251    .text:0000000000000138 .LVL14
     /tmp/ccYq4BGl.s:213    .text:0000000000000100 .LFB29
     /tmp/ccYq4BGl.s:230    .text:0000000000000118 .LFE29
     /tmp/ccYq4BGl.s:190    .text:00000000000000e8 .LFB28
     /tmp/ccYq4BGl.s:207    .text:0000000000000100 .LFE28
     /tmp/ccYq4BGl.s:155    .text:00000000000000b4 .LFB27
     /tmp/ccYq4BGl.s:184    .text:00000000000000e8 .LFE27
     /tmp/ccYq4BGl.s:2932   .debug_loc:00000000000001fc .LLST3
     /tmp/ccYq4BGl.s:173    .text:00000000000000d8 .LVL13
     /tmp/ccYq4BGl.s:123    .text:0000000000000084 .LFB26
     /tmp/ccYq4BGl.s:149    .text:00000000000000b4 .LFE26
     /tmp/ccYq4BGl.s:138    .text:00000000000000a4 .LVL10
     /tmp/ccYq4BGl.s:3015   .debug_str:00000000000001ca .LASF126
     /tmp/ccYq4BGl.s:3241   .debug_str:0000000000000937 .LASF138
     /tmp/ccYq4BGl.s:93     .text:0000000000000068 .LVL8
     /tmp/ccYq4BGl.s:102    .text:0000000000000078 .LVL9
     /tmp/ccYq4BGl.s:337    .text:00000000000001c4 .LVL20
     /tmp/ccYq4BGl.s:377    .text:000000000000020c .LVL26
     /tmp/ccYq4BGl.s:360    .text:00000000000001ec .LVL22
     /tmp/ccYq4BGl.s:271    .text:0000000000000148 .LVL15
     /tmp/ccYq4BGl.s:289    .text:0000000000000170 .LVL17
     /tmp/ccYq4BGl.s:287    .text:0000000000000168 .LVL16
     /tmp/ccYq4BGl.s:17     .text:0000000000000000 .LVL0
     /tmp/ccYq4BGl.s:41     .text:0000000000000024 .LVL3
     /tmp/ccYq4BGl.s:49     .text:0000000000000030 .LVL4
     /tmp/ccYq4BGl.s:30     .text:0000000000000018 .LVL1
     /tmp/ccYq4BGl.s:36     .text:0000000000000020 .LVL2
     /tmp/ccYq4BGl.s:55     .text:0000000000000034 .LVL5
     /tmp/ccYq4BGl.s:58     .text:0000000000000038 .LVL6
     /tmp/ccYq4BGl.s:158    .text:00000000000000b4 .LVL11
     /tmp/ccYq4BGl.s:171    .text:00000000000000d0 .LVL12
     /tmp/ccYq4BGl.s:449    .debug_info:0000000000000000 .Ldebug_info0

GAS LISTING /tmp/ccYq4BGl.s 			page 19


UNDEFINED SYMBOLS
_ZN8TcbQueue6removeEv
_ZN8TcbQueue6insertEP3TCB
_ZN8TcbQueue10printQueueEv
_ZN8TcbQueue12insertSortedEP3TCBPFiS1_S1_E
_ZN8TcbQueue3topEv
