GAS LISTING /tmp/ccnKzXyo.s 			page 1


   1              		.file	"stdio.cpp"
   2              		.option nopic
   3              		.option norelax
   4              		.attribute arch, "rv64i2p0_m2p0_a2p0"
   5              		.attribute unaligned_access, 0
   6              		.attribute stack_align, 16
   7              		.text
   8              	.Ltext0:
   9              		.align	2
  10              		.globl	_ZN5StdIO12outputWorkerEPv
  12              	_ZN5StdIO12outputWorkerEPv:
  13              	.LFB69:
  14              		.file 1 "src/cpp/stdio.cpp"
   1:src/cpp/stdio.cpp **** #include"../../h/stdio.hpp"
   2:src/cpp/stdio.cpp **** #include"../../h/scheduler.hpp"
   3:src/cpp/stdio.cpp **** #include"../../h/testing.hpp"
   4:src/cpp/stdio.cpp **** #define KLOCK() Riscv::mc_sstatus(Riscv::SSTATUS_SIE)
   5:src/cpp/stdio.cpp **** #define KUNLOCK() Riscv::ms_sstatus(Riscv::SSTATUS_SIE)
   6:src/cpp/stdio.cpp **** 
   7:src/cpp/stdio.cpp **** 
   8:src/cpp/stdio.cpp **** 
   9:src/cpp/stdio.cpp **** SharedBuffer<char>* StdIO::ibuffer = nullptr;
  10:src/cpp/stdio.cpp **** SharedBuffer<char>* StdIO::obuffer = nullptr;
  11:src/cpp/stdio.cpp **** KSemaphore* StdIO::blockSem = nullptr;
  12:src/cpp/stdio.cpp **** TCB* StdIO::out_thread = nullptr;
  13:src/cpp/stdio.cpp **** unsigned char* StdIO::iostatus = nullptr;
  14:src/cpp/stdio.cpp **** char* StdIO::idata = nullptr;
  15:src/cpp/stdio.cpp **** char* StdIO::odata = nullptr;
  16:src/cpp/stdio.cpp **** 
  17:src/cpp/stdio.cpp **** void StdIO::initalize()
  18:src/cpp/stdio.cpp **** {
  19:src/cpp/stdio.cpp ****     ibuffer = new SharedBuffer<char>();
  20:src/cpp/stdio.cpp ****     obuffer = new SharedBuffer<char>();
  21:src/cpp/stdio.cpp ****     print("obuffer:", (uint64)obuffer, 0);
  22:src/cpp/stdio.cpp ****     blockSem = new KSemaphore(0);
  23:src/cpp/stdio.cpp ****     iostatus = (unsigned char*)CONSOLE_STATUS;
  24:src/cpp/stdio.cpp ****     idata = (char*)CONSOLE_RX_DATA;
  25:src/cpp/stdio.cpp ****     odata = (char*)CONSOLE_TX_DATA;
  26:src/cpp/stdio.cpp ****     uint64* stack = (uint64*)MemoryAllocator::getInstance().mem_alloc((DEFAULT_STACK_SIZE-1)/MEM_BL
  27:src/cpp/stdio.cpp ****     out_thread = TCB::createThread(outputWorker, nullptr, stack);
  28:src/cpp/stdio.cpp ****     out_thread->setKernelMode();
  29:src/cpp/stdio.cpp ****     out_thread->setKernelLocked();
  30:src/cpp/stdio.cpp **** }
  31:src/cpp/stdio.cpp **** 
  32:src/cpp/stdio.cpp **** void StdIO::outputWorker(void *)
  33:src/cpp/stdio.cpp **** {
  15              		.loc 1 33 1
  16              		.cfi_startproc
  17 0000 130101FC 		addi	sp,sp,-64
  18              		.cfi_def_cfa_offset 64
  19 0004 233C1102 		sd	ra,56(sp)
  20 0008 23388102 		sd	s0,48(sp)
  21 000c 23349102 		sd	s1,40(sp)
  22 0010 23302103 		sd	s2,32(sp)
  23 0014 233C3101 		sd	s3,24(sp)
  24 0018 23384101 		sd	s4,16(sp)
  25              		.cfi_offset 1, -8
GAS LISTING /tmp/ccnKzXyo.s 			page 2


  26              		.cfi_offset 8, -16
  27              		.cfi_offset 9, -24
  28              		.cfi_offset 18, -32
  29              		.cfi_offset 19, -40
  30              		.cfi_offset 20, -48
  31 001c 13040104 		addi	s0,sp,64
  32              		.cfi_def_cfa 8, 0
  34:src/cpp/stdio.cpp ****     
  35:src/cpp/stdio.cpp ****     out_thread = nullptr;
  33              		.loc 1 35 5
  34              		.loc 1 35 16 is_stmt 0
  35 0020 97070000 		sd	zero,_ZN5StdIO10out_threadE,a5
  35      23B00700 
  36 0028 6F000004 		j	.L2
  37              	.L3:
  38              	.LBB127:
  39              	.LBB128:
  36:src/cpp/stdio.cpp **** 
  37:src/cpp/stdio.cpp ****     while(true)
  38:src/cpp/stdio.cpp ****     {
  39:src/cpp/stdio.cpp ****         if(output_ready())
  40:src/cpp/stdio.cpp ****         {
  41:src/cpp/stdio.cpp ****             *odata = obuffer->get();
  42:src/cpp/stdio.cpp ****         }
  43:src/cpp/stdio.cpp ****         else
  44:src/cpp/stdio.cpp ****         {
  45:src/cpp/stdio.cpp **** 
  46:src/cpp/stdio.cpp ****             uint64 sstatus = Riscv::r_sstatus(), sepc = Riscv::r_sepc();
  40              		.loc 1 46 13 is_stmt 1
  41              	.LBB129:
  42              	.LBB130:
  43              		.file 2 "src/cpp/../../h/../h/riscv.hpp"
   1:src/cpp/../../h/../h/riscv.hpp **** #ifndef __riscv__
   2:src/cpp/../../h/../h/riscv.hpp **** #define __riscv__
   3:src/cpp/../../h/../h/riscv.hpp **** 
   4:src/cpp/../../h/../h/riscv.hpp **** #include"../lib/hw.h"
   5:src/cpp/../../h/../h/riscv.hpp **** 
   6:src/cpp/../../h/../h/riscv.hpp **** class Riscv{
   7:src/cpp/../../h/../h/riscv.hpp **** public:
   8:src/cpp/../../h/../h/riscv.hpp ****     
   9:src/cpp/../../h/../h/riscv.hpp ****     static void w_scause(uint64);
  10:src/cpp/../../h/../h/riscv.hpp ****     static uint64 r_scause(); 
  11:src/cpp/../../h/../h/riscv.hpp **** 
  12:src/cpp/../../h/../h/riscv.hpp ****     static void w_sepc(uint64);
  13:src/cpp/../../h/../h/riscv.hpp ****     static uint64 r_sepc();
  14:src/cpp/../../h/../h/riscv.hpp ****     static void ni_sepc();
  15:src/cpp/../../h/../h/riscv.hpp **** 
  16:src/cpp/../../h/../h/riscv.hpp ****     static void w_stvec(uint64);
  17:src/cpp/../../h/../h/riscv.hpp ****     static uint64 r_stvec();
  18:src/cpp/../../h/../h/riscv.hpp ****      
  19:src/cpp/../../h/../h/riscv.hpp ****     static void w_stval(uint64);
  20:src/cpp/../../h/../h/riscv.hpp ****     static uint64 r_stval();
  21:src/cpp/../../h/../h/riscv.hpp ****     
  22:src/cpp/../../h/../h/riscv.hpp ****     enum BitMaskSip{
  23:src/cpp/../../h/../h/riscv.hpp ****         SIP_SSIE = (1<<1),
  24:src/cpp/../../h/../h/riscv.hpp ****         SIP_STIE = (1<<5),
  25:src/cpp/../../h/../h/riscv.hpp ****         SIP_SEIE = (1<<9),
GAS LISTING /tmp/ccnKzXyo.s 			page 3


  26:src/cpp/../../h/../h/riscv.hpp ****     };
  27:src/cpp/../../h/../h/riscv.hpp **** 
  28:src/cpp/../../h/../h/riscv.hpp ****     static void ms_sip(uint64);
  29:src/cpp/../../h/../h/riscv.hpp ****     static void mc_sip(uint64);
  30:src/cpp/../../h/../h/riscv.hpp **** 
  31:src/cpp/../../h/../h/riscv.hpp ****     static void w_sip(uint64);
  32:src/cpp/../../h/../h/riscv.hpp ****     static uint64 r_sip();
  33:src/cpp/../../h/../h/riscv.hpp **** 
  34:src/cpp/../../h/../h/riscv.hpp ****     enum BitMaskSstatus{
  35:src/cpp/../../h/../h/riscv.hpp ****         SSTATUS_SIE = (1<<1),
  36:src/cpp/../../h/../h/riscv.hpp ****         SSTATUS_SPIE = (1<<5),
  37:src/cpp/../../h/../h/riscv.hpp ****         SSTATUS_SPP = (1<<8),
  38:src/cpp/../../h/../h/riscv.hpp ****     };
  39:src/cpp/../../h/../h/riscv.hpp **** 
  40:src/cpp/../../h/../h/riscv.hpp ****     static void ms_sstatus(uint64);
  41:src/cpp/../../h/../h/riscv.hpp ****     static void mc_sstatus(uint64);
  42:src/cpp/../../h/../h/riscv.hpp **** 
  43:src/cpp/../../h/../h/riscv.hpp ****     static void w_sstatus(uint64);
  44:src/cpp/../../h/../h/riscv.hpp ****     static uint64 r_sstatus();
  45:src/cpp/../../h/../h/riscv.hpp **** 
  46:src/cpp/../../h/../h/riscv.hpp ****     static uint64 r_a0();
  47:src/cpp/../../h/../h/riscv.hpp ****     static uint64 s_a0(uint64 a0);
  48:src/cpp/../../h/../h/riscv.hpp ****     static uint64 r_a1();
  49:src/cpp/../../h/../h/riscv.hpp ****     static uint64 r_a2();
  50:src/cpp/../../h/../h/riscv.hpp ****     static uint64 r_a3();
  51:src/cpp/../../h/../h/riscv.hpp ****     static uint64 r_a4();
  52:src/cpp/../../h/../h/riscv.hpp **** 
  53:src/cpp/../../h/../h/riscv.hpp ****     static void popRegisters();
  54:src/cpp/../../h/../h/riscv.hpp ****     static void pushRegisters();
  55:src/cpp/../../h/../h/riscv.hpp **** 
  56:src/cpp/../../h/../h/riscv.hpp ****     static void popSppSpie();
  57:src/cpp/../../h/../h/riscv.hpp **** 
  58:src/cpp/../../h/../h/riscv.hpp ****     static void mc_cstatus(uint64 mask);
  59:src/cpp/../../h/../h/riscv.hpp ****     static bool cstatus_ready(uint64 mask);
  60:src/cpp/../../h/../h/riscv.hpp **** };
  61:src/cpp/../../h/../h/riscv.hpp **** 
  62:src/cpp/../../h/../h/riscv.hpp **** inline uint64 Riscv::r_a0(){
  63:src/cpp/../../h/../h/riscv.hpp ****     uint64 a0;
  64:src/cpp/../../h/../h/riscv.hpp ****     asm volatile("mv %0, a0" : "=r" (a0));
  65:src/cpp/../../h/../h/riscv.hpp ****     return a0;
  66:src/cpp/../../h/../h/riscv.hpp **** }
  67:src/cpp/../../h/../h/riscv.hpp **** 
  68:src/cpp/../../h/../h/riscv.hpp **** inline uint64 Riscv::r_a1(){
  69:src/cpp/../../h/../h/riscv.hpp ****     uint64 a0;
  70:src/cpp/../../h/../h/riscv.hpp ****     asm volatile("mv %0, a1" : "=r" (a0));
  71:src/cpp/../../h/../h/riscv.hpp ****     return a0;
  72:src/cpp/../../h/../h/riscv.hpp **** }
  73:src/cpp/../../h/../h/riscv.hpp **** 
  74:src/cpp/../../h/../h/riscv.hpp **** inline uint64 Riscv::r_a2(){
  75:src/cpp/../../h/../h/riscv.hpp ****     uint64 a0;
  76:src/cpp/../../h/../h/riscv.hpp ****     asm volatile("mv %0, a2" : "=r" (a0));
  77:src/cpp/../../h/../h/riscv.hpp ****     return a0;
  78:src/cpp/../../h/../h/riscv.hpp **** }
  79:src/cpp/../../h/../h/riscv.hpp **** 
  80:src/cpp/../../h/../h/riscv.hpp **** inline uint64 Riscv::r_a3(){
  81:src/cpp/../../h/../h/riscv.hpp ****     uint64 a0;
  82:src/cpp/../../h/../h/riscv.hpp ****     asm volatile("mv %0, a3" : "=r" (a0));
GAS LISTING /tmp/ccnKzXyo.s 			page 4


  83:src/cpp/../../h/../h/riscv.hpp ****     return a0;
  84:src/cpp/../../h/../h/riscv.hpp **** }
  85:src/cpp/../../h/../h/riscv.hpp **** 
  86:src/cpp/../../h/../h/riscv.hpp **** inline uint64 Riscv::r_a4(){
  87:src/cpp/../../h/../h/riscv.hpp ****     uint64 a0;
  88:src/cpp/../../h/../h/riscv.hpp ****     asm volatile("mv %0, a4" : "=r" (a0));
  89:src/cpp/../../h/../h/riscv.hpp ****     return a0;
  90:src/cpp/../../h/../h/riscv.hpp **** }
  91:src/cpp/../../h/../h/riscv.hpp **** 
  92:src/cpp/../../h/../h/riscv.hpp **** 
  93:src/cpp/../../h/../h/riscv.hpp **** inline uint64 Riscv::s_a0(uint64 a0){
  94:src/cpp/../../h/../h/riscv.hpp ****     return a0;
  95:src/cpp/../../h/../h/riscv.hpp **** }
  96:src/cpp/../../h/../h/riscv.hpp **** 
  97:src/cpp/../../h/../h/riscv.hpp **** inline void Riscv::w_scause(uint64 scause){
  98:src/cpp/../../h/../h/riscv.hpp ****     asm volatile("csrw scause, %0" : : "r" (scause));
  99:src/cpp/../../h/../h/riscv.hpp **** }
 100:src/cpp/../../h/../h/riscv.hpp **** 
 101:src/cpp/../../h/../h/riscv.hpp **** inline uint64 Riscv::r_scause(){
 102:src/cpp/../../h/../h/riscv.hpp ****     uint64 volatile scause;
 103:src/cpp/../../h/../h/riscv.hpp ****     asm volatile("csrr %0, scause" : "=r" (scause));
 104:src/cpp/../../h/../h/riscv.hpp ****     return scause;
 105:src/cpp/../../h/../h/riscv.hpp **** } 
 106:src/cpp/../../h/../h/riscv.hpp **** 
 107:src/cpp/../../h/../h/riscv.hpp **** inline void Riscv::w_sepc(uint64 sepc){
 108:src/cpp/../../h/../h/riscv.hpp ****     asm volatile("csrw sepc, %0" : : "r" (sepc));
 109:src/cpp/../../h/../h/riscv.hpp **** }
 110:src/cpp/../../h/../h/riscv.hpp **** 
 111:src/cpp/../../h/../h/riscv.hpp **** inline uint64 Riscv::r_sepc(){
 112:src/cpp/../../h/../h/riscv.hpp ****     uint64 volatile sepc;
 113:src/cpp/../../h/../h/riscv.hpp ****     asm volatile("csrr %0, sepc" : "=r" (sepc));
 114:src/cpp/../../h/../h/riscv.hpp ****     return sepc;
 115:src/cpp/../../h/../h/riscv.hpp **** } 
 116:src/cpp/../../h/../h/riscv.hpp **** 
 117:src/cpp/../../h/../h/riscv.hpp **** inline void Riscv::w_stvec(uint64 stvec){
 118:src/cpp/../../h/../h/riscv.hpp ****     asm volatile("csrw stvec, %0" : : "r" (stvec));
 119:src/cpp/../../h/../h/riscv.hpp **** }
 120:src/cpp/../../h/../h/riscv.hpp **** 
 121:src/cpp/../../h/../h/riscv.hpp **** inline uint64 Riscv::r_stvec(){
 122:src/cpp/../../h/../h/riscv.hpp ****     uint64 volatile stvec;
 123:src/cpp/../../h/../h/riscv.hpp ****     asm volatile("csrr %0, stvec" : "=r" (stvec));
 124:src/cpp/../../h/../h/riscv.hpp ****     return stvec;
 125:src/cpp/../../h/../h/riscv.hpp **** } 
 126:src/cpp/../../h/../h/riscv.hpp **** 
 127:src/cpp/../../h/../h/riscv.hpp **** inline void Riscv::w_stval(uint64 stval){
 128:src/cpp/../../h/../h/riscv.hpp ****     asm volatile("csrw stval, %0" : : "r" (stval));
 129:src/cpp/../../h/../h/riscv.hpp **** }
 130:src/cpp/../../h/../h/riscv.hpp **** 
 131:src/cpp/../../h/../h/riscv.hpp **** inline uint64 Riscv::r_stval(){
 132:src/cpp/../../h/../h/riscv.hpp ****     uint64 volatile stval;
 133:src/cpp/../../h/../h/riscv.hpp ****     asm volatile("csrr %0, stval" : "=r" (stval));
 134:src/cpp/../../h/../h/riscv.hpp ****     return stval;
 135:src/cpp/../../h/../h/riscv.hpp **** } 
 136:src/cpp/../../h/../h/riscv.hpp **** 
 137:src/cpp/../../h/../h/riscv.hpp **** inline void Riscv::ms_sip(uint64 mask){
 138:src/cpp/../../h/../h/riscv.hpp ****     asm volatile ("csrs sip, %0" : : "r" (mask));
 139:src/cpp/../../h/../h/riscv.hpp **** }
GAS LISTING /tmp/ccnKzXyo.s 			page 5


 140:src/cpp/../../h/../h/riscv.hpp **** 
 141:src/cpp/../../h/../h/riscv.hpp **** inline void Riscv::mc_sip(uint64 mask){
 142:src/cpp/../../h/../h/riscv.hpp ****     asm volatile ("csrc sip, %0" : : "r" (mask));
 143:src/cpp/../../h/../h/riscv.hpp **** }
 144:src/cpp/../../h/../h/riscv.hpp **** 
 145:src/cpp/../../h/../h/riscv.hpp **** inline void Riscv::w_sip(uint64 sip){
 146:src/cpp/../../h/../h/riscv.hpp ****     asm volatile("csrw sip, %0" : : "r" (sip));
 147:src/cpp/../../h/../h/riscv.hpp **** }
 148:src/cpp/../../h/../h/riscv.hpp **** 
 149:src/cpp/../../h/../h/riscv.hpp **** inline uint64 Riscv::r_sip(){
 150:src/cpp/../../h/../h/riscv.hpp ****     uint64 volatile sip;
 151:src/cpp/../../h/../h/riscv.hpp ****     asm volatile("csrr %0, sip" : "=r" (sip));
 152:src/cpp/../../h/../h/riscv.hpp ****     return sip;
 153:src/cpp/../../h/../h/riscv.hpp **** } 
 154:src/cpp/../../h/../h/riscv.hpp **** 
 155:src/cpp/../../h/../h/riscv.hpp **** inline void Riscv::ms_sstatus(uint64 mask){
 156:src/cpp/../../h/../h/riscv.hpp ****     asm volatile ("csrs sstatus, %0" : : "r" (mask));
 157:src/cpp/../../h/../h/riscv.hpp **** }
 158:src/cpp/../../h/../h/riscv.hpp **** 
 159:src/cpp/../../h/../h/riscv.hpp **** inline void Riscv::mc_sstatus(uint64 mask){
 160:src/cpp/../../h/../h/riscv.hpp ****     asm volatile ("csrc sstatus, %0" : : "r" (mask));
 161:src/cpp/../../h/../h/riscv.hpp **** }
 162:src/cpp/../../h/../h/riscv.hpp **** 
 163:src/cpp/../../h/../h/riscv.hpp **** inline void Riscv::w_sstatus(uint64 sstatus){
 164:src/cpp/../../h/../h/riscv.hpp ****     asm volatile("csrw sstatus, %0" : : "r" (sstatus));
 165:src/cpp/../../h/../h/riscv.hpp **** }
 166:src/cpp/../../h/../h/riscv.hpp **** 
 167:src/cpp/../../h/../h/riscv.hpp **** inline uint64 Riscv::r_sstatus(){
 168:src/cpp/../../h/../h/riscv.hpp ****     uint64 volatile sstatus;
  44              		.loc 2 168 5
 169:src/cpp/../../h/../h/riscv.hpp ****     asm volatile("csrr %0, sstatus" : "=r" (sstatus));
  45              		.loc 2 169 5
  46              		.loc 2 169 54 is_stmt 0
  47              	 #APP
  48              	# 169 "src/cpp/../../h/../h/riscv.hpp" 1
 170              	    return sstatus;
  49              		csrr a5, sstatus
  50              	# 0 "" 2
  51              	 #NO_APP
  52 0030 2334F4FC 		sd	a5,-56(s0)
  53              		.loc 2 170 5 is_stmt 1
  54              		.loc 2 170 12 is_stmt 0
  55 0034 033984FC 		ld	s2,-56(s0)
  56              	.LVL0:
  57              	.LBE130:
  58              	.LBE129:
  59              	.LBB131:
  60              	.LBB132:
 112:src/cpp/../../h/../h/riscv.hpp ****     asm volatile("csrr %0, sepc" : "=r" (sepc));
  61              		.loc 2 112 5 is_stmt 1
 113:src/cpp/../../h/../h/riscv.hpp ****     return sepc;
  62              		.loc 2 113 5
 113:src/cpp/../../h/../h/riscv.hpp ****     return sepc;
  63              		.loc 2 113 48 is_stmt 0
  64              	 #APP
  65              	# 113 "src/cpp/../../h/../h/riscv.hpp" 1
  66              		csrr a5, sepc
GAS LISTING /tmp/ccnKzXyo.s 			page 6


  67              	# 0 "" 2
  68              	 #NO_APP
  69 003c 2330F4FC 		sd	a5,-64(s0)
 114:src/cpp/../../h/../h/riscv.hpp **** } 
  70              		.loc 2 114 5 is_stmt 1
 114:src/cpp/../../h/../h/riscv.hpp **** } 
  71              		.loc 2 114 12 is_stmt 0
  72 0040 833404FC 		ld	s1,-64(s0)
  73              	.LVL1:
  74              	.LBE132:
  75              	.LBE131:
  47:src/cpp/stdio.cpp ****             out_thread = TCB::running;
  76              		.loc 1 47 13 is_stmt 1
  77              		.loc 1 47 24 is_stmt 0
  78 0044 97070000 		lla	a5,_ZN3TCB7runningE
  78      93870700 
  79 004c 83B70700 		ld	a5,0(a5)
  80 0050 17070000 		sd	a5,_ZN5StdIO10out_threadE,a4
  80      2330F700 
  48:src/cpp/stdio.cpp **** 
  49:src/cpp/stdio.cpp ****             TCB::yield();
  81              		.loc 1 49 13 is_stmt 1
  82              		.loc 1 49 23 is_stmt 0
  83 0058 97000000 		call	_ZN3TCB5yieldEv
  83      E7800000 
  84              	.LVL2:
  50:src/cpp/stdio.cpp **** 
  51:src/cpp/stdio.cpp ****             Riscv::w_sstatus(sstatus);
  85              		.loc 1 51 13 is_stmt 1
  86              	.LBB133:
  87              	.LBB134:
 164:src/cpp/../../h/../h/riscv.hpp **** }
  88              		.loc 2 164 5
 164:src/cpp/../../h/../h/riscv.hpp **** }
  89              		.loc 2 164 55 is_stmt 0
  90              	 #APP
  91              	# 164 "src/cpp/../../h/../h/riscv.hpp" 1
  92              		csrw sstatus, s2
  93              	# 0 "" 2
  94              	.LVL3:
  95              	 #NO_APP
  96              	.LBE134:
  97              	.LBE133:
  52:src/cpp/stdio.cpp ****             Riscv::w_sepc(sepc);
  98              		.loc 1 52 13 is_stmt 1
  99              	.LBB135:
 100              	.LBB136:
 108:src/cpp/../../h/../h/riscv.hpp **** }
 101              		.loc 2 108 5
 108:src/cpp/../../h/../h/riscv.hpp **** }
 102              		.loc 2 108 49 is_stmt 0
 103              	 #APP
 104              	# 108 "src/cpp/../../h/../h/riscv.hpp" 1
 105              		csrw sepc, s1
 106              	# 0 "" 2
 107              	.LVL4:
 108              	 #NO_APP
GAS LISTING /tmp/ccnKzXyo.s 			page 7


 109              	.L2:
 110              	.LBE136:
 111              	.LBE135:
 112              	.LBE128:
 113              	.LBE127:
  37:src/cpp/stdio.cpp ****     {
 114              		.loc 1 37 5 is_stmt 1
  39:src/cpp/stdio.cpp ****         {
 115              		.loc 1 39 9
 116              	.LBB141:
 117              	.LBB137:
 118              	.LBB138:
 119              		.file 3 "src/cpp/../../h/stdio.hpp"
   1:src/cpp/../../h/stdio.hpp **** #ifndef __stdio_hpp__
   2:src/cpp/../../h/stdio.hpp **** #define __stdio_hpp__
   3:src/cpp/../../h/stdio.hpp **** 
   4:src/cpp/../../h/stdio.hpp **** #include"../h/shared_buffer.hpp"
   5:src/cpp/../../h/stdio.hpp **** #include "tcb.hpp"
   6:src/cpp/../../h/stdio.hpp **** 
   7:src/cpp/../../h/stdio.hpp **** struct ORequest{
   8:src/cpp/../../h/stdio.hpp ****     char c;
   9:src/cpp/../../h/stdio.hpp ****     KSemaphore* s;   
  10:src/cpp/../../h/stdio.hpp **** };
  11:src/cpp/../../h/stdio.hpp **** 
  12:src/cpp/../../h/stdio.hpp **** class StdIO{
  13:src/cpp/../../h/stdio.hpp **** 
  14:src/cpp/../../h/stdio.hpp **** private:
  15:src/cpp/../../h/stdio.hpp ****     static unsigned char* iostatus;
  16:src/cpp/../../h/stdio.hpp ****     static char* idata, *odata;
  17:src/cpp/../../h/stdio.hpp ****     static KSemaphore* blockSem;
  18:src/cpp/../../h/stdio.hpp **** public:
  19:src/cpp/../../h/stdio.hpp ****     
  20:src/cpp/../../h/stdio.hpp **** 
  21:src/cpp/../../h/stdio.hpp ****     static void initalize();
  22:src/cpp/../../h/stdio.hpp ****     static void outputWorker(void*);
  23:src/cpp/../../h/stdio.hpp ****     static void inputWorker();
  24:src/cpp/../../h/stdio.hpp ****     static void console_handler();
  25:src/cpp/../../h/stdio.hpp ****     static bool input_ready(){ return *iostatus & CONSOLE_RX_STATUS_BIT; } 
  26:src/cpp/../../h/stdio.hpp ****     static bool output_ready() { return *iostatus & CONSOLE_TX_STATUS_BIT; }
 120              		.loc 3 26 34
 121              		.loc 3 26 41 is_stmt 0
 122 0068 97070000 		lla	a5,_ZN5StdIO8iostatusE
 122      93870700 
 123 0070 83B70700 		ld	a5,0(a5)
 124 0074 83C70700 		lbu	a5,0(a5)
 125              	.LBE138:
 126              	.LBE137:
  39:src/cpp/stdio.cpp ****         {
 127              		.loc 1 39 9
 128 0078 93F70702 		andi	a5,a5,32
 129 007c E38807FA 		beq	a5,zero,.L3
  41:src/cpp/stdio.cpp ****         }
 130              		.loc 1 41 13 is_stmt 1
  41:src/cpp/stdio.cpp ****         }
 131              		.loc 1 41 34 is_stmt 0
 132 0080 97070000 		lla	a5,_ZN5StdIO7obufferE
 132      93870700 
GAS LISTING /tmp/ccnKzXyo.s 			page 8


 133 0088 83B40700 		ld	s1,0(a5)
  41:src/cpp/stdio.cpp ****         }
 134              		.loc 1 41 13
 135 008c 97070000 		lla	a5,_ZN5StdIO5odataE
 135      93870700 
 136 0094 83B90700 		ld	s3,0(a5)
 137              	.LVL5:
 138              	.LBB139:
 139              	.LBB140:
 140              		.file 4 "src/cpp/../../h/../h/shared_buffer.hpp"
   1:src/cpp/../../h/../h/shared_buffer.hpp **** #ifndef __shared_buffer__hpp
   2:src/cpp/../../h/../h/shared_buffer.hpp **** #define __shared_buffer__hpp
   3:src/cpp/../../h/../h/shared_buffer.hpp **** 
   4:src/cpp/../../h/../h/shared_buffer.hpp **** #include"../h/ksemaphore.hpp"
   5:src/cpp/../../h/../h/shared_buffer.hpp **** 
   6:src/cpp/../../h/../h/shared_buffer.hpp **** template<typename T>
   7:src/cpp/../../h/../h/shared_buffer.hpp **** class SharedBuffer{
   8:src/cpp/../../h/../h/shared_buffer.hpp **** public:
   9:src/cpp/../../h/../h/shared_buffer.hpp ****     static const int BUFFER_SIZE = 1024;
  10:src/cpp/../../h/../h/shared_buffer.hpp **** private:
  11:src/cpp/../../h/../h/shared_buffer.hpp ****     T buffer[BUFFER_SIZE];
  12:src/cpp/../../h/../h/shared_buffer.hpp ****     KSemaphore mutex, itemAvailable, spaceAvailable; 
  13:src/cpp/../../h/../h/shared_buffer.hpp ****     int head, tail;
  14:src/cpp/../../h/../h/shared_buffer.hpp **** 
  15:src/cpp/../../h/../h/shared_buffer.hpp **** public: 
  16:src/cpp/../../h/../h/shared_buffer.hpp ****     int tmpLen;
  17:src/cpp/../../h/../h/shared_buffer.hpp ****     #include"../h/kernel_operators.hpp"
  18:src/cpp/../../h/../h/shared_buffer.hpp ****     SharedBuffer():mutex(1), itemAvailable(0), 
  19:src/cpp/../../h/../h/shared_buffer.hpp ****     spaceAvailable(BUFFER_SIZE), head(0), tail(0), tmpLen(0){}
  20:src/cpp/../../h/../h/shared_buffer.hpp **** 
  21:src/cpp/../../h/../h/shared_buffer.hpp ****     void put(T c){
  22:src/cpp/../../h/../h/shared_buffer.hpp ****         spaceAvailable.wait();
  23:src/cpp/../../h/../h/shared_buffer.hpp ****         mutex.wait();
  24:src/cpp/../../h/../h/shared_buffer.hpp **** 
  25:src/cpp/../../h/../h/shared_buffer.hpp ****         tmpLen++;
  26:src/cpp/../../h/../h/shared_buffer.hpp ****         buffer[tail]=c;
  27:src/cpp/../../h/../h/shared_buffer.hpp ****         tail=(tail+1)%BUFFER_SIZE;
  28:src/cpp/../../h/../h/shared_buffer.hpp ****     
  29:src/cpp/../../h/../h/shared_buffer.hpp ****         itemAvailable.signal();
  30:src/cpp/../../h/../h/shared_buffer.hpp ****         mutex.signal();
  31:src/cpp/../../h/../h/shared_buffer.hpp ****     }
  32:src/cpp/../../h/../h/shared_buffer.hpp **** 
  33:src/cpp/../../h/../h/shared_buffer.hpp ****     T get(){
  34:src/cpp/../../h/../h/shared_buffer.hpp ****         itemAvailable.wait();
 141              		.loc 4 34 27
 142 0098 13858441 		addi	a0,s1,1048
 143 009c 97000000 		call	_ZN10KSemaphore4waitEv
 143      E7800000 
 144              	.LVL6:
  35:src/cpp/../../h/../h/shared_buffer.hpp ****         mutex.wait();
 145              		.loc 4 35 19
 146 00a4 13890440 		addi	s2,s1,1024
 147 00a8 13050900 		mv	a0,s2
 148 00ac 97000000 		call	_ZN10KSemaphore4waitEv
 148      E7800000 
 149              	.LVL7:
  36:src/cpp/../../h/../h/shared_buffer.hpp **** 
GAS LISTING /tmp/ccnKzXyo.s 			page 9


  37:src/cpp/../../h/../h/shared_buffer.hpp ****         tmpLen--;
 150              		.loc 4 37 9
 151 00b4 83A70445 		lw	a5,1104(s1)
 152 00b8 9B87F7FF 		addiw	a5,a5,-1
 153 00bc 23A8F444 		sw	a5,1104(s1)
  38:src/cpp/../../h/../h/shared_buffer.hpp ****         T r = buffer[head];
 154              		.loc 4 38 22
 155 00c0 83A78444 		lw	a5,1096(s1)
 156              		.loc 4 38 11
 157 00c4 3387F400 		add	a4,s1,a5
 158 00c8 034A0700 		lbu	s4,0(a4)
 159              	.LVL8:
  39:src/cpp/../../h/../h/shared_buffer.hpp ****         head = (head+1)%BUFFER_SIZE;
 160              		.loc 4 39 21
 161 00cc 9B871700 		addiw	a5,a5,1
 162              		.loc 4 39 24
 163 00d0 1BD7F741 		sraiw	a4,a5,31
 164 00d4 1B576701 		srliw	a4,a4,22
 165 00d8 BB87E700 		addw	a5,a5,a4
 166 00dc 93F7F73F 		andi	a5,a5,1023
 167 00e0 BB87E740 		subw	a5,a5,a4
 168              		.loc 4 39 9
 169 00e4 23A4F444 		sw	a5,1096(s1)
  40:src/cpp/../../h/../h/shared_buffer.hpp **** 
  41:src/cpp/../../h/../h/shared_buffer.hpp ****         spaceAvailable.signal();
 170              		.loc 4 41 30
 171 00e8 13850443 		addi	a0,s1,1072
 172 00ec 97000000 		call	_ZN10KSemaphore6signalEv
 172      E7800000 
 173              	.LVL9:
  42:src/cpp/../../h/../h/shared_buffer.hpp ****         mutex.signal();
 174              		.loc 4 42 21
 175 00f4 13050900 		mv	a0,s2
 176 00f8 97000000 		call	_ZN10KSemaphore6signalEv
 176      E7800000 
 177              	.LVL10:
 178              	.LBE140:
 179              	.LBE139:
  41:src/cpp/stdio.cpp ****         }
 180              		.loc 1 41 20
 181 0100 23804901 		sb	s4,0(s3)
 182 0104 6FF05FF6 		j	.L2
 183              	.LBE141:
 184              		.cfi_endproc
 185              	.LFE69:
 187              		.align	2
 188              		.globl	_ZN5StdIO9initalizeEv
 190              	_ZN5StdIO9initalizeEv:
 191              	.LFB68:
  18:src/cpp/stdio.cpp ****     ibuffer = new SharedBuffer<char>();
 192              		.loc 1 18 1 is_stmt 1
 193              		.cfi_startproc
 194 0108 130101FE 		addi	sp,sp,-32
 195              		.cfi_def_cfa_offset 32
 196 010c 233C1100 		sd	ra,24(sp)
 197 0110 23388100 		sd	s0,16(sp)
 198 0114 23349100 		sd	s1,8(sp)
GAS LISTING /tmp/ccnKzXyo.s 			page 10


 199 0118 23302101 		sd	s2,0(sp)
 200              		.cfi_offset 1, -8
 201              		.cfi_offset 8, -16
 202              		.cfi_offset 9, -24
 203              		.cfi_offset 18, -32
 204 011c 13040102 		addi	s0,sp,32
 205              		.cfi_def_cfa 8, 0
  19:src/cpp/stdio.cpp ****     obuffer = new SharedBuffer<char>();
 206              		.loc 1 19 5
 207              	.LVL11:
 208              	.LBB142:
 209              	.LBB143:
 210              		.file 5 "src/cpp/../../h/../h/../h/kernel_operators.hpp"
   1:src/cpp/../../h/../h/../h/kernel_operators.hpp **** void* operator new(size_t sz){return MemoryAllocator::getInstance().mem_alloc((sz-1)/MEM_BLOCK_SIZE
 211              		.loc 5 1 67 is_stmt 0
 212 0120 97000000 		call	_ZN15MemoryAllocator11getInstanceEv
 212      E7800000 
 213              	.LVL12:
 214              		.loc 5 1 78
 215 0128 93052001 		li	a1,18
 216 012c 97000000 		call	_ZN15MemoryAllocator9mem_allocEm
 216      E7800000 
 217              	.LVL13:
 218              	.LBE143:
 219              	.LBE142:
 220              	.LBB144:
 221              	.LBB145:
 222              	.LBB146:
 223              	.LBB147:
 224              		.file 6 "src/cpp/../../h/../h/../h/ksemaphore.hpp"
   1:src/cpp/../../h/../h/../h/ksemaphore.hpp **** #ifndef __semaphore__
   2:src/cpp/../../h/../h/../h/ksemaphore.hpp **** #define __semaphore__
   3:src/cpp/../../h/../h/../h/ksemaphore.hpp **** 
   4:src/cpp/../../h/../h/../h/ksemaphore.hpp **** #include"../h/ptr_queue.hpp"
   5:src/cpp/../../h/../h/../h/ksemaphore.hpp **** class KSemaphore
   6:src/cpp/../../h/../h/../h/ksemaphore.hpp **** {
   7:src/cpp/../../h/../h/../h/ksemaphore.hpp **** public:
   8:src/cpp/../../h/../h/../h/ksemaphore.hpp ****     #include"../h/kernel_operators.hpp"
   9:src/cpp/../../h/../h/../h/ksemaphore.hpp ****     KSemaphore(unsigned val):val(val){}
 225              		.loc 6 9 37
 226 0134 93041000 		li	s1,1
 227 0138 23209540 		sw	s1,1024(a0)
 228              	.LVL14:
 229              	.LBB148:
 230              	.LBB149:
 231              		.file 7 "src/cpp/../../h/../h/../h/../h/ptr_queue.hpp"
   1:src/cpp/../../h/../h/../h/../h/ptr_queue.hpp **** #ifndef _queue_h
   2:src/cpp/../../h/../h/../h/../h/ptr_queue.hpp **** #define _queue_h
   3:src/cpp/../../h/../h/../h/../h/ptr_queue.hpp **** 
   4:src/cpp/../../h/../h/../h/../h/ptr_queue.hpp **** #include"../h/tcb.hpp"
   5:src/cpp/../../h/../h/../h/../h/ptr_queue.hpp **** //#include"../h/testing.hpp"
   6:src/cpp/../../h/../h/../h/../h/ptr_queue.hpp **** 
   7:src/cpp/../../h/../h/../h/../h/ptr_queue.hpp **** class TcbQueue{
   8:src/cpp/../../h/../h/../h/../h/ptr_queue.hpp ****        
   9:src/cpp/../../h/../h/../h/../h/ptr_queue.hpp ****    TCB *head, *tail;
  10:src/cpp/../../h/../h/../h/../h/ptr_queue.hpp **** 
  11:src/cpp/../../h/../h/../h/../h/ptr_queue.hpp ****     void brisi(){
GAS LISTING /tmp/ccnKzXyo.s 			page 11


  12:src/cpp/../../h/../h/../h/../h/ptr_queue.hpp ****         while(!isEmpty())
  13:src/cpp/../../h/../h/../h/../h/ptr_queue.hpp ****             remove();
  14:src/cpp/../../h/../h/../h/../h/ptr_queue.hpp ****     }
  15:src/cpp/../../h/../h/../h/../h/ptr_queue.hpp **** 
  16:src/cpp/../../h/../h/../h/../h/ptr_queue.hpp **** public:
  17:src/cpp/../../h/../h/../h/../h/ptr_queue.hpp ****     #include"../h/kernel_operators.hpp"
  18:src/cpp/../../h/../h/../h/../h/ptr_queue.hpp ****     TcbQueue():head(nullptr), tail(nullptr){}
 232              		.loc 7 18 43
 233 013c 23340540 		sd	zero,1032(a0)
 234 0140 23380540 		sd	zero,1040(a0)
 235              	.LVL15:
 236              	.LBE149:
 237              	.LBE148:
 238              	.LBE147:
 239              	.LBE146:
 240              	.LBB150:
 241              	.LBB151:
 242              		.loc 6 9 37
 243 0144 232C0540 		sw	zero,1048(a0)
 244              	.LVL16:
 245              	.LBB152:
 246              	.LBB153:
 247              		.loc 7 18 43
 248 0148 23300542 		sd	zero,1056(a0)
 249 014c 23340542 		sd	zero,1064(a0)
 250              	.LVL17:
 251              	.LBE153:
 252              	.LBE152:
 253              	.LBE151:
 254              	.LBE150:
 255              	.LBB154:
 256              	.LBB155:
 257              		.loc 6 9 37
 258 0150 13090040 		li	s2,1024
 259 0154 23282543 		sw	s2,1072(a0)
 260              	.LVL18:
 261              	.LBB156:
 262              	.LBB157:
 263              		.loc 7 18 43
 264 0158 233C0542 		sd	zero,1080(a0)
 265 015c 23300544 		sd	zero,1088(a0)
 266              	.LVL19:
 267              	.LBE157:
 268              	.LBE156:
 269              	.LBE155:
 270              	.LBE154:
  19:src/cpp/../../h/../h/shared_buffer.hpp **** 
 271              		.loc 4 19 60
 272 0160 23240544 		sw	zero,1096(a0)
 273 0164 23260544 		sw	zero,1100(a0)
 274 0168 23280544 		sw	zero,1104(a0)
 275              	.LVL20:
 276              	.LBE145:
 277              	.LBE144:
  19:src/cpp/stdio.cpp ****     obuffer = new SharedBuffer<char>();
 278              		.loc 1 19 13
 279 016c 97070000 		sd	a0,_ZN5StdIO7ibufferE,a5
GAS LISTING /tmp/ccnKzXyo.s 			page 12


 279      23B0A700 
  20:src/cpp/stdio.cpp ****     print("obuffer:", (uint64)obuffer, 0);
 280              		.loc 1 20 5 is_stmt 1
 281              	.LVL21:
 282              	.LBB158:
 283              	.LBB159:
 284              		.loc 5 1 67 is_stmt 0
 285 0174 97000000 		call	_ZN15MemoryAllocator11getInstanceEv
 285      E7800000 
 286              	.LVL22:
 287              		.loc 5 1 78
 288 017c 93052001 		li	a1,18
 289 0180 97000000 		call	_ZN15MemoryAllocator9mem_allocEm
 289      E7800000 
 290              	.LVL23:
 291 0188 93050500 		mv	a1,a0
 292              	.LVL24:
 293              	.LBE159:
 294              	.LBE158:
 295              	.LBB160:
 296              	.LBB161:
 297              	.LBB162:
 298              	.LBB163:
 299              		.loc 6 9 37
 300 018c 23209540 		sw	s1,1024(a0)
 301              	.LVL25:
 302              	.LBB164:
 303              	.LBB165:
 304              		.loc 7 18 43
 305 0190 23340540 		sd	zero,1032(a0)
 306 0194 23380540 		sd	zero,1040(a0)
 307              	.LVL26:
 308              	.LBE165:
 309              	.LBE164:
 310              	.LBE163:
 311              	.LBE162:
 312              	.LBB166:
 313              	.LBB167:
 314              		.loc 6 9 37
 315 0198 232C0540 		sw	zero,1048(a0)
 316              	.LVL27:
 317              	.LBB168:
 318              	.LBB169:
 319              		.loc 7 18 43
 320 019c 23300542 		sd	zero,1056(a0)
 321 01a0 23340542 		sd	zero,1064(a0)
 322              	.LVL28:
 323              	.LBE169:
 324              	.LBE168:
 325              	.LBE167:
 326              	.LBE166:
 327              	.LBB170:
 328              	.LBB171:
 329              		.loc 6 9 37
 330 01a4 23282543 		sw	s2,1072(a0)
 331              	.LVL29:
 332              	.LBB172:
GAS LISTING /tmp/ccnKzXyo.s 			page 13


 333              	.LBB173:
 334              		.loc 7 18 43
 335 01a8 233C0542 		sd	zero,1080(a0)
 336 01ac 23300544 		sd	zero,1088(a0)
 337              	.LVL30:
 338              	.LBE173:
 339              	.LBE172:
 340              	.LBE171:
 341              	.LBE170:
  19:src/cpp/../../h/../h/shared_buffer.hpp **** 
 342              		.loc 4 19 60
 343 01b0 23240544 		sw	zero,1096(a0)
 344 01b4 23260544 		sw	zero,1100(a0)
 345 01b8 23280544 		sw	zero,1104(a0)
 346              	.LVL31:
 347              	.LBE161:
 348              	.LBE160:
  20:src/cpp/stdio.cpp ****     print("obuffer:", (uint64)obuffer, 0);
 349              		.loc 1 20 13
 350 01bc 97070000 		sd	a0,_ZN5StdIO7obufferE,a5
 350      23B0A700 
  21:src/cpp/stdio.cpp ****     blockSem = new KSemaphore(0);
 351              		.loc 1 21 5 is_stmt 1
  21:src/cpp/stdio.cpp ****     blockSem = new KSemaphore(0);
 352              		.loc 1 21 10 is_stmt 0
 353 01c4 13060000 		li	a2,0
 354 01c8 17050000 		lla	a0,.LC0
 354      13050500 
 355 01d0 97000000 		call	_Z5printPKcmb
 355      E7800000 
 356              	.LVL32:
  22:src/cpp/stdio.cpp ****     iostatus = (unsigned char*)CONSOLE_STATUS;
 357              		.loc 1 22 5 is_stmt 1
 358              	.LBB174:
 359              	.LBB175:
 360              		.file 8 "src/cpp/../../h/../h/../h/../h/kernel_operators.hpp"
   1:src/cpp/../../h/../h/../h/../h/kernel_operators.hpp **** void* operator new(size_t sz){return MemoryAllocator::getInstance().mem_alloc((sz-1)/MEM_BLOCK_SIZE
 361              		.loc 8 1 31
 362              		.loc 8 1 67 is_stmt 0
 363 01d8 97000000 		call	_ZN15MemoryAllocator11getInstanceEv
 363      E7800000 
 364              	.LVL33:
 365              		.loc 8 1 78
 366 01e0 93051000 		li	a1,1
 367 01e4 97000000 		call	_ZN15MemoryAllocator9mem_allocEm
 367      E7800000 
 368              	.LVL34:
 369              	.LBE175:
 370              	.LBE174:
 371              	.LBB176:
 372              	.LBB177:
 373              		.loc 6 9 37
 374 01ec 23200500 		sw	zero,0(a0)
 375              	.LVL35:
 376              	.LBB178:
 377              	.LBB179:
 378              		.loc 7 18 43
GAS LISTING /tmp/ccnKzXyo.s 			page 14


 379 01f0 23340500 		sd	zero,8(a0)
 380 01f4 23380500 		sd	zero,16(a0)
 381              	.LVL36:
 382              	.LBE179:
 383              	.LBE178:
 384              	.LBE177:
 385              	.LBE176:
  22:src/cpp/stdio.cpp ****     iostatus = (unsigned char*)CONSOLE_STATUS;
 386              		.loc 1 22 14
 387 01f8 97070000 		sd	a0,_ZN5StdIO8blockSemE,a5
 387      23B0A700 
  23:src/cpp/stdio.cpp ****     idata = (char*)CONSOLE_RX_DATA;
 388              		.loc 1 23 5 is_stmt 1
  23:src/cpp/stdio.cpp ****     idata = (char*)CONSOLE_RX_DATA;
 389              		.loc 1 23 14 is_stmt 0
 390 0200 97070000 		lla	a5,CONSOLE_STATUS
 390      93870700 
 391 0208 83B70700 		ld	a5,0(a5)
 392 020c 17070000 		sd	a5,_ZN5StdIO8iostatusE,a4
 392      2330F700 
  24:src/cpp/stdio.cpp ****     odata = (char*)CONSOLE_TX_DATA;
 393              		.loc 1 24 5 is_stmt 1
  24:src/cpp/stdio.cpp ****     odata = (char*)CONSOLE_TX_DATA;
 394              		.loc 1 24 11 is_stmt 0
 395 0214 97070000 		lla	a5,CONSOLE_RX_DATA
 395      93870700 
 396 021c 83B70700 		ld	a5,0(a5)
 397 0220 17070000 		sd	a5,_ZN5StdIO5idataE,a4
 397      2330F700 
  25:src/cpp/stdio.cpp ****     uint64* stack = (uint64*)MemoryAllocator::getInstance().mem_alloc((DEFAULT_STACK_SIZE-1)/MEM_BL
 398              		.loc 1 25 5 is_stmt 1
  25:src/cpp/stdio.cpp ****     uint64* stack = (uint64*)MemoryAllocator::getInstance().mem_alloc((DEFAULT_STACK_SIZE-1)/MEM_BL
 399              		.loc 1 25 11 is_stmt 0
 400 0228 97070000 		lla	a5,CONSOLE_TX_DATA
 400      93870700 
 401 0230 83B70700 		ld	a5,0(a5)
 402 0234 17070000 		sd	a5,_ZN5StdIO5odataE,a4
 402      2330F700 
  26:src/cpp/stdio.cpp ****     out_thread = TCB::createThread(outputWorker, nullptr, stack);
 403              		.loc 1 26 5 is_stmt 1
  26:src/cpp/stdio.cpp ****     out_thread = TCB::createThread(outputWorker, nullptr, stack);
 404              		.loc 1 26 59 is_stmt 0
 405 023c 97000000 		call	_ZN15MemoryAllocator11getInstanceEv
 405      E7800000 
 406              	.LVL37:
  26:src/cpp/stdio.cpp ****     out_thread = TCB::createThread(outputWorker, nullptr, stack);
 407              		.loc 1 26 70
 408 0244 93050004 		li	a1,64
 409 0248 97000000 		call	_ZN15MemoryAllocator9mem_allocEm
 409      E7800000 
 410              	.LVL38:
  27:src/cpp/stdio.cpp ****     out_thread->setKernelMode();
 411              		.loc 1 27 5 is_stmt 1
  27:src/cpp/stdio.cpp ****     out_thread->setKernelMode();
 412              		.loc 1 27 35 is_stmt 0
 413 0250 13060500 		mv	a2,a0
 414 0254 93050000 		li	a1,0
GAS LISTING /tmp/ccnKzXyo.s 			page 15


 415 0258 17050000 		lla	a0,_ZN5StdIO12outputWorkerEPv
 415      13050500 
 416              	.LVL39:
 417 0260 97000000 		call	_ZN3TCB12createThreadEPFvPvES0_Pm
 417      E7800000 
 418              	.LVL40:
  27:src/cpp/stdio.cpp ****     out_thread->setKernelMode();
 419              		.loc 1 27 16
 420 0268 97070000 		sd	a0,_ZN5StdIO10out_threadE,a5
 420      23B0A700 
  28:src/cpp/stdio.cpp ****     out_thread->setKernelLocked();
 421              		.loc 1 28 5 is_stmt 1
 422              	.LVL41:
 423              	.LBB180:
 424              	.LBB181:
 425              		.file 9 "src/cpp/../../h/../h/../h/../h/../h/tcb.hpp"
   1:src/cpp/../../h/../h/../h/../h/../h/tcb.hpp **** #ifndef __tcb__h
   2:src/cpp/../../h/../h/../h/../h/../h/tcb.hpp **** #define __tcb__h
   3:src/cpp/../../h/../h/../h/../h/../h/tcb.hpp **** 
   4:src/cpp/../../h/../h/../h/../h/../h/tcb.hpp **** #include"../h/memory_allocator.hpp"
   5:src/cpp/../../h/../h/../h/../h/../h/tcb.hpp **** 
   6:src/cpp/../../h/../h/../h/../h/../h/tcb.hpp **** class KSemaphore;
   7:src/cpp/../../h/../h/../h/../h/../h/tcb.hpp **** 
   8:src/cpp/../../h/../h/../h/../h/../h/tcb.hpp **** class TCB{
   9:src/cpp/../../h/../h/../h/../h/../h/tcb.hpp ****     
  10:src/cpp/../../h/../h/../h/../h/../h/tcb.hpp **** public:
  11:src/cpp/../../h/../h/../h/../h/../h/tcb.hpp ****     //alokacija
  12:src/cpp/../../h/../h/../h/../h/../h/tcb.hpp ****     #include"../h/kernel_operators.hpp"
  13:src/cpp/../../h/../h/../h/../h/../h/tcb.hpp ****     
  14:src/cpp/../../h/../h/../h/../h/../h/tcb.hpp ****     using Body = void (*)(void*);
  15:src/cpp/../../h/../h/../h/../h/../h/tcb.hpp ****     enum TCBState{
  16:src/cpp/../../h/../h/../h/../h/../h/tcb.hpp ****         BLOCKED,
  17:src/cpp/../../h/../h/../h/../h/../h/tcb.hpp ****         READY,
  18:src/cpp/../../h/../h/../h/../h/../h/tcb.hpp ****         FINISHED,
  19:src/cpp/../../h/../h/../h/../h/../h/tcb.hpp ****         SLEEPING
  20:src/cpp/../../h/../h/../h/../h/../h/tcb.hpp ****     };
  21:src/cpp/../../h/../h/../h/../h/../h/tcb.hpp ****     
  22:src/cpp/../../h/../h/../h/../h/../h/tcb.hpp ****     ~TCB(){ 
  23:src/cpp/../../h/../h/../h/../h/../h/tcb.hpp ****         MemoryAllocator& allocator = MemoryAllocator::getInstance(); 
  24:src/cpp/../../h/../h/../h/../h/../h/tcb.hpp ****         if(!allocator.invalidFreeAddress(this))
  25:src/cpp/../../h/../h/../h/../h/../h/tcb.hpp ****             allocator.mem_free(stack);
  26:src/cpp/../../h/../h/../h/../h/../h/tcb.hpp ****     }
  27:src/cpp/../../h/../h/../h/../h/../h/tcb.hpp ****     
  28:src/cpp/../../h/../h/../h/../h/../h/tcb.hpp ****     //nestaticki metodi
  29:src/cpp/../../h/../h/../h/../h/../h/tcb.hpp ****     void setState(TCBState s) {state = s;}
  30:src/cpp/../../h/../h/../h/../h/../h/tcb.hpp ****     TCBState getState() const{ return state; }
  31:src/cpp/../../h/../h/../h/../h/../h/tcb.hpp ****     void finish() { state = FINISHED; }
  32:src/cpp/../../h/../h/../h/../h/../h/tcb.hpp ****     bool isFinished(){ return state == FINISHED; }
  33:src/cpp/../../h/../h/../h/../h/../h/tcb.hpp ****     uint64 getTimeSlice() const { return timeSlice; }
  34:src/cpp/../../h/../h/../h/../h/../h/tcb.hpp ****     bool isSuspended(){return state == BLOCKED || state == SLEEPING;}
  35:src/cpp/../../h/../h/../h/../h/../h/tcb.hpp ****     void setKernelMode() { userMode = false; }
 426              		.loc 9 35 28
 427              		.loc 9 35 37 is_stmt 0
 428 0270 A30E0502 		sb	zero,61(a0)
 429              	.LVL42:
 430              	.LBE181:
 431              	.LBE180:
GAS LISTING /tmp/ccnKzXyo.s 			page 16


  29:src/cpp/stdio.cpp **** }
 432              		.loc 1 29 5 is_stmt 1
 433              	.LBB182:
 434              	.LBB183:
  36:src/cpp/../../h/../h/../h/../h/../h/tcb.hpp ****     void setKernelLocked() { locked = true; }
 435              		.loc 9 36 30
 436              		.loc 9 36 37 is_stmt 0
 437 0274 230F9502 		sb	s1,62(a0)
 438              	.LVL43:
 439              	.LBE183:
 440              	.LBE182:
  30:src/cpp/stdio.cpp **** 
 441              		.loc 1 30 1
 442 0278 83308101 		ld	ra,24(sp)
 443              		.cfi_restore 1
 444 027c 03340101 		ld	s0,16(sp)
 445              		.cfi_restore 8
 446              		.cfi_def_cfa 2, 32
 447 0280 83348100 		ld	s1,8(sp)
 448              		.cfi_restore 9
 449 0284 03390100 		ld	s2,0(sp)
 450              		.cfi_restore 18
 451 0288 13010102 		addi	sp,sp,32
 452              		.cfi_def_cfa_offset 0
 453 028c 67800000 		jr	ra
 454              		.cfi_endproc
 455              	.LFE68:
 457              		.align	2
 458              		.globl	_ZN5StdIO11inputWorkerEv
 460              	_ZN5StdIO11inputWorkerEv:
 461              	.LFB70:
  53:src/cpp/stdio.cpp ****         }
  54:src/cpp/stdio.cpp **** 
  55:src/cpp/stdio.cpp ****     }
  56:src/cpp/stdio.cpp ****     
  57:src/cpp/stdio.cpp **** }
  58:src/cpp/stdio.cpp **** 
  59:src/cpp/stdio.cpp **** void StdIO::inputWorker()
  60:src/cpp/stdio.cpp **** {
 462              		.loc 1 60 1 is_stmt 1
 463              		.cfi_startproc
 464 0290 130101FF 		addi	sp,sp,-16
 465              		.cfi_def_cfa_offset 16
 466 0294 23348100 		sd	s0,8(sp)
 467              		.cfi_offset 8, -8
 468 0298 13040101 		addi	s0,sp,16
 469              		.cfi_def_cfa 8, 0
  61:src/cpp/stdio.cpp **** 
  62:src/cpp/stdio.cpp **** }
 470              		.loc 1 62 1 is_stmt 0
 471 029c 03348100 		ld	s0,8(sp)
 472              		.cfi_restore 8
 473              		.cfi_def_cfa 2, 16
 474 02a0 13010101 		addi	sp,sp,16
 475              		.cfi_def_cfa_offset 0
 476 02a4 67800000 		jr	ra
 477              		.cfi_endproc
GAS LISTING /tmp/ccnKzXyo.s 			page 17


 478              	.LFE70:
 480              		.align	2
 481              		.globl	_ZN5StdIO15console_handlerEv
 483              	_ZN5StdIO15console_handlerEv:
 484              	.LFB71:
  63:src/cpp/stdio.cpp **** 
  64:src/cpp/stdio.cpp **** void StdIO::console_handler(){
 485              		.loc 1 64 30 is_stmt 1
 486              		.cfi_startproc
 487 02a8 130101FC 		addi	sp,sp,-64
 488              		.cfi_def_cfa_offset 64
 489 02ac 233C1102 		sd	ra,56(sp)
 490 02b0 23388102 		sd	s0,48(sp)
 491 02b4 23349102 		sd	s1,40(sp)
 492 02b8 23302103 		sd	s2,32(sp)
 493 02bc 233C3101 		sd	s3,24(sp)
 494              		.cfi_offset 1, -8
 495              		.cfi_offset 8, -16
 496              		.cfi_offset 9, -24
 497              		.cfi_offset 18, -32
 498              		.cfi_offset 19, -40
 499 02c0 13040104 		addi	s0,sp,64
 500              		.cfi_def_cfa 8, 0
  65:src/cpp/stdio.cpp ****     uint64 t = plic_claim();
 501              		.loc 1 65 5
 502              		.loc 1 65 26 is_stmt 0
 503 02c4 97000000 		call	plic_claim
 503      E7800000 
 504              	.LVL44:
  66:src/cpp/stdio.cpp ****     if(t == CONSOLE_IRQ)
 505              		.loc 1 66 5 is_stmt 1
 506              	.LBB204:
 507 02cc 9307A000 		li	a5,10
 508 02d0 6310F512 		bne	a0,a5,.L11
 509              	.LBE204:
  67:src/cpp/stdio.cpp ****     {
  68:src/cpp/stdio.cpp ****         
  69:src/cpp/stdio.cpp ****         if(input_ready())
 510              		.loc 1 69 9
 511              	.LBB224:
 512              	.LBB205:
 513              	.LBB206:
 514              	.LBB207:
  25:src/cpp/../../h/stdio.hpp ****     static bool output_ready() { return *iostatus & CONSOLE_TX_STATUS_BIT; }
 515              		.loc 3 25 32
  25:src/cpp/../../h/stdio.hpp ****     static bool output_ready() { return *iostatus & CONSOLE_TX_STATUS_BIT; }
 516              		.loc 3 25 39 is_stmt 0
 517 02d4 97070000 		lla	a5,_ZN5StdIO8iostatusE
 517      93870700 
 518 02dc 83B70700 		ld	a5,0(a5)
 519 02e0 83C70700 		lbu	a5,0(a5)
 520              	.LBE207:
 521              	.LBE206:
 522              		.loc 1 69 9
 523 02e4 93F71700 		andi	a5,a5,1
 524 02e8 6382070A 		beq	a5,zero,.L12
 525              	.LBB208:
GAS LISTING /tmp/ccnKzXyo.s 			page 18


  70:src/cpp/stdio.cpp ****         {
  71:src/cpp/stdio.cpp ****             char c = *idata;
 526              		.loc 1 71 13 is_stmt 1
 527              		.loc 1 71 22 is_stmt 0
 528 02ec 97070000 		lla	a5,_ZN5StdIO5idataE
 528      93870700 
 529 02f4 83B70700 		ld	a5,0(a5)
 530              		.loc 1 71 18
 531 02f8 03C90700 		lbu	s2,0(a5)
 532              	.LVL45:
  72:src/cpp/stdio.cpp ****             plic_complete(CONSOLE_IRQ);
 533              		.loc 1 72 13 is_stmt 1
 534              		.loc 1 72 26 is_stmt 0
 535 02fc 1305A000 		li	a0,10
 536              	.LVL46:
 537 0300 97000000 		call	plic_complete
 537      E7800000 
 538              	.LVL47:
  73:src/cpp/stdio.cpp ****             //__putc(c);
  74:src/cpp/stdio.cpp ****             if(ibuffer->tmpLen < SharedBuffer<char>::BUFFER_SIZE){
 539              		.loc 1 74 13 is_stmt 1
 540              		.loc 1 74 25 is_stmt 0
 541 0308 97070000 		lla	a5,_ZN5StdIO7ibufferE
 541      93870700 
 542 0310 83B40700 		ld	s1,0(a5)
 543 0314 03A70445 		lw	a4,1104(s1)
 544              		.loc 1 74 13
 545 0318 9307F03F 		li	a5,1023
 546 031c 63CEE70C 		bgt	a4,a5,.L10
  75:src/cpp/stdio.cpp ****                 ibuffer->put(c); 
 547              		.loc 1 75 17 is_stmt 1
 548              	.LVL48:
 549              	.LBB209:
 550              	.LBB210:
  22:src/cpp/../../h/../h/shared_buffer.hpp ****         mutex.wait();
 551              		.loc 4 22 28 is_stmt 0
 552 0320 13850443 		addi	a0,s1,1072
 553 0324 97000000 		call	_ZN10KSemaphore4waitEv
 553      E7800000 
 554              	.LVL49:
  23:src/cpp/../../h/../h/shared_buffer.hpp **** 
 555              		.loc 4 23 19
 556 032c 93890440 		addi	s3,s1,1024
 557 0330 13850900 		mv	a0,s3
 558 0334 97000000 		call	_ZN10KSemaphore4waitEv
 558      E7800000 
 559              	.LVL50:
  25:src/cpp/../../h/../h/shared_buffer.hpp ****         buffer[tail]=c;
 560              		.loc 4 25 9
 561 033c 83A70445 		lw	a5,1104(s1)
 562 0340 9B871700 		addiw	a5,a5,1
 563 0344 23A8F444 		sw	a5,1104(s1)
  26:src/cpp/../../h/../h/shared_buffer.hpp ****         tail=(tail+1)%BUFFER_SIZE;
 564              		.loc 4 26 16
 565 0348 83A7C444 		lw	a5,1100(s1)
  26:src/cpp/../../h/../h/shared_buffer.hpp ****         tail=(tail+1)%BUFFER_SIZE;
 566              		.loc 4 26 9
GAS LISTING /tmp/ccnKzXyo.s 			page 19


 567 034c 3387F400 		add	a4,s1,a5
 568 0350 23002701 		sb	s2,0(a4)
  27:src/cpp/../../h/../h/shared_buffer.hpp ****     
 569              		.loc 4 27 19
 570 0354 9B871700 		addiw	a5,a5,1
  27:src/cpp/../../h/../h/shared_buffer.hpp ****     
 571              		.loc 4 27 22
 572 0358 1BD7F741 		sraiw	a4,a5,31
 573 035c 1B576701 		srliw	a4,a4,22
 574 0360 BB87E700 		addw	a5,a5,a4
 575 0364 93F7F73F 		andi	a5,a5,1023
 576 0368 BB87E740 		subw	a5,a5,a4
  27:src/cpp/../../h/../h/shared_buffer.hpp ****     
 577              		.loc 4 27 9
 578 036c 23A6F444 		sw	a5,1100(s1)
  29:src/cpp/../../h/../h/shared_buffer.hpp ****         mutex.signal();
 579              		.loc 4 29 29
 580 0370 13858441 		addi	a0,s1,1048
 581 0374 97000000 		call	_ZN10KSemaphore6signalEv
 581      E7800000 
 582              	.LVL51:
  30:src/cpp/../../h/../h/shared_buffer.hpp ****     }
 583              		.loc 4 30 21
 584 037c 13850900 		mv	a0,s3
 585 0380 97000000 		call	_ZN10KSemaphore6signalEv
 585      E7800000 
 586              	.LVL52:
 587 0388 6F000007 		j	.L10
 588              	.LVL53:
 589              	.L12:
 590              	.LBE210:
 591              	.LBE209:
 592              	.LBE208:
 593              	.LBB211:
  76:src/cpp/stdio.cpp ****             }
  77:src/cpp/stdio.cpp **** 
  78:src/cpp/stdio.cpp ****         }
  79:src/cpp/stdio.cpp ****         else
  80:src/cpp/stdio.cpp ****         {
  81:src/cpp/stdio.cpp ****             plic_complete(CONSOLE_IRQ);
 594              		.loc 1 81 13 is_stmt 1
 595              		.loc 1 81 26 is_stmt 0
 596 038c 1305A000 		li	a0,10
 597              	.LVL54:
 598 0390 97000000 		call	plic_complete
 598      E7800000 
 599              	.LVL55:
  82:src/cpp/stdio.cpp ****             if(out_thread != nullptr)
 600              		.loc 1 82 13 is_stmt 1
 601              	.LBB212:
 602              		.loc 1 82 27 is_stmt 0
 603 0398 97070000 		lla	a5,_ZN5StdIO10out_threadE
 603      93870700 
 604 03a0 83B70700 		ld	a5,0(a5)
 605              		.loc 1 82 13
 606 03a4 638A0704 		beq	a5,zero,.L10
 607              	.LBB213:
GAS LISTING /tmp/ccnKzXyo.s 			page 20


  83:src/cpp/stdio.cpp ****             {
  84:src/cpp/stdio.cpp ****                 uint64 sstatus = Riscv::r_sstatus(), sepc = Riscv::r_sepc();
 608              		.loc 1 84 17 is_stmt 1
 609              	.LBB214:
 610              	.LBB215:
 168:src/cpp/../../h/../h/riscv.hpp ****     asm volatile("csrr %0, sstatus" : "=r" (sstatus));
 611              		.loc 2 168 5
 169:src/cpp/../../h/../h/riscv.hpp ****     return sstatus;
 612              		.loc 2 169 5
 169:src/cpp/../../h/../h/riscv.hpp ****     return sstatus;
 613              		.loc 2 169 54 is_stmt 0
 614              	 #APP
 615              	# 169 "src/cpp/../../h/../h/riscv.hpp" 1
 616              		csrr a5, sstatus
 617              	# 0 "" 2
 618              	 #NO_APP
 619 03ac 2334F4FC 		sd	a5,-56(s0)
 620              		.loc 2 170 5 is_stmt 1
 621              		.loc 2 170 12 is_stmt 0
 622 03b0 033984FC 		ld	s2,-56(s0)
 623              	.LVL56:
 624              	.LBE215:
 625              	.LBE214:
 626              	.LBB216:
 627              	.LBB217:
 112:src/cpp/../../h/../h/riscv.hpp ****     asm volatile("csrr %0, sepc" : "=r" (sepc));
 628              		.loc 2 112 5 is_stmt 1
 113:src/cpp/../../h/../h/riscv.hpp ****     return sepc;
 629              		.loc 2 113 5
 113:src/cpp/../../h/../h/riscv.hpp ****     return sepc;
 630              		.loc 2 113 48 is_stmt 0
 631              	 #APP
 632              	# 113 "src/cpp/../../h/../h/riscv.hpp" 1
 633              		csrr a5, sepc
 634              	# 0 "" 2
 635              	 #NO_APP
 636 03b8 2330F4FC 		sd	a5,-64(s0)
 114:src/cpp/../../h/../h/riscv.hpp **** } 
 637              		.loc 2 114 5 is_stmt 1
 114:src/cpp/../../h/../h/riscv.hpp **** } 
 638              		.loc 2 114 12 is_stmt 0
 639 03bc 833404FC 		ld	s1,-64(s0)
 640              	.LVL57:
 641              	.LBE217:
 642              	.LBE216:
  85:src/cpp/stdio.cpp ****                 Scheduler::put_front(out_thread);
 643              		.loc 1 85 17 is_stmt 1
 644              	.LBB218:
 645              	.LBB219:
 646              		.file 10 "src/cpp/../../h/scheduler.hpp"
   1:src/cpp/../../h/scheduler.hpp **** #ifndef _scheduler_
   2:src/cpp/../../h/scheduler.hpp **** #define _scheduler_
   3:src/cpp/../../h/scheduler.hpp **** 
   4:src/cpp/../../h/scheduler.hpp **** #include"../lib/hw.h"
   5:src/cpp/../../h/scheduler.hpp **** #include"../h/ptr_queue.hpp"
   6:src/cpp/../../h/scheduler.hpp **** 
   7:src/cpp/../../h/scheduler.hpp **** class Scheduler
GAS LISTING /tmp/ccnKzXyo.s 			page 21


   8:src/cpp/../../h/scheduler.hpp **** {
   9:src/cpp/../../h/scheduler.hpp **** public:  
  10:src/cpp/../../h/scheduler.hpp ****     static void initalize();
  11:src/cpp/../../h/scheduler.hpp ****     static TCB* get();
  12:src/cpp/../../h/scheduler.hpp ****     static void put(TCB*);
  13:src/cpp/../../h/scheduler.hpp ****     static void finalize();
  14:src/cpp/../../h/scheduler.hpp ****     static void put_sleeper(TCB*, time_t);
  15:src/cpp/../../h/scheduler.hpp ****     static void update_sleep();
  16:src/cpp/../../h/scheduler.hpp ****     static void put_front(TCB* t) { queue.insertFront(t); }
 647              		.loc 10 16 37
 648              		.loc 10 16 54 is_stmt 0
 649 03c0 97070000 		lla	a5,_ZN5StdIO10out_threadE
 649      93870700 
 650 03c8 83B50700 		ld	a1,0(a5)
 651 03cc 17050000 		lla	a0,_ZN9Scheduler5queueE
 651      13050500 
 652 03d4 97000000 		call	_ZN8TcbQueue11insertFrontEP3TCB
 652      E7800000 
 653              	.LVL58:
 654              	.LBE219:
 655              	.LBE218:
  86:src/cpp/stdio.cpp **** 
  87:src/cpp/stdio.cpp ****                 TCB::yield();
 656              		.loc 1 87 17 is_stmt 1
 657              		.loc 1 87 27 is_stmt 0
 658 03dc 97000000 		call	_ZN3TCB5yieldEv
 658      E7800000 
 659              	.LVL59:
  88:src/cpp/stdio.cpp **** 
  89:src/cpp/stdio.cpp ****                 Riscv::w_sstatus(sstatus);
 660              		.loc 1 89 17 is_stmt 1
 661              	.LBB220:
 662              	.LBB221:
 164:src/cpp/../../h/../h/riscv.hpp **** }
 663              		.loc 2 164 5
 164:src/cpp/../../h/../h/riscv.hpp **** }
 664              		.loc 2 164 55 is_stmt 0
 665              	 #APP
 666              	# 164 "src/cpp/../../h/../h/riscv.hpp" 1
 667              		csrw sstatus, s2
 668              	# 0 "" 2
 669              	.LVL60:
 670              	 #NO_APP
 671              	.LBE221:
 672              	.LBE220:
  90:src/cpp/stdio.cpp ****                 Riscv::w_sepc(sepc);
 673              		.loc 1 90 17 is_stmt 1
 674              	.LBB222:
 675              	.LBB223:
 108:src/cpp/../../h/../h/riscv.hpp **** }
 676              		.loc 2 108 5
 108:src/cpp/../../h/../h/riscv.hpp **** }
 677              		.loc 2 108 49 is_stmt 0
 678              	 #APP
 679              	# 108 "src/cpp/../../h/../h/riscv.hpp" 1
 680              		csrw sepc, s1
 681              	# 0 "" 2
GAS LISTING /tmp/ccnKzXyo.s 			page 22


 682              	 #NO_APP
 683 03ec 6F00C000 		j	.L10
 684              	.LVL61:
 685              	.L11:
 686              	.LBE223:
 687              	.LBE222:
 688              	.LBE213:
 689              	.LBE212:
 690              	.LBE211:
 691              	.LBE205:
  91:src/cpp/stdio.cpp ****             }
  92:src/cpp/stdio.cpp ****                 
  93:src/cpp/stdio.cpp ****         }    
  94:src/cpp/stdio.cpp ****     }
  95:src/cpp/stdio.cpp ****     else
  96:src/cpp/stdio.cpp ****         plic_complete(t);
 692              		.loc 1 96 9 is_stmt 1
 693              		.loc 1 96 22 is_stmt 0
 694 03f0 97000000 		call	plic_complete
 694      E7800000 
 695              	.LVL62:
 696              	.L10:
 697              	.LBE224:
  97:src/cpp/stdio.cpp ****         
  98:src/cpp/stdio.cpp **** }...
 698              		.loc 1 98 1
 699 03f8 83308103 		ld	ra,56(sp)
 700              		.cfi_restore 1
 701 03fc 03340103 		ld	s0,48(sp)
 702              		.cfi_restore 8
 703              		.cfi_def_cfa 2, 64
 704 0400 83348102 		ld	s1,40(sp)
 705              		.cfi_restore 9
 706 0404 03390102 		ld	s2,32(sp)
 707              		.cfi_restore 18
 708 0408 83398101 		ld	s3,24(sp)
 709              		.cfi_restore 19
 710 040c 13010104 		addi	sp,sp,64
 711              		.cfi_def_cfa_offset 0
 712 0410 67800000 		jr	ra
 713              		.cfi_endproc
 714              	.LFE71:
 716              		.globl	_ZN5StdIO5odataE
 717              		.globl	_ZN5StdIO5idataE
 718              		.globl	_ZN5StdIO8iostatusE
 719              		.globl	_ZN5StdIO10out_threadE
 720              		.globl	_ZN5StdIO8blockSemE
 721              		.globl	_ZN5StdIO7obufferE
 722              		.globl	_ZN5StdIO7ibufferE
 723              		.section	.rodata.str1.8,"aMS",@progbits,1
 724              		.align	3
 725              	.LC0:
 726 0000 6F627566 		.string	"obuffer:"
 726      6665723A 
 726      00
 727              		.section	.sbss,"aw",@nobits
 728              		.align	3
GAS LISTING /tmp/ccnKzXyo.s 			page 23


 731              	_ZN5StdIO5odataE:
 732 0000 00000000 		.zero	8
 732      00000000 
 735              	_ZN5StdIO5idataE:
 736 0008 00000000 		.zero	8
 736      00000000 
 739              	_ZN5StdIO8iostatusE:
 740 0010 00000000 		.zero	8
 740      00000000 
 743              	_ZN5StdIO10out_threadE:
 744 0018 00000000 		.zero	8
 744      00000000 
 747              	_ZN5StdIO8blockSemE:
 748 0020 00000000 		.zero	8
 748      00000000 
 751              	_ZN5StdIO7obufferE:
 752 0028 00000000 		.zero	8
 752      00000000 
 755              	_ZN5StdIO7ibufferE:
 756 0030 00000000 		.zero	8
 756      00000000 
 757              		.text
 758              	.Letext0:
 759              		.file 11 "src/cpp/../../h/../h/../h/../h/../h/../h/../lib/hw.h"
 760              		.file 12 "src/cpp/../../h/../h/../h/../h/../h/../h/memory_allocator.hpp"
 761              		.file 13 "src/cpp/../../h/../h/../h/../h/../h/../h/kernel_operators.hpp"
 762              		.file 14 "src/cpp/../../h/../h/../h/../h/../h/kernel_operators.hpp"
 763              		.file 15 "src/cpp/../../h/testing.hpp"
GAS LISTING /tmp/ccnKzXyo.s 			page 24

