GAS LISTING /tmp/ccH5lhIg.s 			page 1


   1              		.file	"syscall_c.cpp"
   2              		.option nopic
   3              		.option norelax
   4              		.attribute arch, "rv64i2p0_m2p0_a2p0"
   5              		.attribute unaligned_access, 0
   6              		.attribute stack_align, 16
   7              		.text
   8              	.Ltext0:
   9              		.align	2
  10              		.globl	mem_alloc
  12              	mem_alloc:
  13              	.LFB1:
  14              		.file 1 "src/cpp/syscall_c.cpp"
   1:src/cpp/syscall_c.cpp **** #include"../../lib/hw.h"
   2:src/cpp/syscall_c.cpp **** #include"../../h/_thread.hpp"
   3:src/cpp/syscall_c.cpp **** extern "C" void* mem_alloc(size_t size){
  15              		.loc 1 3 40
  16              		.cfi_startproc
  17              	.LVL0:
  18 0000 130101FF 		addi	sp,sp,-16
  19              		.cfi_def_cfa_offset 16
  20 0004 23348100 		sd	s0,8(sp)
  21              		.cfi_offset 8, -8
  22 0008 13040101 		addi	s0,sp,16
  23              		.cfi_def_cfa 8, 0
   4:src/cpp/syscall_c.cpp ****     size_t szblcks = (size-1)/MEM_BLOCK_SIZE + 1;
  24              		.loc 1 4 5
  25              		.loc 1 4 27 is_stmt 0
  26 000c 1305F5FF 		addi	a0,a0,-1
  27              	.LVL1:
  28              		.loc 1 4 30
  29 0010 13556500 		srli	a0,a0,6
  30              	.LVL2:
  31              		.loc 1 4 12
  32 0014 13051500 		addi	a0,a0,1
  33              	.LVL3:
   5:src/cpp/syscall_c.cpp ****     char* adr = 0;
  34              		.loc 1 5 5 is_stmt 1
   6:src/cpp/syscall_c.cpp **** 
   7:src/cpp/syscall_c.cpp ****     __asm__ volatile("mv a1, %0" : : "r" (szblcks));
  35              		.loc 1 7 5
  36              		.loc 1 7 52 is_stmt 0
  37              	 #APP
  38              	# 7 "src/cpp/syscall_c.cpp" 1
   8              	    __asm__ volatile("mv a0, %0" : : "r" (0x1));
  39              		mv a1, a0
  40              	# 0 "" 2
  41              		.loc 1 8 5 is_stmt 1
  42              		.loc 1 8 48 is_stmt 0
  43              	 #NO_APP
  44 001c 93071000 		li	a5,1
  45              	 #APP
  46              	# 8 "src/cpp/syscall_c.cpp" 1
   9              	    __asm__ volatile("ecall");
  47              		mv a0, a5
  48              	# 0 "" 2
  49              		.loc 1 9 5 is_stmt 1
GAS LISTING /tmp/ccH5lhIg.s 			page 2


  50              		.loc 1 9 30 is_stmt 0
  51              	# 9 "src/cpp/syscall_c.cpp" 1
  10              	    __asm__ volatile("mv %0, a0" : "=r" (adr));
  52              		ecall
  53              	# 0 "" 2
  54              		.loc 1 10 5 is_stmt 1
  55              		.loc 1 10 47 is_stmt 0
  56              	# 10 "src/cpp/syscall_c.cpp" 1
  11              	    
  57              		mv a0, a0
  58              	# 0 "" 2
  59              	.LVL4:
  12:src/cpp/syscall_c.cpp ****     return adr;  
  60              		.loc 1 12 5 is_stmt 1
  13:src/cpp/syscall_c.cpp **** }
  61              		.loc 1 13 1 is_stmt 0
  62              	 #NO_APP
  63 002c 03348100 		ld	s0,8(sp)
  64              		.cfi_restore 8
  65              		.cfi_def_cfa 2, 16
  66 0030 13010101 		addi	sp,sp,16
  67              		.cfi_def_cfa_offset 0
  68 0034 67800000 		jr	ra
  69              		.cfi_endproc
  70              	.LFE1:
  72              		.align	2
  73              		.globl	mem_free
  75              	mem_free:
  76              	.LFB2:
  14:src/cpp/syscall_c.cpp **** 
  15:src/cpp/syscall_c.cpp **** extern "C" int mem_free (void* adr){
  77              		.loc 1 15 36 is_stmt 1
  78              		.cfi_startproc
  79              	.LVL5:
  80 0038 130101FF 		addi	sp,sp,-16
  81              		.cfi_def_cfa_offset 16
  82 003c 23348100 		sd	s0,8(sp)
  83              		.cfi_offset 8, -8
  84 0040 13040101 		addi	s0,sp,16
  85              		.cfi_def_cfa 8, 0
  16:src/cpp/syscall_c.cpp ****     int ret;
  86              		.loc 1 16 5
  17:src/cpp/syscall_c.cpp **** 
  18:src/cpp/syscall_c.cpp ****     __asm__ volatile("mv a1, %0" : : "r" ((uint64)adr));
  87              		.loc 1 18 5
  88              		.loc 1 18 56 is_stmt 0
  89              	 #APP
  90              	# 18 "src/cpp/syscall_c.cpp" 1
  19              	    __asm__ volatile("mv a0, %0" : : "r" (0x2));
  91              		mv a1, a0
  92              	# 0 "" 2
  93              		.loc 1 19 5 is_stmt 1
  94              		.loc 1 19 48 is_stmt 0
  95              	 #NO_APP
  96 0048 93072000 		li	a5,2
  97              	 #APP
  98              	# 19 "src/cpp/syscall_c.cpp" 1
GAS LISTING /tmp/ccH5lhIg.s 			page 3


  20              	    __asm__ volatile("ecall");
  99              		mv a0, a5
 100              	# 0 "" 2
 101              		.loc 1 20 5 is_stmt 1
 102              		.loc 1 20 30 is_stmt 0
 103              	# 20 "src/cpp/syscall_c.cpp" 1
  21              	    __asm__ volatile("mv %0, a0" : "=r" (ret));
 104              		ecall
 105              	# 0 "" 2
 106              		.loc 1 21 5 is_stmt 1
 107              		.loc 1 21 47 is_stmt 0
 108              	# 21 "src/cpp/syscall_c.cpp" 1
  22              	    
 109              		mv a0, a0
 110              	# 0 "" 2
 111              	.LVL6:
  23:src/cpp/syscall_c.cpp ****     return ret;
 112              		.loc 1 23 5 is_stmt 1
  24:src/cpp/syscall_c.cpp **** }
 113              		.loc 1 24 1 is_stmt 0
 114              	 #NO_APP
 115 0058 1B050500 		sext.w	a0,a0
 116 005c 03348100 		ld	s0,8(sp)
 117              		.cfi_restore 8
 118              		.cfi_def_cfa 2, 16
 119 0060 13010101 		addi	sp,sp,16
 120              		.cfi_def_cfa_offset 0
 121 0064 67800000 		jr	ra
 122              		.cfi_endproc
 123              	.LFE2:
 125              		.align	2
 126              		.globl	thread_dispatch
 128              	thread_dispatch:
 129              	.LFB3:
  25:src/cpp/syscall_c.cpp **** 
  26:src/cpp/syscall_c.cpp **** extern "C" void thread_dispatch(){
 130              		.loc 1 26 34 is_stmt 1
 131              		.cfi_startproc
 132 0068 130101FF 		addi	sp,sp,-16
 133              		.cfi_def_cfa_offset 16
 134 006c 23348100 		sd	s0,8(sp)
 135              		.cfi_offset 8, -8
 136 0070 13040101 		addi	s0,sp,16
 137              		.cfi_def_cfa 8, 0
  27:src/cpp/syscall_c.cpp ****     __asm__ volatile("mv a0, %0" : : "r" (0x13));
 138              		.loc 1 27 5
 139              		.loc 1 27 49 is_stmt 0
 140 0074 93073001 		li	a5,19
 141              	 #APP
 142              	# 27 "src/cpp/syscall_c.cpp" 1
  28              	    __asm__ volatile("ecall");
 143              		mv a0, a5
 144              	# 0 "" 2
 145              		.loc 1 28 5 is_stmt 1
 146              		.loc 1 28 30 is_stmt 0
 147              	# 28 "src/cpp/syscall_c.cpp" 1
  29              	}
GAS LISTING /tmp/ccH5lhIg.s 			page 4


 148              		ecall
 149              	# 0 "" 2
 150              		.loc 1 29 1
 151              	 #NO_APP
 152 0080 03348100 		ld	s0,8(sp)
 153              		.cfi_restore 8
 154              		.cfi_def_cfa 2, 16
 155 0084 13010101 		addi	sp,sp,16
 156              		.cfi_def_cfa_offset 0
 157 0088 67800000 		jr	ra
 158              		.cfi_endproc
 159              	.LFE3:
 161              		.align	2
 162              		.globl	thread_create
 164              	thread_create:
 165              	.LFB4:
  30:src/cpp/syscall_c.cpp **** 
  31:src/cpp/syscall_c.cpp **** 
  32:src/cpp/syscall_c.cpp **** 
  33:src/cpp/syscall_c.cpp **** extern "C" void thread_create(thread_t* handle, 
  34:src/cpp/syscall_c.cpp ****     void(*start_routine)(void*), void* arg){
 166              		.loc 1 34 44 is_stmt 1
 167              		.cfi_startproc
 168              	.LVL7:
 169 008c 130101FD 		addi	sp,sp,-48
 170              		.cfi_def_cfa_offset 48
 171 0090 23341102 		sd	ra,40(sp)
 172 0094 23308102 		sd	s0,32(sp)
 173 0098 233C9100 		sd	s1,24(sp)
 174 009c 23382101 		sd	s2,16(sp)
 175 00a0 23343101 		sd	s3,8(sp)
 176              		.cfi_offset 1, -8
 177              		.cfi_offset 8, -16
 178              		.cfi_offset 9, -24
 179              		.cfi_offset 18, -32
 180              		.cfi_offset 19, -40
 181 00a4 13040103 		addi	s0,sp,48
 182              		.cfi_def_cfa 8, 0
 183 00a8 93090500 		mv	s3,a0
 184 00ac 13890500 		mv	s2,a1
 185 00b0 93040600 		mv	s1,a2
  35:src/cpp/syscall_c.cpp ****    
  36:src/cpp/syscall_c.cpp ****     void* stack_space = mem_alloc(DEFAULT_STACK_SIZE);
 186              		.loc 1 36 5
 187              		.loc 1 36 34 is_stmt 0
 188 00b4 37150000 		li	a0,4096
 189              	.LVL8:
 190 00b8 97000000 		call	mem_alloc
 190      E7800000 
 191              	.LVL9:
  37:src/cpp/syscall_c.cpp ****     
  38:src/cpp/syscall_c.cpp ****     asm volatile("li a0, 0x11");
 192              		.loc 1 38 5 is_stmt 1
 193              		.loc 1 38 32 is_stmt 0
 194              	 #APP
 195              	# 38 "src/cpp/syscall_c.cpp" 1
  39              	    asm volatile("mv a1, %0" : : "r" ((uint64)handle));
GAS LISTING /tmp/ccH5lhIg.s 			page 5


 196              		li a0, 0x11
 197              	# 0 "" 2
 198              		.loc 1 39 5 is_stmt 1
 199              		.loc 1 39 55 is_stmt 0
 200              	# 39 "src/cpp/syscall_c.cpp" 1
  40              	    asm volatile("mv a2, %0" : : "r" ((uint64)start_routine));
 201              		mv a1, s3
 202              	# 0 "" 2
 203              		.loc 1 40 5 is_stmt 1
 204              		.loc 1 40 62 is_stmt 0
 205              	# 40 "src/cpp/syscall_c.cpp" 1
  41              	    asm volatile("mv a3, %0" : : "r" ((uint64)arg));
 206              		mv a2, s2
 207              	# 0 "" 2
 208              		.loc 1 41 5 is_stmt 1
 209              		.loc 1 41 52 is_stmt 0
 210              	# 41 "src/cpp/syscall_c.cpp" 1
  42              	    asm volatile("mv a4, %0" : : "r" ((uint64)stack_space));
 211              		mv a3, s1
 212              	# 0 "" 2
 213              		.loc 1 42 5 is_stmt 1
 214              		.loc 1 42 60 is_stmt 0
 215              	# 42 "src/cpp/syscall_c.cpp" 1
  43              	    
  44:src/cpp/syscall_c.cpp **** 
  45:src/cpp/syscall_c.cpp **** }...
 216              		mv a4, a0
 217              	# 0 "" 2
 218              		.loc 1 45 1
 219              	 #NO_APP
 220 00d4 83308102 		ld	ra,40(sp)
 221              		.cfi_restore 1
 222 00d8 03340102 		ld	s0,32(sp)
 223              		.cfi_restore 8
 224              		.cfi_def_cfa 2, 48
 225 00dc 83348101 		ld	s1,24(sp)
 226              		.cfi_restore 9
 227              	.LVL10:
 228 00e0 03390101 		ld	s2,16(sp)
 229              		.cfi_restore 18
 230              	.LVL11:
 231 00e4 83398100 		ld	s3,8(sp)
 232              		.cfi_restore 19
 233              	.LVL12:
 234 00e8 13010103 		addi	sp,sp,48
 235              		.cfi_def_cfa_offset 0
 236 00ec 67800000 		jr	ra
 237              		.cfi_endproc
 238              	.LFE4:
 240              	.Letext0:
 241              		.file 2 "src/cpp/../../lib/hw.h"
 242              		.file 3 "src/cpp/../../h/_thread.hpp"
GAS LISTING /tmp/ccH5lhIg.s 			page 6

