GAS LISTING /tmp/ccCFJl3T.s 			page 1


   1              		.file	"tcb.cpp"
   2              		.option nopic
   3              		.option norelax
   4              		.attribute arch, "rv64i2p0_m2p0_a2p0"
   5              		.attribute unaligned_access, 0
   6              		.attribute stack_align, 16
   7              		.text
   8              	.Ltext0:
   9              		.align	2
  10              		.globl	_ZN5Riscv10popSppSpieEv
  12              	_ZN5Riscv10popSppSpieEv:
  13              	.LFB49:
  14              		.file 1 "src/cpp/tcb.cpp"
   1:src/cpp/tcb.cpp **** #include"../../h/tcb.hpp"
   2:src/cpp/tcb.cpp **** #include"../../h/scheduler.hpp"
   3:src/cpp/tcb.cpp **** #include"../../h/riscv.hpp"
   4:src/cpp/tcb.cpp **** 
   5:src/cpp/tcb.cpp **** TCB* TCB::running = nullptr;
   6:src/cpp/tcb.cpp **** uint64 TCB::timeSliceCounter = 0;
   7:src/cpp/tcb.cpp **** void Riscv::popSppSpie() {
  15              		.loc 1 7 26
  16              		.cfi_startproc
  17 0000 130101FF 		addi	sp,sp,-16
  18              		.cfi_def_cfa_offset 16
  19 0004 23348100 		sd	s0,8(sp)
  20              		.cfi_offset 8, -8
  21 0008 13040101 		addi	s0,sp,16
  22              		.cfi_def_cfa 8, 0
   8:src/cpp/tcb.cpp ****     __asm__ volatile ("csrw sepc, ra");
  23              		.loc 1 8 5
  24              		.loc 1 8 39 is_stmt 0
  25              	 #APP
  26              	# 8 "src/cpp/tcb.cpp" 1
   9              	    __asm__ volatile ("sret");
  27              		csrw sepc, ra
  28              	# 0 "" 2
  29              		.loc 1 9 5 is_stmt 1
  30              		.loc 1 9 30 is_stmt 0
  31              	# 9 "src/cpp/tcb.cpp" 1
  10              	}
  32              		sret
  33              	# 0 "" 2
  34              		.loc 1 10 1
  35              	 #NO_APP
  36 0014 03348100 		ld	s0,8(sp)
  37              		.cfi_restore 8
  38              		.cfi_def_cfa 2, 16
  39 0018 13010101 		addi	sp,sp,16
  40              		.cfi_def_cfa_offset 0
  41 001c 67800000 		jr	ra
  42              		.cfi_endproc
  43              	.LFE49:
  45              		.align	2
  46              		.globl	_ZN3TCB13threadWrapperEv
  48              	_ZN3TCB13threadWrapperEv:
  49              	.LFB54:
  11:src/cpp/tcb.cpp **** 
GAS LISTING /tmp/ccCFJl3T.s 			page 2


  12:src/cpp/tcb.cpp **** TCB* TCB::createThread(Body body, void* args, uint64* stack){
  13:src/cpp/tcb.cpp ****     return new TCB(body, args, stack);
  14:src/cpp/tcb.cpp **** }
  15:src/cpp/tcb.cpp **** 
  16:src/cpp/tcb.cpp **** TCB::TCB(TCB::Body bbody, void* aargs, uint64* sstack, uint64 ttimeSlice):
  17:src/cpp/tcb.cpp **** body(bbody), args(aargs), stack(sstack), timeSlice(ttimeSlice),finished(false), destruct(false),
  18:src/cpp/tcb.cpp **** context({(uint64) &threadWrapper, stack ? (uint64) &stack[DEFAULT_STACK_SIZE] : 0}){    
  19:src/cpp/tcb.cpp ****     if(body && stack)
  20:src/cpp/tcb.cpp ****         Scheduler::put(this);
  21:src/cpp/tcb.cpp **** }   
  22:src/cpp/tcb.cpp **** 
  23:src/cpp/tcb.cpp **** //void TCB::yield(){}
  24:src/cpp/tcb.cpp **** 
  25:src/cpp/tcb.cpp **** void TCB::threadWrapper(){
  50              		.loc 1 25 26 is_stmt 1
  51              		.cfi_startproc
  52 0020 130101FE 		addi	sp,sp,-32
  53              		.cfi_def_cfa_offset 32
  54 0024 233C1100 		sd	ra,24(sp)
  55 0028 23388100 		sd	s0,16(sp)
  56 002c 23349100 		sd	s1,8(sp)
  57              		.cfi_offset 1, -8
  58              		.cfi_offset 8, -16
  59              		.cfi_offset 9, -24
  60 0030 13040102 		addi	s0,sp,32
  61              		.cfi_def_cfa 8, 0
  26:src/cpp/tcb.cpp ****     print("start of thread", (uint64)TCB::running, 0);
  62              		.loc 1 26 5
  63              		.loc 1 26 10 is_stmt 0
  64 0034 97040000 		lla	s1,_ZN3TCB7runningE
  64      93840400 
  65 003c 13060000 		li	a2,0
  66 0040 83B50400 		ld	a1,0(s1)
  67 0044 17050000 		lla	a0,.LC0
  67      13050500 
  68 004c 97000000 		call	_Z5printPKcmb
  68      E7800000 
  69              	.LVL0:
  27:src/cpp/tcb.cpp ****     Riscv::popSppSpie();
  70              		.loc 1 27 5 is_stmt 1
  71              		.loc 1 27 22 is_stmt 0
  72 0054 97000000 		call	_ZN5Riscv10popSppSpieEv
  72      E7800000 
  73              	.LVL1:
  28:src/cpp/tcb.cpp ****     running->body(running->args);
  74              		.loc 1 28 5 is_stmt 1
  75              		.loc 1 28 14 is_stmt 0
  76 005c 83B70400 		ld	a5,0(s1)
  77 0060 03B70700 		ld	a4,0(a5)
  78              		.loc 1 28 18
  79 0064 03B58700 		ld	a0,8(a5)
  80 0068 E7000700 		jalr	a4
  81              	.LVL2:
  29:src/cpp/tcb.cpp ****     running->setFinished();
  82              		.loc 1 29 5 is_stmt 1
  83              		.loc 1 29 25 is_stmt 0
  84 006c 83B70400 		ld	a5,0(s1)
GAS LISTING /tmp/ccCFJl3T.s 			page 3


  85              	.LVL3:
  86              	.LBB17:
  87              	.LBB18:
  88              		.file 2 "src/cpp/../../h/tcb.hpp"
   1:src/cpp/../../h/tcb.hpp **** #ifndef __tcb__h
   2:src/cpp/../../h/tcb.hpp **** #define __tcb__h
   3:src/cpp/../../h/tcb.hpp **** 
   4:src/cpp/../../h/tcb.hpp **** #include"../h/memory_allocator.hpp"
   5:src/cpp/../../h/tcb.hpp **** 
   6:src/cpp/../../h/tcb.hpp **** class TCB{
   7:src/cpp/../../h/tcb.hpp ****     
   8:src/cpp/../../h/tcb.hpp **** public:
   9:src/cpp/../../h/tcb.hpp ****     //alokacija
  10:src/cpp/../../h/tcb.hpp ****     #include"../h/kernel_operators.hpp"
  11:src/cpp/../../h/tcb.hpp ****     
  12:src/cpp/../../h/tcb.hpp ****     using Body = void (*)(void*);
  13:src/cpp/../../h/tcb.hpp ****     
  14:src/cpp/../../h/tcb.hpp ****     ~TCB(){  MemoryAllocator::getInstance().mem_free(stack); }
  15:src/cpp/../../h/tcb.hpp ****     
  16:src/cpp/../../h/tcb.hpp ****     //da li je thread zavrsen
  17:src/cpp/../../h/tcb.hpp ****     bool isFinished() const { return finished; }
  18:src/cpp/../../h/tcb.hpp ****     void setFinished() {finished = true;}
  89              		.loc 2 18 25 is_stmt 1
  90              		.loc 2 18 34 is_stmt 0
  91 0070 13071000 		li	a4,1
  92 0074 2380E702 		sb	a4,32(a5)
  93              	.LVL4:
  94              	.LBE18:
  95              	.LBE17:
  30:src/cpp/tcb.cpp ****     asm volatile("mv a0, %0" ::"r" (0x13));
  96              		.loc 1 30 5 is_stmt 1
  97              		.loc 1 30 43 is_stmt 0
  98 0078 93073001 		li	a5,19
  99              	 #APP
 100              	# 30 "src/cpp/tcb.cpp" 1
  31              	    asm volatile("ecall");
 101              		mv a0, a5
 102              	# 0 "" 2
 103              		.loc 1 31 5 is_stmt 1
 104              		.loc 1 31 26 is_stmt 0
 105              	# 31 "src/cpp/tcb.cpp" 1
  32              	}
 106              		ecall
 107              	# 0 "" 2
 108              		.loc 1 32 1
 109              	 #NO_APP
 110 0084 83308101 		ld	ra,24(sp)
 111              		.cfi_restore 1
 112 0088 03340101 		ld	s0,16(sp)
 113              		.cfi_restore 8
 114              		.cfi_def_cfa 2, 32
 115 008c 83348100 		ld	s1,8(sp)
 116              		.cfi_restore 9
 117 0090 13010102 		addi	sp,sp,32
 118              		.cfi_def_cfa_offset 0
 119 0094 67800000 		jr	ra
 120              		.cfi_endproc
GAS LISTING /tmp/ccCFJl3T.s 			page 4


 121              	.LFE54:
 123              		.align	2
 124              		.globl	_ZN3TCBC2EPFvPvES0_Pmm
 126              	_ZN3TCBC2EPFvPvES0_Pmm:
 127              	.LFB52:
  16:src/cpp/tcb.cpp **** body(bbody), args(aargs), stack(sstack), timeSlice(ttimeSlice),finished(false), destruct(false),
 128              		.loc 1 16 1 is_stmt 1
 129              		.cfi_startproc
 130              	.LVL5:
 131              	.LBB19:
  18:src/cpp/tcb.cpp ****     if(body && stack)
 132              		.loc 1 18 83 is_stmt 0
 133 0098 2330B500 		sd	a1,0(a0)
 134 009c 2334C500 		sd	a2,8(a0)
 135 00a0 2338D500 		sd	a3,16(a0)
 136 00a4 233CE500 		sd	a4,24(a0)
 137 00a8 23000502 		sb	zero,32(a0)
 138 00ac A3000502 		sb	zero,33(a0)
 139 00b0 97070000 		lla	a5,_ZN3TCB13threadWrapperEv
 139      93870700 
 140 00b8 2334F502 		sd	a5,40(a0)
  18:src/cpp/tcb.cpp ****     if(body && stack)
 141              		.loc 1 18 41
 142 00bc 63800604 		beq	a3,zero,.L8
  18:src/cpp/tcb.cpp ****     if(body && stack)
 143              		.loc 1 18 52 discriminator 1
 144 00c0 B7870000 		li	a5,32768
 145 00c4 B387F600 		add	a5,a3,a5
 146              	.L6:
  18:src/cpp/tcb.cpp ****     if(body && stack)
 147              		.loc 1 18 83 discriminator 4
 148 00c8 2338F502 		sd	a5,48(a0)
  19:src/cpp/tcb.cpp ****         Scheduler::put(this);
 149              		.loc 1 19 5 is_stmt 1 discriminator 4
 150 00cc 638C0502 		beq	a1,zero,.L10
  19:src/cpp/tcb.cpp ****         Scheduler::put(this);
 151              		.loc 1 19 13 is_stmt 0 discriminator 1
 152 00d0 638A0602 		beq	a3,zero,.L10
 153              	.LBE19:
  16:src/cpp/tcb.cpp **** body(bbody), args(aargs), stack(sstack), timeSlice(ttimeSlice),finished(false), destruct(false),
 154              		.loc 1 16 1
 155 00d4 130101FF 		addi	sp,sp,-16
 156              		.cfi_def_cfa_offset 16
 157 00d8 23341100 		sd	ra,8(sp)
 158 00dc 23308100 		sd	s0,0(sp)
 159              		.cfi_offset 1, -8
 160              		.cfi_offset 8, -16
 161 00e0 13040101 		addi	s0,sp,16
 162              		.cfi_def_cfa 8, 0
 163              	.LBB20:
  20:src/cpp/tcb.cpp **** }   
 164              		.loc 1 20 9 is_stmt 1
  20:src/cpp/tcb.cpp **** }   
 165              		.loc 1 20 23 is_stmt 0
 166 00e4 97000000 		call	_ZN9Scheduler3putEP3TCB
 166      E7800000 
 167              	.LVL6:
GAS LISTING /tmp/ccCFJl3T.s 			page 5


 168              	.LBE20:
  21:src/cpp/tcb.cpp **** 
 169              		.loc 1 21 1
 170 00ec 83308100 		ld	ra,8(sp)
 171              		.cfi_restore 1
 172 00f0 03340100 		ld	s0,0(sp)
 173              		.cfi_restore 8
 174              		.cfi_def_cfa 2, 16
 175 00f4 13010101 		addi	sp,sp,16
 176              		.cfi_def_cfa_offset 0
 177 00f8 67800000 		jr	ra
 178              	.LVL7:
 179              	.L8:
 180              	.LBB21:
  18:src/cpp/tcb.cpp ****     if(body && stack)
 181              		.loc 1 18 41
 182 00fc 93070000 		li	a5,0
 183 0100 6FF09FFC 		j	.L6
 184              	.L10:
 185 0104 67800000 		ret
 186              	.LBE21:
 187              		.cfi_endproc
 188              	.LFE52:
 190              		.globl	_ZN3TCBC1EPFvPvES0_Pmm
 191              		.set	_ZN3TCBC1EPFvPvES0_Pmm,_ZN3TCBC2EPFvPvES0_Pmm
 192              		.align	2
 193              		.globl	_ZN3TCB12createThreadEPFvPvES0_Pm
 195              	_ZN3TCB12createThreadEPFvPvES0_Pm:
 196              	.LFB50:
  12:src/cpp/tcb.cpp ****     return new TCB(body, args, stack);
 197              		.loc 1 12 61 is_stmt 1
 198              		.cfi_startproc
 199              		.cfi_personality 0x9b,DW.ref.__gxx_personality_v0
 200              		.cfi_lsda 0x1b,.LLSDA50
 201              	.LVL8:
 202 0108 130101FD 		addi	sp,sp,-48
 203              		.cfi_def_cfa_offset 48
 204 010c 23341102 		sd	ra,40(sp)
 205 0110 23308102 		sd	s0,32(sp)
 206 0114 233C9100 		sd	s1,24(sp)
 207 0118 23382101 		sd	s2,16(sp)
 208 011c 23343101 		sd	s3,8(sp)
 209 0120 23304101 		sd	s4,0(sp)
 210              		.cfi_offset 1, -8
 211              		.cfi_offset 8, -16
 212              		.cfi_offset 9, -24
 213              		.cfi_offset 18, -32
 214              		.cfi_offset 19, -40
 215              		.cfi_offset 20, -48
 216 0124 13040103 		addi	s0,sp,48
 217              		.cfi_def_cfa 8, 0
 218 0128 13090500 		mv	s2,a0
 219 012c 93890500 		mv	s3,a1
 220 0130 130A0600 		mv	s4,a2
  13:src/cpp/tcb.cpp **** }
 221              		.loc 1 13 5
 222              	.LVL9:
GAS LISTING /tmp/ccCFJl3T.s 			page 6


 223              	.LBB22:
 224              	.LBB23:
 225              		.file 3 "src/cpp/../../h/../h/kernel_operators.hpp"
   1:src/cpp/../../h/../h/kernel_operators.hpp **** void* operator new(size_t sz){return MemoryAllocator::getInstance().mem_alloc((sz-1)/MEM_BLOCK_SIZE
 226              		.loc 3 1 31
 227              	.LEHB0:
 228              		.loc 3 1 67 is_stmt 0
 229 0134 97000000 		call	_ZN15MemoryAllocator11getInstanceEv
 229      E7800000 
 230              	.LVL10:
 231              		.loc 3 1 78
 232 013c 93051000 		li	a1,1
 233 0140 97000000 		call	_ZN15MemoryAllocator9mem_allocEm
 233      E7800000 
 234              	.LVL11:
 235              	.LEHE0:
 236 0148 93040500 		mv	s1,a0
 237              	.LVL12:
 238              	.LBE23:
 239              	.LBE22:
  13:src/cpp/tcb.cpp **** }
 240              		.loc 1 13 37
 241 014c 13072000 		li	a4,2
 242 0150 93060A00 		mv	a3,s4
 243 0154 13860900 		mv	a2,s3
 244 0158 93050900 		mv	a1,s2
 245              	.LEHB1:
 246 015c 97000000 		call	_ZN3TCBC1EPFvPvES0_Pmm
 246      E7800000 
 247              	.LVL13:
 248              	.LEHE1:
 249 0164 6F008002 		j	.L18
 250              	.L15:
 251 0168 13090500 		mv	s2,a0
 252              	.LVL14:
 253              	.LBB24:
 254              	.LBB25:
   2:src/cpp/../../h/../h/kernel_operators.hpp **** void* operator new[](size_t sz){ return MemoryAllocator::getInstance().mem_alloc((sz-1)/MEM_BLOCK_S
   3:src/cpp/../../h/../h/kernel_operators.hpp **** void operator delete(void* ptr){MemoryAllocator::getInstance().mem_free(ptr);}
 255              		.loc 3 3 33 is_stmt 1
 256              		.loc 3 3 62 is_stmt 0
 257 016c 97000000 		call	_ZN15MemoryAllocator11getInstanceEv
 257      E7800000 
 258              	.LVL15:
 259              		.loc 3 3 72
 260 0174 93850400 		mv	a1,s1
 261 0178 97000000 		call	_ZN15MemoryAllocator8mem_freeEPv
 261      E7800000 
 262              	.LVL16:
 263 0180 13050900 		mv	a0,s2
 264              	.LEHB2:
 265 0184 97000000 		call	_Unwind_Resume
 265      E7800000 
 266              	.LVL17:
 267              	.LEHE2:
 268              	.L18:
 269              	.LBE25:
GAS LISTING /tmp/ccCFJl3T.s 			page 7


 270              	.LBE24:
  14:src/cpp/tcb.cpp **** 
 271              		.loc 1 14 1
 272 018c 13850400 		mv	a0,s1
 273 0190 83308102 		ld	ra,40(sp)
 274              		.cfi_restore 1
 275 0194 03340102 		ld	s0,32(sp)
 276              		.cfi_restore 8
 277              		.cfi_def_cfa 2, 48
 278 0198 83348101 		ld	s1,24(sp)
 279              		.cfi_restore 9
 280 019c 03390101 		ld	s2,16(sp)
 281              		.cfi_restore 18
 282              	.LVL18:
 283 01a0 83398100 		ld	s3,8(sp)
 284              		.cfi_restore 19
 285              	.LVL19:
 286 01a4 033A0100 		ld	s4,0(sp)
 287              		.cfi_restore 20
 288              	.LVL20:
 289 01a8 13010103 		addi	sp,sp,48
 290              		.cfi_def_cfa_offset 0
 291 01ac 67800000 		jr	ra
 292              		.cfi_endproc
 293              	.LFE50:
 294              		.globl	__gxx_personality_v0
 295              		.section	.gcc_except_table,"aw",@progbits
 296              	.LLSDA50:
 297 0000 FF       		.byte	0xff
 298 0001 FF       		.byte	0xff
 299 0002 03       		.byte	0x3
 300 0003 27       		.byte	0x27
 301 0004 00000000 		.4byte	.LEHB0-.LFB50
 302 0008 00000000 		.4byte	.LEHE0-.LEHB0
 303 000c 00000000 		.4byte	0
 304 0010 00       		.byte	0
 305 0011 00000000 		.4byte	.LEHB1-.LFB50
 306 0015 00000000 		.4byte	.LEHE1-.LEHB1
 307 0019 00000000 		.4byte	.L15-.LFB50
 308 001d 00       		.byte	0
 309 001e 00000000 		.4byte	.LEHB2-.LFB50
 310 0022 00000000 		.4byte	.LEHE2-.LEHB2
 311 0026 00000000 		.4byte	0
 312 002a 00       		.byte	0
 313              		.text
 315              		.align	2
 316              		.globl	_ZN3TCB8dispatchEv
 318              	_ZN3TCB8dispatchEv:
 319              	.LFB55:
  33:src/cpp/tcb.cpp **** 
  34:src/cpp/tcb.cpp **** void TCB::dispatch(){
 320              		.loc 1 34 21 is_stmt 1
 321              		.cfi_startproc
 322 01b0 130101FE 		addi	sp,sp,-32
 323              		.cfi_def_cfa_offset 32
 324 01b4 233C1100 		sd	ra,24(sp)
 325 01b8 23388100 		sd	s0,16(sp)
GAS LISTING /tmp/ccCFJl3T.s 			page 8


 326 01bc 23349100 		sd	s1,8(sp)
 327              		.cfi_offset 1, -8
 328              		.cfi_offset 8, -16
 329              		.cfi_offset 9, -24
 330 01c0 13040102 		addi	s0,sp,32
 331              		.cfi_def_cfa 8, 0
  35:src/cpp/tcb.cpp ****     //Scheduler::print_queue();
  36:src/cpp/tcb.cpp ****     TCB* oldRunning = running;
 332              		.loc 1 36 5
 333              		.loc 1 36 10 is_stmt 0
 334 01c4 97070000 		lla	a5,_ZN3TCB7runningE
 334      93870700 
 335 01cc 83B40700 		ld	s1,0(a5)
 336              	.LVL21:
  37:src/cpp/tcb.cpp ****     if(!oldRunning->isFinished())
 337              		.loc 1 37 5 is_stmt 1
 338              	.LBB26:
 339              	.LBB27:
  17:src/cpp/../../h/tcb.hpp ****     void setFinished() {finished = true;}
 340              		.loc 2 17 31
  17:src/cpp/../../h/tcb.hpp ****     void setFinished() {finished = true;}
 341              		.loc 2 17 38 is_stmt 0
 342 01d0 83C70402 		lbu	a5,32(s1)
 343              	.LVL22:
 344              	.LBE27:
 345              	.LBE26:
 346              		.loc 1 37 5
 347 01d4 638C0702 		beq	a5,zero,.L22
 348              	.L20:
  38:src/cpp/tcb.cpp ****         Scheduler::put(oldRunning);
  39:src/cpp/tcb.cpp ****     running = Scheduler::get(); 
 349              		.loc 1 39 5 is_stmt 1
 350              		.loc 1 39 29 is_stmt 0
 351 01d8 97000000 		call	_ZN9Scheduler3getEv
 351      E7800000 
 352              	.LVL23:
 353              		.loc 1 39 13
 354 01e0 97070000 		sd	a0,_ZN3TCB7runningE,a5
 354      23B0A700 
  40:src/cpp/tcb.cpp ****     contextSwitch(&oldRunning->context, &running->context); 
 355              		.loc 1 40 5 is_stmt 1
 356              		.loc 1 40 18 is_stmt 0
 357 01e8 93058502 		addi	a1,a0,40
 358 01ec 13858402 		addi	a0,s1,40
 359 01f0 97000000 		call	_ZN3TCB13contextSwitchEPNS_7ContextES1_
 359      E7800000 
 360              	.LVL24:
  41:src/cpp/tcb.cpp **** }
 361              		.loc 1 41 1
 362 01f8 83308101 		ld	ra,24(sp)
 363              		.cfi_remember_state
 364              		.cfi_restore 1
 365 01fc 03340101 		ld	s0,16(sp)
 366              		.cfi_restore 8
 367              		.cfi_def_cfa 2, 32
 368 0200 83348100 		ld	s1,8(sp)
 369              		.cfi_restore 9
GAS LISTING /tmp/ccCFJl3T.s 			page 9


 370              	.LVL25:
 371 0204 13010102 		addi	sp,sp,32
 372              		.cfi_def_cfa_offset 0
 373 0208 67800000 		jr	ra
 374              	.LVL26:
 375              	.L22:
 376              		.cfi_restore_state
  38:src/cpp/tcb.cpp ****         Scheduler::put(oldRunning);
 377              		.loc 1 38 9 is_stmt 1
  38:src/cpp/tcb.cpp ****         Scheduler::put(oldRunning);
 378              		.loc 1 38 23 is_stmt 0
 379 020c 13850400 		mv	a0,s1
 380 0210 97000000 		call	_ZN9Scheduler3putEP3TCB
 380      E7800000 
 381              	.LVL27:
 382 0218 6FF01FFC 		j	.L20
 383              		.cfi_endproc
 384              	.LFE55:
 386              		.align	2
 387              		.globl	_ZN3TCB12deleteThreadEPS_
 389              	_ZN3TCB12deleteThreadEPS_:
 390              	.LFB56:
  42:src/cpp/tcb.cpp **** 
  43:src/cpp/tcb.cpp **** void TCB::deleteThread(TCB* t){
 391              		.loc 1 43 31 is_stmt 1
 392              		.cfi_startproc
 393              		.cfi_personality 0x9b,DW.ref.__gxx_personality_v0
 394              		.cfi_lsda 0x1b,.LLSDA56
 395              	.LVL28:
  44:src/cpp/tcb.cpp ****     if(t){
 396              		.loc 1 44 5
 397 021c 630C0506 		beq	a0,zero,.L26
  45:src/cpp/tcb.cpp ****         t->destruct = true;
 398              		.loc 1 45 9
 399              		.loc 1 45 21 is_stmt 0
 400 0220 93071000 		li	a5,1
 401 0224 A300F502 		sb	a5,33(a0)
  46:src/cpp/tcb.cpp ****         if(t->isFinished() && TCB::running != t){
 402              		.loc 1 46 9 is_stmt 1
 403              	.LVL29:
 404              	.LBB28:
 405              	.LBB29:
  17:src/cpp/../../h/tcb.hpp ****     void setFinished() {finished = true;}
 406              		.loc 2 17 31
  17:src/cpp/../../h/tcb.hpp ****     void setFinished() {finished = true;}
 407              		.loc 2 17 38 is_stmt 0
 408 0228 83470502 		lbu	a5,32(a0)
 409              	.LVL30:
 410              	.LBE29:
 411              	.LBE28:
 412              		.loc 1 46 28
 413 022c 63840706 		beq	a5,zero,.L26
 414              		.loc 1 46 44 discriminator 1
 415 0230 97070000 		lla	a5,_ZN3TCB7runningE
 415      93870700 
 416 0238 83B70700 		ld	a5,0(a5)
 417              		.loc 1 46 28 discriminator 1
GAS LISTING /tmp/ccCFJl3T.s 			page 10


 418 023c 638CA704 		beq	a5,a0,.L26
  43:src/cpp/tcb.cpp ****     if(t){
 419              		.loc 1 43 31
 420 0240 130101FE 		addi	sp,sp,-32
 421              		.cfi_def_cfa_offset 32
 422 0244 233C1100 		sd	ra,24(sp)
 423 0248 23388100 		sd	s0,16(sp)
 424 024c 23349100 		sd	s1,8(sp)
 425              		.cfi_offset 1, -8
 426              		.cfi_offset 8, -16
 427              		.cfi_offset 9, -24
 428 0250 13040102 		addi	s0,sp,32
 429              		.cfi_def_cfa 8, 0
 430 0254 93040500 		mv	s1,a0
  47:src/cpp/tcb.cpp ****             delete t;
 431              		.loc 1 47 13 is_stmt 1
 432              	.LVL31:
 433              	.LBB30:
 434              	.LBB31:
  14:src/cpp/../../h/tcb.hpp ****     
 435              		.loc 2 14 14
  14:src/cpp/../../h/tcb.hpp ****     
 436              		.loc 2 14 43 is_stmt 0
 437 0258 97000000 		call	_ZN15MemoryAllocator11getInstanceEv
 437      E7800000 
 438              	.LVL32:
  14:src/cpp/../../h/tcb.hpp ****     
 439              		.loc 2 14 53
 440 0260 83B50401 		ld	a1,16(s1)
 441 0264 97000000 		call	_ZN15MemoryAllocator8mem_freeEPv
 441      E7800000 
 442              	.LVL33:
 443              	.LBE31:
 444              	.LBE30:
 445              	.LBB32:
 446              	.LBB33:
 447              		.loc 3 3 33 is_stmt 1
 448              	.LEHB3:
 449              		.loc 3 3 62 is_stmt 0
 450 026c 97000000 		call	_ZN15MemoryAllocator11getInstanceEv
 450      E7800000 
 451              	.LVL34:
 452              		.loc 3 3 72
 453 0274 93850400 		mv	a1,s1
 454 0278 97000000 		call	_ZN15MemoryAllocator8mem_freeEPv
 454      E7800000 
 455              	.LVL35:
 456              	.LEHE3:
 457              	.LBE33:
 458              	.LBE32:
  48:src/cpp/tcb.cpp ****         }
  49:src/cpp/tcb.cpp ****     }
  50:src/cpp/tcb.cpp **** }...
 459              		.loc 1 50 1
 460 0280 83308101 		ld	ra,24(sp)
 461              		.cfi_restore 1
 462 0284 03340101 		ld	s0,16(sp)
GAS LISTING /tmp/ccCFJl3T.s 			page 11


 463              		.cfi_restore 8
 464              		.cfi_def_cfa 2, 32
 465 0288 83348100 		ld	s1,8(sp)
 466              		.cfi_restore 9
 467              	.LVL36:
 468 028c 13010102 		addi	sp,sp,32
 469              		.cfi_def_cfa_offset 0
 470 0290 67800000 		jr	ra
 471              	.LVL37:
 472              	.L26:
 473 0294 67800000 		ret
 474              		.cfi_endproc
 475              	.LFE56:
 476              		.section	.gcc_except_table
 477              	.LLSDA56:
 478 002b FF       		.byte	0xff
 479 002c FF       		.byte	0xff
 480 002d 03       		.byte	0x3
 481 002e 0D       		.byte	0xd
 482 002f 00000000 		.4byte	.LEHB3-.LFB56
 483 0033 00000000 		.4byte	.LEHE3-.LEHB3
 484 0037 00000000 		.4byte	0
 485 003b 00       		.byte	0
 486              		.text
 488              		.globl	_ZN3TCB16timeSliceCounterE
 489              		.globl	_ZN3TCB7runningE
 490              		.section	.rodata.str1.8,"aMS",@progbits,1
 491              		.align	3
 492              	.LC0:
 493 0000 73746172 		.string	"start of thread"
 493      74206F66 
 493      20746872 
 493      65616400 
 494              		.section	.sbss,"aw",@nobits
 495              		.align	3
 498              	_ZN3TCB16timeSliceCounterE:
 499 0000 00000000 		.zero	8
 499      00000000 
 502              	_ZN3TCB7runningE:
 503 0008 00000000 		.zero	8
 503      00000000 
 504              		.text
 505              	.Letext0:
 506              		.file 4 "src/cpp/../../h/../h/../lib/hw.h"
 507              		.file 5 "src/cpp/../../h/../h/memory_allocator.hpp"
 508              		.file 6 "src/cpp/../../h/../h/../h/riscv.hpp"
 509              		.file 7 "src/cpp/../../h/scheduler.hpp"
 510              		.file 8 "src/cpp/../../h/../h/testing.hpp"
 3564              		.align	3
 3567              	DW.ref.__gxx_personality_v0:
 3568 0000 00000000 		.dword	__gxx_personality_v0
 3568      00000000 
 3569              		.ident	"GCC: () 8.3.0"
GAS LISTING /tmp/ccCFJl3T.s 			page 12


DEFINED SYMBOLS
                            *ABS*:0000000000000000 tcb.cpp
     /tmp/ccCFJl3T.s:12     .text:0000000000000000 _ZN5Riscv10popSppSpieEv
     /tmp/ccCFJl3T.s:16     .text:0000000000000000 .L0 
     /tmp/ccCFJl3T.s:17     .text:0000000000000000 .L0 
     /tmp/ccCFJl3T.s:18     .text:0000000000000004 .L0 
     /tmp/ccCFJl3T.s:20     .text:0000000000000008 .L0 
     /tmp/ccCFJl3T.s:22     .text:000000000000000c .L0 
     /tmp/ccCFJl3T.s:24     .text:000000000000000c .L0 
     src/cpp/tcb.cpp:8      .text:000000000000000c .L0 
     /tmp/ccCFJl3T.s:30     .text:0000000000000010 .L0 
     src/cpp/tcb.cpp:9      .text:0000000000000010 .L0 
     /tmp/ccCFJl3T.s:36     .text:0000000000000014 .L0 
     /tmp/ccCFJl3T.s:37     .text:0000000000000018 .L0 
     /tmp/ccCFJl3T.s:38     .text:0000000000000018 .L0 
     /tmp/ccCFJl3T.s:40     .text:000000000000001c .L0 
     /tmp/ccCFJl3T.s:42     .text:0000000000000020 .L0 
     /tmp/ccCFJl3T.s:48     .text:0000000000000020 _ZN3TCB13threadWrapperEv
     /tmp/ccCFJl3T.s:51     .text:0000000000000020 .L0 
     /tmp/ccCFJl3T.s:52     .text:0000000000000020 .L0 
     /tmp/ccCFJl3T.s:53     .text:0000000000000024 .L0 
     /tmp/ccCFJl3T.s:57     .text:0000000000000030 .L0 
     /tmp/ccCFJl3T.s:58     .text:0000000000000030 .L0 
     /tmp/ccCFJl3T.s:59     .text:0000000000000030 .L0 
     /tmp/ccCFJl3T.s:61     .text:0000000000000034 .L0 
     /tmp/ccCFJl3T.s:63     .text:0000000000000034 .L0 
     /tmp/ccCFJl3T.s:502    .sbss:0000000000000008 _ZN3TCB7runningE
     /tmp/ccCFJl3T.s:64     .text:0000000000000034 .L0 
     /tmp/ccCFJl3T.s:71     .text:0000000000000054 .L0 
     /tmp/ccCFJl3T.s:72     .text:0000000000000054 .L0 
     /tmp/ccCFJl3T.s:75     .text:000000000000005c .L0 
     /tmp/ccCFJl3T.s:76     .text:000000000000005c .L0 
     /tmp/ccCFJl3T.s:79     .text:0000000000000064 .L0 
     /tmp/ccCFJl3T.s:83     .text:000000000000006c .L0 
     /tmp/ccCFJl3T.s:84     .text:000000000000006c .L0 
     /tmp/ccCFJl3T.s:90     .text:0000000000000070 .L0 
     /tmp/ccCFJl3T.s:91     .text:0000000000000070 .L0 
     /tmp/ccCFJl3T.s:97     .text:0000000000000078 .L0 
     /tmp/ccCFJl3T.s:98     .text:0000000000000078 .L0 
     /tmp/ccCFJl3T.s:104    .text:0000000000000080 .L0 
     src/cpp/tcb.cpp:31     .text:0000000000000080 .L0 
     /tmp/ccCFJl3T.s:110    .text:0000000000000084 .L0 
     /tmp/ccCFJl3T.s:111    .text:0000000000000088 .L0 
     /tmp/ccCFJl3T.s:113    .text:000000000000008c .L0 
     /tmp/ccCFJl3T.s:114    .text:000000000000008c .L0 
     /tmp/ccCFJl3T.s:116    .text:0000000000000090 .L0 
     /tmp/ccCFJl3T.s:118    .text:0000000000000094 .L0 
     /tmp/ccCFJl3T.s:120    .text:0000000000000098 .L0 
     /tmp/ccCFJl3T.s:126    .text:0000000000000098 _ZN3TCBC2EPFvPvES0_Pmm
     /tmp/ccCFJl3T.s:129    .text:0000000000000098 .L0 
     /tmp/ccCFJl3T.s:132    .text:0000000000000098 .L0 
     /tmp/ccCFJl3T.s:133    .text:0000000000000098 .L0 
     /tmp/ccCFJl3T.s:142    .text:00000000000000bc .L0 
     /tmp/ccCFJl3T.s:144    .text:00000000000000c0 .L0 
     /tmp/ccCFJl3T.s:148    .text:00000000000000c8 .L0 
     /tmp/ccCFJl3T.s:150    .text:00000000000000cc .L0 
     /tmp/ccCFJl3T.s:152    .text:00000000000000d0 .L0 
GAS LISTING /tmp/ccCFJl3T.s 			page 13


     /tmp/ccCFJl3T.s:155    .text:00000000000000d4 .L0 
     /tmp/ccCFJl3T.s:156    .text:00000000000000d8 .L0 
     /tmp/ccCFJl3T.s:159    .text:00000000000000e0 .L0 
     /tmp/ccCFJl3T.s:160    .text:00000000000000e0 .L0 
     /tmp/ccCFJl3T.s:162    .text:00000000000000e4 .L0 
     /tmp/ccCFJl3T.s:165    .text:00000000000000e4 .L0 
     /tmp/ccCFJl3T.s:166    .text:00000000000000e4 .L0 
     /tmp/ccCFJl3T.s:170    .text:00000000000000ec .L0 
     /tmp/ccCFJl3T.s:171    .text:00000000000000f0 .L0 
     /tmp/ccCFJl3T.s:173    .text:00000000000000f4 .L0 
     /tmp/ccCFJl3T.s:174    .text:00000000000000f4 .L0 
     /tmp/ccCFJl3T.s:176    .text:00000000000000f8 .L0 
     /tmp/ccCFJl3T.s:182    .text:00000000000000fc .L0 
     /tmp/ccCFJl3T.s:187    .text:0000000000000108 .L0 
     /tmp/ccCFJl3T.s:126    .text:0000000000000098 _ZN3TCBC1EPFvPvES0_Pmm
     /tmp/ccCFJl3T.s:195    .text:0000000000000108 _ZN3TCB12createThreadEPFvPvES0_Pm
     /tmp/ccCFJl3T.s:198    .text:0000000000000108 .L0 
     /tmp/ccCFJl3T.s:3567   .sdata.DW.ref.__gxx_personality_v0:0000000000000000 DW.ref.__gxx_personality_v0
     /tmp/ccCFJl3T.s:202    .text:0000000000000108 .L0 
     /tmp/ccCFJl3T.s:203    .text:000000000000010c .L0 
     /tmp/ccCFJl3T.s:210    .text:0000000000000124 .L0 
     /tmp/ccCFJl3T.s:211    .text:0000000000000124 .L0 
     /tmp/ccCFJl3T.s:212    .text:0000000000000124 .L0 
     /tmp/ccCFJl3T.s:213    .text:0000000000000124 .L0 
     /tmp/ccCFJl3T.s:214    .text:0000000000000124 .L0 
     /tmp/ccCFJl3T.s:215    .text:0000000000000124 .L0 
     /tmp/ccCFJl3T.s:217    .text:0000000000000128 .L0 
     /tmp/ccCFJl3T.s:226    .text:0000000000000134 .L0 
     /tmp/ccCFJl3T.s:228    .text:0000000000000134 .L0 
     /tmp/ccCFJl3T.s:229    .text:0000000000000134 .L0 
     /tmp/ccCFJl3T.s:232    .text:000000000000013c .L0 
     /tmp/ccCFJl3T.s:241    .text:000000000000014c .L0 
     /tmp/ccCFJl3T.s:256    .text:000000000000016c .L0 
     /tmp/ccCFJl3T.s:257    .text:000000000000016c .L0 
     /tmp/ccCFJl3T.s:260    .text:0000000000000174 .L0 
     /tmp/ccCFJl3T.s:272    .text:000000000000018c .L0 
     /tmp/ccCFJl3T.s:274    .text:0000000000000194 .L0 
     /tmp/ccCFJl3T.s:276    .text:0000000000000198 .L0 
     /tmp/ccCFJl3T.s:277    .text:0000000000000198 .L0 
     /tmp/ccCFJl3T.s:279    .text:000000000000019c .L0 
     /tmp/ccCFJl3T.s:281    .text:00000000000001a0 .L0 
     /tmp/ccCFJl3T.s:284    .text:00000000000001a4 .L0 
     /tmp/ccCFJl3T.s:287    .text:00000000000001a8 .L0 
     /tmp/ccCFJl3T.s:290    .text:00000000000001ac .L0 
     /tmp/ccCFJl3T.s:292    .text:00000000000001b0 .L0 
     /tmp/ccCFJl3T.s:318    .text:00000000000001b0 _ZN3TCB8dispatchEv
     /tmp/ccCFJl3T.s:321    .text:00000000000001b0 .L0 
     /tmp/ccCFJl3T.s:322    .text:00000000000001b0 .L0 
     /tmp/ccCFJl3T.s:323    .text:00000000000001b4 .L0 
     /tmp/ccCFJl3T.s:327    .text:00000000000001c0 .L0 
     /tmp/ccCFJl3T.s:328    .text:00000000000001c0 .L0 
     /tmp/ccCFJl3T.s:329    .text:00000000000001c0 .L0 
     /tmp/ccCFJl3T.s:331    .text:00000000000001c4 .L0 
     /tmp/ccCFJl3T.s:333    .text:00000000000001c4 .L0 
     /tmp/ccCFJl3T.s:334    .text:00000000000001c4 .L0 
     /tmp/ccCFJl3T.s:340    .text:00000000000001d0 .L0 
     /tmp/ccCFJl3T.s:341    .text:00000000000001d0 .L0 
GAS LISTING /tmp/ccCFJl3T.s 			page 14


     /tmp/ccCFJl3T.s:342    .text:00000000000001d0 .L0 
     /tmp/ccCFJl3T.s:347    .text:00000000000001d4 .L0 
     /tmp/ccCFJl3T.s:350    .text:00000000000001d8 .L0 
     /tmp/ccCFJl3T.s:351    .text:00000000000001d8 .L0 
     /tmp/ccCFJl3T.s:354    .text:00000000000001e0 .L0 
     /tmp/ccCFJl3T.s:356    .text:00000000000001e8 .L0 
     /tmp/ccCFJl3T.s:357    .text:00000000000001e8 .L0 
     /tmp/ccCFJl3T.s:362    .text:00000000000001f8 .L0 
     /tmp/ccCFJl3T.s:363    .text:00000000000001fc .L0 
     /tmp/ccCFJl3T.s:364    .text:00000000000001fc .L0 
     /tmp/ccCFJl3T.s:366    .text:0000000000000200 .L0 
     /tmp/ccCFJl3T.s:367    .text:0000000000000200 .L0 
     /tmp/ccCFJl3T.s:369    .text:0000000000000204 .L0 
     /tmp/ccCFJl3T.s:372    .text:0000000000000208 .L0 
     /tmp/ccCFJl3T.s:376    .text:000000000000020c .L0 
     /tmp/ccCFJl3T.s:378    .text:000000000000020c .L0 
     /tmp/ccCFJl3T.s:379    .text:000000000000020c .L0 
     /tmp/ccCFJl3T.s:383    .text:000000000000021c .L0 
     /tmp/ccCFJl3T.s:389    .text:000000000000021c _ZN3TCB12deleteThreadEPS_
     /tmp/ccCFJl3T.s:392    .text:000000000000021c .L0 
     /tmp/ccCFJl3T.s:396    .text:000000000000021c .L0 
     /tmp/ccCFJl3T.s:397    .text:000000000000021c .L0 
     /tmp/ccCFJl3T.s:399    .text:0000000000000220 .L0 
     /tmp/ccCFJl3T.s:400    .text:0000000000000220 .L0 
     /tmp/ccCFJl3T.s:406    .text:0000000000000228 .L0 
     /tmp/ccCFJl3T.s:407    .text:0000000000000228 .L0 
     /tmp/ccCFJl3T.s:408    .text:0000000000000228 .L0 
     /tmp/ccCFJl3T.s:413    .text:000000000000022c .L0 
     /tmp/ccCFJl3T.s:415    .text:0000000000000230 .L0 
     /tmp/ccCFJl3T.s:418    .text:000000000000023c .L0 
     /tmp/ccCFJl3T.s:420    .text:0000000000000240 .L0 
     /tmp/ccCFJl3T.s:421    .text:0000000000000244 .L0 
     /tmp/ccCFJl3T.s:425    .text:0000000000000250 .L0 
     /tmp/ccCFJl3T.s:426    .text:0000000000000250 .L0 
     /tmp/ccCFJl3T.s:427    .text:0000000000000250 .L0 
     /tmp/ccCFJl3T.s:429    .text:0000000000000254 .L0 
     /tmp/ccCFJl3T.s:435    .text:0000000000000258 .L0 
     /tmp/ccCFJl3T.s:436    .text:0000000000000258 .L0 
     /tmp/ccCFJl3T.s:437    .text:0000000000000258 .L0 
     /tmp/ccCFJl3T.s:440    .text:0000000000000260 .L0 
     /tmp/ccCFJl3T.s:449    .text:000000000000026c .L0 
     /tmp/ccCFJl3T.s:450    .text:000000000000026c .L0 
     /tmp/ccCFJl3T.s:453    .text:0000000000000274 .L0 
     /tmp/ccCFJl3T.s:460    .text:0000000000000280 .L0 
     /tmp/ccCFJl3T.s:461    .text:0000000000000284 .L0 
     /tmp/ccCFJl3T.s:463    .text:0000000000000288 .L0 
     /tmp/ccCFJl3T.s:464    .text:0000000000000288 .L0 
     /tmp/ccCFJl3T.s:466    .text:000000000000028c .L0 
     /tmp/ccCFJl3T.s:469    .text:0000000000000290 .L0 
     /tmp/ccCFJl3T.s:474    .text:0000000000000298 .L0 
     /tmp/ccCFJl3T.s:498    .sbss:0000000000000000 _ZN3TCB16timeSliceCounterE
     /tmp/ccCFJl3T.s:511    .text:0000000000000298 .L0 
     /tmp/ccCFJl3T.s:64     .text:0000000000000034 .L0 
     /tmp/ccCFJl3T.s:492    .rodata.str1.8:0000000000000000 .LC0
     /tmp/ccCFJl3T.s:67     .text:0000000000000044 .L0 
     /tmp/ccCFJl3T.s:139    .text:00000000000000b0 .L0 
     /tmp/ccCFJl3T.s:334    .text:00000000000001c4 .L0 
GAS LISTING /tmp/ccCFJl3T.s 			page 15


     /tmp/ccCFJl3T.s:354    .text:00000000000001e0 .L0 
     /tmp/ccCFJl3T.s:415    .text:0000000000000230 .L0 
     /tmp/ccCFJl3T.s:179    .text:00000000000000fc .L8
     /tmp/ccCFJl3T.s:184    .text:0000000000000104 .L10
     /tmp/ccCFJl3T.s:146    .text:00000000000000c8 .L6
     /tmp/ccCFJl3T.s:268    .text:000000000000018c .L18
     /tmp/ccCFJl3T.s:375    .text:000000000000020c .L22
     /tmp/ccCFJl3T.s:348    .text:00000000000001d8 .L20
     /tmp/ccCFJl3T.s:472    .text:0000000000000294 .L26
     /tmp/ccCFJl3T.s:227    .text:0000000000000134 .LEHB0
     /tmp/ccCFJl3T.s:196    .text:0000000000000108 .LFB50
     /tmp/ccCFJl3T.s:235    .text:0000000000000148 .LEHE0
     /tmp/ccCFJl3T.s:245    .text:000000000000015c .LEHB1
     /tmp/ccCFJl3T.s:248    .text:0000000000000164 .LEHE1
     /tmp/ccCFJl3T.s:250    .text:0000000000000168 .L15
     /tmp/ccCFJl3T.s:264    .text:0000000000000184 .LEHB2
     /tmp/ccCFJl3T.s:267    .text:000000000000018c .LEHE2
     /tmp/ccCFJl3T.s:448    .text:000000000000026c .LEHB3
     /tmp/ccCFJl3T.s:390    .text:000000000000021c .LFB56
     /tmp/ccCFJl3T.s:456    .text:0000000000000280 .LEHE3
     /tmp/ccCFJl3T.s:1875   .debug_abbrev:0000000000000000 .Ldebug_abbrev0
     /tmp/ccCFJl3T.s:3267   .debug_str:0000000000000092 .LASF137
     /tmp/ccCFJl3T.s:3273   .debug_str:000000000000013f .LASF138
     /tmp/ccCFJl3T.s:3287   .debug_str:00000000000001eb .LASF139
     /tmp/ccCFJl3T.s:8      .text:0000000000000000 .Ltext0
     /tmp/ccCFJl3T.s:505    .text:0000000000000298 .Letext0
     /tmp/ccCFJl3T.s:3245   .debug_line:0000000000000000 .Ldebug_line0
     /tmp/ccCFJl3T.s:3425   .debug_str:0000000000000640 .LASF0
     /tmp/ccCFJl3T.s:3441   .debug_str:0000000000000686 .LASF1
     /tmp/ccCFJl3T.s:3405   .debug_str:00000000000005ce .LASF2
     /tmp/ccCFJl3T.s:3371   .debug_str:00000000000004dd .LASF4
     /tmp/ccCFJl3T.s:3487   .debug_str:00000000000007c0 .LASF3
     /tmp/ccCFJl3T.s:3283   .debug_str:00000000000001cc .LASF5
     /tmp/ccCFJl3T.s:3447   .debug_str:00000000000006b6 .LASF6
     /tmp/ccCFJl3T.s:3423   .debug_str:000000000000062d .LASF7
     /tmp/ccCFJl3T.s:3527   .debug_str:0000000000000900 .LASF8
     /tmp/ccCFJl3T.s:3353   .debug_str:0000000000000433 .LASF9
     /tmp/ccCFJl3T.s:3461   .debug_str:000000000000070b .LASF10
     /tmp/ccCFJl3T.s:3515   .debug_str:000000000000088c .LASF11
     /tmp/ccCFJl3T.s:3289   .debug_str:0000000000000227 .LASF12
     /tmp/ccCFJl3T.s:3253   .debug_str:0000000000000027 .LASF13
     /tmp/ccCFJl3T.s:3303   .debug_str:0000000000000294 .LASF14
     /tmp/ccCFJl3T.s:3481   .debug_str:0000000000000788 .LASF15
     /tmp/ccCFJl3T.s:3315   .debug_str:00000000000002e9 .LASF16
     /tmp/ccCFJl3T.s:3361   .debug_str:000000000000047c .LASF140
     /tmp/ccCFJl3T.s:3555   .debug_str:00000000000009dc .LASF17
     /tmp/ccCFJl3T.s:3503   .debug_str:0000000000000852 .LASF18
     /tmp/ccCFJl3T.s:3401   .debug_str:00000000000005b9 .LASF21
     /tmp/ccCFJl3T.s:3451   .debug_str:00000000000006d4 .LASF19
     /tmp/ccCFJl3T.s:3459   .debug_str:0000000000000701 .LASF20
     /tmp/ccCFJl3T.s:3483   .debug_str:000000000000079e .LASF118
     /tmp/ccCFJl3T.s:3323   .debug_str:000000000000033f .LASF23
     /tmp/ccCFJl3T.s:3551   .debug_str:00000000000009be .LASF22
     /tmp/ccCFJl3T.s:3347   .debug_str:00000000000003d6 .LASF24
     /tmp/ccCFJl3T.s:3251   .debug_str:0000000000000019 .LASF25
     /tmp/ccCFJl3T.s:3275   .debug_str:000000000000014f .LASF26
     /tmp/ccCFJl3T.s:3525   .debug_str:00000000000008e4 .LASF28
GAS LISTING /tmp/ccCFJl3T.s 			page 16


     /tmp/ccCFJl3T.s:3413   .debug_str:00000000000005f4 .LASF141
     /tmp/ccCFJl3T.s:3379   .debug_str:000000000000050c .LASF142
     /tmp/ccCFJl3T.s:3513   .debug_str:0000000000000880 .LASF67
     /tmp/ccCFJl3T.s:3281   .debug_str:00000000000001a8 .LASF69
     /tmp/ccCFJl3T.s:3491   .debug_str:00000000000007e3 .LASF27
     /tmp/ccCFJl3T.s:3499   .debug_str:0000000000000826 .LASF29
     /tmp/ccCFJl3T.s:3465   .debug_str:0000000000000724 .LASF30
     /tmp/ccCFJl3T.s:3351   .debug_str:0000000000000412 .LASF31
     /tmp/ccCFJl3T.s:3279   .debug_str:000000000000019d .LASF37
     /tmp/ccCFJl3T.s:3319   .debug_str:0000000000000313 .LASF39
     /tmp/ccCFJl3T.s:3341   .debug_str:00000000000003b6 .LASF32
     /tmp/ccCFJl3T.s:3263   .debug_str:0000000000000080 .LASF143
     /tmp/ccCFJl3T.s:3535   .debug_str:000000000000093c .LASF33
     /tmp/ccCFJl3T.s:3373   .debug_str:00000000000004e4 .LASF34
     /tmp/ccCFJl3T.s:3349   .debug_str:0000000000000402 .LASF35
     /tmp/ccCFJl3T.s:3355   .debug_str:0000000000000441 .LASF36
     /tmp/ccCFJl3T.s:3495   .debug_str:0000000000000801 .LASF38
     /tmp/ccCFJl3T.s:3477   .debug_str:0000000000000774 .LASF40
     /tmp/ccCFJl3T.s:3375   .debug_str:00000000000004f0 .LASF41
     /tmp/ccCFJl3T.s:3511   .debug_str:0000000000000873 .LASF42
     /tmp/ccCFJl3T.s:3327   .debug_str:000000000000036c .LASF43
     /tmp/ccCFJl3T.s:3471   .debug_str:0000000000000759 .LASF44
     /tmp/ccCFJl3T.s:3449   .debug_str:00000000000006c9 .LASF45
     /tmp/ccCFJl3T.s:3307   .debug_str:00000000000002ad .LASF46
     /tmp/ccCFJl3T.s:3407   .debug_str:00000000000005dc .LASF47
     /tmp/ccCFJl3T.s:3391   .debug_str:000000000000055c .LASF48
     /tmp/ccCFJl3T.s:3397   .debug_str:000000000000058f .LASF49
     /tmp/ccCFJl3T.s:3297   .debug_str:000000000000025a .LASF50
     /tmp/ccCFJl3T.s:3385   .debug_str:000000000000053b .LASF51
     /tmp/ccCFJl3T.s:3543   .debug_str:000000000000096d .LASF52
     /tmp/ccCFJl3T.s:3475   .debug_str:000000000000076f .LASF144
     /tmp/ccCFJl3T.s:3429   .debug_str:0000000000000654 .LASF75
     /tmp/ccCFJl3T.s:3339   .debug_str:00000000000003a3 .LASF77
     /tmp/ccCFJl3T.s:3305   .debug_str:00000000000002a0 .LASF53
     /tmp/ccCFJl3T.s:3259   .debug_str:0000000000000055 .LASF54
     /tmp/ccCFJl3T.s:3333   .debug_str:000000000000037f .LASF55
     /tmp/ccCFJl3T.s:3489   .debug_str:00000000000007d2 .LASF56
     /tmp/ccCFJl3T.s:3331   .debug_str:000000000000037a .LASF57
     /tmp/ccCFJl3T.s:3433   .debug_str:0000000000000663 .LASF58
     /tmp/ccCFJl3T.s:3431   .debug_str:000000000000065d .LASF59
     /tmp/ccCFJl3T.s:3435   .debug_str:0000000000000668 .LASF60
     /tmp/ccCFJl3T.s:3377   .debug_str:0000000000000503 .LASF61
     /tmp/ccCFJl3T.s:3291   .debug_str:0000000000000237 .LASF62
     /tmp/ccCFJl3T.s:3383   .debug_str:0000000000000533 .LASF63
     /tmp/ccCFJl3T.s:3453   .debug_str:00000000000006d9 .LASF122
     /tmp/ccCFJl3T.s:3387   .debug_str:0000000000000548 .LASF145
     /tmp/ccCFJl3T.s:3359   .debug_str:0000000000000463 .LASF146
     /tmp/ccCFJl3T.s:3531   .debug_str:0000000000000917 .LASF147
     /tmp/ccCFJl3T.s:3369   .debug_str:00000000000004b5 .LASF148
     /tmp/ccCFJl3T.s:3439   .debug_str:0000000000000680 .LASF64
     /tmp/ccCFJl3T.s:3329   .debug_str:0000000000000371 .LASF65
     /tmp/ccCFJl3T.s:3257   .debug_str:0000000000000040 .LASF66
     /tmp/ccCFJl3T.s:3255   .debug_str:0000000000000037 .LASF68
     /tmp/ccCFJl3T.s:3497   .debug_str:0000000000000811 .LASF70
     /tmp/ccCFJl3T.s:3479   .debug_str:0000000000000781 .LASF71
     /tmp/ccCFJl3T.s:3523   .debug_str:00000000000008d1 .LASF72
     /tmp/ccCFJl3T.s:3411   .debug_str:00000000000005ed .LASF73
GAS LISTING /tmp/ccCFJl3T.s 			page 17


     /tmp/ccCFJl3T.s:3467   .debug_str:000000000000072d .LASF74
     /tmp/ccCFJl3T.s:3311   .debug_str:00000000000002dc .LASF76
     /tmp/ccCFJl3T.s:3421   .debug_str:0000000000000619 .LASF78
     /tmp/ccCFJl3T.s:3249   .debug_str:0000000000000011 .LASF79
     /tmp/ccCFJl3T.s:3493   .debug_str:00000000000007ed .LASF80
     /tmp/ccCFJl3T.s:3345   .debug_str:00000000000003ce .LASF81
     /tmp/ccCFJl3T.s:3317   .debug_str:00000000000002ff .LASF82
     /tmp/ccCFJl3T.s:3363   .debug_str:0000000000000488 .LASF83
     /tmp/ccCFJl3T.s:3337   .debug_str:000000000000038f .LASF84
     /tmp/ccCFJl3T.s:3335   .debug_str:0000000000000387 .LASF85
     /tmp/ccCFJl3T.s:3293   .debug_str:0000000000000240 .LASF86
     /tmp/ccCFJl3T.s:3427   .debug_str:000000000000064d .LASF87
     /tmp/ccCFJl3T.s:3541   .debug_str:000000000000095a .LASF88
     /tmp/ccCFJl3T.s:3455   .debug_str:00000000000006f0 .LASF89
     /tmp/ccCFJl3T.s:3343   .debug_str:00000000000003bb .LASF90
     /tmp/ccCFJl3T.s:3271   .debug_str:0000000000000139 .LASF91
     /tmp/ccCFJl3T.s:3559   .debug_str:00000000000009f2 .LASF92
     /tmp/ccCFJl3T.s:3415   .debug_str:00000000000005ff .LASF93
     /tmp/ccCFJl3T.s:3507   .debug_str:000000000000085c .LASF94
     /tmp/ccCFJl3T.s:3553   .debug_str:00000000000009d1 .LASF95
     /tmp/ccCFJl3T.s:3485   .debug_str:00000000000007a8 .LASF96
     /tmp/ccCFJl3T.s:3381   .debug_str:0000000000000528 .LASF97
     /tmp/ccCFJl3T.s:3285   .debug_str:00000000000001d3 .LASF98
     /tmp/ccCFJl3T.s:3265   .debug_str:0000000000000088 .LASF99
     /tmp/ccCFJl3T.s:3357   .debug_str:000000000000044d .LASF100
     /tmp/ccCFJl3T.s:3301   .debug_str:000000000000028a .LASF101
     /tmp/ccCFJl3T.s:3367   .debug_str:000000000000049f .LASF102
     /tmp/ccCFJl3T.s:3505   .debug_str:0000000000000857 .LASF103
     /tmp/ccCFJl3T.s:3395   .debug_str:000000000000057e .LASF104
     /tmp/ccCFJl3T.s:3269   .debug_str:0000000000000134 .LASF105
     /tmp/ccCFJl3T.s:3261   .debug_str:000000000000006f .LASF106
     /tmp/ccCFJl3T.s:3409   .debug_str:00000000000005e8 .LASF107
     /tmp/ccCFJl3T.s:3549   .debug_str:00000000000009ad .LASF108
     /tmp/ccCFJl3T.s:3509   .debug_str:000000000000086e .LASF109
     /tmp/ccCFJl3T.s:3519   .debug_str:00000000000008b5 .LASF110
     /tmp/ccCFJl3T.s:3537   .debug_str:0000000000000949 .LASF111
     /tmp/ccCFJl3T.s:3247   .debug_str:0000000000000000 .LASF112
     /tmp/ccCFJl3T.s:3403   .debug_str:00000000000005c9 .LASF113
     /tmp/ccCFJl3T.s:3445   .debug_str:00000000000006a5 .LASF114
     /tmp/ccCFJl3T.s:3521   .debug_str:00000000000008c6 .LASF115
     /tmp/ccCFJl3T.s:3545   .debug_str:000000000000098f .LASF116
     /tmp/ccCFJl3T.s:3457   .debug_str:00000000000006f7 .LASF117
     /tmp/ccCFJl3T.s:3389   .debug_str:0000000000000556 .LASF119
     /tmp/ccCFJl3T.s:3473   .debug_str:0000000000000765 .LASF120
     /tmp/ccCFJl3T.s:3517   .debug_str:000000000000089b .LASF121
     /tmp/ccCFJl3T.s:3325   .debug_str:0000000000000358 .LASF149
     /tmp/ccCFJl3T.s:3299   .debug_str:0000000000000272 .LASF123
     /tmp/ccCFJl3T.s:3321   .debug_str:0000000000000336 .LASF124
     /tmp/ccCFJl3T.s:3469   .debug_str:0000000000000740 .LASF125
     /tmp/ccCFJl3T.s:3443   .debug_str:0000000000000699 .LASF126
     /tmp/ccCFJl3T.s:3399   .debug_str:000000000000059c .LASF127
     /tmp/ccCFJl3T.s:3437   .debug_str:0000000000000672 .LASF150
     /tmp/ccCFJl3T.s:3557   .debug_str:00000000000009e1 .LASF128
     /tmp/ccCFJl3T.s:3277   .debug_str:0000000000000182 .LASF129
     /tmp/ccCFJl3T.s:475    .text:0000000000000298 .LFE56
     /tmp/ccCFJl3T.s:2982   .debug_loc:0000000000000000 .LLST13
     /tmp/ccCFJl3T.s:404    .text:0000000000000228 .LBB28
GAS LISTING /tmp/ccCFJl3T.s 			page 18


     /tmp/ccCFJl3T.s:411    .text:000000000000022c .LBE28
     /tmp/ccCFJl3T.s:3004   .debug_loc:000000000000005f .LLST14
     /tmp/ccCFJl3T.s:433    .text:0000000000000258 .LBB30
     /tmp/ccCFJl3T.s:444    .text:000000000000026c .LBE30
     /tmp/ccCFJl3T.s:3011   .debug_loc:0000000000000082 .LLST15
     /tmp/ccCFJl3T.s:438    .text:0000000000000260 .LVL32
     /tmp/ccCFJl3T.s:442    .text:000000000000026c .LVL33
     /tmp/ccCFJl3T.s:445    .text:000000000000026c .LBB32
     /tmp/ccCFJl3T.s:458    .text:0000000000000280 .LBE32
     /tmp/ccCFJl3T.s:3022   .debug_loc:00000000000000b8 .LLST16
     /tmp/ccCFJl3T.s:451    .text:0000000000000274 .LVL34
     /tmp/ccCFJl3T.s:455    .text:0000000000000280 .LVL35
     /tmp/ccCFJl3T.s:319    .text:00000000000001b0 .LFB55
     /tmp/ccCFJl3T.s:384    .text:000000000000021c .LFE55
     /tmp/ccCFJl3T.s:3393   .debug_str:0000000000000573 .LASF130
     /tmp/ccCFJl3T.s:3036   .debug_loc:00000000000000f1 .LLST11
     /tmp/ccCFJl3T.s:338    .text:00000000000001d0 .LBB26
     /tmp/ccCFJl3T.s:345    .text:00000000000001d4 .LBE26
     /tmp/ccCFJl3T.s:3047   .debug_loc:0000000000000127 .LLST12
     /tmp/ccCFJl3T.s:352    .text:00000000000001e0 .LVL23
     /tmp/ccCFJl3T.s:360    .text:00000000000001f8 .LVL24
     /tmp/ccCFJl3T.s:381    .text:0000000000000218 .LVL27
     /tmp/ccCFJl3T.s:49     .text:0000000000000020 .LFB54
     /tmp/ccCFJl3T.s:121    .text:0000000000000098 .LFE54
     /tmp/ccCFJl3T.s:86     .text:0000000000000070 .LBB17
     /tmp/ccCFJl3T.s:95     .text:0000000000000078 .LBE17
     /tmp/ccCFJl3T.s:3054   .debug_loc:000000000000014a .LLST0
     /tmp/ccCFJl3T.s:69     .text:0000000000000054 .LVL0
     /tmp/ccCFJl3T.s:73     .text:000000000000005c .LVL1
     /tmp/ccCFJl3T.s:3313   .debug_str:00000000000002e4 .LASF135
     /tmp/ccCFJl3T.s:3295   .debug_str:0000000000000254 .LASF131
     /tmp/ccCFJl3T.s:3547   .debug_str:00000000000009a7 .LASF132
     /tmp/ccCFJl3T.s:3529   .debug_str:0000000000000910 .LASF133
     /tmp/ccCFJl3T.s:3501   .debug_str:0000000000000847 .LASF134
     /tmp/ccCFJl3T.s:3533   .debug_str:0000000000000925 .LASF151
     /tmp/ccCFJl3T.s:127    .text:0000000000000098 .LFB52
     /tmp/ccCFJl3T.s:188    .text:0000000000000108 .LFE52
     /tmp/ccCFJl3T.s:3061   .debug_loc:000000000000016d .LLST1
     /tmp/ccCFJl3T.s:3079   .debug_loc:00000000000001b9 .LLST2
     /tmp/ccCFJl3T.s:3097   .debug_loc:0000000000000205 .LLST3
     /tmp/ccCFJl3T.s:3115   .debug_loc:0000000000000251 .LLST4
     /tmp/ccCFJl3T.s:3133   .debug_loc:000000000000029d .LLST5
     /tmp/ccCFJl3T.s:167    .text:00000000000000ec .LVL6
     /tmp/ccCFJl3T.s:293    .text:00000000000001b0 .LFE50
     /tmp/ccCFJl3T.s:3151   .debug_loc:00000000000002e9 .LLST6
     /tmp/ccCFJl3T.s:3180   .debug_loc:000000000000035e .LLST7
     /tmp/ccCFJl3T.s:3198   .debug_loc:00000000000003aa .LLST8
     /tmp/ccCFJl3T.s:223    .text:0000000000000134 .LBB22
     /tmp/ccCFJl3T.s:239    .text:000000000000014c .LBE22
     /tmp/ccCFJl3T.s:3216   .debug_loc:00000000000003f6 .LLST9
     /tmp/ccCFJl3T.s:230    .text:000000000000013c .LVL10
     /tmp/ccCFJl3T.s:234    .text:0000000000000148 .LVL11
     /tmp/ccCFJl3T.s:253    .text:000000000000016c .LBB24
     /tmp/ccCFJl3T.s:270    .text:000000000000018c .LBE24
     /tmp/ccCFJl3T.s:3225   .debug_loc:000000000000041b .LLST10
     /tmp/ccCFJl3T.s:258    .text:0000000000000174 .LVL15
     /tmp/ccCFJl3T.s:262    .text:0000000000000180 .LVL16
GAS LISTING /tmp/ccCFJl3T.s 			page 19


     /tmp/ccCFJl3T.s:247    .text:0000000000000164 .LVL13
     /tmp/ccCFJl3T.s:266    .text:000000000000018c .LVL17
     /tmp/ccCFJl3T.s:13     .text:0000000000000000 .LFB49
     /tmp/ccCFJl3T.s:43     .text:0000000000000020 .LFE49
     /tmp/ccCFJl3T.s:3463   .debug_str:000000000000071a .LASF136
     /tmp/ccCFJl3T.s:3539   .debug_str:000000000000094e .LASF152
     /tmp/ccCFJl3T.s:3417   .debug_str:0000000000000605 .LASF153
     /tmp/ccCFJl3T.s:3419   .debug_str:0000000000000613 .LASF154
     /tmp/ccCFJl3T.s:3365   .debug_str:0000000000000490 .LASF155
     /tmp/ccCFJl3T.s:3309   .debug_str:00000000000002c4 .LASF156
     /tmp/ccCFJl3T.s:395    .text:000000000000021c .LVL28
     /tmp/ccCFJl3T.s:467    .text:000000000000028c .LVL36
     /tmp/ccCFJl3T.s:471    .text:0000000000000294 .LVL37
     /tmp/ccCFJl3T.s:403    .text:0000000000000228 .LVL29
     /tmp/ccCFJl3T.s:409    .text:000000000000022c .LVL30
     /tmp/ccCFJl3T.s:432    .text:0000000000000258 .LVL31
     /tmp/ccCFJl3T.s:336    .text:00000000000001d0 .LVL21
     /tmp/ccCFJl3T.s:370    .text:0000000000000204 .LVL25
     /tmp/ccCFJl3T.s:374    .text:000000000000020c .LVL26
     /tmp/ccCFJl3T.s:343    .text:00000000000001d4 .LVL22
     /tmp/ccCFJl3T.s:85     .text:0000000000000070 .LVL3
     /tmp/ccCFJl3T.s:93     .text:0000000000000078 .LVL4
     /tmp/ccCFJl3T.s:130    .text:0000000000000098 .LVL5
     /tmp/ccCFJl3T.s:178    .text:00000000000000fc .LVL7
     /tmp/ccCFJl3T.s:201    .text:0000000000000108 .LVL8
     /tmp/ccCFJl3T.s:252    .text:000000000000016c .LVL14
     /tmp/ccCFJl3T.s:282    .text:00000000000001a0 .LVL18
     /tmp/ccCFJl3T.s:285    .text:00000000000001a4 .LVL19
     /tmp/ccCFJl3T.s:288    .text:00000000000001a8 .LVL20
     /tmp/ccCFJl3T.s:222    .text:0000000000000134 .LVL9
     /tmp/ccCFJl3T.s:237    .text:000000000000014c .LVL12
     /tmp/ccCFJl3T.s:512    .debug_info:0000000000000000 .Ldebug_info0
     /tmp/ccCFJl3T.s:296    .gcc_except_table:0000000000000000 .LLSDA50
     /tmp/ccCFJl3T.s:477    .gcc_except_table:000000000000002b .LLSDA56

UNDEFINED SYMBOLS
_Z5printPKcmb
_ZN9Scheduler3putEP3TCB
_ZN15MemoryAllocator11getInstanceEv
_ZN15MemoryAllocator9mem_allocEm
_ZN15MemoryAllocator8mem_freeEPv
_Unwind_Resume
__gxx_personality_v0
_ZN9Scheduler3getEv
_ZN3TCB13contextSwitchEPNS_7ContextES1_
