GAS LISTING /tmp/ccRLf3nn.s 			page 1


   1              		.file	"tcb.cpp"
   2              		.option nopic
   3              		.option norelax
   4              		.attribute arch, "rv64i2p0_m2p0_a2p0"
   5              		.attribute unaligned_access, 0
   6              		.attribute stack_align, 16
   7              		.text
   8              	.Ltext0:
   9              		.align	2
  10              		.globl	_ZN5Riscv10popSppSpieEv
  12              	_ZN5Riscv10popSppSpieEv:
  13              	.LFB52:
  14              		.file 1 "src/cpp/tcb.cpp"
   1:src/cpp/tcb.cpp **** #include"../../h/tcb.hpp"
   2:src/cpp/tcb.cpp **** #include"../../h/scheduler.hpp"
   3:src/cpp/tcb.cpp **** #include"../../h/riscv.hpp"
   4:src/cpp/tcb.cpp **** 
   5:src/cpp/tcb.cpp **** TCB* TCB::running = nullptr;
   6:src/cpp/tcb.cpp **** uint64 TCB::timeSliceCounter = 0;
   7:src/cpp/tcb.cpp **** void Riscv::popSppSpie() {
  15              		.loc 1 7 26
  16              		.cfi_startproc
  17 0000 130101FF 		addi	sp,sp,-16
  18              		.cfi_def_cfa_offset 16
  19 0004 23348100 		sd	s0,8(sp)
  20              		.cfi_offset 8, -8
  21 0008 13040101 		addi	s0,sp,16
  22              		.cfi_def_cfa 8, 0
   8:src/cpp/tcb.cpp ****     __asm__ volatile ("csrw sepc, ra");
  23              		.loc 1 8 5
  24              		.loc 1 8 39 is_stmt 0
  25              	 #APP
  26              	# 8 "src/cpp/tcb.cpp" 1
   9              	    __asm__ volatile ("sret");
  27              		csrw sepc, ra
  28              	# 0 "" 2
  29              		.loc 1 9 5 is_stmt 1
  30              		.loc 1 9 30 is_stmt 0
  31              	# 9 "src/cpp/tcb.cpp" 1
  10              	}
  32              		sret
  33              	# 0 "" 2
  34              		.loc 1 10 1
  35              	 #NO_APP
  36 0014 03348100 		ld	s0,8(sp)
  37              		.cfi_restore 8
  38              		.cfi_def_cfa 2, 16
  39 0018 13010101 		addi	sp,sp,16
  40              		.cfi_def_cfa_offset 0
  41 001c 67800000 		jr	ra
  42              		.cfi_endproc
  43              	.LFE52:
  45              		.align	2
  46              		.globl	_ZN3TCB13threadWrapperEv
  48              	_ZN3TCB13threadWrapperEv:
  49              	.LFB58:
  11:src/cpp/tcb.cpp **** 
GAS LISTING /tmp/ccRLf3nn.s 			page 2


  12:src/cpp/tcb.cpp **** TCB* TCB::createThread(Body body, void* args, uint64* stack){
  13:src/cpp/tcb.cpp ****     return new TCB(body, args, stack);
  14:src/cpp/tcb.cpp **** }
  15:src/cpp/tcb.cpp **** 
  16:src/cpp/tcb.cpp **** TCB::TCB(TCB::Body bbody, void* aargs, uint64* sstack, uint64 ttimeSlice):
  17:src/cpp/tcb.cpp **** body(bbody), args(aargs), stack(sstack), timeSlice(ttimeSlice), state(READY), deleteOnEnd(false),
  18:src/cpp/tcb.cpp **** context({(uint64) &threadWrapper, stack ? (uint64) &stack[DEFAULT_STACK_SIZE] : 0}){    
  19:src/cpp/tcb.cpp ****     if(body && stack)
  20:src/cpp/tcb.cpp ****         Scheduler::put(this);
  21:src/cpp/tcb.cpp **** }   
  22:src/cpp/tcb.cpp **** 
  23:src/cpp/tcb.cpp **** void TCB::yield(){
  24:src/cpp/tcb.cpp ****     Riscv::pushRegisters();
  25:src/cpp/tcb.cpp ****     dispatch();
  26:src/cpp/tcb.cpp ****     Riscv::popRegisters();
  27:src/cpp/tcb.cpp **** }
  28:src/cpp/tcb.cpp **** 
  29:src/cpp/tcb.cpp **** void TCB::threadWrapper(){
  50              		.loc 1 29 26 is_stmt 1
  51              		.cfi_startproc
  52 0020 130101FF 		addi	sp,sp,-16
  53              		.cfi_def_cfa_offset 16
  54 0024 23341100 		sd	ra,8(sp)
  55 0028 23308100 		sd	s0,0(sp)
  56              		.cfi_offset 1, -8
  57              		.cfi_offset 8, -16
  58 002c 13040101 		addi	s0,sp,16
  59              		.cfi_def_cfa 8, 0
  30:src/cpp/tcb.cpp ****     //print("start of thread", (uint64)TCB::running, 0);
  31:src/cpp/tcb.cpp ****     Riscv::popSppSpie();
  60              		.loc 1 31 5
  61              		.loc 1 31 22 is_stmt 0
  62 0030 97000000 		call	_ZN5Riscv10popSppSpieEv
  62      E7800000 
  63              	.LVL0:
  32:src/cpp/tcb.cpp ****     running->body(running->args);
  64              		.loc 1 32 5 is_stmt 1
  65              		.loc 1 32 14 is_stmt 0
  66 0038 97070000 		lla	a5,_ZN3TCB7runningE
  66      93870700 
  67 0040 83B70700 		ld	a5,0(a5)
  68 0044 03B70700 		ld	a4,0(a5)
  69              		.loc 1 32 18
  70 0048 03B58700 		ld	a0,8(a5)
  71 004c E7000700 		jalr	a4
  72              	.LVL1:
  33:src/cpp/tcb.cpp ****     thread_exit();
  73              		.loc 1 33 5 is_stmt 1
  74              		.loc 1 33 16 is_stmt 0
  75 0050 97000000 		call	thread_exit
  75      E7800000 
  76              	.LVL2:
  34:src/cpp/tcb.cpp **** }
  77              		.loc 1 34 1
  78 0058 83308100 		ld	ra,8(sp)
  79              		.cfi_restore 1
  80 005c 03340100 		ld	s0,0(sp)
GAS LISTING /tmp/ccRLf3nn.s 			page 3


  81              		.cfi_restore 8
  82              		.cfi_def_cfa 2, 16
  83 0060 13010101 		addi	sp,sp,16
  84              		.cfi_def_cfa_offset 0
  85 0064 67800000 		jr	ra
  86              		.cfi_endproc
  87              	.LFE58:
  89              		.align	2
  90              		.globl	_ZN3TCBC2EPFvPvES0_Pmm
  92              	_ZN3TCBC2EPFvPvES0_Pmm:
  93              	.LFB55:
  16:src/cpp/tcb.cpp **** body(bbody), args(aargs), stack(sstack), timeSlice(ttimeSlice), state(READY), deleteOnEnd(false),
  94              		.loc 1 16 1 is_stmt 1
  95              		.cfi_startproc
  96              	.LVL3:
  97              	.LBB20:
  18:src/cpp/tcb.cpp ****     if(body && stack)
  98              		.loc 1 18 83 is_stmt 0
  99 0068 2330B500 		sd	a1,0(a0)
 100 006c 2334C500 		sd	a2,8(a0)
 101 0070 2338D500 		sd	a3,16(a0)
 102 0074 233CE500 		sd	a4,24(a0)
 103 0078 93071000 		li	a5,1
 104 007c 2320F502 		sw	a5,32(a0)
 105 0080 23020502 		sb	zero,36(a0)
 106 0084 97070000 		lla	a5,_ZN3TCB13threadWrapperEv
 106      93870700 
 107 008c 2334F502 		sd	a5,40(a0)
  18:src/cpp/tcb.cpp ****     if(body && stack)
 108              		.loc 1 18 41
 109 0090 63800604 		beq	a3,zero,.L8
  18:src/cpp/tcb.cpp ****     if(body && stack)
 110              		.loc 1 18 52 discriminator 1
 111 0094 B7870000 		li	a5,32768
 112 0098 B387F600 		add	a5,a3,a5
 113              	.L6:
  18:src/cpp/tcb.cpp ****     if(body && stack)
 114              		.loc 1 18 83 discriminator 4
 115 009c 2338F502 		sd	a5,48(a0)
  19:src/cpp/tcb.cpp ****         Scheduler::put(this);
 116              		.loc 1 19 5 is_stmt 1 discriminator 4
 117 00a0 638C0502 		beq	a1,zero,.L10
  19:src/cpp/tcb.cpp ****         Scheduler::put(this);
 118              		.loc 1 19 13 is_stmt 0 discriminator 1
 119 00a4 638A0602 		beq	a3,zero,.L10
 120              	.LBE20:
  16:src/cpp/tcb.cpp **** body(bbody), args(aargs), stack(sstack), timeSlice(ttimeSlice), state(READY), deleteOnEnd(false),
 121              		.loc 1 16 1
 122 00a8 130101FF 		addi	sp,sp,-16
 123              		.cfi_def_cfa_offset 16
 124 00ac 23341100 		sd	ra,8(sp)
 125 00b0 23308100 		sd	s0,0(sp)
 126              		.cfi_offset 1, -8
 127              		.cfi_offset 8, -16
 128 00b4 13040101 		addi	s0,sp,16
 129              		.cfi_def_cfa 8, 0
 130              	.LBB21:
GAS LISTING /tmp/ccRLf3nn.s 			page 4


  20:src/cpp/tcb.cpp **** }   
 131              		.loc 1 20 9 is_stmt 1
  20:src/cpp/tcb.cpp **** }   
 132              		.loc 1 20 23 is_stmt 0
 133 00b8 97000000 		call	_ZN9Scheduler3putEP3TCB
 133      E7800000 
 134              	.LVL4:
 135              	.LBE21:
  21:src/cpp/tcb.cpp **** 
 136              		.loc 1 21 1
 137 00c0 83308100 		ld	ra,8(sp)
 138              		.cfi_restore 1
 139 00c4 03340100 		ld	s0,0(sp)
 140              		.cfi_restore 8
 141              		.cfi_def_cfa 2, 16
 142 00c8 13010101 		addi	sp,sp,16
 143              		.cfi_def_cfa_offset 0
 144 00cc 67800000 		jr	ra
 145              	.LVL5:
 146              	.L8:
 147              	.LBB22:
  18:src/cpp/tcb.cpp ****     if(body && stack)
 148              		.loc 1 18 41
 149 00d0 93070000 		li	a5,0
 150 00d4 6FF09FFC 		j	.L6
 151              	.L10:
 152 00d8 67800000 		ret
 153              	.LBE22:
 154              		.cfi_endproc
 155              	.LFE55:
 157              		.globl	_ZN3TCBC1EPFvPvES0_Pmm
 158              		.set	_ZN3TCBC1EPFvPvES0_Pmm,_ZN3TCBC2EPFvPvES0_Pmm
 159              		.align	2
 160              		.globl	_ZN3TCB12createThreadEPFvPvES0_Pm
 162              	_ZN3TCB12createThreadEPFvPvES0_Pm:
 163              	.LFB53:
  12:src/cpp/tcb.cpp ****     return new TCB(body, args, stack);
 164              		.loc 1 12 61 is_stmt 1
 165              		.cfi_startproc
 166              		.cfi_personality 0x9b,DW.ref.__gxx_personality_v0
 167              		.cfi_lsda 0x1b,.LLSDA53
 168              	.LVL6:
 169 00dc 130101FD 		addi	sp,sp,-48
 170              		.cfi_def_cfa_offset 48
 171 00e0 23341102 		sd	ra,40(sp)
 172 00e4 23308102 		sd	s0,32(sp)
 173 00e8 233C9100 		sd	s1,24(sp)
 174 00ec 23382101 		sd	s2,16(sp)
 175 00f0 23343101 		sd	s3,8(sp)
 176 00f4 23304101 		sd	s4,0(sp)
 177              		.cfi_offset 1, -8
 178              		.cfi_offset 8, -16
 179              		.cfi_offset 9, -24
 180              		.cfi_offset 18, -32
 181              		.cfi_offset 19, -40
 182              		.cfi_offset 20, -48
 183 00f8 13040103 		addi	s0,sp,48
GAS LISTING /tmp/ccRLf3nn.s 			page 5


 184              		.cfi_def_cfa 8, 0
 185 00fc 13090500 		mv	s2,a0
 186 0100 93890500 		mv	s3,a1
 187 0104 130A0600 		mv	s4,a2
  13:src/cpp/tcb.cpp **** }
 188              		.loc 1 13 5
 189              	.LVL7:
 190              	.LBB23:
 191              	.LBB24:
 192              		.file 2 "src/cpp/../../h/../h/kernel_operators.hpp"
   1:src/cpp/../../h/../h/kernel_operators.hpp **** void* operator new(size_t sz){return MemoryAllocator::getInstance().mem_alloc((sz-1)/MEM_BLOCK_SIZE
 193              		.loc 2 1 31
 194              	.LEHB0:
 195              		.loc 2 1 67 is_stmt 0
 196 0108 97000000 		call	_ZN15MemoryAllocator11getInstanceEv
 196      E7800000 
 197              	.LVL8:
 198              		.loc 2 1 78
 199 0110 93051000 		li	a1,1
 200 0114 97000000 		call	_ZN15MemoryAllocator9mem_allocEm
 200      E7800000 
 201              	.LVL9:
 202              	.LEHE0:
 203 011c 93040500 		mv	s1,a0
 204              	.LVL10:
 205              	.LBE24:
 206              	.LBE23:
  13:src/cpp/tcb.cpp **** }
 207              		.loc 1 13 37
 208 0120 13072000 		li	a4,2
 209 0124 93060A00 		mv	a3,s4
 210 0128 13860900 		mv	a2,s3
 211 012c 93050900 		mv	a1,s2
 212              	.LEHB1:
 213 0130 97000000 		call	_ZN3TCBC1EPFvPvES0_Pmm
 213      E7800000 
 214              	.LVL11:
 215              	.LEHE1:
 216 0138 6F008002 		j	.L18
 217              	.L15:
 218 013c 13090500 		mv	s2,a0
 219              	.LVL12:
 220              	.LBB25:
 221              	.LBB26:
   2:src/cpp/../../h/../h/kernel_operators.hpp **** void* operator new[](size_t sz){ return MemoryAllocator::getInstance().mem_alloc((sz-1)/MEM_BLOCK_S
   3:src/cpp/../../h/../h/kernel_operators.hpp **** void operator delete(void* ptr){MemoryAllocator::getInstance().mem_free(ptr);}
 222              		.loc 2 3 33 is_stmt 1
 223              		.loc 2 3 62 is_stmt 0
 224 0140 97000000 		call	_ZN15MemoryAllocator11getInstanceEv
 224      E7800000 
 225              	.LVL13:
 226              		.loc 2 3 72
 227 0148 93850400 		mv	a1,s1
 228 014c 97000000 		call	_ZN15MemoryAllocator8mem_freeEPv
 228      E7800000 
 229              	.LVL14:
 230 0154 13050900 		mv	a0,s2
GAS LISTING /tmp/ccRLf3nn.s 			page 6


 231              	.LEHB2:
 232 0158 97000000 		call	_Unwind_Resume
 232      E7800000 
 233              	.LVL15:
 234              	.LEHE2:
 235              	.L18:
 236              	.LBE26:
 237              	.LBE25:
  14:src/cpp/tcb.cpp **** 
 238              		.loc 1 14 1
 239 0160 13850400 		mv	a0,s1
 240 0164 83308102 		ld	ra,40(sp)
 241              		.cfi_restore 1
 242 0168 03340102 		ld	s0,32(sp)
 243              		.cfi_restore 8
 244              		.cfi_def_cfa 2, 48
 245 016c 83348101 		ld	s1,24(sp)
 246              		.cfi_restore 9
 247 0170 03390101 		ld	s2,16(sp)
 248              		.cfi_restore 18
 249              	.LVL16:
 250 0174 83398100 		ld	s3,8(sp)
 251              		.cfi_restore 19
 252              	.LVL17:
 253 0178 033A0100 		ld	s4,0(sp)
 254              		.cfi_restore 20
 255              	.LVL18:
 256 017c 13010103 		addi	sp,sp,48
 257              		.cfi_def_cfa_offset 0
 258 0180 67800000 		jr	ra
 259              		.cfi_endproc
 260              	.LFE53:
 261              		.globl	__gxx_personality_v0
 262              		.section	.gcc_except_table,"aw",@progbits
 263              	.LLSDA53:
 264 0000 FF       		.byte	0xff
 265 0001 FF       		.byte	0xff
 266 0002 03       		.byte	0x3
 267 0003 27       		.byte	0x27
 268 0004 00000000 		.4byte	.LEHB0-.LFB53
 269 0008 00000000 		.4byte	.LEHE0-.LEHB0
 270 000c 00000000 		.4byte	0
 271 0010 00       		.byte	0
 272 0011 00000000 		.4byte	.LEHB1-.LFB53
 273 0015 00000000 		.4byte	.LEHE1-.LEHB1
 274 0019 00000000 		.4byte	.L15-.LFB53
 275 001d 00       		.byte	0
 276 001e 00000000 		.4byte	.LEHB2-.LFB53
 277 0022 00000000 		.4byte	.LEHE2-.LEHB2
 278 0026 00000000 		.4byte	0
 279 002a 00       		.byte	0
 280              		.text
 282              		.align	2
 283              		.globl	_ZN3TCB8dispatchEv
 285              	_ZN3TCB8dispatchEv:
 286              	.LFB59:
  35:src/cpp/tcb.cpp **** 
GAS LISTING /tmp/ccRLf3nn.s 			page 7


  36:src/cpp/tcb.cpp **** void TCB::dispatch(){
 287              		.loc 1 36 21 is_stmt 1
 288              		.cfi_startproc
 289              		.cfi_personality 0x9b,DW.ref.__gxx_personality_v0
 290              		.cfi_lsda 0x1b,.LLSDA59
 291 0184 130101FE 		addi	sp,sp,-32
 292              		.cfi_def_cfa_offset 32
 293 0188 233C1100 		sd	ra,24(sp)
 294 018c 23388100 		sd	s0,16(sp)
 295 0190 23349100 		sd	s1,8(sp)
 296 0194 23302101 		sd	s2,0(sp)
 297              		.cfi_offset 1, -8
 298              		.cfi_offset 8, -16
 299              		.cfi_offset 9, -24
 300              		.cfi_offset 18, -32
 301 0198 13040102 		addi	s0,sp,32
 302              		.cfi_def_cfa 8, 0
  37:src/cpp/tcb.cpp ****     //Scheduler::print_queue();
  38:src/cpp/tcb.cpp ****     TCB* oldRunning = running;
 303              		.loc 1 38 5
 304              		.loc 1 38 10 is_stmt 0
 305 019c 97070000 		lla	a5,_ZN3TCB7runningE
 305      93870700 
 306 01a4 83B40700 		ld	s1,0(a5)
 307              	.LVL19:
  39:src/cpp/tcb.cpp ****     if(!oldRunning->isFinished() && oldRunning->getState() != BLOCKED)
 308              		.loc 1 39 5 is_stmt 1
 309              	.LBB35:
 310              	.LBB36:
 311              		.file 3 "src/cpp/../../h/tcb.hpp"
   1:src/cpp/../../h/tcb.hpp **** #ifndef __tcb__h
   2:src/cpp/../../h/tcb.hpp **** #define __tcb__h
   3:src/cpp/../../h/tcb.hpp **** 
   4:src/cpp/../../h/tcb.hpp **** #include"../h/memory_allocator.hpp"
   5:src/cpp/../../h/tcb.hpp **** #include"../h/testing.hpp"
   6:src/cpp/../../h/tcb.hpp **** class TCB{
   7:src/cpp/../../h/tcb.hpp ****     
   8:src/cpp/../../h/tcb.hpp **** public:
   9:src/cpp/../../h/tcb.hpp ****     //alokacija
  10:src/cpp/../../h/tcb.hpp ****     #include"../h/kernel_operators.hpp"
  11:src/cpp/../../h/tcb.hpp ****     
  12:src/cpp/../../h/tcb.hpp ****     using Body = void (*)(void*);
  13:src/cpp/../../h/tcb.hpp ****     enum TCBState{
  14:src/cpp/../../h/tcb.hpp ****         BLOCKED,
  15:src/cpp/../../h/tcb.hpp ****         READY,
  16:src/cpp/../../h/tcb.hpp ****         DELETING,
  17:src/cpp/../../h/tcb.hpp ****         FINISHED,
  18:src/cpp/../../h/tcb.hpp ****     };
  19:src/cpp/../../h/tcb.hpp ****     
  20:src/cpp/../../h/tcb.hpp ****     ~TCB(){ 
  21:src/cpp/../../h/tcb.hpp ****         MemoryAllocator& allocator = MemoryAllocator::getInstance(); 
  22:src/cpp/../../h/tcb.hpp ****         if(!allocator.invalidFreeAddress(this))
  23:src/cpp/../../h/tcb.hpp ****             allocator.mem_free(stack);
  24:src/cpp/../../h/tcb.hpp ****     }
  25:src/cpp/../../h/tcb.hpp ****     
  26:src/cpp/../../h/tcb.hpp ****     //da li je thread zavrsen
  27:src/cpp/../../h/tcb.hpp ****     void setState(TCBState s) {state = s;}
GAS LISTING /tmp/ccRLf3nn.s 			page 8


  28:src/cpp/../../h/tcb.hpp ****     TCBState getState() const{ return state; }
  29:src/cpp/../../h/tcb.hpp ****     void finish() { state = FINISHED; }
  30:src/cpp/../../h/tcb.hpp ****     bool isFinished(){ return state == FINISHED; }
 312              		.loc 3 30 24
 313              		.loc 3 30 31 is_stmt 0
 314 01a8 83A70402 		lw	a5,32(s1)
 315              	.LVL20:
 316              	.LBE36:
 317              	.LBE35:
 318              		.loc 1 39 34
 319 01ac 13073000 		li	a4,3
 320 01b0 6384E700 		beq	a5,a4,.L20
 321              	.LVL21:
  28:src/cpp/../../h/tcb.hpp ****     void finish() { state = FINISHED; }
 322              		.loc 3 28 32 is_stmt 1
 323              		.loc 1 39 34 is_stmt 0
 324 01b4 63920704 		bne	a5,zero,.L24
 325              	.L20:
  40:src/cpp/tcb.cpp ****         Scheduler::put(oldRunning);
  41:src/cpp/tcb.cpp ****     else if(oldRunning->isFinished() && oldRunning->deleteOnEnd)
 326              		.loc 1 41 10 is_stmt 1 discriminator 4
 327              	.LVL22:
 328              		.loc 3 30 24 discriminator 4
 329              		.loc 1 41 38 is_stmt 0 discriminator 4
 330 01b8 13073000 		li	a4,3
 331 01bc 6386E704 		beq	a5,a4,.L25
 332              	.L21:
  42:src/cpp/tcb.cpp ****         delete oldRunning;
  43:src/cpp/tcb.cpp ****     running = Scheduler::get(); 
 333              		.loc 1 43 5 is_stmt 1
 334              	.LEHB3:
 335              		.loc 1 43 29 is_stmt 0
 336 01c0 97000000 		call	_ZN9Scheduler3getEv
 336      E7800000 
 337              	.LVL23:
 338              		.loc 1 43 13
 339 01c8 97070000 		sd	a0,_ZN3TCB7runningE,a5
 339      23B0A700 
  44:src/cpp/tcb.cpp ****     contextSwitch(&oldRunning->context, &running->context); 
 340              		.loc 1 44 5 is_stmt 1
 341              		.loc 1 44 18 is_stmt 0
 342 01d0 93058502 		addi	a1,a0,40
 343 01d4 13858402 		addi	a0,s1,40
 344 01d8 97000000 		call	_ZN3TCB13contextSwitchEPNS_7ContextES1_
 344      E7800000 
 345              	.LVL24:
  45:src/cpp/tcb.cpp **** }
 346              		.loc 1 45 1
 347 01e0 83308101 		ld	ra,24(sp)
 348              		.cfi_remember_state
 349              		.cfi_restore 1
 350 01e4 03340101 		ld	s0,16(sp)
 351              		.cfi_restore 8
 352              		.cfi_def_cfa 2, 32
 353 01e8 83348100 		ld	s1,8(sp)
 354              		.cfi_restore 9
 355              	.LVL25:
GAS LISTING /tmp/ccRLf3nn.s 			page 9


 356 01ec 03390100 		ld	s2,0(sp)
 357              		.cfi_restore 18
 358 01f0 13010102 		addi	sp,sp,32
 359              		.cfi_def_cfa_offset 0
 360 01f4 67800000 		jr	ra
 361              	.LVL26:
 362              	.L24:
 363              		.cfi_restore_state
  40:src/cpp/tcb.cpp ****     else if(oldRunning->isFinished() && oldRunning->deleteOnEnd)
 364              		.loc 1 40 9 is_stmt 1
  40:src/cpp/tcb.cpp ****     else if(oldRunning->isFinished() && oldRunning->deleteOnEnd)
 365              		.loc 1 40 23 is_stmt 0
 366 01f8 13850400 		mv	a0,s1
 367 01fc 97000000 		call	_ZN9Scheduler3putEP3TCB
 367      E7800000 
 368              	.LVL27:
 369              	.LEHE3:
 370 0204 6FF0DFFB 		j	.L21
 371              	.L25:
  41:src/cpp/tcb.cpp ****         delete oldRunning;
 372              		.loc 1 41 53 discriminator 1
 373 0208 83C74402 		lbu	a5,36(s1)
  41:src/cpp/tcb.cpp ****         delete oldRunning;
 374              		.loc 1 41 38 discriminator 1
 375 020c E38A07FA 		beq	a5,zero,.L21
  42:src/cpp/tcb.cpp ****     running = Scheduler::get(); 
 376              		.loc 1 42 9 is_stmt 1
  42:src/cpp/tcb.cpp ****     running = Scheduler::get(); 
 377              		.loc 1 42 26 is_stmt 0
 378 0210 E38804FA 		beq	s1,zero,.L21
 379              	.LVL28:
 380              	.LBB37:
 381              	.LBB38:
  21:src/cpp/../../h/tcb.hpp ****         if(!allocator.invalidFreeAddress(this))
 382              		.loc 3 21 9 is_stmt 1
  21:src/cpp/../../h/tcb.hpp ****         if(!allocator.invalidFreeAddress(this))
 383              		.loc 3 21 67 is_stmt 0
 384 0214 97000000 		call	_ZN15MemoryAllocator11getInstanceEv
 384      E7800000 
 385              	.LVL29:
 386 021c 13090500 		mv	s2,a0
 387              	.LVL30:
  22:src/cpp/../../h/tcb.hpp ****             allocator.mem_free(stack);
 388              		.loc 3 22 9 is_stmt 1
  22:src/cpp/../../h/tcb.hpp ****             allocator.mem_free(stack);
 389              		.loc 3 22 41 is_stmt 0
 390 0220 93850400 		mv	a1,s1
 391 0224 97000000 		call	_ZN15MemoryAllocator18invalidFreeAddressEPv
 391      E7800000 
 392              	.LVL31:
  22:src/cpp/../../h/tcb.hpp ****             allocator.mem_free(stack);
 393              		.loc 3 22 9
 394 022c 630E0500 		beq	a0,zero,.L26
 395              	.L22:
 396              	.LVL32:
 397              	.LBE38:
 398              	.LBE37:
GAS LISTING /tmp/ccRLf3nn.s 			page 10


 399              	.LBB40:
 400              	.LBB41:
 401              		.loc 2 3 33 is_stmt 1
 402              	.LEHB4:
 403              		.loc 2 3 62 is_stmt 0
 404 0230 97000000 		call	_ZN15MemoryAllocator11getInstanceEv
 404      E7800000 
 405              	.LVL33:
 406              		.loc 2 3 72
 407 0238 93850400 		mv	a1,s1
 408 023c 97000000 		call	_ZN15MemoryAllocator8mem_freeEPv
 408      E7800000 
 409              	.LVL34:
 410              	.LEHE4:
 411 0244 6FF0DFF7 		j	.L21
 412              	.LVL35:
 413              	.L26:
 414              	.LBE41:
 415              	.LBE40:
 416              	.LBB42:
 417              	.LBB39:
  23:src/cpp/../../h/tcb.hpp ****     }
 418              		.loc 3 23 13 is_stmt 1
  23:src/cpp/../../h/tcb.hpp ****     }
 419              		.loc 3 23 31 is_stmt 0
 420 0248 83B50401 		ld	a1,16(s1)
 421 024c 13050900 		mv	a0,s2
 422 0250 97000000 		call	_ZN15MemoryAllocator8mem_freeEPv
 422      E7800000 
 423              	.LVL36:
 424 0258 6FF09FFD 		j	.L22
 425              	.LBE39:
 426              	.LBE42:
 427              		.cfi_endproc
 428              	.LFE59:
 429              		.section	.gcc_except_table
 430              	.LLSDA59:
 431 002b FF       		.byte	0xff
 432 002c FF       		.byte	0xff
 433 002d 03       		.byte	0x3
 434 002e 1A       		.byte	0x1a
 435 002f 00000000 		.4byte	.LEHB3-.LFB59
 436 0033 00000000 		.4byte	.LEHE3-.LEHB3
 437 0037 00000000 		.4byte	0
 438 003b 00       		.byte	0
 439 003c 00000000 		.4byte	.LEHB4-.LFB59
 440 0040 00000000 		.4byte	.LEHE4-.LEHB4
 441 0044 00000000 		.4byte	0
 442 0048 00       		.byte	0
 443              		.text
 445              		.align	2
 446              		.globl	_ZN3TCB5yieldEv
 448              	_ZN3TCB5yieldEv:
 449              	.LFB57:
  23:src/cpp/tcb.cpp ****     Riscv::pushRegisters();
 450              		.loc 1 23 18 is_stmt 1
 451              		.cfi_startproc
GAS LISTING /tmp/ccRLf3nn.s 			page 11


 452 025c 130101FF 		addi	sp,sp,-16
 453              		.cfi_def_cfa_offset 16
 454 0260 23341100 		sd	ra,8(sp)
 455 0264 23308100 		sd	s0,0(sp)
 456              		.cfi_offset 1, -8
 457              		.cfi_offset 8, -16
 458 0268 13040101 		addi	s0,sp,16
 459              		.cfi_def_cfa 8, 0
  24:src/cpp/tcb.cpp ****     dispatch();
 460              		.loc 1 24 5
  24:src/cpp/tcb.cpp ****     dispatch();
 461              		.loc 1 24 25 is_stmt 0
 462 026c 97000000 		call	_ZN5Riscv13pushRegistersEv
 462      E7800000 
 463              	.LVL37:
  25:src/cpp/tcb.cpp ****     Riscv::popRegisters();
 464              		.loc 1 25 5 is_stmt 1
  25:src/cpp/tcb.cpp ****     Riscv::popRegisters();
 465              		.loc 1 25 13 is_stmt 0
 466 0274 97000000 		call	_ZN3TCB8dispatchEv
 466      E7800000 
 467              	.LVL38:
  26:src/cpp/tcb.cpp **** }
 468              		.loc 1 26 5 is_stmt 1
  26:src/cpp/tcb.cpp **** }
 469              		.loc 1 26 24 is_stmt 0
 470 027c 97000000 		call	_ZN5Riscv12popRegistersEv
 470      E7800000 
 471              	.LVL39:
  27:src/cpp/tcb.cpp **** 
 472              		.loc 1 27 1
 473 0284 83308100 		ld	ra,8(sp)
 474              		.cfi_restore 1
 475 0288 03340100 		ld	s0,0(sp)
 476              		.cfi_restore 8
 477              		.cfi_def_cfa 2, 16
 478 028c 13010101 		addi	sp,sp,16
 479              		.cfi_def_cfa_offset 0
 480 0290 67800000 		jr	ra
 481              		.cfi_endproc
 482              	.LFE57:
 484              		.align	2
 485              		.globl	_ZN3TCB12deleteThreadEPS_
 487              	_ZN3TCB12deleteThreadEPS_:
 488              	.LFB60:
  46:src/cpp/tcb.cpp **** 
  47:src/cpp/tcb.cpp **** void TCB::deleteThread(TCB* t){
 489              		.loc 1 47 31 is_stmt 1
 490              		.cfi_startproc
 491              		.cfi_personality 0x9b,DW.ref.__gxx_personality_v0
 492              		.cfi_lsda 0x1b,.LLSDA60
 493              	.LVL40:
  48:src/cpp/tcb.cpp ****     if(t){
 494              		.loc 1 48 5
 495 0294 6306050A 		beq	a0,zero,.L34
  49:src/cpp/tcb.cpp ****         if(running != t && t->isFinished())
 496              		.loc 1 49 9
GAS LISTING /tmp/ccRLf3nn.s 			page 12


 497              		.loc 1 49 20 is_stmt 0
 498 0298 97070000 		lla	a5,_ZN3TCB7runningE
 498      93870700 
 499 02a0 83B70700 		ld	a5,0(a5)
 500              		.loc 1 49 25
 501 02a4 6388A700 		beq	a5,a0,.L31
 502              	.LVL41:
 503              	.LBB53:
 504              	.LBB54:
 505              		.loc 3 30 24 is_stmt 1
 506              		.loc 3 30 31 is_stmt 0
 507 02a8 03270502 		lw	a4,32(a0)
 508              	.LVL42:
 509              	.LBE54:
 510              	.LBE53:
 511              		.loc 1 49 25
 512 02ac 93073000 		li	a5,3
 513 02b0 630CF700 		beq	a4,a5,.L37
 514              	.L31:
  50:src/cpp/tcb.cpp ****             delete t;
  51:src/cpp/tcb.cpp ****         else{
  52:src/cpp/tcb.cpp ****             t->deleteOnEnd = true;
 515              		.loc 1 52 13 is_stmt 1 discriminator 4
 516              		.loc 1 52 28 is_stmt 0 discriminator 4
 517 02b4 93071000 		li	a5,1
 518 02b8 2302F502 		sb	a5,36(a0)
  53:src/cpp/tcb.cpp ****             t->finish();
 519              		.loc 1 53 13 is_stmt 1 discriminator 4
 520              	.LVL43:
 521              	.LBB55:
 522              	.LBB56:
  29:src/cpp/../../h/tcb.hpp ****     bool isFinished(){ return state == FINISHED; }
 523              		.loc 3 29 21 discriminator 4
  29:src/cpp/../../h/tcb.hpp ****     bool isFinished(){ return state == FINISHED; }
 524              		.loc 3 29 27 is_stmt 0 discriminator 4
 525 02bc 93073000 		li	a5,3
 526 02c0 2320F502 		sw	a5,32(a0)
 527              	.LBE56:
 528              	.LBE55:
  54:src/cpp/tcb.cpp ****         }        
  55:src/cpp/tcb.cpp ****     }
  56:src/cpp/tcb.cpp **** }
 529              		.loc 1 56 1 discriminator 4
 530 02c4 67800000 		ret
 531              	.LVL44:
 532              	.L37:
  47:src/cpp/tcb.cpp ****     if(t){
 533              		.loc 1 47 31
 534 02c8 130101FE 		addi	sp,sp,-32
 535              		.cfi_def_cfa_offset 32
 536 02cc 233C1100 		sd	ra,24(sp)
 537 02d0 23388100 		sd	s0,16(sp)
 538 02d4 23349100 		sd	s1,8(sp)
 539 02d8 23302101 		sd	s2,0(sp)
 540              		.cfi_offset 1, -8
 541              		.cfi_offset 8, -16
 542              		.cfi_offset 9, -24
GAS LISTING /tmp/ccRLf3nn.s 			page 13


 543              		.cfi_offset 18, -32
 544 02dc 13040102 		addi	s0,sp,32
 545              		.cfi_def_cfa 8, 0
 546 02e0 93040500 		mv	s1,a0
  50:src/cpp/tcb.cpp ****         else{
 547              		.loc 1 50 13 is_stmt 1
 548              	.LVL45:
 549              	.LBB57:
 550              	.LBB58:
  21:src/cpp/../../h/tcb.hpp ****         if(!allocator.invalidFreeAddress(this))
 551              		.loc 3 21 9
  21:src/cpp/../../h/tcb.hpp ****         if(!allocator.invalidFreeAddress(this))
 552              		.loc 3 21 67 is_stmt 0
 553 02e4 97000000 		call	_ZN15MemoryAllocator11getInstanceEv
 553      E7800000 
 554              	.LVL46:
 555 02ec 13090500 		mv	s2,a0
 556              	.LVL47:
  22:src/cpp/../../h/tcb.hpp ****             allocator.mem_free(stack);
 557              		.loc 3 22 9 is_stmt 1
  22:src/cpp/../../h/tcb.hpp ****             allocator.mem_free(stack);
 558              		.loc 3 22 41 is_stmt 0
 559 02f0 93850400 		mv	a1,s1
 560 02f4 97000000 		call	_ZN15MemoryAllocator18invalidFreeAddressEPv
 560      E7800000 
 561              	.LVL48:
  22:src/cpp/../../h/tcb.hpp ****             allocator.mem_free(stack);
 562              		.loc 3 22 9
 563 02fc 63080502 		beq	a0,zero,.L38
 564              	.L32:
 565              	.LVL49:
 566              	.LBE58:
 567              	.LBE57:
 568              	.LBB60:
 569              	.LBB61:
 570              		.loc 2 3 33 is_stmt 1
 571              	.LEHB5:
 572              		.loc 2 3 62 is_stmt 0
 573 0300 97000000 		call	_ZN15MemoryAllocator11getInstanceEv
 573      E7800000 
 574              	.LVL50:
 575              		.loc 2 3 72
 576 0308 93850400 		mv	a1,s1
 577 030c 97000000 		call	_ZN15MemoryAllocator8mem_freeEPv
 577      E7800000 
 578              	.LVL51:
 579              	.LEHE5:
 580              	.LBE61:
 581              	.LBE60:
 582              		.loc 1 56 1
 583 0314 83308101 		ld	ra,24(sp)
 584              		.cfi_remember_state
 585              		.cfi_restore 1
 586 0318 03340101 		ld	s0,16(sp)
 587              		.cfi_restore 8
 588              		.cfi_def_cfa 2, 32
 589 031c 83348100 		ld	s1,8(sp)
GAS LISTING /tmp/ccRLf3nn.s 			page 14


 590              		.cfi_restore 9
 591              	.LVL52:
 592 0320 03390100 		ld	s2,0(sp)
 593              		.cfi_restore 18
 594              	.LVL53:
 595 0324 13010102 		addi	sp,sp,32
 596              		.cfi_def_cfa_offset 0
 597 0328 67800000 		jr	ra
 598              	.LVL54:
 599              	.L38:
 600              		.cfi_restore_state
 601              	.LBB62:
 602              	.LBB59:
  23:src/cpp/../../h/tcb.hpp ****     }
 603              		.loc 3 23 13 is_stmt 1
  23:src/cpp/../../h/tcb.hpp ****     }
 604              		.loc 3 23 31 is_stmt 0
 605 032c 83B50401 		ld	a1,16(s1)
 606 0330 13050900 		mv	a0,s2
 607 0334 97000000 		call	_ZN15MemoryAllocator8mem_freeEPv
 607      E7800000 
 608              	.LVL55:
 609 033c 6FF05FFC 		j	.L32
 610              	.LVL56:
 611              	.L34:
 612              		.cfi_def_cfa_register 2
 613              		.cfi_restore 1
 614              		.cfi_restore 8
 615              		.cfi_restore 9
 616              		.cfi_restore 18
 617 0340 67800000 		ret
 618              	.LBE59:
 619              	.LBE62:
 620              		.cfi_endproc
 621              	.LFE60:
 622              		.section	.gcc_except_table
 623              	.LLSDA60:
 624 0049 FF       		.byte	0xff
 625 004a FF       		.byte	0xff
 626 004b 03       		.byte	0x3
 627 004c 0D       		.byte	0xd
 628 004d 00000000 		.4byte	.LEHB5-.LFB60
 629 0051 00000000 		.4byte	.LEHE5-.LEHB5
 630 0055 00000000 		.4byte	0
 631 0059 00       		.byte	0
 632              		.text
 634              		.globl	_ZN3TCB16timeSliceCounterE
 635              		.globl	_ZN3TCB7runningE
 636              		.section	.sbss,"aw",@nobits
 637              		.align	3
 640              	_ZN3TCB16timeSliceCounterE:
 641 0000 00000000 		.zero	8
 641      00000000 
 644              	_ZN3TCB7runningE:
 645 0008 00000000 		.zero	8
 645      00000000 
 646              		.text
GAS LISTING /tmp/ccRLf3nn.s 			page 15


 647              	.Letext0:
 648              		.file 4 "src/cpp/../../h/../h/../lib/hw.h"
 649              		.file 5 "src/cpp/../../h/../h/memory_allocator.hpp"
 650              		.file 6 "src/cpp/../../h/../h/../h/riscv.hpp"
 651              		.file 7 "src/cpp/../../h/scheduler.hpp"
 652              		.file 8 "src/cpp/../../h/../h/../h/syscall_c.h"
 4141              		.align	3
 4144              	DW.ref.__gxx_personality_v0:
 4145 0000 00000000 		.dword	__gxx_personality_v0
 4145      00000000 
 4146              		.ident	"GCC: () 8.3.0"
GAS LISTING /tmp/ccRLf3nn.s 			page 16

