GAS LISTING /tmp/ccBoc6Ac.s 			page 1


   1              		.file	"testing.cpp"
   2              		.option nopic
   3              		.option norelax
   4              		.attribute arch, "rv64i2p0_m2p0_a2p0"
   5              		.attribute unaligned_access, 0
   6              		.attribute stack_align, 16
   7              		.text
   8              	.Ltext0:
   9              		.align	2
  10              		.globl	_Z5printmcb
  12              	_Z5printmcb:
  13              	.LFB42:
  14              		.file 1 "src/cpp/testing.cpp"
   1:src/cpp/testing.cpp **** #include"../../h/testing.hpp"
   2:src/cpp/testing.cpp **** #include"../../h/tcb.hpp"
   3:src/cpp/testing.cpp **** void print(uint64 unum, char end, bool hex){
  15              		.loc 1 3 44
  16              		.cfi_startproc
  17              	.LVL0:
  18 0000 130101FA 		addi	sp,sp,-96
  19              		.cfi_def_cfa_offset 96
  20 0004 233C1104 		sd	ra,88(sp)
  21 0008 23388104 		sd	s0,80(sp)
  22 000c 23349104 		sd	s1,72(sp)
  23 0010 23302105 		sd	s2,64(sp)
  24 0014 233C3103 		sd	s3,56(sp)
  25 0018 23384103 		sd	s4,48(sp)
  26              		.cfi_offset 1, -8
  27              		.cfi_offset 8, -16
  28              		.cfi_offset 9, -24
  29              		.cfi_offset 18, -32
  30              		.cfi_offset 19, -40
  31              		.cfi_offset 20, -48
  32 001c 13040106 		addi	s0,sp,96
  33              		.cfi_def_cfa 8, 0
  34 0020 13090500 		mv	s2,a0
  35 0024 138A0500 		mv	s4,a1
   4:src/cpp/testing.cpp ****     uint64 sstatus = Riscv::r_sstatus();
  36              		.loc 1 4 5
  37              	.LBB36:
  38              	.LBB37:
  39              		.file 2 "src/cpp/../../h/../h/riscv.hpp"
   1:src/cpp/../../h/../h/riscv.hpp **** #ifndef __riscv__
   2:src/cpp/../../h/../h/riscv.hpp **** #define __riscv__
   3:src/cpp/../../h/../h/riscv.hpp **** 
   4:src/cpp/../../h/../h/riscv.hpp **** #include"../lib/hw.h"
   5:src/cpp/../../h/../h/riscv.hpp **** 
   6:src/cpp/../../h/../h/riscv.hpp **** class Riscv{
   7:src/cpp/../../h/../h/riscv.hpp **** public:
   8:src/cpp/../../h/../h/riscv.hpp ****     
   9:src/cpp/../../h/../h/riscv.hpp ****     static void w_scause(uint64);
  10:src/cpp/../../h/../h/riscv.hpp ****     static uint64 r_scause(); 
  11:src/cpp/../../h/../h/riscv.hpp **** 
  12:src/cpp/../../h/../h/riscv.hpp ****     static void w_sepc(uint64);
  13:src/cpp/../../h/../h/riscv.hpp ****     static uint64 r_sepc();
  14:src/cpp/../../h/../h/riscv.hpp ****     static void ni_sepc();
  15:src/cpp/../../h/../h/riscv.hpp **** 
GAS LISTING /tmp/ccBoc6Ac.s 			page 2


  16:src/cpp/../../h/../h/riscv.hpp ****     static void w_stvec(uint64);
  17:src/cpp/../../h/../h/riscv.hpp ****     static uint64 r_stvec();
  18:src/cpp/../../h/../h/riscv.hpp ****      
  19:src/cpp/../../h/../h/riscv.hpp ****     static void w_stval(uint64);
  20:src/cpp/../../h/../h/riscv.hpp ****     static uint64 r_stval();
  21:src/cpp/../../h/../h/riscv.hpp ****     
  22:src/cpp/../../h/../h/riscv.hpp ****     enum BitMaskSip{
  23:src/cpp/../../h/../h/riscv.hpp ****         SIP_SSIE = (1<<1),
  24:src/cpp/../../h/../h/riscv.hpp ****         SIP_STIE = (1<<5),
  25:src/cpp/../../h/../h/riscv.hpp ****         SIP_SEIE = (1<<9),
  26:src/cpp/../../h/../h/riscv.hpp ****     };
  27:src/cpp/../../h/../h/riscv.hpp **** 
  28:src/cpp/../../h/../h/riscv.hpp ****     static void ms_sip(uint64);
  29:src/cpp/../../h/../h/riscv.hpp ****     static void mc_sip(uint64);
  30:src/cpp/../../h/../h/riscv.hpp **** 
  31:src/cpp/../../h/../h/riscv.hpp ****     static void w_sip(uint64);
  32:src/cpp/../../h/../h/riscv.hpp ****     static uint64 r_sip();
  33:src/cpp/../../h/../h/riscv.hpp **** 
  34:src/cpp/../../h/../h/riscv.hpp ****     enum BitMaskSstatus{
  35:src/cpp/../../h/../h/riscv.hpp ****         SSTATUS_SIE = (1<<1),
  36:src/cpp/../../h/../h/riscv.hpp ****         SSTATUS_SPIE = (1<<5),
  37:src/cpp/../../h/../h/riscv.hpp ****         SSTATUS_SPP = (1<<8),
  38:src/cpp/../../h/../h/riscv.hpp ****     };
  39:src/cpp/../../h/../h/riscv.hpp **** 
  40:src/cpp/../../h/../h/riscv.hpp ****     static void ms_sstatus(uint64);
  41:src/cpp/../../h/../h/riscv.hpp ****     static void mc_sstatus(uint64);
  42:src/cpp/../../h/../h/riscv.hpp **** 
  43:src/cpp/../../h/../h/riscv.hpp ****     static void w_sstatus(uint64);
  44:src/cpp/../../h/../h/riscv.hpp ****     static uint64 r_sstatus();
  45:src/cpp/../../h/../h/riscv.hpp **** 
  46:src/cpp/../../h/../h/riscv.hpp ****     static uint64 r_a0();
  47:src/cpp/../../h/../h/riscv.hpp ****     static uint64 s_a0(uint64 a0);
  48:src/cpp/../../h/../h/riscv.hpp ****     static uint64 r_a1();
  49:src/cpp/../../h/../h/riscv.hpp ****     static uint64 r_a2();
  50:src/cpp/../../h/../h/riscv.hpp ****     static uint64 r_a3();
  51:src/cpp/../../h/../h/riscv.hpp ****     static uint64 r_a4();
  52:src/cpp/../../h/../h/riscv.hpp **** 
  53:src/cpp/../../h/../h/riscv.hpp ****     static void popRegisters();
  54:src/cpp/../../h/../h/riscv.hpp ****     static void pushRegisters();
  55:src/cpp/../../h/../h/riscv.hpp **** 
  56:src/cpp/../../h/../h/riscv.hpp ****     static void popSppSpie();
  57:src/cpp/../../h/../h/riscv.hpp **** 
  58:src/cpp/../../h/../h/riscv.hpp ****     static void mc_cstatus(uint64 mask);
  59:src/cpp/../../h/../h/riscv.hpp ****     static bool cstatus_ready(uint64 mask);
  60:src/cpp/../../h/../h/riscv.hpp **** };
  61:src/cpp/../../h/../h/riscv.hpp **** 
  62:src/cpp/../../h/../h/riscv.hpp **** inline uint64 Riscv::r_a0(){
  63:src/cpp/../../h/../h/riscv.hpp ****     uint64 a0;
  64:src/cpp/../../h/../h/riscv.hpp ****     asm volatile("mv %0, a0" : "=r" (a0));
  65:src/cpp/../../h/../h/riscv.hpp ****     return a0;
  66:src/cpp/../../h/../h/riscv.hpp **** }
  67:src/cpp/../../h/../h/riscv.hpp **** 
  68:src/cpp/../../h/../h/riscv.hpp **** inline uint64 Riscv::r_a1(){
  69:src/cpp/../../h/../h/riscv.hpp ****     uint64 a0;
  70:src/cpp/../../h/../h/riscv.hpp ****     asm volatile("mv %0, a1" : "=r" (a0));
  71:src/cpp/../../h/../h/riscv.hpp ****     return a0;
  72:src/cpp/../../h/../h/riscv.hpp **** }
GAS LISTING /tmp/ccBoc6Ac.s 			page 3


  73:src/cpp/../../h/../h/riscv.hpp **** 
  74:src/cpp/../../h/../h/riscv.hpp **** inline uint64 Riscv::r_a2(){
  75:src/cpp/../../h/../h/riscv.hpp ****     uint64 a0;
  76:src/cpp/../../h/../h/riscv.hpp ****     asm volatile("mv %0, a2" : "=r" (a0));
  77:src/cpp/../../h/../h/riscv.hpp ****     return a0;
  78:src/cpp/../../h/../h/riscv.hpp **** }
  79:src/cpp/../../h/../h/riscv.hpp **** 
  80:src/cpp/../../h/../h/riscv.hpp **** inline uint64 Riscv::r_a3(){
  81:src/cpp/../../h/../h/riscv.hpp ****     uint64 a0;
  82:src/cpp/../../h/../h/riscv.hpp ****     asm volatile("mv %0, a3" : "=r" (a0));
  83:src/cpp/../../h/../h/riscv.hpp ****     return a0;
  84:src/cpp/../../h/../h/riscv.hpp **** }
  85:src/cpp/../../h/../h/riscv.hpp **** 
  86:src/cpp/../../h/../h/riscv.hpp **** inline uint64 Riscv::r_a4(){
  87:src/cpp/../../h/../h/riscv.hpp ****     uint64 a0;
  88:src/cpp/../../h/../h/riscv.hpp ****     asm volatile("mv %0, a4" : "=r" (a0));
  89:src/cpp/../../h/../h/riscv.hpp ****     return a0;
  90:src/cpp/../../h/../h/riscv.hpp **** }
  91:src/cpp/../../h/../h/riscv.hpp **** 
  92:src/cpp/../../h/../h/riscv.hpp **** 
  93:src/cpp/../../h/../h/riscv.hpp **** inline uint64 Riscv::s_a0(uint64 a0){
  94:src/cpp/../../h/../h/riscv.hpp ****     return a0;
  95:src/cpp/../../h/../h/riscv.hpp **** }
  96:src/cpp/../../h/../h/riscv.hpp **** 
  97:src/cpp/../../h/../h/riscv.hpp **** inline void Riscv::w_scause(uint64 scause){
  98:src/cpp/../../h/../h/riscv.hpp ****     asm volatile("csrw scause, %0" : : "r" (scause));
  99:src/cpp/../../h/../h/riscv.hpp **** }
 100:src/cpp/../../h/../h/riscv.hpp **** 
 101:src/cpp/../../h/../h/riscv.hpp **** inline uint64 Riscv::r_scause(){
 102:src/cpp/../../h/../h/riscv.hpp ****     uint64 volatile scause;
 103:src/cpp/../../h/../h/riscv.hpp ****     asm volatile("csrr %0, scause" : "=r" (scause));
 104:src/cpp/../../h/../h/riscv.hpp ****     return scause;
 105:src/cpp/../../h/../h/riscv.hpp **** } 
 106:src/cpp/../../h/../h/riscv.hpp **** 
 107:src/cpp/../../h/../h/riscv.hpp **** inline void Riscv::w_sepc(uint64 sepc){
 108:src/cpp/../../h/../h/riscv.hpp ****     asm volatile("csrw sepc, %0" : : "r" (sepc));
 109:src/cpp/../../h/../h/riscv.hpp **** }
 110:src/cpp/../../h/../h/riscv.hpp **** 
 111:src/cpp/../../h/../h/riscv.hpp **** inline uint64 Riscv::r_sepc(){
 112:src/cpp/../../h/../h/riscv.hpp ****     uint64 volatile sepc;
 113:src/cpp/../../h/../h/riscv.hpp ****     asm volatile("csrr %0, sepc" : "=r" (sepc));
 114:src/cpp/../../h/../h/riscv.hpp ****     return sepc;
 115:src/cpp/../../h/../h/riscv.hpp **** } 
 116:src/cpp/../../h/../h/riscv.hpp **** 
 117:src/cpp/../../h/../h/riscv.hpp **** inline void Riscv::w_stvec(uint64 stvec){
 118:src/cpp/../../h/../h/riscv.hpp ****     asm volatile("csrw stvec, %0" : : "r" (stvec));
 119:src/cpp/../../h/../h/riscv.hpp **** }
 120:src/cpp/../../h/../h/riscv.hpp **** 
 121:src/cpp/../../h/../h/riscv.hpp **** inline uint64 Riscv::r_stvec(){
 122:src/cpp/../../h/../h/riscv.hpp ****     uint64 volatile stvec;
 123:src/cpp/../../h/../h/riscv.hpp ****     asm volatile("csrr %0, stvec" : "=r" (stvec));
 124:src/cpp/../../h/../h/riscv.hpp ****     return stvec;
 125:src/cpp/../../h/../h/riscv.hpp **** } 
 126:src/cpp/../../h/../h/riscv.hpp **** 
 127:src/cpp/../../h/../h/riscv.hpp **** inline void Riscv::w_stval(uint64 stval){
 128:src/cpp/../../h/../h/riscv.hpp ****     asm volatile("csrw stval, %0" : : "r" (stval));
 129:src/cpp/../../h/../h/riscv.hpp **** }
GAS LISTING /tmp/ccBoc6Ac.s 			page 4


 130:src/cpp/../../h/../h/riscv.hpp **** 
 131:src/cpp/../../h/../h/riscv.hpp **** inline uint64 Riscv::r_stval(){
 132:src/cpp/../../h/../h/riscv.hpp ****     uint64 volatile stval;
 133:src/cpp/../../h/../h/riscv.hpp ****     asm volatile("csrr %0, stval" : "=r" (stval));
 134:src/cpp/../../h/../h/riscv.hpp ****     return stval;
 135:src/cpp/../../h/../h/riscv.hpp **** } 
 136:src/cpp/../../h/../h/riscv.hpp **** 
 137:src/cpp/../../h/../h/riscv.hpp **** inline void Riscv::ms_sip(uint64 mask){
 138:src/cpp/../../h/../h/riscv.hpp ****     asm volatile ("csrs sip, %0" : : "r" (mask));
 139:src/cpp/../../h/../h/riscv.hpp **** }
 140:src/cpp/../../h/../h/riscv.hpp **** 
 141:src/cpp/../../h/../h/riscv.hpp **** inline void Riscv::mc_sip(uint64 mask){
 142:src/cpp/../../h/../h/riscv.hpp ****     asm volatile ("csrc sip, %0" : : "r" (mask));
 143:src/cpp/../../h/../h/riscv.hpp **** }
 144:src/cpp/../../h/../h/riscv.hpp **** 
 145:src/cpp/../../h/../h/riscv.hpp **** inline void Riscv::w_sip(uint64 sip){
 146:src/cpp/../../h/../h/riscv.hpp ****     asm volatile("csrw sip, %0" : : "r" (sip));
 147:src/cpp/../../h/../h/riscv.hpp **** }
 148:src/cpp/../../h/../h/riscv.hpp **** 
 149:src/cpp/../../h/../h/riscv.hpp **** inline uint64 Riscv::r_sip(){
 150:src/cpp/../../h/../h/riscv.hpp ****     uint64 volatile sip;
 151:src/cpp/../../h/../h/riscv.hpp ****     asm volatile("csrr %0, sip" : "=r" (sip));
 152:src/cpp/../../h/../h/riscv.hpp ****     return sip;
 153:src/cpp/../../h/../h/riscv.hpp **** } 
 154:src/cpp/../../h/../h/riscv.hpp **** 
 155:src/cpp/../../h/../h/riscv.hpp **** inline void Riscv::ms_sstatus(uint64 mask){
 156:src/cpp/../../h/../h/riscv.hpp ****     asm volatile ("csrs sstatus, %0" : : "r" (mask));
 157:src/cpp/../../h/../h/riscv.hpp **** }
 158:src/cpp/../../h/../h/riscv.hpp **** 
 159:src/cpp/../../h/../h/riscv.hpp **** inline void Riscv::mc_sstatus(uint64 mask){
 160:src/cpp/../../h/../h/riscv.hpp ****     asm volatile ("csrc sstatus, %0" : : "r" (mask));
 161:src/cpp/../../h/../h/riscv.hpp **** }
 162:src/cpp/../../h/../h/riscv.hpp **** 
 163:src/cpp/../../h/../h/riscv.hpp **** inline void Riscv::w_sstatus(uint64 sstatus){
 164:src/cpp/../../h/../h/riscv.hpp ****     asm volatile("csrw sstatus, %0" : : "r" (sstatus));
 165:src/cpp/../../h/../h/riscv.hpp **** }
 166:src/cpp/../../h/../h/riscv.hpp **** 
 167:src/cpp/../../h/../h/riscv.hpp **** inline uint64 Riscv::r_sstatus(){
 168:src/cpp/../../h/../h/riscv.hpp ****     uint64 volatile sstatus;
  40              		.loc 2 168 5
 169:src/cpp/../../h/../h/riscv.hpp ****     asm volatile("csrr %0, sstatus" : "=r" (sstatus));
  41              		.loc 2 169 5
  42              		.loc 2 169 54 is_stmt 0
  43              	 #APP
  44              	# 169 "src/cpp/../../h/../h/riscv.hpp" 1
 170              	    return sstatus;
  45              		csrr a5, sstatus
  46              	# 0 "" 2
  47              	 #NO_APP
  48 002c 2334F4FA 		sd	a5,-88(s0)
  49              		.loc 2 170 5 is_stmt 1
  50              		.loc 2 170 12 is_stmt 0
  51 0030 833984FA 		ld	s3,-88(s0)
  52              	.LVL1:
  53              	.LBE37:
  54              	.LBE36:
   5:src/cpp/testing.cpp ****     Riscv::mc_sstatus(Riscv::SSTATUS_SIE);
GAS LISTING /tmp/ccBoc6Ac.s 			page 5


  55              		.loc 1 5 5 is_stmt 1
  56              	.LBB38:
  57              	.LBB39:
 160:src/cpp/../../h/../h/riscv.hpp **** }
  58              		.loc 2 160 5
 160:src/cpp/../../h/../h/riscv.hpp **** }
  59              		.loc 2 160 53 is_stmt 0
  60 0034 93072000 		li	a5,2
  61              	 #APP
  62              	# 160 "src/cpp/../../h/../h/riscv.hpp" 1
  63              		csrc sstatus, a5
  64              	# 0 "" 2
  65              	.LVL2:
  66              	 #NO_APP
  67              	.LBE39:
  68              	.LBE38:
   6:src/cpp/testing.cpp ****     char buffer[25];
  69              		.loc 1 6 5 is_stmt 1
   7:src/cpp/testing.cpp ****     uint64 unum1 = unum;
  70              		.loc 1 7 5
   8:src/cpp/testing.cpp ****     int i = 0;
  71              		.loc 1 8 5
   9:src/cpp/testing.cpp **** 
  10:src/cpp/testing.cpp ****     if(!hex){
  72              		.loc 1 10 5
  73              	.LBB40:
  74 003c 631E0604 		bne	a2,zero,.L2
  75              	.LBE40:
   8:src/cpp/testing.cpp ****     int i = 0;
  76              		.loc 1 8 9 is_stmt 0
  77 0040 93040000 		li	s1,0
  78 0044 6F00C000 		j	.L3
  79              	.LVL3:
  80              	.L8:
  81              	.LBB45:
  82              	.LBB41:
  11:src/cpp/testing.cpp ****     do{
  12:src/cpp/testing.cpp ****         buffer[i++] = '0' + unum1%10;
  83              		.loc 1 12 17
  84 0048 93040600 		mv	s1,a2
  85              	.LVL4:
  13:src/cpp/testing.cpp ****         unum1/=10;
  86              		.loc 1 13 14
  87 004c 13890700 		mv	s2,a5
  88              	.LVL5:
  89              	.L3:
  11:src/cpp/testing.cpp ****     do{
  90              		.loc 1 11 5 is_stmt 1
  12:src/cpp/testing.cpp ****         unum1/=10;
  91              		.loc 1 12 9
  12:src/cpp/testing.cpp ****         unum1/=10;
  92              		.loc 1 12 34 is_stmt 0
  93 0050 9307A000 		li	a5,10
  94 0054 3377F902 		remu	a4,s2,a5
  12:src/cpp/testing.cpp ****         unum1/=10;
  95              		.loc 1 12 17
  96 0058 1B861400 		addiw	a2,s1,1
GAS LISTING /tmp/ccBoc6Ac.s 			page 6


  97              	.LVL6:
  12:src/cpp/testing.cpp ****         unum1/=10;
  98              		.loc 1 12 27
  99 005c 13070703 		addi	a4,a4,48
  12:src/cpp/testing.cpp ****         unum1/=10;
 100              		.loc 1 12 21
 101 0060 930604FD 		addi	a3,s0,-48
 102 0064 B3869600 		add	a3,a3,s1
 103 0068 2380E6FE 		sb	a4,-32(a3)
 104              		.loc 1 13 9 is_stmt 1
 105              		.loc 1 13 14 is_stmt 0
 106 006c B357F902 		divu	a5,s2,a5
 107              	.LVL7:
  14:src/cpp/testing.cpp ****     }while(unum1 > 0);
 108              		.loc 1 14 18
 109 0070 13079000 		li	a4,9
 110 0074 E36A27FD 		bgtu	s2,a4,.L8
 111              	.LVL8:
 112              	.L5:
 113              	.LBB42:
  15:src/cpp/testing.cpp ****     for(int j = i-1; j >= 0; j--)
 114              		.loc 1 15 24 discriminator 1
 115 0078 63CC0408 		blt	s1,zero,.L4
  16:src/cpp/testing.cpp ****         __putc(buffer[j]);
 116              		.loc 1 16 9 is_stmt 1
 117              		.loc 1 16 15 is_stmt 0
 118 007c 930704FD 		addi	a5,s0,-48
 119 0080 B3879700 		add	a5,a5,s1
 120 0084 03C507FE 		lbu	a0,-32(a5)
 121 0088 97000000 		call	__putc
 121      E7800000 
 122              	.LVL9:
  15:src/cpp/testing.cpp ****     for(int j = i-1; j >= 0; j--)
 123              		.loc 1 15 5
 124 0090 9B84F4FF 		addiw	s1,s1,-1
 125              	.LVL10:
 126 0094 6FF05FFE 		j	.L5
 127              	.LVL11:
 128              	.L2:
 129              	.LBE42:
 130              	.LBE41:
 131              	.LBB43:
  17:src/cpp/testing.cpp ****     }else{
  18:src/cpp/testing.cpp ****     //__putc('\n');
  19:src/cpp/testing.cpp ****     __putc('0');
 132              		.loc 1 19 5 is_stmt 1
 133              		.loc 1 19 11 is_stmt 0
 134 0098 13050003 		li	a0,48
 135              	.LVL12:
 136 009c 97000000 		call	__putc
 136      E7800000 
 137              	.LVL13:
  20:src/cpp/testing.cpp ****     __putc('x');
 138              		.loc 1 20 5 is_stmt 1
 139              		.loc 1 20 11 is_stmt 0
 140 00a4 13058007 		li	a0,120
 141 00a8 97000000 		call	__putc
GAS LISTING /tmp/ccBoc6Ac.s 			page 7


 141      E7800000 
 142              	.LVL14:
  21:src/cpp/testing.cpp ****     
  22:src/cpp/testing.cpp ****     const char* numbers = "0123456789ABCDEF";
  23:src/cpp/testing.cpp ****     unum1 = unum;
  24:src/cpp/testing.cpp ****     i = 0;
 143              		.loc 1 24 7
 144 00b0 93040000 		li	s1,0
 145 00b4 6F00C000 		j	.L6
 146              	.LVL15:
 147              	.L9:
  25:src/cpp/testing.cpp ****     do{
  26:src/cpp/testing.cpp ****         buffer[i++] = numbers[unum1%16];
 148              		.loc 1 26 17
 149 00b8 93840600 		mv	s1,a3
 150              	.LVL16:
  27:src/cpp/testing.cpp ****         unum1/=16;
 151              		.loc 1 27 14
 152 00bc 13090700 		mv	s2,a4
 153              	.LVL17:
 154              	.L6:
  25:src/cpp/testing.cpp ****     do{
 155              		.loc 1 25 5 is_stmt 1
  26:src/cpp/testing.cpp ****         unum1/=16;
 156              		.loc 1 26 9
  26:src/cpp/testing.cpp ****         unum1/=16;
 157              		.loc 1 26 36 is_stmt 0
 158 00c0 9377F900 		andi	a5,s2,15
  26:src/cpp/testing.cpp ****         unum1/=16;
 159              		.loc 1 26 17
 160 00c4 9B861400 		addiw	a3,s1,1
 161              	.LVL18:
  26:src/cpp/testing.cpp ****         unum1/=16;
 162              		.loc 1 26 39
 163 00c8 17070000 		lla	a4,.LC0
 163      13070700 
 164 00d0 B387E700 		add	a5,a5,a4
 165 00d4 03C70700 		lbu	a4,0(a5)
  26:src/cpp/testing.cpp ****         unum1/=16;
 166              		.loc 1 26 21
 167 00d8 930704FD 		addi	a5,s0,-48
 168 00dc B3879700 		add	a5,a5,s1
 169 00e0 2380E7FE 		sb	a4,-32(a5)
 170              		.loc 1 27 9 is_stmt 1
 171              		.loc 1 27 14 is_stmt 0
 172 00e4 13574900 		srli	a4,s2,4
 173              	.LVL19:
  28:src/cpp/testing.cpp ****     } while(unum1 > 0);
 174              		.loc 1 28 19
 175 00e8 9307F000 		li	a5,15
 176 00ec E3E627FD 		bgtu	s2,a5,.L9
 177              	.LVL20:
 178              	.L7:
 179              	.LBB44:
  29:src/cpp/testing.cpp ****     for(int j = i-1; j >= 0; j--)
 180              		.loc 1 29 24 discriminator 1
 181 00f0 63C00402 		blt	s1,zero,.L4
GAS LISTING /tmp/ccBoc6Ac.s 			page 8


  30:src/cpp/testing.cpp ****         __putc(buffer[j]);
 182              		.loc 1 30 9 is_stmt 1
 183              		.loc 1 30 15 is_stmt 0
 184 00f4 930704FD 		addi	a5,s0,-48
 185 00f8 B3879700 		add	a5,a5,s1
 186 00fc 03C507FE 		lbu	a0,-32(a5)
 187 0100 97000000 		call	__putc
 187      E7800000 
 188              	.LVL21:
  29:src/cpp/testing.cpp ****     for(int j = i-1; j >= 0; j--)
 189              		.loc 1 29 5
 190 0108 9B84F4FF 		addiw	s1,s1,-1
 191              	.LVL22:
 192 010c 6FF05FFE 		j	.L7
 193              	.LVL23:
 194              	.L4:
 195              	.LBE44:
 196              	.LBE43:
 197              	.LBE45:
  31:src/cpp/testing.cpp ****     }
  32:src/cpp/testing.cpp ****     __putc(end);
 198              		.loc 1 32 5 is_stmt 1
 199              		.loc 1 32 11 is_stmt 0
 200 0110 13050A00 		mv	a0,s4
 201 0114 97000000 		call	__putc
 201      E7800000 
 202              	.LVL24:
  33:src/cpp/testing.cpp ****     Riscv::ms_sstatus(sstatus & Riscv::SSTATUS_SIE ? Riscv::SSTATUS_SIE : 0);
 203              		.loc 1 33 5 is_stmt 1
 204              		.loc 1 33 52 is_stmt 0
 205 011c 9B890900 		sext.w	s3,s3
 206              	.LVL25:
 207              		.loc 1 33 22
 208 0120 93F92900 		andi	s3,s3,2
 209 0124 9B890900 		sext.w	s3,s3
 210              	.LVL26:
 211              	.LBB46:
 212              	.LBB47:
 156:src/cpp/../../h/../h/riscv.hpp **** }
 213              		.loc 2 156 5 is_stmt 1
 156:src/cpp/../../h/../h/riscv.hpp **** }
 214              		.loc 2 156 53 is_stmt 0
 215              	 #APP
 216              	# 156 "src/cpp/../../h/../h/riscv.hpp" 1
 217              		csrs sstatus, s3
 218              	# 0 "" 2
 219              	.LVL27:
 220              	 #NO_APP
 221              	.LBE47:
 222              	.LBE46:
  34:src/cpp/testing.cpp **** }
 223              		.loc 1 34 1
 224 012c 83308105 		ld	ra,88(sp)
 225              		.cfi_restore 1
 226 0130 03340105 		ld	s0,80(sp)
 227              		.cfi_restore 8
 228              		.cfi_def_cfa 2, 96
GAS LISTING /tmp/ccBoc6Ac.s 			page 9


 229 0134 83348104 		ld	s1,72(sp)
 230              		.cfi_restore 9
 231 0138 03390104 		ld	s2,64(sp)
 232              		.cfi_restore 18
 233 013c 83398103 		ld	s3,56(sp)
 234              		.cfi_restore 19
 235 0140 033A0103 		ld	s4,48(sp)
 236              		.cfi_restore 20
 237 0144 13010106 		addi	sp,sp,96
 238              		.cfi_def_cfa_offset 0
 239 0148 67800000 		jr	ra
 240              		.cfi_endproc
 241              	.LFE42:
 243              		.align	2
 244              		.globl	_Z5printPKcc
 246              	_Z5printPKcc:
 247              	.LFB43:
  35:src/cpp/testing.cpp **** 
  36:src/cpp/testing.cpp **** void print(const char* str, char end){
 248              		.loc 1 36 38 is_stmt 1
 249              		.cfi_startproc
 250              	.LVL28:
 251 014c 130101FC 		addi	sp,sp,-64
 252              		.cfi_def_cfa_offset 64
 253 0150 233C1102 		sd	ra,56(sp)
 254 0154 23388102 		sd	s0,48(sp)
 255 0158 23349102 		sd	s1,40(sp)
 256 015c 23302103 		sd	s2,32(sp)
 257 0160 233C3101 		sd	s3,24(sp)
 258 0164 23384101 		sd	s4,16(sp)
 259              		.cfi_offset 1, -8
 260              		.cfi_offset 8, -16
 261              		.cfi_offset 9, -24
 262              		.cfi_offset 18, -32
 263              		.cfi_offset 19, -40
 264              		.cfi_offset 20, -48
 265 0168 13040104 		addi	s0,sp,64
 266              		.cfi_def_cfa 8, 0
 267 016c 13090500 		mv	s2,a0
 268 0170 138A0500 		mv	s4,a1
  37:src/cpp/testing.cpp ****     uint64 sstatus = Riscv::r_sstatus();
 269              		.loc 1 37 5
 270              	.LBB48:
 271              	.LBB49:
 168:src/cpp/../../h/../h/riscv.hpp ****     asm volatile("csrr %0, sstatus" : "=r" (sstatus));
 272              		.loc 2 168 5
 169:src/cpp/../../h/../h/riscv.hpp ****     return sstatus;
 273              		.loc 2 169 5
 169:src/cpp/../../h/../h/riscv.hpp ****     return sstatus;
 274              		.loc 2 169 54 is_stmt 0
 275              	 #APP
 276              	# 169 "src/cpp/../../h/../h/riscv.hpp" 1
 277              		csrr a5, sstatus
 278              	# 0 "" 2
 279              	 #NO_APP
 280 0178 2334F4FC 		sd	a5,-56(s0)
 281              		.loc 2 170 5 is_stmt 1
GAS LISTING /tmp/ccBoc6Ac.s 			page 10


 282              		.loc 2 170 12 is_stmt 0
 283 017c 833984FC 		ld	s3,-56(s0)
 284              	.LVL29:
 285              	.LBE49:
 286              	.LBE48:
  38:src/cpp/testing.cpp ****     Riscv::mc_sstatus(Riscv::SSTATUS_SIE);
 287              		.loc 1 38 5 is_stmt 1
 288              	.LBB50:
 289              	.LBB51:
 160:src/cpp/../../h/../h/riscv.hpp **** }
 290              		.loc 2 160 5
 160:src/cpp/../../h/../h/riscv.hpp **** }
 291              		.loc 2 160 53 is_stmt 0
 292 0180 93072000 		li	a5,2
 293              	 #APP
 294              	# 160 "src/cpp/../../h/../h/riscv.hpp" 1
 295              		csrc sstatus, a5
 296              	# 0 "" 2
 297              	.LVL30:
 298              	 #NO_APP
 299              	.LBE51:
 300              	.LBE50:
  39:src/cpp/testing.cpp ****     for(int i = 0; str[i]; i++)
 301              		.loc 1 39 5 is_stmt 1
 302              	.LBB52:
 303              		.loc 1 39 13 is_stmt 0
 304 0188 93040000 		li	s1,0
 305              	.LVL31:
 306              	.L13:
 307              		.loc 1 39 25 discriminator 3
 308 018c B3079900 		add	a5,s2,s1
 309 0190 03C50700 		lbu	a0,0(a5)
 310 0194 630A0500 		beq	a0,zero,.L12
  40:src/cpp/testing.cpp ****         __putc(str[i]);
 311              		.loc 1 40 9 is_stmt 1 discriminator 2
 312              		.loc 1 40 15 is_stmt 0 discriminator 2
 313 0198 97000000 		call	__putc
 313      E7800000 
 314              	.LVL32:
  39:src/cpp/testing.cpp ****     for(int i = 0; str[i]; i++)
 315              		.loc 1 39 5 discriminator 2
 316 01a0 9B841400 		addiw	s1,s1,1
 317              	.LVL33:
 318 01a4 6FF09FFE 		j	.L13
 319              	.LVL34:
 320              	.L12:
 321              	.LBE52:
  41:src/cpp/testing.cpp ****     __putc(end);
 322              		.loc 1 41 5 is_stmt 1
 323              		.loc 1 41 11 is_stmt 0
 324 01a8 13050A00 		mv	a0,s4
 325 01ac 97000000 		call	__putc
 325      E7800000 
 326              	.LVL35:
  42:src/cpp/testing.cpp ****     Riscv::ms_sstatus(sstatus & Riscv::SSTATUS_SIE ? Riscv::SSTATUS_SIE : 0);
 327              		.loc 1 42 5 is_stmt 1
 328              		.loc 1 42 52 is_stmt 0
GAS LISTING /tmp/ccBoc6Ac.s 			page 11


 329 01b4 9B890900 		sext.w	s3,s3
 330              	.LVL36:
 331              		.loc 1 42 22
 332 01b8 93F92900 		andi	s3,s3,2
 333 01bc 9B890900 		sext.w	s3,s3
 334              	.LVL37:
 335              	.LBB53:
 336              	.LBB54:
 156:src/cpp/../../h/../h/riscv.hpp **** }
 337              		.loc 2 156 5 is_stmt 1
 156:src/cpp/../../h/../h/riscv.hpp **** }
 338              		.loc 2 156 53 is_stmt 0
 339              	 #APP
 340              	# 156 "src/cpp/../../h/../h/riscv.hpp" 1
 341              		csrs sstatus, s3
 342              	# 0 "" 2
 343              	.LVL38:
 344              	 #NO_APP
 345              	.LBE54:
 346              	.LBE53:
  43:src/cpp/testing.cpp **** 
  44:src/cpp/testing.cpp **** }
 347              		.loc 1 44 1
 348 01c4 83308103 		ld	ra,56(sp)
 349              		.cfi_restore 1
 350 01c8 03340103 		ld	s0,48(sp)
 351              		.cfi_restore 8
 352              		.cfi_def_cfa 2, 64
 353 01cc 83348102 		ld	s1,40(sp)
 354              		.cfi_restore 9
 355              	.LVL39:
 356 01d0 03390102 		ld	s2,32(sp)
 357              		.cfi_restore 18
 358              	.LVL40:
 359 01d4 83398101 		ld	s3,24(sp)
 360              		.cfi_restore 19
 361 01d8 033A0101 		ld	s4,16(sp)
 362              		.cfi_restore 20
 363 01dc 13010104 		addi	sp,sp,64
 364              		.cfi_def_cfa_offset 0
 365 01e0 67800000 		jr	ra
 366              		.cfi_endproc
 367              	.LFE43:
 369              		.align	2
 370              		.globl	_Z5printPKcmb
 372              	_Z5printPKcmb:
 373              	.LFB44:
  45:src/cpp/testing.cpp **** 
  46:src/cpp/testing.cpp **** void print(const char* str, uint64 t, bool hex){
 374              		.loc 1 46 48 is_stmt 1
 375              		.cfi_startproc
 376              	.LVL41:
 377 01e4 130101FC 		addi	sp,sp,-64
 378              		.cfi_def_cfa_offset 64
 379 01e8 233C1102 		sd	ra,56(sp)
 380 01ec 23388102 		sd	s0,48(sp)
 381 01f0 23349102 		sd	s1,40(sp)
GAS LISTING /tmp/ccBoc6Ac.s 			page 12


 382 01f4 23302103 		sd	s2,32(sp)
 383 01f8 233C3101 		sd	s3,24(sp)
 384              		.cfi_offset 1, -8
 385              		.cfi_offset 8, -16
 386              		.cfi_offset 9, -24
 387              		.cfi_offset 18, -32
 388              		.cfi_offset 19, -40
 389 01fc 13040104 		addi	s0,sp,64
 390              		.cfi_def_cfa 8, 0
 391 0200 13890500 		mv	s2,a1
 392 0204 93090600 		mv	s3,a2
  47:src/cpp/testing.cpp ****     uint64 sstatus = Riscv::r_sstatus();
 393              		.loc 1 47 5
 394              	.LBB55:
 395              	.LBB56:
 168:src/cpp/../../h/../h/riscv.hpp ****     asm volatile("csrr %0, sstatus" : "=r" (sstatus));
 396              		.loc 2 168 5
 169:src/cpp/../../h/../h/riscv.hpp ****     return sstatus;
 397              		.loc 2 169 5
 169:src/cpp/../../h/../h/riscv.hpp ****     return sstatus;
 398              		.loc 2 169 54 is_stmt 0
 399              	 #APP
 400              	# 169 "src/cpp/../../h/../h/riscv.hpp" 1
 401              		csrr a5, sstatus
 402              	# 0 "" 2
 403              	 #NO_APP
 404 020c 2334F4FC 		sd	a5,-56(s0)
 405              		.loc 2 170 5 is_stmt 1
 406              		.loc 2 170 12 is_stmt 0
 407 0210 833484FC 		ld	s1,-56(s0)
 408              	.LVL42:
 409              	.LBE56:
 410              	.LBE55:
  48:src/cpp/testing.cpp ****     Riscv::mc_sstatus(Riscv::SSTATUS_SIE);
 411              		.loc 1 48 5 is_stmt 1
 412              	.LBB57:
 413              	.LBB58:
 160:src/cpp/../../h/../h/riscv.hpp **** }
 414              		.loc 2 160 5
 160:src/cpp/../../h/../h/riscv.hpp **** }
 415              		.loc 2 160 53 is_stmt 0
 416 0214 93072000 		li	a5,2
 417              	 #APP
 418              	# 160 "src/cpp/../../h/../h/riscv.hpp" 1
 419              		csrc sstatus, a5
 420              	# 0 "" 2
 421              	.LVL43:
 422              	 #NO_APP
 423              	.LBE58:
 424              	.LBE57:
  49:src/cpp/testing.cpp ****     print(str, ' ');
 425              		.loc 1 49 5 is_stmt 1
 426              		.loc 1 49 10 is_stmt 0
 427 021c 93050002 		li	a1,32
 428              	.LVL44:
 429 0220 97000000 		call	_Z5printPKcc
 429      E7800000 
GAS LISTING /tmp/ccBoc6Ac.s 			page 13


 430              	.LVL45:
  50:src/cpp/testing.cpp ****     print(t, '\n', hex);
 431              		.loc 1 50 5 is_stmt 1
 432              		.loc 1 50 10 is_stmt 0
 433 0228 13860900 		mv	a2,s3
 434 022c 9305A000 		li	a1,10
 435 0230 13050900 		mv	a0,s2
 436 0234 97000000 		call	_Z5printmcb
 436      E7800000 
 437              	.LVL46:
  51:src/cpp/testing.cpp ****     Riscv::ms_sstatus(sstatus & Riscv::SSTATUS_SIE ? Riscv::SSTATUS_SIE : 0);
 438              		.loc 1 51 5 is_stmt 1
 439              		.loc 1 51 52 is_stmt 0
 440 023c 9B840400 		sext.w	s1,s1
 441              	.LVL47:
 442              		.loc 1 51 22
 443 0240 93F42400 		andi	s1,s1,2
 444 0244 9B840400 		sext.w	s1,s1
 445              	.LVL48:
 446              	.LBB59:
 447              	.LBB60:
 156:src/cpp/../../h/../h/riscv.hpp **** }
 448              		.loc 2 156 5 is_stmt 1
 156:src/cpp/../../h/../h/riscv.hpp **** }
 449              		.loc 2 156 53 is_stmt 0
 450              	 #APP
 451              	# 156 "src/cpp/../../h/../h/riscv.hpp" 1
 452              		csrs sstatus, s1
 453              	# 0 "" 2
 454              	.LVL49:
 455              	 #NO_APP
 456              	.LBE60:
 457              	.LBE59:
  52:src/cpp/testing.cpp **** }
 458              		.loc 1 52 1
 459 024c 83308103 		ld	ra,56(sp)
 460              		.cfi_restore 1
 461 0250 03340103 		ld	s0,48(sp)
 462              		.cfi_restore 8
 463              		.cfi_def_cfa 2, 64
 464 0254 83348102 		ld	s1,40(sp)
 465              		.cfi_restore 9
 466 0258 03390102 		ld	s2,32(sp)
 467              		.cfi_restore 18
 468              	.LVL50:
 469 025c 83398101 		ld	s3,24(sp)
 470              		.cfi_restore 19
 471 0260 13010104 		addi	sp,sp,64
 472              		.cfi_def_cfa_offset 0
 473 0264 67800000 		jr	ra
 474              		.cfi_endproc
 475              	.LFE44:
 477              		.align	2
 478              		.globl	_Z9allocTestR15MemoryAllocatorm
 480              	_Z9allocTestR15MemoryAllocatorm:
 481              	.LFB45:
  53:src/cpp/testing.cpp **** 
GAS LISTING /tmp/ccBoc6Ac.s 			page 14


  54:src/cpp/testing.cpp **** void* allocTest(MemoryAllocator& allocator, size_t size){
 482              		.loc 1 54 57 is_stmt 1
 483              		.cfi_startproc
 484              	.LVL51:
 485 0268 130101FE 		addi	sp,sp,-32
 486              		.cfi_def_cfa_offset 32
 487 026c 233C1100 		sd	ra,24(sp)
 488 0270 23388100 		sd	s0,16(sp)
 489 0274 23349100 		sd	s1,8(sp)
 490 0278 23302101 		sd	s2,0(sp)
 491              		.cfi_offset 1, -8
 492              		.cfi_offset 8, -16
 493              		.cfi_offset 9, -24
 494              		.cfi_offset 18, -32
 495 027c 13040102 		addi	s0,sp,32
 496              		.cfi_def_cfa 8, 0
 497 0280 93040500 		mv	s1,a0
 498 0284 13890500 		mv	s2,a1
  55:src/cpp/testing.cpp ****     print("\nAlokacija", ' ');
 499              		.loc 1 55 5
 500              		.loc 1 55 10 is_stmt 0
 501 0288 93050002 		li	a1,32
 502              	.LVL52:
 503 028c 17050000 		lla	a0,.LC1
 503      13050500 
 504              	.LVL53:
 505 0294 97000000 		call	_Z5printPKcc
 505      E7800000 
 506              	.LVL54:
  56:src/cpp/testing.cpp ****     print(size, ' ');
 507              		.loc 1 56 5 is_stmt 1
 508              		.loc 1 56 10 is_stmt 0
 509 029c 13061000 		li	a2,1
 510 02a0 93050002 		li	a1,32
 511 02a4 13050900 		mv	a0,s2
 512 02a8 97000000 		call	_Z5printmcb
 512      E7800000 
 513              	.LVL55:
  57:src/cpp/testing.cpp ****     print("blokova");
 514              		.loc 1 57 5 is_stmt 1
 515              		.loc 1 57 10 is_stmt 0
 516 02b0 9305A000 		li	a1,10
 517 02b4 17050000 		lla	a0,.LC2
 517      13050500 
 518 02bc 97000000 		call	_Z5printPKcc
 518      E7800000 
 519              	.LVL56:
  58:src/cpp/testing.cpp ****     char* newblc = (char*)allocator.mem_alloc(size);
 520              		.loc 1 58 5 is_stmt 1
 521              		.loc 1 58 46 is_stmt 0
 522 02c4 93050900 		mv	a1,s2
 523 02c8 13850400 		mv	a0,s1
 524 02cc 97000000 		call	_ZN15MemoryAllocator9mem_allocEm
 524      E7800000 
 525              	.LVL57:
 526 02d4 13090500 		mv	s2,a0
 527              	.LVL58:
GAS LISTING /tmp/ccBoc6Ac.s 			page 15


  59:src/cpp/testing.cpp ****     allocator.print_list();  
 528              		.loc 1 59 5 is_stmt 1
 529              		.loc 1 59 25 is_stmt 0
 530 02d8 13850400 		mv	a0,s1
 531              	.LVL59:
 532 02dc 97000000 		call	_ZN15MemoryAllocator10print_listEv
 532      E7800000 
 533              	.LVL60:
  60:src/cpp/testing.cpp ****     return newblc;
 534              		.loc 1 60 5 is_stmt 1
  61:src/cpp/testing.cpp **** }
 535              		.loc 1 61 1 is_stmt 0
 536 02e4 13050900 		mv	a0,s2
 537 02e8 83308101 		ld	ra,24(sp)
 538              		.cfi_restore 1
 539 02ec 03340101 		ld	s0,16(sp)
 540              		.cfi_restore 8
 541              		.cfi_def_cfa 2, 32
 542 02f0 83348100 		ld	s1,8(sp)
 543              		.cfi_restore 9
 544              	.LVL61:
 545 02f4 03390100 		ld	s2,0(sp)
 546              		.cfi_restore 18
 547              	.LVL62:
 548 02f8 13010102 		addi	sp,sp,32
 549              		.cfi_def_cfa_offset 0
 550 02fc 67800000 		jr	ra
 551              		.cfi_endproc
 552              	.LFE45:
 554              		.align	2
 555              		.globl	_Z8freeTestR15MemoryAllocatorPv
 557              	_Z8freeTestR15MemoryAllocatorPv:
 558              	.LFB46:
  62:src/cpp/testing.cpp **** 
  63:src/cpp/testing.cpp **** void freeTest(MemoryAllocator& allocator, void* adr){
 559              		.loc 1 63 53 is_stmt 1
 560              		.cfi_startproc
 561              	.LVL63:
 562 0300 130101FE 		addi	sp,sp,-32
 563              		.cfi_def_cfa_offset 32
 564 0304 233C1100 		sd	ra,24(sp)
 565 0308 23388100 		sd	s0,16(sp)
 566 030c 23349100 		sd	s1,8(sp)
 567 0310 23302101 		sd	s2,0(sp)
 568              		.cfi_offset 1, -8
 569              		.cfi_offset 8, -16
 570              		.cfi_offset 9, -24
 571              		.cfi_offset 18, -32
 572 0314 13040102 		addi	s0,sp,32
 573              		.cfi_def_cfa 8, 0
 574 0318 93040500 		mv	s1,a0
 575 031c 13890500 		mv	s2,a1
  64:src/cpp/testing.cpp ****     print("\nDealogkacija");
 576              		.loc 1 64 5
 577              		.loc 1 64 10 is_stmt 0
 578 0320 9305A000 		li	a1,10
 579              	.LVL64:
GAS LISTING /tmp/ccBoc6Ac.s 			page 16


 580 0324 17050000 		lla	a0,.LC3
 580      13050500 
 581              	.LVL65:
 582 032c 97000000 		call	_Z5printPKcc
 582      E7800000 
 583              	.LVL66:
  65:src/cpp/testing.cpp ****     if(allocator.mem_free(adr) < 0)
 584              		.loc 1 65 5 is_stmt 1
 585              		.loc 1 65 26 is_stmt 0
 586 0334 93050900 		mv	a1,s2
 587 0338 13850400 		mv	a0,s1
 588 033c 97000000 		call	_ZN15MemoryAllocator8mem_freeEPv
 588      E7800000 
 589              	.LVL67:
 590              		.loc 1 65 5
 591 0344 63480502 		blt	a0,zero,.L23
  66:src/cpp/testing.cpp ****         allocator.print_list();
  67:src/cpp/testing.cpp ****     else
  68:src/cpp/testing.cpp ****         print("Greska Pri Dealokaciji");
 592              		.loc 1 68 9 is_stmt 1
 593              		.loc 1 68 14 is_stmt 0
 594 0348 9305A000 		li	a1,10
 595 034c 17050000 		lla	a0,.LC4
 595      13050500 
 596 0354 97000000 		call	_Z5printPKcc
 596      E7800000 
 597              	.LVL68:
 598              	.L19:
  69:src/cpp/testing.cpp **** }
 599              		.loc 1 69 1
 600 035c 83308101 		ld	ra,24(sp)
 601              		.cfi_remember_state
 602              		.cfi_restore 1
 603 0360 03340101 		ld	s0,16(sp)
 604              		.cfi_restore 8
 605              		.cfi_def_cfa 2, 32
 606 0364 83348100 		ld	s1,8(sp)
 607              		.cfi_restore 9
 608              	.LVL69:
 609 0368 03390100 		ld	s2,0(sp)
 610              		.cfi_restore 18
 611              	.LVL70:
 612 036c 13010102 		addi	sp,sp,32
 613              		.cfi_def_cfa_offset 0
 614 0370 67800000 		jr	ra
 615              	.LVL71:
 616              	.L23:
 617              		.cfi_restore_state
  66:src/cpp/testing.cpp ****         allocator.print_list();
 618              		.loc 1 66 9 is_stmt 1
  66:src/cpp/testing.cpp ****         allocator.print_list();
 619              		.loc 1 66 29 is_stmt 0
 620 0374 13850400 		mv	a0,s1
 621 0378 97000000 		call	_ZN15MemoryAllocator10print_listEv
 621      E7800000 
 622              	.LVL72:
 623 0380 6FF0DFFD 		j	.L19
GAS LISTING /tmp/ccBoc6Ac.s 			page 17


 624              		.cfi_endproc
 625              	.LFE46:
 627              		.align	2
 628              		.globl	_Z7memTestv
 630              	_Z7memTestv:
 631              	.LFB47:
  70:src/cpp/testing.cpp **** 
  71:src/cpp/testing.cpp **** void memTest(){
 632              		.loc 1 71 15 is_stmt 1
 633              		.cfi_startproc
 634 0384 130101FE 		addi	sp,sp,-32
 635              		.cfi_def_cfa_offset 32
 636 0388 233C1100 		sd	ra,24(sp)
 637 038c 23388100 		sd	s0,16(sp)
 638 0390 23349100 		sd	s1,8(sp)
 639 0394 23302101 		sd	s2,0(sp)
 640              		.cfi_offset 1, -8
 641              		.cfi_offset 8, -16
 642              		.cfi_offset 9, -24
 643              		.cfi_offset 18, -32
 644 0398 13040102 		addi	s0,sp,32
 645              		.cfi_def_cfa 8, 0
  72:src/cpp/testing.cpp ****     MemoryAllocator& allocator = MemoryAllocator::getInstance();
 646              		.loc 1 72 5
 647              		.loc 1 72 63 is_stmt 0
 648 039c 97000000 		call	_ZN15MemoryAllocator11getInstanceEv
 648      E7800000 
 649              	.LVL73:
 650 03a4 93040500 		mv	s1,a0
 651              	.LVL74:
  73:src/cpp/testing.cpp ****     allocator.print_list();
 652              		.loc 1 73 5 is_stmt 1
 653              		.loc 1 73 25 is_stmt 0
 654 03a8 97000000 		call	_ZN15MemoryAllocator10print_listEv
 654      E7800000 
 655              	.LVL75:
  74:src/cpp/testing.cpp **** 
  75:src/cpp/testing.cpp ****     mem_alloc(50);
 656              		.loc 1 75 5 is_stmt 1
 657              		.loc 1 75 14 is_stmt 0
 658 03b0 13052003 		li	a0,50
 659 03b4 97000000 		call	mem_alloc
 659      E7800000 
 660              	.LVL76:
  76:src/cpp/testing.cpp ****     
  77:src/cpp/testing.cpp ****     allocator.print_list();
 661              		.loc 1 77 5 is_stmt 1
 662              		.loc 1 77 25 is_stmt 0
 663 03bc 13850400 		mv	a0,s1
 664 03c0 97000000 		call	_ZN15MemoryAllocator10print_listEv
 664      E7800000 
 665              	.LVL77:
  78:src/cpp/testing.cpp **** 
  79:src/cpp/testing.cpp ****     char* t = (char*)mem_alloc(100);
 666              		.loc 1 79 5 is_stmt 1
 667              		.loc 1 79 31 is_stmt 0
 668 03c8 13054006 		li	a0,100
GAS LISTING /tmp/ccBoc6Ac.s 			page 18


 669 03cc 97000000 		call	mem_alloc
 669      E7800000 
 670              	.LVL78:
 671 03d4 13090500 		mv	s2,a0
 672              	.LVL79:
  80:src/cpp/testing.cpp ****     print("t:", (uint64)t, 0);
 673              		.loc 1 80 5 is_stmt 1
 674              		.loc 1 80 10 is_stmt 0
 675 03d8 13060000 		li	a2,0
 676 03dc 93050500 		mv	a1,a0
 677 03e0 17050000 		lla	a0,.LC5
 677      13050500 
 678              	.LVL80:
 679 03e8 97000000 		call	_Z5printPKcmb
 679      E7800000 
 680              	.LVL81:
  81:src/cpp/testing.cpp **** 
  82:src/cpp/testing.cpp ****     allocator.print_list();
 681              		.loc 1 82 5 is_stmt 1
 682              		.loc 1 82 25 is_stmt 0
 683 03f0 13850400 		mv	a0,s1
 684 03f4 97000000 		call	_ZN15MemoryAllocator10print_listEv
 684      E7800000 
 685              	.LVL82:
  83:src/cpp/testing.cpp **** 
  84:src/cpp/testing.cpp ****     mem_alloc(300);
 686              		.loc 1 84 5 is_stmt 1
 687              		.loc 1 84 14 is_stmt 0
 688 03fc 1305C012 		li	a0,300
 689 0400 97000000 		call	mem_alloc
 689      E7800000 
 690              	.LVL83:
  85:src/cpp/testing.cpp **** 
  86:src/cpp/testing.cpp ****     allocator.print_list();
 691              		.loc 1 86 5 is_stmt 1
 692              		.loc 1 86 25 is_stmt 0
 693 0408 13850400 		mv	a0,s1
 694 040c 97000000 		call	_ZN15MemoryAllocator10print_listEv
 694      E7800000 
 695              	.LVL84:
  87:src/cpp/testing.cpp ****     
  88:src/cpp/testing.cpp ****     print("free_res:", mem_free(t), 0);
 696              		.loc 1 88 5 is_stmt 1
 697              		.loc 1 88 32 is_stmt 0
 698 0414 13050900 		mv	a0,s2
 699 0418 97000000 		call	mem_free
 699      E7800000 
 700              	.LVL85:
 701              		.loc 1 88 10
 702 0420 13060000 		li	a2,0
 703 0424 93050500 		mv	a1,a0
 704 0428 17050000 		lla	a0,.LC6
 704      13050500 
 705 0430 97000000 		call	_Z5printPKcmb
 705      E7800000 
 706              	.LVL86:
  89:src/cpp/testing.cpp ****     
GAS LISTING /tmp/ccBoc6Ac.s 			page 19


  90:src/cpp/testing.cpp ****     allocator.print_list();
 707              		.loc 1 90 5 is_stmt 1
 708              		.loc 1 90 25 is_stmt 0
 709 0438 13850400 		mv	a0,s1
 710 043c 97000000 		call	_ZN15MemoryAllocator10print_listEv
 710      E7800000 
 711              	.LVL87:
  91:src/cpp/testing.cpp **** }
 712              		.loc 1 91 1
 713 0444 83308101 		ld	ra,24(sp)
 714              		.cfi_restore 1
 715 0448 03340101 		ld	s0,16(sp)
 716              		.cfi_restore 8
 717              		.cfi_def_cfa 2, 32
 718 044c 83348100 		ld	s1,8(sp)
 719              		.cfi_restore 9
 720              	.LVL88:
 721 0450 03390100 		ld	s2,0(sp)
 722              		.cfi_restore 18
 723              	.LVL89:
 724 0454 13010102 		addi	sp,sp,32
 725              		.cfi_def_cfa_offset 0
 726 0458 67800000 		jr	ra
 727              		.cfi_endproc
 728              	.LFE47:
 730              		.align	2
 731              		.globl	_Z8print_a0v
 733              	_Z8print_a0v:
 734              	.LFB48:
  92:src/cpp/testing.cpp **** 
  93:src/cpp/testing.cpp **** void print_a0(){
 735              		.loc 1 93 16 is_stmt 1
 736              		.cfi_startproc
 737 045c 130101FE 		addi	sp,sp,-32
 738              		.cfi_def_cfa_offset 32
 739 0460 233C1100 		sd	ra,24(sp)
 740 0464 23388100 		sd	s0,16(sp)
 741 0468 23349100 		sd	s1,8(sp)
 742              		.cfi_offset 1, -8
 743              		.cfi_offset 8, -16
 744              		.cfi_offset 9, -24
 745 046c 13040102 		addi	s0,sp,32
 746              		.cfi_def_cfa 8, 0
  94:src/cpp/testing.cpp ****     uint64 a0 = Riscv::r_a0();
 747              		.loc 1 94 5
 748              	.LBB61:
 749              	.LBB62:
  63:src/cpp/../../h/../h/riscv.hpp ****     asm volatile("mv %0, a0" : "=r" (a0));
 750              		.loc 2 63 5
  64:src/cpp/../../h/../h/riscv.hpp ****     return a0;
 751              		.loc 2 64 5
  64:src/cpp/../../h/../h/riscv.hpp ****     return a0;
 752              		.loc 2 64 42 is_stmt 0
 753              	 #APP
 754              	# 64 "src/cpp/../../h/../h/riscv.hpp" 1
 755              		mv s1, a0
 756              	# 0 "" 2
GAS LISTING /tmp/ccBoc6Ac.s 			page 20


 757              	.LVL90:
  65:src/cpp/../../h/../h/riscv.hpp **** }
 758              		.loc 2 65 5 is_stmt 1
 759              	 #NO_APP
 760              	.LBE62:
 761              	.LBE61:
  95:src/cpp/testing.cpp ****     print("a0:", ' ');
 762              		.loc 1 95 5
 763              		.loc 1 95 10 is_stmt 0
 764 0474 93050002 		li	a1,32
 765 0478 17050000 		lla	a0,.LC7
 765      13050500 
 766 0480 97000000 		call	_Z5printPKcc
 766      E7800000 
 767              	.LVL91:
  96:src/cpp/testing.cpp ****     print(a0, '\n', 1);
 768              		.loc 1 96 5 is_stmt 1
 769              		.loc 1 96 10 is_stmt 0
 770 0488 13061000 		li	a2,1
 771 048c 9305A000 		li	a1,10
 772 0490 13850400 		mv	a0,s1
 773 0494 97000000 		call	_Z5printmcb
 773      E7800000 
 774              	.LVL92:
  97:src/cpp/testing.cpp ****     //asm volatile("mv a0, %0" : : "r" (a0));
  98:src/cpp/testing.cpp **** }
 775              		.loc 1 98 1
 776 049c 83308101 		ld	ra,24(sp)
 777              		.cfi_restore 1
 778 04a0 03340101 		ld	s0,16(sp)
 779              		.cfi_restore 8
 780              		.cfi_def_cfa 2, 32
 781 04a4 83348100 		ld	s1,8(sp)
 782              		.cfi_restore 9
 783              	.LVL93:
 784 04a8 13010102 		addi	sp,sp,32
 785              		.cfi_def_cfa_offset 0
 786 04ac 67800000 		jr	ra
 787              		.cfi_endproc
 788              	.LFE48:
 790              		.align	2
 791              		.globl	_Z19print_sup_registersv
 793              	_Z19print_sup_registersv:
 794              	.LFB49:
  99:src/cpp/testing.cpp **** 
 100:src/cpp/testing.cpp **** void print_sup_registers(){ 
 795              		.loc 1 100 27 is_stmt 1
 796              		.cfi_startproc
 797 04b0 130101FD 		addi	sp,sp,-48
 798              		.cfi_def_cfa_offset 48
 799 04b4 23341102 		sd	ra,40(sp)
 800 04b8 23308102 		sd	s0,32(sp)
 801              		.cfi_offset 1, -8
 802              		.cfi_offset 8, -16
 803 04bc 13040103 		addi	s0,sp,48
 804              		.cfi_def_cfa 8, 0
 101:src/cpp/testing.cpp **** 
GAS LISTING /tmp/ccBoc6Ac.s 			page 21


 102:src/cpp/testing.cpp ****     print("sstatus:",' ');
 805              		.loc 1 102 5
 806              		.loc 1 102 10 is_stmt 0
 807 04c0 93050002 		li	a1,32
 808 04c4 17050000 		lla	a0,.LC8
 808      13050500 
 809 04cc 97000000 		call	_Z5printPKcc
 809      E7800000 
 810              	.LVL94:
 103:src/cpp/testing.cpp ****     print(Riscv::r_sstatus(), '\n', 1);
 811              		.loc 1 103 5 is_stmt 1
 812              	.LBB63:
 813              	.LBB64:
 168:src/cpp/../../h/../h/riscv.hpp ****     asm volatile("csrr %0, sstatus" : "=r" (sstatus));
 814              		.loc 2 168 5
 169:src/cpp/../../h/../h/riscv.hpp ****     return sstatus;
 815              		.loc 2 169 5
 169:src/cpp/../../h/../h/riscv.hpp ****     return sstatus;
 816              		.loc 2 169 54 is_stmt 0
 817              	 #APP
 818              	# 169 "src/cpp/../../h/../h/riscv.hpp" 1
 819              		csrr a5, sstatus
 820              	# 0 "" 2
 821              	 #NO_APP
 822 04d8 2334F4FE 		sd	a5,-24(s0)
 823              		.loc 2 170 5 is_stmt 1
 824              		.loc 2 170 12 is_stmt 0
 825 04dc 033584FE 		ld	a0,-24(s0)
 826              	.LBE64:
 827              	.LBE63:
 828              		.loc 1 103 10
 829 04e0 13061000 		li	a2,1
 830 04e4 9305A000 		li	a1,10
 831 04e8 97000000 		call	_Z5printmcb
 831      E7800000 
 832              	.LVL95:
 104:src/cpp/testing.cpp **** 
 105:src/cpp/testing.cpp ****     print("sip:",' ');
 833              		.loc 1 105 5 is_stmt 1
 834              		.loc 1 105 10 is_stmt 0
 835 04f0 93050002 		li	a1,32
 836 04f4 17050000 		lla	a0,.LC9
 836      13050500 
 837 04fc 97000000 		call	_Z5printPKcc
 837      E7800000 
 838              	.LVL96:
 106:src/cpp/testing.cpp ****     print(Riscv::r_sip(), '\n', 1);
 839              		.loc 1 106 5 is_stmt 1
 840              	.LBB65:
 841              	.LBB66:
 150:src/cpp/../../h/../h/riscv.hpp ****     asm volatile("csrr %0, sip" : "=r" (sip));
 842              		.loc 2 150 5
 151:src/cpp/../../h/../h/riscv.hpp ****     return sip;
 843              		.loc 2 151 5
 151:src/cpp/../../h/../h/riscv.hpp ****     return sip;
 844              		.loc 2 151 46 is_stmt 0
 845              	 #APP
GAS LISTING /tmp/ccBoc6Ac.s 			page 22


 846              	# 151 "src/cpp/../../h/../h/riscv.hpp" 1
 847              		csrr a5, sip
 848              	# 0 "" 2
 849              	 #NO_APP
 850 0508 2330F4FE 		sd	a5,-32(s0)
 152:src/cpp/../../h/../h/riscv.hpp **** } 
 851              		.loc 2 152 5 is_stmt 1
 152:src/cpp/../../h/../h/riscv.hpp **** } 
 852              		.loc 2 152 12 is_stmt 0
 853 050c 033504FE 		ld	a0,-32(s0)
 854              	.LBE66:
 855              	.LBE65:
 856              		.loc 1 106 10
 857 0510 13061000 		li	a2,1
 858 0514 9305A000 		li	a1,10
 859 0518 97000000 		call	_Z5printmcb
 859      E7800000 
 860              	.LVL97:
 107:src/cpp/testing.cpp **** 
 108:src/cpp/testing.cpp ****     print("stval:",' ');
 861              		.loc 1 108 5 is_stmt 1
 862              		.loc 1 108 10 is_stmt 0
 863 0520 93050002 		li	a1,32
 864 0524 17050000 		lla	a0,.LC10
 864      13050500 
 865 052c 97000000 		call	_Z5printPKcc
 865      E7800000 
 866              	.LVL98:
 109:src/cpp/testing.cpp ****     print(Riscv::r_stval(), '\n', 1);
 867              		.loc 1 109 5 is_stmt 1
 868              	.LBB67:
 869              	.LBB68:
 132:src/cpp/../../h/../h/riscv.hpp ****     asm volatile("csrr %0, stval" : "=r" (stval));
 870              		.loc 2 132 5
 133:src/cpp/../../h/../h/riscv.hpp ****     return stval;
 871              		.loc 2 133 5
 133:src/cpp/../../h/../h/riscv.hpp ****     return stval;
 872              		.loc 2 133 50 is_stmt 0
 873              	 #APP
 874              	# 133 "src/cpp/../../h/../h/riscv.hpp" 1
 875              		csrr a5, stval
 876              	# 0 "" 2
 877              	 #NO_APP
 878 0538 233CF4FC 		sd	a5,-40(s0)
 134:src/cpp/../../h/../h/riscv.hpp **** } 
 879              		.loc 2 134 5 is_stmt 1
 134:src/cpp/../../h/../h/riscv.hpp **** } 
 880              		.loc 2 134 12 is_stmt 0
 881 053c 033584FD 		ld	a0,-40(s0)
 882              	.LBE68:
 883              	.LBE67:
 884              		.loc 1 109 10
 885 0540 13061000 		li	a2,1
 886 0544 9305A000 		li	a1,10
 887 0548 97000000 		call	_Z5printmcb
 887      E7800000 
 888              	.LVL99:
GAS LISTING /tmp/ccBoc6Ac.s 			page 23


 110:src/cpp/testing.cpp **** 
 111:src/cpp/testing.cpp ****     print("scause:",' ');
 889              		.loc 1 111 5 is_stmt 1
 890              		.loc 1 111 10 is_stmt 0
 891 0550 93050002 		li	a1,32
 892 0554 17050000 		lla	a0,.LC11
 892      13050500 
 893 055c 97000000 		call	_Z5printPKcc
 893      E7800000 
 894              	.LVL100:
 112:src/cpp/testing.cpp ****     print(Riscv::r_scause(), '\n', 1);
 895              		.loc 1 112 5 is_stmt 1
 896              	.LBB69:
 897              	.LBB70:
 102:src/cpp/../../h/../h/riscv.hpp ****     asm volatile("csrr %0, scause" : "=r" (scause));
 898              		.loc 2 102 5
 103:src/cpp/../../h/../h/riscv.hpp ****     return scause;
 899              		.loc 2 103 5
 103:src/cpp/../../h/../h/riscv.hpp ****     return scause;
 900              		.loc 2 103 52 is_stmt 0
 901              	 #APP
 902              	# 103 "src/cpp/../../h/../h/riscv.hpp" 1
 903              		csrr a5, scause
 904              	# 0 "" 2
 905              	 #NO_APP
 906 0568 2338F4FC 		sd	a5,-48(s0)
 104:src/cpp/../../h/../h/riscv.hpp **** } 
 907              		.loc 2 104 5 is_stmt 1
 104:src/cpp/../../h/../h/riscv.hpp **** } 
 908              		.loc 2 104 12 is_stmt 0
 909 056c 033504FD 		ld	a0,-48(s0)
 910              	.LBE70:
 911              	.LBE69:
 912              		.loc 1 112 10
 913 0570 13061000 		li	a2,1
 914 0574 9305A000 		li	a1,10
 915 0578 97000000 		call	_Z5printmcb
 915      E7800000 
 916              	.LVL101:
 113:src/cpp/testing.cpp **** }
 917              		.loc 1 113 1
 918 0580 83308102 		ld	ra,40(sp)
 919              		.cfi_restore 1
 920 0584 03340102 		ld	s0,32(sp)
 921              		.cfi_restore 8
 922              		.cfi_def_cfa 2, 48
 923 0588 13010103 		addi	sp,sp,48
 924              		.cfi_def_cfa_offset 0
 925 058c 67800000 		jr	ra
 926              		.cfi_endproc
 927              	.LFE49:
 929              		.align	2
 930              		.globl	_Z7kmallocm
 932              	_Z7kmallocm:
 933              	.LFB50:
 114:src/cpp/testing.cpp **** 
 115:src/cpp/testing.cpp **** void* kmalloc(size_t size){
GAS LISTING /tmp/ccBoc6Ac.s 			page 24


 934              		.loc 1 115 27 is_stmt 1
 935              		.cfi_startproc
 936              	.LVL102:
 937 0590 130101FE 		addi	sp,sp,-32
 938              		.cfi_def_cfa_offset 32
 939 0594 233C1100 		sd	ra,24(sp)
 940 0598 23388100 		sd	s0,16(sp)
 941 059c 23349100 		sd	s1,8(sp)
 942              		.cfi_offset 1, -8
 943              		.cfi_offset 8, -16
 944              		.cfi_offset 9, -24
 945 05a0 13040102 		addi	s0,sp,32
 946              		.cfi_def_cfa 8, 0
 116:src/cpp/testing.cpp ****     size = (size-1)/MEM_BLOCK_SIZE + 1;
 947              		.loc 1 116 5
 948              		.loc 1 116 17 is_stmt 0
 949 05a4 9304F5FF 		addi	s1,a0,-1
 950              		.loc 1 116 20
 951 05a8 93D46400 		srli	s1,s1,6
 952              		.loc 1 116 10
 953 05ac 93841400 		addi	s1,s1,1
 954              	.LVL103:
 117:src/cpp/testing.cpp ****     return MemoryAllocator::getInstance().mem_alloc(size);
 955              		.loc 1 117 5 is_stmt 1
 956              		.loc 1 117 41 is_stmt 0
 957 05b0 97000000 		call	_ZN15MemoryAllocator11getInstanceEv
 957      E7800000 
 958              	.LVL104:
 959              		.loc 1 117 52
 960 05b8 93850400 		mv	a1,s1
 961 05bc 97000000 		call	_ZN15MemoryAllocator9mem_allocEm
 961      E7800000 
 962              	.LVL105:
 118:src/cpp/testing.cpp **** }...
 963              		.loc 1 118 1
 964 05c4 83308101 		ld	ra,24(sp)
 965              		.cfi_restore 1
 966 05c8 03340101 		ld	s0,16(sp)
 967              		.cfi_restore 8
 968              		.cfi_def_cfa 2, 32
 969 05cc 83348100 		ld	s1,8(sp)
 970              		.cfi_restore 9
 971              	.LVL106:
 972 05d0 13010102 		addi	sp,sp,32
 973              		.cfi_def_cfa_offset 0
 974 05d4 67800000 		jr	ra
 975              		.cfi_endproc
 976              	.LFE50:
 978              		.section	.rodata.str1.8,"aMS",@progbits,1
 979              		.align	3
 980              	.LC0:
 981 0000 30313233 		.string	"0123456789ABCDEF"
 981      34353637 
 981      38394142 
 981      43444546 
 981      00
 982 0011 00000000 		.zero	7
GAS LISTING /tmp/ccBoc6Ac.s 			page 25


 982      000000
 983              	.LC1:
 984 0018 0A416C6F 		.string	"\nAlokacija"
 984      6B616369 
 984      6A6100
 985 0023 00000000 		.zero	5
 985      00
 986              	.LC2:
 987 0028 626C6F6B 		.string	"blokova"
 987      6F766100 
 988              	.LC3:
 989 0030 0A446561 		.string	"\nDealogkacija"
 989      6C6F676B 
 989      6163696A 
 989      6100
 990 003e 0000     		.zero	2
 991              	.LC4:
 992 0040 47726573 		.string	"Greska Pri Dealokaciji"
 992      6B612050 
 992      72692044 
 992      65616C6F 
 992      6B616369 
 993 0057 00       		.zero	1
 994              	.LC5:
 995 0058 743A00   		.string	"t:"
 996 005b 00000000 		.zero	5
 996      00
 997              	.LC6:
 998 0060 66726565 		.string	"free_res:"
 998      5F726573 
 998      3A00
 999 006a 00000000 		.zero	6
 999      0000
 1000              	.LC7:
 1001 0070 61303A00 		.string	"a0:"
 1002 0074 00000000 		.zero	4
 1003              	.LC8:
 1004 0078 73737461 		.string	"sstatus:"
 1004      7475733A 
 1004      00
 1005 0081 00000000 		.zero	7
 1005      000000
 1006              	.LC9:
 1007 0088 7369703A 		.string	"sip:"
 1007      00
 1008 008d 000000   		.zero	3
 1009              	.LC10:
 1010 0090 73747661 		.string	"stval:"
 1010      6C3A00
 1011 0097 00       		.zero	1
 1012              	.LC11:
 1013 0098 73636175 		.string	"scause:"
 1013      73653A00 
 1014              		.text
 1015              	.Letext0:
 1016              		.file 3 "src/cpp/../../h/../h/../lib/hw.h"
 1017              		.file 4 "src/cpp/../../h/../h/memory_allocator.hpp"
GAS LISTING /tmp/ccBoc6Ac.s 			page 26


 1018              		.file 5 "src/cpp/../../h/../h/syscall_c.h"
 1019              		.file 6 "src/cpp/../../h/../lib/console.h"
GAS LISTING /tmp/ccBoc6Ac.s 			page 27

