GAS LISTING /tmp/ccgRGHpw.s 			page 1


   1              		.file	"testing.cpp"
   2              		.option nopic
   3              		.option norelax
   4              		.attribute arch, "rv64i2p0_m2p0_a2p0"
   5              		.attribute unaligned_access, 0
   6              		.attribute stack_align, 16
   7              		.text
   8              	.Ltext0:
   9              		.section	.text._ZN6ThreadD2Ev,"axG",@progbits,_ZN6ThreadD5Ev,comdat
  10              		.align	2
  11              		.weak	_ZN6ThreadD2Ev
  13              	_ZN6ThreadD2Ev:
  14              	.LFB43:
  15              		.file 1 "src/cpp/../../h/syscall_cpp.hpp"
   1:src/cpp/../../h/syscall_cpp.hpp **** #ifndef _syscall_cpp
   2:src/cpp/../../h/syscall_cpp.hpp **** #define _syscall_cpp
   3:src/cpp/../../h/syscall_cpp.hpp **** #include "syscall_c.h"
   4:src/cpp/../../h/syscall_cpp.hpp **** 
   5:src/cpp/../../h/syscall_cpp.hpp **** void* operator new (size_t);
   6:src/cpp/../../h/syscall_cpp.hpp **** void operator delete (void*);
   7:src/cpp/../../h/syscall_cpp.hpp **** struct Wrap;
   8:src/cpp/../../h/syscall_cpp.hpp **** 
   9:src/cpp/../../h/syscall_cpp.hpp **** class Thread {
  10:src/cpp/../../h/syscall_cpp.hpp **** public:
  11:src/cpp/../../h/syscall_cpp.hpp ****     Thread (void (*body)(void*), void* arg);
  12:src/cpp/../../h/syscall_cpp.hpp ****     virtual ~Thread (){ delete myHandle; }
  16              		.loc 1 12 13
  17              		.cfi_startproc
  18              	.LVL0:
  19 0000 130101FF 		addi	sp,sp,-16
  20              		.cfi_def_cfa_offset 16
  21 0004 23348100 		sd	s0,8(sp)
  22              		.cfi_offset 8, -8
  23 0008 13040101 		addi	s0,sp,16
  24              		.cfi_def_cfa 8, 0
  25              	.LBB106:
  26              		.loc 1 12 23 is_stmt 0
  27 000c 97070000 		lla	a5,_ZTV6Thread+16
  27      93870700 
  28 0014 2330F500 		sd	a5,0(a0)
  29              		.loc 1 12 25 is_stmt 1
  30              		.loc 1 12 32 is_stmt 0
  31 0018 83378500 		ld	a5,8(a0)
  32              	.LVL1:
  33              	.LBB107:
  34              	.LBB108:
  35              		.file 2 "src/cpp/../../h/../h/_thread.hpp"
   1:src/cpp/../../h/../h/_thread.hpp **** #ifndef ___thread___hpp
   2:src/cpp/../../h/../h/_thread.hpp **** #define ___thread___hpp
   3:src/cpp/../../h/../h/_thread.hpp **** 
   4:src/cpp/../../h/../h/_thread.hpp **** #include"../lib/hw.h"
   5:src/cpp/../../h/../h/_thread.hpp **** 
   6:src/cpp/../../h/../h/_thread.hpp **** class _thread{
   7:src/cpp/../../h/../h/_thread.hpp **** public:
   8:src/cpp/../../h/../h/_thread.hpp ****     void operator delete(void* ptr){
   9:src/cpp/../../h/../h/_thread.hpp ****         asm volatile("li a0, 0x69");
  36              		.loc 2 9 9 is_stmt 1
GAS LISTING /tmp/ccgRGHpw.s 			page 2


  37              		.loc 2 9 36 is_stmt 0
  38              	 #APP
  39              	# 9 "src/cpp/../../h/../h/_thread.hpp" 1
  10              	        asm volatile("mv a1, %0" ::"r" ((uint64)ptr));
  40              		li a0, 0x69
  41              	# 0 "" 2
  42              		.loc 2 10 9 is_stmt 1
  43              		.loc 2 10 54 is_stmt 0
  44              	# 10 "src/cpp/../../h/../h/_thread.hpp" 1
  11              	        asm volatile("ecall");
  45              		mv a1, a5
  46              	# 0 "" 2
  47              		.loc 2 11 9 is_stmt 1
  48              		.loc 2 11 30 is_stmt 0
  49              	# 11 "src/cpp/../../h/../h/_thread.hpp" 1
  12              	    }
  50              		ecall
  51              	# 0 "" 2
  52              	.LVL2:
  53              	 #NO_APP
  54              	.LBE108:
  55              	.LBE107:
  56              	.LBE106:
  57              		.loc 1 12 42
  58 0028 03348100 		ld	s0,8(sp)
  59              		.cfi_restore 8
  60              		.cfi_def_cfa 2, 16
  61 002c 13010101 		addi	sp,sp,16
  62              		.cfi_def_cfa_offset 0
  63 0030 67800000 		jr	ra
  64              		.cfi_endproc
  65              	.LFE43:
  67              		.weak	_ZN6ThreadD1Ev
  68              		.set	_ZN6ThreadD1Ev,_ZN6ThreadD2Ev
  69              		.section	.text._ZN6Thread3runEv,"axG",@progbits,_ZN6Thread3runEv,comdat
  70              		.align	2
  71              		.weak	_ZN6Thread3runEv
  73              	_ZN6Thread3runEv:
  74              	.LFB51:
  13:src/cpp/../../h/syscall_cpp.hpp ****     void start ();
  14:src/cpp/../../h/syscall_cpp.hpp ****     static void dispatch () { thread_dispatch(); }
  15:src/cpp/../../h/syscall_cpp.hpp ****     static void sleep (time_t time){ time_sleep(time); }
  16:src/cpp/../../h/syscall_cpp.hpp **** protected:
  17:src/cpp/../../h/syscall_cpp.hpp ****     Thread (){ myHandle = nullptr; this->w = nullptr;}
  18:src/cpp/../../h/syscall_cpp.hpp ****     virtual void run () {}
  75              		.loc 1 18 18 is_stmt 1
  76              		.cfi_startproc
  77              	.LVL3:
  78 0000 130101FF 		addi	sp,sp,-16
  79              		.cfi_def_cfa_offset 16
  80 0004 23348100 		sd	s0,8(sp)
  81              		.cfi_offset 8, -8
  82 0008 13040101 		addi	s0,sp,16
  83              		.cfi_def_cfa 8, 0
  84              		.loc 1 18 26 is_stmt 0
  85 000c 03348100 		ld	s0,8(sp)
  86              		.cfi_restore 8
GAS LISTING /tmp/ccgRGHpw.s 			page 3


  87              		.cfi_def_cfa 2, 16
  88 0010 13010101 		addi	sp,sp,16
  89              		.cfi_def_cfa_offset 0
  90 0014 67800000 		jr	ra
  91              		.cfi_endproc
  92              	.LFE51:
  94              		.section	.text._ZN14PeriodicWorkerD2Ev,"axG",@progbits,_ZN14PeriodicWorkerD5Ev,comdat
  95              		.align	2
  96              		.weak	_ZN14PeriodicWorkerD2Ev
  98              	_ZN14PeriodicWorkerD2Ev:
  99              	.LFB83:
 100              		.file 3 "src/cpp/testing.cpp"
   1:src/cpp/testing.cpp **** #include"../../h/testing.hpp"
   2:src/cpp/testing.cpp **** #include"../../lib/console.h"
   3:src/cpp/testing.cpp **** #include"../../h/tcb.hpp"
   4:src/cpp/testing.cpp **** #include"../../h/riscv.hpp"
   5:src/cpp/testing.cpp **** #include"../../h/syscall_c.h"
   6:src/cpp/testing.cpp **** #include"../../h/syscall_cpp.hpp"
   7:src/cpp/testing.cpp **** #include"../../test/printing.hpp"
   8:src/cpp/testing.cpp **** 
   9:src/cpp/testing.cpp **** void print(uint64 unum, char end, bool hex){
  10:src/cpp/testing.cpp ****     uint64 sstatus = Riscv::r_sstatus();
  11:src/cpp/testing.cpp ****     Riscv::mc_sstatus(Riscv::SSTATUS_SIE);
  12:src/cpp/testing.cpp ****     char buffer[25];
  13:src/cpp/testing.cpp ****     uint64 unum1 = unum;
  14:src/cpp/testing.cpp ****     int i = 0;
  15:src/cpp/testing.cpp **** 
  16:src/cpp/testing.cpp ****     if(!hex){
  17:src/cpp/testing.cpp ****     do{
  18:src/cpp/testing.cpp ****         buffer[i++] = '0' + unum1%10;
  19:src/cpp/testing.cpp ****         unum1/=10;
  20:src/cpp/testing.cpp ****     }while(unum1 > 0);
  21:src/cpp/testing.cpp ****     for(int j = i-1; j >= 0; j--)
  22:src/cpp/testing.cpp ****         __putc(buffer[j]);
  23:src/cpp/testing.cpp ****     }else{
  24:src/cpp/testing.cpp ****     //__putc('\n');
  25:src/cpp/testing.cpp ****     __putc('0');
  26:src/cpp/testing.cpp ****     __putc('x');
  27:src/cpp/testing.cpp ****     
  28:src/cpp/testing.cpp ****     const char* numbers = "0123456789ABCDEF";
  29:src/cpp/testing.cpp ****     unum1 = unum;
  30:src/cpp/testing.cpp ****     i = 0;
  31:src/cpp/testing.cpp ****     do{
  32:src/cpp/testing.cpp ****         buffer[i++] = numbers[unum1%16];
  33:src/cpp/testing.cpp ****         unum1/=16;
  34:src/cpp/testing.cpp ****     } while(unum1 > 0);
  35:src/cpp/testing.cpp ****     for(int j = i-1; j >= 0; j--)
  36:src/cpp/testing.cpp ****         __putc(buffer[j]);
  37:src/cpp/testing.cpp ****     }
  38:src/cpp/testing.cpp ****     __putc(end);
  39:src/cpp/testing.cpp ****     Riscv::ms_sstatus(sstatus & Riscv::SSTATUS_SIE ? Riscv::SSTATUS_SIE : 0);
  40:src/cpp/testing.cpp **** }
  41:src/cpp/testing.cpp **** 
  42:src/cpp/testing.cpp **** void print(const char* str, char end){
  43:src/cpp/testing.cpp ****     uint64 sstatus = Riscv::r_sstatus();
  44:src/cpp/testing.cpp ****     Riscv::mc_sstatus(Riscv::SSTATUS_SIE);
  45:src/cpp/testing.cpp ****     for(int i = 0; str[i]; i++)
GAS LISTING /tmp/ccgRGHpw.s 			page 4


  46:src/cpp/testing.cpp ****         __putc(str[i]);
  47:src/cpp/testing.cpp ****     __putc(end);
  48:src/cpp/testing.cpp ****     Riscv::ms_sstatus(sstatus & Riscv::SSTATUS_SIE ? Riscv::SSTATUS_SIE : 0);
  49:src/cpp/testing.cpp **** 
  50:src/cpp/testing.cpp **** }
  51:src/cpp/testing.cpp **** 
  52:src/cpp/testing.cpp **** void print(const char* str, uint64 t, bool hex){
  53:src/cpp/testing.cpp ****     uint64 sstatus = Riscv::r_sstatus();
  54:src/cpp/testing.cpp ****     Riscv::mc_sstatus(Riscv::SSTATUS_SIE);
  55:src/cpp/testing.cpp ****     print(str, ' ');
  56:src/cpp/testing.cpp ****     print(t, '\n', hex);
  57:src/cpp/testing.cpp ****     Riscv::ms_sstatus(sstatus & Riscv::SSTATUS_SIE ? Riscv::SSTATUS_SIE : 0);
  58:src/cpp/testing.cpp **** }
  59:src/cpp/testing.cpp **** 
  60:src/cpp/testing.cpp **** void* allocTest(MemoryAllocator& allocator, size_t size){
  61:src/cpp/testing.cpp ****     print("\nAlokacija", ' ');
  62:src/cpp/testing.cpp ****     print(size, ' ');
  63:src/cpp/testing.cpp ****     print("blokova");
  64:src/cpp/testing.cpp ****     char* newblc = (char*)allocator.mem_alloc(size);
  65:src/cpp/testing.cpp ****     allocator.print_list();  
  66:src/cpp/testing.cpp ****     return newblc;
  67:src/cpp/testing.cpp **** }
  68:src/cpp/testing.cpp **** 
  69:src/cpp/testing.cpp **** void freeTest(MemoryAllocator& allocator, void* adr){
  70:src/cpp/testing.cpp ****     print("\nDealogkacija");
  71:src/cpp/testing.cpp ****     if(allocator.mem_free(adr) < 0)
  72:src/cpp/testing.cpp ****         allocator.print_list();
  73:src/cpp/testing.cpp ****     else
  74:src/cpp/testing.cpp ****         print("Greska Pri Dealokaciji");
  75:src/cpp/testing.cpp **** }
  76:src/cpp/testing.cpp **** 
  77:src/cpp/testing.cpp **** void memTest(){
  78:src/cpp/testing.cpp ****     MemoryAllocator& allocator = MemoryAllocator::getInstance();
  79:src/cpp/testing.cpp ****     allocator.print_list();
  80:src/cpp/testing.cpp **** 
  81:src/cpp/testing.cpp ****     mem_alloc(50);
  82:src/cpp/testing.cpp ****     
  83:src/cpp/testing.cpp ****     allocator.print_list();
  84:src/cpp/testing.cpp **** 
  85:src/cpp/testing.cpp ****     char* t = (char*)mem_alloc(100);
  86:src/cpp/testing.cpp ****     print("t:", (uint64)t, 0);
  87:src/cpp/testing.cpp **** 
  88:src/cpp/testing.cpp ****     allocator.print_list();
  89:src/cpp/testing.cpp **** 
  90:src/cpp/testing.cpp ****     mem_alloc(300);
  91:src/cpp/testing.cpp **** 
  92:src/cpp/testing.cpp ****     allocator.print_list();
  93:src/cpp/testing.cpp ****     
  94:src/cpp/testing.cpp ****     print("free_res:", mem_free(t), 0);
  95:src/cpp/testing.cpp ****     
  96:src/cpp/testing.cpp ****     allocator.print_list();
  97:src/cpp/testing.cpp **** }
  98:src/cpp/testing.cpp **** 
  99:src/cpp/testing.cpp **** void print_a0(){
 100:src/cpp/testing.cpp ****     uint64 a0 = Riscv::r_a0();
 101:src/cpp/testing.cpp ****     print("a0:", ' ');
 102:src/cpp/testing.cpp ****     print(a0, '\n', 1);
GAS LISTING /tmp/ccgRGHpw.s 			page 5


 103:src/cpp/testing.cpp ****     //asm volatile("mv a0, %0" : : "r" (a0));
 104:src/cpp/testing.cpp **** }
 105:src/cpp/testing.cpp **** 
 106:src/cpp/testing.cpp **** void print_sup_registers(){ 
 107:src/cpp/testing.cpp **** 
 108:src/cpp/testing.cpp ****     print("sstatus:",' ');
 109:src/cpp/testing.cpp ****     print(Riscv::r_sstatus(), '\n', 1);
 110:src/cpp/testing.cpp **** 
 111:src/cpp/testing.cpp ****     print("sip:",' ');
 112:src/cpp/testing.cpp ****     print(Riscv::r_sip(), '\n', 1);
 113:src/cpp/testing.cpp **** 
 114:src/cpp/testing.cpp ****     print("stval:",' ');
 115:src/cpp/testing.cpp ****     print(Riscv::r_stval(), '\n', 1);
 116:src/cpp/testing.cpp **** 
 117:src/cpp/testing.cpp ****     print("scause:",' ');
 118:src/cpp/testing.cpp ****     print(Riscv::r_scause(), '\n', 1);
 119:src/cpp/testing.cpp **** }
 120:src/cpp/testing.cpp **** 
 121:src/cpp/testing.cpp **** void* kmalloc(size_t size){
 122:src/cpp/testing.cpp ****     size = (size-1)/MEM_BLOCK_SIZE + 1;
 123:src/cpp/testing.cpp ****     return MemoryAllocator::getInstance().mem_alloc(size);
 124:src/cpp/testing.cpp **** }
 125:src/cpp/testing.cpp **** 
 126:src/cpp/testing.cpp **** class PeriodicWorker:public PeriodicThread{
 101              		.loc 3 126 7 is_stmt 1
 102              		.cfi_startproc
 103              	.LVL4:
 104 0000 130101FF 		addi	sp,sp,-16
 105              		.cfi_def_cfa_offset 16
 106 0004 23348100 		sd	s0,8(sp)
 107              		.cfi_offset 8, -8
 108 0008 13040101 		addi	s0,sp,16
 109              		.cfi_def_cfa 8, 0
 110              	.LVL5:
 111              	.LBB109:
 112              	.LBB110:
 113              	.LBB111:
  12:src/cpp/../../h/syscall_cpp.hpp ****     void start ();
 114              		.loc 1 12 23 is_stmt 0
 115 000c 97070000 		lla	a5,_ZTV6Thread+16
 115      93870700 
 116 0014 2330F500 		sd	a5,0(a0)
  12:src/cpp/../../h/syscall_cpp.hpp ****     void start ();
 117              		.loc 1 12 25 is_stmt 1
  12:src/cpp/../../h/syscall_cpp.hpp ****     void start ();
 118              		.loc 1 12 32 is_stmt 0
 119 0018 83378500 		ld	a5,8(a0)
 120              	.LVL6:
 121              	.LBB112:
 122              	.LBB113:
   9:src/cpp/../../h/../h/_thread.hpp ****         asm volatile("mv a1, %0" ::"r" ((uint64)ptr));
 123              		.loc 2 9 9 is_stmt 1
   9:src/cpp/../../h/../h/_thread.hpp ****         asm volatile("mv a1, %0" ::"r" ((uint64)ptr));
 124              		.loc 2 9 36 is_stmt 0
 125              	 #APP
 126              	# 9 "src/cpp/../../h/../h/_thread.hpp" 1
  10:src/cpp/../../h/../h/_thread.hpp ****         asm volatile("ecall");
GAS LISTING /tmp/ccgRGHpw.s 			page 6


 127              		li a0, 0x69
 128              	# 0 "" 2
 129              		.loc 2 10 9 is_stmt 1
  10:src/cpp/../../h/../h/_thread.hpp ****         asm volatile("ecall");
 130              		.loc 2 10 54 is_stmt 0
 131              	# 10 "src/cpp/../../h/../h/_thread.hpp" 1
  11:src/cpp/../../h/../h/_thread.hpp ****     }
 132              		mv a1, a5
 133              	# 0 "" 2
 134              		.loc 2 11 9 is_stmt 1
  11:src/cpp/../../h/../h/_thread.hpp ****     }
 135              		.loc 2 11 30 is_stmt 0
 136              	# 11 "src/cpp/../../h/../h/_thread.hpp" 1
 137              		ecall
 138              	# 0 "" 2
 139              	.LVL7:
 140              	 #NO_APP
 141              	.LBE113:
 142              	.LBE112:
 143              	.LBE111:
 144              	.LBE110:
 145              	.LBE109:
 146              		.loc 3 126 7
 147 0028 03348100 		ld	s0,8(sp)
 148              		.cfi_restore 8
 149              		.cfi_def_cfa 2, 16
 150 002c 13010101 		addi	sp,sp,16
 151              		.cfi_def_cfa_offset 0
 152 0030 67800000 		jr	ra
 153              		.cfi_endproc
 154              	.LFE83:
 156              		.weak	_ZN14PeriodicWorkerD1Ev
 157              		.set	_ZN14PeriodicWorkerD1Ev,_ZN14PeriodicWorkerD2Ev
 158              		.section	.text._ZN14PeriodicWorker18periodicActivationEv,"axG",@progbits,_ZN14PeriodicWorker18peri
 159              		.align	2
 160              		.weak	_ZN14PeriodicWorker18periodicActivationEv
 162              	_ZN14PeriodicWorker18periodicActivationEv:
 163              	.LFB80:
 127:src/cpp/testing.cpp ****     int val;
 128:src/cpp/testing.cpp **** public:
 129:src/cpp/testing.cpp ****     PeriodicWorker(time_t period, int val):
 130:src/cpp/testing.cpp ****     PeriodicThread(period){
 131:src/cpp/testing.cpp ****         this->val = val;
 132:src/cpp/testing.cpp ****     }
 133:src/cpp/testing.cpp **** protected:
 134:src/cpp/testing.cpp ****     void periodicActivation() override{
 164              		.loc 3 134 10 is_stmt 1
 165              		.cfi_startproc
 166              	.LVL8:
 167 0000 130101FF 		addi	sp,sp,-16
 168              		.cfi_def_cfa_offset 16
 169 0004 23341100 		sd	ra,8(sp)
 170 0008 23308100 		sd	s0,0(sp)
 171              		.cfi_offset 1, -8
 172              		.cfi_offset 8, -16
 173 000c 13040101 		addi	s0,sp,16
 174              		.cfi_def_cfa 8, 0
GAS LISTING /tmp/ccgRGHpw.s 			page 7


 135:src/cpp/testing.cpp ****         printInt(val++);
 175              		.loc 3 135 9
 176              		.loc 3 135 18 is_stmt 0
 177 0010 83278501 		lw	a5,24(a0)
 178              		.loc 3 135 17
 179 0014 1B871700 		addiw	a4,a5,1
 180 0018 232CE500 		sw	a4,24(a0)
 181 001c 13060000 		li	a2,0
 182 0020 9305A000 		li	a1,10
 183 0024 13850700 		mv	a0,a5
 184              	.LVL9:
 185 0028 97000000 		call	_Z8printIntiii
 185      E7800000 
 186              	.LVL10:
 136:src/cpp/testing.cpp ****         printString("\n");
 187              		.loc 3 136 9 is_stmt 1
 188              		.loc 3 136 20 is_stmt 0
 189 0030 17050000 		lla	a0,.LC0
 189      13050500 
 190 0038 97000000 		call	_Z11printStringPKc
 190      E7800000 
 191              	.LVL11:
 137:src/cpp/testing.cpp ****     }
 192              		.loc 3 137 5
 193 0040 83308100 		ld	ra,8(sp)
 194              		.cfi_restore 1
 195 0044 03340100 		ld	s0,0(sp)
 196              		.cfi_restore 8
 197              		.cfi_def_cfa 2, 16
 198 0048 13010101 		addi	sp,sp,16
 199              		.cfi_def_cfa_offset 0
 200 004c 67800000 		jr	ra
 201              		.cfi_endproc
 202              	.LFE80:
 204              		.section	.text._ZN6ThreadD0Ev,"axG",@progbits,_ZN6ThreadD5Ev,comdat
 205              		.align	2
 206              		.weak	_ZN6ThreadD0Ev
 208              	_ZN6ThreadD0Ev:
 209              	.LFB45:
  12:src/cpp/../../h/syscall_cpp.hpp ****     void start ();
 210              		.loc 1 12 13 is_stmt 1
 211              		.cfi_startproc
 212              	.LVL12:
 213 0000 130101FF 		addi	sp,sp,-16
 214              		.cfi_def_cfa_offset 16
 215 0004 23341100 		sd	ra,8(sp)
 216 0008 23308100 		sd	s0,0(sp)
 217              		.cfi_offset 1, -8
 218              		.cfi_offset 8, -16
 219 000c 13040101 		addi	s0,sp,16
 220              		.cfi_def_cfa 8, 0
 221              	.LVL13:
 222              	.LBB114:
 223              	.LBB115:
  12:src/cpp/../../h/syscall_cpp.hpp ****     void start ();
 224              		.loc 1 12 23 is_stmt 0
 225 0010 17070000 		lla	a4,_ZTV6Thread+16
GAS LISTING /tmp/ccgRGHpw.s 			page 8


 225      13070700 
 226 0018 2330E500 		sd	a4,0(a0)
  12:src/cpp/../../h/syscall_cpp.hpp ****     void start ();
 227              		.loc 1 12 25 is_stmt 1
  12:src/cpp/../../h/syscall_cpp.hpp ****     void start ();
 228              		.loc 1 12 32 is_stmt 0
 229 001c 83378500 		ld	a5,8(a0)
 230              	.LVL14:
 231              	.LBB116:
 232              	.LBB117:
   9:src/cpp/../../h/../h/_thread.hpp ****         asm volatile("mv a1, %0" ::"r" ((uint64)ptr));
 233              		.loc 2 9 9 is_stmt 1
   9:src/cpp/../../h/../h/_thread.hpp ****         asm volatile("mv a1, %0" ::"r" ((uint64)ptr));
 234              		.loc 2 9 36 is_stmt 0
 235              	 #APP
 236              	# 9 "src/cpp/../../h/../h/_thread.hpp" 1
  10:src/cpp/../../h/../h/_thread.hpp ****         asm volatile("ecall");
 237              		li a0, 0x69
 238              	# 0 "" 2
 239              		.loc 2 10 9 is_stmt 1
  10:src/cpp/../../h/../h/_thread.hpp ****         asm volatile("ecall");
 240              		.loc 2 10 54 is_stmt 0
 241              	# 10 "src/cpp/../../h/../h/_thread.hpp" 1
  11:src/cpp/../../h/../h/_thread.hpp ****     }
 242              		mv a1, a5
 243              	# 0 "" 2
 244              		.loc 2 11 9 is_stmt 1
  11:src/cpp/../../h/../h/_thread.hpp ****     }
 245              		.loc 2 11 30 is_stmt 0
 246              	# 11 "src/cpp/../../h/../h/_thread.hpp" 1
 247              		ecall
 248              	# 0 "" 2
 249              	.LVL15:
 250              	 #NO_APP
 251              	.LBE117:
 252              	.LBE116:
 253              	.LBE115:
 254              	.LBE114:
  12:src/cpp/../../h/syscall_cpp.hpp ****     void start ();
 255              		.loc 1 12 42
 256 002c 97000000 		call	_ZdlPv
 256      E7800000 
 257              	.LVL16:
 258 0034 83308100 		ld	ra,8(sp)
 259              		.cfi_restore 1
 260 0038 03340100 		ld	s0,0(sp)
 261              		.cfi_restore 8
 262              		.cfi_def_cfa 2, 16
 263 003c 13010101 		addi	sp,sp,16
 264              		.cfi_def_cfa_offset 0
 265 0040 67800000 		jr	ra
 266              		.cfi_endproc
 267              	.LFE45:
 269              		.section	.text._ZN14PeriodicWorkerD0Ev,"axG",@progbits,_ZN14PeriodicWorkerD5Ev,comdat
 270              		.align	2
 271              		.weak	_ZN14PeriodicWorkerD0Ev
 273              	_ZN14PeriodicWorkerD0Ev:
GAS LISTING /tmp/ccgRGHpw.s 			page 9


 274              	.LFB85:
 126:src/cpp/testing.cpp ****     int val;
 275              		.loc 3 126 7 is_stmt 1
 276              		.cfi_startproc
 277              	.LVL17:
 278 0000 130101FF 		addi	sp,sp,-16
 279              		.cfi_def_cfa_offset 16
 280 0004 23341100 		sd	ra,8(sp)
 281 0008 23308100 		sd	s0,0(sp)
 282              		.cfi_offset 1, -8
 283              		.cfi_offset 8, -16
 284 000c 13040101 		addi	s0,sp,16
 285              		.cfi_def_cfa 8, 0
 286              	.LVL18:
 287              	.LBB118:
 288              	.LBB119:
 289              	.LBB120:
 290              	.LBB121:
  12:src/cpp/../../h/syscall_cpp.hpp ****     void start ();
 291              		.loc 1 12 23 is_stmt 0
 292 0010 17070000 		lla	a4,_ZTV6Thread+16
 292      13070700 
 293 0018 2330E500 		sd	a4,0(a0)
  12:src/cpp/../../h/syscall_cpp.hpp ****     void start ();
 294              		.loc 1 12 25 is_stmt 1
  12:src/cpp/../../h/syscall_cpp.hpp ****     void start ();
 295              		.loc 1 12 32 is_stmt 0
 296 001c 83378500 		ld	a5,8(a0)
 297              	.LVL19:
 298              	.LBB122:
 299              	.LBB123:
   9:src/cpp/../../h/../h/_thread.hpp ****         asm volatile("mv a1, %0" ::"r" ((uint64)ptr));
 300              		.loc 2 9 9 is_stmt 1
   9:src/cpp/../../h/../h/_thread.hpp ****         asm volatile("mv a1, %0" ::"r" ((uint64)ptr));
 301              		.loc 2 9 36 is_stmt 0
 302              	 #APP
 303              	# 9 "src/cpp/../../h/../h/_thread.hpp" 1
  10:src/cpp/../../h/../h/_thread.hpp ****         asm volatile("ecall");
 304              		li a0, 0x69
 305              	# 0 "" 2
 306              		.loc 2 10 9 is_stmt 1
  10:src/cpp/../../h/../h/_thread.hpp ****         asm volatile("ecall");
 307              		.loc 2 10 54 is_stmt 0
 308              	# 10 "src/cpp/../../h/../h/_thread.hpp" 1
  11:src/cpp/../../h/../h/_thread.hpp ****     }
 309              		mv a1, a5
 310              	# 0 "" 2
 311              		.loc 2 11 9 is_stmt 1
  11:src/cpp/../../h/../h/_thread.hpp ****     }
 312              		.loc 2 11 30 is_stmt 0
 313              	# 11 "src/cpp/../../h/../h/_thread.hpp" 1
 314              		ecall
 315              	# 0 "" 2
 316              	.LVL20:
 317              	 #NO_APP
 318              	.LBE123:
 319              	.LBE122:
GAS LISTING /tmp/ccgRGHpw.s 			page 10


 320              	.LBE121:
 321              	.LBE120:
 322              	.LBE119:
 323              	.LBE118:
 126:src/cpp/testing.cpp ****     int val;
 324              		.loc 3 126 7
 325 002c 97000000 		call	_ZdlPv
 325      E7800000 
 326              	.LVL21:
 327 0034 83308100 		ld	ra,8(sp)
 328              		.cfi_restore 1
 329 0038 03340100 		ld	s0,0(sp)
 330              		.cfi_restore 8
 331              		.cfi_def_cfa 2, 16
 332 003c 13010101 		addi	sp,sp,16
 333              		.cfi_def_cfa_offset 0
 334 0040 67800000 		jr	ra
 335              		.cfi_endproc
 336              	.LFE85:
 338              		.section	.text._ZN9SemaphoreD2Ev,"axG",@progbits,_ZN9SemaphoreD5Ev,comdat
 339              		.align	2
 340              		.weak	_ZN9SemaphoreD2Ev
 342              	_ZN9SemaphoreD2Ev:
 343              	.LFB56:
  19:src/cpp/../../h/syscall_cpp.hpp **** private:
  20:src/cpp/../../h/syscall_cpp.hpp ****     static void runWrapper(void*);
  21:src/cpp/../../h/syscall_cpp.hpp ****     thread_t myHandle;
  22:src/cpp/../../h/syscall_cpp.hpp ****     Wrap* w;
  23:src/cpp/../../h/syscall_cpp.hpp **** };
  24:src/cpp/../../h/syscall_cpp.hpp **** 
  25:src/cpp/../../h/syscall_cpp.hpp **** class Semaphore {
  26:src/cpp/../../h/syscall_cpp.hpp **** public:
  27:src/cpp/../../h/syscall_cpp.hpp ****     Semaphore (unsigned init = 1) { sem_open(&myHandle, init); } 
  28:src/cpp/../../h/syscall_cpp.hpp ****     virtual ~Semaphore (){ sem_close(myHandle); }
 344              		.loc 1 28 13 is_stmt 1
 345              		.cfi_startproc
 346              		.cfi_personality 0x9b,DW.ref.__gxx_personality_v0
 347              		.cfi_lsda 0x1b,.LLSDA56
 348              	.LVL22:
 349 0000 130101FF 		addi	sp,sp,-16
 350              		.cfi_def_cfa_offset 16
 351 0004 23341100 		sd	ra,8(sp)
 352 0008 23308100 		sd	s0,0(sp)
 353              		.cfi_offset 1, -8
 354              		.cfi_offset 8, -16
 355 000c 13040101 		addi	s0,sp,16
 356              		.cfi_def_cfa 8, 0
 357              	.LBB124:
 358              		.loc 1 28 26 is_stmt 0
 359 0010 97070000 		lla	a5,_ZTV9Semaphore+16
 359      93870700 
 360 0018 2330F500 		sd	a5,0(a0)
 361              		.loc 1 28 28 is_stmt 1
 362              		.loc 1 28 37 is_stmt 0
 363 001c 03358500 		ld	a0,8(a0)
 364              	.LVL23:
 365 0020 97000000 		call	sem_close
GAS LISTING /tmp/ccgRGHpw.s 			page 11


 365      E7800000 
 366              	.LVL24:
 367              	.LBE124:
 368              		.loc 1 28 49
 369 0028 83308100 		ld	ra,8(sp)
 370              		.cfi_restore 1
 371 002c 03340100 		ld	s0,0(sp)
 372              		.cfi_restore 8
 373              		.cfi_def_cfa 2, 16
 374 0030 13010101 		addi	sp,sp,16
 375              		.cfi_def_cfa_offset 0
 376 0034 67800000 		jr	ra
 377              		.cfi_endproc
 378              	.LFE56:
 379              		.globl	__gxx_personality_v0
 380              		.section	.gcc_except_table._ZN9SemaphoreD2Ev,"awG",@progbits,_ZN9SemaphoreD5Ev,comdat
 381              	.LLSDA56:
 382 0000 FF       		.byte	0xff
 383 0001 FF       		.byte	0xff
 384 0002 03       		.byte	0x3
 385 0003 00       		.byte	0
 386              		.section	.text._ZN9SemaphoreD2Ev,"axG",@progbits,_ZN9SemaphoreD5Ev,comdat
 388              		.weak	_ZN9SemaphoreD1Ev
 389              		.set	_ZN9SemaphoreD1Ev,_ZN9SemaphoreD2Ev
 390              		.section	.text._ZN9SemaphoreD0Ev,"axG",@progbits,_ZN9SemaphoreD5Ev,comdat
 391              		.align	2
 392              		.weak	_ZN9SemaphoreD0Ev
 394              	_ZN9SemaphoreD0Ev:
 395              	.LFB58:
 396              		.loc 1 28 13 is_stmt 1
 397              		.cfi_startproc
 398              		.cfi_personality 0x9b,DW.ref.__gxx_personality_v0
 399              		.cfi_lsda 0x1b,.LLSDA58
 400              	.LVL25:
 401 0000 130101FE 		addi	sp,sp,-32
 402              		.cfi_def_cfa_offset 32
 403 0004 233C1100 		sd	ra,24(sp)
 404 0008 23388100 		sd	s0,16(sp)
 405 000c 23349100 		sd	s1,8(sp)
 406              		.cfi_offset 1, -8
 407              		.cfi_offset 8, -16
 408              		.cfi_offset 9, -24
 409 0010 13040102 		addi	s0,sp,32
 410              		.cfi_def_cfa 8, 0
 411 0014 93040500 		mv	s1,a0
 412              	.LVL26:
 413              	.LBB125:
 414              	.LBB126:
 415              		.loc 1 28 26 is_stmt 0
 416 0018 97070000 		lla	a5,_ZTV9Semaphore+16
 416      93870700 
 417 0020 2330F500 		sd	a5,0(a0)
 418              		.loc 1 28 28 is_stmt 1
 419              		.loc 1 28 37 is_stmt 0
 420 0024 03358500 		ld	a0,8(a0)
 421              	.LVL27:
 422 0028 97000000 		call	sem_close
GAS LISTING /tmp/ccgRGHpw.s 			page 12


 422      E7800000 
 423              	.LVL28:
 424              	.LBE126:
 425              	.LBE125:
 426              		.loc 1 28 49
 427 0030 13850400 		mv	a0,s1
 428              	.LEHB0:
 429 0034 97000000 		call	_ZdlPv
 429      E7800000 
 430              	.LVL29:
 431              	.LEHE0:
 432 003c 83308101 		ld	ra,24(sp)
 433              		.cfi_restore 1
 434 0040 03340101 		ld	s0,16(sp)
 435              		.cfi_restore 8
 436              		.cfi_def_cfa 2, 32
 437 0044 83348100 		ld	s1,8(sp)
 438              		.cfi_restore 9
 439              	.LVL30:
 440 0048 13010102 		addi	sp,sp,32
 441              		.cfi_def_cfa_offset 0
 442 004c 67800000 		jr	ra
 443              		.cfi_endproc
 444              	.LFE58:
 445              		.section	.gcc_except_table._ZN9SemaphoreD0Ev,"awG",@progbits,_ZN9SemaphoreD5Ev,comdat
 446              	.LLSDA58:
 447 0000 FF       		.byte	0xff
 448 0001 FF       		.byte	0xff
 449 0002 03       		.byte	0x3
 450 0003 0D       		.byte	0xd
 451 0004 00000000 		.4byte	.LEHB0-.LFB58
 452 0008 00000000 		.4byte	.LEHE0-.LEHB0
 453 000c 00000000 		.4byte	0
 454 0010 00       		.byte	0
 455              		.section	.text._ZN9SemaphoreD0Ev,"axG",@progbits,_ZN9SemaphoreD5Ev,comdat
 457              		.text
 458              		.align	2
 459              		.globl	_Z5printmcb
 461              	_Z5printmcb:
 462              	.LFB64:
   9:src/cpp/testing.cpp ****     uint64 sstatus = Riscv::r_sstatus();
 463              		.loc 3 9 44 is_stmt 1
 464              		.cfi_startproc
 465              	.LVL31:
 466 0000 130101FA 		addi	sp,sp,-96
 467              		.cfi_def_cfa_offset 96
 468 0004 233C1104 		sd	ra,88(sp)
 469 0008 23388104 		sd	s0,80(sp)
 470 000c 23349104 		sd	s1,72(sp)
 471 0010 23302105 		sd	s2,64(sp)
 472 0014 233C3103 		sd	s3,56(sp)
 473 0018 23384103 		sd	s4,48(sp)
 474              		.cfi_offset 1, -8
 475              		.cfi_offset 8, -16
 476              		.cfi_offset 9, -24
 477              		.cfi_offset 18, -32
 478              		.cfi_offset 19, -40
GAS LISTING /tmp/ccgRGHpw.s 			page 13


 479              		.cfi_offset 20, -48
 480 001c 13040106 		addi	s0,sp,96
 481              		.cfi_def_cfa 8, 0
 482 0020 13090500 		mv	s2,a0
 483 0024 138A0500 		mv	s4,a1
  10:src/cpp/testing.cpp ****     Riscv::mc_sstatus(Riscv::SSTATUS_SIE);
 484              		.loc 3 10 5
 485              	.LBB127:
 486              	.LBB128:
 487              		.file 4 "src/cpp/../../h/riscv.hpp"
   1:src/cpp/../../h/riscv.hpp **** #ifndef __riscv__
   2:src/cpp/../../h/riscv.hpp **** #define __riscv__
   3:src/cpp/../../h/riscv.hpp **** 
   4:src/cpp/../../h/riscv.hpp **** #include"../lib/hw.h"
   5:src/cpp/../../h/riscv.hpp **** 
   6:src/cpp/../../h/riscv.hpp **** class Riscv{
   7:src/cpp/../../h/riscv.hpp **** public:
   8:src/cpp/../../h/riscv.hpp ****     
   9:src/cpp/../../h/riscv.hpp ****     static void w_scause(uint64);
  10:src/cpp/../../h/riscv.hpp ****     static uint64 r_scause(); 
  11:src/cpp/../../h/riscv.hpp **** 
  12:src/cpp/../../h/riscv.hpp ****     static void w_sepc(uint64);
  13:src/cpp/../../h/riscv.hpp ****     static uint64 r_sepc();
  14:src/cpp/../../h/riscv.hpp ****     static void ni_sepc();
  15:src/cpp/../../h/riscv.hpp **** 
  16:src/cpp/../../h/riscv.hpp ****     static void w_stvec(uint64);
  17:src/cpp/../../h/riscv.hpp ****     static uint64 r_stvec();
  18:src/cpp/../../h/riscv.hpp ****      
  19:src/cpp/../../h/riscv.hpp ****     static void w_stval(uint64);
  20:src/cpp/../../h/riscv.hpp ****     static uint64 r_stval();
  21:src/cpp/../../h/riscv.hpp ****     
  22:src/cpp/../../h/riscv.hpp ****     enum BitMaskSip{
  23:src/cpp/../../h/riscv.hpp ****         SIP_SSIE = (1<<1),
  24:src/cpp/../../h/riscv.hpp ****         SIP_STIE = (1<<5),
  25:src/cpp/../../h/riscv.hpp ****         SIP_SEIE = (1<<9),
  26:src/cpp/../../h/riscv.hpp ****     };
  27:src/cpp/../../h/riscv.hpp **** 
  28:src/cpp/../../h/riscv.hpp ****     static void ms_sip(uint64);
  29:src/cpp/../../h/riscv.hpp ****     static void mc_sip(uint64);
  30:src/cpp/../../h/riscv.hpp **** 
  31:src/cpp/../../h/riscv.hpp ****     static void w_sip(uint64);
  32:src/cpp/../../h/riscv.hpp ****     static uint64 r_sip();
  33:src/cpp/../../h/riscv.hpp **** 
  34:src/cpp/../../h/riscv.hpp ****     enum BitMaskSstatus{
  35:src/cpp/../../h/riscv.hpp ****         SSTATUS_SIE = (1<<1),
  36:src/cpp/../../h/riscv.hpp ****         SSTATUS_SPIE = (1<<5),
  37:src/cpp/../../h/riscv.hpp ****         SSTATUS_SPP = (1<<8),
  38:src/cpp/../../h/riscv.hpp ****     };
  39:src/cpp/../../h/riscv.hpp **** 
  40:src/cpp/../../h/riscv.hpp ****     static void ms_sstatus(uint64);
  41:src/cpp/../../h/riscv.hpp ****     static void mc_sstatus(uint64);
  42:src/cpp/../../h/riscv.hpp **** 
  43:src/cpp/../../h/riscv.hpp ****     static void w_sstatus(uint64);
  44:src/cpp/../../h/riscv.hpp ****     static uint64 r_sstatus();
  45:src/cpp/../../h/riscv.hpp **** 
  46:src/cpp/../../h/riscv.hpp ****     static uint64 r_a0();
  47:src/cpp/../../h/riscv.hpp ****     static uint64 s_a0(uint64 a0);
GAS LISTING /tmp/ccgRGHpw.s 			page 14


  48:src/cpp/../../h/riscv.hpp ****     static uint64 r_a1();
  49:src/cpp/../../h/riscv.hpp ****     static uint64 r_a2();
  50:src/cpp/../../h/riscv.hpp ****     static uint64 r_a3();
  51:src/cpp/../../h/riscv.hpp ****     static uint64 r_a4();
  52:src/cpp/../../h/riscv.hpp **** 
  53:src/cpp/../../h/riscv.hpp ****     static void popRegisters();
  54:src/cpp/../../h/riscv.hpp ****     static void pushRegisters();
  55:src/cpp/../../h/riscv.hpp **** 
  56:src/cpp/../../h/riscv.hpp ****     static void popSppSpie();
  57:src/cpp/../../h/riscv.hpp **** 
  58:src/cpp/../../h/riscv.hpp ****     static void mc_cstatus(uint64 mask);
  59:src/cpp/../../h/riscv.hpp ****     static bool cstatus_ready(uint64 mask);
  60:src/cpp/../../h/riscv.hpp **** };
  61:src/cpp/../../h/riscv.hpp **** 
  62:src/cpp/../../h/riscv.hpp **** inline uint64 Riscv::r_a0(){
  63:src/cpp/../../h/riscv.hpp ****     uint64 a0;
  64:src/cpp/../../h/riscv.hpp ****     asm volatile("mv %0, a0" : "=r" (a0));
  65:src/cpp/../../h/riscv.hpp ****     return a0;
  66:src/cpp/../../h/riscv.hpp **** }
  67:src/cpp/../../h/riscv.hpp **** 
  68:src/cpp/../../h/riscv.hpp **** inline uint64 Riscv::r_a1(){
  69:src/cpp/../../h/riscv.hpp ****     uint64 a0;
  70:src/cpp/../../h/riscv.hpp ****     asm volatile("mv %0, a1" : "=r" (a0));
  71:src/cpp/../../h/riscv.hpp ****     return a0;
  72:src/cpp/../../h/riscv.hpp **** }
  73:src/cpp/../../h/riscv.hpp **** 
  74:src/cpp/../../h/riscv.hpp **** inline uint64 Riscv::r_a2(){
  75:src/cpp/../../h/riscv.hpp ****     uint64 a0;
  76:src/cpp/../../h/riscv.hpp ****     asm volatile("mv %0, a2" : "=r" (a0));
  77:src/cpp/../../h/riscv.hpp ****     return a0;
  78:src/cpp/../../h/riscv.hpp **** }
  79:src/cpp/../../h/riscv.hpp **** 
  80:src/cpp/../../h/riscv.hpp **** inline uint64 Riscv::r_a3(){
  81:src/cpp/../../h/riscv.hpp ****     uint64 a0;
  82:src/cpp/../../h/riscv.hpp ****     asm volatile("mv %0, a3" : "=r" (a0));
  83:src/cpp/../../h/riscv.hpp ****     return a0;
  84:src/cpp/../../h/riscv.hpp **** }
  85:src/cpp/../../h/riscv.hpp **** 
  86:src/cpp/../../h/riscv.hpp **** inline uint64 Riscv::r_a4(){
  87:src/cpp/../../h/riscv.hpp ****     uint64 a0;
  88:src/cpp/../../h/riscv.hpp ****     asm volatile("mv %0, a4" : "=r" (a0));
  89:src/cpp/../../h/riscv.hpp ****     return a0;
  90:src/cpp/../../h/riscv.hpp **** }
  91:src/cpp/../../h/riscv.hpp **** 
  92:src/cpp/../../h/riscv.hpp **** 
  93:src/cpp/../../h/riscv.hpp **** inline uint64 Riscv::s_a0(uint64 a0){
  94:src/cpp/../../h/riscv.hpp ****     return a0;
  95:src/cpp/../../h/riscv.hpp **** }
  96:src/cpp/../../h/riscv.hpp **** 
  97:src/cpp/../../h/riscv.hpp **** inline void Riscv::w_scause(uint64 scause){
  98:src/cpp/../../h/riscv.hpp ****     asm volatile("csrw scause, %0" : : "r" (scause));
  99:src/cpp/../../h/riscv.hpp **** }
 100:src/cpp/../../h/riscv.hpp **** 
 101:src/cpp/../../h/riscv.hpp **** inline uint64 Riscv::r_scause(){
 102:src/cpp/../../h/riscv.hpp ****     uint64 volatile scause;
 103:src/cpp/../../h/riscv.hpp ****     asm volatile("csrr %0, scause" : "=r" (scause));
 104:src/cpp/../../h/riscv.hpp ****     return scause;
GAS LISTING /tmp/ccgRGHpw.s 			page 15


 105:src/cpp/../../h/riscv.hpp **** } 
 106:src/cpp/../../h/riscv.hpp **** 
 107:src/cpp/../../h/riscv.hpp **** inline void Riscv::w_sepc(uint64 sepc){
 108:src/cpp/../../h/riscv.hpp ****     asm volatile("csrw sepc, %0" : : "r" (sepc));
 109:src/cpp/../../h/riscv.hpp **** }
 110:src/cpp/../../h/riscv.hpp **** 
 111:src/cpp/../../h/riscv.hpp **** inline uint64 Riscv::r_sepc(){
 112:src/cpp/../../h/riscv.hpp ****     uint64 volatile sepc;
 113:src/cpp/../../h/riscv.hpp ****     asm volatile("csrr %0, sepc" : "=r" (sepc));
 114:src/cpp/../../h/riscv.hpp ****     return sepc;
 115:src/cpp/../../h/riscv.hpp **** } 
 116:src/cpp/../../h/riscv.hpp **** 
 117:src/cpp/../../h/riscv.hpp **** inline void Riscv::w_stvec(uint64 stvec){
 118:src/cpp/../../h/riscv.hpp ****     asm volatile("csrw stvec, %0" : : "r" (stvec));
 119:src/cpp/../../h/riscv.hpp **** }
 120:src/cpp/../../h/riscv.hpp **** 
 121:src/cpp/../../h/riscv.hpp **** inline uint64 Riscv::r_stvec(){
 122:src/cpp/../../h/riscv.hpp ****     uint64 volatile stvec;
 123:src/cpp/../../h/riscv.hpp ****     asm volatile("csrr %0, stvec" : "=r" (stvec));
 124:src/cpp/../../h/riscv.hpp ****     return stvec;
 125:src/cpp/../../h/riscv.hpp **** } 
 126:src/cpp/../../h/riscv.hpp **** 
 127:src/cpp/../../h/riscv.hpp **** inline void Riscv::w_stval(uint64 stval){
 128:src/cpp/../../h/riscv.hpp ****     asm volatile("csrw stval, %0" : : "r" (stval));
 129:src/cpp/../../h/riscv.hpp **** }
 130:src/cpp/../../h/riscv.hpp **** 
 131:src/cpp/../../h/riscv.hpp **** inline uint64 Riscv::r_stval(){
 132:src/cpp/../../h/riscv.hpp ****     uint64 volatile stval;
 133:src/cpp/../../h/riscv.hpp ****     asm volatile("csrr %0, stval" : "=r" (stval));
 134:src/cpp/../../h/riscv.hpp ****     return stval;
 135:src/cpp/../../h/riscv.hpp **** } 
 136:src/cpp/../../h/riscv.hpp **** 
 137:src/cpp/../../h/riscv.hpp **** inline void Riscv::ms_sip(uint64 mask){
 138:src/cpp/../../h/riscv.hpp ****     asm volatile ("csrs sip, %0" : : "r" (mask));
 139:src/cpp/../../h/riscv.hpp **** }
 140:src/cpp/../../h/riscv.hpp **** 
 141:src/cpp/../../h/riscv.hpp **** inline void Riscv::mc_sip(uint64 mask){
 142:src/cpp/../../h/riscv.hpp ****     asm volatile ("csrc sip, %0" : : "r" (mask));
 143:src/cpp/../../h/riscv.hpp **** }
 144:src/cpp/../../h/riscv.hpp **** 
 145:src/cpp/../../h/riscv.hpp **** inline void Riscv::w_sip(uint64 sip){
 146:src/cpp/../../h/riscv.hpp ****     asm volatile("csrw sip, %0" : : "r" (sip));
 147:src/cpp/../../h/riscv.hpp **** }
 148:src/cpp/../../h/riscv.hpp **** 
 149:src/cpp/../../h/riscv.hpp **** inline uint64 Riscv::r_sip(){
 150:src/cpp/../../h/riscv.hpp ****     uint64 volatile sip;
 151:src/cpp/../../h/riscv.hpp ****     asm volatile("csrr %0, sip" : "=r" (sip));
 152:src/cpp/../../h/riscv.hpp ****     return sip;
 153:src/cpp/../../h/riscv.hpp **** } 
 154:src/cpp/../../h/riscv.hpp **** 
 155:src/cpp/../../h/riscv.hpp **** inline void Riscv::ms_sstatus(uint64 mask){
 156:src/cpp/../../h/riscv.hpp ****     asm volatile ("csrs sstatus, %0" : : "r" (mask));
 157:src/cpp/../../h/riscv.hpp **** }
 158:src/cpp/../../h/riscv.hpp **** 
 159:src/cpp/../../h/riscv.hpp **** inline void Riscv::mc_sstatus(uint64 mask){
 160:src/cpp/../../h/riscv.hpp ****     asm volatile ("csrc sstatus, %0" : : "r" (mask));
 161:src/cpp/../../h/riscv.hpp **** }
GAS LISTING /tmp/ccgRGHpw.s 			page 16


 162:src/cpp/../../h/riscv.hpp **** 
 163:src/cpp/../../h/riscv.hpp **** inline void Riscv::w_sstatus(uint64 sstatus){
 164:src/cpp/../../h/riscv.hpp ****     asm volatile("csrw sstatus, %0" : : "r" (sstatus));
 165:src/cpp/../../h/riscv.hpp **** }
 166:src/cpp/../../h/riscv.hpp **** 
 167:src/cpp/../../h/riscv.hpp **** inline uint64 Riscv::r_sstatus(){
 168:src/cpp/../../h/riscv.hpp ****     uint64 volatile sstatus;
 488              		.loc 4 168 5
 169:src/cpp/../../h/riscv.hpp ****     asm volatile("csrr %0, sstatus" : "=r" (sstatus));
 489              		.loc 4 169 5
 490              		.loc 4 169 54 is_stmt 0
 491              	 #APP
 492              	# 169 "src/cpp/../../h/riscv.hpp" 1
 170              	    return sstatus;
 493              		csrr a5, sstatus
 494              	# 0 "" 2
 495              	 #NO_APP
 496 002c 2334F4FA 		sd	a5,-88(s0)
 497              		.loc 4 170 5 is_stmt 1
 498              		.loc 4 170 12 is_stmt 0
 499 0030 833984FA 		ld	s3,-88(s0)
 500              	.LVL32:
 501              	.LBE128:
 502              	.LBE127:
  11:src/cpp/testing.cpp ****     char buffer[25];
 503              		.loc 3 11 5 is_stmt 1
 504              	.LBB129:
 505              	.LBB130:
 160:src/cpp/../../h/riscv.hpp **** }
 506              		.loc 4 160 5
 160:src/cpp/../../h/riscv.hpp **** }
 507              		.loc 4 160 53 is_stmt 0
 508 0034 93072000 		li	a5,2
 509              	 #APP
 510              	# 160 "src/cpp/../../h/riscv.hpp" 1
 511              		csrc sstatus, a5
 512              	# 0 "" 2
 513              	.LVL33:
 514              	 #NO_APP
 515              	.LBE130:
 516              	.LBE129:
  12:src/cpp/testing.cpp ****     uint64 unum1 = unum;
 517              		.loc 3 12 5 is_stmt 1
  13:src/cpp/testing.cpp ****     int i = 0;
 518              		.loc 3 13 5
  14:src/cpp/testing.cpp **** 
 519              		.loc 3 14 5
  16:src/cpp/testing.cpp ****     do{
 520              		.loc 3 16 5
 521              	.LBB131:
 522 003c 631E0604 		bne	a2,zero,.L18
 523              	.LBE131:
  14:src/cpp/testing.cpp **** 
 524              		.loc 3 14 9 is_stmt 0
 525 0040 93040000 		li	s1,0
 526 0044 6F00C000 		j	.L19
 527              	.LVL34:
GAS LISTING /tmp/ccgRGHpw.s 			page 17


 528              	.L24:
 529              	.LBB136:
 530              	.LBB132:
  18:src/cpp/testing.cpp ****         unum1/=10;
 531              		.loc 3 18 17
 532 0048 93040600 		mv	s1,a2
 533              	.LVL35:
  19:src/cpp/testing.cpp ****     }while(unum1 > 0);
 534              		.loc 3 19 14
 535 004c 13890700 		mv	s2,a5
 536              	.LVL36:
 537              	.L19:
  17:src/cpp/testing.cpp ****         buffer[i++] = '0' + unum1%10;
 538              		.loc 3 17 5 is_stmt 1
  18:src/cpp/testing.cpp ****         unum1/=10;
 539              		.loc 3 18 9
  18:src/cpp/testing.cpp ****         unum1/=10;
 540              		.loc 3 18 34 is_stmt 0
 541 0050 9307A000 		li	a5,10
 542 0054 3377F902 		remu	a4,s2,a5
  18:src/cpp/testing.cpp ****         unum1/=10;
 543              		.loc 3 18 17
 544 0058 1B861400 		addiw	a2,s1,1
 545              	.LVL37:
  18:src/cpp/testing.cpp ****         unum1/=10;
 546              		.loc 3 18 27
 547 005c 13070703 		addi	a4,a4,48
  18:src/cpp/testing.cpp ****         unum1/=10;
 548              		.loc 3 18 21
 549 0060 930604FD 		addi	a3,s0,-48
 550 0064 B3869600 		add	a3,a3,s1
 551 0068 2380E6FE 		sb	a4,-32(a3)
  19:src/cpp/testing.cpp ****     }while(unum1 > 0);
 552              		.loc 3 19 9 is_stmt 1
  19:src/cpp/testing.cpp ****     }while(unum1 > 0);
 553              		.loc 3 19 14 is_stmt 0
 554 006c B357F902 		divu	a5,s2,a5
 555              	.LVL38:
  20:src/cpp/testing.cpp ****     for(int j = i-1; j >= 0; j--)
 556              		.loc 3 20 18
 557 0070 13079000 		li	a4,9
 558 0074 E36A27FD 		bgtu	s2,a4,.L24
 559              	.LVL39:
 560              	.L21:
 561              	.LBB133:
  21:src/cpp/testing.cpp ****         __putc(buffer[j]);
 562              		.loc 3 21 24 discriminator 1
 563 0078 63CC0408 		blt	s1,zero,.L20
  22:src/cpp/testing.cpp ****     }else{
 564              		.loc 3 22 9 is_stmt 1
  22:src/cpp/testing.cpp ****     }else{
 565              		.loc 3 22 15 is_stmt 0
 566 007c 930704FD 		addi	a5,s0,-48
 567 0080 B3879700 		add	a5,a5,s1
 568 0084 03C507FE 		lbu	a0,-32(a5)
 569 0088 97000000 		call	__putc
 569      E7800000 
GAS LISTING /tmp/ccgRGHpw.s 			page 18


 570              	.LVL40:
  21:src/cpp/testing.cpp ****         __putc(buffer[j]);
 571              		.loc 3 21 5
 572 0090 9B84F4FF 		addiw	s1,s1,-1
 573              	.LVL41:
 574 0094 6FF05FFE 		j	.L21
 575              	.LVL42:
 576              	.L18:
 577              	.LBE133:
 578              	.LBE132:
 579              	.LBB134:
  25:src/cpp/testing.cpp ****     __putc('x');
 580              		.loc 3 25 5 is_stmt 1
  25:src/cpp/testing.cpp ****     __putc('x');
 581              		.loc 3 25 11 is_stmt 0
 582 0098 13050003 		li	a0,48
 583              	.LVL43:
 584 009c 97000000 		call	__putc
 584      E7800000 
 585              	.LVL44:
  26:src/cpp/testing.cpp ****     
 586              		.loc 3 26 5 is_stmt 1
  26:src/cpp/testing.cpp ****     
 587              		.loc 3 26 11 is_stmt 0
 588 00a4 13058007 		li	a0,120
 589 00a8 97000000 		call	__putc
 589      E7800000 
 590              	.LVL45:
  30:src/cpp/testing.cpp ****     do{
 591              		.loc 3 30 7
 592 00b0 93040000 		li	s1,0
 593 00b4 6F00C000 		j	.L22
 594              	.LVL46:
 595              	.L25:
  32:src/cpp/testing.cpp ****         unum1/=16;
 596              		.loc 3 32 17
 597 00b8 93840600 		mv	s1,a3
 598              	.LVL47:
  33:src/cpp/testing.cpp ****     } while(unum1 > 0);
 599              		.loc 3 33 14
 600 00bc 13090700 		mv	s2,a4
 601              	.LVL48:
 602              	.L22:
  31:src/cpp/testing.cpp ****         buffer[i++] = numbers[unum1%16];
 603              		.loc 3 31 5 is_stmt 1
  32:src/cpp/testing.cpp ****         unum1/=16;
 604              		.loc 3 32 9
  32:src/cpp/testing.cpp ****         unum1/=16;
 605              		.loc 3 32 36 is_stmt 0
 606 00c0 9377F900 		andi	a5,s2,15
  32:src/cpp/testing.cpp ****         unum1/=16;
 607              		.loc 3 32 17
 608 00c4 9B861400 		addiw	a3,s1,1
 609              	.LVL49:
  32:src/cpp/testing.cpp ****         unum1/=16;
 610              		.loc 3 32 39
 611 00c8 17070000 		lla	a4,.LC1
GAS LISTING /tmp/ccgRGHpw.s 			page 19


 611      13070700 
 612 00d0 B387E700 		add	a5,a5,a4
 613 00d4 03C70700 		lbu	a4,0(a5)
  32:src/cpp/testing.cpp ****         unum1/=16;
 614              		.loc 3 32 21
 615 00d8 930704FD 		addi	a5,s0,-48
 616 00dc B3879700 		add	a5,a5,s1
 617 00e0 2380E7FE 		sb	a4,-32(a5)
  33:src/cpp/testing.cpp ****     } while(unum1 > 0);
 618              		.loc 3 33 9 is_stmt 1
  33:src/cpp/testing.cpp ****     } while(unum1 > 0);
 619              		.loc 3 33 14 is_stmt 0
 620 00e4 13574900 		srli	a4,s2,4
 621              	.LVL50:
  34:src/cpp/testing.cpp ****     for(int j = i-1; j >= 0; j--)
 622              		.loc 3 34 19
 623 00e8 9307F000 		li	a5,15
 624 00ec E3E627FD 		bgtu	s2,a5,.L25
 625              	.LVL51:
 626              	.L23:
 627              	.LBB135:
  35:src/cpp/testing.cpp ****         __putc(buffer[j]);
 628              		.loc 3 35 24 discriminator 1
 629 00f0 63C00402 		blt	s1,zero,.L20
  36:src/cpp/testing.cpp ****     }
 630              		.loc 3 36 9 is_stmt 1
  36:src/cpp/testing.cpp ****     }
 631              		.loc 3 36 15 is_stmt 0
 632 00f4 930704FD 		addi	a5,s0,-48
 633 00f8 B3879700 		add	a5,a5,s1
 634 00fc 03C507FE 		lbu	a0,-32(a5)
 635 0100 97000000 		call	__putc
 635      E7800000 
 636              	.LVL52:
  35:src/cpp/testing.cpp ****         __putc(buffer[j]);
 637              		.loc 3 35 5
 638 0108 9B84F4FF 		addiw	s1,s1,-1
 639              	.LVL53:
 640 010c 6FF05FFE 		j	.L23
 641              	.LVL54:
 642              	.L20:
 643              	.LBE135:
 644              	.LBE134:
 645              	.LBE136:
  38:src/cpp/testing.cpp ****     Riscv::ms_sstatus(sstatus & Riscv::SSTATUS_SIE ? Riscv::SSTATUS_SIE : 0);
 646              		.loc 3 38 5 is_stmt 1
  38:src/cpp/testing.cpp ****     Riscv::ms_sstatus(sstatus & Riscv::SSTATUS_SIE ? Riscv::SSTATUS_SIE : 0);
 647              		.loc 3 38 11 is_stmt 0
 648 0110 13050A00 		mv	a0,s4
 649 0114 97000000 		call	__putc
 649      E7800000 
 650              	.LVL55:
  39:src/cpp/testing.cpp **** }
 651              		.loc 3 39 5 is_stmt 1
  39:src/cpp/testing.cpp **** }
 652              		.loc 3 39 52 is_stmt 0
 653 011c 9B890900 		sext.w	s3,s3
GAS LISTING /tmp/ccgRGHpw.s 			page 20


 654              	.LVL56:
  39:src/cpp/testing.cpp **** }
 655              		.loc 3 39 22
 656 0120 93F92900 		andi	s3,s3,2
 657 0124 9B890900 		sext.w	s3,s3
 658              	.LVL57:
 659              	.LBB137:
 660              	.LBB138:
 156:src/cpp/../../h/riscv.hpp **** }
 661              		.loc 4 156 5 is_stmt 1
 156:src/cpp/../../h/riscv.hpp **** }
 662              		.loc 4 156 53 is_stmt 0
 663              	 #APP
 664              	# 156 "src/cpp/../../h/riscv.hpp" 1
 665              		csrs sstatus, s3
 666              	# 0 "" 2
 667              	.LVL58:
 668              	 #NO_APP
 669              	.LBE138:
 670              	.LBE137:
  40:src/cpp/testing.cpp **** 
 671              		.loc 3 40 1
 672 012c 83308105 		ld	ra,88(sp)
 673              		.cfi_restore 1
 674 0130 03340105 		ld	s0,80(sp)
 675              		.cfi_restore 8
 676              		.cfi_def_cfa 2, 96
 677 0134 83348104 		ld	s1,72(sp)
 678              		.cfi_restore 9
 679 0138 03390104 		ld	s2,64(sp)
 680              		.cfi_restore 18
 681 013c 83398103 		ld	s3,56(sp)
 682              		.cfi_restore 19
 683 0140 033A0103 		ld	s4,48(sp)
 684              		.cfi_restore 20
 685 0144 13010106 		addi	sp,sp,96
 686              		.cfi_def_cfa_offset 0
 687 0148 67800000 		jr	ra
 688              		.cfi_endproc
 689              	.LFE64:
 691              		.align	2
 692              		.globl	_Z5printPKcc
 694              	_Z5printPKcc:
 695              	.LFB65:
  42:src/cpp/testing.cpp ****     uint64 sstatus = Riscv::r_sstatus();
 696              		.loc 3 42 38 is_stmt 1
 697              		.cfi_startproc
 698              	.LVL59:
 699 014c 130101FC 		addi	sp,sp,-64
 700              		.cfi_def_cfa_offset 64
 701 0150 233C1102 		sd	ra,56(sp)
 702 0154 23388102 		sd	s0,48(sp)
 703 0158 23349102 		sd	s1,40(sp)
 704 015c 23302103 		sd	s2,32(sp)
 705 0160 233C3101 		sd	s3,24(sp)
 706 0164 23384101 		sd	s4,16(sp)
 707              		.cfi_offset 1, -8
GAS LISTING /tmp/ccgRGHpw.s 			page 21


 708              		.cfi_offset 8, -16
 709              		.cfi_offset 9, -24
 710              		.cfi_offset 18, -32
 711              		.cfi_offset 19, -40
 712              		.cfi_offset 20, -48
 713 0168 13040104 		addi	s0,sp,64
 714              		.cfi_def_cfa 8, 0
 715 016c 13090500 		mv	s2,a0
 716 0170 138A0500 		mv	s4,a1
  43:src/cpp/testing.cpp ****     Riscv::mc_sstatus(Riscv::SSTATUS_SIE);
 717              		.loc 3 43 5
 718              	.LBB139:
 719              	.LBB140:
 168:src/cpp/../../h/riscv.hpp ****     asm volatile("csrr %0, sstatus" : "=r" (sstatus));
 720              		.loc 4 168 5
 169:src/cpp/../../h/riscv.hpp ****     return sstatus;
 721              		.loc 4 169 5
 169:src/cpp/../../h/riscv.hpp ****     return sstatus;
 722              		.loc 4 169 54 is_stmt 0
 723              	 #APP
 724              	# 169 "src/cpp/../../h/riscv.hpp" 1
 725              		csrr a5, sstatus
 726              	# 0 "" 2
 727              	 #NO_APP
 728 0178 2334F4FC 		sd	a5,-56(s0)
 729              		.loc 4 170 5 is_stmt 1
 730              		.loc 4 170 12 is_stmt 0
 731 017c 833984FC 		ld	s3,-56(s0)
 732              	.LVL60:
 733              	.LBE140:
 734              	.LBE139:
  44:src/cpp/testing.cpp ****     for(int i = 0; str[i]; i++)
 735              		.loc 3 44 5 is_stmt 1
 736              	.LBB141:
 737              	.LBB142:
 160:src/cpp/../../h/riscv.hpp **** }
 738              		.loc 4 160 5
 160:src/cpp/../../h/riscv.hpp **** }
 739              		.loc 4 160 53 is_stmt 0
 740 0180 93072000 		li	a5,2
 741              	 #APP
 742              	# 160 "src/cpp/../../h/riscv.hpp" 1
 743              		csrc sstatus, a5
 744              	# 0 "" 2
 745              	.LVL61:
 746              	 #NO_APP
 747              	.LBE142:
 748              	.LBE141:
  45:src/cpp/testing.cpp ****         __putc(str[i]);
 749              		.loc 3 45 5 is_stmt 1
 750              	.LBB143:
  45:src/cpp/testing.cpp ****         __putc(str[i]);
 751              		.loc 3 45 13 is_stmt 0
 752 0188 93040000 		li	s1,0
 753              	.LVL62:
 754              	.L29:
  45:src/cpp/testing.cpp ****         __putc(str[i]);
GAS LISTING /tmp/ccgRGHpw.s 			page 22


 755              		.loc 3 45 25 discriminator 3
 756 018c B3079900 		add	a5,s2,s1
 757 0190 03C50700 		lbu	a0,0(a5)
 758 0194 630A0500 		beq	a0,zero,.L28
  46:src/cpp/testing.cpp ****     __putc(end);
 759              		.loc 3 46 9 is_stmt 1 discriminator 2
  46:src/cpp/testing.cpp ****     __putc(end);
 760              		.loc 3 46 15 is_stmt 0 discriminator 2
 761 0198 97000000 		call	__putc
 761      E7800000 
 762              	.LVL63:
  45:src/cpp/testing.cpp ****         __putc(str[i]);
 763              		.loc 3 45 5 discriminator 2
 764 01a0 9B841400 		addiw	s1,s1,1
 765              	.LVL64:
 766 01a4 6FF09FFE 		j	.L29
 767              	.LVL65:
 768              	.L28:
 769              	.LBE143:
  47:src/cpp/testing.cpp ****     Riscv::ms_sstatus(sstatus & Riscv::SSTATUS_SIE ? Riscv::SSTATUS_SIE : 0);
 770              		.loc 3 47 5 is_stmt 1
  47:src/cpp/testing.cpp ****     Riscv::ms_sstatus(sstatus & Riscv::SSTATUS_SIE ? Riscv::SSTATUS_SIE : 0);
 771              		.loc 3 47 11 is_stmt 0
 772 01a8 13050A00 		mv	a0,s4
 773 01ac 97000000 		call	__putc
 773      E7800000 
 774              	.LVL66:
  48:src/cpp/testing.cpp **** 
 775              		.loc 3 48 5 is_stmt 1
  48:src/cpp/testing.cpp **** 
 776              		.loc 3 48 52 is_stmt 0
 777 01b4 9B890900 		sext.w	s3,s3
 778              	.LVL67:
  48:src/cpp/testing.cpp **** 
 779              		.loc 3 48 22
 780 01b8 93F92900 		andi	s3,s3,2
 781 01bc 9B890900 		sext.w	s3,s3
 782              	.LVL68:
 783              	.LBB144:
 784              	.LBB145:
 156:src/cpp/../../h/riscv.hpp **** }
 785              		.loc 4 156 5 is_stmt 1
 156:src/cpp/../../h/riscv.hpp **** }
 786              		.loc 4 156 53 is_stmt 0
 787              	 #APP
 788              	# 156 "src/cpp/../../h/riscv.hpp" 1
 789              		csrs sstatus, s3
 790              	# 0 "" 2
 791              	.LVL69:
 792              	 #NO_APP
 793              	.LBE145:
 794              	.LBE144:
  50:src/cpp/testing.cpp **** 
 795              		.loc 3 50 1
 796 01c4 83308103 		ld	ra,56(sp)
 797              		.cfi_restore 1
 798 01c8 03340103 		ld	s0,48(sp)
GAS LISTING /tmp/ccgRGHpw.s 			page 23


 799              		.cfi_restore 8
 800              		.cfi_def_cfa 2, 64
 801 01cc 83348102 		ld	s1,40(sp)
 802              		.cfi_restore 9
 803              	.LVL70:
 804 01d0 03390102 		ld	s2,32(sp)
 805              		.cfi_restore 18
 806              	.LVL71:
 807 01d4 83398101 		ld	s3,24(sp)
 808              		.cfi_restore 19
 809 01d8 033A0101 		ld	s4,16(sp)
 810              		.cfi_restore 20
 811 01dc 13010104 		addi	sp,sp,64
 812              		.cfi_def_cfa_offset 0
 813 01e0 67800000 		jr	ra
 814              		.cfi_endproc
 815              	.LFE65:
 817              		.align	2
 818              		.globl	_Z5printPKcmb
 820              	_Z5printPKcmb:
 821              	.LFB66:
  52:src/cpp/testing.cpp ****     uint64 sstatus = Riscv::r_sstatus();
 822              		.loc 3 52 48 is_stmt 1
 823              		.cfi_startproc
 824              	.LVL72:
 825 01e4 130101FC 		addi	sp,sp,-64
 826              		.cfi_def_cfa_offset 64
 827 01e8 233C1102 		sd	ra,56(sp)
 828 01ec 23388102 		sd	s0,48(sp)
 829 01f0 23349102 		sd	s1,40(sp)
 830 01f4 23302103 		sd	s2,32(sp)
 831 01f8 233C3101 		sd	s3,24(sp)
 832              		.cfi_offset 1, -8
 833              		.cfi_offset 8, -16
 834              		.cfi_offset 9, -24
 835              		.cfi_offset 18, -32
 836              		.cfi_offset 19, -40
 837 01fc 13040104 		addi	s0,sp,64
 838              		.cfi_def_cfa 8, 0
 839 0200 13890500 		mv	s2,a1
 840 0204 93090600 		mv	s3,a2
  53:src/cpp/testing.cpp ****     Riscv::mc_sstatus(Riscv::SSTATUS_SIE);
 841              		.loc 3 53 5
 842              	.LBB146:
 843              	.LBB147:
 168:src/cpp/../../h/riscv.hpp ****     asm volatile("csrr %0, sstatus" : "=r" (sstatus));
 844              		.loc 4 168 5
 169:src/cpp/../../h/riscv.hpp ****     return sstatus;
 845              		.loc 4 169 5
 169:src/cpp/../../h/riscv.hpp ****     return sstatus;
 846              		.loc 4 169 54 is_stmt 0
 847              	 #APP
 848              	# 169 "src/cpp/../../h/riscv.hpp" 1
 849              		csrr a5, sstatus
 850              	# 0 "" 2
 851              	 #NO_APP
 852 020c 2334F4FC 		sd	a5,-56(s0)
GAS LISTING /tmp/ccgRGHpw.s 			page 24


 853              		.loc 4 170 5 is_stmt 1
 854              		.loc 4 170 12 is_stmt 0
 855 0210 833484FC 		ld	s1,-56(s0)
 856              	.LVL73:
 857              	.LBE147:
 858              	.LBE146:
  54:src/cpp/testing.cpp ****     print(str, ' ');
 859              		.loc 3 54 5 is_stmt 1
 860              	.LBB148:
 861              	.LBB149:
 160:src/cpp/../../h/riscv.hpp **** }
 862              		.loc 4 160 5
 160:src/cpp/../../h/riscv.hpp **** }
 863              		.loc 4 160 53 is_stmt 0
 864 0214 93072000 		li	a5,2
 865              	 #APP
 866              	# 160 "src/cpp/../../h/riscv.hpp" 1
 867              		csrc sstatus, a5
 868              	# 0 "" 2
 869              	.LVL74:
 870              	 #NO_APP
 871              	.LBE149:
 872              	.LBE148:
  55:src/cpp/testing.cpp ****     print(t, '\n', hex);
 873              		.loc 3 55 5 is_stmt 1
  55:src/cpp/testing.cpp ****     print(t, '\n', hex);
 874              		.loc 3 55 10 is_stmt 0
 875 021c 93050002 		li	a1,32
 876              	.LVL75:
 877 0220 97000000 		call	_Z5printPKcc
 877      E7800000 
 878              	.LVL76:
  56:src/cpp/testing.cpp ****     Riscv::ms_sstatus(sstatus & Riscv::SSTATUS_SIE ? Riscv::SSTATUS_SIE : 0);
 879              		.loc 3 56 5 is_stmt 1
  56:src/cpp/testing.cpp ****     Riscv::ms_sstatus(sstatus & Riscv::SSTATUS_SIE ? Riscv::SSTATUS_SIE : 0);
 880              		.loc 3 56 10 is_stmt 0
 881 0228 13860900 		mv	a2,s3
 882 022c 9305A000 		li	a1,10
 883 0230 13050900 		mv	a0,s2
 884 0234 97000000 		call	_Z5printmcb
 884      E7800000 
 885              	.LVL77:
  57:src/cpp/testing.cpp **** }
 886              		.loc 3 57 5 is_stmt 1
  57:src/cpp/testing.cpp **** }
 887              		.loc 3 57 52 is_stmt 0
 888 023c 9B840400 		sext.w	s1,s1
 889              	.LVL78:
  57:src/cpp/testing.cpp **** }
 890              		.loc 3 57 22
 891 0240 93F42400 		andi	s1,s1,2
 892 0244 9B840400 		sext.w	s1,s1
 893              	.LVL79:
 894              	.LBB150:
 895              	.LBB151:
 156:src/cpp/../../h/riscv.hpp **** }
 896              		.loc 4 156 5 is_stmt 1
GAS LISTING /tmp/ccgRGHpw.s 			page 25


 156:src/cpp/../../h/riscv.hpp **** }
 897              		.loc 4 156 53 is_stmt 0
 898              	 #APP
 899              	# 156 "src/cpp/../../h/riscv.hpp" 1
 900              		csrs sstatus, s1
 901              	# 0 "" 2
 902              	.LVL80:
 903              	 #NO_APP
 904              	.LBE151:
 905              	.LBE150:
  58:src/cpp/testing.cpp **** 
 906              		.loc 3 58 1
 907 024c 83308103 		ld	ra,56(sp)
 908              		.cfi_restore 1
 909 0250 03340103 		ld	s0,48(sp)
 910              		.cfi_restore 8
 911              		.cfi_def_cfa 2, 64
 912 0254 83348102 		ld	s1,40(sp)
 913              		.cfi_restore 9
 914 0258 03390102 		ld	s2,32(sp)
 915              		.cfi_restore 18
 916              	.LVL81:
 917 025c 83398101 		ld	s3,24(sp)
 918              		.cfi_restore 19
 919 0260 13010104 		addi	sp,sp,64
 920              		.cfi_def_cfa_offset 0
 921 0264 67800000 		jr	ra
 922              		.cfi_endproc
 923              	.LFE66:
 925              		.align	2
 926              		.globl	_Z9allocTestR15MemoryAllocatorm
 928              	_Z9allocTestR15MemoryAllocatorm:
 929              	.LFB67:
  60:src/cpp/testing.cpp ****     print("\nAlokacija", ' ');
 930              		.loc 3 60 57 is_stmt 1
 931              		.cfi_startproc
 932              	.LVL82:
 933 0268 130101FE 		addi	sp,sp,-32
 934              		.cfi_def_cfa_offset 32
 935 026c 233C1100 		sd	ra,24(sp)
 936 0270 23388100 		sd	s0,16(sp)
 937 0274 23349100 		sd	s1,8(sp)
 938 0278 23302101 		sd	s2,0(sp)
 939              		.cfi_offset 1, -8
 940              		.cfi_offset 8, -16
 941              		.cfi_offset 9, -24
 942              		.cfi_offset 18, -32
 943 027c 13040102 		addi	s0,sp,32
 944              		.cfi_def_cfa 8, 0
 945 0280 93040500 		mv	s1,a0
 946 0284 13890500 		mv	s2,a1
  61:src/cpp/testing.cpp ****     print(size, ' ');
 947              		.loc 3 61 5
  61:src/cpp/testing.cpp ****     print(size, ' ');
 948              		.loc 3 61 10 is_stmt 0
 949 0288 93050002 		li	a1,32
 950              	.LVL83:
GAS LISTING /tmp/ccgRGHpw.s 			page 26


 951 028c 17050000 		lla	a0,.LC2
 951      13050500 
 952              	.LVL84:
 953 0294 97000000 		call	_Z5printPKcc
 953      E7800000 
 954              	.LVL85:
  62:src/cpp/testing.cpp ****     print("blokova");
 955              		.loc 3 62 5 is_stmt 1
  62:src/cpp/testing.cpp ****     print("blokova");
 956              		.loc 3 62 10 is_stmt 0
 957 029c 13061000 		li	a2,1
 958 02a0 93050002 		li	a1,32
 959 02a4 13050900 		mv	a0,s2
 960 02a8 97000000 		call	_Z5printmcb
 960      E7800000 
 961              	.LVL86:
  63:src/cpp/testing.cpp ****     char* newblc = (char*)allocator.mem_alloc(size);
 962              		.loc 3 63 5 is_stmt 1
  63:src/cpp/testing.cpp ****     char* newblc = (char*)allocator.mem_alloc(size);
 963              		.loc 3 63 10 is_stmt 0
 964 02b0 9305A000 		li	a1,10
 965 02b4 17050000 		lla	a0,.LC3
 965      13050500 
 966 02bc 97000000 		call	_Z5printPKcc
 966      E7800000 
 967              	.LVL87:
  64:src/cpp/testing.cpp ****     allocator.print_list();  
 968              		.loc 3 64 5 is_stmt 1
  64:src/cpp/testing.cpp ****     allocator.print_list();  
 969              		.loc 3 64 46 is_stmt 0
 970 02c4 93050900 		mv	a1,s2
 971 02c8 13850400 		mv	a0,s1
 972 02cc 97000000 		call	_ZN15MemoryAllocator9mem_allocEm
 972      E7800000 
 973              	.LVL88:
 974 02d4 13090500 		mv	s2,a0
 975              	.LVL89:
  65:src/cpp/testing.cpp ****     return newblc;
 976              		.loc 3 65 5 is_stmt 1
  65:src/cpp/testing.cpp ****     return newblc;
 977              		.loc 3 65 25 is_stmt 0
 978 02d8 13850400 		mv	a0,s1
 979              	.LVL90:
 980 02dc 97000000 		call	_ZN15MemoryAllocator10print_listEv
 980      E7800000 
 981              	.LVL91:
  66:src/cpp/testing.cpp **** }
 982              		.loc 3 66 5 is_stmt 1
  67:src/cpp/testing.cpp **** 
 983              		.loc 3 67 1 is_stmt 0
 984 02e4 13050900 		mv	a0,s2
 985 02e8 83308101 		ld	ra,24(sp)
 986              		.cfi_restore 1
 987 02ec 03340101 		ld	s0,16(sp)
 988              		.cfi_restore 8
 989              		.cfi_def_cfa 2, 32
 990 02f0 83348100 		ld	s1,8(sp)
GAS LISTING /tmp/ccgRGHpw.s 			page 27


 991              		.cfi_restore 9
 992              	.LVL92:
 993 02f4 03390100 		ld	s2,0(sp)
 994              		.cfi_restore 18
 995              	.LVL93:
 996 02f8 13010102 		addi	sp,sp,32
 997              		.cfi_def_cfa_offset 0
 998 02fc 67800000 		jr	ra
 999              		.cfi_endproc
 1000              	.LFE67:
 1002              		.align	2
 1003              		.globl	_Z8freeTestR15MemoryAllocatorPv
 1005              	_Z8freeTestR15MemoryAllocatorPv:
 1006              	.LFB68:
  69:src/cpp/testing.cpp ****     print("\nDealogkacija");
 1007              		.loc 3 69 53 is_stmt 1
 1008              		.cfi_startproc
 1009              	.LVL94:
 1010 0300 130101FE 		addi	sp,sp,-32
 1011              		.cfi_def_cfa_offset 32
 1012 0304 233C1100 		sd	ra,24(sp)
 1013 0308 23388100 		sd	s0,16(sp)
 1014 030c 23349100 		sd	s1,8(sp)
 1015 0310 23302101 		sd	s2,0(sp)
 1016              		.cfi_offset 1, -8
 1017              		.cfi_offset 8, -16
 1018              		.cfi_offset 9, -24
 1019              		.cfi_offset 18, -32
 1020 0314 13040102 		addi	s0,sp,32
 1021              		.cfi_def_cfa 8, 0
 1022 0318 93040500 		mv	s1,a0
 1023 031c 13890500 		mv	s2,a1
  70:src/cpp/testing.cpp ****     if(allocator.mem_free(adr) < 0)
 1024              		.loc 3 70 5
  70:src/cpp/testing.cpp ****     if(allocator.mem_free(adr) < 0)
 1025              		.loc 3 70 10 is_stmt 0
 1026 0320 9305A000 		li	a1,10
 1027              	.LVL95:
 1028 0324 17050000 		lla	a0,.LC4
 1028      13050500 
 1029              	.LVL96:
 1030 032c 97000000 		call	_Z5printPKcc
 1030      E7800000 
 1031              	.LVL97:
  71:src/cpp/testing.cpp ****         allocator.print_list();
 1032              		.loc 3 71 5 is_stmt 1
  71:src/cpp/testing.cpp ****         allocator.print_list();
 1033              		.loc 3 71 26 is_stmt 0
 1034 0334 93050900 		mv	a1,s2
 1035 0338 13850400 		mv	a0,s1
 1036 033c 97000000 		call	_ZN15MemoryAllocator8mem_freeEPv
 1036      E7800000 
 1037              	.LVL98:
  71:src/cpp/testing.cpp ****         allocator.print_list();
 1038              		.loc 3 71 5
 1039 0344 63480502 		blt	a0,zero,.L39
  74:src/cpp/testing.cpp **** }
GAS LISTING /tmp/ccgRGHpw.s 			page 28


 1040              		.loc 3 74 9 is_stmt 1
  74:src/cpp/testing.cpp **** }
 1041              		.loc 3 74 14 is_stmt 0
 1042 0348 9305A000 		li	a1,10
 1043 034c 17050000 		lla	a0,.LC5
 1043      13050500 
 1044 0354 97000000 		call	_Z5printPKcc
 1044      E7800000 
 1045              	.LVL99:
 1046              	.L35:
  75:src/cpp/testing.cpp **** 
 1047              		.loc 3 75 1
 1048 035c 83308101 		ld	ra,24(sp)
 1049              		.cfi_remember_state
 1050              		.cfi_restore 1
 1051 0360 03340101 		ld	s0,16(sp)
 1052              		.cfi_restore 8
 1053              		.cfi_def_cfa 2, 32
 1054 0364 83348100 		ld	s1,8(sp)
 1055              		.cfi_restore 9
 1056              	.LVL100:
 1057 0368 03390100 		ld	s2,0(sp)
 1058              		.cfi_restore 18
 1059              	.LVL101:
 1060 036c 13010102 		addi	sp,sp,32
 1061              		.cfi_def_cfa_offset 0
 1062 0370 67800000 		jr	ra
 1063              	.LVL102:
 1064              	.L39:
 1065              		.cfi_restore_state
  72:src/cpp/testing.cpp ****     else
 1066              		.loc 3 72 9 is_stmt 1
  72:src/cpp/testing.cpp ****     else
 1067              		.loc 3 72 29 is_stmt 0
 1068 0374 13850400 		mv	a0,s1
 1069 0378 97000000 		call	_ZN15MemoryAllocator10print_listEv
 1069      E7800000 
 1070              	.LVL103:
 1071 0380 6FF0DFFD 		j	.L35
 1072              		.cfi_endproc
 1073              	.LFE68:
 1075              		.align	2
 1076              		.globl	_Z7memTestv
 1078              	_Z7memTestv:
 1079              	.LFB69:
  77:src/cpp/testing.cpp ****     MemoryAllocator& allocator = MemoryAllocator::getInstance();
 1080              		.loc 3 77 15 is_stmt 1
 1081              		.cfi_startproc
 1082 0384 130101FE 		addi	sp,sp,-32
 1083              		.cfi_def_cfa_offset 32
 1084 0388 233C1100 		sd	ra,24(sp)
 1085 038c 23388100 		sd	s0,16(sp)
 1086 0390 23349100 		sd	s1,8(sp)
 1087 0394 23302101 		sd	s2,0(sp)
 1088              		.cfi_offset 1, -8
 1089              		.cfi_offset 8, -16
 1090              		.cfi_offset 9, -24
GAS LISTING /tmp/ccgRGHpw.s 			page 29


 1091              		.cfi_offset 18, -32
 1092 0398 13040102 		addi	s0,sp,32
 1093              		.cfi_def_cfa 8, 0
  78:src/cpp/testing.cpp ****     allocator.print_list();
 1094              		.loc 3 78 5
  78:src/cpp/testing.cpp ****     allocator.print_list();
 1095              		.loc 3 78 63 is_stmt 0
 1096 039c 97000000 		call	_ZN15MemoryAllocator11getInstanceEv
 1096      E7800000 
 1097              	.LVL104:
 1098 03a4 93040500 		mv	s1,a0
 1099              	.LVL105:
  79:src/cpp/testing.cpp **** 
 1100              		.loc 3 79 5 is_stmt 1
  79:src/cpp/testing.cpp **** 
 1101              		.loc 3 79 25 is_stmt 0
 1102 03a8 97000000 		call	_ZN15MemoryAllocator10print_listEv
 1102      E7800000 
 1103              	.LVL106:
  81:src/cpp/testing.cpp ****     
 1104              		.loc 3 81 5 is_stmt 1
  81:src/cpp/testing.cpp ****     
 1105              		.loc 3 81 14 is_stmt 0
 1106 03b0 13052003 		li	a0,50
 1107 03b4 97000000 		call	mem_alloc
 1107      E7800000 
 1108              	.LVL107:
  83:src/cpp/testing.cpp **** 
 1109              		.loc 3 83 5 is_stmt 1
  83:src/cpp/testing.cpp **** 
 1110              		.loc 3 83 25 is_stmt 0
 1111 03bc 13850400 		mv	a0,s1
 1112 03c0 97000000 		call	_ZN15MemoryAllocator10print_listEv
 1112      E7800000 
 1113              	.LVL108:
  85:src/cpp/testing.cpp ****     print("t:", (uint64)t, 0);
 1114              		.loc 3 85 5 is_stmt 1
  85:src/cpp/testing.cpp ****     print("t:", (uint64)t, 0);
 1115              		.loc 3 85 31 is_stmt 0
 1116 03c8 13054006 		li	a0,100
 1117 03cc 97000000 		call	mem_alloc
 1117      E7800000 
 1118              	.LVL109:
 1119 03d4 13090500 		mv	s2,a0
 1120              	.LVL110:
  86:src/cpp/testing.cpp **** 
 1121              		.loc 3 86 5 is_stmt 1
  86:src/cpp/testing.cpp **** 
 1122              		.loc 3 86 10 is_stmt 0
 1123 03d8 13060000 		li	a2,0
 1124 03dc 93050500 		mv	a1,a0
 1125 03e0 17050000 		lla	a0,.LC6
 1125      13050500 
 1126              	.LVL111:
 1127 03e8 97000000 		call	_Z5printPKcmb
 1127      E7800000 
 1128              	.LVL112:
GAS LISTING /tmp/ccgRGHpw.s 			page 30


  88:src/cpp/testing.cpp **** 
 1129              		.loc 3 88 5 is_stmt 1
  88:src/cpp/testing.cpp **** 
 1130              		.loc 3 88 25 is_stmt 0
 1131 03f0 13850400 		mv	a0,s1
 1132 03f4 97000000 		call	_ZN15MemoryAllocator10print_listEv
 1132      E7800000 
 1133              	.LVL113:
  90:src/cpp/testing.cpp **** 
 1134              		.loc 3 90 5 is_stmt 1
  90:src/cpp/testing.cpp **** 
 1135              		.loc 3 90 14 is_stmt 0
 1136 03fc 1305C012 		li	a0,300
 1137 0400 97000000 		call	mem_alloc
 1137      E7800000 
 1138              	.LVL114:
  92:src/cpp/testing.cpp ****     
 1139              		.loc 3 92 5 is_stmt 1
  92:src/cpp/testing.cpp ****     
 1140              		.loc 3 92 25 is_stmt 0
 1141 0408 13850400 		mv	a0,s1
 1142 040c 97000000 		call	_ZN15MemoryAllocator10print_listEv
 1142      E7800000 
 1143              	.LVL115:
  94:src/cpp/testing.cpp ****     
 1144              		.loc 3 94 5 is_stmt 1
  94:src/cpp/testing.cpp ****     
 1145              		.loc 3 94 32 is_stmt 0
 1146 0414 13050900 		mv	a0,s2
 1147 0418 97000000 		call	mem_free
 1147      E7800000 
 1148              	.LVL116:
  94:src/cpp/testing.cpp ****     
 1149              		.loc 3 94 10
 1150 0420 13060000 		li	a2,0
 1151 0424 93050500 		mv	a1,a0
 1152 0428 17050000 		lla	a0,.LC7
 1152      13050500 
 1153 0430 97000000 		call	_Z5printPKcmb
 1153      E7800000 
 1154              	.LVL117:
  96:src/cpp/testing.cpp **** }
 1155              		.loc 3 96 5 is_stmt 1
  96:src/cpp/testing.cpp **** }
 1156              		.loc 3 96 25 is_stmt 0
 1157 0438 13850400 		mv	a0,s1
 1158 043c 97000000 		call	_ZN15MemoryAllocator10print_listEv
 1158      E7800000 
 1159              	.LVL118:
  97:src/cpp/testing.cpp **** 
 1160              		.loc 3 97 1
 1161 0444 83308101 		ld	ra,24(sp)
 1162              		.cfi_restore 1
 1163 0448 03340101 		ld	s0,16(sp)
 1164              		.cfi_restore 8
 1165              		.cfi_def_cfa 2, 32
 1166 044c 83348100 		ld	s1,8(sp)
GAS LISTING /tmp/ccgRGHpw.s 			page 31


 1167              		.cfi_restore 9
 1168              	.LVL119:
 1169 0450 03390100 		ld	s2,0(sp)
 1170              		.cfi_restore 18
 1171              	.LVL120:
 1172 0454 13010102 		addi	sp,sp,32
 1173              		.cfi_def_cfa_offset 0
 1174 0458 67800000 		jr	ra
 1175              		.cfi_endproc
 1176              	.LFE69:
 1178              		.align	2
 1179              		.globl	_Z8print_a0v
 1181              	_Z8print_a0v:
 1182              	.LFB70:
  99:src/cpp/testing.cpp ****     uint64 a0 = Riscv::r_a0();
 1183              		.loc 3 99 16 is_stmt 1
 1184              		.cfi_startproc
 1185 045c 130101FE 		addi	sp,sp,-32
 1186              		.cfi_def_cfa_offset 32
 1187 0460 233C1100 		sd	ra,24(sp)
 1188 0464 23388100 		sd	s0,16(sp)
 1189 0468 23349100 		sd	s1,8(sp)
 1190              		.cfi_offset 1, -8
 1191              		.cfi_offset 8, -16
 1192              		.cfi_offset 9, -24
 1193 046c 13040102 		addi	s0,sp,32
 1194              		.cfi_def_cfa 8, 0
 100:src/cpp/testing.cpp ****     print("a0:", ' ');
 1195              		.loc 3 100 5
 1196              	.LBB152:
 1197              	.LBB153:
  63:src/cpp/../../h/riscv.hpp ****     asm volatile("mv %0, a0" : "=r" (a0));
 1198              		.loc 4 63 5
  64:src/cpp/../../h/riscv.hpp ****     return a0;
 1199              		.loc 4 64 5
  64:src/cpp/../../h/riscv.hpp ****     return a0;
 1200              		.loc 4 64 42 is_stmt 0
 1201              	 #APP
 1202              	# 64 "src/cpp/../../h/riscv.hpp" 1
 1203              		mv s1, a0
 1204              	# 0 "" 2
 1205              	.LVL121:
  65:src/cpp/../../h/riscv.hpp **** }
 1206              		.loc 4 65 5 is_stmt 1
 1207              	 #NO_APP
 1208              	.LBE153:
 1209              	.LBE152:
 101:src/cpp/testing.cpp ****     print(a0, '\n', 1);
 1210              		.loc 3 101 5
 101:src/cpp/testing.cpp ****     print(a0, '\n', 1);
 1211              		.loc 3 101 10 is_stmt 0
 1212 0474 93050002 		li	a1,32
 1213 0478 17050000 		lla	a0,.LC8
 1213      13050500 
 1214 0480 97000000 		call	_Z5printPKcc
 1214      E7800000 
 1215              	.LVL122:
GAS LISTING /tmp/ccgRGHpw.s 			page 32


 102:src/cpp/testing.cpp ****     //asm volatile("mv a0, %0" : : "r" (a0));
 1216              		.loc 3 102 5 is_stmt 1
 102:src/cpp/testing.cpp ****     //asm volatile("mv a0, %0" : : "r" (a0));
 1217              		.loc 3 102 10 is_stmt 0
 1218 0488 13061000 		li	a2,1
 1219 048c 9305A000 		li	a1,10
 1220 0490 13850400 		mv	a0,s1
 1221 0494 97000000 		call	_Z5printmcb
 1221      E7800000 
 1222              	.LVL123:
 104:src/cpp/testing.cpp **** 
 1223              		.loc 3 104 1
 1224 049c 83308101 		ld	ra,24(sp)
 1225              		.cfi_restore 1
 1226 04a0 03340101 		ld	s0,16(sp)
 1227              		.cfi_restore 8
 1228              		.cfi_def_cfa 2, 32
 1229 04a4 83348100 		ld	s1,8(sp)
 1230              		.cfi_restore 9
 1231              	.LVL124:
 1232 04a8 13010102 		addi	sp,sp,32
 1233              		.cfi_def_cfa_offset 0
 1234 04ac 67800000 		jr	ra
 1235              		.cfi_endproc
 1236              	.LFE70:
 1238              		.align	2
 1239              		.globl	_Z19print_sup_registersv
 1241              	_Z19print_sup_registersv:
 1242              	.LFB71:
 106:src/cpp/testing.cpp **** 
 1243              		.loc 3 106 27 is_stmt 1
 1244              		.cfi_startproc
 1245 04b0 130101FD 		addi	sp,sp,-48
 1246              		.cfi_def_cfa_offset 48
 1247 04b4 23341102 		sd	ra,40(sp)
 1248 04b8 23308102 		sd	s0,32(sp)
 1249              		.cfi_offset 1, -8
 1250              		.cfi_offset 8, -16
 1251 04bc 13040103 		addi	s0,sp,48
 1252              		.cfi_def_cfa 8, 0
 108:src/cpp/testing.cpp ****     print(Riscv::r_sstatus(), '\n', 1);
 1253              		.loc 3 108 5
 108:src/cpp/testing.cpp ****     print(Riscv::r_sstatus(), '\n', 1);
 1254              		.loc 3 108 10 is_stmt 0
 1255 04c0 93050002 		li	a1,32
 1256 04c4 17050000 		lla	a0,.LC9
 1256      13050500 
 1257 04cc 97000000 		call	_Z5printPKcc
 1257      E7800000 
 1258              	.LVL125:
 109:src/cpp/testing.cpp **** 
 1259              		.loc 3 109 5 is_stmt 1
 1260              	.LBB154:
 1261              	.LBB155:
 168:src/cpp/../../h/riscv.hpp ****     asm volatile("csrr %0, sstatus" : "=r" (sstatus));
 1262              		.loc 4 168 5
 169:src/cpp/../../h/riscv.hpp ****     return sstatus;
GAS LISTING /tmp/ccgRGHpw.s 			page 33


 1263              		.loc 4 169 5
 169:src/cpp/../../h/riscv.hpp ****     return sstatus;
 1264              		.loc 4 169 54 is_stmt 0
 1265              	 #APP
 1266              	# 169 "src/cpp/../../h/riscv.hpp" 1
 1267              		csrr a5, sstatus
 1268              	# 0 "" 2
 1269              	 #NO_APP
 1270 04d8 2334F4FE 		sd	a5,-24(s0)
 1271              		.loc 4 170 5 is_stmt 1
 1272              		.loc 4 170 12 is_stmt 0
 1273 04dc 033584FE 		ld	a0,-24(s0)
 1274              	.LBE155:
 1275              	.LBE154:
 109:src/cpp/testing.cpp **** 
 1276              		.loc 3 109 10
 1277 04e0 13061000 		li	a2,1
 1278 04e4 9305A000 		li	a1,10
 1279 04e8 97000000 		call	_Z5printmcb
 1279      E7800000 
 1280              	.LVL126:
 111:src/cpp/testing.cpp ****     print(Riscv::r_sip(), '\n', 1);
 1281              		.loc 3 111 5 is_stmt 1
 111:src/cpp/testing.cpp ****     print(Riscv::r_sip(), '\n', 1);
 1282              		.loc 3 111 10 is_stmt 0
 1283 04f0 93050002 		li	a1,32
 1284 04f4 17050000 		lla	a0,.LC10
 1284      13050500 
 1285 04fc 97000000 		call	_Z5printPKcc
 1285      E7800000 
 1286              	.LVL127:
 112:src/cpp/testing.cpp **** 
 1287              		.loc 3 112 5 is_stmt 1
 1288              	.LBB156:
 1289              	.LBB157:
 150:src/cpp/../../h/riscv.hpp ****     asm volatile("csrr %0, sip" : "=r" (sip));
 1290              		.loc 4 150 5
 151:src/cpp/../../h/riscv.hpp ****     return sip;
 1291              		.loc 4 151 5
 151:src/cpp/../../h/riscv.hpp ****     return sip;
 1292              		.loc 4 151 46 is_stmt 0
 1293              	 #APP
 1294              	# 151 "src/cpp/../../h/riscv.hpp" 1
 1295              		csrr a5, sip
 1296              	# 0 "" 2
 1297              	 #NO_APP
 1298 0508 2330F4FE 		sd	a5,-32(s0)
 152:src/cpp/../../h/riscv.hpp **** } 
 1299              		.loc 4 152 5 is_stmt 1
 152:src/cpp/../../h/riscv.hpp **** } 
 1300              		.loc 4 152 12 is_stmt 0
 1301 050c 033504FE 		ld	a0,-32(s0)
 1302              	.LBE157:
 1303              	.LBE156:
 112:src/cpp/testing.cpp **** 
 1304              		.loc 3 112 10
 1305 0510 13061000 		li	a2,1
GAS LISTING /tmp/ccgRGHpw.s 			page 34


 1306 0514 9305A000 		li	a1,10
 1307 0518 97000000 		call	_Z5printmcb
 1307      E7800000 
 1308              	.LVL128:
 114:src/cpp/testing.cpp ****     print(Riscv::r_stval(), '\n', 1);
 1309              		.loc 3 114 5 is_stmt 1
 114:src/cpp/testing.cpp ****     print(Riscv::r_stval(), '\n', 1);
 1310              		.loc 3 114 10 is_stmt 0
 1311 0520 93050002 		li	a1,32
 1312 0524 17050000 		lla	a0,.LC11
 1312      13050500 
 1313 052c 97000000 		call	_Z5printPKcc
 1313      E7800000 
 1314              	.LVL129:
 115:src/cpp/testing.cpp **** 
 1315              		.loc 3 115 5 is_stmt 1
 1316              	.LBB158:
 1317              	.LBB159:
 132:src/cpp/../../h/riscv.hpp ****     asm volatile("csrr %0, stval" : "=r" (stval));
 1318              		.loc 4 132 5
 133:src/cpp/../../h/riscv.hpp ****     return stval;
 1319              		.loc 4 133 5
 133:src/cpp/../../h/riscv.hpp ****     return stval;
 1320              		.loc 4 133 50 is_stmt 0
 1321              	 #APP
 1322              	# 133 "src/cpp/../../h/riscv.hpp" 1
 1323              		csrr a5, stval
 1324              	# 0 "" 2
 1325              	 #NO_APP
 1326 0538 233CF4FC 		sd	a5,-40(s0)
 134:src/cpp/../../h/riscv.hpp **** } 
 1327              		.loc 4 134 5 is_stmt 1
 134:src/cpp/../../h/riscv.hpp **** } 
 1328              		.loc 4 134 12 is_stmt 0
 1329 053c 033584FD 		ld	a0,-40(s0)
 1330              	.LBE159:
 1331              	.LBE158:
 115:src/cpp/testing.cpp **** 
 1332              		.loc 3 115 10
 1333 0540 13061000 		li	a2,1
 1334 0544 9305A000 		li	a1,10
 1335 0548 97000000 		call	_Z5printmcb
 1335      E7800000 
 1336              	.LVL130:
 117:src/cpp/testing.cpp ****     print(Riscv::r_scause(), '\n', 1);
 1337              		.loc 3 117 5 is_stmt 1
 117:src/cpp/testing.cpp ****     print(Riscv::r_scause(), '\n', 1);
 1338              		.loc 3 117 10 is_stmt 0
 1339 0550 93050002 		li	a1,32
 1340 0554 17050000 		lla	a0,.LC12
 1340      13050500 
 1341 055c 97000000 		call	_Z5printPKcc
 1341      E7800000 
 1342              	.LVL131:
 118:src/cpp/testing.cpp **** }
 1343              		.loc 3 118 5 is_stmt 1
 1344              	.LBB160:
GAS LISTING /tmp/ccgRGHpw.s 			page 35


 1345              	.LBB161:
 102:src/cpp/../../h/riscv.hpp ****     asm volatile("csrr %0, scause" : "=r" (scause));
 1346              		.loc 4 102 5
 103:src/cpp/../../h/riscv.hpp ****     return scause;
 1347              		.loc 4 103 5
 103:src/cpp/../../h/riscv.hpp ****     return scause;
 1348              		.loc 4 103 52 is_stmt 0
 1349              	 #APP
 1350              	# 103 "src/cpp/../../h/riscv.hpp" 1
 1351              		csrr a5, scause
 1352              	# 0 "" 2
 1353              	 #NO_APP
 1354 0568 2338F4FC 		sd	a5,-48(s0)
 104:src/cpp/../../h/riscv.hpp **** } 
 1355              		.loc 4 104 5 is_stmt 1
 104:src/cpp/../../h/riscv.hpp **** } 
 1356              		.loc 4 104 12 is_stmt 0
 1357 056c 033504FD 		ld	a0,-48(s0)
 1358              	.LBE161:
 1359              	.LBE160:
 118:src/cpp/testing.cpp **** }
 1360              		.loc 3 118 10
 1361 0570 13061000 		li	a2,1
 1362 0574 9305A000 		li	a1,10
 1363 0578 97000000 		call	_Z5printmcb
 1363      E7800000 
 1364              	.LVL132:
 119:src/cpp/testing.cpp **** 
 1365              		.loc 3 119 1
 1366 0580 83308102 		ld	ra,40(sp)
 1367              		.cfi_restore 1
 1368 0584 03340102 		ld	s0,32(sp)
 1369              		.cfi_restore 8
 1370              		.cfi_def_cfa 2, 48
 1371 0588 13010103 		addi	sp,sp,48
 1372              		.cfi_def_cfa_offset 0
 1373 058c 67800000 		jr	ra
 1374              		.cfi_endproc
 1375              	.LFE71:
 1377              		.align	2
 1378              		.globl	_Z7kmallocm
 1380              	_Z7kmallocm:
 1381              	.LFB72:
 121:src/cpp/testing.cpp ****     size = (size-1)/MEM_BLOCK_SIZE + 1;
 1382              		.loc 3 121 27 is_stmt 1
 1383              		.cfi_startproc
 1384              	.LVL133:
 1385 0590 130101FE 		addi	sp,sp,-32
 1386              		.cfi_def_cfa_offset 32
 1387 0594 233C1100 		sd	ra,24(sp)
 1388 0598 23388100 		sd	s0,16(sp)
 1389 059c 23349100 		sd	s1,8(sp)
 1390              		.cfi_offset 1, -8
 1391              		.cfi_offset 8, -16
 1392              		.cfi_offset 9, -24
 1393 05a0 13040102 		addi	s0,sp,32
 1394              		.cfi_def_cfa 8, 0
GAS LISTING /tmp/ccgRGHpw.s 			page 36


 122:src/cpp/testing.cpp ****     return MemoryAllocator::getInstance().mem_alloc(size);
 1395              		.loc 3 122 5
 122:src/cpp/testing.cpp ****     return MemoryAllocator::getInstance().mem_alloc(size);
 1396              		.loc 3 122 17 is_stmt 0
 1397 05a4 9304F5FF 		addi	s1,a0,-1
 122:src/cpp/testing.cpp ****     return MemoryAllocator::getInstance().mem_alloc(size);
 1398              		.loc 3 122 20
 1399 05a8 93D46400 		srli	s1,s1,6
 122:src/cpp/testing.cpp ****     return MemoryAllocator::getInstance().mem_alloc(size);
 1400              		.loc 3 122 10
 1401 05ac 93841400 		addi	s1,s1,1
 1402              	.LVL134:
 123:src/cpp/testing.cpp **** }
 1403              		.loc 3 123 5 is_stmt 1
 123:src/cpp/testing.cpp **** }
 1404              		.loc 3 123 41 is_stmt 0
 1405 05b0 97000000 		call	_ZN15MemoryAllocator11getInstanceEv
 1405      E7800000 
 1406              	.LVL135:
 123:src/cpp/testing.cpp **** }
 1407              		.loc 3 123 52
 1408 05b8 93850400 		mv	a1,s1
 1409 05bc 97000000 		call	_ZN15MemoryAllocator9mem_allocEm
 1409      E7800000 
 1410              	.LVL136:
 124:src/cpp/testing.cpp **** 
 1411              		.loc 3 124 1
 1412 05c4 83308101 		ld	ra,24(sp)
 1413              		.cfi_restore 1
 1414 05c8 03340101 		ld	s0,16(sp)
 1415              		.cfi_restore 8
 1416              		.cfi_def_cfa 2, 32
 1417 05cc 83348100 		ld	s1,8(sp)
 1418              		.cfi_restore 9
 1419              	.LVL137:
 1420 05d0 13010102 		addi	sp,sp,32
 1421              		.cfi_def_cfa_offset 0
 1422 05d4 67800000 		jr	ra
 1423              		.cfi_endproc
 1424              	.LFE72:
 1426              		.align	2
 1427              		.globl	_Z18testPeriodicWorkerv
 1429              	_Z18testPeriodicWorkerv:
 1430              	.LFB81:
 138:src/cpp/testing.cpp **** };
 139:src/cpp/testing.cpp **** 
 140:src/cpp/testing.cpp **** void testPeriodicWorker(){
 1431              		.loc 3 140 26 is_stmt 1
 1432              		.cfi_startproc
 1433              		.cfi_personality 0x9b,DW.ref.__gxx_personality_v0
 1434              		.cfi_lsda 0x1b,.LLSDA81
 1435 05d8 130101FB 		addi	sp,sp,-80
 1436              		.cfi_def_cfa_offset 80
 1437 05dc 23341104 		sd	ra,72(sp)
 1438 05e0 23308104 		sd	s0,64(sp)
 1439 05e4 233C9102 		sd	s1,56(sp)
 1440              		.cfi_offset 1, -8
GAS LISTING /tmp/ccgRGHpw.s 			page 37


 1441              		.cfi_offset 8, -16
 1442              		.cfi_offset 9, -24
 1443 05e8 13040105 		addi	s0,sp,80
 1444              		.cfi_def_cfa 8, 0
 141:src/cpp/testing.cpp ****     PeriodicWorker worker(10, 5);
 1445              		.loc 3 141 5
 1446              	.LVL138:
 1447              	.LBB162:
 1448              	.LBB163:
 1449              	.LBB164:
 130:src/cpp/testing.cpp ****         this->val = val;
 1450              		.loc 3 130 26 is_stmt 0
 1451 05ec 9305A000 		li	a1,10
 1452 05f0 130504FC 		addi	a0,s0,-64
 1453              	.LVL139:
 1454              	.LEHB1:
 1455 05f4 97000000 		call	_ZN14PeriodicThreadC2Em
 1455      E7800000 
 1456              	.LVL140:
 1457              	.LEHE1:
 1458 05fc 97070000 		lla	a5,_ZTV14PeriodicWorker+16
 1458      93870700 
 1459 0604 2330F4FC 		sd	a5,-64(s0)
 131:src/cpp/testing.cpp ****     }
 1460              		.loc 3 131 9 is_stmt 1
 131:src/cpp/testing.cpp ****     }
 1461              		.loc 3 131 19 is_stmt 0
 1462 0608 93075000 		li	a5,5
 1463 060c 232CF4FC 		sw	a5,-40(s0)
 1464              	.LVL141:
 1465              	.LBE164:
 1466              	.LBE163:
 1467              	.LBE162:
 142:src/cpp/testing.cpp ****     Semaphore sem(0);
 1468              		.loc 3 142 5 is_stmt 1
 1469              	.LBB165:
 1470              	.LBB166:
 1471              	.LBB167:
  27:src/cpp/../../h/syscall_cpp.hpp ****     virtual ~Semaphore (){ sem_close(myHandle); }
 1472              		.loc 1 27 35 is_stmt 0
 1473 0610 97070000 		lla	a5,_ZTV9Semaphore+16
 1473      93870700 
 1474 0618 2338F4FA 		sd	a5,-80(s0)
  27:src/cpp/../../h/syscall_cpp.hpp ****     virtual ~Semaphore (){ sem_close(myHandle); }
 1475              		.loc 1 27 37 is_stmt 1
  27:src/cpp/../../h/syscall_cpp.hpp ****     virtual ~Semaphore (){ sem_close(myHandle); }
 1476              		.loc 1 27 45 is_stmt 0
 1477 061c 93050000 		li	a1,0
 1478 0620 130584FB 		addi	a0,s0,-72
 1479              	.LEHB2:
 1480 0624 97000000 		call	sem_open
 1480      E7800000 
 1481              	.LVL142:
 1482              	.LEHE2:
 1483              	.LBE167:
 1484              	.LBE166:
 1485              	.LBE165:
GAS LISTING /tmp/ccgRGHpw.s 			page 38


 143:src/cpp/testing.cpp ****     worker.start();
 1486              		.loc 3 143 5 is_stmt 1
 1487              		.loc 3 143 17 is_stmt 0
 1488 062c 130504FC 		addi	a0,s0,-64
 1489              	.LEHB3:
 1490 0630 97000000 		call	_ZN6Thread5startEv
 1490      E7800000 
 1491              	.LVL143:
 144:src/cpp/testing.cpp ****     sem.wait();
 1492              		.loc 3 144 5 is_stmt 1
 1493              	.LBB168:
 1494              	.LBB169:
  29:src/cpp/../../h/syscall_cpp.hpp ****     void wait (){ sem_wait(myHandle); }
 1495              		.loc 1 29 19
 1496              		.loc 1 29 27 is_stmt 0
 1497 0638 033584FB 		ld	a0,-72(s0)
 1498 063c 97000000 		call	sem_wait
 1498      E7800000 
 1499              	.LVL144:
 1500              	.LEHE3:
 1501              	.LBE169:
 1502              	.LBE168:
 1503              	.LBB170:
 1504              	.LBB171:
  28:src/cpp/../../h/syscall_cpp.hpp ****     void wait (){ sem_wait(myHandle); }
 1505              		.loc 1 28 26
 1506 0644 97070000 		lla	a5,_ZTV9Semaphore+16
 1506      93870700 
 1507 064c 2338F4FA 		sd	a5,-80(s0)
  28:src/cpp/../../h/syscall_cpp.hpp ****     void wait (){ sem_wait(myHandle); }
 1508              		.loc 1 28 28 is_stmt 1
  28:src/cpp/../../h/syscall_cpp.hpp ****     void wait (){ sem_wait(myHandle); }
 1509              		.loc 1 28 37 is_stmt 0
 1510 0650 033584FB 		ld	a0,-72(s0)
 1511 0654 97000000 		call	sem_close
 1511      E7800000 
 1512              	.LVL145:
 1513              	.LBE171:
 1514              	.LBE170:
 1515              	.LBB172:
 1516              	.LBB173:
 1517              	.LBB174:
 1518              	.LBB175:
  12:src/cpp/../../h/syscall_cpp.hpp ****     void start ();
 1519              		.loc 1 12 23
 1520 065c 97070000 		lla	a5,_ZTV6Thread+16
 1520      93870700 
 1521 0664 2330F4FC 		sd	a5,-64(s0)
  12:src/cpp/../../h/syscall_cpp.hpp ****     void start ();
 1522              		.loc 1 12 25 is_stmt 1
  12:src/cpp/../../h/syscall_cpp.hpp ****     void start ();
 1523              		.loc 1 12 32 is_stmt 0
 1524 0668 833784FC 		ld	a5,-56(s0)
 1525              	.LVL146:
 1526              	.LBB176:
 1527              	.LBB177:
   9:src/cpp/../../h/../h/_thread.hpp ****         asm volatile("mv a1, %0" ::"r" ((uint64)ptr));
GAS LISTING /tmp/ccgRGHpw.s 			page 39


 1528              		.loc 2 9 9 is_stmt 1
   9:src/cpp/../../h/../h/_thread.hpp ****         asm volatile("mv a1, %0" ::"r" ((uint64)ptr));
 1529              		.loc 2 9 36 is_stmt 0
 1530              	 #APP
 1531              	# 9 "src/cpp/../../h/../h/_thread.hpp" 1
  10:src/cpp/../../h/../h/_thread.hpp ****         asm volatile("ecall");
 1532              		li a0, 0x69
 1533              	# 0 "" 2
 1534              		.loc 2 10 9 is_stmt 1
  10:src/cpp/../../h/../h/_thread.hpp ****         asm volatile("ecall");
 1535              		.loc 2 10 54 is_stmt 0
 1536              	# 10 "src/cpp/../../h/../h/_thread.hpp" 1
  11:src/cpp/../../h/../h/_thread.hpp ****     }
 1537              		mv a1, a5
 1538              	# 0 "" 2
 1539              		.loc 2 11 9 is_stmt 1
  11:src/cpp/../../h/../h/_thread.hpp ****     }
 1540              		.loc 2 11 30 is_stmt 0
 1541              	# 11 "src/cpp/../../h/../h/_thread.hpp" 1
 1542              		ecall
 1543              	# 0 "" 2
 1544              	.LVL147:
 1545              	 #NO_APP
 1546              	.LBE177:
 1547              	.LBE176:
 1548              	.LBE175:
 1549              	.LBE174:
 1550              	.LBE173:
 1551              	.LBE172:
 145:src/cpp/testing.cpp **** }...
 1552              		.loc 3 145 1
 1553 0678 83308104 		ld	ra,72(sp)
 1554              		.cfi_remember_state
 1555              		.cfi_restore 1
 1556 067c 03340104 		ld	s0,64(sp)
 1557              		.cfi_restore 8
 1558              		.cfi_def_cfa 2, 80
 1559 0680 83348103 		ld	s1,56(sp)
 1560              		.cfi_restore 9
 1561 0684 13010105 		addi	sp,sp,80
 1562              		.cfi_def_cfa_offset 0
 1563 0688 67800000 		jr	ra
 1564              	.L52:
 1565              		.cfi_restore_state
 1566 068c 93040500 		mv	s1,a0
 1567              	.LVL148:
 1568              	.LBB178:
 1569              	.LBB179:
  28:src/cpp/../../h/syscall_cpp.hpp ****     void wait (){ sem_wait(myHandle); }
 1570              		.loc 1 28 26
 1571 0690 97070000 		lla	a5,_ZTV9Semaphore+16
 1571      93870700 
 1572 0698 2338F4FA 		sd	a5,-80(s0)
  28:src/cpp/../../h/syscall_cpp.hpp ****     void wait (){ sem_wait(myHandle); }
 1573              		.loc 1 28 28 is_stmt 1
  28:src/cpp/../../h/syscall_cpp.hpp ****     void wait (){ sem_wait(myHandle); }
 1574              		.loc 1 28 37 is_stmt 0
GAS LISTING /tmp/ccgRGHpw.s 			page 40


 1575 069c 033584FB 		ld	a0,-72(s0)
 1576 06a0 97000000 		call	sem_close
 1576      E7800000 
 1577              	.LVL149:
 1578 06a8 13850400 		mv	a0,s1
 1579              	.L50:
 1580              	.LVL150:
 1581              	.LBE179:
 1582              	.LBE178:
 1583              	.LBB180:
 1584              	.LBB181:
 1585              	.LBB182:
 1586              	.LBB183:
  12:src/cpp/../../h/syscall_cpp.hpp ****     void start ();
 1587              		.loc 1 12 23
 1588 06ac 97070000 		lla	a5,_ZTV6Thread+16
 1588      93870700 
 1589 06b4 2330F4FC 		sd	a5,-64(s0)
  12:src/cpp/../../h/syscall_cpp.hpp ****     void start ();
 1590              		.loc 1 12 25 is_stmt 1
  12:src/cpp/../../h/syscall_cpp.hpp ****     void start ();
 1591              		.loc 1 12 32 is_stmt 0
 1592 06b8 833784FC 		ld	a5,-56(s0)
 1593              	.LVL151:
 1594              	.LBB184:
 1595              	.LBB185:
   9:src/cpp/../../h/../h/_thread.hpp ****         asm volatile("mv a1, %0" ::"r" ((uint64)ptr));
 1596              		.loc 2 9 9 is_stmt 1
   9:src/cpp/../../h/../h/_thread.hpp ****         asm volatile("mv a1, %0" ::"r" ((uint64)ptr));
 1597              		.loc 2 9 36 is_stmt 0
 1598              	 #APP
 1599              	# 9 "src/cpp/../../h/../h/_thread.hpp" 1
  10:src/cpp/../../h/../h/_thread.hpp ****         asm volatile("ecall");
 1600              		li a0, 0x69
 1601              	# 0 "" 2
 1602              		.loc 2 10 9 is_stmt 1
  10:src/cpp/../../h/../h/_thread.hpp ****         asm volatile("ecall");
 1603              		.loc 2 10 54 is_stmt 0
 1604              	# 10 "src/cpp/../../h/../h/_thread.hpp" 1
  11:src/cpp/../../h/../h/_thread.hpp ****     }
 1605              		mv a1, a5
 1606              	# 0 "" 2
 1607              		.loc 2 11 9 is_stmt 1
  11:src/cpp/../../h/../h/_thread.hpp ****     }
 1608              		.loc 2 11 30 is_stmt 0
 1609              	# 11 "src/cpp/../../h/../h/_thread.hpp" 1
 1610              		ecall
 1611              	# 0 "" 2
 1612              	.LVL152:
 1613              	.LEHB4:
 1614              	 #NO_APP
 1615 06c8 97000000 		call	_Unwind_Resume
 1615      E7800000 
 1616              	.LVL153:
 1617              	.LEHE4:
 1618              	.L51:
 1619 06d0 6FF0DFFD 		j	.L50
GAS LISTING /tmp/ccgRGHpw.s 			page 41


 1620              	.LBE185:
 1621              	.LBE184:
 1622              	.LBE183:
 1623              	.LBE182:
 1624              	.LBE181:
 1625              	.LBE180:
 1626              		.cfi_endproc
 1627              	.LFE81:
 1628              		.section	.gcc_except_table,"aw",@progbits
 1629              	.LLSDA81:
 1630 0000 FF       		.byte	0xff
 1631 0001 FF       		.byte	0xff
 1632 0002 03       		.byte	0x3
 1633 0003 34       		.byte	0x34
 1634 0004 00000000 		.4byte	.LEHB1-.LFB81
 1635 0008 00000000 		.4byte	.LEHE1-.LEHB1
 1636 000c 00000000 		.4byte	0
 1637 0010 00       		.byte	0
 1638 0011 00000000 		.4byte	.LEHB2-.LFB81
 1639 0015 00000000 		.4byte	.LEHE2-.LEHB2
 1640 0019 00000000 		.4byte	.L51-.LFB81
 1641 001d 00       		.byte	0
 1642 001e 00000000 		.4byte	.LEHB3-.LFB81
 1643 0022 00000000 		.4byte	.LEHE3-.LEHB3
 1644 0026 00000000 		.4byte	.L52-.LFB81
 1645 002a 00       		.byte	0
 1646 002b 00000000 		.4byte	.LEHB4-.LFB81
 1647 002f 00000000 		.4byte	.LEHE4-.LEHB4
 1648 0033 00000000 		.4byte	0
 1649 0037 00       		.byte	0
 1650              		.text
 1652              		.weak	_ZTV6Thread
 1653              		.section	.rodata._ZTV6Thread,"aG",@progbits,_ZTV6Thread,comdat
 1654              		.align	3
 1657              	_ZTV6Thread:
 1658 0000 00000000 		.dword	0
 1658      00000000 
 1659 0008 00000000 		.dword	0
 1659      00000000 
 1660 0010 00000000 		.dword	_ZN6ThreadD1Ev
 1660      00000000 
 1661 0018 00000000 		.dword	_ZN6ThreadD0Ev
 1661      00000000 
 1662 0020 00000000 		.dword	_ZN6Thread3runEv
 1662      00000000 
 1663              		.weak	_ZTV9Semaphore
 1664              		.section	.rodata._ZTV9Semaphore,"aG",@progbits,_ZTV9Semaphore,comdat
 1665              		.align	3
 1668              	_ZTV9Semaphore:
 1669 0000 00000000 		.dword	0
 1669      00000000 
 1670 0008 00000000 		.dword	0
 1670      00000000 
 1671 0010 00000000 		.dword	_ZN9SemaphoreD1Ev
 1671      00000000 
 1672 0018 00000000 		.dword	_ZN9SemaphoreD0Ev
 1672      00000000 
GAS LISTING /tmp/ccgRGHpw.s 			page 42


 1673              		.weak	_ZTV14PeriodicWorker
 1674              		.section	.rodata._ZTV14PeriodicWorker,"aG",@progbits,_ZTV14PeriodicWorker,comdat
 1675              		.align	3
 1678              	_ZTV14PeriodicWorker:
 1679 0000 00000000 		.dword	0
 1679      00000000 
 1680 0008 00000000 		.dword	0
 1680      00000000 
 1681 0010 00000000 		.dword	_ZN14PeriodicWorkerD1Ev
 1681      00000000 
 1682 0018 00000000 		.dword	_ZN14PeriodicWorkerD0Ev
 1682      00000000 
 1683 0020 00000000 		.dword	_ZN6Thread3runEv
 1683      00000000 
 1684 0028 00000000 		.dword	_ZN14PeriodicWorker18periodicActivationEv
 1684      00000000 
 1685              		.section	.rodata._ZN14PeriodicWorker18periodicActivationEv.str1.8,"aMS",@progbits,1
 1686              		.align	3
 1687              	.LC0:
 1688 0000 0A00     		.string	"\n"
 1689              		.section	.rodata.str1.8,"aMS",@progbits,1
 1690              		.align	3
 1691              	.LC1:
 1692 0000 30313233 		.string	"0123456789ABCDEF"
 1692      34353637 
 1692      38394142 
 1692      43444546 
 1692      00
 1693 0011 00000000 		.zero	7
 1693      000000
 1694              	.LC2:
 1695 0018 0A416C6F 		.string	"\nAlokacija"
 1695      6B616369 
 1695      6A6100
 1696 0023 00000000 		.zero	5
 1696      00
 1697              	.LC3:
 1698 0028 626C6F6B 		.string	"blokova"
 1698      6F766100 
 1699              	.LC4:
 1700 0030 0A446561 		.string	"\nDealogkacija"
 1700      6C6F676B 
 1700      6163696A 
 1700      6100
 1701 003e 0000     		.zero	2
 1702              	.LC5:
 1703 0040 47726573 		.string	"Greska Pri Dealokaciji"
 1703      6B612050 
 1703      72692044 
 1703      65616C6F 
 1703      6B616369 
 1704 0057 00       		.zero	1
 1705              	.LC6:
 1706 0058 743A00   		.string	"t:"
 1707 005b 00000000 		.zero	5
 1707      00
 1708              	.LC7:
GAS LISTING /tmp/ccgRGHpw.s 			page 43


 1709 0060 66726565 		.string	"free_res:"
 1709      5F726573 
 1709      3A00
 1710 006a 00000000 		.zero	6
 1710      0000
 1711              	.LC8:
 1712 0070 61303A00 		.string	"a0:"
 1713 0074 00000000 		.zero	4
 1714              	.LC9:
 1715 0078 73737461 		.string	"sstatus:"
 1715      7475733A 
 1715      00
 1716 0081 00000000 		.zero	7
 1716      000000
 1717              	.LC10:
 1718 0088 7369703A 		.string	"sip:"
 1718      00
 1719 008d 000000   		.zero	3
 1720              	.LC11:
 1721 0090 73747661 		.string	"stval:"
 1721      6C3A00
 1722 0097 00       		.zero	1
 1723              	.LC12:
 1724 0098 73636175 		.string	"scause:"
 1724      73653A00 
 1725              		.text
 1726              	.Letext0:
 1727              		.file 5 "src/cpp/../../h/../h/../lib/hw.h"
 1728              		.file 6 "src/cpp/../../h/../h/memory_allocator.hpp"
 1729              		.file 7 "src/cpp/../../h/../h/_semaphore.hpp"
 1730              		.file 8 "src/cpp/../../h/syscall_c.h"
 1731              		.file 9 "src/cpp/../../test/printing.hpp"
 1732              		.file 10 "src/cpp/../../lib/console.h"
 7549              		.align	3
 7552              	DW.ref.__gxx_personality_v0:
 7553 0000 00000000 		.dword	__gxx_personality_v0
 7553      00000000 
 7554              		.ident	"GCC: () 8.3.0"
GAS LISTING /tmp/ccgRGHpw.s 			page 44


DEFINED SYMBOLS
                            *ABS*:0000000000000000 testing.cpp
     /tmp/ccgRGHpw.s:13     .text._ZN6ThreadD2Ev:0000000000000000 _ZN6ThreadD2Ev
     /tmp/ccgRGHpw.s:17     .text._ZN6ThreadD2Ev:0000000000000000 .L0 
     /tmp/ccgRGHpw.s:19     .text._ZN6ThreadD2Ev:0000000000000000 .L0 
     /tmp/ccgRGHpw.s:20     .text._ZN6ThreadD2Ev:0000000000000004 .L0 
     /tmp/ccgRGHpw.s:22     .text._ZN6ThreadD2Ev:0000000000000008 .L0 
     /tmp/ccgRGHpw.s:24     .text._ZN6ThreadD2Ev:000000000000000c .L0 
     /tmp/ccgRGHpw.s:1657   .rodata._ZTV6Thread:0000000000000000 _ZTV6Thread
     /tmp/ccgRGHpw.s:27     .text._ZN6ThreadD2Ev:000000000000000c .L0 
     /tmp/ccgRGHpw.s:30     .text._ZN6ThreadD2Ev:0000000000000018 .L0 
     /tmp/ccgRGHpw.s:31     .text._ZN6ThreadD2Ev:0000000000000018 .L0 
     /tmp/ccgRGHpw.s:37     .text._ZN6ThreadD2Ev:000000000000001c .L0 
src/cpp/../../h/../h/_thread.hpp:9      .text._ZN6ThreadD2Ev:000000000000001c .L0 
     /tmp/ccgRGHpw.s:43     .text._ZN6ThreadD2Ev:0000000000000020 .L0 
src/cpp/../../h/../h/_thread.hpp:10     .text._ZN6ThreadD2Ev:0000000000000020 .L0 
     /tmp/ccgRGHpw.s:48     .text._ZN6ThreadD2Ev:0000000000000024 .L0 
src/cpp/../../h/../h/_thread.hpp:11     .text._ZN6ThreadD2Ev:0000000000000024 .L0 
     /tmp/ccgRGHpw.s:58     .text._ZN6ThreadD2Ev:0000000000000028 .L0 
     /tmp/ccgRGHpw.s:59     .text._ZN6ThreadD2Ev:000000000000002c .L0 
     /tmp/ccgRGHpw.s:60     .text._ZN6ThreadD2Ev:000000000000002c .L0 
     /tmp/ccgRGHpw.s:62     .text._ZN6ThreadD2Ev:0000000000000030 .L0 
     /tmp/ccgRGHpw.s:64     .text._ZN6ThreadD2Ev:0000000000000034 .L0 
     /tmp/ccgRGHpw.s:13     .text._ZN6ThreadD2Ev:0000000000000000 _ZN6ThreadD1Ev
     /tmp/ccgRGHpw.s:73     .text._ZN6Thread3runEv:0000000000000000 _ZN6Thread3runEv
     /tmp/ccgRGHpw.s:76     .text._ZN6Thread3runEv:0000000000000000 .L0 
     /tmp/ccgRGHpw.s:78     .text._ZN6Thread3runEv:0000000000000000 .L0 
     /tmp/ccgRGHpw.s:79     .text._ZN6Thread3runEv:0000000000000004 .L0 
     /tmp/ccgRGHpw.s:81     .text._ZN6Thread3runEv:0000000000000008 .L0 
     /tmp/ccgRGHpw.s:83     .text._ZN6Thread3runEv:000000000000000c .L0 
     /tmp/ccgRGHpw.s:85     .text._ZN6Thread3runEv:000000000000000c .L0 
     /tmp/ccgRGHpw.s:86     .text._ZN6Thread3runEv:0000000000000010 .L0 
     /tmp/ccgRGHpw.s:87     .text._ZN6Thread3runEv:0000000000000010 .L0 
     /tmp/ccgRGHpw.s:89     .text._ZN6Thread3runEv:0000000000000014 .L0 
     /tmp/ccgRGHpw.s:91     .text._ZN6Thread3runEv:0000000000000018 .L0 
     /tmp/ccgRGHpw.s:98     .text._ZN14PeriodicWorkerD2Ev:0000000000000000 _ZN14PeriodicWorkerD2Ev
     /tmp/ccgRGHpw.s:102    .text._ZN14PeriodicWorkerD2Ev:0000000000000000 .L0 
     /tmp/ccgRGHpw.s:104    .text._ZN14PeriodicWorkerD2Ev:0000000000000000 .L0 
     /tmp/ccgRGHpw.s:105    .text._ZN14PeriodicWorkerD2Ev:0000000000000004 .L0 
     /tmp/ccgRGHpw.s:107    .text._ZN14PeriodicWorkerD2Ev:0000000000000008 .L0 
     /tmp/ccgRGHpw.s:109    .text._ZN14PeriodicWorkerD2Ev:000000000000000c .L0 
     /tmp/ccgRGHpw.s:115    .text._ZN14PeriodicWorkerD2Ev:000000000000000c .L0 
     /tmp/ccgRGHpw.s:118    .text._ZN14PeriodicWorkerD2Ev:0000000000000018 .L0 
     /tmp/ccgRGHpw.s:119    .text._ZN14PeriodicWorkerD2Ev:0000000000000018 .L0 
     /tmp/ccgRGHpw.s:124    .text._ZN14PeriodicWorkerD2Ev:000000000000001c .L0 
src/cpp/../../h/../h/_thread.hpp:9      .text._ZN14PeriodicWorkerD2Ev:000000000000001c .L0 
     /tmp/ccgRGHpw.s:130    .text._ZN14PeriodicWorkerD2Ev:0000000000000020 .L0 
src/cpp/../../h/../h/_thread.hpp:10     .text._ZN14PeriodicWorkerD2Ev:0000000000000020 .L0 
     /tmp/ccgRGHpw.s:135    .text._ZN14PeriodicWorkerD2Ev:0000000000000024 .L0 
src/cpp/../../h/../h/_thread.hpp:11     .text._ZN14PeriodicWorkerD2Ev:0000000000000024 .L0 
     /tmp/ccgRGHpw.s:147    .text._ZN14PeriodicWorkerD2Ev:0000000000000028 .L0 
     /tmp/ccgRGHpw.s:148    .text._ZN14PeriodicWorkerD2Ev:000000000000002c .L0 
     /tmp/ccgRGHpw.s:149    .text._ZN14PeriodicWorkerD2Ev:000000000000002c .L0 
     /tmp/ccgRGHpw.s:151    .text._ZN14PeriodicWorkerD2Ev:0000000000000030 .L0 
     /tmp/ccgRGHpw.s:153    .text._ZN14PeriodicWorkerD2Ev:0000000000000034 .L0 
     /tmp/ccgRGHpw.s:98     .text._ZN14PeriodicWorkerD2Ev:0000000000000000 _ZN14PeriodicWorkerD1Ev
     /tmp/ccgRGHpw.s:162    .text._ZN14PeriodicWorker18periodicActivationEv:0000000000000000 _ZN14PeriodicWorker18periodicActivationEv
GAS LISTING /tmp/ccgRGHpw.s 			page 45


     /tmp/ccgRGHpw.s:165    .text._ZN14PeriodicWorker18periodicActivationEv:0000000000000000 .L0 
     /tmp/ccgRGHpw.s:167    .text._ZN14PeriodicWorker18periodicActivationEv:0000000000000000 .L0 
     /tmp/ccgRGHpw.s:168    .text._ZN14PeriodicWorker18periodicActivationEv:0000000000000004 .L0 
     /tmp/ccgRGHpw.s:171    .text._ZN14PeriodicWorker18periodicActivationEv:000000000000000c .L0 
     /tmp/ccgRGHpw.s:172    .text._ZN14PeriodicWorker18periodicActivationEv:000000000000000c .L0 
     /tmp/ccgRGHpw.s:174    .text._ZN14PeriodicWorker18periodicActivationEv:0000000000000010 .L0 
     /tmp/ccgRGHpw.s:176    .text._ZN14PeriodicWorker18periodicActivationEv:0000000000000010 .L0 
     /tmp/ccgRGHpw.s:177    .text._ZN14PeriodicWorker18periodicActivationEv:0000000000000010 .L0 
     /tmp/ccgRGHpw.s:179    .text._ZN14PeriodicWorker18periodicActivationEv:0000000000000014 .L0 
     /tmp/ccgRGHpw.s:188    .text._ZN14PeriodicWorker18periodicActivationEv:0000000000000030 .L0 
     /tmp/ccgRGHpw.s:189    .text._ZN14PeriodicWorker18periodicActivationEv:0000000000000030 .L0 
     /tmp/ccgRGHpw.s:193    .text._ZN14PeriodicWorker18periodicActivationEv:0000000000000040 .L0 
     /tmp/ccgRGHpw.s:194    .text._ZN14PeriodicWorker18periodicActivationEv:0000000000000044 .L0 
     /tmp/ccgRGHpw.s:196    .text._ZN14PeriodicWorker18periodicActivationEv:0000000000000048 .L0 
     /tmp/ccgRGHpw.s:197    .text._ZN14PeriodicWorker18periodicActivationEv:0000000000000048 .L0 
     /tmp/ccgRGHpw.s:199    .text._ZN14PeriodicWorker18periodicActivationEv:000000000000004c .L0 
     /tmp/ccgRGHpw.s:201    .text._ZN14PeriodicWorker18periodicActivationEv:0000000000000050 .L0 
     /tmp/ccgRGHpw.s:208    .text._ZN6ThreadD0Ev:0000000000000000 _ZN6ThreadD0Ev
     /tmp/ccgRGHpw.s:211    .text._ZN6ThreadD0Ev:0000000000000000 .L0 
     /tmp/ccgRGHpw.s:213    .text._ZN6ThreadD0Ev:0000000000000000 .L0 
     /tmp/ccgRGHpw.s:214    .text._ZN6ThreadD0Ev:0000000000000004 .L0 
     /tmp/ccgRGHpw.s:217    .text._ZN6ThreadD0Ev:000000000000000c .L0 
     /tmp/ccgRGHpw.s:218    .text._ZN6ThreadD0Ev:000000000000000c .L0 
     /tmp/ccgRGHpw.s:220    .text._ZN6ThreadD0Ev:0000000000000010 .L0 
     /tmp/ccgRGHpw.s:225    .text._ZN6ThreadD0Ev:0000000000000010 .L0 
     /tmp/ccgRGHpw.s:228    .text._ZN6ThreadD0Ev:000000000000001c .L0 
     /tmp/ccgRGHpw.s:229    .text._ZN6ThreadD0Ev:000000000000001c .L0 
     /tmp/ccgRGHpw.s:234    .text._ZN6ThreadD0Ev:0000000000000020 .L0 
src/cpp/../../h/../h/_thread.hpp:9      .text._ZN6ThreadD0Ev:0000000000000020 .L0 
     /tmp/ccgRGHpw.s:240    .text._ZN6ThreadD0Ev:0000000000000024 .L0 
src/cpp/../../h/../h/_thread.hpp:10     .text._ZN6ThreadD0Ev:0000000000000024 .L0 
     /tmp/ccgRGHpw.s:245    .text._ZN6ThreadD0Ev:0000000000000028 .L0 
src/cpp/../../h/../h/_thread.hpp:11     .text._ZN6ThreadD0Ev:0000000000000028 .L0 
     /tmp/ccgRGHpw.s:256    .text._ZN6ThreadD0Ev:000000000000002c .L0 
     /tmp/ccgRGHpw.s:259    .text._ZN6ThreadD0Ev:0000000000000038 .L0 
     /tmp/ccgRGHpw.s:261    .text._ZN6ThreadD0Ev:000000000000003c .L0 
     /tmp/ccgRGHpw.s:262    .text._ZN6ThreadD0Ev:000000000000003c .L0 
     /tmp/ccgRGHpw.s:264    .text._ZN6ThreadD0Ev:0000000000000040 .L0 
     /tmp/ccgRGHpw.s:266    .text._ZN6ThreadD0Ev:0000000000000044 .L0 
     /tmp/ccgRGHpw.s:273    .text._ZN14PeriodicWorkerD0Ev:0000000000000000 _ZN14PeriodicWorkerD0Ev
     /tmp/ccgRGHpw.s:276    .text._ZN14PeriodicWorkerD0Ev:0000000000000000 .L0 
     /tmp/ccgRGHpw.s:278    .text._ZN14PeriodicWorkerD0Ev:0000000000000000 .L0 
     /tmp/ccgRGHpw.s:279    .text._ZN14PeriodicWorkerD0Ev:0000000000000004 .L0 
     /tmp/ccgRGHpw.s:282    .text._ZN14PeriodicWorkerD0Ev:000000000000000c .L0 
     /tmp/ccgRGHpw.s:283    .text._ZN14PeriodicWorkerD0Ev:000000000000000c .L0 
     /tmp/ccgRGHpw.s:285    .text._ZN14PeriodicWorkerD0Ev:0000000000000010 .L0 
     /tmp/ccgRGHpw.s:292    .text._ZN14PeriodicWorkerD0Ev:0000000000000010 .L0 
     /tmp/ccgRGHpw.s:295    .text._ZN14PeriodicWorkerD0Ev:000000000000001c .L0 
     /tmp/ccgRGHpw.s:296    .text._ZN14PeriodicWorkerD0Ev:000000000000001c .L0 
     /tmp/ccgRGHpw.s:301    .text._ZN14PeriodicWorkerD0Ev:0000000000000020 .L0 
src/cpp/../../h/../h/_thread.hpp:9      .text._ZN14PeriodicWorkerD0Ev:0000000000000020 .L0 
     /tmp/ccgRGHpw.s:307    .text._ZN14PeriodicWorkerD0Ev:0000000000000024 .L0 
src/cpp/../../h/../h/_thread.hpp:10     .text._ZN14PeriodicWorkerD0Ev:0000000000000024 .L0 
     /tmp/ccgRGHpw.s:312    .text._ZN14PeriodicWorkerD0Ev:0000000000000028 .L0 
src/cpp/../../h/../h/_thread.hpp:11     .text._ZN14PeriodicWorkerD0Ev:0000000000000028 .L0 
     /tmp/ccgRGHpw.s:325    .text._ZN14PeriodicWorkerD0Ev:000000000000002c .L0 
     /tmp/ccgRGHpw.s:328    .text._ZN14PeriodicWorkerD0Ev:0000000000000038 .L0 
GAS LISTING /tmp/ccgRGHpw.s 			page 46


     /tmp/ccgRGHpw.s:330    .text._ZN14PeriodicWorkerD0Ev:000000000000003c .L0 
     /tmp/ccgRGHpw.s:331    .text._ZN14PeriodicWorkerD0Ev:000000000000003c .L0 
     /tmp/ccgRGHpw.s:333    .text._ZN14PeriodicWorkerD0Ev:0000000000000040 .L0 
     /tmp/ccgRGHpw.s:335    .text._ZN14PeriodicWorkerD0Ev:0000000000000044 .L0 
     /tmp/ccgRGHpw.s:342    .text._ZN9SemaphoreD2Ev:0000000000000000 _ZN9SemaphoreD2Ev
     /tmp/ccgRGHpw.s:345    .text._ZN9SemaphoreD2Ev:0000000000000000 .L0 
     /tmp/ccgRGHpw.s:7552   .sdata.DW.ref.__gxx_personality_v0:0000000000000000 DW.ref.__gxx_personality_v0
     /tmp/ccgRGHpw.s:349    .text._ZN9SemaphoreD2Ev:0000000000000000 .L0 
     /tmp/ccgRGHpw.s:350    .text._ZN9SemaphoreD2Ev:0000000000000004 .L0 
     /tmp/ccgRGHpw.s:353    .text._ZN9SemaphoreD2Ev:000000000000000c .L0 
     /tmp/ccgRGHpw.s:354    .text._ZN9SemaphoreD2Ev:000000000000000c .L0 
     /tmp/ccgRGHpw.s:356    .text._ZN9SemaphoreD2Ev:0000000000000010 .L0 
     /tmp/ccgRGHpw.s:1668   .rodata._ZTV9Semaphore:0000000000000000 _ZTV9Semaphore
     /tmp/ccgRGHpw.s:359    .text._ZN9SemaphoreD2Ev:0000000000000010 .L0 
     /tmp/ccgRGHpw.s:362    .text._ZN9SemaphoreD2Ev:000000000000001c .L0 
     /tmp/ccgRGHpw.s:363    .text._ZN9SemaphoreD2Ev:000000000000001c .L0 
     /tmp/ccgRGHpw.s:369    .text._ZN9SemaphoreD2Ev:0000000000000028 .L0 
     /tmp/ccgRGHpw.s:370    .text._ZN9SemaphoreD2Ev:000000000000002c .L0 
     /tmp/ccgRGHpw.s:372    .text._ZN9SemaphoreD2Ev:0000000000000030 .L0 
     /tmp/ccgRGHpw.s:373    .text._ZN9SemaphoreD2Ev:0000000000000030 .L0 
     /tmp/ccgRGHpw.s:375    .text._ZN9SemaphoreD2Ev:0000000000000034 .L0 
     /tmp/ccgRGHpw.s:377    .text._ZN9SemaphoreD2Ev:0000000000000038 .L0 
     /tmp/ccgRGHpw.s:342    .text._ZN9SemaphoreD2Ev:0000000000000000 _ZN9SemaphoreD1Ev
     /tmp/ccgRGHpw.s:394    .text._ZN9SemaphoreD0Ev:0000000000000000 _ZN9SemaphoreD0Ev
     /tmp/ccgRGHpw.s:397    .text._ZN9SemaphoreD0Ev:0000000000000000 .L0 
     /tmp/ccgRGHpw.s:401    .text._ZN9SemaphoreD0Ev:0000000000000000 .L0 
     /tmp/ccgRGHpw.s:402    .text._ZN9SemaphoreD0Ev:0000000000000004 .L0 
     /tmp/ccgRGHpw.s:406    .text._ZN9SemaphoreD0Ev:0000000000000010 .L0 
     /tmp/ccgRGHpw.s:407    .text._ZN9SemaphoreD0Ev:0000000000000010 .L0 
     /tmp/ccgRGHpw.s:408    .text._ZN9SemaphoreD0Ev:0000000000000010 .L0 
     /tmp/ccgRGHpw.s:410    .text._ZN9SemaphoreD0Ev:0000000000000014 .L0 
     /tmp/ccgRGHpw.s:416    .text._ZN9SemaphoreD0Ev:0000000000000018 .L0 
     /tmp/ccgRGHpw.s:419    .text._ZN9SemaphoreD0Ev:0000000000000024 .L0 
     /tmp/ccgRGHpw.s:420    .text._ZN9SemaphoreD0Ev:0000000000000024 .L0 
     /tmp/ccgRGHpw.s:427    .text._ZN9SemaphoreD0Ev:0000000000000030 .L0 
     /tmp/ccgRGHpw.s:433    .text._ZN9SemaphoreD0Ev:0000000000000040 .L0 
     /tmp/ccgRGHpw.s:435    .text._ZN9SemaphoreD0Ev:0000000000000044 .L0 
     /tmp/ccgRGHpw.s:436    .text._ZN9SemaphoreD0Ev:0000000000000044 .L0 
     /tmp/ccgRGHpw.s:438    .text._ZN9SemaphoreD0Ev:0000000000000048 .L0 
     /tmp/ccgRGHpw.s:441    .text._ZN9SemaphoreD0Ev:000000000000004c .L0 
     /tmp/ccgRGHpw.s:443    .text._ZN9SemaphoreD0Ev:0000000000000050 .L0 
     /tmp/ccgRGHpw.s:461    .text:0000000000000000 _Z5printmcb
     /tmp/ccgRGHpw.s:464    .text:0000000000000000 .L0 
     /tmp/ccgRGHpw.s:466    .text:0000000000000000 .L0 
     /tmp/ccgRGHpw.s:467    .text:0000000000000004 .L0 
     /tmp/ccgRGHpw.s:474    .text:000000000000001c .L0 
     /tmp/ccgRGHpw.s:475    .text:000000000000001c .L0 
     /tmp/ccgRGHpw.s:476    .text:000000000000001c .L0 
     /tmp/ccgRGHpw.s:477    .text:000000000000001c .L0 
     /tmp/ccgRGHpw.s:478    .text:000000000000001c .L0 
     /tmp/ccgRGHpw.s:479    .text:000000000000001c .L0 
     /tmp/ccgRGHpw.s:481    .text:0000000000000020 .L0 
     /tmp/ccgRGHpw.s:488    .text:0000000000000028 .L0 
     /tmp/ccgRGHpw.s:489    .text:0000000000000028 .L0 
     /tmp/ccgRGHpw.s:490    .text:0000000000000028 .L0 
src/cpp/../../h/riscv.hpp:169    .text:0000000000000028 .L0 
     /tmp/ccgRGHpw.s:498    .text:0000000000000030 .L0 
GAS LISTING /tmp/ccgRGHpw.s 			page 47


     /tmp/ccgRGHpw.s:499    .text:0000000000000030 .L0 
     /tmp/ccgRGHpw.s:506    .text:0000000000000034 .L0 
     /tmp/ccgRGHpw.s:507    .text:0000000000000034 .L0 
     /tmp/ccgRGHpw.s:508    .text:0000000000000034 .L0 
     /tmp/ccgRGHpw.s:518    .text:000000000000003c .L0 
     /tmp/ccgRGHpw.s:519    .text:000000000000003c .L0 
     /tmp/ccgRGHpw.s:520    .text:000000000000003c .L0 
     /tmp/ccgRGHpw.s:522    .text:000000000000003c .L0 
     /tmp/ccgRGHpw.s:525    .text:0000000000000040 .L0 
     /tmp/ccgRGHpw.s:532    .text:0000000000000048 .L0 
     /tmp/ccgRGHpw.s:535    .text:000000000000004c .L0 
     /tmp/ccgRGHpw.s:539    .text:0000000000000050 .L0 
     /tmp/ccgRGHpw.s:540    .text:0000000000000050 .L0 
     /tmp/ccgRGHpw.s:541    .text:0000000000000050 .L0 
     /tmp/ccgRGHpw.s:544    .text:0000000000000058 .L0 
     /tmp/ccgRGHpw.s:547    .text:000000000000005c .L0 
     /tmp/ccgRGHpw.s:549    .text:0000000000000060 .L0 
     /tmp/ccgRGHpw.s:553    .text:000000000000006c .L0 
     /tmp/ccgRGHpw.s:554    .text:000000000000006c .L0 
     /tmp/ccgRGHpw.s:557    .text:0000000000000070 .L0 
     /tmp/ccgRGHpw.s:563    .text:0000000000000078 .L0 
     /tmp/ccgRGHpw.s:565    .text:000000000000007c .L0 
     /tmp/ccgRGHpw.s:566    .text:000000000000007c .L0 
     /tmp/ccgRGHpw.s:572    .text:0000000000000090 .L0 
     /tmp/ccgRGHpw.s:581    .text:0000000000000098 .L0 
     /tmp/ccgRGHpw.s:582    .text:0000000000000098 .L0 
     /tmp/ccgRGHpw.s:587    .text:00000000000000a4 .L0 
     /tmp/ccgRGHpw.s:588    .text:00000000000000a4 .L0 
     /tmp/ccgRGHpw.s:592    .text:00000000000000b0 .L0 
     /tmp/ccgRGHpw.s:597    .text:00000000000000b8 .L0 
     /tmp/ccgRGHpw.s:600    .text:00000000000000bc .L0 
     /tmp/ccgRGHpw.s:604    .text:00000000000000c0 .L0 
     /tmp/ccgRGHpw.s:605    .text:00000000000000c0 .L0 
     /tmp/ccgRGHpw.s:606    .text:00000000000000c0 .L0 
     /tmp/ccgRGHpw.s:608    .text:00000000000000c4 .L0 
     /tmp/ccgRGHpw.s:611    .text:00000000000000c8 .L0 
     /tmp/ccgRGHpw.s:615    .text:00000000000000d8 .L0 
     /tmp/ccgRGHpw.s:619    .text:00000000000000e4 .L0 
     /tmp/ccgRGHpw.s:620    .text:00000000000000e4 .L0 
     /tmp/ccgRGHpw.s:623    .text:00000000000000e8 .L0 
     /tmp/ccgRGHpw.s:629    .text:00000000000000f0 .L0 
     /tmp/ccgRGHpw.s:631    .text:00000000000000f4 .L0 
     /tmp/ccgRGHpw.s:632    .text:00000000000000f4 .L0 
     /tmp/ccgRGHpw.s:638    .text:0000000000000108 .L0 
     /tmp/ccgRGHpw.s:647    .text:0000000000000110 .L0 
     /tmp/ccgRGHpw.s:648    .text:0000000000000110 .L0 
     /tmp/ccgRGHpw.s:652    .text:000000000000011c .L0 
     /tmp/ccgRGHpw.s:653    .text:000000000000011c .L0 
     /tmp/ccgRGHpw.s:656    .text:0000000000000120 .L0 
     /tmp/ccgRGHpw.s:662    .text:0000000000000128 .L0 
src/cpp/../../h/riscv.hpp:156    .text:0000000000000128 .L0 
     /tmp/ccgRGHpw.s:672    .text:000000000000012c .L0 
     /tmp/ccgRGHpw.s:673    .text:0000000000000130 .L0 
     /tmp/ccgRGHpw.s:675    .text:0000000000000134 .L0 
     /tmp/ccgRGHpw.s:676    .text:0000000000000134 .L0 
     /tmp/ccgRGHpw.s:678    .text:0000000000000138 .L0 
     /tmp/ccgRGHpw.s:680    .text:000000000000013c .L0 
GAS LISTING /tmp/ccgRGHpw.s 			page 48


     /tmp/ccgRGHpw.s:682    .text:0000000000000140 .L0 
     /tmp/ccgRGHpw.s:684    .text:0000000000000144 .L0 
     /tmp/ccgRGHpw.s:686    .text:0000000000000148 .L0 
     /tmp/ccgRGHpw.s:688    .text:000000000000014c .L0 
     /tmp/ccgRGHpw.s:694    .text:000000000000014c _Z5printPKcc
     /tmp/ccgRGHpw.s:697    .text:000000000000014c .L0 
     /tmp/ccgRGHpw.s:699    .text:000000000000014c .L0 
     /tmp/ccgRGHpw.s:700    .text:0000000000000150 .L0 
     /tmp/ccgRGHpw.s:707    .text:0000000000000168 .L0 
     /tmp/ccgRGHpw.s:708    .text:0000000000000168 .L0 
     /tmp/ccgRGHpw.s:709    .text:0000000000000168 .L0 
     /tmp/ccgRGHpw.s:710    .text:0000000000000168 .L0 
     /tmp/ccgRGHpw.s:711    .text:0000000000000168 .L0 
     /tmp/ccgRGHpw.s:712    .text:0000000000000168 .L0 
     /tmp/ccgRGHpw.s:714    .text:000000000000016c .L0 
     /tmp/ccgRGHpw.s:720    .text:0000000000000174 .L0 
     /tmp/ccgRGHpw.s:721    .text:0000000000000174 .L0 
     /tmp/ccgRGHpw.s:722    .text:0000000000000174 .L0 
src/cpp/../../h/riscv.hpp:169    .text:0000000000000174 .L0 
     /tmp/ccgRGHpw.s:730    .text:000000000000017c .L0 
     /tmp/ccgRGHpw.s:731    .text:000000000000017c .L0 
     /tmp/ccgRGHpw.s:738    .text:0000000000000180 .L0 
     /tmp/ccgRGHpw.s:739    .text:0000000000000180 .L0 
     /tmp/ccgRGHpw.s:740    .text:0000000000000180 .L0 
     /tmp/ccgRGHpw.s:751    .text:0000000000000188 .L0 
     /tmp/ccgRGHpw.s:752    .text:0000000000000188 .L0 
     /tmp/ccgRGHpw.s:756    .text:000000000000018c .L0 
     /tmp/ccgRGHpw.s:760    .text:0000000000000198 .L0 
     /tmp/ccgRGHpw.s:761    .text:0000000000000198 .L0 
     /tmp/ccgRGHpw.s:764    .text:00000000000001a0 .L0 
     /tmp/ccgRGHpw.s:771    .text:00000000000001a8 .L0 
     /tmp/ccgRGHpw.s:772    .text:00000000000001a8 .L0 
     /tmp/ccgRGHpw.s:776    .text:00000000000001b4 .L0 
     /tmp/ccgRGHpw.s:777    .text:00000000000001b4 .L0 
     /tmp/ccgRGHpw.s:780    .text:00000000000001b8 .L0 
     /tmp/ccgRGHpw.s:786    .text:00000000000001c0 .L0 
src/cpp/../../h/riscv.hpp:156    .text:00000000000001c0 .L0 
     /tmp/ccgRGHpw.s:796    .text:00000000000001c4 .L0 
     /tmp/ccgRGHpw.s:797    .text:00000000000001c8 .L0 
     /tmp/ccgRGHpw.s:799    .text:00000000000001cc .L0 
     /tmp/ccgRGHpw.s:800    .text:00000000000001cc .L0 
     /tmp/ccgRGHpw.s:802    .text:00000000000001d0 .L0 
     /tmp/ccgRGHpw.s:805    .text:00000000000001d4 .L0 
     /tmp/ccgRGHpw.s:808    .text:00000000000001d8 .L0 
     /tmp/ccgRGHpw.s:810    .text:00000000000001dc .L0 
     /tmp/ccgRGHpw.s:812    .text:00000000000001e0 .L0 
     /tmp/ccgRGHpw.s:814    .text:00000000000001e4 .L0 
     /tmp/ccgRGHpw.s:820    .text:00000000000001e4 _Z5printPKcmb
     /tmp/ccgRGHpw.s:823    .text:00000000000001e4 .L0 
     /tmp/ccgRGHpw.s:825    .text:00000000000001e4 .L0 
     /tmp/ccgRGHpw.s:826    .text:00000000000001e8 .L0 
     /tmp/ccgRGHpw.s:832    .text:00000000000001fc .L0 
     /tmp/ccgRGHpw.s:833    .text:00000000000001fc .L0 
     /tmp/ccgRGHpw.s:834    .text:00000000000001fc .L0 
     /tmp/ccgRGHpw.s:835    .text:00000000000001fc .L0 
     /tmp/ccgRGHpw.s:836    .text:00000000000001fc .L0 
     /tmp/ccgRGHpw.s:838    .text:0000000000000200 .L0 
GAS LISTING /tmp/ccgRGHpw.s 			page 49


     /tmp/ccgRGHpw.s:844    .text:0000000000000208 .L0 
     /tmp/ccgRGHpw.s:845    .text:0000000000000208 .L0 
     /tmp/ccgRGHpw.s:846    .text:0000000000000208 .L0 
src/cpp/../../h/riscv.hpp:169    .text:0000000000000208 .L0 
     /tmp/ccgRGHpw.s:854    .text:0000000000000210 .L0 
     /tmp/ccgRGHpw.s:855    .text:0000000000000210 .L0 
     /tmp/ccgRGHpw.s:862    .text:0000000000000214 .L0 
     /tmp/ccgRGHpw.s:863    .text:0000000000000214 .L0 
     /tmp/ccgRGHpw.s:864    .text:0000000000000214 .L0 
     /tmp/ccgRGHpw.s:874    .text:000000000000021c .L0 
     /tmp/ccgRGHpw.s:875    .text:000000000000021c .L0 
     /tmp/ccgRGHpw.s:880    .text:0000000000000228 .L0 
     /tmp/ccgRGHpw.s:881    .text:0000000000000228 .L0 
     /tmp/ccgRGHpw.s:887    .text:000000000000023c .L0 
     /tmp/ccgRGHpw.s:888    .text:000000000000023c .L0 
     /tmp/ccgRGHpw.s:891    .text:0000000000000240 .L0 
     /tmp/ccgRGHpw.s:897    .text:0000000000000248 .L0 
src/cpp/../../h/riscv.hpp:156    .text:0000000000000248 .L0 
     /tmp/ccgRGHpw.s:907    .text:000000000000024c .L0 
     /tmp/ccgRGHpw.s:908    .text:0000000000000250 .L0 
     /tmp/ccgRGHpw.s:910    .text:0000000000000254 .L0 
     /tmp/ccgRGHpw.s:911    .text:0000000000000254 .L0 
     /tmp/ccgRGHpw.s:913    .text:0000000000000258 .L0 
     /tmp/ccgRGHpw.s:915    .text:000000000000025c .L0 
     /tmp/ccgRGHpw.s:918    .text:0000000000000260 .L0 
     /tmp/ccgRGHpw.s:920    .text:0000000000000264 .L0 
     /tmp/ccgRGHpw.s:922    .text:0000000000000268 .L0 
     /tmp/ccgRGHpw.s:928    .text:0000000000000268 _Z9allocTestR15MemoryAllocatorm
     /tmp/ccgRGHpw.s:931    .text:0000000000000268 .L0 
     /tmp/ccgRGHpw.s:933    .text:0000000000000268 .L0 
     /tmp/ccgRGHpw.s:934    .text:000000000000026c .L0 
     /tmp/ccgRGHpw.s:939    .text:000000000000027c .L0 
     /tmp/ccgRGHpw.s:940    .text:000000000000027c .L0 
     /tmp/ccgRGHpw.s:941    .text:000000000000027c .L0 
     /tmp/ccgRGHpw.s:942    .text:000000000000027c .L0 
     /tmp/ccgRGHpw.s:944    .text:0000000000000280 .L0 
     /tmp/ccgRGHpw.s:948    .text:0000000000000288 .L0 
     /tmp/ccgRGHpw.s:949    .text:0000000000000288 .L0 
     /tmp/ccgRGHpw.s:956    .text:000000000000029c .L0 
     /tmp/ccgRGHpw.s:957    .text:000000000000029c .L0 
     /tmp/ccgRGHpw.s:963    .text:00000000000002b0 .L0 
     /tmp/ccgRGHpw.s:964    .text:00000000000002b0 .L0 
     /tmp/ccgRGHpw.s:969    .text:00000000000002c4 .L0 
     /tmp/ccgRGHpw.s:970    .text:00000000000002c4 .L0 
     /tmp/ccgRGHpw.s:977    .text:00000000000002d8 .L0 
     /tmp/ccgRGHpw.s:978    .text:00000000000002d8 .L0 
     /tmp/ccgRGHpw.s:983    .text:00000000000002e4 .L0 
     /tmp/ccgRGHpw.s:984    .text:00000000000002e4 .L0 
     /tmp/ccgRGHpw.s:986    .text:00000000000002ec .L0 
     /tmp/ccgRGHpw.s:988    .text:00000000000002f0 .L0 
     /tmp/ccgRGHpw.s:989    .text:00000000000002f0 .L0 
     /tmp/ccgRGHpw.s:991    .text:00000000000002f4 .L0 
     /tmp/ccgRGHpw.s:994    .text:00000000000002f8 .L0 
     /tmp/ccgRGHpw.s:997    .text:00000000000002fc .L0 
     /tmp/ccgRGHpw.s:999    .text:0000000000000300 .L0 
     /tmp/ccgRGHpw.s:1005   .text:0000000000000300 _Z8freeTestR15MemoryAllocatorPv
     /tmp/ccgRGHpw.s:1008   .text:0000000000000300 .L0 
GAS LISTING /tmp/ccgRGHpw.s 			page 50


     /tmp/ccgRGHpw.s:1010   .text:0000000000000300 .L0 
     /tmp/ccgRGHpw.s:1011   .text:0000000000000304 .L0 
     /tmp/ccgRGHpw.s:1016   .text:0000000000000314 .L0 
     /tmp/ccgRGHpw.s:1017   .text:0000000000000314 .L0 
     /tmp/ccgRGHpw.s:1018   .text:0000000000000314 .L0 
     /tmp/ccgRGHpw.s:1019   .text:0000000000000314 .L0 
     /tmp/ccgRGHpw.s:1021   .text:0000000000000318 .L0 
     /tmp/ccgRGHpw.s:1025   .text:0000000000000320 .L0 
     /tmp/ccgRGHpw.s:1026   .text:0000000000000320 .L0 
     /tmp/ccgRGHpw.s:1033   .text:0000000000000334 .L0 
     /tmp/ccgRGHpw.s:1034   .text:0000000000000334 .L0 
     /tmp/ccgRGHpw.s:1039   .text:0000000000000344 .L0 
     /tmp/ccgRGHpw.s:1041   .text:0000000000000348 .L0 
     /tmp/ccgRGHpw.s:1042   .text:0000000000000348 .L0 
     /tmp/ccgRGHpw.s:1048   .text:000000000000035c .L0 
     /tmp/ccgRGHpw.s:1049   .text:0000000000000360 .L0 
     /tmp/ccgRGHpw.s:1050   .text:0000000000000360 .L0 
     /tmp/ccgRGHpw.s:1052   .text:0000000000000364 .L0 
     /tmp/ccgRGHpw.s:1053   .text:0000000000000364 .L0 
     /tmp/ccgRGHpw.s:1055   .text:0000000000000368 .L0 
     /tmp/ccgRGHpw.s:1058   .text:000000000000036c .L0 
     /tmp/ccgRGHpw.s:1061   .text:0000000000000370 .L0 
     /tmp/ccgRGHpw.s:1065   .text:0000000000000374 .L0 
     /tmp/ccgRGHpw.s:1067   .text:0000000000000374 .L0 
     /tmp/ccgRGHpw.s:1068   .text:0000000000000374 .L0 
     /tmp/ccgRGHpw.s:1072   .text:0000000000000384 .L0 
     /tmp/ccgRGHpw.s:1078   .text:0000000000000384 _Z7memTestv
     /tmp/ccgRGHpw.s:1081   .text:0000000000000384 .L0 
     /tmp/ccgRGHpw.s:1082   .text:0000000000000384 .L0 
     /tmp/ccgRGHpw.s:1083   .text:0000000000000388 .L0 
     /tmp/ccgRGHpw.s:1088   .text:0000000000000398 .L0 
     /tmp/ccgRGHpw.s:1089   .text:0000000000000398 .L0 
     /tmp/ccgRGHpw.s:1090   .text:0000000000000398 .L0 
     /tmp/ccgRGHpw.s:1091   .text:0000000000000398 .L0 
     /tmp/ccgRGHpw.s:1093   .text:000000000000039c .L0 
     /tmp/ccgRGHpw.s:1095   .text:000000000000039c .L0 
     /tmp/ccgRGHpw.s:1096   .text:000000000000039c .L0 
     /tmp/ccgRGHpw.s:1101   .text:00000000000003a8 .L0 
     /tmp/ccgRGHpw.s:1102   .text:00000000000003a8 .L0 
     /tmp/ccgRGHpw.s:1105   .text:00000000000003b0 .L0 
     /tmp/ccgRGHpw.s:1106   .text:00000000000003b0 .L0 
     /tmp/ccgRGHpw.s:1110   .text:00000000000003bc .L0 
     /tmp/ccgRGHpw.s:1111   .text:00000000000003bc .L0 
     /tmp/ccgRGHpw.s:1115   .text:00000000000003c8 .L0 
     /tmp/ccgRGHpw.s:1116   .text:00000000000003c8 .L0 
     /tmp/ccgRGHpw.s:1122   .text:00000000000003d8 .L0 
     /tmp/ccgRGHpw.s:1123   .text:00000000000003d8 .L0 
     /tmp/ccgRGHpw.s:1130   .text:00000000000003f0 .L0 
     /tmp/ccgRGHpw.s:1131   .text:00000000000003f0 .L0 
     /tmp/ccgRGHpw.s:1135   .text:00000000000003fc .L0 
     /tmp/ccgRGHpw.s:1136   .text:00000000000003fc .L0 
     /tmp/ccgRGHpw.s:1140   .text:0000000000000408 .L0 
     /tmp/ccgRGHpw.s:1141   .text:0000000000000408 .L0 
     /tmp/ccgRGHpw.s:1145   .text:0000000000000414 .L0 
     /tmp/ccgRGHpw.s:1146   .text:0000000000000414 .L0 
     /tmp/ccgRGHpw.s:1150   .text:0000000000000420 .L0 
     /tmp/ccgRGHpw.s:1156   .text:0000000000000438 .L0 
GAS LISTING /tmp/ccgRGHpw.s 			page 51


     /tmp/ccgRGHpw.s:1157   .text:0000000000000438 .L0 
     /tmp/ccgRGHpw.s:1161   .text:0000000000000444 .L0 
     /tmp/ccgRGHpw.s:1162   .text:0000000000000448 .L0 
     /tmp/ccgRGHpw.s:1164   .text:000000000000044c .L0 
     /tmp/ccgRGHpw.s:1165   .text:000000000000044c .L0 
     /tmp/ccgRGHpw.s:1167   .text:0000000000000450 .L0 
     /tmp/ccgRGHpw.s:1170   .text:0000000000000454 .L0 
     /tmp/ccgRGHpw.s:1173   .text:0000000000000458 .L0 
     /tmp/ccgRGHpw.s:1175   .text:000000000000045c .L0 
     /tmp/ccgRGHpw.s:1181   .text:000000000000045c _Z8print_a0v
     /tmp/ccgRGHpw.s:1184   .text:000000000000045c .L0 
     /tmp/ccgRGHpw.s:1185   .text:000000000000045c .L0 
     /tmp/ccgRGHpw.s:1186   .text:0000000000000460 .L0 
     /tmp/ccgRGHpw.s:1190   .text:000000000000046c .L0 
     /tmp/ccgRGHpw.s:1191   .text:000000000000046c .L0 
     /tmp/ccgRGHpw.s:1192   .text:000000000000046c .L0 
     /tmp/ccgRGHpw.s:1194   .text:0000000000000470 .L0 
     /tmp/ccgRGHpw.s:1198   .text:0000000000000470 .L0 
     /tmp/ccgRGHpw.s:1199   .text:0000000000000470 .L0 
     /tmp/ccgRGHpw.s:1200   .text:0000000000000470 .L0 
src/cpp/../../h/riscv.hpp:64     .text:0000000000000470 .L0 
     /tmp/ccgRGHpw.s:1210   .text:0000000000000474 .L0 
     /tmp/ccgRGHpw.s:1211   .text:0000000000000474 .L0 
     /tmp/ccgRGHpw.s:1212   .text:0000000000000474 .L0 
     /tmp/ccgRGHpw.s:1217   .text:0000000000000488 .L0 
     /tmp/ccgRGHpw.s:1218   .text:0000000000000488 .L0 
     /tmp/ccgRGHpw.s:1224   .text:000000000000049c .L0 
     /tmp/ccgRGHpw.s:1225   .text:00000000000004a0 .L0 
     /tmp/ccgRGHpw.s:1227   .text:00000000000004a4 .L0 
     /tmp/ccgRGHpw.s:1228   .text:00000000000004a4 .L0 
     /tmp/ccgRGHpw.s:1230   .text:00000000000004a8 .L0 
     /tmp/ccgRGHpw.s:1233   .text:00000000000004ac .L0 
     /tmp/ccgRGHpw.s:1235   .text:00000000000004b0 .L0 
     /tmp/ccgRGHpw.s:1241   .text:00000000000004b0 _Z19print_sup_registersv
     /tmp/ccgRGHpw.s:1244   .text:00000000000004b0 .L0 
     /tmp/ccgRGHpw.s:1245   .text:00000000000004b0 .L0 
     /tmp/ccgRGHpw.s:1246   .text:00000000000004b4 .L0 
     /tmp/ccgRGHpw.s:1249   .text:00000000000004bc .L0 
     /tmp/ccgRGHpw.s:1250   .text:00000000000004bc .L0 
     /tmp/ccgRGHpw.s:1252   .text:00000000000004c0 .L0 
     /tmp/ccgRGHpw.s:1254   .text:00000000000004c0 .L0 
     /tmp/ccgRGHpw.s:1255   .text:00000000000004c0 .L0 
     /tmp/ccgRGHpw.s:1262   .text:00000000000004d4 .L0 
     /tmp/ccgRGHpw.s:1263   .text:00000000000004d4 .L0 
     /tmp/ccgRGHpw.s:1264   .text:00000000000004d4 .L0 
src/cpp/../../h/riscv.hpp:169    .text:00000000000004d4 .L0 
     /tmp/ccgRGHpw.s:1272   .text:00000000000004dc .L0 
     /tmp/ccgRGHpw.s:1273   .text:00000000000004dc .L0 
     /tmp/ccgRGHpw.s:1277   .text:00000000000004e0 .L0 
     /tmp/ccgRGHpw.s:1282   .text:00000000000004f0 .L0 
     /tmp/ccgRGHpw.s:1283   .text:00000000000004f0 .L0 
     /tmp/ccgRGHpw.s:1290   .text:0000000000000504 .L0 
     /tmp/ccgRGHpw.s:1291   .text:0000000000000504 .L0 
     /tmp/ccgRGHpw.s:1292   .text:0000000000000504 .L0 
src/cpp/../../h/riscv.hpp:151    .text:0000000000000504 .L0 
     /tmp/ccgRGHpw.s:1300   .text:000000000000050c .L0 
     /tmp/ccgRGHpw.s:1301   .text:000000000000050c .L0 
GAS LISTING /tmp/ccgRGHpw.s 			page 52


     /tmp/ccgRGHpw.s:1305   .text:0000000000000510 .L0 
     /tmp/ccgRGHpw.s:1310   .text:0000000000000520 .L0 
     /tmp/ccgRGHpw.s:1311   .text:0000000000000520 .L0 
     /tmp/ccgRGHpw.s:1318   .text:0000000000000534 .L0 
     /tmp/ccgRGHpw.s:1319   .text:0000000000000534 .L0 
     /tmp/ccgRGHpw.s:1320   .text:0000000000000534 .L0 
src/cpp/../../h/riscv.hpp:133    .text:0000000000000534 .L0 
     /tmp/ccgRGHpw.s:1328   .text:000000000000053c .L0 
     /tmp/ccgRGHpw.s:1329   .text:000000000000053c .L0 
     /tmp/ccgRGHpw.s:1333   .text:0000000000000540 .L0 
     /tmp/ccgRGHpw.s:1338   .text:0000000000000550 .L0 
     /tmp/ccgRGHpw.s:1339   .text:0000000000000550 .L0 
     /tmp/ccgRGHpw.s:1346   .text:0000000000000564 .L0 
     /tmp/ccgRGHpw.s:1347   .text:0000000000000564 .L0 
     /tmp/ccgRGHpw.s:1348   .text:0000000000000564 .L0 
src/cpp/../../h/riscv.hpp:103    .text:0000000000000564 .L0 
     /tmp/ccgRGHpw.s:1356   .text:000000000000056c .L0 
     /tmp/ccgRGHpw.s:1357   .text:000000000000056c .L0 
     /tmp/ccgRGHpw.s:1361   .text:0000000000000570 .L0 
     /tmp/ccgRGHpw.s:1366   .text:0000000000000580 .L0 
     /tmp/ccgRGHpw.s:1367   .text:0000000000000584 .L0 
     /tmp/ccgRGHpw.s:1369   .text:0000000000000588 .L0 
     /tmp/ccgRGHpw.s:1370   .text:0000000000000588 .L0 
     /tmp/ccgRGHpw.s:1372   .text:000000000000058c .L0 
     /tmp/ccgRGHpw.s:1374   .text:0000000000000590 .L0 
     /tmp/ccgRGHpw.s:1380   .text:0000000000000590 _Z7kmallocm
     /tmp/ccgRGHpw.s:1383   .text:0000000000000590 .L0 
     /tmp/ccgRGHpw.s:1385   .text:0000000000000590 .L0 
     /tmp/ccgRGHpw.s:1386   .text:0000000000000594 .L0 
     /tmp/ccgRGHpw.s:1390   .text:00000000000005a0 .L0 
     /tmp/ccgRGHpw.s:1391   .text:00000000000005a0 .L0 
     /tmp/ccgRGHpw.s:1392   .text:00000000000005a0 .L0 
     /tmp/ccgRGHpw.s:1394   .text:00000000000005a4 .L0 
     /tmp/ccgRGHpw.s:1396   .text:00000000000005a4 .L0 
     /tmp/ccgRGHpw.s:1397   .text:00000000000005a4 .L0 
     /tmp/ccgRGHpw.s:1399   .text:00000000000005a8 .L0 
     /tmp/ccgRGHpw.s:1401   .text:00000000000005ac .L0 
     /tmp/ccgRGHpw.s:1404   .text:00000000000005b0 .L0 
     /tmp/ccgRGHpw.s:1405   .text:00000000000005b0 .L0 
     /tmp/ccgRGHpw.s:1408   .text:00000000000005b8 .L0 
     /tmp/ccgRGHpw.s:1412   .text:00000000000005c4 .L0 
     /tmp/ccgRGHpw.s:1413   .text:00000000000005c8 .L0 
     /tmp/ccgRGHpw.s:1415   .text:00000000000005cc .L0 
     /tmp/ccgRGHpw.s:1416   .text:00000000000005cc .L0 
     /tmp/ccgRGHpw.s:1418   .text:00000000000005d0 .L0 
     /tmp/ccgRGHpw.s:1421   .text:00000000000005d4 .L0 
     /tmp/ccgRGHpw.s:1423   .text:00000000000005d8 .L0 
     /tmp/ccgRGHpw.s:1429   .text:00000000000005d8 _Z18testPeriodicWorkerv
     /tmp/ccgRGHpw.s:1432   .text:00000000000005d8 .L0 
     /tmp/ccgRGHpw.s:1435   .text:00000000000005d8 .L0 
     /tmp/ccgRGHpw.s:1436   .text:00000000000005dc .L0 
     /tmp/ccgRGHpw.s:1440   .text:00000000000005e8 .L0 
     /tmp/ccgRGHpw.s:1441   .text:00000000000005e8 .L0 
     /tmp/ccgRGHpw.s:1442   .text:00000000000005e8 .L0 
     /tmp/ccgRGHpw.s:1444   .text:00000000000005ec .L0 
     /tmp/ccgRGHpw.s:1450   .text:00000000000005ec .L0 
     /tmp/ccgRGHpw.s:1451   .text:00000000000005ec .L0 
GAS LISTING /tmp/ccgRGHpw.s 			page 53


     /tmp/ccgRGHpw.s:1678   .rodata._ZTV14PeriodicWorker:0000000000000000 _ZTV14PeriodicWorker
     /tmp/ccgRGHpw.s:1461   .text:0000000000000608 .L0 
     /tmp/ccgRGHpw.s:1462   .text:0000000000000608 .L0 
     /tmp/ccgRGHpw.s:1472   .text:0000000000000610 .L0 
     /tmp/ccgRGHpw.s:1473   .text:0000000000000610 .L0 
     /tmp/ccgRGHpw.s:1476   .text:000000000000061c .L0 
     /tmp/ccgRGHpw.s:1477   .text:000000000000061c .L0 
     /tmp/ccgRGHpw.s:1487   .text:000000000000062c .L0 
     /tmp/ccgRGHpw.s:1488   .text:000000000000062c .L0 
     /tmp/ccgRGHpw.s:1495   .text:0000000000000638 .L0 
     /tmp/ccgRGHpw.s:1496   .text:0000000000000638 .L0 
     /tmp/ccgRGHpw.s:1497   .text:0000000000000638 .L0 
     /tmp/ccgRGHpw.s:1506   .text:0000000000000644 .L0 
     /tmp/ccgRGHpw.s:1509   .text:0000000000000650 .L0 
     /tmp/ccgRGHpw.s:1510   .text:0000000000000650 .L0 
     /tmp/ccgRGHpw.s:1520   .text:000000000000065c .L0 
     /tmp/ccgRGHpw.s:1523   .text:0000000000000668 .L0 
     /tmp/ccgRGHpw.s:1524   .text:0000000000000668 .L0 
     /tmp/ccgRGHpw.s:1529   .text:000000000000066c .L0 
src/cpp/../../h/../h/_thread.hpp:9      .text:000000000000066c .L0 
     /tmp/ccgRGHpw.s:1535   .text:0000000000000670 .L0 
src/cpp/../../h/../h/_thread.hpp:10     .text:0000000000000670 .L0 
     /tmp/ccgRGHpw.s:1540   .text:0000000000000674 .L0 
src/cpp/../../h/../h/_thread.hpp:11     .text:0000000000000674 .L0 
     /tmp/ccgRGHpw.s:1553   .text:0000000000000678 .L0 
     /tmp/ccgRGHpw.s:1554   .text:000000000000067c .L0 
     /tmp/ccgRGHpw.s:1555   .text:000000000000067c .L0 
     /tmp/ccgRGHpw.s:1557   .text:0000000000000680 .L0 
     /tmp/ccgRGHpw.s:1558   .text:0000000000000680 .L0 
     /tmp/ccgRGHpw.s:1560   .text:0000000000000684 .L0 
     /tmp/ccgRGHpw.s:1562   .text:0000000000000688 .L0 
     /tmp/ccgRGHpw.s:1565   .text:000000000000068c .L0 
     /tmp/ccgRGHpw.s:1571   .text:0000000000000690 .L0 
     /tmp/ccgRGHpw.s:1574   .text:000000000000069c .L0 
     /tmp/ccgRGHpw.s:1575   .text:000000000000069c .L0 
     /tmp/ccgRGHpw.s:1588   .text:00000000000006ac .L0 
     /tmp/ccgRGHpw.s:1591   .text:00000000000006b8 .L0 
     /tmp/ccgRGHpw.s:1592   .text:00000000000006b8 .L0 
     /tmp/ccgRGHpw.s:1597   .text:00000000000006bc .L0 
src/cpp/../../h/../h/_thread.hpp:9      .text:00000000000006bc .L0 
     /tmp/ccgRGHpw.s:1603   .text:00000000000006c0 .L0 
src/cpp/../../h/../h/_thread.hpp:10     .text:00000000000006c0 .L0 
     /tmp/ccgRGHpw.s:1608   .text:00000000000006c4 .L0 
src/cpp/../../h/../h/_thread.hpp:11     .text:00000000000006c4 .L0 
     /tmp/ccgRGHpw.s:1626   .text:00000000000006d4 .L0 
     /tmp/ccgRGHpw.s:69     .text._ZN6ThreadD2Ev:0000000000000034 .L0 
     /tmp/ccgRGHpw.s:94     .text._ZN6Thread3runEv:0000000000000018 .L0 
     /tmp/ccgRGHpw.s:158    .text._ZN14PeriodicWorkerD2Ev:0000000000000034 .L0 
     /tmp/ccgRGHpw.s:204    .text._ZN14PeriodicWorker18periodicActivationEv:0000000000000050 .L0 
     /tmp/ccgRGHpw.s:269    .text._ZN6ThreadD0Ev:0000000000000044 .L0 
     /tmp/ccgRGHpw.s:338    .text._ZN14PeriodicWorkerD0Ev:0000000000000044 .L0 
     /tmp/ccgRGHpw.s:390    .text._ZN9SemaphoreD2Ev:0000000000000038 .L0 
     /tmp/ccgRGHpw.s:457    .text._ZN9SemaphoreD0Ev:0000000000000050 .L0 
     /tmp/ccgRGHpw.s:1733   .text:00000000000006d4 .L0 
     /tmp/ccgRGHpw.s:1691   .rodata.str1.8:0000000000000000 .LC1
     /tmp/ccgRGHpw.s:611    .text:00000000000000c8 .L0 
     /tmp/ccgRGHpw.s:1694   .rodata.str1.8:0000000000000018 .LC2
GAS LISTING /tmp/ccgRGHpw.s 			page 54


     /tmp/ccgRGHpw.s:951    .text:000000000000028c .L0 
     /tmp/ccgRGHpw.s:1697   .rodata.str1.8:0000000000000028 .LC3
     /tmp/ccgRGHpw.s:965    .text:00000000000002b4 .L0 
     /tmp/ccgRGHpw.s:1699   .rodata.str1.8:0000000000000030 .LC4
     /tmp/ccgRGHpw.s:1028   .text:0000000000000324 .L0 
     /tmp/ccgRGHpw.s:1702   .rodata.str1.8:0000000000000040 .LC5
     /tmp/ccgRGHpw.s:1043   .text:000000000000034c .L0 
     /tmp/ccgRGHpw.s:1705   .rodata.str1.8:0000000000000058 .LC6
     /tmp/ccgRGHpw.s:1125   .text:00000000000003e0 .L0 
     /tmp/ccgRGHpw.s:1708   .rodata.str1.8:0000000000000060 .LC7
     /tmp/ccgRGHpw.s:1152   .text:0000000000000428 .L0 
     /tmp/ccgRGHpw.s:1711   .rodata.str1.8:0000000000000070 .LC8
     /tmp/ccgRGHpw.s:1213   .text:0000000000000478 .L0 
     /tmp/ccgRGHpw.s:1714   .rodata.str1.8:0000000000000078 .LC9
     /tmp/ccgRGHpw.s:1256   .text:00000000000004c4 .L0 
     /tmp/ccgRGHpw.s:1717   .rodata.str1.8:0000000000000088 .LC10
     /tmp/ccgRGHpw.s:1284   .text:00000000000004f4 .L0 
     /tmp/ccgRGHpw.s:1720   .rodata.str1.8:0000000000000090 .LC11
     /tmp/ccgRGHpw.s:1312   .text:0000000000000524 .L0 
     /tmp/ccgRGHpw.s:1723   .rodata.str1.8:0000000000000098 .LC12
     /tmp/ccgRGHpw.s:1340   .text:0000000000000554 .L0 
     /tmp/ccgRGHpw.s:1458   .text:00000000000005fc .L0 
     /tmp/ccgRGHpw.s:1473   .text:0000000000000610 .L0 
     /tmp/ccgRGHpw.s:1506   .text:0000000000000644 .L0 
     /tmp/ccgRGHpw.s:1520   .text:000000000000065c .L0 
     /tmp/ccgRGHpw.s:1571   .text:0000000000000690 .L0 
     /tmp/ccgRGHpw.s:1588   .text:00000000000006ac .L0 
     /tmp/ccgRGHpw.s:576    .text:0000000000000098 .L18
     /tmp/ccgRGHpw.s:537    .text:0000000000000050 .L19
     /tmp/ccgRGHpw.s:528    .text:0000000000000048 .L24
     /tmp/ccgRGHpw.s:642    .text:0000000000000110 .L20
     /tmp/ccgRGHpw.s:560    .text:0000000000000078 .L21
     /tmp/ccgRGHpw.s:602    .text:00000000000000c0 .L22
     /tmp/ccgRGHpw.s:595    .text:00000000000000b8 .L25
     /tmp/ccgRGHpw.s:626    .text:00000000000000f0 .L23
     /tmp/ccgRGHpw.s:768    .text:00000000000001a8 .L28
     /tmp/ccgRGHpw.s:754    .text:000000000000018c .L29
     /tmp/ccgRGHpw.s:1064   .text:0000000000000374 .L39
     /tmp/ccgRGHpw.s:1046   .text:000000000000035c .L35
     /tmp/ccgRGHpw.s:1579   .text:00000000000006ac .L50
     /tmp/ccgRGHpw.s:27     .text._ZN6ThreadD2Ev:000000000000000c .L0 
     /tmp/ccgRGHpw.s:115    .text._ZN14PeriodicWorkerD2Ev:000000000000000c .L0 
     /tmp/ccgRGHpw.s:1687   .rodata._ZN14PeriodicWorker18periodicActivationEv.str1.8:0000000000000000 .LC0
     /tmp/ccgRGHpw.s:189    .text._ZN14PeriodicWorker18periodicActivationEv:0000000000000030 .L0 
     /tmp/ccgRGHpw.s:225    .text._ZN6ThreadD0Ev:0000000000000010 .L0 
     /tmp/ccgRGHpw.s:292    .text._ZN14PeriodicWorkerD0Ev:0000000000000010 .L0 
     /tmp/ccgRGHpw.s:359    .text._ZN9SemaphoreD2Ev:0000000000000010 .L0 
     /tmp/ccgRGHpw.s:416    .text._ZN9SemaphoreD0Ev:0000000000000018 .L0 
     /tmp/ccgRGHpw.s:428    .text._ZN9SemaphoreD0Ev:0000000000000034 .LEHB0
     /tmp/ccgRGHpw.s:395    .text._ZN9SemaphoreD0Ev:0000000000000000 .LFB58
     /tmp/ccgRGHpw.s:431    .text._ZN9SemaphoreD0Ev:000000000000003c .LEHE0
     /tmp/ccgRGHpw.s:1454   .text:00000000000005f4 .LEHB1
     /tmp/ccgRGHpw.s:1430   .text:00000000000005d8 .LFB81
     /tmp/ccgRGHpw.s:1457   .text:00000000000005fc .LEHE1
     /tmp/ccgRGHpw.s:1479   .text:0000000000000624 .LEHB2
     /tmp/ccgRGHpw.s:1482   .text:000000000000062c .LEHE2
     /tmp/ccgRGHpw.s:1618   .text:00000000000006d0 .L51
GAS LISTING /tmp/ccgRGHpw.s 			page 55


     /tmp/ccgRGHpw.s:1489   .text:0000000000000630 .LEHB3
     /tmp/ccgRGHpw.s:1500   .text:0000000000000644 .LEHE3
     /tmp/ccgRGHpw.s:1564   .text:000000000000068c .L52
     /tmp/ccgRGHpw.s:1613   .text:00000000000006c8 .LEHB4
     /tmp/ccgRGHpw.s:1617   .text:00000000000006d0 .LEHE4
     /tmp/ccgRGHpw.s:4853   .debug_abbrev:0000000000000000 .Ldebug_abbrev0
     /tmp/ccgRGHpw.s:7284   .debug_str:000000000000055e .LASF204
     /tmp/ccgRGHpw.s:7262   .debug_str:00000000000004a0 .LASF205
     /tmp/ccgRGHpw.s:7468   .debug_str:0000000000000b87 .LASF206
     /tmp/ccgRGHpw.s:7092   .debug_ranges:0000000000000000 .Ldebug_ranges0
     /tmp/ccgRGHpw.s:7114   .debug_line:0000000000000000 .Ldebug_line0
     /tmp/ccgRGHpw.s:7278   .debug_str:000000000000051f .LASF0
     /tmp/ccgRGHpw.s:7448   .debug_str:0000000000000ace .LASF1
     /tmp/ccgRGHpw.s:7294   .debug_str:0000000000000653 .LASF2
     /tmp/ccgRGHpw.s:7394   .debug_str:0000000000000979 .LASF3
     /tmp/ccgRGHpw.s:7402   .debug_str:00000000000009b5 .LASF4
     /tmp/ccgRGHpw.s:7126   .debug_str:0000000000000062 .LASF5
     /tmp/ccgRGHpw.s:7368   .debug_str:00000000000008c0 .LASF6
     /tmp/ccgRGHpw.s:7362   .debug_str:000000000000088a .LASF7
     /tmp/ccgRGHpw.s:7288   .debug_str:0000000000000628 .LASF8
     /tmp/ccgRGHpw.s:7228   .debug_str:0000000000000384 .LASF9
     /tmp/ccgRGHpw.s:7238   .debug_str:00000000000003dc .LASF10
     /tmp/ccgRGHpw.s:7166   .debug_str:0000000000000194 .LASF11
     /tmp/ccgRGHpw.s:7220   .debug_str:000000000000035c .LASF12
     /tmp/ccgRGHpw.s:7182   .debug_str:000000000000022b .LASF13
     /tmp/ccgRGHpw.s:7164   .debug_str:0000000000000184 .LASF14
     /tmp/ccgRGHpw.s:7434   .debug_str:0000000000000a86 .LASF15
     /tmp/ccgRGHpw.s:7200   .debug_str:000000000000029e .LASF16
     /tmp/ccgRGHpw.s:7426   .debug_str:0000000000000a58 .LASF17
     /tmp/ccgRGHpw.s:7226   .debug_str:0000000000000378 .LASF207
     /tmp/ccgRGHpw.s:7168   .debug_str:00000000000001a3 .LASF18
     /tmp/ccgRGHpw.s:7292   .debug_str:000000000000064e .LASF19
     /tmp/ccgRGHpw.s:7356   .debug_str:000000000000083e .LASF22
     /tmp/ccgRGHpw.s:7148   .debug_str:0000000000000132 .LASF20
     /tmp/ccgRGHpw.s:7424   .debug_str:0000000000000a4e .LASF21
     /tmp/ccgRGHpw.s:7480   .debug_str:0000000000000c27 .LASF172
     /tmp/ccgRGHpw.s:7144   .debug_str:0000000000000111 .LASF24
     /tmp/ccgRGHpw.s:7272   .debug_str:00000000000004f6 .LASF23
     /tmp/ccgRGHpw.s:7450   .debug_str:0000000000000adb .LASF25
     /tmp/ccgRGHpw.s:7516   .debug_str:0000000000000ce9 .LASF26
     /tmp/ccgRGHpw.s:7134   .debug_str:00000000000000ad .LASF27
     /tmp/ccgRGHpw.s:7282   .debug_str:0000000000000542 .LASF28
     /tmp/ccgRGHpw.s:7500   .debug_str:0000000000000caf .LASF29
     /tmp/ccgRGHpw.s:7528   .debug_str:0000000000000d4c .LASF31
     /tmp/ccgRGHpw.s:7398   .debug_str:0000000000000993 .LASF30
     /tmp/ccgRGHpw.s:7482   .debug_str:0000000000000c31 .LASF32
     /tmp/ccgRGHpw.s:7212   .debug_str:0000000000000315 .LASF33
     /tmp/ccgRGHpw.s:7250   .debug_str:0000000000000425 .LASF34
     /tmp/ccgRGHpw.s:7518   .debug_str:0000000000000cfc .LASF48
     /tmp/ccgRGHpw.s:7326   .debug_str:0000000000000750 .LASF50
     /tmp/ccgRGHpw.s:7324   .debug_str:0000000000000746 .LASF35
     /tmp/ccgRGHpw.s:7130   .debug_str:0000000000000074 .LASF36
     /tmp/ccgRGHpw.s:7442   .debug_str:0000000000000aae .LASF37
     /tmp/ccgRGHpw.s:7218   .debug_str:000000000000033b .LASF38
     /tmp/ccgRGHpw.s:7506   .debug_str:0000000000000cc7 .LASF44
     /tmp/ccgRGHpw.s:7192   .debug_str:0000000000000267 .LASF46
     /tmp/ccgRGHpw.s:7314   .debug_str:00000000000006f2 .LASF39
GAS LISTING /tmp/ccgRGHpw.s 			page 56


     /tmp/ccgRGHpw.s:7496   .debug_str:0000000000000c9f .LASF40
     /tmp/ccgRGHpw.s:7486   .debug_str:0000000000000c5c .LASF208
     /tmp/ccgRGHpw.s:7214   .debug_str:0000000000000320 .LASF41
     /tmp/ccgRGHpw.s:7456   .debug_str:0000000000000b32 .LASF42
     /tmp/ccgRGHpw.s:7186   .debug_str:0000000000000242 .LASF43
     /tmp/ccgRGHpw.s:7390   .debug_str:0000000000000965 .LASF45
     /tmp/ccgRGHpw.s:7346   .debug_str:00000000000007f1 .LASF47
     /tmp/ccgRGHpw.s:7478   .debug_str:0000000000000c1e .LASF49
     /tmp/ccgRGHpw.s:7472   .debug_str:0000000000000bd4 .LASF51
     /tmp/ccgRGHpw.s:7336   .debug_str:00000000000007ae .LASF52
     /tmp/ccgRGHpw.s:7290   .debug_str:000000000000063b .LASF53
     /tmp/ccgRGHpw.s:7374   .debug_str:00000000000008e7 .LASF54
     /tmp/ccgRGHpw.s:7376   .debug_str:00000000000008ee .LASF55
     /tmp/ccgRGHpw.s:7140   .debug_str:00000000000000f9 .LASF92
     /tmp/ccgRGHpw.s:7360   .debug_str:0000000000000876 .LASF94
     /tmp/ccgRGHpw.s:7332   .debug_str:000000000000078d .LASF56
     /tmp/ccgRGHpw.s:7344   .debug_str:00000000000007dd .LASF57
     /tmp/ccgRGHpw.s:7514   .debug_str:0000000000000ce1 .LASF58
     /tmp/ccgRGHpw.s:7462   .debug_str:0000000000000b59 .LASF59
     /tmp/ccgRGHpw.s:7538   .debug_str:0000000000000db6 .LASF60
     /tmp/ccgRGHpw.s:7268   .debug_str:00000000000004c7 .LASF61
     /tmp/ccgRGHpw.s:7308   .debug_str:00000000000006d6 .LASF62
     /tmp/ccgRGHpw.s:7380   .debug_str:000000000000090b .LASF63
     /tmp/ccgRGHpw.s:7432   .debug_str:0000000000000a7f .LASF64
     /tmp/ccgRGHpw.s:7404   .debug_str:00000000000009bc .LASF65
     /tmp/ccgRGHpw.s:7406   .debug_str:00000000000009cf .LASF66
     /tmp/ccgRGHpw.s:7174   .debug_str:00000000000001e4 .LASF67
     /tmp/ccgRGHpw.s:7266   .debug_str:00000000000004c1 .LASF68
     /tmp/ccgRGHpw.s:7190   .debug_str:0000000000000255 .LASF69
     /tmp/ccgRGHpw.s:7198   .debug_str:0000000000000298 .LASF70
     /tmp/ccgRGHpw.s:7254   .debug_str:0000000000000460 .LASF71
     /tmp/ccgRGHpw.s:7128   .debug_str:0000000000000069 .LASF72
     /tmp/ccgRGHpw.s:7400   .debug_str:000000000000099d .LASF73
     /tmp/ccgRGHpw.s:7392   .debug_str:000000000000096e .LASF74
     /tmp/ccgRGHpw.s:7536   .debug_str:0000000000000d9e .LASF75
     /tmp/ccgRGHpw.s:7494   .debug_str:0000000000000c95 .LASF76
     /tmp/ccgRGHpw.s:7322   .debug_str:0000000000000730 .LASF77
     /tmp/ccgRGHpw.s:7498   .debug_str:0000000000000ca5 .LASF78
     /tmp/ccgRGHpw.s:7522   .debug_str:0000000000000d19 .LASF79
     /tmp/ccgRGHpw.s:7504   .debug_str:0000000000000cc2 .LASF80
     /tmp/ccgRGHpw.s:7352   .debug_str:0000000000000817 .LASF81
     /tmp/ccgRGHpw.s:7464   .debug_str:0000000000000b6d .LASF82
     /tmp/ccgRGHpw.s:7526   .debug_str:0000000000000d3b .LASF83
     /tmp/ccgRGHpw.s:7342   .debug_str:00000000000007d8 .LASF84
     /tmp/ccgRGHpw.s:7280   .debug_str:0000000000000531 .LASF85
     /tmp/ccgRGHpw.s:7508   .debug_str:0000000000000cd2 .LASF86
     /tmp/ccgRGHpw.s:7158   .debug_str:0000000000000162 .LASF87
     /tmp/ccgRGHpw.s:7510   .debug_str:0000000000000cd7 .LASF88
     /tmp/ccgRGHpw.s:7540   .debug_str:0000000000000dbe .LASF89
     /tmp/ccgRGHpw.s:7512   .debug_str:0000000000000cdc .LASF90
     /tmp/ccgRGHpw.s:7470   .debug_str:0000000000000bc3 .LASF91
     /tmp/ccgRGHpw.s:7264   .debug_str:00000000000004b4 .LASF93
     /tmp/ccgRGHpw.s:7490   .debug_str:0000000000000c76 .LASF95
     /tmp/ccgRGHpw.s:7408   .debug_str:00000000000009d6 .LASF96
     /tmp/ccgRGHpw.s:7206   .debug_str:00000000000002d1 .LASF97
     /tmp/ccgRGHpw.s:7248   .debug_str:000000000000041a .LASF98
     /tmp/ccgRGHpw.s:7258   .debug_str:0000000000000478 .LASF99
GAS LISTING /tmp/ccgRGHpw.s 			page 57


     /tmp/ccgRGHpw.s:7162   .debug_str:0000000000000179 .LASF100
     /tmp/ccgRGHpw.s:7382   .debug_str:000000000000091f .LASF101
     /tmp/ccgRGHpw.s:7138   .debug_str:00000000000000eb .LASF102
     /tmp/ccgRGHpw.s:7318   .debug_str:0000000000000705 .LASF103
     /tmp/ccgRGHpw.s:7146   .debug_str:000000000000012a .LASF104
     /tmp/ccgRGHpw.s:7120   .debug_str:0000000000000035 .LASF108
     /tmp/ccgRGHpw.s:7460   .debug_str:0000000000000b48 .LASF122
     /tmp/ccgRGHpw.s:7458   .debug_str:0000000000000b3f .LASF105
     /tmp/ccgRGHpw.s:7160   .debug_str:0000000000000173 .LASF106
     /tmp/ccgRGHpw.s:7488   .debug_str:0000000000000c6b .LASF209
     /tmp/ccgRGHpw.s:7444   .debug_str:0000000000000ab7 .LASF107
     /tmp/ccgRGHpw.s:7454   .debug_str:0000000000000b23 .LASF109
     /tmp/ccgRGHpw.s:7366   .debug_str:00000000000008a6 .LASF110
     /tmp/ccgRGHpw.s:7270   .debug_str:00000000000004db .LASF111
     /tmp/ccgRGHpw.s:7240   .debug_str:00000000000003ea .LASF112
     /tmp/ccgRGHpw.s:7234   .debug_str:00000000000003b1 .LASF118
     /tmp/ccgRGHpw.s:7170   .debug_str:00000000000001a8 .LASF119
     /tmp/ccgRGHpw.s:7142   .debug_str:0000000000000101 .LASF113
     /tmp/ccgRGHpw.s:7252   .debug_str:0000000000000448 .LASF125
     /tmp/ccgRGHpw.s:7176   .debug_str:00000000000001f7 .LASF114
     /tmp/ccgRGHpw.s:7474   .debug_str:0000000000000be9 .LASF115
     /tmp/ccgRGHpw.s:7476   .debug_str:0000000000000c03 .LASF116
     /tmp/ccgRGHpw.s:7300   .debug_str:0000000000000685 .LASF117
     /tmp/ccgRGHpw.s:7116   .debug_str:0000000000000000 .LASF120
     /tmp/ccgRGHpw.s:7320   .debug_str:0000000000000720 .LASF121
     /tmp/ccgRGHpw.s:7358   .debug_str:000000000000084e .LASF123
     /tmp/ccgRGHpw.s:7340   .debug_str:00000000000007c8 .LASF124
     /tmp/ccgRGHpw.s:7232   .debug_str:0000000000000399 .LASF126
     /tmp/ccgRGHpw.s:7244   .debug_str:000000000000040e .LASF127
     /tmp/ccgRGHpw.s:7178   .debug_str:0000000000000206 .LASF128
     /tmp/ccgRGHpw.s:7386   .debug_str:0000000000000940 .LASF144
     /tmp/ccgRGHpw.s:7542   .debug_str:0000000000000dcf .LASF129
     /tmp/ccgRGHpw.s:7422   .debug_str:0000000000000a46 .LASF130
     /tmp/ccgRGHpw.s:7216   .debug_str:000000000000032c .LASF131
     /tmp/ccgRGHpw.s:7532   .debug_str:0000000000000d88 .LASF132
     /tmp/ccgRGHpw.s:7122   .debug_str:0000000000000045 .LASF133
     /tmp/ccgRGHpw.s:7194   .debug_str:000000000000028a .LASF134
     /tmp/ccgRGHpw.s:7354   .debug_str:0000000000000828 .LASF135
     /tmp/ccgRGHpw.s:7298   .debug_str:000000000000067f .LASF136
     /tmp/ccgRGHpw.s:7338   .debug_str:00000000000007b5 .LASF137
     /tmp/ccgRGHpw.s:7274   .debug_str:0000000000000504 .LASF138
     /tmp/ccgRGHpw.s:7520   .debug_str:0000000000000d08 .LASF210
     /tmp/ccgRGHpw.s:7242   .debug_str:0000000000000403 .LASF139
     /tmp/ccgRGHpw.s:7210   .debug_str:00000000000002fb .LASF140
     /tmp/ccgRGHpw.s:7202   .debug_str:00000000000002b4 .LASF141
     /tmp/ccgRGHpw.s:7430   .debug_str:0000000000000a75 .LASF142
     /tmp/ccgRGHpw.s:7452   .debug_str:0000000000000b0e .LASF143
     /tmp/ccgRGHpw.s:7534   .debug_str:0000000000000d8e .LASF145
     /tmp/ccgRGHpw.s:7446   .debug_str:0000000000000abc .LASF146
     /tmp/ccgRGHpw.s:7118   .debug_str:000000000000002a .LASF147
     /tmp/ccgRGHpw.s:7412   .debug_str:00000000000009fc .LASF148
     /tmp/ccgRGHpw.s:7196   .debug_str:0000000000000293 .LASF149
     /tmp/ccgRGHpw.s:7466   .debug_str:0000000000000b72 .LASF150
     /tmp/ccgRGHpw.s:7438   .debug_str:0000000000000a9b .LASF151
     /tmp/ccgRGHpw.s:7370   .debug_str:00000000000008c7 .LASF152
     /tmp/ccgRGHpw.s:7260   .debug_str:0000000000000490 .LASF211
     /tmp/ccgRGHpw.s:7230   .debug_str:0000000000000394 .LASF212
GAS LISTING /tmp/ccgRGHpw.s 			page 58


     /tmp/ccgRGHpw.s:7224   .debug_str:0000000000000373 .LASF153
     /tmp/ccgRGHpw.s:7124   .debug_str:0000000000000058 .LASF154
     /tmp/ccgRGHpw.s:7132   .debug_str:0000000000000095 .LASF155
     /tmp/ccgRGHpw.s:274    .text._ZN14PeriodicWorkerD0Ev:0000000000000000 .LFB85
     /tmp/ccgRGHpw.s:336    .text._ZN14PeriodicWorkerD0Ev:0000000000000044 .LFE85
     /tmp/ccgRGHpw.s:6300   .debug_loc:0000000000000000 .LLST8
     /tmp/ccgRGHpw.s:287    .text._ZN14PeriodicWorkerD0Ev:0000000000000010 .LBB118
     /tmp/ccgRGHpw.s:323    .text._ZN14PeriodicWorkerD0Ev:000000000000002c .LBE118
     /tmp/ccgRGHpw.s:6314   .debug_loc:0000000000000039 .LLST9
     /tmp/ccgRGHpw.s:288    .text._ZN14PeriodicWorkerD0Ev:0000000000000010 .LBB119
     /tmp/ccgRGHpw.s:322    .text._ZN14PeriodicWorkerD0Ev:000000000000002c .LBE119
     /tmp/ccgRGHpw.s:289    .text._ZN14PeriodicWorkerD0Ev:0000000000000010 .LBB120
     /tmp/ccgRGHpw.s:321    .text._ZN14PeriodicWorkerD0Ev:000000000000002c .LBE120
     /tmp/ccgRGHpw.s:298    .text._ZN14PeriodicWorkerD0Ev:0000000000000020 .LBB122
     /tmp/ccgRGHpw.s:319    .text._ZN14PeriodicWorkerD0Ev:000000000000002c .LBE122
     /tmp/ccgRGHpw.s:6321   .debug_loc:000000000000005c .LLST12
     /tmp/ccgRGHpw.s:326    .text._ZN14PeriodicWorkerD0Ev:0000000000000034 .LVL21
     /tmp/ccgRGHpw.s:7410   .debug_str:00000000000009e4 .LASF156
     /tmp/ccgRGHpw.s:99     .text._ZN14PeriodicWorkerD2Ev:0000000000000000 .LFB83
     /tmp/ccgRGHpw.s:154    .text._ZN14PeriodicWorkerD2Ev:0000000000000034 .LFE83
     /tmp/ccgRGHpw.s:111    .text._ZN14PeriodicWorkerD2Ev:000000000000000c .LBB109
     /tmp/ccgRGHpw.s:145    .text._ZN14PeriodicWorkerD2Ev:0000000000000028 .LBE109
     /tmp/ccgRGHpw.s:6328   .debug_loc:000000000000007f .LLST1
     /tmp/ccgRGHpw.s:112    .text._ZN14PeriodicWorkerD2Ev:000000000000000c .LBB110
     /tmp/ccgRGHpw.s:144    .text._ZN14PeriodicWorkerD2Ev:0000000000000028 .LBE110
     /tmp/ccgRGHpw.s:121    .text._ZN14PeriodicWorkerD2Ev:000000000000001c .LBB112
     /tmp/ccgRGHpw.s:142    .text._ZN14PeriodicWorkerD2Ev:0000000000000028 .LBE112
     /tmp/ccgRGHpw.s:6335   .debug_loc:00000000000000a2 .LLST3
     /tmp/ccgRGHpw.s:7330   .debug_str:000000000000077a .LASF157
     /tmp/ccgRGHpw.s:7304   .debug_str:00000000000006af .LASF158
     /tmp/ccgRGHpw.s:1627   .text:00000000000006d4 .LFE81
     /tmp/ccgRGHpw.s:7188   .debug_str:000000000000024e .LASF159
     /tmp/ccgRGHpw.s:1447   .text:00000000000005ec .LBB162
     /tmp/ccgRGHpw.s:1467   .text:0000000000000610 .LBE162
     /tmp/ccgRGHpw.s:6342   .debug_loc:00000000000000c5 .LLST47
     /tmp/ccgRGHpw.s:6350   .debug_loc:00000000000000e9 .LLST48
     /tmp/ccgRGHpw.s:6358   .debug_loc:000000000000010d .LLST49
     /tmp/ccgRGHpw.s:1456   .text:00000000000005fc .LVL140
     /tmp/ccgRGHpw.s:1469   .text:0000000000000610 .LBB165
     /tmp/ccgRGHpw.s:1485   .text:000000000000062c .LBE165
     /tmp/ccgRGHpw.s:6377   .debug_loc:000000000000015a .LLST50
     /tmp/ccgRGHpw.s:6390   .debug_loc:0000000000000192 .LLST51
     /tmp/ccgRGHpw.s:1481   .text:000000000000062c .LVL142
     /tmp/ccgRGHpw.s:1493   .text:0000000000000638 .LBB168
     /tmp/ccgRGHpw.s:1502   .text:0000000000000644 .LBE168
     /tmp/ccgRGHpw.s:6405   .debug_loc:00000000000001ce .LLST52
     /tmp/ccgRGHpw.s:1499   .text:0000000000000644 .LVL144
     /tmp/ccgRGHpw.s:1503   .text:0000000000000644 .LBB170
     /tmp/ccgRGHpw.s:1514   .text:000000000000065c .LBE170
     /tmp/ccgRGHpw.s:6414   .debug_loc:00000000000001f4 .LLST53
     /tmp/ccgRGHpw.s:1512   .text:000000000000065c .LVL145
     /tmp/ccgRGHpw.s:1515   .text:000000000000065c .LBB172
     /tmp/ccgRGHpw.s:1551   .text:0000000000000678 .LBE172
     /tmp/ccgRGHpw.s:6423   .debug_loc:000000000000021a .LLST54
     /tmp/ccgRGHpw.s:1516   .text:000000000000065c .LBB173
     /tmp/ccgRGHpw.s:1550   .text:0000000000000678 .LBE173
     /tmp/ccgRGHpw.s:1517   .text:000000000000065c .LBB174
GAS LISTING /tmp/ccgRGHpw.s 			page 59


     /tmp/ccgRGHpw.s:1549   .text:0000000000000678 .LBE174
     /tmp/ccgRGHpw.s:1526   .text:000000000000066c .LBB176
     /tmp/ccgRGHpw.s:1547   .text:0000000000000678 .LBE176
     /tmp/ccgRGHpw.s:6432   .debug_loc:000000000000023f .LLST57
     /tmp/ccgRGHpw.s:1568   .text:0000000000000690 .LBB178
     /tmp/ccgRGHpw.s:1582   .text:00000000000006ac .LBE178
     /tmp/ccgRGHpw.s:6439   .debug_loc:0000000000000262 .LLST58
     /tmp/ccgRGHpw.s:1577   .text:00000000000006a8 .LVL149
     /tmp/ccgRGHpw.s:1583   .text:00000000000006ac .LBB180
     /tmp/ccgRGHpw.s:1625   .text:00000000000006d4 .LBE180
     /tmp/ccgRGHpw.s:6448   .debug_loc:0000000000000288 .LLST59
     /tmp/ccgRGHpw.s:1584   .text:00000000000006ac .LBB181
     /tmp/ccgRGHpw.s:1624   .text:00000000000006d4 .LBE181
     /tmp/ccgRGHpw.s:1585   .text:00000000000006ac .LBB182
     /tmp/ccgRGHpw.s:1623   .text:00000000000006d4 .LBE182
     /tmp/ccgRGHpw.s:1594   .text:00000000000006bc .LBB184
     /tmp/ccgRGHpw.s:1621   .text:00000000000006d4 .LBE184
     /tmp/ccgRGHpw.s:6457   .debug_loc:00000000000002ad .LLST62
     /tmp/ccgRGHpw.s:1491   .text:0000000000000638 .LVL143
     /tmp/ccgRGHpw.s:1616   .text:00000000000006d0 .LVL153
     /tmp/ccgRGHpw.s:163    .text._ZN14PeriodicWorker18periodicActivationEv:0000000000000000 .LFB80
     /tmp/ccgRGHpw.s:202    .text._ZN14PeriodicWorker18periodicActivationEv:0000000000000050 .LFE80
     /tmp/ccgRGHpw.s:6464   .debug_loc:00000000000002d0 .LLST4
     /tmp/ccgRGHpw.s:186    .text._ZN14PeriodicWorker18periodicActivationEv:0000000000000030 .LVL10
     /tmp/ccgRGHpw.s:191    .text._ZN14PeriodicWorker18periodicActivationEv:0000000000000040 .LVL11
     /tmp/ccgRGHpw.s:7152   .debug_str:0000000000000144 .LASF160
     /tmp/ccgRGHpw.s:7334   .debug_str:0000000000000795 .LASF161
     /tmp/ccgRGHpw.s:7544   .debug_str:0000000000000de6 .LASF162
     /tmp/ccgRGHpw.s:7388   .debug_str:000000000000094d .LASF163
     /tmp/ccgRGHpw.s:7222   .debug_str:000000000000036b .LASF164
     /tmp/ccgRGHpw.s:7396   .debug_str:0000000000000987 .LASF165
     /tmp/ccgRGHpw.s:1381   .text:0000000000000590 .LFB72
     /tmp/ccgRGHpw.s:1424   .text:00000000000005d8 .LFE72
     /tmp/ccgRGHpw.s:6478   .debug_loc:0000000000000309 .LLST46
     /tmp/ccgRGHpw.s:1406   .text:00000000000005b8 .LVL135
     /tmp/ccgRGHpw.s:1410   .text:00000000000005c4 .LVL136
     /tmp/ccgRGHpw.s:7204   .debug_str:00000000000002bd .LASF166
     /tmp/ccgRGHpw.s:7296   .debug_str:0000000000000666 .LASF167
     /tmp/ccgRGHpw.s:1242   .text:00000000000004b0 .LFB71
     /tmp/ccgRGHpw.s:1375   .text:0000000000000590 .LFE71
     /tmp/ccgRGHpw.s:1260   .text:00000000000004d4 .LBB154
     /tmp/ccgRGHpw.s:1275   .text:00000000000004e0 .LBE154
     /tmp/ccgRGHpw.s:1261   .text:00000000000004d4 .LBB155
     /tmp/ccgRGHpw.s:1274   .text:00000000000004e0 .LBE155
     /tmp/ccgRGHpw.s:1288   .text:0000000000000504 .LBB156
     /tmp/ccgRGHpw.s:1303   .text:0000000000000510 .LBE156
     /tmp/ccgRGHpw.s:1289   .text:0000000000000504 .LBB157
     /tmp/ccgRGHpw.s:1302   .text:0000000000000510 .LBE157
     /tmp/ccgRGHpw.s:1316   .text:0000000000000534 .LBB158
     /tmp/ccgRGHpw.s:1331   .text:0000000000000540 .LBE158
     /tmp/ccgRGHpw.s:1317   .text:0000000000000534 .LBB159
     /tmp/ccgRGHpw.s:1330   .text:0000000000000540 .LBE159
     /tmp/ccgRGHpw.s:1344   .text:0000000000000564 .LBB160
     /tmp/ccgRGHpw.s:1359   .text:0000000000000570 .LBE160
     /tmp/ccgRGHpw.s:1345   .text:0000000000000564 .LBB161
     /tmp/ccgRGHpw.s:1358   .text:0000000000000570 .LBE161
     /tmp/ccgRGHpw.s:1258   .text:00000000000004d4 .LVL125
GAS LISTING /tmp/ccgRGHpw.s 			page 60


     /tmp/ccgRGHpw.s:1280   .text:00000000000004f0 .LVL126
     /tmp/ccgRGHpw.s:1286   .text:0000000000000504 .LVL127
     /tmp/ccgRGHpw.s:1308   .text:0000000000000520 .LVL128
     /tmp/ccgRGHpw.s:1314   .text:0000000000000534 .LVL129
     /tmp/ccgRGHpw.s:1336   .text:0000000000000550 .LVL130
     /tmp/ccgRGHpw.s:1342   .text:0000000000000564 .LVL131
     /tmp/ccgRGHpw.s:1364   .text:0000000000000580 .LVL132
     /tmp/ccgRGHpw.s:7436   .debug_str:0000000000000a92 .LASF168
     /tmp/ccgRGHpw.s:7310   .debug_str:00000000000006de .LASF169
     /tmp/ccgRGHpw.s:1182   .text:000000000000045c .LFB70
     /tmp/ccgRGHpw.s:1236   .text:00000000000004b0 .LFE70
     /tmp/ccgRGHpw.s:6502   .debug_loc:000000000000035b .LLST45
     /tmp/ccgRGHpw.s:1196   .text:0000000000000470 .LBB152
     /tmp/ccgRGHpw.s:1209   .text:0000000000000474 .LBE152
     /tmp/ccgRGHpw.s:1197   .text:0000000000000470 .LBB153
     /tmp/ccgRGHpw.s:1208   .text:0000000000000474 .LBE153
     /tmp/ccgRGHpw.s:1215   .text:0000000000000488 .LVL122
     /tmp/ccgRGHpw.s:1222   .text:000000000000049c .LVL123
     /tmp/ccgRGHpw.s:7154   .debug_str:000000000000014b .LASF170
     /tmp/ccgRGHpw.s:7440   .debug_str:0000000000000aa2 .LASF171
     /tmp/ccgRGHpw.s:1079   .text:0000000000000384 .LFB69
     /tmp/ccgRGHpw.s:1176   .text:000000000000045c .LFE69
     /tmp/ccgRGHpw.s:6509   .debug_loc:000000000000037e .LLST43
     /tmp/ccgRGHpw.s:6516   .debug_loc:00000000000003a1 .LLST44
     /tmp/ccgRGHpw.s:1097   .text:00000000000003a4 .LVL104
     /tmp/ccgRGHpw.s:1103   .text:00000000000003b0 .LVL106
     /tmp/ccgRGHpw.s:1108   .text:00000000000003bc .LVL107
     /tmp/ccgRGHpw.s:1113   .text:00000000000003c8 .LVL108
     /tmp/ccgRGHpw.s:1118   .text:00000000000003d4 .LVL109
     /tmp/ccgRGHpw.s:1128   .text:00000000000003f0 .LVL112
     /tmp/ccgRGHpw.s:1133   .text:00000000000003fc .LVL113
     /tmp/ccgRGHpw.s:1138   .text:0000000000000408 .LVL114
     /tmp/ccgRGHpw.s:1143   .text:0000000000000414 .LVL115
     /tmp/ccgRGHpw.s:1148   .text:0000000000000420 .LVL116
     /tmp/ccgRGHpw.s:1154   .text:0000000000000438 .LVL117
     /tmp/ccgRGHpw.s:1159   .text:0000000000000444 .LVL118
     /tmp/ccgRGHpw.s:7372   .debug_str:00000000000008de .LASF173
     /tmp/ccgRGHpw.s:7530   .debug_str:0000000000000d68 .LASF174
     /tmp/ccgRGHpw.s:1006   .text:0000000000000300 .LFB68
     /tmp/ccgRGHpw.s:1073   .text:0000000000000384 .LFE68
     /tmp/ccgRGHpw.s:6531   .debug_loc:00000000000003ea .LLST41
     /tmp/ccgRGHpw.s:6553   .debug_loc:0000000000000449 .LLST42
     /tmp/ccgRGHpw.s:1031   .text:0000000000000334 .LVL97
     /tmp/ccgRGHpw.s:1037   .text:0000000000000344 .LVL98
     /tmp/ccgRGHpw.s:1045   .text:000000000000035c .LVL99
     /tmp/ccgRGHpw.s:1070   .text:0000000000000380 .LVL103
     /tmp/ccgRGHpw.s:7348   .debug_str:0000000000000806 .LASF175
     /tmp/ccgRGHpw.s:7418   .debug_str:0000000000000a1d .LASF176
     /tmp/ccgRGHpw.s:929    .text:0000000000000268 .LFB67
     /tmp/ccgRGHpw.s:1000   .text:0000000000000300 .LFE67
     /tmp/ccgRGHpw.s:6575   .debug_loc:00000000000004a8 .LLST38
     /tmp/ccgRGHpw.s:6593   .debug_loc:00000000000004f4 .LLST39
     /tmp/ccgRGHpw.s:7184   .debug_str:000000000000023b .LASF177
     /tmp/ccgRGHpw.s:6611   .debug_loc:0000000000000540 .LLST40
     /tmp/ccgRGHpw.s:954    .text:000000000000029c .LVL85
     /tmp/ccgRGHpw.s:961    .text:00000000000002b0 .LVL86
     /tmp/ccgRGHpw.s:967    .text:00000000000002c4 .LVL87
GAS LISTING /tmp/ccgRGHpw.s 			page 61


     /tmp/ccgRGHpw.s:973    .text:00000000000002d4 .LVL88
     /tmp/ccgRGHpw.s:981    .text:00000000000002e4 .LVL91
     /tmp/ccgRGHpw.s:7286   .debug_str:0000000000000622 .LASF178
     /tmp/ccgRGHpw.s:7316   .debug_str:00000000000006f7 .LASF179
     /tmp/ccgRGHpw.s:821    .text:00000000000001e4 .LFB66
     /tmp/ccgRGHpw.s:923    .text:0000000000000268 .LFE66
     /tmp/ccgRGHpw.s:6626   .debug_loc:0000000000000589 .LLST32
     /tmp/ccgRGHpw.s:6640   .debug_loc:00000000000005c2 .LLST33
     /tmp/ccgRGHpw.s:6658   .debug_loc:000000000000060e .LLST34
     /tmp/ccgRGHpw.s:7502   .debug_str:0000000000000cba .LASF180
     /tmp/ccgRGHpw.s:6672   .debug_loc:0000000000000647 .LLST35
     /tmp/ccgRGHpw.s:842    .text:0000000000000208 .LBB146
     /tmp/ccgRGHpw.s:858    .text:0000000000000214 .LBE146
     /tmp/ccgRGHpw.s:843    .text:0000000000000208 .LBB147
     /tmp/ccgRGHpw.s:857    .text:0000000000000214 .LBE147
     /tmp/ccgRGHpw.s:860    .text:0000000000000214 .LBB148
     /tmp/ccgRGHpw.s:872    .text:000000000000021c .LBE148
     /tmp/ccgRGHpw.s:6679   .debug_loc:000000000000066a .LLST36
     /tmp/ccgRGHpw.s:894    .text:0000000000000248 .LBB150
     /tmp/ccgRGHpw.s:905    .text:000000000000024c .LBE150
     /tmp/ccgRGHpw.s:6687   .debug_loc:000000000000068e .LLST37
     /tmp/ccgRGHpw.s:878    .text:0000000000000228 .LVL76
     /tmp/ccgRGHpw.s:885    .text:000000000000023c .LVL77
     /tmp/ccgRGHpw.s:7150   .debug_str:0000000000000137 .LASF181
     /tmp/ccgRGHpw.s:695    .text:000000000000014c .LFB65
     /tmp/ccgRGHpw.s:815    .text:00000000000001e4 .LFE65
     /tmp/ccgRGHpw.s:6694   .debug_loc:00000000000006b1 .LLST26
     /tmp/ccgRGHpw.s:6712   .debug_loc:00000000000006fd .LLST27
     /tmp/ccgRGHpw.s:6726   .debug_loc:0000000000000736 .LLST28
     /tmp/ccgRGHpw.s:750    .text:0000000000000188 .LBB143
     /tmp/ccgRGHpw.s:769    .text:00000000000001a8 .LBE143
     /tmp/ccgRGHpw.s:6733   .debug_loc:0000000000000759 .LLST30
     /tmp/ccgRGHpw.s:762    .text:00000000000001a0 .LVL63
     /tmp/ccgRGHpw.s:718    .text:0000000000000174 .LBB139
     /tmp/ccgRGHpw.s:734    .text:0000000000000180 .LBE139
     /tmp/ccgRGHpw.s:719    .text:0000000000000174 .LBB140
     /tmp/ccgRGHpw.s:733    .text:0000000000000180 .LBE140
     /tmp/ccgRGHpw.s:736    .text:0000000000000180 .LBB141
     /tmp/ccgRGHpw.s:748    .text:0000000000000188 .LBE141
     /tmp/ccgRGHpw.s:6749   .debug_loc:00000000000007a3 .LLST29
     /tmp/ccgRGHpw.s:783    .text:00000000000001c0 .LBB144
     /tmp/ccgRGHpw.s:794    .text:00000000000001c4 .LBE144
     /tmp/ccgRGHpw.s:6757   .debug_loc:00000000000007c7 .LLST31
     /tmp/ccgRGHpw.s:774    .text:00000000000001b4 .LVL66
     /tmp/ccgRGHpw.s:7276   .debug_str:0000000000000513 .LASF182
     /tmp/ccgRGHpw.s:462    .text:0000000000000000 .LFB64
     /tmp/ccgRGHpw.s:689    .text:000000000000014c .LFE64
     /tmp/ccgRGHpw.s:7246   .debug_str:0000000000000415 .LASF183
     /tmp/ccgRGHpw.s:6764   .debug_loc:00000000000007ea .LLST16
     /tmp/ccgRGHpw.s:6793   .debug_loc:000000000000085f .LLST17
     /tmp/ccgRGHpw.s:6818   .debug_loc:00000000000008c1 .LLST18
     /tmp/ccgRGHpw.s:6843   .debug_loc:0000000000000923 .LLST19
     /tmp/ccgRGHpw.s:7416   .debug_str:0000000000000a16 .LASF184
     /tmp/ccgRGHpw.s:7328   .debug_str:0000000000000774 .LASF185
     /tmp/ccgRGHpw.s:6850   .debug_loc:0000000000000946 .LLST20
     /tmp/ccgRGHpw.s:6911   .debug_loc:0000000000000a35 .LLST21
     /tmp/ccgRGHpw.s:561    .text:0000000000000078 .LBB133
GAS LISTING /tmp/ccgRGHpw.s 			page 62


     /tmp/ccgRGHpw.s:577    .text:0000000000000098 .LBE133
     /tmp/ccgRGHpw.s:6956   .debug_loc:0000000000000ae7 .LLST23
     /tmp/ccgRGHpw.s:570    .text:0000000000000090 .LVL40
     /tmp/ccgRGHpw.s:579    .text:0000000000000098 .LBB134
     /tmp/ccgRGHpw.s:644    .text:0000000000000110 .LBE134
     /tmp/ccgRGHpw.s:7414   .debug_str:0000000000000a0e .LASF191
     /tmp/ccgRGHpw.s:627    .text:00000000000000f0 .LBB135
     /tmp/ccgRGHpw.s:643    .text:0000000000000110 .LBE135
     /tmp/ccgRGHpw.s:6963   .debug_loc:0000000000000b0a .LLST24
     /tmp/ccgRGHpw.s:636    .text:0000000000000108 .LVL52
     /tmp/ccgRGHpw.s:585    .text:00000000000000a4 .LVL44
     /tmp/ccgRGHpw.s:590    .text:00000000000000b0 .LVL45
     /tmp/ccgRGHpw.s:485    .text:0000000000000028 .LBB127
     /tmp/ccgRGHpw.s:502    .text:0000000000000034 .LBE127
     /tmp/ccgRGHpw.s:486    .text:0000000000000028 .LBB128
     /tmp/ccgRGHpw.s:501    .text:0000000000000034 .LBE128
     /tmp/ccgRGHpw.s:504    .text:0000000000000034 .LBB129
     /tmp/ccgRGHpw.s:516    .text:000000000000003c .LBE129
     /tmp/ccgRGHpw.s:6970   .debug_loc:0000000000000b2d .LLST22
     /tmp/ccgRGHpw.s:659    .text:0000000000000128 .LBB137
     /tmp/ccgRGHpw.s:670    .text:000000000000012c .LBE137
     /tmp/ccgRGHpw.s:6978   .debug_loc:0000000000000b51 .LLST25
     /tmp/ccgRGHpw.s:650    .text:000000000000011c .LVL55
     /tmp/ccgRGHpw.s:7302   .debug_str:000000000000069d .LASF186
     /tmp/ccgRGHpw.s:444    .text._ZN9SemaphoreD0Ev:0000000000000050 .LFE58
     /tmp/ccgRGHpw.s:6985   .debug_loc:0000000000000b74 .LLST14
     /tmp/ccgRGHpw.s:413    .text._ZN9SemaphoreD0Ev:0000000000000018 .LBB125
     /tmp/ccgRGHpw.s:425    .text._ZN9SemaphoreD0Ev:0000000000000030 .LBE125
     /tmp/ccgRGHpw.s:7003   .debug_loc:0000000000000bc0 .LLST15
     /tmp/ccgRGHpw.s:423    .text._ZN9SemaphoreD0Ev:0000000000000030 .LVL28
     /tmp/ccgRGHpw.s:430    .text._ZN9SemaphoreD0Ev:000000000000003c .LVL29
     /tmp/ccgRGHpw.s:7136   .debug_str:00000000000000d9 .LASF187
     /tmp/ccgRGHpw.s:343    .text._ZN9SemaphoreD2Ev:0000000000000000 .LFB56
     /tmp/ccgRGHpw.s:378    .text._ZN9SemaphoreD2Ev:0000000000000038 .LFE56
     /tmp/ccgRGHpw.s:7014   .debug_loc:0000000000000bf6 .LLST13
     /tmp/ccgRGHpw.s:366    .text._ZN9SemaphoreD2Ev:0000000000000028 .LVL24
     /tmp/ccgRGHpw.s:7172   .debug_str:00000000000001d2 .LASF188
     /tmp/ccgRGHpw.s:74     .text._ZN6Thread3runEv:0000000000000000 .LFB51
     /tmp/ccgRGHpw.s:92     .text._ZN6Thread3runEv:0000000000000018 .LFE51
     /tmp/ccgRGHpw.s:7306   .debug_str:00000000000006c7 .LASF189
     /tmp/ccgRGHpw.s:209    .text._ZN6ThreadD0Ev:0000000000000000 .LFB45
     /tmp/ccgRGHpw.s:267    .text._ZN6ThreadD0Ev:0000000000000044 .LFE45
     /tmp/ccgRGHpw.s:7028   .debug_loc:0000000000000c2f .LLST5
     /tmp/ccgRGHpw.s:222    .text._ZN6ThreadD0Ev:0000000000000010 .LBB114
     /tmp/ccgRGHpw.s:254    .text._ZN6ThreadD0Ev:000000000000002c .LBE114
     /tmp/ccgRGHpw.s:7042   .debug_loc:0000000000000c68 .LLST6
     /tmp/ccgRGHpw.s:231    .text._ZN6ThreadD0Ev:0000000000000020 .LBB116
     /tmp/ccgRGHpw.s:252    .text._ZN6ThreadD0Ev:000000000000002c .LBE116
     /tmp/ccgRGHpw.s:7049   .debug_loc:0000000000000c8b .LLST7
     /tmp/ccgRGHpw.s:257    .text._ZN6ThreadD0Ev:0000000000000034 .LVL16
     /tmp/ccgRGHpw.s:7156   .debug_str:0000000000000153 .LASF190
     /tmp/ccgRGHpw.s:14     .text._ZN6ThreadD2Ev:0000000000000000 .LFB43
     /tmp/ccgRGHpw.s:65     .text._ZN6ThreadD2Ev:0000000000000034 .LFE43
     /tmp/ccgRGHpw.s:33     .text._ZN6ThreadD2Ev:000000000000001c .LBB107
     /tmp/ccgRGHpw.s:55     .text._ZN6ThreadD2Ev:0000000000000028 .LBE107
     /tmp/ccgRGHpw.s:7056   .debug_loc:0000000000000cae .LLST0
     /tmp/ccgRGHpw.s:7492   .debug_str:0000000000000c90 .LASF192
GAS LISTING /tmp/ccgRGHpw.s 			page 63


     /tmp/ccgRGHpw.s:7256   .debug_str:0000000000000472 .LASF193
     /tmp/ccgRGHpw.s:7428   .debug_str:0000000000000a6e .LASF194
     /tmp/ccgRGHpw.s:7350   .debug_str:0000000000000810 .LASF195
     /tmp/ccgRGHpw.s:7384   .debug_str:0000000000000937 .LASF196
     /tmp/ccgRGHpw.s:7420   .debug_str:0000000000000a3d .LASF197
     /tmp/ccgRGHpw.s:7378   .debug_str:0000000000000901 .LASF198
     /tmp/ccgRGHpw.s:7484   .debug_str:0000000000000c4d .LASF213
     /tmp/ccgRGHpw.s:7236   .debug_str:00000000000003c4 .LASF214
     /tmp/ccgRGHpw.s:7208   .debug_str:00000000000002ec .LASF199
     /tmp/ccgRGHpw.s:7364   .debug_str:000000000000089d .LASF200
     /tmp/ccgRGHpw.s:7180   .debug_str:0000000000000218 .LASF201
     /tmp/ccgRGHpw.s:7524   .debug_str:0000000000000d2f .LASF202
     /tmp/ccgRGHpw.s:7312   .debug_str:00000000000006eb .LASF203
     /tmp/ccgRGHpw.s:277    .text._ZN14PeriodicWorkerD0Ev:0000000000000000 .LVL17
     /tmp/ccgRGHpw.s:286    .text._ZN14PeriodicWorkerD0Ev:0000000000000010 .LVL18
     /tmp/ccgRGHpw.s:316    .text._ZN14PeriodicWorkerD0Ev:000000000000002c .LVL20
     /tmp/ccgRGHpw.s:297    .text._ZN14PeriodicWorkerD0Ev:0000000000000020 .LVL19
     /tmp/ccgRGHpw.s:110    .text._ZN14PeriodicWorkerD2Ev:000000000000000c .LVL5
     /tmp/ccgRGHpw.s:139    .text._ZN14PeriodicWorkerD2Ev:0000000000000028 .LVL7
     /tmp/ccgRGHpw.s:120    .text._ZN14PeriodicWorkerD2Ev:000000000000001c .LVL6
     /tmp/ccgRGHpw.s:1446   .text:00000000000005ec .LVL138
     /tmp/ccgRGHpw.s:1464   .text:0000000000000610 .LVL141
     /tmp/ccgRGHpw.s:1453   .text:00000000000005f4 .LVL139
     /tmp/ccgRGHpw.s:1544   .text:0000000000000678 .LVL147
     /tmp/ccgRGHpw.s:1525   .text:000000000000066c .LVL146
     /tmp/ccgRGHpw.s:1567   .text:0000000000000690 .LVL148
     /tmp/ccgRGHpw.s:1580   .text:00000000000006ac .LVL150
     /tmp/ccgRGHpw.s:1612   .text:00000000000006c8 .LVL152
     /tmp/ccgRGHpw.s:1593   .text:00000000000006bc .LVL151
     /tmp/ccgRGHpw.s:166    .text._ZN14PeriodicWorker18periodicActivationEv:0000000000000000 .LVL8
     /tmp/ccgRGHpw.s:184    .text._ZN14PeriodicWorker18periodicActivationEv:0000000000000028 .LVL9
     /tmp/ccgRGHpw.s:1384   .text:0000000000000590 .LVL133
     /tmp/ccgRGHpw.s:1402   .text:00000000000005b0 .LVL134
     /tmp/ccgRGHpw.s:1419   .text:00000000000005d0 .LVL137
     /tmp/ccgRGHpw.s:1205   .text:0000000000000474 .LVL121
     /tmp/ccgRGHpw.s:1231   .text:00000000000004a8 .LVL124
     /tmp/ccgRGHpw.s:1099   .text:00000000000003a8 .LVL105
     /tmp/ccgRGHpw.s:1168   .text:0000000000000450 .LVL119
     /tmp/ccgRGHpw.s:1120   .text:00000000000003d8 .LVL110
     /tmp/ccgRGHpw.s:1126   .text:00000000000003e8 .LVL111
     /tmp/ccgRGHpw.s:1171   .text:0000000000000454 .LVL120
     /tmp/ccgRGHpw.s:1009   .text:0000000000000300 .LVL94
     /tmp/ccgRGHpw.s:1029   .text:000000000000032c .LVL96
     /tmp/ccgRGHpw.s:1056   .text:0000000000000368 .LVL100
     /tmp/ccgRGHpw.s:1063   .text:0000000000000374 .LVL102
     /tmp/ccgRGHpw.s:1027   .text:0000000000000324 .LVL95
     /tmp/ccgRGHpw.s:1059   .text:000000000000036c .LVL101
     /tmp/ccgRGHpw.s:932    .text:0000000000000268 .LVL82
     /tmp/ccgRGHpw.s:952    .text:0000000000000294 .LVL84
     /tmp/ccgRGHpw.s:992    .text:00000000000002f4 .LVL92
     /tmp/ccgRGHpw.s:950    .text:000000000000028c .LVL83
     /tmp/ccgRGHpw.s:975    .text:00000000000002d8 .LVL89
     /tmp/ccgRGHpw.s:979    .text:00000000000002dc .LVL90
     /tmp/ccgRGHpw.s:995    .text:00000000000002f8 .LVL93
     /tmp/ccgRGHpw.s:824    .text:00000000000001e4 .LVL72
     /tmp/ccgRGHpw.s:876    .text:0000000000000220 .LVL75
     /tmp/ccgRGHpw.s:916    .text:000000000000025c .LVL81
GAS LISTING /tmp/ccgRGHpw.s 			page 64


     /tmp/ccgRGHpw.s:856    .text:0000000000000214 .LVL73
     /tmp/ccgRGHpw.s:889    .text:0000000000000240 .LVL78
     /tmp/ccgRGHpw.s:869    .text:000000000000021c .LVL74
     /tmp/ccgRGHpw.s:893    .text:0000000000000248 .LVL79
     /tmp/ccgRGHpw.s:902    .text:000000000000024c .LVL80
     /tmp/ccgRGHpw.s:698    .text:000000000000014c .LVL59
     /tmp/ccgRGHpw.s:753    .text:000000000000018c .LVL62
     /tmp/ccgRGHpw.s:806    .text:00000000000001d4 .LVL71
     /tmp/ccgRGHpw.s:732    .text:0000000000000180 .LVL60
     /tmp/ccgRGHpw.s:778    .text:00000000000001b8 .LVL67
     /tmp/ccgRGHpw.s:745    .text:0000000000000188 .LVL61
     /tmp/ccgRGHpw.s:765    .text:00000000000001a4 .LVL64
     /tmp/ccgRGHpw.s:767    .text:00000000000001a8 .LVL65
     /tmp/ccgRGHpw.s:803    .text:00000000000001d0 .LVL70
     /tmp/ccgRGHpw.s:782    .text:00000000000001c0 .LVL68
     /tmp/ccgRGHpw.s:791    .text:00000000000001c4 .LVL69
     /tmp/ccgRGHpw.s:465    .text:0000000000000000 .LVL31
     /tmp/ccgRGHpw.s:559    .text:0000000000000078 .LVL39
     /tmp/ccgRGHpw.s:575    .text:0000000000000098 .LVL42
     /tmp/ccgRGHpw.s:583    .text:000000000000009c .LVL43
     /tmp/ccgRGHpw.s:594    .text:00000000000000b8 .LVL46
     /tmp/ccgRGHpw.s:527    .text:0000000000000048 .LVL34
     /tmp/ccgRGHpw.s:500    .text:0000000000000034 .LVL32
     /tmp/ccgRGHpw.s:654    .text:0000000000000120 .LVL56
     /tmp/ccgRGHpw.s:513    .text:000000000000003c .LVL33
     /tmp/ccgRGHpw.s:536    .text:0000000000000050 .LVL36
     /tmp/ccgRGHpw.s:555    .text:0000000000000070 .LVL38
     /tmp/ccgRGHpw.s:601    .text:00000000000000c0 .LVL48
     /tmp/ccgRGHpw.s:621    .text:00000000000000e8 .LVL50
     /tmp/ccgRGHpw.s:625    .text:00000000000000f0 .LVL51
     /tmp/ccgRGHpw.s:641    .text:0000000000000110 .LVL54
     /tmp/ccgRGHpw.s:533    .text:000000000000004c .LVL35
     /tmp/ccgRGHpw.s:545    .text:000000000000005c .LVL37
     /tmp/ccgRGHpw.s:598    .text:00000000000000bc .LVL47
     /tmp/ccgRGHpw.s:609    .text:00000000000000c8 .LVL49
     /tmp/ccgRGHpw.s:573    .text:0000000000000094 .LVL41
     /tmp/ccgRGHpw.s:639    .text:000000000000010c .LVL53
     /tmp/ccgRGHpw.s:658    .text:0000000000000128 .LVL57
     /tmp/ccgRGHpw.s:667    .text:000000000000012c .LVL58
     /tmp/ccgRGHpw.s:400    .text._ZN9SemaphoreD0Ev:0000000000000000 .LVL25
     /tmp/ccgRGHpw.s:421    .text._ZN9SemaphoreD0Ev:0000000000000028 .LVL27
     /tmp/ccgRGHpw.s:439    .text._ZN9SemaphoreD0Ev:0000000000000048 .LVL30
     /tmp/ccgRGHpw.s:412    .text._ZN9SemaphoreD0Ev:0000000000000018 .LVL26
     /tmp/ccgRGHpw.s:348    .text._ZN9SemaphoreD2Ev:0000000000000000 .LVL22
     /tmp/ccgRGHpw.s:364    .text._ZN9SemaphoreD2Ev:0000000000000020 .LVL23
     /tmp/ccgRGHpw.s:212    .text._ZN6ThreadD0Ev:0000000000000000 .LVL12
     /tmp/ccgRGHpw.s:221    .text._ZN6ThreadD0Ev:0000000000000010 .LVL13
     /tmp/ccgRGHpw.s:249    .text._ZN6ThreadD0Ev:000000000000002c .LVL15
     /tmp/ccgRGHpw.s:230    .text._ZN6ThreadD0Ev:0000000000000020 .LVL14
     /tmp/ccgRGHpw.s:32     .text._ZN6ThreadD2Ev:000000000000001c .LVL1
     /tmp/ccgRGHpw.s:52     .text._ZN6ThreadD2Ev:0000000000000028 .LVL2
     /tmp/ccgRGHpw.s:1734   .debug_info:0000000000000000 .Ldebug_info0
     /tmp/ccgRGHpw.s:8      .text:0000000000000000 .Ltext0
     /tmp/ccgRGHpw.s:1726   .text:00000000000006d4 .Letext0
     /tmp/ccgRGHpw.s:381    .gcc_except_table._ZN9SemaphoreD2Ev:0000000000000000 .LLSDA56
     /tmp/ccgRGHpw.s:446    .gcc_except_table._ZN9SemaphoreD0Ev:0000000000000000 .LLSDA58
     /tmp/ccgRGHpw.s:1629   .gcc_except_table:0000000000000000 .LLSDA81
GAS LISTING /tmp/ccgRGHpw.s 			page 65


                           .group:0000000000000000 _ZN6ThreadD5Ev
                           .group:0000000000000000 _ZN14PeriodicWorkerD5Ev
                           .group:0000000000000000 _ZN9SemaphoreD5Ev

UNDEFINED SYMBOLS
_Z8printIntiii
_Z11printStringPKc
_ZdlPv
sem_close
__gxx_personality_v0
__putc
_ZN15MemoryAllocator9mem_allocEm
_ZN15MemoryAllocator10print_listEv
_ZN15MemoryAllocator8mem_freeEPv
_ZN15MemoryAllocator11getInstanceEv
mem_alloc
mem_free
_ZN14PeriodicThreadC2Em
sem_open
_ZN6Thread5startEv
sem_wait
_Unwind_Resume
