GAS LISTING /tmp/ccwzPgQx.s 			page 1


   1              		.file	"buffer_CPP_API.cpp"
   2              		.option nopic
   3              		.option norelax
   4              		.attribute arch, "rv64i2p0_m2p0_a2p0"
   5              		.attribute unaligned_access, 0
   6              		.attribute stack_align, 16
   7              		.text
   8              	.Ltext0:
   9              		.section	.text._ZN9SemaphoreD2Ev,"axG",@progbits,_ZN9SemaphoreD5Ev,comdat
  10              		.align	2
  11              		.weak	_ZN9SemaphoreD2Ev
  13              	_ZN9SemaphoreD2Ev:
  14              	.LFB12:
  15              		.file 1 "test/../h/syscall_cpp.hpp"
   1:test/../h/syscall_cpp.hpp **** #ifndef _syscall_cpp
   2:test/../h/syscall_cpp.hpp **** #define _syscall_cpp
   3:test/../h/syscall_cpp.hpp **** #include "syscall_c.h"
   4:test/../h/syscall_cpp.hpp **** 
   5:test/../h/syscall_cpp.hpp **** void* operator new (size_t);
   6:test/../h/syscall_cpp.hpp **** void operator delete (void*);
   7:test/../h/syscall_cpp.hpp **** 
   8:test/../h/syscall_cpp.hpp **** class Thread {
   9:test/../h/syscall_cpp.hpp **** public:
  10:test/../h/syscall_cpp.hpp ****     Thread (void (*body)(void*), void* arg);
  11:test/../h/syscall_cpp.hpp ****     virtual ~Thread ();
  12:test/../h/syscall_cpp.hpp ****     void start ();
  13:test/../h/syscall_cpp.hpp ****     static void dispatch () { thread_dispatch(); }
  14:test/../h/syscall_cpp.hpp ****     static void sleep (time_t time){ time_sleep(time); }
  15:test/../h/syscall_cpp.hpp **** protected:
  16:test/../h/syscall_cpp.hpp ****     Thread (){ myHandle = nullptr;}
  17:test/../h/syscall_cpp.hpp ****     virtual void run () {}
  18:test/../h/syscall_cpp.hpp **** private:
  19:test/../h/syscall_cpp.hpp ****     static void runWrapper(void*);
  20:test/../h/syscall_cpp.hpp ****     thread_t myHandle;
  21:test/../h/syscall_cpp.hpp **** };
  22:test/../h/syscall_cpp.hpp **** 
  23:test/../h/syscall_cpp.hpp **** class Semaphore {
  24:test/../h/syscall_cpp.hpp **** public:
  25:test/../h/syscall_cpp.hpp ****     Semaphore (unsigned init = 1) { sem_open(&myHandle, init); } 
  26:test/../h/syscall_cpp.hpp ****     virtual ~Semaphore (){ sem_close(myHandle); }
  16              		.loc 1 26 13
  17              		.cfi_startproc
  18              		.cfi_personality 0x9b,DW.ref.__gxx_personality_v0
  19              		.cfi_lsda 0x1b,.LLSDA12
  20              	.LVL0:
  21 0000 130101FF 		addi	sp,sp,-16
  22              		.cfi_def_cfa_offset 16
  23 0004 23341100 		sd	ra,8(sp)
  24 0008 23308100 		sd	s0,0(sp)
  25              		.cfi_offset 1, -8
  26              		.cfi_offset 8, -16
  27 000c 13040101 		addi	s0,sp,16
  28              		.cfi_def_cfa 8, 0
  29              	.LBB53:
  30              		.loc 1 26 26 is_stmt 0
  31 0010 97070000 		lla	a5,_ZTV9Semaphore+16
  31      93870700 
GAS LISTING /tmp/ccwzPgQx.s 			page 2


  32 0018 2330F500 		sd	a5,0(a0)
  33              		.loc 1 26 28 is_stmt 1
  34              		.loc 1 26 37 is_stmt 0
  35 001c 03358500 		ld	a0,8(a0)
  36              	.LVL1:
  37 0020 97000000 		call	sem_close
  37      E7800000 
  38              	.LVL2:
  39              	.LBE53:
  40              		.loc 1 26 49
  41 0028 83308100 		ld	ra,8(sp)
  42              		.cfi_restore 1
  43 002c 03340100 		ld	s0,0(sp)
  44              		.cfi_restore 8
  45              		.cfi_def_cfa 2, 16
  46 0030 13010101 		addi	sp,sp,16
  47              		.cfi_def_cfa_offset 0
  48 0034 67800000 		jr	ra
  49              		.cfi_endproc
  50              	.LFE12:
  51              		.globl	__gxx_personality_v0
  52              		.section	.gcc_except_table._ZN9SemaphoreD2Ev,"awG",@progbits,_ZN9SemaphoreD5Ev,comdat
  53              	.LLSDA12:
  54 0000 FF       		.byte	0xff
  55 0001 FF       		.byte	0xff
  56 0002 03       		.byte	0x3
  57 0003 00       		.byte	0
  58              		.section	.text._ZN9SemaphoreD2Ev,"axG",@progbits,_ZN9SemaphoreD5Ev,comdat
  60              		.weak	_ZN9SemaphoreD1Ev
  61              		.set	_ZN9SemaphoreD1Ev,_ZN9SemaphoreD2Ev
  62              		.section	.text._ZN9SemaphoreD0Ev,"axG",@progbits,_ZN9SemaphoreD5Ev,comdat
  63              		.align	2
  64              		.weak	_ZN9SemaphoreD0Ev
  66              	_ZN9SemaphoreD0Ev:
  67              	.LFB14:
  68              		.loc 1 26 13 is_stmt 1
  69              		.cfi_startproc
  70              		.cfi_personality 0x9b,DW.ref.__gxx_personality_v0
  71              		.cfi_lsda 0x1b,.LLSDA14
  72              	.LVL3:
  73 0000 130101FE 		addi	sp,sp,-32
  74              		.cfi_def_cfa_offset 32
  75 0004 233C1100 		sd	ra,24(sp)
  76 0008 23388100 		sd	s0,16(sp)
  77 000c 23349100 		sd	s1,8(sp)
  78              		.cfi_offset 1, -8
  79              		.cfi_offset 8, -16
  80              		.cfi_offset 9, -24
  81 0010 13040102 		addi	s0,sp,32
  82              		.cfi_def_cfa 8, 0
  83 0014 93040500 		mv	s1,a0
  84              	.LVL4:
  85              	.LBB54:
  86              	.LBB55:
  87              		.loc 1 26 26 is_stmt 0
  88 0018 97070000 		lla	a5,_ZTV9Semaphore+16
  88      93870700 
GAS LISTING /tmp/ccwzPgQx.s 			page 3


  89 0020 2330F500 		sd	a5,0(a0)
  90              		.loc 1 26 28 is_stmt 1
  91              		.loc 1 26 37 is_stmt 0
  92 0024 03358500 		ld	a0,8(a0)
  93              	.LVL5:
  94 0028 97000000 		call	sem_close
  94      E7800000 
  95              	.LVL6:
  96              	.LBE55:
  97              	.LBE54:
  98              		.loc 1 26 49
  99 0030 13850400 		mv	a0,s1
 100              	.LEHB0:
 101 0034 97000000 		call	_ZdlPv
 101      E7800000 
 102              	.LVL7:
 103              	.LEHE0:
 104 003c 83308101 		ld	ra,24(sp)
 105              		.cfi_restore 1
 106 0040 03340101 		ld	s0,16(sp)
 107              		.cfi_restore 8
 108              		.cfi_def_cfa 2, 32
 109 0044 83348100 		ld	s1,8(sp)
 110              		.cfi_restore 9
 111              	.LVL8:
 112 0048 13010102 		addi	sp,sp,32
 113              		.cfi_def_cfa_offset 0
 114 004c 67800000 		jr	ra
 115              		.cfi_endproc
 116              	.LFE14:
 117              		.section	.gcc_except_table._ZN9SemaphoreD0Ev,"awG",@progbits,_ZN9SemaphoreD5Ev,comdat
 118              	.LLSDA14:
 119 0000 FF       		.byte	0xff
 120 0001 FF       		.byte	0xff
 121 0002 03       		.byte	0x3
 122 0003 0D       		.byte	0xd
 123 0004 00000000 		.4byte	.LEHB0-.LFB14
 124 0008 00000000 		.4byte	.LEHE0-.LEHB0
 125 000c 00000000 		.4byte	0
 126 0010 00       		.byte	0
 127              		.section	.text._ZN9SemaphoreD0Ev,"axG",@progbits,_ZN9SemaphoreD5Ev,comdat
 129              		.text
 130              		.align	2
 131              		.globl	_ZN9BufferCPPC2Ei
 133              	_ZN9BufferCPPC2Ei:
 134              	.LFB21:
 135              		.file 2 "test/buffer_CPP_API.cpp"
   1:test/buffer_CPP_API.cpp **** #include "buffer_CPP_API.hpp"
   2:test/buffer_CPP_API.cpp **** 
   3:test/buffer_CPP_API.cpp **** BufferCPP::BufferCPP(int _cap) : cap(_cap + 1), head(0), tail(0) {
 136              		.loc 2 3 1 is_stmt 1
 137              		.cfi_startproc
 138              		.cfi_personality 0x9b,DW.ref.__gxx_personality_v0
 139              		.cfi_lsda 0x1b,.LLSDA21
 140              	.LVL9:
 141 0000 130101FD 		addi	sp,sp,-48
 142              		.cfi_def_cfa_offset 48
GAS LISTING /tmp/ccwzPgQx.s 			page 4


 143 0004 23341102 		sd	ra,40(sp)
 144 0008 23308102 		sd	s0,32(sp)
 145 000c 233C9100 		sd	s1,24(sp)
 146 0010 23382101 		sd	s2,16(sp)
 147 0014 23343101 		sd	s3,8(sp)
 148              		.cfi_offset 1, -8
 149              		.cfi_offset 8, -16
 150              		.cfi_offset 9, -24
 151              		.cfi_offset 18, -32
 152              		.cfi_offset 19, -40
 153 0018 13040103 		addi	s0,sp,48
 154              		.cfi_def_cfa 8, 0
 155 001c 93040500 		mv	s1,a0
 156 0020 93890500 		mv	s3,a1
 157              	.LBB56:
 158              		.loc 2 3 43 is_stmt 0
 159 0024 9B871500 		addiw	a5,a1,1
 160 0028 1B850700 		sext.w	a0,a5
 161              	.LVL10:
 162              		.loc 2 3 64
 163 002c 23A0F400 		sw	a5,0(s1)
 164 0030 23A80400 		sw	zero,16(s1)
 165 0034 23AA0400 		sw	zero,20(s1)
   4:test/buffer_CPP_API.cpp ****     buffer = (int *)mem_alloc(sizeof(int) * cap);
 166              		.loc 2 4 5 is_stmt 1
 167              		.loc 2 4 30 is_stmt 0
 168 0038 13152500 		slli	a0,a0,2
 169              	.LEHB1:
 170 003c 97000000 		call	mem_alloc
 170      E7800000 
 171              	.LVL11:
 172              		.loc 2 4 12
 173 0044 23B4A400 		sd	a0,8(s1)
   5:test/buffer_CPP_API.cpp ****     itemAvailable = new Semaphore(0);
 174              		.loc 2 5 5 is_stmt 1
 175              		.loc 2 5 36 is_stmt 0
 176 0048 13050001 		li	a0,16
 177 004c 97000000 		call	_Znwm
 177      E7800000 
 178              	.LVL12:
 179              	.LEHE1:
 180 0054 13090500 		mv	s2,a0
 181              	.LVL13:
 182              	.LBB57:
 183              	.LBB58:
  25:test/../h/syscall_cpp.hpp ****     virtual ~Semaphore (){ sem_close(myHandle); }
 184              		.loc 1 25 35
 185 0058 97070000 		lla	a5,_ZTV9Semaphore+16
 185      93870700 
 186 0060 2330F500 		sd	a5,0(a0)
  25:test/../h/syscall_cpp.hpp ****     virtual ~Semaphore (){ sem_close(myHandle); }
 187              		.loc 1 25 37 is_stmt 1
  25:test/../h/syscall_cpp.hpp ****     virtual ~Semaphore (){ sem_close(myHandle); }
 188              		.loc 1 25 45 is_stmt 0
 189 0064 93050000 		li	a1,0
 190 0068 13058500 		addi	a0,a0,8
 191              	.LVL14:
GAS LISTING /tmp/ccwzPgQx.s 			page 5


 192              	.LEHB2:
 193 006c 97000000 		call	sem_open
 193      E7800000 
 194              	.LVL15:
 195              	.LEHE2:
 196              	.LBE58:
 197              	.LBE57:
 198              		.loc 2 5 19 discriminator 2
 199 0074 23B02403 		sd	s2,32(s1)
   6:test/buffer_CPP_API.cpp ****     spaceAvailable = new Semaphore(_cap);
 200              		.loc 2 6 5 is_stmt 1 discriminator 2
 201              		.loc 2 6 40 is_stmt 0 discriminator 2
 202 0078 13050001 		li	a0,16
 203              	.LEHB3:
 204 007c 97000000 		call	_Znwm
 204      E7800000 
 205              	.LVL16:
 206              	.LEHE3:
 207 0084 13090500 		mv	s2,a0
 208              	.LVL17:
 209              	.LBB59:
 210              	.LBB60:
  25:test/../h/syscall_cpp.hpp ****     virtual ~Semaphore (){ sem_close(myHandle); }
 211              		.loc 1 25 35 discriminator 2
 212 0088 97070000 		lla	a5,_ZTV9Semaphore+16
 212      93870700 
 213 0090 2330F500 		sd	a5,0(a0)
  25:test/../h/syscall_cpp.hpp ****     virtual ~Semaphore (){ sem_close(myHandle); }
 214              		.loc 1 25 37 is_stmt 1 discriminator 2
  25:test/../h/syscall_cpp.hpp ****     virtual ~Semaphore (){ sem_close(myHandle); }
 215              		.loc 1 25 45 is_stmt 0 discriminator 2
 216 0094 93850900 		mv	a1,s3
 217 0098 13058500 		addi	a0,a0,8
 218              	.LVL18:
 219              	.LEHB4:
 220 009c 97000000 		call	sem_open
 220      E7800000 
 221              	.LVL19:
 222              	.LEHE4:
 223              	.LBE60:
 224              	.LBE59:
 225              		.loc 2 6 20 discriminator 2
 226 00a4 23BC2401 		sd	s2,24(s1)
   7:test/buffer_CPP_API.cpp ****     mutexHead = new Semaphore(1);
 227              		.loc 2 7 5 is_stmt 1 discriminator 2
 228              		.loc 2 7 32 is_stmt 0 discriminator 2
 229 00a8 13050001 		li	a0,16
 230              	.LEHB5:
 231 00ac 97000000 		call	_Znwm
 231      E7800000 
 232              	.LVL20:
 233              	.LEHE5:
 234 00b4 13090500 		mv	s2,a0
 235              	.LVL21:
 236              	.LBB61:
 237              	.LBB62:
  25:test/../h/syscall_cpp.hpp ****     virtual ~Semaphore (){ sem_close(myHandle); }
GAS LISTING /tmp/ccwzPgQx.s 			page 6


 238              		.loc 1 25 35 discriminator 2
 239 00b8 97070000 		lla	a5,_ZTV9Semaphore+16
 239      93870700 
 240 00c0 2330F500 		sd	a5,0(a0)
  25:test/../h/syscall_cpp.hpp ****     virtual ~Semaphore (){ sem_close(myHandle); }
 241              		.loc 1 25 37 is_stmt 1 discriminator 2
  25:test/../h/syscall_cpp.hpp ****     virtual ~Semaphore (){ sem_close(myHandle); }
 242              		.loc 1 25 45 is_stmt 0 discriminator 2
 243 00c4 93051000 		li	a1,1
 244 00c8 13058500 		addi	a0,a0,8
 245              	.LVL22:
 246              	.LEHB6:
 247 00cc 97000000 		call	sem_open
 247      E7800000 
 248              	.LVL23:
 249              	.LEHE6:
 250              	.LBE62:
 251              	.LBE61:
 252              		.loc 2 7 15 discriminator 2
 253 00d4 23B42403 		sd	s2,40(s1)
   8:test/buffer_CPP_API.cpp ****     mutexTail = new Semaphore(1);
 254              		.loc 2 8 5 is_stmt 1 discriminator 2
 255              		.loc 2 8 32 is_stmt 0 discriminator 2
 256 00d8 13050001 		li	a0,16
 257              	.LEHB7:
 258 00dc 97000000 		call	_Znwm
 258      E7800000 
 259              	.LVL24:
 260              	.LEHE7:
 261 00e4 13090500 		mv	s2,a0
 262              	.LVL25:
 263              	.LBB63:
 264              	.LBB64:
  25:test/../h/syscall_cpp.hpp ****     virtual ~Semaphore (){ sem_close(myHandle); }
 265              		.loc 1 25 35 discriminator 2
 266 00e8 97070000 		lla	a5,_ZTV9Semaphore+16
 266      93870700 
 267 00f0 2330F500 		sd	a5,0(a0)
  25:test/../h/syscall_cpp.hpp ****     virtual ~Semaphore (){ sem_close(myHandle); }
 268              		.loc 1 25 37 is_stmt 1 discriminator 2
  25:test/../h/syscall_cpp.hpp ****     virtual ~Semaphore (){ sem_close(myHandle); }
 269              		.loc 1 25 45 is_stmt 0 discriminator 2
 270 00f4 93051000 		li	a1,1
 271 00f8 13058500 		addi	a0,a0,8
 272              	.LVL26:
 273              	.LEHB8:
 274 00fc 97000000 		call	sem_open
 274      E7800000 
 275              	.LVL27:
 276              	.LEHE8:
 277              	.LBE64:
 278              	.LBE63:
 279              		.loc 2 8 15 discriminator 2
 280 0104 23B82403 		sd	s2,48(s1)
 281              	.LBE56:
   9:test/buffer_CPP_API.cpp **** }
 282              		.loc 2 9 1 discriminator 2
GAS LISTING /tmp/ccwzPgQx.s 			page 7


 283 0108 83308102 		ld	ra,40(sp)
 284              		.cfi_remember_state
 285              		.cfi_restore 1
 286 010c 03340102 		ld	s0,32(sp)
 287              		.cfi_restore 8
 288              		.cfi_def_cfa 2, 48
 289 0110 83348101 		ld	s1,24(sp)
 290              		.cfi_restore 9
 291              	.LVL28:
 292 0114 03390101 		ld	s2,16(sp)
 293              		.cfi_restore 18
 294 0118 83398100 		ld	s3,8(sp)
 295              		.cfi_restore 19
 296 011c 13010103 		addi	sp,sp,48
 297              		.cfi_def_cfa_offset 0
 298 0120 67800000 		jr	ra
 299              	.LVL29:
 300              	.L10:
 301              		.cfi_restore_state
 302 0124 93040500 		mv	s1,a0
 303              	.LVL30:
 304              	.LBB65:
   5:test/buffer_CPP_API.cpp ****     spaceAvailable = new Semaphore(_cap);
 305              		.loc 2 5 36
 306 0128 13050900 		mv	a0,s2
 307 012c 97000000 		call	_ZdlPv
 307      E7800000 
 308              	.LVL31:
 309 0134 13850400 		mv	a0,s1
 310              	.LEHB9:
 311 0138 97000000 		call	_Unwind_Resume
 311      E7800000 
 312              	.LVL32:
 313              	.LEHE9:
 314              	.L11:
 315 0140 93040500 		mv	s1,a0
 316              	.LVL33:
   6:test/buffer_CPP_API.cpp ****     mutexHead = new Semaphore(1);
 317              		.loc 2 6 40
 318 0144 13050900 		mv	a0,s2
 319 0148 97000000 		call	_ZdlPv
 319      E7800000 
 320              	.LVL34:
 321 0150 13850400 		mv	a0,s1
 322              	.LEHB10:
 323 0154 97000000 		call	_Unwind_Resume
 323      E7800000 
 324              	.LVL35:
 325              	.LEHE10:
 326              	.L12:
 327 015c 93040500 		mv	s1,a0
 328              	.LVL36:
   7:test/buffer_CPP_API.cpp ****     mutexTail = new Semaphore(1);
 329              		.loc 2 7 32
 330 0160 13050900 		mv	a0,s2
 331 0164 97000000 		call	_ZdlPv
 331      E7800000 
GAS LISTING /tmp/ccwzPgQx.s 			page 8


 332              	.LVL37:
 333 016c 13850400 		mv	a0,s1
 334              	.LEHB11:
 335 0170 97000000 		call	_Unwind_Resume
 335      E7800000 
 336              	.LVL38:
 337              	.LEHE11:
 338              	.L13:
 339 0178 93040500 		mv	s1,a0
 340              	.LVL39:
   8:test/buffer_CPP_API.cpp **** }
 341              		.loc 2 8 32
 342 017c 13050900 		mv	a0,s2
 343 0180 97000000 		call	_ZdlPv
 343      E7800000 
 344              	.LVL40:
 345 0188 13850400 		mv	a0,s1
 346              	.LEHB12:
 347 018c 97000000 		call	_Unwind_Resume
 347      E7800000 
 348              	.LVL41:
 349              	.LEHE12:
 350              	.LBE65:
 351              		.cfi_endproc
 352              	.LFE21:
 353              		.section	.gcc_except_table,"aw",@progbits
 354              	.LLSDA21:
 355 0000 FF       		.byte	0xff
 356 0001 FF       		.byte	0xff
 357 0002 03       		.byte	0x3
 358 0003 9C01     		.byte	0x9c,0x1
 359 0005 00000000 		.4byte	.LEHB1-.LFB21
 360 0009 00000000 		.4byte	.LEHE1-.LEHB1
 361 000d 00000000 		.4byte	0
 362 0011 00       		.byte	0
 363 0012 00000000 		.4byte	.LEHB2-.LFB21
 364 0016 00000000 		.4byte	.LEHE2-.LEHB2
 365 001a 00000000 		.4byte	.L10-.LFB21
 366 001e 00       		.byte	0
 367 001f 00000000 		.4byte	.LEHB3-.LFB21
 368 0023 00000000 		.4byte	.LEHE3-.LEHB3
 369 0027 00000000 		.4byte	0
 370 002b 00       		.byte	0
 371 002c 00000000 		.4byte	.LEHB4-.LFB21
 372 0030 00000000 		.4byte	.LEHE4-.LEHB4
 373 0034 00000000 		.4byte	.L11-.LFB21
 374 0038 00       		.byte	0
 375 0039 00000000 		.4byte	.LEHB5-.LFB21
 376 003d 00000000 		.4byte	.LEHE5-.LEHB5
 377 0041 00000000 		.4byte	0
 378 0045 00       		.byte	0
 379 0046 00000000 		.4byte	.LEHB6-.LFB21
 380 004a 00000000 		.4byte	.LEHE6-.LEHB6
 381 004e 00000000 		.4byte	.L12-.LFB21
 382 0052 00       		.byte	0
 383 0053 00000000 		.4byte	.LEHB7-.LFB21
 384 0057 00000000 		.4byte	.LEHE7-.LEHB7
GAS LISTING /tmp/ccwzPgQx.s 			page 9


 385 005b 00000000 		.4byte	0
 386 005f 00       		.byte	0
 387 0060 00000000 		.4byte	.LEHB8-.LFB21
 388 0064 00000000 		.4byte	.LEHE8-.LEHB8
 389 0068 00000000 		.4byte	.L13-.LFB21
 390 006c 00       		.byte	0
 391 006d 00000000 		.4byte	.LEHB9-.LFB21
 392 0071 00000000 		.4byte	.LEHE9-.LEHB9
 393 0075 00000000 		.4byte	0
 394 0079 00       		.byte	0
 395 007a 00000000 		.4byte	.LEHB10-.LFB21
 396 007e 00000000 		.4byte	.LEHE10-.LEHB10
 397 0082 00000000 		.4byte	0
 398 0086 00       		.byte	0
 399 0087 00000000 		.4byte	.LEHB11-.LFB21
 400 008b 00000000 		.4byte	.LEHE11-.LEHB11
 401 008f 00000000 		.4byte	0
 402 0093 00       		.byte	0
 403 0094 00000000 		.4byte	.LEHB12-.LFB21
 404 0098 00000000 		.4byte	.LEHE12-.LEHB12
 405 009c 00000000 		.4byte	0
 406 00a0 00       		.byte	0
 407              		.text
 409              		.globl	_ZN9BufferCPPC1Ei
 410              		.set	_ZN9BufferCPPC1Ei,_ZN9BufferCPPC2Ei
 411              		.align	2
 412              		.globl	_ZN9BufferCPP3putEi
 414              	_ZN9BufferCPP3putEi:
 415              	.LFB26:
  10:test/buffer_CPP_API.cpp **** 
  11:test/buffer_CPP_API.cpp **** BufferCPP::~BufferCPP() {
  12:test/buffer_CPP_API.cpp ****     Console::putc('\n');
  13:test/buffer_CPP_API.cpp ****     printString("Buffer deleted!\n");
  14:test/buffer_CPP_API.cpp ****     while (getCnt()) {
  15:test/buffer_CPP_API.cpp ****         char ch = buffer[head];
  16:test/buffer_CPP_API.cpp ****         Console::putc(ch);
  17:test/buffer_CPP_API.cpp ****         head = (head + 1) % cap;
  18:test/buffer_CPP_API.cpp ****     }
  19:test/buffer_CPP_API.cpp ****     Console::putc('!');
  20:test/buffer_CPP_API.cpp ****     Console::putc('\n');
  21:test/buffer_CPP_API.cpp **** 
  22:test/buffer_CPP_API.cpp ****     mem_free(buffer);
  23:test/buffer_CPP_API.cpp ****     delete itemAvailable;
  24:test/buffer_CPP_API.cpp ****     delete spaceAvailable;
  25:test/buffer_CPP_API.cpp ****     delete mutexTail;
  26:test/buffer_CPP_API.cpp ****     delete mutexHead;
  27:test/buffer_CPP_API.cpp **** 
  28:test/buffer_CPP_API.cpp **** }
  29:test/buffer_CPP_API.cpp **** 
  30:test/buffer_CPP_API.cpp **** void BufferCPP::put(int val) {
 416              		.loc 2 30 30 is_stmt 1
 417              		.cfi_startproc
 418              	.LVL42:
 419 0194 130101FE 		addi	sp,sp,-32
 420              		.cfi_def_cfa_offset 32
 421 0198 233C1100 		sd	ra,24(sp)
 422 019c 23388100 		sd	s0,16(sp)
GAS LISTING /tmp/ccwzPgQx.s 			page 10


 423 01a0 23349100 		sd	s1,8(sp)
 424 01a4 23302101 		sd	s2,0(sp)
 425              		.cfi_offset 1, -8
 426              		.cfi_offset 8, -16
 427              		.cfi_offset 9, -24
 428              		.cfi_offset 18, -32
 429 01a8 13040102 		addi	s0,sp,32
 430              		.cfi_def_cfa 8, 0
 431 01ac 93040500 		mv	s1,a0
 432 01b0 13890500 		mv	s2,a1
  31:test/buffer_CPP_API.cpp ****     spaceAvailable->wait();
 433              		.loc 2 31 5
 434 01b4 83378501 		ld	a5,24(a0)
 435              	.LVL43:
 436              	.LBB66:
 437              	.LBB67:
  27:test/../h/syscall_cpp.hpp ****     void wait (){ sem_wait(myHandle); }
 438              		.loc 1 27 19
 439              		.loc 1 27 27 is_stmt 0
 440 01b8 03B58700 		ld	a0,8(a5)
 441              	.LVL44:
 442 01bc 97000000 		call	sem_wait
 442      E7800000 
 443              	.LVL45:
 444              	.LBE67:
 445              	.LBE66:
  32:test/buffer_CPP_API.cpp **** 
  33:test/buffer_CPP_API.cpp ****     mutexTail->wait();
 446              		.loc 2 33 5 is_stmt 1
 447 01c4 83B70403 		ld	a5,48(s1)
 448              	.LVL46:
 449              	.LBB68:
 450              	.LBB69:
 451              		.loc 1 27 19
 452              		.loc 1 27 27 is_stmt 0
 453 01c8 03B58700 		ld	a0,8(a5)
 454 01cc 97000000 		call	sem_wait
 454      E7800000 
 455              	.LVL47:
 456              	.LBE69:
 457              	.LBE68:
  34:test/buffer_CPP_API.cpp ****     buffer[tail] = val;
 458              		.loc 2 34 5 is_stmt 1
 459 01d4 83B78400 		ld	a5,8(s1)
 460              		.loc 2 34 12 is_stmt 0
 461 01d8 03A74401 		lw	a4,20(s1)
 462              		.loc 2 34 16
 463 01dc 13172700 		slli	a4,a4,2
 464 01e0 B387E700 		add	a5,a5,a4
 465              		.loc 2 34 18
 466 01e4 23A02701 		sw	s2,0(a5)
  35:test/buffer_CPP_API.cpp ****     tail = (tail + 1) % cap;
 467              		.loc 2 35 5 is_stmt 1
 468              		.loc 2 35 13 is_stmt 0
 469 01e8 83A74401 		lw	a5,20(s1)
 470              		.loc 2 35 18
 471 01ec 9B871700 		addiw	a5,a5,1
GAS LISTING /tmp/ccwzPgQx.s 			page 11


 472              		.loc 2 35 25
 473 01f0 03A70400 		lw	a4,0(s1)
 474              		.loc 2 35 23
 475 01f4 BBE7E702 		remw	a5,a5,a4
 476              		.loc 2 35 10
 477 01f8 23AAF400 		sw	a5,20(s1)
  36:test/buffer_CPP_API.cpp ****     mutexTail->signal();
 478              		.loc 2 36 5 is_stmt 1
 479 01fc 83B70403 		ld	a5,48(s1)
 480              	.LVL48:
 481              	.LBB70:
 482              	.LBB71:
  28:test/../h/syscall_cpp.hpp ****     void signal (){ sem_signal(myHandle); }
 483              		.loc 1 28 21
 484              		.loc 1 28 31 is_stmt 0
 485 0200 03B58700 		ld	a0,8(a5)
 486 0204 97000000 		call	sem_signal
 486      E7800000 
 487              	.LVL49:
 488              	.LBE71:
 489              	.LBE70:
  37:test/buffer_CPP_API.cpp **** 
  38:test/buffer_CPP_API.cpp ****     itemAvailable->signal();
 490              		.loc 2 38 5 is_stmt 1
 491 020c 83B70402 		ld	a5,32(s1)
 492              	.LVL50:
 493              	.LBB72:
 494              	.LBB73:
 495              		.loc 1 28 21
 496              		.loc 1 28 31 is_stmt 0
 497 0210 03B58700 		ld	a0,8(a5)
 498 0214 97000000 		call	sem_signal
 498      E7800000 
 499              	.LVL51:
 500              	.LBE73:
 501              	.LBE72:
  39:test/buffer_CPP_API.cpp **** 
  40:test/buffer_CPP_API.cpp **** }
 502              		.loc 2 40 1
 503 021c 83308101 		ld	ra,24(sp)
 504              		.cfi_restore 1
 505 0220 03340101 		ld	s0,16(sp)
 506              		.cfi_restore 8
 507              		.cfi_def_cfa 2, 32
 508 0224 83348100 		ld	s1,8(sp)
 509              		.cfi_restore 9
 510              	.LVL52:
 511 0228 03390100 		ld	s2,0(sp)
 512              		.cfi_restore 18
 513 022c 13010102 		addi	sp,sp,32
 514              		.cfi_def_cfa_offset 0
 515 0230 67800000 		jr	ra
 516              		.cfi_endproc
 517              	.LFE26:
 519              		.align	2
 520              		.globl	_ZN9BufferCPP3getEv
 522              	_ZN9BufferCPP3getEv:
GAS LISTING /tmp/ccwzPgQx.s 			page 12


 523              	.LFB27:
  41:test/buffer_CPP_API.cpp **** 
  42:test/buffer_CPP_API.cpp **** int BufferCPP::get() {
 524              		.loc 2 42 22 is_stmt 1
 525              		.cfi_startproc
 526              	.LVL53:
 527 0234 130101FE 		addi	sp,sp,-32
 528              		.cfi_def_cfa_offset 32
 529 0238 233C1100 		sd	ra,24(sp)
 530 023c 23388100 		sd	s0,16(sp)
 531 0240 23349100 		sd	s1,8(sp)
 532 0244 23302101 		sd	s2,0(sp)
 533              		.cfi_offset 1, -8
 534              		.cfi_offset 8, -16
 535              		.cfi_offset 9, -24
 536              		.cfi_offset 18, -32
 537 0248 13040102 		addi	s0,sp,32
 538              		.cfi_def_cfa 8, 0
 539 024c 93040500 		mv	s1,a0
  43:test/buffer_CPP_API.cpp ****     itemAvailable->wait();
 540              		.loc 2 43 5
 541 0250 83370502 		ld	a5,32(a0)
 542              	.LVL54:
 543              	.LBB74:
 544              	.LBB75:
  27:test/../h/syscall_cpp.hpp ****     void signal (){ sem_signal(myHandle); }
 545              		.loc 1 27 19
  27:test/../h/syscall_cpp.hpp ****     void signal (){ sem_signal(myHandle); }
 546              		.loc 1 27 27 is_stmt 0
 547 0254 03B58700 		ld	a0,8(a5)
 548              	.LVL55:
 549 0258 97000000 		call	sem_wait
 549      E7800000 
 550              	.LVL56:
 551              	.LBE75:
 552              	.LBE74:
  44:test/buffer_CPP_API.cpp **** 
  45:test/buffer_CPP_API.cpp ****     mutexHead->wait();
 553              		.loc 2 45 5 is_stmt 1
 554 0260 83B78402 		ld	a5,40(s1)
 555              	.LVL57:
 556              	.LBB76:
 557              	.LBB77:
  27:test/../h/syscall_cpp.hpp ****     void signal (){ sem_signal(myHandle); }
 558              		.loc 1 27 19
  27:test/../h/syscall_cpp.hpp ****     void signal (){ sem_signal(myHandle); }
 559              		.loc 1 27 27 is_stmt 0
 560 0264 03B58700 		ld	a0,8(a5)
 561 0268 97000000 		call	sem_wait
 561      E7800000 
 562              	.LVL58:
 563              	.LBE77:
 564              	.LBE76:
  46:test/buffer_CPP_API.cpp **** 
  47:test/buffer_CPP_API.cpp ****     int ret = buffer[head];
 565              		.loc 2 47 5 is_stmt 1
 566              		.loc 2 47 15 is_stmt 0
GAS LISTING /tmp/ccwzPgQx.s 			page 13


 567 0270 03B78400 		ld	a4,8(s1)
 568              		.loc 2 47 22
 569 0274 83A70401 		lw	a5,16(s1)
 570              		.loc 2 47 26
 571 0278 93962700 		slli	a3,a5,2
 572 027c 3307D700 		add	a4,a4,a3
 573              		.loc 2 47 9
 574 0280 03290700 		lw	s2,0(a4)
 575              	.LVL59:
  48:test/buffer_CPP_API.cpp ****     head = (head + 1) % cap;
 576              		.loc 2 48 5 is_stmt 1
 577              		.loc 2 48 18 is_stmt 0
 578 0284 9B871700 		addiw	a5,a5,1
 579              		.loc 2 48 25
 580 0288 03A70400 		lw	a4,0(s1)
 581              		.loc 2 48 23
 582 028c BBE7E702 		remw	a5,a5,a4
 583              		.loc 2 48 10
 584 0290 23A8F400 		sw	a5,16(s1)
  49:test/buffer_CPP_API.cpp ****     mutexHead->signal();
 585              		.loc 2 49 5 is_stmt 1
 586 0294 83B78402 		ld	a5,40(s1)
 587              	.LVL60:
 588              	.LBB78:
 589              	.LBB79:
 590              		.loc 1 28 21
 591              		.loc 1 28 31 is_stmt 0
 592 0298 03B58700 		ld	a0,8(a5)
 593 029c 97000000 		call	sem_signal
 593      E7800000 
 594              	.LVL61:
 595              	.LBE79:
 596              	.LBE78:
  50:test/buffer_CPP_API.cpp **** 
  51:test/buffer_CPP_API.cpp ****     spaceAvailable->signal();
 597              		.loc 2 51 5 is_stmt 1
 598 02a4 83B78401 		ld	a5,24(s1)
 599              	.LVL62:
 600              	.LBB80:
 601              	.LBB81:
 602              		.loc 1 28 21
 603              		.loc 1 28 31 is_stmt 0
 604 02a8 03B58700 		ld	a0,8(a5)
 605 02ac 97000000 		call	sem_signal
 605      E7800000 
 606              	.LVL63:
 607              	.LBE81:
 608              	.LBE80:
  52:test/buffer_CPP_API.cpp **** 
  53:test/buffer_CPP_API.cpp ****     return ret;
 609              		.loc 2 53 5 is_stmt 1
  54:test/buffer_CPP_API.cpp **** }
 610              		.loc 2 54 1 is_stmt 0
 611 02b4 13050900 		mv	a0,s2
 612 02b8 83308101 		ld	ra,24(sp)
 613              		.cfi_restore 1
 614 02bc 03340101 		ld	s0,16(sp)
GAS LISTING /tmp/ccwzPgQx.s 			page 14


 615              		.cfi_restore 8
 616              		.cfi_def_cfa 2, 32
 617 02c0 83348100 		ld	s1,8(sp)
 618              		.cfi_restore 9
 619              	.LVL64:
 620 02c4 03390100 		ld	s2,0(sp)
 621              		.cfi_restore 18
 622              	.LVL65:
 623 02c8 13010102 		addi	sp,sp,32
 624              		.cfi_def_cfa_offset 0
 625 02cc 67800000 		jr	ra
 626              		.cfi_endproc
 627              	.LFE27:
 629              		.align	2
 630              		.globl	_ZN9BufferCPP6getCntEv
 632              	_ZN9BufferCPP6getCntEv:
 633              	.LFB28:
  55:test/buffer_CPP_API.cpp **** 
  56:test/buffer_CPP_API.cpp **** int BufferCPP::getCnt() {
 634              		.loc 2 56 25 is_stmt 1
 635              		.cfi_startproc
 636              	.LVL66:
 637 02d0 130101FE 		addi	sp,sp,-32
 638              		.cfi_def_cfa_offset 32
 639 02d4 233C1100 		sd	ra,24(sp)
 640 02d8 23388100 		sd	s0,16(sp)
 641 02dc 23349100 		sd	s1,8(sp)
 642 02e0 23302101 		sd	s2,0(sp)
 643              		.cfi_offset 1, -8
 644              		.cfi_offset 8, -16
 645              		.cfi_offset 9, -24
 646              		.cfi_offset 18, -32
 647 02e4 13040102 		addi	s0,sp,32
 648              		.cfi_def_cfa 8, 0
 649 02e8 93040500 		mv	s1,a0
  57:test/buffer_CPP_API.cpp ****     int ret;
 650              		.loc 2 57 5
  58:test/buffer_CPP_API.cpp **** 
  59:test/buffer_CPP_API.cpp ****     mutexHead->wait();
 651              		.loc 2 59 5
 652 02ec 83378502 		ld	a5,40(a0)
 653              	.LVL67:
 654              	.LBB82:
 655              	.LBB83:
  27:test/../h/syscall_cpp.hpp ****     void signal (){ sem_signal(myHandle); }
 656              		.loc 1 27 19
  27:test/../h/syscall_cpp.hpp ****     void signal (){ sem_signal(myHandle); }
 657              		.loc 1 27 27 is_stmt 0
 658 02f0 03B58700 		ld	a0,8(a5)
 659              	.LVL68:
 660 02f4 97000000 		call	sem_wait
 660      E7800000 
 661              	.LVL69:
 662              	.LBE83:
 663              	.LBE82:
  60:test/buffer_CPP_API.cpp ****     mutexTail->wait();
 664              		.loc 2 60 5 is_stmt 1
GAS LISTING /tmp/ccwzPgQx.s 			page 15


 665 02fc 83B70403 		ld	a5,48(s1)
 666              	.LVL70:
 667              	.LBB84:
 668              	.LBB85:
  27:test/../h/syscall_cpp.hpp ****     void signal (){ sem_signal(myHandle); }
 669              		.loc 1 27 19
  27:test/../h/syscall_cpp.hpp ****     void signal (){ sem_signal(myHandle); }
 670              		.loc 1 27 27 is_stmt 0
 671 0300 03B58700 		ld	a0,8(a5)
 672 0304 97000000 		call	sem_wait
 672      E7800000 
 673              	.LVL71:
 674              	.LBE85:
 675              	.LBE84:
  61:test/buffer_CPP_API.cpp **** 
  62:test/buffer_CPP_API.cpp ****     if (tail >= head) {
 676              		.loc 2 62 5 is_stmt 1
 677              		.loc 2 62 9 is_stmt 0
 678 030c 83A74401 		lw	a5,20(s1)
 679              		.loc 2 62 17
 680 0310 03A90401 		lw	s2,16(s1)
 681              		.loc 2 62 5
 682 0314 63C22705 		blt	a5,s2,.L21
  63:test/buffer_CPP_API.cpp ****         ret = tail - head;
 683              		.loc 2 63 9 is_stmt 1
 684              		.loc 2 63 13 is_stmt 0
 685 0318 3B892741 		subw	s2,a5,s2
 686              	.LVL72:
 687              	.L22:
  64:test/buffer_CPP_API.cpp ****     } else {
  65:test/buffer_CPP_API.cpp ****         ret = cap - head + tail;
  66:test/buffer_CPP_API.cpp ****     }
  67:test/buffer_CPP_API.cpp **** 
  68:test/buffer_CPP_API.cpp ****     mutexTail->signal();
 688              		.loc 2 68 5 is_stmt 1
 689 031c 83B70403 		ld	a5,48(s1)
 690              	.LVL73:
 691              	.LBB86:
 692              	.LBB87:
 693              		.loc 1 28 21
 694              		.loc 1 28 31 is_stmt 0
 695 0320 03B58700 		ld	a0,8(a5)
 696 0324 97000000 		call	sem_signal
 696      E7800000 
 697              	.LVL74:
 698              	.LBE87:
 699              	.LBE86:
  69:test/buffer_CPP_API.cpp ****     mutexHead->signal();
 700              		.loc 2 69 5 is_stmt 1
 701 032c 83B78402 		ld	a5,40(s1)
 702              	.LVL75:
 703              	.LBB88:
 704              	.LBB89:
 705              		.loc 1 28 21
 706              		.loc 1 28 31 is_stmt 0
 707 0330 03B58700 		ld	a0,8(a5)
 708 0334 97000000 		call	sem_signal
GAS LISTING /tmp/ccwzPgQx.s 			page 16


 708      E7800000 
 709              	.LVL76:
 710              	.LBE89:
 711              	.LBE88:
  70:test/buffer_CPP_API.cpp **** 
  71:test/buffer_CPP_API.cpp ****     return ret;
 712              		.loc 2 71 5 is_stmt 1
  72:test/buffer_CPP_API.cpp **** }
 713              		.loc 2 72 1 is_stmt 0
 714 033c 13050900 		mv	a0,s2
 715 0340 83308101 		ld	ra,24(sp)
 716              		.cfi_remember_state
 717              		.cfi_restore 1
 718 0344 03340101 		ld	s0,16(sp)
 719              		.cfi_restore 8
 720              		.cfi_def_cfa 2, 32
 721 0348 83348100 		ld	s1,8(sp)
 722              		.cfi_restore 9
 723              	.LVL77:
 724 034c 03390100 		ld	s2,0(sp)
 725              		.cfi_restore 18
 726              	.LVL78:
 727 0350 13010102 		addi	sp,sp,32
 728              		.cfi_def_cfa_offset 0
 729 0354 67800000 		jr	ra
 730              	.LVL79:
 731              	.L21:
 732              		.cfi_restore_state
  65:test/buffer_CPP_API.cpp ****     }
 733              		.loc 2 65 9 is_stmt 1
  65:test/buffer_CPP_API.cpp ****     }
 734              		.loc 2 65 15 is_stmt 0
 735 0358 03A70400 		lw	a4,0(s1)
  65:test/buffer_CPP_API.cpp ****     }
 736              		.loc 2 65 19
 737 035c 3B092741 		subw	s2,a4,s2
  65:test/buffer_CPP_API.cpp ****     }
 738              		.loc 2 65 13
 739 0360 3B09F900 		addw	s2,s2,a5
 740 0364 6FF09FFB 		j	.L22
 741              		.cfi_endproc
 742              	.LFE28:
 744              		.align	2
 745              		.globl	_ZN9BufferCPPD2Ev
 747              	_ZN9BufferCPPD2Ev:
 748              	.LFB24:
  11:test/buffer_CPP_API.cpp ****     Console::putc('\n');
 749              		.loc 2 11 1 is_stmt 1
 750              		.cfi_startproc
 751              		.cfi_personality 0x9b,DW.ref.__gxx_personality_v0
 752              		.cfi_lsda 0x1b,.LLSDA24
 753              	.LVL80:
 754 0368 130101FE 		addi	sp,sp,-32
 755              		.cfi_def_cfa_offset 32
 756 036c 233C1100 		sd	ra,24(sp)
 757 0370 23388100 		sd	s0,16(sp)
 758 0374 23349100 		sd	s1,8(sp)
GAS LISTING /tmp/ccwzPgQx.s 			page 17


 759              		.cfi_offset 1, -8
 760              		.cfi_offset 8, -16
 761              		.cfi_offset 9, -24
 762 0378 13040102 		addi	s0,sp,32
 763              		.cfi_def_cfa 8, 0
 764 037c 93040500 		mv	s1,a0
 765              	.LBB90:
  12:test/buffer_CPP_API.cpp ****     printString("Buffer deleted!\n");
 766              		.loc 2 12 5
 767              	.LVL81:
 768              	.LBB91:
 769              	.LBB92:
  29:test/../h/syscall_cpp.hpp **** private:
  30:test/../h/syscall_cpp.hpp ****     sem_t myHandle;
  31:test/../h/syscall_cpp.hpp **** };
  32:test/../h/syscall_cpp.hpp **** 
  33:test/../h/syscall_cpp.hpp **** class PeriodicThread : public Thread {
  34:test/../h/syscall_cpp.hpp **** protected:
  35:test/../h/syscall_cpp.hpp ****     PeriodicThread (time_t period);
  36:test/../h/syscall_cpp.hpp ****     virtual void periodicActivation () {}
  37:test/../h/syscall_cpp.hpp **** private:
  38:test/../h/syscall_cpp.hpp ****     static void periodicWrapper(void*);
  39:test/../h/syscall_cpp.hpp **** };
  40:test/../h/syscall_cpp.hpp **** 
  41:test/../h/syscall_cpp.hpp **** class Console {
  42:test/../h/syscall_cpp.hpp **** public:
  43:test/../h/syscall_cpp.hpp ****     static char getc (){ return ::getc(); }
  44:test/../h/syscall_cpp.hpp ****     static void putc (char c){ ::putc(c); }
 770              		.loc 1 44 32
 771              		.loc 1 44 38 is_stmt 0
 772 0380 1305A000 		li	a0,10
 773              	.LVL82:
 774 0384 97000000 		call	putc
 774      E7800000 
 775              	.LVL83:
 776              	.LBE92:
 777              	.LBE91:
  13:test/buffer_CPP_API.cpp ****     while (getCnt()) {
 778              		.loc 2 13 5 is_stmt 1
  13:test/buffer_CPP_API.cpp ****     while (getCnt()) {
 779              		.loc 2 13 16 is_stmt 0
 780 038c 17050000 		lla	a0,.LC0
 780      13050500 
 781 0394 97000000 		call	_Z11printStringPKc
 781      E7800000 
 782              	.LVL84:
 783              	.L26:
  14:test/buffer_CPP_API.cpp ****         char ch = buffer[head];
 784              		.loc 2 14 5 is_stmt 1
  14:test/buffer_CPP_API.cpp ****         char ch = buffer[head];
 785              		.loc 2 14 18 is_stmt 0
 786 039c 13850400 		mv	a0,s1
 787 03a0 97000000 		call	_ZN9BufferCPP6getCntEv
 787      E7800000 
 788              	.LVL85:
  14:test/buffer_CPP_API.cpp ****         char ch = buffer[head];
 789              		.loc 2 14 19
GAS LISTING /tmp/ccwzPgQx.s 			page 18


 790 03a8 630C0502 		beq	a0,zero,.L25
 791              	.LBB93:
  15:test/buffer_CPP_API.cpp ****         Console::putc(ch);
 792              		.loc 2 15 9 is_stmt 1
  15:test/buffer_CPP_API.cpp ****         Console::putc(ch);
 793              		.loc 2 15 19 is_stmt 0
 794 03ac 83B78400 		ld	a5,8(s1)
  15:test/buffer_CPP_API.cpp ****         Console::putc(ch);
 795              		.loc 2 15 26
 796 03b0 03A70401 		lw	a4,16(s1)
  15:test/buffer_CPP_API.cpp ****         Console::putc(ch);
 797              		.loc 2 15 30
 798 03b4 13172700 		slli	a4,a4,2
 799 03b8 B387E700 		add	a5,a5,a4
 800              	.LVL86:
  16:test/buffer_CPP_API.cpp ****         head = (head + 1) % cap;
 801              		.loc 2 16 9 is_stmt 1
 802              	.LBB94:
 803              	.LBB95:
 804              		.loc 1 44 32
 805              		.loc 1 44 38 is_stmt 0
 806 03bc 03C50700 		lbu	a0,0(a5)
 807 03c0 97000000 		call	putc
 807      E7800000 
 808              	.LVL87:
 809              	.LBE95:
 810              	.LBE94:
  17:test/buffer_CPP_API.cpp ****     }
 811              		.loc 2 17 9 is_stmt 1
  17:test/buffer_CPP_API.cpp ****     }
 812              		.loc 2 17 17 is_stmt 0
 813 03c8 83A70401 		lw	a5,16(s1)
  17:test/buffer_CPP_API.cpp ****     }
 814              		.loc 2 17 22
 815 03cc 9B871700 		addiw	a5,a5,1
  17:test/buffer_CPP_API.cpp ****     }
 816              		.loc 2 17 29
 817 03d0 03A70400 		lw	a4,0(s1)
  17:test/buffer_CPP_API.cpp ****     }
 818              		.loc 2 17 27
 819 03d4 BBE7E702 		remw	a5,a5,a4
  17:test/buffer_CPP_API.cpp ****     }
 820              		.loc 2 17 14
 821 03d8 23A8F400 		sw	a5,16(s1)
 822              	.LBE93:
  14:test/buffer_CPP_API.cpp ****         char ch = buffer[head];
 823              		.loc 2 14 5
 824 03dc 6FF01FFC 		j	.L26
 825              	.L25:
  19:test/buffer_CPP_API.cpp ****     Console::putc('\n');
 826              		.loc 2 19 5 is_stmt 1
 827              	.LVL88:
 828              	.LBB96:
 829              	.LBB97:
 830              		.loc 1 44 32
 831              		.loc 1 44 38 is_stmt 0
 832 03e0 13051002 		li	a0,33
GAS LISTING /tmp/ccwzPgQx.s 			page 19


 833 03e4 97000000 		call	putc
 833      E7800000 
 834              	.LVL89:
 835              	.LBE97:
 836              	.LBE96:
  20:test/buffer_CPP_API.cpp **** 
 837              		.loc 2 20 5 is_stmt 1
 838              	.LBB98:
 839              	.LBB99:
 840              		.loc 1 44 32
 841              		.loc 1 44 38 is_stmt 0
 842 03ec 1305A000 		li	a0,10
 843 03f0 97000000 		call	putc
 843      E7800000 
 844              	.LVL90:
 845              	.LBE99:
 846              	.LBE98:
  22:test/buffer_CPP_API.cpp ****     delete itemAvailable;
 847              		.loc 2 22 5 is_stmt 1
  22:test/buffer_CPP_API.cpp ****     delete itemAvailable;
 848              		.loc 2 22 13 is_stmt 0
 849 03f8 03B58400 		ld	a0,8(s1)
 850 03fc 97000000 		call	mem_free
 850      E7800000 
 851              	.LVL91:
  23:test/buffer_CPP_API.cpp ****     delete spaceAvailable;
 852              		.loc 2 23 5 is_stmt 1
  23:test/buffer_CPP_API.cpp ****     delete spaceAvailable;
 853              		.loc 2 23 12 is_stmt 0
 854 0404 03B50402 		ld	a0,32(s1)
  23:test/buffer_CPP_API.cpp ****     delete spaceAvailable;
 855              		.loc 2 23 25
 856 0408 63080500 		beq	a0,zero,.L27
  23:test/buffer_CPP_API.cpp ****     delete spaceAvailable;
 857              		.loc 2 23 12 discriminator 1
 858 040c 83370500 		ld	a5,0(a0)
 859 0410 83B78700 		ld	a5,8(a5)
 860 0414 E7800700 		jalr	a5
 861              	.LVL92:
 862              	.L27:
  24:test/buffer_CPP_API.cpp ****     delete mutexTail;
 863              		.loc 2 24 5 is_stmt 1
  24:test/buffer_CPP_API.cpp ****     delete mutexTail;
 864              		.loc 2 24 12 is_stmt 0
 865 0418 03B58401 		ld	a0,24(s1)
  24:test/buffer_CPP_API.cpp ****     delete mutexTail;
 866              		.loc 2 24 26
 867 041c 63080500 		beq	a0,zero,.L28
  24:test/buffer_CPP_API.cpp ****     delete mutexTail;
 868              		.loc 2 24 12 discriminator 1
 869 0420 83370500 		ld	a5,0(a0)
 870 0424 83B78700 		ld	a5,8(a5)
 871 0428 E7800700 		jalr	a5
 872              	.LVL93:
 873              	.L28:
  25:test/buffer_CPP_API.cpp ****     delete mutexHead;
 874              		.loc 2 25 5 is_stmt 1
GAS LISTING /tmp/ccwzPgQx.s 			page 20


  25:test/buffer_CPP_API.cpp ****     delete mutexHead;
 875              		.loc 2 25 12 is_stmt 0
 876 042c 03B50403 		ld	a0,48(s1)
  25:test/buffer_CPP_API.cpp ****     delete mutexHead;
 877              		.loc 2 25 21
 878 0430 63080500 		beq	a0,zero,.L29
  25:test/buffer_CPP_API.cpp ****     delete mutexHead;
 879              		.loc 2 25 12 discriminator 1
 880 0434 83370500 		ld	a5,0(a0)
 881 0438 83B78700 		ld	a5,8(a5)
 882 043c E7800700 		jalr	a5
 883              	.LVL94:
 884              	.L29:
  26:test/buffer_CPP_API.cpp **** 
 885              		.loc 2 26 5 is_stmt 1
  26:test/buffer_CPP_API.cpp **** 
 886              		.loc 2 26 12 is_stmt 0
 887 0440 03B58402 		ld	a0,40(s1)
  26:test/buffer_CPP_API.cpp **** 
 888              		.loc 2 26 21
 889 0444 63080500 		beq	a0,zero,.L24
  26:test/buffer_CPP_API.cpp **** 
 890              		.loc 2 26 12 discriminator 1
 891 0448 83370500 		ld	a5,0(a0)
 892 044c 83B78700 		ld	a5,8(a5)
 893 0450 E7800700 		jalr	a5
 894              	.LVL95:
 895              	.L24:
 896              	.LBE90:
  28:test/buffer_CPP_API.cpp **** 
 897              		.loc 2 28 1
 898 0454 83308101 		ld	ra,24(sp)
 899              		.cfi_restore 1
 900 0458 03340101 		ld	s0,16(sp)
 901              		.cfi_restore 8
 902              		.cfi_def_cfa 2, 32
 903 045c 83348100 		ld	s1,8(sp)
 904              		.cfi_restore 9
 905              	.LVL96:
 906 0460 13010102 		addi	sp,sp,32
 907              		.cfi_def_cfa_offset 0
 908 0464 67800000 		jr	ra
 909              		.cfi_endproc
 910              	.LFE24:
 911              		.section	.gcc_except_table
 912              	.LLSDA24:
 913 00a1 FF       		.byte	0xff
 914 00a2 FF       		.byte	0xff
 915 00a3 03       		.byte	0x3
 916 00a4 00       		.byte	0
 917              		.text
 919              		.globl	_ZN9BufferCPPD1Ev
 920              		.set	_ZN9BufferCPPD1Ev,_ZN9BufferCPPD2Ev
 921              		.weak	_ZTV9Semaphore
 922              		.section	.rodata._ZTV9Semaphore,"aG",@progbits,_ZTV9Semaphore,comdat
 923              		.align	3
 926              	_ZTV9Semaphore:
GAS LISTING /tmp/ccwzPgQx.s 			page 21


 927 0000 00000000 		.dword	0
 927      00000000 
 928 0008 00000000 		.dword	0
 928      00000000 
 929 0010 00000000 		.dword	_ZN9SemaphoreD1Ev
 929      00000000 
 930 0018 00000000 		.dword	_ZN9SemaphoreD0Ev
 930      00000000 
 931              		.section	.rodata.str1.8,"aMS",@progbits,1
 932              		.align	3
 933              	.LC0:
 934 0000 42756666 		.string	"Buffer deleted!\n"
 934      65722064 
 934      656C6574 
 934      6564210A 
 934      00
 935              		.text
 936              	.Letext0:
 937              		.file 3 "test/../h/../lib/hw.h"
 938              		.file 4 "test/../h/../h/_semaphore.h"
 939              		.file 5 "test/../h/syscall_c.h"
 940              		.file 6 "test/buffer_CPP_API.hpp"
 941              		.file 7 "test/printing.hpp"
 3772              		.align	3
 3775              	DW.ref.__gxx_personality_v0:
 3776 0000 00000000 		.dword	__gxx_personality_v0
 3776      00000000 
 3777              		.ident	"GCC: () 8.3.0"
GAS LISTING /tmp/ccwzPgQx.s 			page 22


DEFINED SYMBOLS
                            *ABS*:0000000000000000 buffer_CPP_API.cpp
     /tmp/ccwzPgQx.s:13     .text._ZN9SemaphoreD2Ev:0000000000000000 _ZN9SemaphoreD2Ev
     /tmp/ccwzPgQx.s:17     .text._ZN9SemaphoreD2Ev:0000000000000000 .L0 
     /tmp/ccwzPgQx.s:3775   .sdata.DW.ref.__gxx_personality_v0:0000000000000000 DW.ref.__gxx_personality_v0
     /tmp/ccwzPgQx.s:21     .text._ZN9SemaphoreD2Ev:0000000000000000 .L0 
     /tmp/ccwzPgQx.s:22     .text._ZN9SemaphoreD2Ev:0000000000000004 .L0 
     /tmp/ccwzPgQx.s:25     .text._ZN9SemaphoreD2Ev:000000000000000c .L0 
     /tmp/ccwzPgQx.s:26     .text._ZN9SemaphoreD2Ev:000000000000000c .L0 
     /tmp/ccwzPgQx.s:28     .text._ZN9SemaphoreD2Ev:0000000000000010 .L0 
     /tmp/ccwzPgQx.s:926    .rodata._ZTV9Semaphore:0000000000000000 _ZTV9Semaphore
     /tmp/ccwzPgQx.s:31     .text._ZN9SemaphoreD2Ev:0000000000000010 .L0 
     /tmp/ccwzPgQx.s:34     .text._ZN9SemaphoreD2Ev:000000000000001c .L0 
     /tmp/ccwzPgQx.s:35     .text._ZN9SemaphoreD2Ev:000000000000001c .L0 
     /tmp/ccwzPgQx.s:41     .text._ZN9SemaphoreD2Ev:0000000000000028 .L0 
     /tmp/ccwzPgQx.s:42     .text._ZN9SemaphoreD2Ev:000000000000002c .L0 
     /tmp/ccwzPgQx.s:44     .text._ZN9SemaphoreD2Ev:0000000000000030 .L0 
     /tmp/ccwzPgQx.s:45     .text._ZN9SemaphoreD2Ev:0000000000000030 .L0 
     /tmp/ccwzPgQx.s:47     .text._ZN9SemaphoreD2Ev:0000000000000034 .L0 
     /tmp/ccwzPgQx.s:49     .text._ZN9SemaphoreD2Ev:0000000000000038 .L0 
     /tmp/ccwzPgQx.s:13     .text._ZN9SemaphoreD2Ev:0000000000000000 _ZN9SemaphoreD1Ev
     /tmp/ccwzPgQx.s:66     .text._ZN9SemaphoreD0Ev:0000000000000000 _ZN9SemaphoreD0Ev
     /tmp/ccwzPgQx.s:69     .text._ZN9SemaphoreD0Ev:0000000000000000 .L0 
     /tmp/ccwzPgQx.s:73     .text._ZN9SemaphoreD0Ev:0000000000000000 .L0 
     /tmp/ccwzPgQx.s:74     .text._ZN9SemaphoreD0Ev:0000000000000004 .L0 
     /tmp/ccwzPgQx.s:78     .text._ZN9SemaphoreD0Ev:0000000000000010 .L0 
     /tmp/ccwzPgQx.s:79     .text._ZN9SemaphoreD0Ev:0000000000000010 .L0 
     /tmp/ccwzPgQx.s:80     .text._ZN9SemaphoreD0Ev:0000000000000010 .L0 
     /tmp/ccwzPgQx.s:82     .text._ZN9SemaphoreD0Ev:0000000000000014 .L0 
     /tmp/ccwzPgQx.s:88     .text._ZN9SemaphoreD0Ev:0000000000000018 .L0 
     /tmp/ccwzPgQx.s:91     .text._ZN9SemaphoreD0Ev:0000000000000024 .L0 
     /tmp/ccwzPgQx.s:92     .text._ZN9SemaphoreD0Ev:0000000000000024 .L0 
     /tmp/ccwzPgQx.s:99     .text._ZN9SemaphoreD0Ev:0000000000000030 .L0 
     /tmp/ccwzPgQx.s:105    .text._ZN9SemaphoreD0Ev:0000000000000040 .L0 
     /tmp/ccwzPgQx.s:107    .text._ZN9SemaphoreD0Ev:0000000000000044 .L0 
     /tmp/ccwzPgQx.s:108    .text._ZN9SemaphoreD0Ev:0000000000000044 .L0 
     /tmp/ccwzPgQx.s:110    .text._ZN9SemaphoreD0Ev:0000000000000048 .L0 
     /tmp/ccwzPgQx.s:113    .text._ZN9SemaphoreD0Ev:000000000000004c .L0 
     /tmp/ccwzPgQx.s:115    .text._ZN9SemaphoreD0Ev:0000000000000050 .L0 
     /tmp/ccwzPgQx.s:133    .text:0000000000000000 _ZN9BufferCPPC2Ei
     /tmp/ccwzPgQx.s:137    .text:0000000000000000 .L0 
     /tmp/ccwzPgQx.s:141    .text:0000000000000000 .L0 
     /tmp/ccwzPgQx.s:142    .text:0000000000000004 .L0 
     /tmp/ccwzPgQx.s:148    .text:0000000000000018 .L0 
     /tmp/ccwzPgQx.s:149    .text:0000000000000018 .L0 
     /tmp/ccwzPgQx.s:150    .text:0000000000000018 .L0 
     /tmp/ccwzPgQx.s:151    .text:0000000000000018 .L0 
     /tmp/ccwzPgQx.s:152    .text:0000000000000018 .L0 
     /tmp/ccwzPgQx.s:154    .text:000000000000001c .L0 
     /tmp/ccwzPgQx.s:159    .text:0000000000000024 .L0 
     /tmp/ccwzPgQx.s:163    .text:000000000000002c .L0 
     /tmp/ccwzPgQx.s:167    .text:0000000000000038 .L0 
     /tmp/ccwzPgQx.s:168    .text:0000000000000038 .L0 
     /tmp/ccwzPgQx.s:173    .text:0000000000000044 .L0 
     /tmp/ccwzPgQx.s:175    .text:0000000000000048 .L0 
     /tmp/ccwzPgQx.s:176    .text:0000000000000048 .L0 
     /tmp/ccwzPgQx.s:185    .text:0000000000000058 .L0 
GAS LISTING /tmp/ccwzPgQx.s 			page 23


     /tmp/ccwzPgQx.s:188    .text:0000000000000064 .L0 
     /tmp/ccwzPgQx.s:189    .text:0000000000000064 .L0 
     /tmp/ccwzPgQx.s:199    .text:0000000000000074 .L0 
     /tmp/ccwzPgQx.s:201    .text:0000000000000078 .L0 
     /tmp/ccwzPgQx.s:202    .text:0000000000000078 .L0 
     /tmp/ccwzPgQx.s:212    .text:0000000000000088 .L0 
     /tmp/ccwzPgQx.s:215    .text:0000000000000094 .L0 
     /tmp/ccwzPgQx.s:216    .text:0000000000000094 .L0 
     /tmp/ccwzPgQx.s:226    .text:00000000000000a4 .L0 
     /tmp/ccwzPgQx.s:228    .text:00000000000000a8 .L0 
     /tmp/ccwzPgQx.s:229    .text:00000000000000a8 .L0 
     /tmp/ccwzPgQx.s:239    .text:00000000000000b8 .L0 
     /tmp/ccwzPgQx.s:242    .text:00000000000000c4 .L0 
     /tmp/ccwzPgQx.s:243    .text:00000000000000c4 .L0 
     /tmp/ccwzPgQx.s:253    .text:00000000000000d4 .L0 
     /tmp/ccwzPgQx.s:255    .text:00000000000000d8 .L0 
     /tmp/ccwzPgQx.s:256    .text:00000000000000d8 .L0 
     /tmp/ccwzPgQx.s:266    .text:00000000000000e8 .L0 
     /tmp/ccwzPgQx.s:269    .text:00000000000000f4 .L0 
     /tmp/ccwzPgQx.s:270    .text:00000000000000f4 .L0 
     /tmp/ccwzPgQx.s:280    .text:0000000000000104 .L0 
     /tmp/ccwzPgQx.s:283    .text:0000000000000108 .L0 
     /tmp/ccwzPgQx.s:284    .text:000000000000010c .L0 
     /tmp/ccwzPgQx.s:285    .text:000000000000010c .L0 
     /tmp/ccwzPgQx.s:287    .text:0000000000000110 .L0 
     /tmp/ccwzPgQx.s:288    .text:0000000000000110 .L0 
     /tmp/ccwzPgQx.s:290    .text:0000000000000114 .L0 
     /tmp/ccwzPgQx.s:293    .text:0000000000000118 .L0 
     /tmp/ccwzPgQx.s:295    .text:000000000000011c .L0 
     /tmp/ccwzPgQx.s:297    .text:0000000000000120 .L0 
     /tmp/ccwzPgQx.s:301    .text:0000000000000124 .L0 
     /tmp/ccwzPgQx.s:306    .text:0000000000000128 .L0 
     /tmp/ccwzPgQx.s:318    .text:0000000000000144 .L0 
     /tmp/ccwzPgQx.s:330    .text:0000000000000160 .L0 
     /tmp/ccwzPgQx.s:342    .text:000000000000017c .L0 
     /tmp/ccwzPgQx.s:351    .text:0000000000000194 .L0 
     /tmp/ccwzPgQx.s:133    .text:0000000000000000 _ZN9BufferCPPC1Ei
     /tmp/ccwzPgQx.s:414    .text:0000000000000194 _ZN9BufferCPP3putEi
     /tmp/ccwzPgQx.s:417    .text:0000000000000194 .L0 
     /tmp/ccwzPgQx.s:419    .text:0000000000000194 .L0 
     /tmp/ccwzPgQx.s:420    .text:0000000000000198 .L0 
     /tmp/ccwzPgQx.s:425    .text:00000000000001a8 .L0 
     /tmp/ccwzPgQx.s:426    .text:00000000000001a8 .L0 
     /tmp/ccwzPgQx.s:427    .text:00000000000001a8 .L0 
     /tmp/ccwzPgQx.s:428    .text:00000000000001a8 .L0 
     /tmp/ccwzPgQx.s:430    .text:00000000000001ac .L0 
     /tmp/ccwzPgQx.s:434    .text:00000000000001b4 .L0 
     /tmp/ccwzPgQx.s:439    .text:00000000000001b8 .L0 
     /tmp/ccwzPgQx.s:440    .text:00000000000001b8 .L0 
     /tmp/ccwzPgQx.s:447    .text:00000000000001c4 .L0 
     /tmp/ccwzPgQx.s:452    .text:00000000000001c8 .L0 
     /tmp/ccwzPgQx.s:453    .text:00000000000001c8 .L0 
     /tmp/ccwzPgQx.s:459    .text:00000000000001d4 .L0 
     /tmp/ccwzPgQx.s:461    .text:00000000000001d8 .L0 
     /tmp/ccwzPgQx.s:463    .text:00000000000001dc .L0 
     /tmp/ccwzPgQx.s:466    .text:00000000000001e4 .L0 
     /tmp/ccwzPgQx.s:468    .text:00000000000001e8 .L0 
GAS LISTING /tmp/ccwzPgQx.s 			page 24


     /tmp/ccwzPgQx.s:469    .text:00000000000001e8 .L0 
     /tmp/ccwzPgQx.s:471    .text:00000000000001ec .L0 
     /tmp/ccwzPgQx.s:473    .text:00000000000001f0 .L0 
     /tmp/ccwzPgQx.s:475    .text:00000000000001f4 .L0 
     /tmp/ccwzPgQx.s:477    .text:00000000000001f8 .L0 
     /tmp/ccwzPgQx.s:479    .text:00000000000001fc .L0 
     /tmp/ccwzPgQx.s:484    .text:0000000000000200 .L0 
     /tmp/ccwzPgQx.s:485    .text:0000000000000200 .L0 
     /tmp/ccwzPgQx.s:491    .text:000000000000020c .L0 
     /tmp/ccwzPgQx.s:496    .text:0000000000000210 .L0 
     /tmp/ccwzPgQx.s:497    .text:0000000000000210 .L0 
     /tmp/ccwzPgQx.s:503    .text:000000000000021c .L0 
     /tmp/ccwzPgQx.s:504    .text:0000000000000220 .L0 
     /tmp/ccwzPgQx.s:506    .text:0000000000000224 .L0 
     /tmp/ccwzPgQx.s:507    .text:0000000000000224 .L0 
     /tmp/ccwzPgQx.s:509    .text:0000000000000228 .L0 
     /tmp/ccwzPgQx.s:512    .text:000000000000022c .L0 
     /tmp/ccwzPgQx.s:514    .text:0000000000000230 .L0 
     /tmp/ccwzPgQx.s:516    .text:0000000000000234 .L0 
     /tmp/ccwzPgQx.s:522    .text:0000000000000234 _ZN9BufferCPP3getEv
     /tmp/ccwzPgQx.s:525    .text:0000000000000234 .L0 
     /tmp/ccwzPgQx.s:527    .text:0000000000000234 .L0 
     /tmp/ccwzPgQx.s:528    .text:0000000000000238 .L0 
     /tmp/ccwzPgQx.s:533    .text:0000000000000248 .L0 
     /tmp/ccwzPgQx.s:534    .text:0000000000000248 .L0 
     /tmp/ccwzPgQx.s:535    .text:0000000000000248 .L0 
     /tmp/ccwzPgQx.s:536    .text:0000000000000248 .L0 
     /tmp/ccwzPgQx.s:538    .text:000000000000024c .L0 
     /tmp/ccwzPgQx.s:541    .text:0000000000000250 .L0 
     /tmp/ccwzPgQx.s:546    .text:0000000000000254 .L0 
     /tmp/ccwzPgQx.s:547    .text:0000000000000254 .L0 
     /tmp/ccwzPgQx.s:554    .text:0000000000000260 .L0 
     /tmp/ccwzPgQx.s:559    .text:0000000000000264 .L0 
     /tmp/ccwzPgQx.s:560    .text:0000000000000264 .L0 
     /tmp/ccwzPgQx.s:566    .text:0000000000000270 .L0 
     /tmp/ccwzPgQx.s:567    .text:0000000000000270 .L0 
     /tmp/ccwzPgQx.s:569    .text:0000000000000274 .L0 
     /tmp/ccwzPgQx.s:571    .text:0000000000000278 .L0 
     /tmp/ccwzPgQx.s:574    .text:0000000000000280 .L0 
     /tmp/ccwzPgQx.s:577    .text:0000000000000284 .L0 
     /tmp/ccwzPgQx.s:578    .text:0000000000000284 .L0 
     /tmp/ccwzPgQx.s:580    .text:0000000000000288 .L0 
     /tmp/ccwzPgQx.s:582    .text:000000000000028c .L0 
     /tmp/ccwzPgQx.s:584    .text:0000000000000290 .L0 
     /tmp/ccwzPgQx.s:586    .text:0000000000000294 .L0 
     /tmp/ccwzPgQx.s:591    .text:0000000000000298 .L0 
     /tmp/ccwzPgQx.s:592    .text:0000000000000298 .L0 
     /tmp/ccwzPgQx.s:598    .text:00000000000002a4 .L0 
     /tmp/ccwzPgQx.s:603    .text:00000000000002a8 .L0 
     /tmp/ccwzPgQx.s:604    .text:00000000000002a8 .L0 
     /tmp/ccwzPgQx.s:610    .text:00000000000002b4 .L0 
     /tmp/ccwzPgQx.s:611    .text:00000000000002b4 .L0 
     /tmp/ccwzPgQx.s:613    .text:00000000000002bc .L0 
     /tmp/ccwzPgQx.s:615    .text:00000000000002c0 .L0 
     /tmp/ccwzPgQx.s:616    .text:00000000000002c0 .L0 
     /tmp/ccwzPgQx.s:618    .text:00000000000002c4 .L0 
     /tmp/ccwzPgQx.s:621    .text:00000000000002c8 .L0 
GAS LISTING /tmp/ccwzPgQx.s 			page 25


     /tmp/ccwzPgQx.s:624    .text:00000000000002cc .L0 
     /tmp/ccwzPgQx.s:626    .text:00000000000002d0 .L0 
     /tmp/ccwzPgQx.s:632    .text:00000000000002d0 _ZN9BufferCPP6getCntEv
     /tmp/ccwzPgQx.s:635    .text:00000000000002d0 .L0 
     /tmp/ccwzPgQx.s:637    .text:00000000000002d0 .L0 
     /tmp/ccwzPgQx.s:638    .text:00000000000002d4 .L0 
     /tmp/ccwzPgQx.s:643    .text:00000000000002e4 .L0 
     /tmp/ccwzPgQx.s:644    .text:00000000000002e4 .L0 
     /tmp/ccwzPgQx.s:645    .text:00000000000002e4 .L0 
     /tmp/ccwzPgQx.s:646    .text:00000000000002e4 .L0 
     /tmp/ccwzPgQx.s:648    .text:00000000000002e8 .L0 
     /tmp/ccwzPgQx.s:651    .text:00000000000002ec .L0 
     /tmp/ccwzPgQx.s:652    .text:00000000000002ec .L0 
     /tmp/ccwzPgQx.s:657    .text:00000000000002f0 .L0 
     /tmp/ccwzPgQx.s:658    .text:00000000000002f0 .L0 
     /tmp/ccwzPgQx.s:665    .text:00000000000002fc .L0 
     /tmp/ccwzPgQx.s:670    .text:0000000000000300 .L0 
     /tmp/ccwzPgQx.s:671    .text:0000000000000300 .L0 
     /tmp/ccwzPgQx.s:677    .text:000000000000030c .L0 
     /tmp/ccwzPgQx.s:678    .text:000000000000030c .L0 
     /tmp/ccwzPgQx.s:680    .text:0000000000000310 .L0 
     /tmp/ccwzPgQx.s:682    .text:0000000000000314 .L0 
     /tmp/ccwzPgQx.s:684    .text:0000000000000318 .L0 
     /tmp/ccwzPgQx.s:685    .text:0000000000000318 .L0 
     /tmp/ccwzPgQx.s:689    .text:000000000000031c .L0 
     /tmp/ccwzPgQx.s:694    .text:0000000000000320 .L0 
     /tmp/ccwzPgQx.s:695    .text:0000000000000320 .L0 
     /tmp/ccwzPgQx.s:701    .text:000000000000032c .L0 
     /tmp/ccwzPgQx.s:706    .text:0000000000000330 .L0 
     /tmp/ccwzPgQx.s:707    .text:0000000000000330 .L0 
     /tmp/ccwzPgQx.s:713    .text:000000000000033c .L0 
     /tmp/ccwzPgQx.s:714    .text:000000000000033c .L0 
     /tmp/ccwzPgQx.s:716    .text:0000000000000344 .L0 
     /tmp/ccwzPgQx.s:717    .text:0000000000000344 .L0 
     /tmp/ccwzPgQx.s:719    .text:0000000000000348 .L0 
     /tmp/ccwzPgQx.s:720    .text:0000000000000348 .L0 
     /tmp/ccwzPgQx.s:722    .text:000000000000034c .L0 
     /tmp/ccwzPgQx.s:725    .text:0000000000000350 .L0 
     /tmp/ccwzPgQx.s:728    .text:0000000000000354 .L0 
     /tmp/ccwzPgQx.s:732    .text:0000000000000358 .L0 
     /tmp/ccwzPgQx.s:734    .text:0000000000000358 .L0 
     /tmp/ccwzPgQx.s:735    .text:0000000000000358 .L0 
     /tmp/ccwzPgQx.s:737    .text:000000000000035c .L0 
     /tmp/ccwzPgQx.s:739    .text:0000000000000360 .L0 
     /tmp/ccwzPgQx.s:741    .text:0000000000000368 .L0 
     /tmp/ccwzPgQx.s:747    .text:0000000000000368 _ZN9BufferCPPD2Ev
     /tmp/ccwzPgQx.s:750    .text:0000000000000368 .L0 
     /tmp/ccwzPgQx.s:754    .text:0000000000000368 .L0 
     /tmp/ccwzPgQx.s:755    .text:000000000000036c .L0 
     /tmp/ccwzPgQx.s:759    .text:0000000000000378 .L0 
     /tmp/ccwzPgQx.s:760    .text:0000000000000378 .L0 
     /tmp/ccwzPgQx.s:761    .text:0000000000000378 .L0 
     /tmp/ccwzPgQx.s:763    .text:000000000000037c .L0 
     /tmp/ccwzPgQx.s:770    .text:0000000000000380 .L0 
     /tmp/ccwzPgQx.s:771    .text:0000000000000380 .L0 
     /tmp/ccwzPgQx.s:772    .text:0000000000000380 .L0 
     /tmp/ccwzPgQx.s:779    .text:000000000000038c .L0 
GAS LISTING /tmp/ccwzPgQx.s 			page 26


     /tmp/ccwzPgQx.s:780    .text:000000000000038c .L0 
     /tmp/ccwzPgQx.s:785    .text:000000000000039c .L0 
     /tmp/ccwzPgQx.s:786    .text:000000000000039c .L0 
     /tmp/ccwzPgQx.s:790    .text:00000000000003a8 .L0 
     /tmp/ccwzPgQx.s:793    .text:00000000000003ac .L0 
     /tmp/ccwzPgQx.s:794    .text:00000000000003ac .L0 
     /tmp/ccwzPgQx.s:796    .text:00000000000003b0 .L0 
     /tmp/ccwzPgQx.s:798    .text:00000000000003b4 .L0 
     /tmp/ccwzPgQx.s:804    .text:00000000000003bc .L0 
     /tmp/ccwzPgQx.s:805    .text:00000000000003bc .L0 
     /tmp/ccwzPgQx.s:806    .text:00000000000003bc .L0 
     /tmp/ccwzPgQx.s:812    .text:00000000000003c8 .L0 
     /tmp/ccwzPgQx.s:813    .text:00000000000003c8 .L0 
     /tmp/ccwzPgQx.s:815    .text:00000000000003cc .L0 
     /tmp/ccwzPgQx.s:817    .text:00000000000003d0 .L0 
     /tmp/ccwzPgQx.s:819    .text:00000000000003d4 .L0 
     /tmp/ccwzPgQx.s:821    .text:00000000000003d8 .L0 
     /tmp/ccwzPgQx.s:824    .text:00000000000003dc .L0 
     /tmp/ccwzPgQx.s:830    .text:00000000000003e0 .L0 
     /tmp/ccwzPgQx.s:831    .text:00000000000003e0 .L0 
     /tmp/ccwzPgQx.s:832    .text:00000000000003e0 .L0 
     /tmp/ccwzPgQx.s:840    .text:00000000000003ec .L0 
     /tmp/ccwzPgQx.s:841    .text:00000000000003ec .L0 
     /tmp/ccwzPgQx.s:842    .text:00000000000003ec .L0 
     /tmp/ccwzPgQx.s:848    .text:00000000000003f8 .L0 
     /tmp/ccwzPgQx.s:849    .text:00000000000003f8 .L0 
     /tmp/ccwzPgQx.s:853    .text:0000000000000404 .L0 
     /tmp/ccwzPgQx.s:854    .text:0000000000000404 .L0 
     /tmp/ccwzPgQx.s:856    .text:0000000000000408 .L0 
     /tmp/ccwzPgQx.s:858    .text:000000000000040c .L0 
     /tmp/ccwzPgQx.s:864    .text:0000000000000418 .L0 
     /tmp/ccwzPgQx.s:865    .text:0000000000000418 .L0 
     /tmp/ccwzPgQx.s:867    .text:000000000000041c .L0 
     /tmp/ccwzPgQx.s:869    .text:0000000000000420 .L0 
     /tmp/ccwzPgQx.s:875    .text:000000000000042c .L0 
     /tmp/ccwzPgQx.s:876    .text:000000000000042c .L0 
     /tmp/ccwzPgQx.s:878    .text:0000000000000430 .L0 
     /tmp/ccwzPgQx.s:880    .text:0000000000000434 .L0 
     /tmp/ccwzPgQx.s:886    .text:0000000000000440 .L0 
     /tmp/ccwzPgQx.s:887    .text:0000000000000440 .L0 
     /tmp/ccwzPgQx.s:889    .text:0000000000000444 .L0 
     /tmp/ccwzPgQx.s:891    .text:0000000000000448 .L0 
     /tmp/ccwzPgQx.s:898    .text:0000000000000454 .L0 
     /tmp/ccwzPgQx.s:899    .text:0000000000000458 .L0 
     /tmp/ccwzPgQx.s:901    .text:000000000000045c .L0 
     /tmp/ccwzPgQx.s:902    .text:000000000000045c .L0 
     /tmp/ccwzPgQx.s:904    .text:0000000000000460 .L0 
     /tmp/ccwzPgQx.s:907    .text:0000000000000464 .L0 
     /tmp/ccwzPgQx.s:909    .text:0000000000000468 .L0 
     /tmp/ccwzPgQx.s:747    .text:0000000000000368 _ZN9BufferCPPD1Ev
     /tmp/ccwzPgQx.s:62     .text._ZN9SemaphoreD2Ev:0000000000000038 .L0 
     /tmp/ccwzPgQx.s:129    .text._ZN9SemaphoreD0Ev:0000000000000050 .L0 
     /tmp/ccwzPgQx.s:942    .text:0000000000000468 .L0 
     /tmp/ccwzPgQx.s:185    .text:0000000000000058 .L0 
     /tmp/ccwzPgQx.s:212    .text:0000000000000088 .L0 
     /tmp/ccwzPgQx.s:239    .text:00000000000000b8 .L0 
     /tmp/ccwzPgQx.s:266    .text:00000000000000e8 .L0 
GAS LISTING /tmp/ccwzPgQx.s 			page 27


     /tmp/ccwzPgQx.s:933    .rodata.str1.8:0000000000000000 .LC0
     /tmp/ccwzPgQx.s:780    .text:000000000000038c .L0 
     /tmp/ccwzPgQx.s:731    .text:0000000000000358 .L21
     /tmp/ccwzPgQx.s:687    .text:000000000000031c .L22
     /tmp/ccwzPgQx.s:825    .text:00000000000003e0 .L25
     /tmp/ccwzPgQx.s:783    .text:000000000000039c .L26
     /tmp/ccwzPgQx.s:862    .text:0000000000000418 .L27
     /tmp/ccwzPgQx.s:873    .text:000000000000042c .L28
     /tmp/ccwzPgQx.s:884    .text:0000000000000440 .L29
     /tmp/ccwzPgQx.s:895    .text:0000000000000454 .L24
     /tmp/ccwzPgQx.s:31     .text._ZN9SemaphoreD2Ev:0000000000000010 .L0 
     /tmp/ccwzPgQx.s:88     .text._ZN9SemaphoreD0Ev:0000000000000018 .L0 
     /tmp/ccwzPgQx.s:100    .text._ZN9SemaphoreD0Ev:0000000000000034 .LEHB0
     /tmp/ccwzPgQx.s:67     .text._ZN9SemaphoreD0Ev:0000000000000000 .LFB14
     /tmp/ccwzPgQx.s:103    .text._ZN9SemaphoreD0Ev:000000000000003c .LEHE0
     /tmp/ccwzPgQx.s:169    .text:000000000000003c .LEHB1
     /tmp/ccwzPgQx.s:134    .text:0000000000000000 .LFB21
     /tmp/ccwzPgQx.s:179    .text:0000000000000054 .LEHE1
     /tmp/ccwzPgQx.s:192    .text:000000000000006c .LEHB2
     /tmp/ccwzPgQx.s:195    .text:0000000000000074 .LEHE2
     /tmp/ccwzPgQx.s:300    .text:0000000000000124 .L10
     /tmp/ccwzPgQx.s:203    .text:000000000000007c .LEHB3
     /tmp/ccwzPgQx.s:206    .text:0000000000000084 .LEHE3
     /tmp/ccwzPgQx.s:219    .text:000000000000009c .LEHB4
     /tmp/ccwzPgQx.s:222    .text:00000000000000a4 .LEHE4
     /tmp/ccwzPgQx.s:314    .text:0000000000000140 .L11
     /tmp/ccwzPgQx.s:230    .text:00000000000000ac .LEHB5
     /tmp/ccwzPgQx.s:233    .text:00000000000000b4 .LEHE5
     /tmp/ccwzPgQx.s:246    .text:00000000000000cc .LEHB6
     /tmp/ccwzPgQx.s:249    .text:00000000000000d4 .LEHE6
     /tmp/ccwzPgQx.s:326    .text:000000000000015c .L12
     /tmp/ccwzPgQx.s:257    .text:00000000000000dc .LEHB7
     /tmp/ccwzPgQx.s:260    .text:00000000000000e4 .LEHE7
     /tmp/ccwzPgQx.s:273    .text:00000000000000fc .LEHB8
     /tmp/ccwzPgQx.s:276    .text:0000000000000104 .LEHE8
     /tmp/ccwzPgQx.s:338    .text:0000000000000178 .L13
     /tmp/ccwzPgQx.s:310    .text:0000000000000138 .LEHB9
     /tmp/ccwzPgQx.s:313    .text:0000000000000140 .LEHE9
     /tmp/ccwzPgQx.s:322    .text:0000000000000154 .LEHB10
     /tmp/ccwzPgQx.s:325    .text:000000000000015c .LEHE10
     /tmp/ccwzPgQx.s:334    .text:0000000000000170 .LEHB11
     /tmp/ccwzPgQx.s:337    .text:0000000000000178 .LEHE11
     /tmp/ccwzPgQx.s:346    .text:000000000000018c .LEHB12
     /tmp/ccwzPgQx.s:349    .text:0000000000000194 .LEHE12
     /tmp/ccwzPgQx.s:2265   .debug_abbrev:0000000000000000 .Ldebug_abbrev0
     /tmp/ccwzPgQx.s:3633   .debug_str:000000000000009b .LASF64
     /tmp/ccwzPgQx.s:3617   .debug_str:000000000000002c .LASF65
     /tmp/ccwzPgQx.s:3749   .debug_str:000000000000045e .LASF66
     /tmp/ccwzPgQx.s:3599   .debug_ranges:0000000000000000 .Ldebug_ranges0
     /tmp/ccwzPgQx.s:3609   .debug_line:0000000000000000 .Ldebug_line0
     /tmp/ccwzPgQx.s:3699   .debug_str:0000000000000321 .LASF0
     /tmp/ccwzPgQx.s:3669   .debug_str:000000000000025a .LASF1
     /tmp/ccwzPgQx.s:3659   .debug_str:0000000000000222 .LASF2
     /tmp/ccwzPgQx.s:3631   .debug_str:0000000000000094 .LASF4
     /tmp/ccwzPgQx.s:3667   .debug_str:0000000000000248 .LASF3
     /tmp/ccwzPgQx.s:3671   .debug_str:000000000000026d .LASF5
     /tmp/ccwzPgQx.s:3613   .debug_str:0000000000000005 .LASF6
GAS LISTING /tmp/ccwzPgQx.s 			page 28


     /tmp/ccwzPgQx.s:3649   .debug_str:00000000000001cb .LASF7
     /tmp/ccwzPgQx.s:3715   .debug_str:0000000000000387 .LASF8
     /tmp/ccwzPgQx.s:3627   .debug_str:0000000000000074 .LASF9
     /tmp/ccwzPgQx.s:3767   .debug_str:00000000000004e8 .LASF10
     /tmp/ccwzPgQx.s:3653   .debug_str:00000000000001ee .LASF11
     /tmp/ccwzPgQx.s:3751   .debug_str:0000000000000481 .LASF12
     /tmp/ccwzPgQx.s:3721   .debug_str:00000000000003bf .LASF13
     /tmp/ccwzPgQx.s:3675   .debug_str:0000000000000283 .LASF14
     /tmp/ccwzPgQx.s:3641   .debug_str:0000000000000190 .LASF15
     /tmp/ccwzPgQx.s:3717   .debug_str:0000000000000397 .LASF16
     /tmp/ccwzPgQx.s:3619   .debug_str:0000000000000044 .LASF17
     /tmp/ccwzPgQx.s:3741   .debug_str:0000000000000436 .LASF18
     /tmp/ccwzPgQx.s:3703   .debug_str:000000000000033e .LASF20
     /tmp/ccwzPgQx.s:3635   .debug_str:000000000000015f .LASF22
     /tmp/ccwzPgQx.s:3725   .debug_str:00000000000003d8 .LASF19
     /tmp/ccwzPgQx.s:3661   .debug_str:0000000000000230 .LASF67
     /tmp/ccwzPgQx.s:3735   .debug_str:000000000000040a .LASF68
     /tmp/ccwzPgQx.s:3731   .debug_str:00000000000003fc .LASF21
     /tmp/ccwzPgQx.s:3679   .debug_str:0000000000000299 .LASF23
     /tmp/ccwzPgQx.s:3705   .debug_str:000000000000034e .LASF24
     /tmp/ccwzPgQx.s:3677   .debug_str:000000000000028f .LASF25
     /tmp/ccwzPgQx.s:3739   .debug_str:000000000000042f .LASF26
     /tmp/ccwzPgQx.s:3691   .debug_str:00000000000002ee .LASF27
     /tmp/ccwzPgQx.s:3643   .debug_str:00000000000001a6 .LASF28
     /tmp/ccwzPgQx.s:3673   .debug_str:0000000000000274 .LASF29
     /tmp/ccwzPgQx.s:3647   .debug_str:00000000000001bd .LASF30
     /tmp/ccwzPgQx.s:3711   .debug_str:0000000000000372 .LASF31
     /tmp/ccwzPgQx.s:3763   .debug_str:00000000000004cc .LASF32
     /tmp/ccwzPgQx.s:3655   .debug_str:00000000000001fd .LASF34
     /tmp/ccwzPgQx.s:3713   .debug_str:000000000000037c .LASF33
     /tmp/ccwzPgQx.s:3737   .debug_str:000000000000041d .LASF35
     /tmp/ccwzPgQx.s:3693   .debug_str:00000000000002f3 .LASF69
     /tmp/ccwzPgQx.s:3615   .debug_str:0000000000000018 .LASF70
     /tmp/ccwzPgQx.s:3639   .debug_str:0000000000000189 .LASF36
     /tmp/ccwzPgQx.s:3729   .debug_str:00000000000003e5 .LASF37
     /tmp/ccwzPgQx.s:3755   .debug_str:000000000000049b .LASF38
     /tmp/ccwzPgQx.s:3637   .debug_str:0000000000000174 .LASF71
     /tmp/ccwzPgQx.s:3651   .debug_str:00000000000001de .LASF72
     /tmp/ccwzPgQx.s:3709   .debug_str:0000000000000360 .LASF39
     /tmp/ccwzPgQx.s:3623   .debug_str:0000000000000062 .LASF73
     /tmp/ccwzPgQx.s:3757   .debug_str:00000000000004a5 .LASF74
     /tmp/ccwzPgQx.s:3695   .debug_str:0000000000000307 .LASF40
     /tmp/ccwzPgQx.s:3697   .debug_str:000000000000030c .LASF41
     /tmp/ccwzPgQx.s:3625   .debug_str:000000000000006d .LASF42
     /tmp/ccwzPgQx.s:3687   .debug_str:00000000000002ce .LASF43
     /tmp/ccwzPgQx.s:3733   .debug_str:0000000000000401 .LASF44
     /tmp/ccwzPgQx.s:3701   .debug_str:000000000000032e .LASF75
     /tmp/ccwzPgQx.s:633    .text:00000000000002d0 .LFB28
     /tmp/ccwzPgQx.s:742    .text:0000000000000368 .LFE28
     /tmp/ccwzPgQx.s:3683   .debug_str:00000000000002be .LASF45
     /tmp/ccwzPgQx.s:3128   .debug_loc:0000000000000000 .LLST25
     /tmp/ccwzPgQx.s:3150   .debug_loc:000000000000005f .LLST26
     /tmp/ccwzPgQx.s:654    .text:00000000000002f0 .LBB82
     /tmp/ccwzPgQx.s:663    .text:00000000000002fc .LBE82
     /tmp/ccwzPgQx.s:3157   .debug_loc:0000000000000082 .LLST27
     /tmp/ccwzPgQx.s:661    .text:00000000000002fc .LVL69
     /tmp/ccwzPgQx.s:667    .text:0000000000000300 .LBB84
GAS LISTING /tmp/ccwzPgQx.s 			page 29


     /tmp/ccwzPgQx.s:675    .text:000000000000030c .LBE84
     /tmp/ccwzPgQx.s:3164   .debug_loc:00000000000000a5 .LLST28
     /tmp/ccwzPgQx.s:673    .text:000000000000030c .LVL71
     /tmp/ccwzPgQx.s:691    .text:0000000000000320 .LBB86
     /tmp/ccwzPgQx.s:699    .text:000000000000032c .LBE86
     /tmp/ccwzPgQx.s:3171   .debug_loc:00000000000000c8 .LLST29
     /tmp/ccwzPgQx.s:697    .text:000000000000032c .LVL74
     /tmp/ccwzPgQx.s:703    .text:0000000000000330 .LBB88
     /tmp/ccwzPgQx.s:711    .text:000000000000033c .LBE88
     /tmp/ccwzPgQx.s:3178   .debug_loc:00000000000000eb .LLST30
     /tmp/ccwzPgQx.s:709    .text:000000000000033c .LVL76
     /tmp/ccwzPgQx.s:523    .text:0000000000000234 .LFB27
     /tmp/ccwzPgQx.s:627    .text:00000000000002d0 .LFE27
     /tmp/ccwzPgQx.s:3185   .debug_loc:000000000000010e .LLST19
     /tmp/ccwzPgQx.s:3203   .debug_loc:000000000000015a .LLST20
     /tmp/ccwzPgQx.s:543    .text:0000000000000254 .LBB74
     /tmp/ccwzPgQx.s:552    .text:0000000000000260 .LBE74
     /tmp/ccwzPgQx.s:3214   .debug_loc:0000000000000190 .LLST21
     /tmp/ccwzPgQx.s:550    .text:0000000000000260 .LVL56
     /tmp/ccwzPgQx.s:556    .text:0000000000000264 .LBB76
     /tmp/ccwzPgQx.s:564    .text:0000000000000270 .LBE76
     /tmp/ccwzPgQx.s:3221   .debug_loc:00000000000001b3 .LLST22
     /tmp/ccwzPgQx.s:562    .text:0000000000000270 .LVL58
     /tmp/ccwzPgQx.s:588    .text:0000000000000298 .LBB78
     /tmp/ccwzPgQx.s:596    .text:00000000000002a4 .LBE78
     /tmp/ccwzPgQx.s:3228   .debug_loc:00000000000001d6 .LLST23
     /tmp/ccwzPgQx.s:594    .text:00000000000002a4 .LVL61
     /tmp/ccwzPgQx.s:600    .text:00000000000002a8 .LBB80
     /tmp/ccwzPgQx.s:608    .text:00000000000002b4 .LBE80
     /tmp/ccwzPgQx.s:3235   .debug_loc:00000000000001f9 .LLST24
     /tmp/ccwzPgQx.s:606    .text:00000000000002b4 .LVL63
     /tmp/ccwzPgQx.s:415    .text:0000000000000194 .LFB26
     /tmp/ccwzPgQx.s:517    .text:0000000000000234 .LFE26
     /tmp/ccwzPgQx.s:3242   .debug_loc:000000000000021c .LLST13
     /tmp/ccwzPgQx.s:3260   .debug_loc:0000000000000268 .LLST14
     /tmp/ccwzPgQx.s:436    .text:00000000000001b8 .LBB66
     /tmp/ccwzPgQx.s:445    .text:00000000000001c4 .LBE66
     /tmp/ccwzPgQx.s:3274   .debug_loc:00000000000002a1 .LLST15
     /tmp/ccwzPgQx.s:443    .text:00000000000001c4 .LVL45
     /tmp/ccwzPgQx.s:449    .text:00000000000001c8 .LBB68
     /tmp/ccwzPgQx.s:457    .text:00000000000001d4 .LBE68
     /tmp/ccwzPgQx.s:3281   .debug_loc:00000000000002c4 .LLST16
     /tmp/ccwzPgQx.s:455    .text:00000000000001d4 .LVL47
     /tmp/ccwzPgQx.s:481    .text:0000000000000200 .LBB70
     /tmp/ccwzPgQx.s:489    .text:000000000000020c .LBE70
     /tmp/ccwzPgQx.s:3288   .debug_loc:00000000000002e7 .LLST17
     /tmp/ccwzPgQx.s:487    .text:000000000000020c .LVL49
     /tmp/ccwzPgQx.s:493    .text:0000000000000210 .LBB72
     /tmp/ccwzPgQx.s:501    .text:000000000000021c .LBE72
     /tmp/ccwzPgQx.s:3295   .debug_loc:000000000000030a .LLST18
     /tmp/ccwzPgQx.s:499    .text:000000000000021c .LVL51
     /tmp/ccwzPgQx.s:3743   .debug_str:0000000000000441 .LASF46
     /tmp/ccwzPgQx.s:3681   .debug_str:00000000000002ac .LASF47
     /tmp/ccwzPgQx.s:748    .text:0000000000000368 .LFB24
     /tmp/ccwzPgQx.s:910    .text:0000000000000468 .LFE24
     /tmp/ccwzPgQx.s:3302   .debug_loc:000000000000032d .LLST31
     /tmp/ccwzPgQx.s:768    .text:0000000000000380 .LBB91
GAS LISTING /tmp/ccwzPgQx.s 			page 30


     /tmp/ccwzPgQx.s:777    .text:000000000000038c .LBE91
     /tmp/ccwzPgQx.s:3320   .debug_loc:0000000000000379 .LLST32
     /tmp/ccwzPgQx.s:775    .text:000000000000038c .LVL83
     /tmp/ccwzPgQx.s:791    .text:00000000000003ac .LBB93
     /tmp/ccwzPgQx.s:822    .text:00000000000003dc .LBE93
     /tmp/ccwzPgQx.s:3328   .debug_loc:000000000000039d .LLST33
     /tmp/ccwzPgQx.s:802    .text:00000000000003bc .LBB94
     /tmp/ccwzPgQx.s:810    .text:00000000000003c8 .LBE94
     /tmp/ccwzPgQx.s:808    .text:00000000000003c8 .LVL87
     /tmp/ccwzPgQx.s:828    .text:00000000000003e0 .LBB96
     /tmp/ccwzPgQx.s:836    .text:00000000000003ec .LBE96
     /tmp/ccwzPgQx.s:3336   .debug_loc:00000000000003c1 .LLST35
     /tmp/ccwzPgQx.s:834    .text:00000000000003ec .LVL89
     /tmp/ccwzPgQx.s:838    .text:00000000000003ec .LBB98
     /tmp/ccwzPgQx.s:846    .text:00000000000003f8 .LBE98
     /tmp/ccwzPgQx.s:3345   .debug_loc:00000000000003e6 .LLST36
     /tmp/ccwzPgQx.s:844    .text:00000000000003f8 .LVL90
     /tmp/ccwzPgQx.s:782    .text:000000000000039c .LVL84
     /tmp/ccwzPgQx.s:788    .text:00000000000003a8 .LVL85
     /tmp/ccwzPgQx.s:851    .text:0000000000000404 .LVL91
     /tmp/ccwzPgQx.s:3611   .debug_str:0000000000000000 .LASF49
     /tmp/ccwzPgQx.s:3629   .debug_str:0000000000000082 .LASF48
     /tmp/ccwzPgQx.s:352    .text:0000000000000194 .LFE21
     /tmp/ccwzPgQx.s:3353   .debug_loc:000000000000040a .LLST3
     /tmp/ccwzPgQx.s:3415   .debug_loc:00000000000004fa .LLST4
     /tmp/ccwzPgQx.s:182    .text:0000000000000058 .LBB57
     /tmp/ccwzPgQx.s:197    .text:0000000000000074 .LBE57
     /tmp/ccwzPgQx.s:3429   .debug_loc:0000000000000533 .LLST5
     /tmp/ccwzPgQx.s:3442   .debug_loc:000000000000056b .LLST6
     /tmp/ccwzPgQx.s:194    .text:0000000000000074 .LVL15
     /tmp/ccwzPgQx.s:209    .text:0000000000000088 .LBB59
     /tmp/ccwzPgQx.s:224    .text:00000000000000a4 .LBE59
     /tmp/ccwzPgQx.s:3457   .debug_loc:00000000000005b4 .LLST7
     /tmp/ccwzPgQx.s:3468   .debug_loc:00000000000005ea .LLST8
     /tmp/ccwzPgQx.s:221    .text:00000000000000a4 .LVL19
     /tmp/ccwzPgQx.s:236    .text:00000000000000b8 .LBB61
     /tmp/ccwzPgQx.s:251    .text:00000000000000d4 .LBE61
     /tmp/ccwzPgQx.s:3483   .debug_loc:0000000000000633 .LLST9
     /tmp/ccwzPgQx.s:3496   .debug_loc:000000000000066b .LLST10
     /tmp/ccwzPgQx.s:248    .text:00000000000000d4 .LVL23
     /tmp/ccwzPgQx.s:263    .text:00000000000000e8 .LBB63
     /tmp/ccwzPgQx.s:278    .text:0000000000000104 .LBE63
     /tmp/ccwzPgQx.s:3511   .debug_loc:00000000000006b4 .LLST11
     /tmp/ccwzPgQx.s:3524   .debug_loc:00000000000006ec .LLST12
     /tmp/ccwzPgQx.s:275    .text:0000000000000104 .LVL27
     /tmp/ccwzPgQx.s:171    .text:0000000000000044 .LVL11
     /tmp/ccwzPgQx.s:178    .text:0000000000000054 .LVL12
     /tmp/ccwzPgQx.s:205    .text:0000000000000084 .LVL16
     /tmp/ccwzPgQx.s:232    .text:00000000000000b4 .LVL20
     /tmp/ccwzPgQx.s:259    .text:00000000000000e4 .LVL24
     /tmp/ccwzPgQx.s:308    .text:0000000000000134 .LVL31
     /tmp/ccwzPgQx.s:312    .text:0000000000000140 .LVL32
     /tmp/ccwzPgQx.s:320    .text:0000000000000150 .LVL34
     /tmp/ccwzPgQx.s:324    .text:000000000000015c .LVL35
     /tmp/ccwzPgQx.s:332    .text:000000000000016c .LVL37
     /tmp/ccwzPgQx.s:336    .text:0000000000000178 .LVL38
     /tmp/ccwzPgQx.s:344    .text:0000000000000188 .LVL40
GAS LISTING /tmp/ccwzPgQx.s 			page 31


     /tmp/ccwzPgQx.s:348    .text:0000000000000194 .LVL41
     /tmp/ccwzPgQx.s:3765   .debug_str:00000000000004d6 .LASF50
     /tmp/ccwzPgQx.s:116    .text._ZN9SemaphoreD0Ev:0000000000000050 .LFE14
     /tmp/ccwzPgQx.s:3539   .debug_loc:0000000000000735 .LLST1
     /tmp/ccwzPgQx.s:85     .text._ZN9SemaphoreD0Ev:0000000000000018 .LBB54
     /tmp/ccwzPgQx.s:97     .text._ZN9SemaphoreD0Ev:0000000000000030 .LBE54
     /tmp/ccwzPgQx.s:3557   .debug_loc:0000000000000781 .LLST2
     /tmp/ccwzPgQx.s:95     .text._ZN9SemaphoreD0Ev:0000000000000030 .LVL6
     /tmp/ccwzPgQx.s:102    .text._ZN9SemaphoreD0Ev:000000000000003c .LVL7
     /tmp/ccwzPgQx.s:3645   .debug_str:00000000000001ab .LASF51
     /tmp/ccwzPgQx.s:14     .text._ZN9SemaphoreD2Ev:0000000000000000 .LFB12
     /tmp/ccwzPgQx.s:50     .text._ZN9SemaphoreD2Ev:0000000000000038 .LFE12
     /tmp/ccwzPgQx.s:3568   .debug_loc:00000000000007b7 .LLST0
     /tmp/ccwzPgQx.s:38     .text._ZN9SemaphoreD2Ev:0000000000000028 .LVL2
     /tmp/ccwzPgQx.s:3727   .debug_str:00000000000003e0 .LASF52
     /tmp/ccwzPgQx.s:3719   .debug_str:00000000000003ad .LASF76
     /tmp/ccwzPgQx.s:3689   .debug_str:00000000000002e5 .LASF53
     /tmp/ccwzPgQx.s:3685   .debug_str:00000000000002c3 .LASF54
     /tmp/ccwzPgQx.s:3657   .debug_str:000000000000020f .LASF55
     /tmp/ccwzPgQx.s:3745   .debug_str:000000000000044b .LASF56
     /tmp/ccwzPgQx.s:3723   .debug_str:00000000000003cf .LASF57
     /tmp/ccwzPgQx.s:3663   .debug_str:0000000000000235 .LASF58
     /tmp/ccwzPgQx.s:3753   .debug_str:0000000000000491 .LASF59
     /tmp/ccwzPgQx.s:3759   .debug_str:00000000000004b7 .LASF60
     /tmp/ccwzPgQx.s:3707   .debug_str:0000000000000353 .LASF61
     /tmp/ccwzPgQx.s:3747   .debug_str:0000000000000457 .LASF62
     /tmp/ccwzPgQx.s:3761   .debug_str:00000000000004bd .LASF77
     /tmp/ccwzPgQx.s:3621   .debug_str:000000000000004a .LASF78
     /tmp/ccwzPgQx.s:3665   .debug_str:000000000000023e .LASF63
     /tmp/ccwzPgQx.s:636    .text:00000000000002d0 .LVL66
     /tmp/ccwzPgQx.s:659    .text:00000000000002f4 .LVL68
     /tmp/ccwzPgQx.s:723    .text:000000000000034c .LVL77
     /tmp/ccwzPgQx.s:730    .text:0000000000000358 .LVL79
     /tmp/ccwzPgQx.s:686    .text:000000000000031c .LVL72
     /tmp/ccwzPgQx.s:726    .text:0000000000000350 .LVL78
     /tmp/ccwzPgQx.s:653    .text:00000000000002f0 .LVL67
     /tmp/ccwzPgQx.s:666    .text:0000000000000300 .LVL70
     /tmp/ccwzPgQx.s:690    .text:0000000000000320 .LVL73
     /tmp/ccwzPgQx.s:702    .text:0000000000000330 .LVL75
     /tmp/ccwzPgQx.s:526    .text:0000000000000234 .LVL53
     /tmp/ccwzPgQx.s:548    .text:0000000000000258 .LVL55
     /tmp/ccwzPgQx.s:619    .text:00000000000002c4 .LVL64
     /tmp/ccwzPgQx.s:575    .text:0000000000000284 .LVL59
     /tmp/ccwzPgQx.s:622    .text:00000000000002c8 .LVL65
     /tmp/ccwzPgQx.s:542    .text:0000000000000254 .LVL54
     /tmp/ccwzPgQx.s:555    .text:0000000000000264 .LVL57
     /tmp/ccwzPgQx.s:587    .text:0000000000000298 .LVL60
     /tmp/ccwzPgQx.s:599    .text:00000000000002a8 .LVL62
     /tmp/ccwzPgQx.s:418    .text:0000000000000194 .LVL42
     /tmp/ccwzPgQx.s:441    .text:00000000000001bc .LVL44
     /tmp/ccwzPgQx.s:510    .text:0000000000000228 .LVL52
     /tmp/ccwzPgQx.s:435    .text:00000000000001b8 .LVL43
     /tmp/ccwzPgQx.s:448    .text:00000000000001c8 .LVL46
     /tmp/ccwzPgQx.s:480    .text:0000000000000200 .LVL48
     /tmp/ccwzPgQx.s:492    .text:0000000000000210 .LVL50
     /tmp/ccwzPgQx.s:753    .text:0000000000000368 .LVL80
     /tmp/ccwzPgQx.s:773    .text:0000000000000384 .LVL82
GAS LISTING /tmp/ccwzPgQx.s 			page 32


     /tmp/ccwzPgQx.s:905    .text:0000000000000460 .LVL96
     /tmp/ccwzPgQx.s:767    .text:0000000000000380 .LVL81
     /tmp/ccwzPgQx.s:800    .text:00000000000003bc .LVL86
     /tmp/ccwzPgQx.s:827    .text:00000000000003e0 .LVL88
     /tmp/ccwzPgQx.s:140    .text:0000000000000000 .LVL9
     /tmp/ccwzPgQx.s:161    .text:000000000000002c .LVL10
     /tmp/ccwzPgQx.s:291    .text:0000000000000114 .LVL28
     /tmp/ccwzPgQx.s:299    .text:0000000000000124 .LVL29
     /tmp/ccwzPgQx.s:303    .text:0000000000000128 .LVL30
     /tmp/ccwzPgQx.s:316    .text:0000000000000144 .LVL33
     /tmp/ccwzPgQx.s:328    .text:0000000000000160 .LVL36
     /tmp/ccwzPgQx.s:340    .text:000000000000017c .LVL39
     /tmp/ccwzPgQx.s:181    .text:0000000000000058 .LVL13
     /tmp/ccwzPgQx.s:191    .text:000000000000006c .LVL14
     /tmp/ccwzPgQx.s:208    .text:0000000000000088 .LVL17
     /tmp/ccwzPgQx.s:218    .text:000000000000009c .LVL18
     /tmp/ccwzPgQx.s:235    .text:00000000000000b8 .LVL21
     /tmp/ccwzPgQx.s:245    .text:00000000000000cc .LVL22
     /tmp/ccwzPgQx.s:262    .text:00000000000000e8 .LVL25
     /tmp/ccwzPgQx.s:272    .text:00000000000000fc .LVL26
     /tmp/ccwzPgQx.s:72     .text._ZN9SemaphoreD0Ev:0000000000000000 .LVL3
     /tmp/ccwzPgQx.s:93     .text._ZN9SemaphoreD0Ev:0000000000000028 .LVL5
     /tmp/ccwzPgQx.s:111    .text._ZN9SemaphoreD0Ev:0000000000000048 .LVL8
     /tmp/ccwzPgQx.s:84     .text._ZN9SemaphoreD0Ev:0000000000000018 .LVL4
     /tmp/ccwzPgQx.s:20     .text._ZN9SemaphoreD2Ev:0000000000000000 .LVL0
     /tmp/ccwzPgQx.s:36     .text._ZN9SemaphoreD2Ev:0000000000000020 .LVL1
     /tmp/ccwzPgQx.s:943    .debug_info:0000000000000000 .Ldebug_info0
     /tmp/ccwzPgQx.s:8      .text:0000000000000000 .Ltext0
     /tmp/ccwzPgQx.s:936    .text:0000000000000468 .Letext0
     /tmp/ccwzPgQx.s:53     .gcc_except_table._ZN9SemaphoreD2Ev:0000000000000000 .LLSDA12
     /tmp/ccwzPgQx.s:118    .gcc_except_table._ZN9SemaphoreD0Ev:0000000000000000 .LLSDA14
     /tmp/ccwzPgQx.s:354    .gcc_except_table:0000000000000000 .LLSDA21
     /tmp/ccwzPgQx.s:912    .gcc_except_table:00000000000000a1 .LLSDA24
                           .group:0000000000000000 _ZN9SemaphoreD5Ev

UNDEFINED SYMBOLS
sem_close
__gxx_personality_v0
_ZdlPv
mem_alloc
_Znwm
sem_open
_Unwind_Resume
sem_wait
sem_signal
putc
_Z11printStringPKc
mem_free
