GAS LISTING /tmp/cclzdWfj.s 			page 1


   1              		.file	"ksemaphore.cpp"
   2              		.option nopic
   3              		.option norelax
   4              		.attribute arch, "rv64i2p0_m2p0_a2p0"
   5              		.attribute unaligned_access, 0
   6              		.attribute stack_align, 16
   7              		.text
   8              	.Ltext0:
   9              		.align	2
  10              		.globl	_ZN10KSemaphore4waitEv
  12              	_ZN10KSemaphore4waitEv:
  13              	.LFB113:
  14              		.file 1 "src/kernel/concurency/ksemaphore.cpp"
   1:src/kernel/concurency/ksemaphore.cpp **** #include"../../../h/kernel_lib.h"
   2:src/kernel/concurency/ksemaphore.cpp **** 
   3:src/kernel/concurency/ksemaphore.cpp **** KSemaphore* KSemaphore::activeSemaphores = nullptr;
   4:src/kernel/concurency/ksemaphore.cpp **** ObjectCache* KSemaphore::cache = nullptr;
   5:src/kernel/concurency/ksemaphore.cpp **** int KSemaphore::wait(){
  15              		.loc 1 5 23
  16              		.cfi_startproc
  17              	.LVL0:
   6:src/kernel/concurency/ksemaphore.cpp ****     if(val > 0)
  18              		.loc 1 6 5
  19              		.loc 1 6 8 is_stmt 0
  20 0000 83278500 		lw	a5,8(a0)
  21              		.loc 1 6 5
  22 0004 638A0700 		beq	a5,zero,.L2
   7:src/kernel/concurency/ksemaphore.cpp ****     {
   8:src/kernel/concurency/ksemaphore.cpp ****         val--;
  23              		.loc 1 8 9 is_stmt 1
  24              		.loc 1 8 12 is_stmt 0
  25 0008 9B87F7FF 		addiw	a5,a5,-1
  26 000c 2324F500 		sw	a5,8(a0)
   9:src/kernel/concurency/ksemaphore.cpp ****     }
  10:src/kernel/concurency/ksemaphore.cpp ****     else
  11:src/kernel/concurency/ksemaphore.cpp ****     {
  12:src/kernel/concurency/ksemaphore.cpp ****         TCB::running->setState(TCB::BLOCKED);
  13:src/kernel/concurency/ksemaphore.cpp ****         blocked.insert(TCB::running);
  14:src/kernel/concurency/ksemaphore.cpp ****         
  15:src/kernel/concurency/ksemaphore.cpp ****         TCB::yield();
  16:src/kernel/concurency/ksemaphore.cpp ****         
  17:src/kernel/concurency/ksemaphore.cpp ****         if(TCB::running->getState() != TCB::BLOCKED)
  18:src/kernel/concurency/ksemaphore.cpp ****             return -2;
  19:src/kernel/concurency/ksemaphore.cpp ****         TCB::running->setState(TCB::READY);
  20:src/kernel/concurency/ksemaphore.cpp ****     }
  21:src/kernel/concurency/ksemaphore.cpp ****     return 0;
  27              		.loc 1 21 12
  28 0010 13050000 		li	a0,0
  29              	.LVL1:
  22:src/kernel/concurency/ksemaphore.cpp **** }
  30              		.loc 1 22 1
  31 0014 67800000 		ret
  32              	.LVL2:
  33              	.L2:
   5:src/kernel/concurency/ksemaphore.cpp ****     if(val > 0)
  34              		.loc 1 5 23
  35 0018 130101FE 		addi	sp,sp,-32
GAS LISTING /tmp/cclzdWfj.s 			page 2


  36              		.cfi_def_cfa_offset 32
  37 001c 233C1100 		sd	ra,24(sp)
  38 0020 23388100 		sd	s0,16(sp)
  39 0024 23349100 		sd	s1,8(sp)
  40              		.cfi_offset 1, -8
  41              		.cfi_offset 8, -16
  42              		.cfi_offset 9, -24
  43 0028 13040102 		addi	s0,sp,32
  44              		.cfi_def_cfa 8, 0
  12:src/kernel/concurency/ksemaphore.cpp ****         blocked.insert(TCB::running);
  45              		.loc 1 12 9 is_stmt 1
  12:src/kernel/concurency/ksemaphore.cpp ****         blocked.insert(TCB::running);
  46              		.loc 1 12 31 is_stmt 0
  47 002c 97040000 		lla	s1,_ZN3TCB7runningE
  47      93840400 
  48 0034 83B50400 		ld	a1,0(s1)
  49              	.LVL3:
  50              	.LBB19:
  51              	.LBB20:
  52              		.file 2 "src/kernel/concurency/../../../h/../h/tcb.hpp"
   1:src/kernel/concurency/../../../h/../h/tcb.hpp **** #ifndef __tcb__h
   2:src/kernel/concurency/../../../h/../h/tcb.hpp **** #define __tcb__h
   3:src/kernel/concurency/../../../h/../h/tcb.hpp **** 
   4:src/kernel/concurency/../../../h/../h/tcb.hpp **** #include"../h/memory_allocator.hpp"
   5:src/kernel/concurency/../../../h/../h/tcb.hpp **** #include"../h/slab_allocator.h"
   6:src/kernel/concurency/../../../h/../h/tcb.hpp **** #include "object_cache.h"
   7:src/kernel/concurency/../../../h/../h/tcb.hpp **** 
   8:src/kernel/concurency/../../../h/../h/tcb.hpp **** class KSemaphore;
   9:src/kernel/concurency/../../../h/../h/tcb.hpp **** 
  10:src/kernel/concurency/../../../h/../h/tcb.hpp **** /* THREAD CONTROL BLOCK */
  11:src/kernel/concurency/../../../h/../h/tcb.hpp **** class TCB{ 
  12:src/kernel/concurency/../../../h/../h/tcb.hpp ****     
  13:src/kernel/concurency/../../../h/../h/tcb.hpp **** public:
  14:src/kernel/concurency/../../../h/../h/tcb.hpp ****     //alokacija
  15:src/kernel/concurency/../../../h/../h/tcb.hpp ****     //#include"../h/kernel_operators.hpp"
  16:src/kernel/concurency/../../../h/../h/tcb.hpp ****     
  17:src/kernel/concurency/../../../h/../h/tcb.hpp ****     void* operator new(size_t sz); 
  18:src/kernel/concurency/../../../h/../h/tcb.hpp ****     void* operator new[](size_t sz);
  19:src/kernel/concurency/../../../h/../h/tcb.hpp ****     void operator delete(void* ptr);
  20:src/kernel/concurency/../../../h/../h/tcb.hpp ****     void operator delete[](void* ptr);
  21:src/kernel/concurency/../../../h/../h/tcb.hpp **** 
  22:src/kernel/concurency/../../../h/../h/tcb.hpp ****     using Body = void (*)(void*);
  23:src/kernel/concurency/../../../h/../h/tcb.hpp ****     enum TCBState{
  24:src/kernel/concurency/../../../h/../h/tcb.hpp ****         BLOCKED,
  25:src/kernel/concurency/../../../h/../h/tcb.hpp ****         READY,
  26:src/kernel/concurency/../../../h/../h/tcb.hpp ****         FINISHED,
  27:src/kernel/concurency/../../../h/../h/tcb.hpp ****         SLEEPING,
  28:src/kernel/concurency/../../../h/../h/tcb.hpp ****         PREPARING
  29:src/kernel/concurency/../../../h/../h/tcb.hpp ****     };
  30:src/kernel/concurency/../../../h/../h/tcb.hpp ****     
  31:src/kernel/concurency/../../../h/../h/tcb.hpp ****     ~TCB(){ 
  32:src/kernel/concurency/../../../h/../h/tcb.hpp ****         if(isKernelThread()){
  33:src/kernel/concurency/../../../h/../h/tcb.hpp ****             SlabAllocator::getInstance().kfree(this->stack);
  34:src/kernel/concurency/../../../h/../h/tcb.hpp ****         }
  35:src/kernel/concurency/../../../h/../h/tcb.hpp ****         else{
  36:src/kernel/concurency/../../../h/../h/tcb.hpp ****             MemoryAllocator& allocator = MemoryAllocator::getInstance(); 
  37:src/kernel/concurency/../../../h/../h/tcb.hpp ****             allocator.mem_free(this->stack);
GAS LISTING /tmp/cclzdWfj.s 			page 3


  38:src/kernel/concurency/../../../h/../h/tcb.hpp ****         }
  39:src/kernel/concurency/../../../h/../h/tcb.hpp ****     }
  40:src/kernel/concurency/../../../h/../h/tcb.hpp ****     
  41:src/kernel/concurency/../../../h/../h/tcb.hpp ****     //nestaticki metodi
  42:src/kernel/concurency/../../../h/../h/tcb.hpp ****     void setState(TCBState s) {state = s;}
  53              		.loc 2 42 32 is_stmt 1
  54              		.loc 2 42 38 is_stmt 0
  55 0038 23A80502 		sw	zero,48(a1)
  56              	.LVL4:
  57              	.LBE20:
  58              	.LBE19:
  13:src/kernel/concurency/ksemaphore.cpp ****         
  59              		.loc 1 13 9 is_stmt 1
  13:src/kernel/concurency/ksemaphore.cpp ****         
  60              		.loc 1 13 36 is_stmt 0
  61 003c 13050501 		addi	a0,a0,16
  62              	.LVL5:
  63 0040 97000000 		call	_ZN8TcbQueue6insertEP3TCB
  63      E7800000 
  64              	.LVL6:
  15:src/kernel/concurency/ksemaphore.cpp ****         
  65              		.loc 1 15 9 is_stmt 1
  15:src/kernel/concurency/ksemaphore.cpp ****         
  66              		.loc 1 15 19 is_stmt 0
  67 0048 97000000 		call	_ZN3TCB5yieldEv
  67      E7800000 
  68              	.LVL7:
  17:src/kernel/concurency/ksemaphore.cpp ****             return -2;
  69              		.loc 1 17 9 is_stmt 1
  17:src/kernel/concurency/ksemaphore.cpp ****             return -2;
  70              		.loc 1 17 34 is_stmt 0
  71 0050 83B70400 		ld	a5,0(s1)
  72              	.LVL8:
  73              	.LBB21:
  74              	.LBB22:
  43:src/kernel/concurency/../../../h/../h/tcb.hpp ****     TCBState getState() const{ return state; }
  75              		.loc 2 43 32 is_stmt 1
  76              		.loc 2 43 39 is_stmt 0
  77 0054 03A70703 		lw	a4,48(a5)
  78              	.LVL9:
  79              	.LBE22:
  80              	.LBE21:
  17:src/kernel/concurency/ksemaphore.cpp ****             return -2;
  81              		.loc 1 17 9
  82 0058 63120702 		bne	a4,zero,.L4
  19:src/kernel/concurency/ksemaphore.cpp ****     }
  83              		.loc 1 19 9 is_stmt 1
  84              	.LVL10:
  85              	.LBB23:
  86              	.LBB24:
  42:src/kernel/concurency/../../../h/../h/tcb.hpp ****     TCBState getState() const{ return state; }
  87              		.loc 2 42 32
  42:src/kernel/concurency/../../../h/../h/tcb.hpp ****     TCBState getState() const{ return state; }
  88              		.loc 2 42 38 is_stmt 0
  89 005c 13071000 		li	a4,1
  90 0060 23A8E702 		sw	a4,48(a5)
  91              	.LBE24:
GAS LISTING /tmp/cclzdWfj.s 			page 4


  92              	.LBE23:
  21:src/kernel/concurency/ksemaphore.cpp **** }
  93              		.loc 1 21 12
  94 0064 13050000 		li	a0,0
  95              	.LVL11:
  96              	.L3:
  97              		.loc 1 22 1
  98 0068 83308101 		ld	ra,24(sp)
  99              		.cfi_remember_state
 100              		.cfi_restore 1
 101 006c 03340101 		ld	s0,16(sp)
 102              		.cfi_restore 8
 103              		.cfi_def_cfa 2, 32
 104 0070 83348100 		ld	s1,8(sp)
 105              		.cfi_restore 9
 106 0074 13010102 		addi	sp,sp,32
 107              		.cfi_def_cfa_offset 0
 108 0078 67800000 		jr	ra
 109              	.L4:
 110              		.cfi_restore_state
  18:src/kernel/concurency/ksemaphore.cpp ****         TCB::running->setState(TCB::READY);
 111              		.loc 1 18 21
 112 007c 1305E0FF 		li	a0,-2
 113 0080 6FF09FFE 		j	.L3
 114              		.cfi_endproc
 115              	.LFE113:
 117              		.align	2
 118              		.globl	_ZN10KSemaphore6signalEv
 120              	_ZN10KSemaphore6signalEv:
 121              	.LFB114:
  23:src/kernel/concurency/ksemaphore.cpp **** 
  24:src/kernel/concurency/ksemaphore.cpp **** int KSemaphore::signal()
  25:src/kernel/concurency/ksemaphore.cpp **** {
 122              		.loc 1 25 1 is_stmt 1
 123              		.cfi_startproc
 124              	.LVL12:
  26:src/kernel/concurency/ksemaphore.cpp ****     if(!blocked.isEmpty())
 125              		.loc 1 26 5
 126              	.LBB25:
 127              	.LBB26:
 128              		.file 3 "src/kernel/concurency/../../../h/../h/ptr_queue.hpp"
   1:src/kernel/concurency/../../../h/../h/ptr_queue.hpp **** #ifndef _queue_h
   2:src/kernel/concurency/../../../h/../h/ptr_queue.hpp **** #define _queue_h
   3:src/kernel/concurency/../../../h/../h/ptr_queue.hpp **** 
   4:src/kernel/concurency/../../../h/../h/ptr_queue.hpp **** //#include"../h/tcb.hpp"
   5:src/kernel/concurency/../../../h/../h/ptr_queue.hpp **** //#include"../h/testing.hpp"
   6:src/kernel/concurency/../../../h/../h/ptr_queue.hpp **** #include"../lib/hw.h"
   7:src/kernel/concurency/../../../h/../h/ptr_queue.hpp **** #include"../h/memory_allocator.hpp"
   8:src/kernel/concurency/../../../h/../h/ptr_queue.hpp **** #include "object_cache.h"
   9:src/kernel/concurency/../../../h/../h/ptr_queue.hpp **** #include "slab_allocator.h"
  10:src/kernel/concurency/../../../h/../h/ptr_queue.hpp **** 
  11:src/kernel/concurency/../../../h/../h/ptr_queue.hpp **** class TCB;
  12:src/kernel/concurency/../../../h/../h/ptr_queue.hpp **** 
  13:src/kernel/concurency/../../../h/../h/ptr_queue.hpp **** class TcbQueue{
  14:src/kernel/concurency/../../../h/../h/ptr_queue.hpp ****        
  15:src/kernel/concurency/../../../h/../h/ptr_queue.hpp ****     TCB *head, *tail;
  16:src/kernel/concurency/../../../h/../h/ptr_queue.hpp ****     int tmpNum;
GAS LISTING /tmp/cclzdWfj.s 			page 5


  17:src/kernel/concurency/../../../h/../h/ptr_queue.hpp ****     void brisi(){
  18:src/kernel/concurency/../../../h/../h/ptr_queue.hpp ****         while(!isEmpty())
  19:src/kernel/concurency/../../../h/../h/ptr_queue.hpp ****             remove();
  20:src/kernel/concurency/../../../h/../h/ptr_queue.hpp ****     }
  21:src/kernel/concurency/../../../h/../h/ptr_queue.hpp ****     static ObjectCache* cache;
  22:src/kernel/concurency/../../../h/../h/ptr_queue.hpp **** public:
  23:src/kernel/concurency/../../../h/../h/ptr_queue.hpp ****     //#include"../h/kernel_operators.hpp"
  24:src/kernel/concurency/../../../h/../h/ptr_queue.hpp **** 
  25:src/kernel/concurency/../../../h/../h/ptr_queue.hpp ****     __SLAB_ALLOCATION__(TcbQueue, nullptr, nullptr);
  26:src/kernel/concurency/../../../h/../h/ptr_queue.hpp ****     TcbQueue():head(nullptr), tail(nullptr), tmpNum(0){}
  27:src/kernel/concurency/../../../h/../h/ptr_queue.hpp ****     
  28:src/kernel/concurency/../../../h/../h/ptr_queue.hpp ****     bool exists(TCB* info) const;
  29:src/kernel/concurency/../../../h/../h/ptr_queue.hpp **** 
  30:src/kernel/concurency/../../../h/../h/ptr_queue.hpp ****     TcbQueue& insert(TCB* info);
  31:src/kernel/concurency/../../../h/../h/ptr_queue.hpp ****    
  32:src/kernel/concurency/../../../h/../h/ptr_queue.hpp ****     TCB* remove();
  33:src/kernel/concurency/../../../h/../h/ptr_queue.hpp **** 
  34:src/kernel/concurency/../../../h/../h/ptr_queue.hpp ****     TCB* top();
  35:src/kernel/concurency/../../../h/../h/ptr_queue.hpp **** 
  36:src/kernel/concurency/../../../h/../h/ptr_queue.hpp ****     bool isEmpty() { return !head; }
 129              		.loc 3 36 22
 130              		.loc 3 36 30 is_stmt 0
 131 0084 83370501 		ld	a5,16(a0)
 132              	.LVL13:
 133              	.LBE26:
 134              	.LBE25:
 135              		.loc 1 26 5
 136 0088 638E0702 		beq	a5,zero,.L9
  25:src/kernel/concurency/ksemaphore.cpp ****     if(!blocked.isEmpty())
 137              		.loc 1 25 1
 138 008c 130101FF 		addi	sp,sp,-16
 139              		.cfi_def_cfa_offset 16
 140 0090 23341100 		sd	ra,8(sp)
 141 0094 23308100 		sd	s0,0(sp)
 142              		.cfi_offset 1, -8
 143              		.cfi_offset 8, -16
 144 0098 13040101 		addi	s0,sp,16
 145              		.cfi_def_cfa 8, 0
  27:src/kernel/concurency/ksemaphore.cpp ****         Scheduler::put(blocked.remove());
 146              		.loc 1 27 9 is_stmt 1
 147              		.loc 1 27 23 is_stmt 0
 148 009c 13050501 		addi	a0,a0,16
 149              	.LVL14:
 150 00a0 97000000 		call	_ZN8TcbQueue6removeEv
 150      E7800000 
 151              	.LVL15:
 152 00a8 97000000 		call	_ZN9Scheduler3putEP3TCB
 152      E7800000 
 153              	.LVL16:
  28:src/kernel/concurency/ksemaphore.cpp ****     else
  29:src/kernel/concurency/ksemaphore.cpp ****         val++;
  30:src/kernel/concurency/ksemaphore.cpp ****     return 0;
 154              		.loc 1 30 5 is_stmt 1
  31:src/kernel/concurency/ksemaphore.cpp **** }
 155              		.loc 1 31 1 is_stmt 0
 156 00b0 13050000 		li	a0,0
 157 00b4 83308100 		ld	ra,8(sp)
GAS LISTING /tmp/cclzdWfj.s 			page 6


 158              		.cfi_restore 1
 159 00b8 03340100 		ld	s0,0(sp)
 160              		.cfi_restore 8
 161              		.cfi_def_cfa 2, 16
 162 00bc 13010101 		addi	sp,sp,16
 163              		.cfi_def_cfa_offset 0
 164 00c0 67800000 		jr	ra
 165              	.LVL17:
 166              	.L9:
  29:src/kernel/concurency/ksemaphore.cpp ****     return 0;
 167              		.loc 1 29 9 is_stmt 1
 168 00c4 83278500 		lw	a5,8(a0)
  29:src/kernel/concurency/ksemaphore.cpp ****     return 0;
 169              		.loc 1 29 12 is_stmt 0
 170 00c8 9B871700 		addiw	a5,a5,1
 171 00cc 2324F500 		sw	a5,8(a0)
  30:src/kernel/concurency/ksemaphore.cpp **** }
 172              		.loc 1 30 5 is_stmt 1
 173              		.loc 1 31 1 is_stmt 0
 174 00d0 13050000 		li	a0,0
 175              	.LVL18:
 176 00d4 67800000 		ret
 177              		.cfi_endproc
 178              	.LFE114:
 180              		.align	2
 181              		.globl	_ZN10KSemaphoreD2Ev
 183              	_ZN10KSemaphoreD2Ev:
 184              	.LFB116:
  32:src/kernel/concurency/ksemaphore.cpp **** 
  33:src/kernel/concurency/ksemaphore.cpp **** KSemaphore::~KSemaphore()
 185              		.loc 1 33 1 is_stmt 1
 186              		.cfi_startproc
 187              		.cfi_personality 0x9b,DW.ref.__gxx_personality_v0
 188              		.cfi_lsda 0x1b,.LLSDA116
 189              	.LVL19:
 190 00d8 130101FE 		addi	sp,sp,-32
 191              		.cfi_def_cfa_offset 32
 192 00dc 233C1100 		sd	ra,24(sp)
 193 00e0 23388100 		sd	s0,16(sp)
 194 00e4 23349100 		sd	s1,8(sp)
 195              		.cfi_offset 1, -8
 196              		.cfi_offset 8, -16
 197              		.cfi_offset 9, -24
 198 00e8 13040102 		addi	s0,sp,32
 199              		.cfi_def_cfa 8, 0
 200 00ec 93040500 		mv	s1,a0
 201              	.LVL20:
 202              	.L17:
 203              	.LBB27:
  34:src/kernel/concurency/ksemaphore.cpp **** {
  35:src/kernel/concurency/ksemaphore.cpp ****     while(!blocked.isEmpty()){
 204              		.loc 1 35 5
 205              	.LBB28:
 206              	.LBB29:
 207              		.loc 3 36 22
 208              		.loc 3 36 30 is_stmt 0
 209 00f0 83B70401 		ld	a5,16(s1)
GAS LISTING /tmp/cclzdWfj.s 			page 7


 210              	.LVL21:
 211              	.LBE29:
 212              	.LBE28:
 213              		.loc 1 35 11
 214 00f4 63820702 		beq	a5,zero,.L15
 215              	.LBB30:
  36:src/kernel/concurency/ksemaphore.cpp ****         TCB* t = blocked.remove();
 216              		.loc 1 36 9 is_stmt 1
 217              		.loc 1 36 32 is_stmt 0
 218 00f8 13850401 		addi	a0,s1,16
 219 00fc 97000000 		call	_ZN8TcbQueue6removeEv
 219      E7800000 
 220              	.LVL22:
  37:src/kernel/concurency/ksemaphore.cpp ****         t->setState(TCB::READY);
 221              		.loc 1 37 9 is_stmt 1
 222              	.LBB31:
 223              	.LBB32:
  42:src/kernel/concurency/../../../h/../h/tcb.hpp ****     TCBState getState() const{ return state; }
 224              		.loc 2 42 32
  42:src/kernel/concurency/../../../h/../h/tcb.hpp ****     TCBState getState() const{ return state; }
 225              		.loc 2 42 38 is_stmt 0
 226 0104 93071000 		li	a5,1
 227 0108 2328F502 		sw	a5,48(a0)
 228              	.LVL23:
 229              	.LBE32:
 230              	.LBE31:
  38:src/kernel/concurency/ksemaphore.cpp ****         Scheduler::put(t);
 231              		.loc 1 38 9 is_stmt 1
 232              		.loc 1 38 23 is_stmt 0
 233 010c 97000000 		call	_ZN9Scheduler3putEP3TCB
 233      E7800000 
 234              	.LVL24:
 235              	.LBE30:
  35:src/kernel/concurency/ksemaphore.cpp ****         TCB* t = blocked.remove();
 236              		.loc 1 35 5
 237 0114 6FF0DFFD 		j	.L17
 238              	.L15:
 239              	.LBE27:
  39:src/kernel/concurency/ksemaphore.cpp ****     }
  40:src/kernel/concurency/ksemaphore.cpp **** }
 240              		.loc 1 40 1
 241 0118 83308101 		ld	ra,24(sp)
 242              		.cfi_restore 1
 243 011c 03340101 		ld	s0,16(sp)
 244              		.cfi_restore 8
 245              		.cfi_def_cfa 2, 32
 246 0120 83348100 		ld	s1,8(sp)
 247              		.cfi_restore 9
 248              	.LVL25:
 249 0124 13010102 		addi	sp,sp,32
 250              		.cfi_def_cfa_offset 0
 251 0128 67800000 		jr	ra
 252              		.cfi_endproc
 253              	.LFE116:
 254              		.globl	__gxx_personality_v0
 255              		.section	.gcc_except_table,"aw",@progbits
 256              	.LLSDA116:
GAS LISTING /tmp/cclzdWfj.s 			page 8


 257 0000 FF       		.byte	0xff
 258 0001 FF       		.byte	0xff
 259 0002 03       		.byte	0x3
 260 0003 00       		.byte	0
 261              		.text
 263              		.globl	_ZN10KSemaphoreD1Ev
 264              		.set	_ZN10KSemaphoreD1Ev,_ZN10KSemaphoreD2Ev
 265              		.align	2
 266              		.globl	_ZN10KSemaphore5closeEPS_
 268              	_ZN10KSemaphore5closeEPS_:
 269              	.LFB118:
  41:src/kernel/concurency/ksemaphore.cpp **** 
  42:src/kernel/concurency/ksemaphore.cpp **** int KSemaphore::close(KSemaphore* sem)
  43:src/kernel/concurency/ksemaphore.cpp **** {
 270              		.loc 1 43 1 is_stmt 1
 271              		.cfi_startproc
 272              	.LVL26:
 273 012c 130101FE 		addi	sp,sp,-32
 274              		.cfi_def_cfa_offset 32
 275 0130 233C1100 		sd	ra,24(sp)
 276 0134 23388100 		sd	s0,16(sp)
 277 0138 23349100 		sd	s1,8(sp)
 278              		.cfi_offset 1, -8
 279              		.cfi_offset 8, -16
 280              		.cfi_offset 9, -24
 281 013c 13040102 		addi	s0,sp,32
 282              		.cfi_def_cfa 8, 0
  44:src/kernel/concurency/ksemaphore.cpp ****     KSemaphore* prev = nullptr,* cur = activeSemaphores;
 283              		.loc 1 44 5
 284              	.LVL27:
 285              		.loc 1 44 34 is_stmt 0
 286 0140 97070000 		lla	a5,_ZN10KSemaphore16activeSemaphoresE
 286      93870700 
 287 0148 83B40700 		ld	s1,0(a5)
 288              	.LVL28:
 289              		.loc 1 44 17
 290 014c 93070000 		li	a5,0
 291              	.LVL29:
 292              	.L21:
  45:src/kernel/concurency/ksemaphore.cpp ****     while(cur)
 293              		.loc 1 45 5 is_stmt 1
 294              		.loc 1 45 11 is_stmt 0
 295 0150 638A0400 		beq	s1,zero,.L20
  46:src/kernel/concurency/ksemaphore.cpp ****     {
  47:src/kernel/concurency/ksemaphore.cpp ****         if(cur == sem)
 296              		.loc 1 47 9 is_stmt 1
 297 0154 6388A400 		beq	s1,a0,.L20
  48:src/kernel/concurency/ksemaphore.cpp ****             break;
  49:src/kernel/concurency/ksemaphore.cpp ****         prev = cur;
 298              		.loc 1 49 9
 299              	.LVL30:
  50:src/kernel/concurency/ksemaphore.cpp ****         cur = cur->next;
 300              		.loc 1 50 9
  49:src/kernel/concurency/ksemaphore.cpp ****         cur = cur->next;
 301              		.loc 1 49 14 is_stmt 0
 302 0158 93870400 		mv	a5,s1
 303              		.loc 1 50 13
GAS LISTING /tmp/cclzdWfj.s 			page 9


 304 015c 83B40400 		ld	s1,0(s1)
 305              	.LVL31:
  45:src/kernel/concurency/ksemaphore.cpp ****     {
 306              		.loc 1 45 5
 307 0160 6FF01FFF 		j	.L21
 308              	.L20:
  51:src/kernel/concurency/ksemaphore.cpp ****     }
  52:src/kernel/concurency/ksemaphore.cpp ****     if(cur)
 309              		.loc 1 52 5 is_stmt 1
 310 0164 63800406 		beq	s1,zero,.L25
  53:src/kernel/concurency/ksemaphore.cpp ****     {
  54:src/kernel/concurency/ksemaphore.cpp ****         if(prev)
 311              		.loc 1 54 9
 312 0168 63860704 		beq	a5,zero,.L23
  55:src/kernel/concurency/ksemaphore.cpp ****             prev->next = cur->next;
 313              		.loc 1 55 13
 314              		.loc 1 55 31 is_stmt 0
 315 016c 03B70400 		ld	a4,0(s1)
 316              		.loc 1 55 24
 317 0170 23B0E700 		sd	a4,0(a5)
 318              	.LVL32:
 319              	.L24:
  56:src/kernel/concurency/ksemaphore.cpp ****         else
  57:src/kernel/concurency/ksemaphore.cpp ****             activeSemaphores = cur->next;
  58:src/kernel/concurency/ksemaphore.cpp ****         cur->next = nullptr;
 320              		.loc 1 58 9 is_stmt 1
 321              		.loc 1 58 19 is_stmt 0
 322 0174 23B00400 		sd	zero,0(s1)
  59:src/kernel/concurency/ksemaphore.cpp ****         delete cur;
 323              		.loc 1 59 9 is_stmt 1
 324              		.loc 1 59 16 is_stmt 0
 325 0178 13850400 		mv	a0,s1
 326              	.LVL33:
 327 017c 97000000 		call	_ZN10KSemaphoreD1Ev
 327      E7800000 
 328              	.LVL34:
 329              	.LBB33:
 330              	.LBB34:
 331              		.file 4 "src/kernel/concurency/../../../h/../h/ksemaphore.hpp"
   1:src/kernel/concurency/../../../h/../h/ksemaphore.hpp **** #ifndef __semaphore__
   2:src/kernel/concurency/../../../h/../h/ksemaphore.hpp **** #define __semaphore__
   3:src/kernel/concurency/../../../h/../h/ksemaphore.hpp **** 
   4:src/kernel/concurency/../../../h/../h/ksemaphore.hpp **** #include"../h/ptr_queue.hpp"
   5:src/kernel/concurency/../../../h/../h/ksemaphore.hpp **** #include "slab_allocator.h"
   6:src/kernel/concurency/../../../h/../h/ksemaphore.hpp **** 
   7:src/kernel/concurency/../../../h/../h/ksemaphore.hpp **** /* Class used to describe semaphore in kernel code */
   8:src/kernel/concurency/../../../h/../h/ksemaphore.hpp **** 
   9:src/kernel/concurency/../../../h/../h/ksemaphore.hpp **** class KSemaphore
  10:src/kernel/concurency/../../../h/../h/ksemaphore.hpp **** {
  11:src/kernel/concurency/../../../h/../h/ksemaphore.hpp ****     static ObjectCache* cache; 
  12:src/kernel/concurency/../../../h/../h/ksemaphore.hpp **** public:
  13:src/kernel/concurency/../../../h/../h/ksemaphore.hpp ****     //#include"../h/kernel_operators.hpp" /* allocation and deallocation */
  14:src/kernel/concurency/../../../h/../h/ksemaphore.hpp ****     
  15:src/kernel/concurency/../../../h/../h/ksemaphore.hpp ****     __SLAB_ALLOCATION__(KSemaphore, nullptr, nullptr)
 332              		.loc 4 15 5 is_stmt 1
 333 0184 93850400 		mv	a1,s1
 334 0188 97070000 		lla	a5,_ZN10KSemaphore5cacheE
GAS LISTING /tmp/cclzdWfj.s 			page 10


 334      93870700 
 335 0190 03B50700 		ld	a0,0(a5)
 336 0194 97000000 		call	_ZN11ObjectCache8free_objEPv
 336      E7800000 
 337              	.LVL35:
 338              	.LBE34:
 339              	.LBE33:
  60:src/kernel/concurency/ksemaphore.cpp ****         return 0;
 340              		.loc 1 60 9
 341              		.loc 1 60 16 is_stmt 0
 342 019c 13050000 		li	a0,0
 343              	.LVL36:
 344              	.L22:
  61:src/kernel/concurency/ksemaphore.cpp ****     }
  62:src/kernel/concurency/ksemaphore.cpp ****     else return -1;
  63:src/kernel/concurency/ksemaphore.cpp **** 
  64:src/kernel/concurency/ksemaphore.cpp **** }
 345              		.loc 1 64 1
 346 01a0 83308101 		ld	ra,24(sp)
 347              		.cfi_remember_state
 348              		.cfi_restore 1
 349 01a4 03340101 		ld	s0,16(sp)
 350              		.cfi_restore 8
 351              		.cfi_def_cfa 2, 32
 352 01a8 83348100 		ld	s1,8(sp)
 353              		.cfi_restore 9
 354              	.LVL37:
 355 01ac 13010102 		addi	sp,sp,32
 356              		.cfi_def_cfa_offset 0
 357 01b0 67800000 		jr	ra
 358              	.LVL38:
 359              	.L23:
 360              		.cfi_restore_state
  57:src/kernel/concurency/ksemaphore.cpp ****         cur->next = nullptr;
 361              		.loc 1 57 13 is_stmt 1
  57:src/kernel/concurency/ksemaphore.cpp ****         cur->next = nullptr;
 362              		.loc 1 57 37 is_stmt 0
 363 01b4 83B70400 		ld	a5,0(s1)
 364              	.LVL39:
  57:src/kernel/concurency/ksemaphore.cpp ****         cur->next = nullptr;
 365              		.loc 1 57 30
 366 01b8 17070000 		sd	a5,_ZN10KSemaphore16activeSemaphoresE,a4
 366      2330F700 
 367 01c0 6FF05FFB 		j	.L24
 368              	.LVL40:
 369              	.L25:
  62:src/kernel/concurency/ksemaphore.cpp **** 
 370              		.loc 1 62 18
 371 01c4 1305F0FF 		li	a0,-1
 372              	.LVL41:
 373 01c8 6FF09FFD 		j	.L22
 374              		.cfi_endproc
 375              	.LFE118:
 377              		.align	2
 378              		.globl	_ZN10KSemaphore6existsEPS_
 380              	_ZN10KSemaphore6existsEPS_:
 381              	.LFB119:
GAS LISTING /tmp/cclzdWfj.s 			page 11


  65:src/kernel/concurency/ksemaphore.cpp **** 
  66:src/kernel/concurency/ksemaphore.cpp **** bool KSemaphore::exists(KSemaphore* sem)
  67:src/kernel/concurency/ksemaphore.cpp **** {
 382              		.loc 1 67 1 is_stmt 1
 383              		.cfi_startproc
 384              	.LVL42:
 385 01cc 130101FF 		addi	sp,sp,-16
 386              		.cfi_def_cfa_offset 16
 387 01d0 23348100 		sd	s0,8(sp)
 388              		.cfi_offset 8, -8
 389 01d4 13040101 		addi	s0,sp,16
 390              		.cfi_def_cfa 8, 0
  68:src/kernel/concurency/ksemaphore.cpp ****     KSemaphore* cur = activeSemaphores;
 391              		.loc 1 68 5
 392              		.loc 1 68 17 is_stmt 0
 393 01d8 97070000 		lla	a5,_ZN10KSemaphore16activeSemaphoresE
 393      93870700 
 394 01e0 83B70700 		ld	a5,0(a5)
 395              	.LVL43:
 396              	.L29:
  69:src/kernel/concurency/ksemaphore.cpp ****     while(cur)
 397              		.loc 1 69 5 is_stmt 1
 398              		.loc 1 69 11 is_stmt 0
 399 01e4 63880700 		beq	a5,zero,.L30
  70:src/kernel/concurency/ksemaphore.cpp ****     {
  71:src/kernel/concurency/ksemaphore.cpp ****         if(cur == sem)
 400              		.loc 1 71 9 is_stmt 1
 401 01e8 638EA700 		beq	a5,a0,.L31
  72:src/kernel/concurency/ksemaphore.cpp ****             return true;
  73:src/kernel/concurency/ksemaphore.cpp ****         cur = cur->next;
 402              		.loc 1 73 9
 403              		.loc 1 73 13 is_stmt 0
 404 01ec 83B70700 		ld	a5,0(a5)
 405              	.LVL44:
  69:src/kernel/concurency/ksemaphore.cpp ****     {
 406              		.loc 1 69 5
 407 01f0 6FF05FFF 		j	.L29
 408              	.L30:
  74:src/kernel/concurency/ksemaphore.cpp ****     }
  75:src/kernel/concurency/ksemaphore.cpp ****     return false;
 409              		.loc 1 75 12
 410 01f4 13050000 		li	a0,0
 411              	.LVL45:
 412              	.L28:
  76:src/kernel/concurency/ksemaphore.cpp **** }
 413              		.loc 1 76 1
 414 01f8 03348100 		ld	s0,8(sp)
 415              		.cfi_remember_state
 416              		.cfi_restore 8
 417              		.cfi_def_cfa 2, 16
 418 01fc 13010101 		addi	sp,sp,16
 419              		.cfi_def_cfa_offset 0
 420 0200 67800000 		jr	ra
 421              	.LVL46:
 422              	.L31:
 423              		.cfi_restore_state
  72:src/kernel/concurency/ksemaphore.cpp ****         cur = cur->next;
GAS LISTING /tmp/cclzdWfj.s 			page 12


 424              		.loc 1 72 20
 425 0204 13051000 		li	a0,1
 426              	.LVL47:
 427 0208 6FF01FFF 		j	.L28
 428              		.cfi_endproc
 429              	.LFE119:
 431              		.globl	_ZN10KSemaphore5cacheE
 432              		.globl	_ZN10KSemaphore16activeSemaphoresE
 433              		.section	.sbss,"aw",@nobits
 434              		.align	3
 437              	_ZN10KSemaphore5cacheE:
 438 0000 00000000 		.zero	8
 438      00000000 
 441              	_ZN10KSemaphore16activeSemaphoresE:
 442 0008 00000000 		.zero	8
 442      00000000 
 443              		.text
 444              	.Letext0:
 445              		.file 5 "src/kernel/concurency/../../../h/../h/../lib/hw.h"
 446              		.file 6 "src/kernel/concurency/../../../h/../h/../h/../h/list.h"
 447              		.file 7 "src/kernel/concurency/../../../h/../h/../h/object_cache.h"
 448              		.file 8 "src/kernel/concurency/../../../h/../h/slab_allocator.h"
 449              		.file 9 "src/kernel/concurency/../../../h/../h/scheduler.hpp"
 450              		.file 10 "src/kernel/concurency/../../../h/kernel_lib.h"
 4836              		.align	3
 4839              	DW.ref.__gxx_personality_v0:
 4840 0000 00000000 		.dword	__gxx_personality_v0
 4840      00000000 
 4841              		.ident	"GCC: () 8.3.0"
GAS LISTING /tmp/cclzdWfj.s 			page 13

