GAS LISTING /tmp/cc4cyZKY.s 			page 1


   1              		.file	"scheduler.cpp"
   2              		.option nopic
   3              		.option norelax
   4              		.attribute arch, "rv64i2p0_m2p0_a2p0"
   5              		.attribute unaligned_access, 0
   6              		.attribute stack_align, 16
   7              		.text
   8              	.Ltext0:
   9              		.align	2
  10              		.globl	_ZN9Scheduler3cmpEP3TCBS1_
  12              	_ZN9Scheduler3cmpEP3TCBS1_:
  13              	.LFB41:
  14              		.file 1 "src/kernel/concurency/scheduler.cpp"
   1:src/kernel/concurency/scheduler.cpp **** #include"../../../h/ptr_queue.hpp"
   2:src/kernel/concurency/scheduler.cpp **** #include"../../../h/tcb.hpp"
   3:src/kernel/concurency/scheduler.cpp **** #include"../../../h/scheduler.hpp"
   4:src/kernel/concurency/scheduler.cpp **** 
   5:src/kernel/concurency/scheduler.cpp **** TcbQueue Scheduler::queue;
   6:src/kernel/concurency/scheduler.cpp **** TcbQueue Scheduler::sleeping;
   7:src/kernel/concurency/scheduler.cpp **** 
   8:src/kernel/concurency/scheduler.cpp **** 
   9:src/kernel/concurency/scheduler.cpp **** TCB* Scheduler::get() { return queue.remove(); }
  10:src/kernel/concurency/scheduler.cpp **** 
  11:src/kernel/concurency/scheduler.cpp **** void Scheduler::put(TCB* ptr) { queue.insert(ptr); }
  12:src/kernel/concurency/scheduler.cpp **** 
  13:src/kernel/concurency/scheduler.cpp **** void Scheduler::initalize(){}
  14:src/kernel/concurency/scheduler.cpp **** 
  15:src/kernel/concurency/scheduler.cpp **** void Scheduler::finalize(){}
  16:src/kernel/concurency/scheduler.cpp **** 
  17:src/kernel/concurency/scheduler.cpp **** void Scheduler::print_queue() { queue.printQueue(); }
  18:src/kernel/concurency/scheduler.cpp **** 
  19:src/kernel/concurency/scheduler.cpp **** int Scheduler::cmp(TCB* x1, TCB* x2)
  20:src/kernel/concurency/scheduler.cpp **** {
  15              		.loc 1 20 1
  16              		.cfi_startproc
  17              	.LVL0:
  18 0000 130101FF 		addi	sp,sp,-16
  19              		.cfi_def_cfa_offset 16
  20 0004 23348100 		sd	s0,8(sp)
  21              		.cfi_offset 8, -8
  22 0008 13040101 		addi	s0,sp,16
  23              		.cfi_def_cfa 8, 0
  21:src/kernel/concurency/scheduler.cpp ****     int diff = (int)x1->sleep_time-(int)x2->sleep_time;
  24              		.loc 1 21 5
  25              		.loc 1 21 35 is_stmt 0
  26 000c 83268500 		lw	a3,8(a0)
  27 0010 03A78500 		lw	a4,8(a1)
  28              		.loc 1 21 9
  29 0014 BB87E640 		subw	a5,a3,a4
  30              	.LVL1:
  22:src/kernel/concurency/scheduler.cpp ****     if(diff>=0)
  31              		.loc 1 22 5 is_stmt 1
  32 0018 63CC0700 		blt	a5,zero,.L2
  23:src/kernel/concurency/scheduler.cpp ****         x1->sleep_time = diff;
  33              		.loc 1 23 9
  34              		.loc 1 23 24 is_stmt 0
  35 001c 2334F500 		sd	a5,8(a0)
GAS LISTING /tmp/cc4cyZKY.s 			page 2


  36              	.LVL2:
  37              	.L3:
  24:src/kernel/concurency/scheduler.cpp ****     else
  25:src/kernel/concurency/scheduler.cpp ****         x2->sleep_time = -diff;
  26:src/kernel/concurency/scheduler.cpp ****     return diff;
  38              		.loc 1 26 5 is_stmt 1
  27:src/kernel/concurency/scheduler.cpp **** }
  39              		.loc 1 27 1 is_stmt 0
  40 0020 13850700 		mv	a0,a5
  41              	.LVL3:
  42 0024 03348100 		ld	s0,8(sp)
  43              		.cfi_remember_state
  44              		.cfi_restore 8
  45              		.cfi_def_cfa 2, 16
  46 0028 13010101 		addi	sp,sp,16
  47              		.cfi_def_cfa_offset 0
  48 002c 67800000 		jr	ra
  49              	.LVL4:
  50              	.L2:
  51              		.cfi_restore_state
  25:src/kernel/concurency/scheduler.cpp ****     return diff;
  52              		.loc 1 25 9 is_stmt 1
  25:src/kernel/concurency/scheduler.cpp ****     return diff;
  53              		.loc 1 25 26 is_stmt 0
  54 0030 3B07D740 		subw	a4,a4,a3
  55              	.LVL5:
  25:src/kernel/concurency/scheduler.cpp ****     return diff;
  56              		.loc 1 25 24
  57 0034 23B4E500 		sd	a4,8(a1)
  58              	.LVL6:
  59 0038 6FF09FFE 		j	.L3
  60              		.cfi_endproc
  61              	.LFE41:
  63              		.align	2
  65              	_Z41__static_initialization_and_destruction_0ii:
  66              	.LFB44:
  28:src/kernel/concurency/scheduler.cpp **** 
  29:src/kernel/concurency/scheduler.cpp **** void Scheduler::put_sleeper(TCB* t, time_t time)
  30:src/kernel/concurency/scheduler.cpp **** {
  31:src/kernel/concurency/scheduler.cpp ****     t->sleep_time = time;
  32:src/kernel/concurency/scheduler.cpp ****     sleeping.insertSorted(t, cmp);  
  33:src/kernel/concurency/scheduler.cpp **** }
  34:src/kernel/concurency/scheduler.cpp **** 
  35:src/kernel/concurency/scheduler.cpp **** void Scheduler::update_sleep()
  36:src/kernel/concurency/scheduler.cpp **** {
  37:src/kernel/concurency/scheduler.cpp ****     TCB* t = sleeping.top();
  38:src/kernel/concurency/scheduler.cpp ****     if(t == nullptr) return;
  39:src/kernel/concurency/scheduler.cpp ****     t->sleep_time--;
  40:src/kernel/concurency/scheduler.cpp ****     while(t && t->sleep_time == 0){
  41:src/kernel/concurency/scheduler.cpp ****         sleeping.remove();
  42:src/kernel/concurency/scheduler.cpp ****         
  43:src/kernel/concurency/scheduler.cpp ****         t->setState(TCB::READY);
  44:src/kernel/concurency/scheduler.cpp ****         put(t);
  45:src/kernel/concurency/scheduler.cpp ****         
  46:src/kernel/concurency/scheduler.cpp ****         t = sleeping.top();
  47:src/kernel/concurency/scheduler.cpp ****     }
  48:src/kernel/concurency/scheduler.cpp **** }...
GAS LISTING /tmp/cc4cyZKY.s 			page 3


  67              		.loc 1 48 1 is_stmt 1
  68              		.cfi_startproc
  69              	.LVL7:
  70 003c 130101FF 		addi	sp,sp,-16
  71              		.cfi_def_cfa_offset 16
  72 0040 23348100 		sd	s0,8(sp)
  73              		.cfi_offset 8, -8
  74 0044 13040101 		addi	s0,sp,16
  75              		.cfi_def_cfa 8, 0
  76              		.loc 1 48 1 is_stmt 0
  77 0048 93071000 		li	a5,1
  78 004c 6308F500 		beq	a0,a5,.L8
  79              	.L5:
  80 0050 03348100 		ld	s0,8(sp)
  81              		.cfi_remember_state
  82              		.cfi_restore 8
  83              		.cfi_def_cfa 2, 16
  84 0054 13010101 		addi	sp,sp,16
  85              		.cfi_def_cfa_offset 0
  86 0058 67800000 		jr	ra
  87              	.L8:
  88              		.cfi_restore_state
  89              		.loc 1 48 1 discriminator 1
  90 005c B7070100 		li	a5,65536
  91 0060 9387F7FF 		addi	a5,a5,-1
  92 0064 E396F5FE 		bne	a1,a5,.L5
  93              	.LVL8:
  94              	.LBB10:
  95              	.LBB11:
  96              	.LBB12:
  97              		.file 2 "src/kernel/concurency/../../../h/ptr_queue.hpp"
   1:src/kernel/concurency/../../../h/ptr_queue.hpp **** #ifndef _queue_h
   2:src/kernel/concurency/../../../h/ptr_queue.hpp **** #define _queue_h
   3:src/kernel/concurency/../../../h/ptr_queue.hpp **** 
   4:src/kernel/concurency/../../../h/ptr_queue.hpp **** //#include"../h/tcb.hpp"
   5:src/kernel/concurency/../../../h/ptr_queue.hpp **** //#include"../h/testing.hpp"
   6:src/kernel/concurency/../../../h/ptr_queue.hpp **** #include"../lib/hw.h"
   7:src/kernel/concurency/../../../h/ptr_queue.hpp **** #include"../h/memory_allocator.hpp"
   8:src/kernel/concurency/../../../h/ptr_queue.hpp **** #include "object_cache.h"
   9:src/kernel/concurency/../../../h/ptr_queue.hpp **** #include "slab_allocator.h"
  10:src/kernel/concurency/../../../h/ptr_queue.hpp **** 
  11:src/kernel/concurency/../../../h/ptr_queue.hpp **** class TCB;
  12:src/kernel/concurency/../../../h/ptr_queue.hpp **** 
  13:src/kernel/concurency/../../../h/ptr_queue.hpp **** class TcbQueue{
  14:src/kernel/concurency/../../../h/ptr_queue.hpp ****        
  15:src/kernel/concurency/../../../h/ptr_queue.hpp ****     TCB *head, *tail;
  16:src/kernel/concurency/../../../h/ptr_queue.hpp ****     int tmpNum;
  17:src/kernel/concurency/../../../h/ptr_queue.hpp ****     void brisi(){
  18:src/kernel/concurency/../../../h/ptr_queue.hpp ****         while(!isEmpty())
  19:src/kernel/concurency/../../../h/ptr_queue.hpp ****             remove();
  20:src/kernel/concurency/../../../h/ptr_queue.hpp ****     }
  21:src/kernel/concurency/../../../h/ptr_queue.hpp ****     static ObjectCache* cache;
  22:src/kernel/concurency/../../../h/ptr_queue.hpp **** public:
  23:src/kernel/concurency/../../../h/ptr_queue.hpp ****     //#include"../h/kernel_operators.hpp"
  24:src/kernel/concurency/../../../h/ptr_queue.hpp **** 
  25:src/kernel/concurency/../../../h/ptr_queue.hpp ****     __SLAB_ALLOCATION__(TcbQueue, nullptr, nullptr);
  26:src/kernel/concurency/../../../h/ptr_queue.hpp ****     TcbQueue():head(nullptr), tail(nullptr), tmpNum(0){}
GAS LISTING /tmp/cc4cyZKY.s 			page 4


  98              		.loc 2 26 54
  99 0068 97070000 		lla	a5,.LANCHOR0
  99      93870700 
 100 0070 23B00700 		sd	zero,0(a5)
 101 0074 23B40700 		sd	zero,8(a5)
 102 0078 23A80700 		sw	zero,16(a5)
 103              	.LVL9:
 104              	.LBE12:
 105              	.LBE11:
 106              	.LBE10:
 107              	.LBB13:
 108              	.LBB14:
 109              	.LBB15:
 110 007c 23BC0700 		sd	zero,24(a5)
 111 0080 23B00702 		sd	zero,32(a5)
 112 0084 23A40702 		sw	zero,40(a5)
 113              	.LBE15:
 114              	.LBE14:
 115              	.LBE13:
 116              		.loc 1 48 1
 117 0088 6FF09FFC 		j	.L5
 118              		.cfi_endproc
 119              	.LFE44:
 121              		.align	2
 122              		.globl	_ZN9Scheduler3getEv
 124              	_ZN9Scheduler3getEv:
 125              	.LFB36:
   9:src/kernel/concurency/scheduler.cpp **** TCB* Scheduler::get() { return queue.remove(); }
 126              		.loc 1 9 23 is_stmt 1
 127              		.cfi_startproc
 128 008c 130101FF 		addi	sp,sp,-16
 129              		.cfi_def_cfa_offset 16
 130 0090 23341100 		sd	ra,8(sp)
 131 0094 23308100 		sd	s0,0(sp)
 132              		.cfi_offset 1, -8
 133              		.cfi_offset 8, -16
 134 0098 13040101 		addi	s0,sp,16
 135              		.cfi_def_cfa 8, 0
   9:src/kernel/concurency/scheduler.cpp **** TCB* Scheduler::get() { return queue.remove(); }
 136              		.loc 1 9 25
   9:src/kernel/concurency/scheduler.cpp **** TCB* Scheduler::get() { return queue.remove(); }
 137              		.loc 1 9 44 is_stmt 0
 138 009c 17050000 		lla	a0,.LANCHOR0
 138      13050500 
 139 00a4 97000000 		call	_ZN8TcbQueue6removeEv
 139      E7800000 
 140              	.LVL10:
   9:src/kernel/concurency/scheduler.cpp **** TCB* Scheduler::get() { return queue.remove(); }
 141              		.loc 1 9 48
 142 00ac 83308100 		ld	ra,8(sp)
 143              		.cfi_restore 1
 144 00b0 03340100 		ld	s0,0(sp)
 145              		.cfi_restore 8
 146              		.cfi_def_cfa 2, 16
 147 00b4 13010101 		addi	sp,sp,16
 148              		.cfi_def_cfa_offset 0
 149 00b8 67800000 		jr	ra
GAS LISTING /tmp/cc4cyZKY.s 			page 5


 150              		.cfi_endproc
 151              	.LFE36:
 153              		.align	2
 154              		.globl	_ZN9Scheduler3putEP3TCB
 156              	_ZN9Scheduler3putEP3TCB:
 157              	.LFB37:
  11:src/kernel/concurency/scheduler.cpp **** void Scheduler::put(TCB* ptr) { queue.insert(ptr); }
 158              		.loc 1 11 31 is_stmt 1
 159              		.cfi_startproc
 160              	.LVL11:
 161 00bc 130101FF 		addi	sp,sp,-16
 162              		.cfi_def_cfa_offset 16
 163 00c0 23341100 		sd	ra,8(sp)
 164 00c4 23308100 		sd	s0,0(sp)
 165              		.cfi_offset 1, -8
 166              		.cfi_offset 8, -16
 167 00c8 13040101 		addi	s0,sp,16
 168              		.cfi_def_cfa 8, 0
  11:src/kernel/concurency/scheduler.cpp **** void Scheduler::put(TCB* ptr) { queue.insert(ptr); }
 169              		.loc 1 11 33
  11:src/kernel/concurency/scheduler.cpp **** void Scheduler::put(TCB* ptr) { queue.insert(ptr); }
 170              		.loc 1 11 49 is_stmt 0
 171 00cc 93050500 		mv	a1,a0
 172 00d0 17050000 		lla	a0,.LANCHOR0
 172      13050500 
 173              	.LVL12:
 174 00d8 97000000 		call	_ZN8TcbQueue6insertEP3TCB
 174      E7800000 
 175              	.LVL13:
  11:src/kernel/concurency/scheduler.cpp **** void Scheduler::put(TCB* ptr) { queue.insert(ptr); }
 176              		.loc 1 11 52
 177 00e0 83308100 		ld	ra,8(sp)
 178              		.cfi_restore 1
 179 00e4 03340100 		ld	s0,0(sp)
 180              		.cfi_restore 8
 181              		.cfi_def_cfa 2, 16
 182 00e8 13010101 		addi	sp,sp,16
 183              		.cfi_def_cfa_offset 0
 184 00ec 67800000 		jr	ra
 185              		.cfi_endproc
 186              	.LFE37:
 188              		.align	2
 189              		.globl	_ZN9Scheduler9initalizeEv
 191              	_ZN9Scheduler9initalizeEv:
 192              	.LFB38:
  13:src/kernel/concurency/scheduler.cpp **** void Scheduler::initalize(){}
 193              		.loc 1 13 28 is_stmt 1
 194              		.cfi_startproc
 195 00f0 130101FF 		addi	sp,sp,-16
 196              		.cfi_def_cfa_offset 16
 197 00f4 23348100 		sd	s0,8(sp)
 198              		.cfi_offset 8, -8
 199 00f8 13040101 		addi	s0,sp,16
 200              		.cfi_def_cfa 8, 0
  13:src/kernel/concurency/scheduler.cpp **** void Scheduler::initalize(){}
 201              		.loc 1 13 29 is_stmt 0
 202 00fc 03348100 		ld	s0,8(sp)
GAS LISTING /tmp/cc4cyZKY.s 			page 6


 203              		.cfi_restore 8
 204              		.cfi_def_cfa 2, 16
 205 0100 13010101 		addi	sp,sp,16
 206              		.cfi_def_cfa_offset 0
 207 0104 67800000 		jr	ra
 208              		.cfi_endproc
 209              	.LFE38:
 211              		.align	2
 212              		.globl	_ZN9Scheduler8finalizeEv
 214              	_ZN9Scheduler8finalizeEv:
 215              	.LFB39:
  15:src/kernel/concurency/scheduler.cpp **** void Scheduler::finalize(){}
 216              		.loc 1 15 27 is_stmt 1
 217              		.cfi_startproc
 218 0108 130101FF 		addi	sp,sp,-16
 219              		.cfi_def_cfa_offset 16
 220 010c 23348100 		sd	s0,8(sp)
 221              		.cfi_offset 8, -8
 222 0110 13040101 		addi	s0,sp,16
 223              		.cfi_def_cfa 8, 0
  15:src/kernel/concurency/scheduler.cpp **** void Scheduler::finalize(){}
 224              		.loc 1 15 28 is_stmt 0
 225 0114 03348100 		ld	s0,8(sp)
 226              		.cfi_restore 8
 227              		.cfi_def_cfa 2, 16
 228 0118 13010101 		addi	sp,sp,16
 229              		.cfi_def_cfa_offset 0
 230 011c 67800000 		jr	ra
 231              		.cfi_endproc
 232              	.LFE39:
 234              		.align	2
 235              		.globl	_ZN9Scheduler11print_queueEv
 237              	_ZN9Scheduler11print_queueEv:
 238              	.LFB40:
  17:src/kernel/concurency/scheduler.cpp **** void Scheduler::print_queue() { queue.printQueue(); }
 239              		.loc 1 17 31 is_stmt 1
 240              		.cfi_startproc
 241 0120 130101FF 		addi	sp,sp,-16
 242              		.cfi_def_cfa_offset 16
 243 0124 23341100 		sd	ra,8(sp)
 244 0128 23308100 		sd	s0,0(sp)
 245              		.cfi_offset 1, -8
 246              		.cfi_offset 8, -16
 247 012c 13040101 		addi	s0,sp,16
 248              		.cfi_def_cfa 8, 0
  17:src/kernel/concurency/scheduler.cpp **** void Scheduler::print_queue() { queue.printQueue(); }
 249              		.loc 1 17 33
  17:src/kernel/concurency/scheduler.cpp **** void Scheduler::print_queue() { queue.printQueue(); }
 250              		.loc 1 17 49 is_stmt 0
 251 0130 17050000 		lla	a0,.LANCHOR0
 251      13050500 
 252 0138 97000000 		call	_ZN8TcbQueue10printQueueEv
 252      E7800000 
 253              	.LVL14:
  17:src/kernel/concurency/scheduler.cpp **** void Scheduler::print_queue() { queue.printQueue(); }
 254              		.loc 1 17 53
 255 0140 83308100 		ld	ra,8(sp)
GAS LISTING /tmp/cc4cyZKY.s 			page 7


 256              		.cfi_restore 1
 257 0144 03340100 		ld	s0,0(sp)
 258              		.cfi_restore 8
 259              		.cfi_def_cfa 2, 16
 260 0148 13010101 		addi	sp,sp,16
 261              		.cfi_def_cfa_offset 0
 262 014c 67800000 		jr	ra
 263              		.cfi_endproc
 264              	.LFE40:
 266              		.align	2
 267              		.globl	_ZN9Scheduler11put_sleeperEP3TCBm
 269              	_ZN9Scheduler11put_sleeperEP3TCBm:
 270              	.LFB42:
  30:src/kernel/concurency/scheduler.cpp **** {
 271              		.loc 1 30 1 is_stmt 1
 272              		.cfi_startproc
 273              	.LVL15:
 274 0150 130101FF 		addi	sp,sp,-16
 275              		.cfi_def_cfa_offset 16
 276 0154 23341100 		sd	ra,8(sp)
 277 0158 23308100 		sd	s0,0(sp)
 278              		.cfi_offset 1, -8
 279              		.cfi_offset 8, -16
 280 015c 13040101 		addi	s0,sp,16
 281              		.cfi_def_cfa 8, 0
  31:src/kernel/concurency/scheduler.cpp ****     t->sleep_time = time;
 282              		.loc 1 31 5
  31:src/kernel/concurency/scheduler.cpp ****     t->sleep_time = time;
 283              		.loc 1 31 19 is_stmt 0
 284 0160 2334B500 		sd	a1,8(a0)
  32:src/kernel/concurency/scheduler.cpp ****     sleeping.insertSorted(t, cmp);  
 285              		.loc 1 32 5 is_stmt 1
  32:src/kernel/concurency/scheduler.cpp ****     sleeping.insertSorted(t, cmp);  
 286              		.loc 1 32 26 is_stmt 0
 287 0164 17060000 		lla	a2,_ZN9Scheduler3cmpEP3TCBS1_
 287      13060600 
 288 016c 93050500 		mv	a1,a0
 289              	.LVL16:
 290 0170 17050000 		lla	a0,.LANCHOR0+24
 290      13050500 
 291              	.LVL17:
 292 0178 97000000 		call	_ZN8TcbQueue12insertSortedEP3TCBPFiS1_S1_E
 292      E7800000 
 293              	.LVL18:
  33:src/kernel/concurency/scheduler.cpp **** }
 294              		.loc 1 33 1
 295 0180 83308100 		ld	ra,8(sp)
 296              		.cfi_restore 1
 297 0184 03340100 		ld	s0,0(sp)
 298              		.cfi_restore 8
 299              		.cfi_def_cfa 2, 16
 300 0188 13010101 		addi	sp,sp,16
 301              		.cfi_def_cfa_offset 0
 302 018c 67800000 		jr	ra
 303              		.cfi_endproc
 304              	.LFE42:
 306              		.align	2
GAS LISTING /tmp/cc4cyZKY.s 			page 8


 307              		.globl	_ZN9Scheduler12update_sleepEv
 309              	_ZN9Scheduler12update_sleepEv:
 310              	.LFB43:
  36:src/kernel/concurency/scheduler.cpp **** {
 311              		.loc 1 36 1 is_stmt 1
 312              		.cfi_startproc
 313 0190 130101FE 		addi	sp,sp,-32
 314              		.cfi_def_cfa_offset 32
 315 0194 233C1100 		sd	ra,24(sp)
 316 0198 23388100 		sd	s0,16(sp)
 317 019c 23349100 		sd	s1,8(sp)
 318 01a0 23302101 		sd	s2,0(sp)
 319              		.cfi_offset 1, -8
 320              		.cfi_offset 8, -16
 321              		.cfi_offset 9, -24
 322              		.cfi_offset 18, -32
 323 01a4 13040102 		addi	s0,sp,32
 324              		.cfi_def_cfa 8, 0
  37:src/kernel/concurency/scheduler.cpp ****     TCB* t = sleeping.top();
 325              		.loc 1 37 5
  37:src/kernel/concurency/scheduler.cpp ****     TCB* t = sleeping.top();
 326              		.loc 1 37 26 is_stmt 0
 327 01a8 17050000 		lla	a0,.LANCHOR0+24
 327      13050500 
 328 01b0 97000000 		call	_ZN8TcbQueue3topEv
 328      E7800000 
 329              	.LVL19:
  38:src/kernel/concurency/scheduler.cpp ****     if(t == nullptr) return;
 330              		.loc 1 38 5 is_stmt 1
 331 01b8 630E0504 		beq	a0,zero,.L21
 332 01bc 93040500 		mv	s1,a0
  39:src/kernel/concurency/scheduler.cpp ****     t->sleep_time--;
 333              		.loc 1 39 5
  39:src/kernel/concurency/scheduler.cpp ****     t->sleep_time--;
 334              		.loc 1 39 8 is_stmt 0
 335 01c0 83378500 		ld	a5,8(a0)
  39:src/kernel/concurency/scheduler.cpp ****     t->sleep_time--;
 336              		.loc 1 39 18
 337 01c4 9387F7FF 		addi	a5,a5,-1
 338 01c8 2334F500 		sd	a5,8(a0)
 339              	.LVL20:
 340              	.L23:
  40:src/kernel/concurency/scheduler.cpp ****     while(t && t->sleep_time == 0){
 341              		.loc 1 40 5 is_stmt 1
  40:src/kernel/concurency/scheduler.cpp ****     while(t && t->sleep_time == 0){
 342              		.loc 1 40 13 is_stmt 0
 343 01cc 63840404 		beq	s1,zero,.L21
  40:src/kernel/concurency/scheduler.cpp ****     while(t && t->sleep_time == 0){
 344              		.loc 1 40 19 discriminator 1
 345 01d0 83B78400 		ld	a5,8(s1)
  40:src/kernel/concurency/scheduler.cpp ****     while(t && t->sleep_time == 0){
 346              		.loc 1 40 13 discriminator 1
 347 01d4 63900704 		bne	a5,zero,.L21
  41:src/kernel/concurency/scheduler.cpp ****         sleeping.remove();
 348              		.loc 1 41 9 is_stmt 1
  41:src/kernel/concurency/scheduler.cpp ****         sleeping.remove();
 349              		.loc 1 41 24 is_stmt 0
GAS LISTING /tmp/cc4cyZKY.s 			page 9


 350 01d8 17090000 		lla	s2,.LANCHOR0+24
 350      13090900 
 351 01e0 13050900 		mv	a0,s2
 352 01e4 97000000 		call	_ZN8TcbQueue6removeEv
 352      E7800000 
 353              	.LVL21:
  43:src/kernel/concurency/scheduler.cpp ****         t->setState(TCB::READY);
 354              		.loc 1 43 9 is_stmt 1
 355              	.LBB16:
 356              	.LBB17:
 357              		.file 3 "src/kernel/concurency/../../../h/tcb.hpp"
   1:src/kernel/concurency/../../../h/tcb.hpp **** #ifndef __tcb__h
   2:src/kernel/concurency/../../../h/tcb.hpp **** #define __tcb__h
   3:src/kernel/concurency/../../../h/tcb.hpp **** 
   4:src/kernel/concurency/../../../h/tcb.hpp **** #include"../h/memory_allocator.hpp"
   5:src/kernel/concurency/../../../h/tcb.hpp **** #include"../h/slab_allocator.h"
   6:src/kernel/concurency/../../../h/tcb.hpp **** #include "object_cache.h"
   7:src/kernel/concurency/../../../h/tcb.hpp **** 
   8:src/kernel/concurency/../../../h/tcb.hpp **** class KSemaphore;
   9:src/kernel/concurency/../../../h/tcb.hpp **** 
  10:src/kernel/concurency/../../../h/tcb.hpp **** /* THREAD CONTROL BLOCK */
  11:src/kernel/concurency/../../../h/tcb.hpp **** class TCB{ 
  12:src/kernel/concurency/../../../h/tcb.hpp ****     
  13:src/kernel/concurency/../../../h/tcb.hpp **** public:
  14:src/kernel/concurency/../../../h/tcb.hpp ****     //alokacija
  15:src/kernel/concurency/../../../h/tcb.hpp ****     //#include"../h/kernel_operators.hpp"
  16:src/kernel/concurency/../../../h/tcb.hpp ****     
  17:src/kernel/concurency/../../../h/tcb.hpp ****     void* operator new(size_t sz); 
  18:src/kernel/concurency/../../../h/tcb.hpp ****     void* operator new[](size_t sz);
  19:src/kernel/concurency/../../../h/tcb.hpp ****     void operator delete(void* ptr);
  20:src/kernel/concurency/../../../h/tcb.hpp ****     void operator delete[](void* ptr);
  21:src/kernel/concurency/../../../h/tcb.hpp **** 
  22:src/kernel/concurency/../../../h/tcb.hpp ****     using Body = void (*)(void*);
  23:src/kernel/concurency/../../../h/tcb.hpp ****     enum TCBState{
  24:src/kernel/concurency/../../../h/tcb.hpp ****         BLOCKED,
  25:src/kernel/concurency/../../../h/tcb.hpp ****         READY,
  26:src/kernel/concurency/../../../h/tcb.hpp ****         FINISHED,
  27:src/kernel/concurency/../../../h/tcb.hpp ****         SLEEPING,
  28:src/kernel/concurency/../../../h/tcb.hpp ****         PREPARING
  29:src/kernel/concurency/../../../h/tcb.hpp ****     };
  30:src/kernel/concurency/../../../h/tcb.hpp ****     
  31:src/kernel/concurency/../../../h/tcb.hpp ****     ~TCB(){ 
  32:src/kernel/concurency/../../../h/tcb.hpp ****         if(isKernelThread()){
  33:src/kernel/concurency/../../../h/tcb.hpp ****             SlabAllocator::getInstance().kfree(this->stack);
  34:src/kernel/concurency/../../../h/tcb.hpp ****         }
  35:src/kernel/concurency/../../../h/tcb.hpp ****         else{
  36:src/kernel/concurency/../../../h/tcb.hpp ****             MemoryAllocator& allocator = MemoryAllocator::getInstance(); 
  37:src/kernel/concurency/../../../h/tcb.hpp ****             allocator.mem_free(this->stack);
  38:src/kernel/concurency/../../../h/tcb.hpp ****         }
  39:src/kernel/concurency/../../../h/tcb.hpp ****     }
  40:src/kernel/concurency/../../../h/tcb.hpp ****     
  41:src/kernel/concurency/../../../h/tcb.hpp ****     //nestaticki metodi
  42:src/kernel/concurency/../../../h/tcb.hpp ****     void setState(TCBState s) {state = s;}
 358              		.loc 3 42 32
 359              		.loc 3 42 38 is_stmt 0
 360 01ec 93071000 		li	a5,1
 361 01f0 23A8F402 		sw	a5,48(s1)
GAS LISTING /tmp/cc4cyZKY.s 			page 10


 362              	.LVL22:
 363              	.LBE17:
 364              	.LBE16:
  44:src/kernel/concurency/scheduler.cpp ****         put(t);
 365              		.loc 1 44 9 is_stmt 1
  44:src/kernel/concurency/scheduler.cpp ****         put(t);
 366              		.loc 1 44 12 is_stmt 0
 367 01f4 13850400 		mv	a0,s1
 368 01f8 97000000 		call	_ZN9Scheduler3putEP3TCB
 368      E7800000 
 369              	.LVL23:
  46:src/kernel/concurency/scheduler.cpp ****         t = sleeping.top();
 370              		.loc 1 46 9 is_stmt 1
  46:src/kernel/concurency/scheduler.cpp ****         t = sleeping.top();
 371              		.loc 1 46 25 is_stmt 0
 372 0200 13050900 		mv	a0,s2
 373 0204 97000000 		call	_ZN8TcbQueue3topEv
 373      E7800000 
 374              	.LVL24:
 375 020c 93040500 		mv	s1,a0
 376              	.LVL25:
  40:src/kernel/concurency/scheduler.cpp ****     while(t && t->sleep_time == 0){
 377              		.loc 1 40 5
 378 0210 6FF0DFFB 		j	.L23
 379              	.LVL26:
 380              	.L21:
 381              		.loc 1 48 1
 382 0214 83308101 		ld	ra,24(sp)
 383              		.cfi_restore 1
 384 0218 03340101 		ld	s0,16(sp)
 385              		.cfi_restore 8
 386              		.cfi_def_cfa 2, 32
 387 021c 83348100 		ld	s1,8(sp)
 388              		.cfi_restore 9
 389 0220 03390100 		ld	s2,0(sp)
 390              		.cfi_restore 18
 391 0224 13010102 		addi	sp,sp,32
 392              		.cfi_def_cfa_offset 0
 393 0228 67800000 		jr	ra
 394              		.cfi_endproc
 395              	.LFE43:
 397              		.align	2
 399              	_GLOBAL__sub_I__ZN9Scheduler5queueE:
 400              	.LFB45:
 401              		.loc 1 48 1 is_stmt 1
 402              		.cfi_startproc
 403 022c 130101FF 		addi	sp,sp,-16
 404              		.cfi_def_cfa_offset 16
 405 0230 23341100 		sd	ra,8(sp)
 406 0234 23308100 		sd	s0,0(sp)
 407              		.cfi_offset 1, -8
 408              		.cfi_offset 8, -16
 409 0238 13040101 		addi	s0,sp,16
 410              		.cfi_def_cfa 8, 0
 411              		.loc 1 48 1 is_stmt 0
 412 023c B7050100 		li	a1,65536
 413 0240 9385F5FF 		addi	a1,a1,-1
GAS LISTING /tmp/cc4cyZKY.s 			page 11


 414 0244 13051000 		li	a0,1
 415 0248 97000000 		call	_Z41__static_initialization_and_destruction_0ii
 415      E7800000 
 416              	.LVL27:
 417 0250 83308100 		ld	ra,8(sp)
 418              		.cfi_restore 1
 419 0254 03340100 		ld	s0,0(sp)
 420              		.cfi_restore 8
 421              		.cfi_def_cfa 2, 16
 422 0258 13010101 		addi	sp,sp,16
 423              		.cfi_def_cfa_offset 0
 424 025c 67800000 		jr	ra
 425              		.cfi_endproc
 426              	.LFE45:
 428              		.section	.init_array,"aw"
 429              		.align	3
 430 0000 00000000 		.dword	_GLOBAL__sub_I__ZN9Scheduler5queueE
 430      00000000 
 431              		.globl	_ZN9Scheduler8sleepingE
 432              		.globl	_ZN9Scheduler5queueE
 433              		.bss
 434              		.align	3
 435              		.set	.LANCHOR0,. + 0
 438              	_ZN9Scheduler5queueE:
 439 0000 00000000 		.zero	24
 439      00000000 
 439      00000000 
 439      00000000 
 439      00000000 
 442              	_ZN9Scheduler8sleepingE:
 443 0018 00000000 		.zero	24
 443      00000000 
 443      00000000 
 443      00000000 
 443      00000000 
 444              		.text
 445              	.Letext0:
 446              		.file 4 "src/kernel/concurency/../../../h/../lib/hw.h"
 447              		.file 5 "src/kernel/concurency/../../../h/../h/../h/list.h"
 448              		.file 6 "src/kernel/concurency/../../../h/../h/object_cache.h"
 449              		.file 7 "src/kernel/concurency/../../../h/slab_allocator.h"
 450              		.file 8 "src/kernel/concurency/../../../h/scheduler.hpp"
GAS LISTING /tmp/cc4cyZKY.s 			page 12


DEFINED SYMBOLS
                            *ABS*:0000000000000000 scheduler.cpp
     /tmp/cc4cyZKY.s:12     .text:0000000000000000 _ZN9Scheduler3cmpEP3TCBS1_
     /tmp/cc4cyZKY.s:16     .text:0000000000000000 .L0 
     /tmp/cc4cyZKY.s:18     .text:0000000000000000 .L0 
     /tmp/cc4cyZKY.s:19     .text:0000000000000004 .L0 
     /tmp/cc4cyZKY.s:21     .text:0000000000000008 .L0 
     /tmp/cc4cyZKY.s:23     .text:000000000000000c .L0 
     /tmp/cc4cyZKY.s:25     .text:000000000000000c .L0 
     /tmp/cc4cyZKY.s:26     .text:000000000000000c .L0 
     /tmp/cc4cyZKY.s:29     .text:0000000000000014 .L0 
     /tmp/cc4cyZKY.s:32     .text:0000000000000018 .L0 
     /tmp/cc4cyZKY.s:34     .text:000000000000001c .L0 
     /tmp/cc4cyZKY.s:35     .text:000000000000001c .L0 
     /tmp/cc4cyZKY.s:39     .text:0000000000000020 .L0 
     /tmp/cc4cyZKY.s:40     .text:0000000000000020 .L0 
     /tmp/cc4cyZKY.s:43     .text:0000000000000028 .L0 
     /tmp/cc4cyZKY.s:44     .text:0000000000000028 .L0 
     /tmp/cc4cyZKY.s:45     .text:0000000000000028 .L0 
     /tmp/cc4cyZKY.s:47     .text:000000000000002c .L0 
     /tmp/cc4cyZKY.s:51     .text:0000000000000030 .L0 
     /tmp/cc4cyZKY.s:53     .text:0000000000000030 .L0 
     /tmp/cc4cyZKY.s:54     .text:0000000000000030 .L0 
     /tmp/cc4cyZKY.s:57     .text:0000000000000034 .L0 
     /tmp/cc4cyZKY.s:60     .text:000000000000003c .L0 
     /tmp/cc4cyZKY.s:65     .text:000000000000003c _Z41__static_initialization_and_destruction_0ii
     /tmp/cc4cyZKY.s:68     .text:000000000000003c .L0 
     /tmp/cc4cyZKY.s:70     .text:000000000000003c .L0 
     /tmp/cc4cyZKY.s:71     .text:0000000000000040 .L0 
     /tmp/cc4cyZKY.s:73     .text:0000000000000044 .L0 
     /tmp/cc4cyZKY.s:75     .text:0000000000000048 .L0 
     /tmp/cc4cyZKY.s:77     .text:0000000000000048 .L0 
     /tmp/cc4cyZKY.s:81     .text:0000000000000054 .L0 
     /tmp/cc4cyZKY.s:82     .text:0000000000000054 .L0 
     /tmp/cc4cyZKY.s:83     .text:0000000000000054 .L0 
     /tmp/cc4cyZKY.s:85     .text:0000000000000058 .L0 
     /tmp/cc4cyZKY.s:88     .text:000000000000005c .L0 
     /tmp/cc4cyZKY.s:90     .text:000000000000005c .L0 
     /tmp/cc4cyZKY.s:99     .text:0000000000000068 .L0 
     /tmp/cc4cyZKY.s:117    .text:0000000000000088 .L0 
     /tmp/cc4cyZKY.s:118    .text:000000000000008c .L0 
     /tmp/cc4cyZKY.s:124    .text:000000000000008c _ZN9Scheduler3getEv
     /tmp/cc4cyZKY.s:127    .text:000000000000008c .L0 
     /tmp/cc4cyZKY.s:128    .text:000000000000008c .L0 
     /tmp/cc4cyZKY.s:129    .text:0000000000000090 .L0 
     /tmp/cc4cyZKY.s:132    .text:0000000000000098 .L0 
     /tmp/cc4cyZKY.s:133    .text:0000000000000098 .L0 
     /tmp/cc4cyZKY.s:135    .text:000000000000009c .L0 
     /tmp/cc4cyZKY.s:137    .text:000000000000009c .L0 
     /tmp/cc4cyZKY.s:138    .text:000000000000009c .L0 
     /tmp/cc4cyZKY.s:142    .text:00000000000000ac .L0 
     /tmp/cc4cyZKY.s:143    .text:00000000000000b0 .L0 
     /tmp/cc4cyZKY.s:145    .text:00000000000000b4 .L0 
     /tmp/cc4cyZKY.s:146    .text:00000000000000b4 .L0 
     /tmp/cc4cyZKY.s:148    .text:00000000000000b8 .L0 
     /tmp/cc4cyZKY.s:150    .text:00000000000000bc .L0 
     /tmp/cc4cyZKY.s:156    .text:00000000000000bc _ZN9Scheduler3putEP3TCB
GAS LISTING /tmp/cc4cyZKY.s 			page 13


     /tmp/cc4cyZKY.s:159    .text:00000000000000bc .L0 
     /tmp/cc4cyZKY.s:161    .text:00000000000000bc .L0 
     /tmp/cc4cyZKY.s:162    .text:00000000000000c0 .L0 
     /tmp/cc4cyZKY.s:165    .text:00000000000000c8 .L0 
     /tmp/cc4cyZKY.s:166    .text:00000000000000c8 .L0 
     /tmp/cc4cyZKY.s:168    .text:00000000000000cc .L0 
     /tmp/cc4cyZKY.s:170    .text:00000000000000cc .L0 
     /tmp/cc4cyZKY.s:171    .text:00000000000000cc .L0 
     /tmp/cc4cyZKY.s:177    .text:00000000000000e0 .L0 
     /tmp/cc4cyZKY.s:178    .text:00000000000000e4 .L0 
     /tmp/cc4cyZKY.s:180    .text:00000000000000e8 .L0 
     /tmp/cc4cyZKY.s:181    .text:00000000000000e8 .L0 
     /tmp/cc4cyZKY.s:183    .text:00000000000000ec .L0 
     /tmp/cc4cyZKY.s:185    .text:00000000000000f0 .L0 
     /tmp/cc4cyZKY.s:191    .text:00000000000000f0 _ZN9Scheduler9initalizeEv
     /tmp/cc4cyZKY.s:194    .text:00000000000000f0 .L0 
     /tmp/cc4cyZKY.s:195    .text:00000000000000f0 .L0 
     /tmp/cc4cyZKY.s:196    .text:00000000000000f4 .L0 
     /tmp/cc4cyZKY.s:198    .text:00000000000000f8 .L0 
     /tmp/cc4cyZKY.s:200    .text:00000000000000fc .L0 
     /tmp/cc4cyZKY.s:202    .text:00000000000000fc .L0 
     /tmp/cc4cyZKY.s:203    .text:0000000000000100 .L0 
     /tmp/cc4cyZKY.s:204    .text:0000000000000100 .L0 
     /tmp/cc4cyZKY.s:206    .text:0000000000000104 .L0 
     /tmp/cc4cyZKY.s:208    .text:0000000000000108 .L0 
     /tmp/cc4cyZKY.s:214    .text:0000000000000108 _ZN9Scheduler8finalizeEv
     /tmp/cc4cyZKY.s:217    .text:0000000000000108 .L0 
     /tmp/cc4cyZKY.s:218    .text:0000000000000108 .L0 
     /tmp/cc4cyZKY.s:219    .text:000000000000010c .L0 
     /tmp/cc4cyZKY.s:221    .text:0000000000000110 .L0 
     /tmp/cc4cyZKY.s:223    .text:0000000000000114 .L0 
     /tmp/cc4cyZKY.s:225    .text:0000000000000114 .L0 
     /tmp/cc4cyZKY.s:226    .text:0000000000000118 .L0 
     /tmp/cc4cyZKY.s:227    .text:0000000000000118 .L0 
     /tmp/cc4cyZKY.s:229    .text:000000000000011c .L0 
     /tmp/cc4cyZKY.s:231    .text:0000000000000120 .L0 
     /tmp/cc4cyZKY.s:237    .text:0000000000000120 _ZN9Scheduler11print_queueEv
     /tmp/cc4cyZKY.s:240    .text:0000000000000120 .L0 
     /tmp/cc4cyZKY.s:241    .text:0000000000000120 .L0 
     /tmp/cc4cyZKY.s:242    .text:0000000000000124 .L0 
     /tmp/cc4cyZKY.s:245    .text:000000000000012c .L0 
     /tmp/cc4cyZKY.s:246    .text:000000000000012c .L0 
     /tmp/cc4cyZKY.s:248    .text:0000000000000130 .L0 
     /tmp/cc4cyZKY.s:250    .text:0000000000000130 .L0 
     /tmp/cc4cyZKY.s:251    .text:0000000000000130 .L0 
     /tmp/cc4cyZKY.s:255    .text:0000000000000140 .L0 
     /tmp/cc4cyZKY.s:256    .text:0000000000000144 .L0 
     /tmp/cc4cyZKY.s:258    .text:0000000000000148 .L0 
     /tmp/cc4cyZKY.s:259    .text:0000000000000148 .L0 
     /tmp/cc4cyZKY.s:261    .text:000000000000014c .L0 
     /tmp/cc4cyZKY.s:263    .text:0000000000000150 .L0 
     /tmp/cc4cyZKY.s:269    .text:0000000000000150 _ZN9Scheduler11put_sleeperEP3TCBm
     /tmp/cc4cyZKY.s:272    .text:0000000000000150 .L0 
     /tmp/cc4cyZKY.s:274    .text:0000000000000150 .L0 
     /tmp/cc4cyZKY.s:275    .text:0000000000000154 .L0 
     /tmp/cc4cyZKY.s:278    .text:000000000000015c .L0 
     /tmp/cc4cyZKY.s:279    .text:000000000000015c .L0 
GAS LISTING /tmp/cc4cyZKY.s 			page 14


     /tmp/cc4cyZKY.s:281    .text:0000000000000160 .L0 
     /tmp/cc4cyZKY.s:283    .text:0000000000000160 .L0 
     /tmp/cc4cyZKY.s:284    .text:0000000000000160 .L0 
     /tmp/cc4cyZKY.s:286    .text:0000000000000164 .L0 
     /tmp/cc4cyZKY.s:287    .text:0000000000000164 .L0 
     /tmp/cc4cyZKY.s:295    .text:0000000000000180 .L0 
     /tmp/cc4cyZKY.s:296    .text:0000000000000184 .L0 
     /tmp/cc4cyZKY.s:298    .text:0000000000000188 .L0 
     /tmp/cc4cyZKY.s:299    .text:0000000000000188 .L0 
     /tmp/cc4cyZKY.s:301    .text:000000000000018c .L0 
     /tmp/cc4cyZKY.s:303    .text:0000000000000190 .L0 
     /tmp/cc4cyZKY.s:309    .text:0000000000000190 _ZN9Scheduler12update_sleepEv
     /tmp/cc4cyZKY.s:312    .text:0000000000000190 .L0 
     /tmp/cc4cyZKY.s:313    .text:0000000000000190 .L0 
     /tmp/cc4cyZKY.s:314    .text:0000000000000194 .L0 
     /tmp/cc4cyZKY.s:319    .text:00000000000001a4 .L0 
     /tmp/cc4cyZKY.s:320    .text:00000000000001a4 .L0 
     /tmp/cc4cyZKY.s:321    .text:00000000000001a4 .L0 
     /tmp/cc4cyZKY.s:322    .text:00000000000001a4 .L0 
     /tmp/cc4cyZKY.s:324    .text:00000000000001a8 .L0 
     /tmp/cc4cyZKY.s:326    .text:00000000000001a8 .L0 
     /tmp/cc4cyZKY.s:327    .text:00000000000001a8 .L0 
     /tmp/cc4cyZKY.s:331    .text:00000000000001b8 .L0 
     /tmp/cc4cyZKY.s:334    .text:00000000000001c0 .L0 
     /tmp/cc4cyZKY.s:335    .text:00000000000001c0 .L0 
     /tmp/cc4cyZKY.s:337    .text:00000000000001c4 .L0 
     /tmp/cc4cyZKY.s:342    .text:00000000000001cc .L0 
     /tmp/cc4cyZKY.s:343    .text:00000000000001cc .L0 
     /tmp/cc4cyZKY.s:345    .text:00000000000001d0 .L0 
     /tmp/cc4cyZKY.s:347    .text:00000000000001d4 .L0 
     /tmp/cc4cyZKY.s:349    .text:00000000000001d8 .L0 
     /tmp/cc4cyZKY.s:350    .text:00000000000001d8 .L0 
     /tmp/cc4cyZKY.s:358    .text:00000000000001ec .L0 
     /tmp/cc4cyZKY.s:359    .text:00000000000001ec .L0 
     /tmp/cc4cyZKY.s:360    .text:00000000000001ec .L0 
     /tmp/cc4cyZKY.s:366    .text:00000000000001f4 .L0 
     /tmp/cc4cyZKY.s:367    .text:00000000000001f4 .L0 
     /tmp/cc4cyZKY.s:371    .text:0000000000000200 .L0 
     /tmp/cc4cyZKY.s:372    .text:0000000000000200 .L0 
     /tmp/cc4cyZKY.s:378    .text:0000000000000210 .L0 
     /tmp/cc4cyZKY.s:382    .text:0000000000000214 .L0 
     /tmp/cc4cyZKY.s:383    .text:0000000000000218 .L0 
     /tmp/cc4cyZKY.s:385    .text:000000000000021c .L0 
     /tmp/cc4cyZKY.s:386    .text:000000000000021c .L0 
     /tmp/cc4cyZKY.s:388    .text:0000000000000220 .L0 
     /tmp/cc4cyZKY.s:390    .text:0000000000000224 .L0 
     /tmp/cc4cyZKY.s:392    .text:0000000000000228 .L0 
     /tmp/cc4cyZKY.s:394    .text:000000000000022c .L0 
     /tmp/cc4cyZKY.s:399    .text:000000000000022c _GLOBAL__sub_I__ZN9Scheduler5queueE
     /tmp/cc4cyZKY.s:402    .text:000000000000022c .L0 
     /tmp/cc4cyZKY.s:403    .text:000000000000022c .L0 
     /tmp/cc4cyZKY.s:404    .text:0000000000000230 .L0 
     /tmp/cc4cyZKY.s:407    .text:0000000000000238 .L0 
     /tmp/cc4cyZKY.s:408    .text:0000000000000238 .L0 
     /tmp/cc4cyZKY.s:410    .text:000000000000023c .L0 
     /tmp/cc4cyZKY.s:412    .text:000000000000023c .L0 
     /tmp/cc4cyZKY.s:418    .text:0000000000000254 .L0 
GAS LISTING /tmp/cc4cyZKY.s 			page 15


     /tmp/cc4cyZKY.s:420    .text:0000000000000258 .L0 
     /tmp/cc4cyZKY.s:421    .text:0000000000000258 .L0 
     /tmp/cc4cyZKY.s:423    .text:000000000000025c .L0 
     /tmp/cc4cyZKY.s:425    .text:0000000000000260 .L0 
     /tmp/cc4cyZKY.s:442    .bss:0000000000000018 _ZN9Scheduler8sleepingE
     /tmp/cc4cyZKY.s:438    .bss:0000000000000000 _ZN9Scheduler5queueE
     /tmp/cc4cyZKY.s:435    .bss:0000000000000000 .LANCHOR0
     /tmp/cc4cyZKY.s:451    .text:0000000000000260 .L0 
     /tmp/cc4cyZKY.s:99     .text:0000000000000068 .L0 
     /tmp/cc4cyZKY.s:138    .text:000000000000009c .L0 
     /tmp/cc4cyZKY.s:172    .text:00000000000000d0 .L0 
     /tmp/cc4cyZKY.s:251    .text:0000000000000130 .L0 
     /tmp/cc4cyZKY.s:287    .text:0000000000000164 .L0 
     /tmp/cc4cyZKY.s:290    .text:0000000000000170 .L0 
     /tmp/cc4cyZKY.s:327    .text:00000000000001a8 .L0 
     /tmp/cc4cyZKY.s:350    .text:00000000000001d8 .L0 
     /tmp/cc4cyZKY.s:50     .text:0000000000000030 .L2
     /tmp/cc4cyZKY.s:37     .text:0000000000000020 .L3
     /tmp/cc4cyZKY.s:87     .text:000000000000005c .L8
     /tmp/cc4cyZKY.s:79     .text:0000000000000050 .L5
     /tmp/cc4cyZKY.s:380    .text:0000000000000214 .L21
     /tmp/cc4cyZKY.s:340    .text:00000000000001cc .L23
     /tmp/cc4cyZKY.s:2553   .debug_abbrev:0000000000000000 .Ldebug_abbrev0
     /tmp/cc4cyZKY.s:4388   .debug_str:0000000000000dd4 .LASF236
     /tmp/cc4cyZKY.s:4308   .debug_str:0000000000000b83 .LASF237
     /tmp/cc4cyZKY.s:4252   .debug_str:00000000000009c4 .LASF238
     /tmp/cc4cyZKY.s:8      .text:0000000000000000 .Ltext0
     /tmp/cc4cyZKY.s:445    .text:0000000000000260 .Letext0
     /tmp/cc4cyZKY.s:3940   .debug_line:0000000000000000 .Ldebug_line0
     /tmp/cc4cyZKY.s:4098   .debug_str:00000000000004f1 .LASF0
     /tmp/cc4cyZKY.s:4130   .debug_str:00000000000005ba .LASF1
     /tmp/cc4cyZKY.s:4232   .debug_str:0000000000000934 .LASF3
     /tmp/cc4cyZKY.s:4262   .debug_str:0000000000000a2d .LASF2
     /tmp/cc4cyZKY.s:4276   .debug_str:0000000000000a7a .LASF4
     /tmp/cc4cyZKY.s:4112   .debug_str:0000000000000547 .LASF5
     /tmp/cc4cyZKY.s:3964   .debug_str:000000000000010b .LASF6
     /tmp/cc4cyZKY.s:4236   .debug_str:0000000000000943 .LASF7
     /tmp/cc4cyZKY.s:4220   .debug_str:00000000000008d4 .LASF8
     /tmp/cc4cyZKY.s:4122   .debug_str:0000000000000581 .LASF9
     /tmp/cc4cyZKY.s:4060   .debug_str:00000000000003e5 .LASF10
     /tmp/cc4cyZKY.s:4070   .debug_str:000000000000041e .LASF11
     /tmp/cc4cyZKY.s:4004   .debug_str:0000000000000229 .LASF12
     /tmp/cc4cyZKY.s:4048   .debug_str:0000000000000382 .LASF13
     /tmp/cc4cyZKY.s:4018   .debug_str:0000000000000280 .LASF14
     /tmp/cc4cyZKY.s:4002   .debug_str:0000000000000219 .LASF15
     /tmp/cc4cyZKY.s:4314   .debug_str:0000000000000bc1 .LASF16
     /tmp/cc4cyZKY.s:4040   .debug_str:0000000000000333 .LASF17
     /tmp/cc4cyZKY.s:4298   .debug_str:0000000000000b47 .LASF18
     /tmp/cc4cyZKY.s:4254   .debug_str:00000000000009e7 .LASF73
     /tmp/cc4cyZKY.s:4006   .debug_str:0000000000000238 .LASF19
     /tmp/cc4cyZKY.s:3972   .debug_str:000000000000012b .LASF20
     /tmp/cc4cyZKY.s:4320   .debug_str:0000000000000bf6 .LASF75
     /tmp/cc4cyZKY.s:4074   .debug_str:0000000000000441 .LASF26
     /tmp/cc4cyZKY.s:4142   .debug_str:0000000000000637 .LASF134
     /tmp/cc4cyZKY.s:3942   .debug_str:0000000000000000 .LASF21
     /tmp/cc4cyZKY.s:4358   .debug_str:0000000000000d16 .LASF22
     /tmp/cc4cyZKY.s:4240   .debug_str:000000000000096c .LASF23
GAS LISTING /tmp/cc4cyZKY.s 			page 16


     /tmp/cc4cyZKY.s:4062   .debug_str:00000000000003f5 .LASF24
     /tmp/cc4cyZKY.s:4076   .debug_str:000000000000044d .LASF25
     /tmp/cc4cyZKY.s:4166   .debug_str:00000000000006e3 .LASF33
     /tmp/cc4cyZKY.s:3948   .debug_str:0000000000000033 .LASF28
     /tmp/cc4cyZKY.s:4012   .debug_str:0000000000000251 .LASF27
     /tmp/cc4cyZKY.s:4106   .debug_str:0000000000000525 .LASF29
     /tmp/cc4cyZKY.s:4424   .debug_str:0000000000000fcc .LASF30
     /tmp/cc4cyZKY.s:4242   .debug_str:0000000000000976 .LASF31
     /tmp/cc4cyZKY.s:3954   .debug_str:0000000000000087 .LASF43
     /tmp/cc4cyZKY.s:4248   .debug_str:00000000000009a6 .LASF45
     /tmp/cc4cyZKY.s:4056   .debug_str:00000000000003c4 .LASF32
     /tmp/cc4cyZKY.s:4258   .debug_str:00000000000009f7 .LASF34
     /tmp/cc4cyZKY.s:4124   .debug_str:0000000000000594 .LASF35
     /tmp/cc4cyZKY.s:3946   .debug_str:0000000000000016 .LASF36
     /tmp/cc4cyZKY.s:4196   .debug_str:000000000000081b .LASF37
     /tmp/cc4cyZKY.s:3956   .debug_str:0000000000000097 .LASF38
     /tmp/cc4cyZKY.s:4368   .debug_str:0000000000000d48 .LASF39
     /tmp/cc4cyZKY.s:4288   .debug_str:0000000000000ad2 .LASF40
     /tmp/cc4cyZKY.s:4386   .debug_str:0000000000000dc9 .LASF41
     /tmp/cc4cyZKY.s:4184   .debug_str:00000000000007a9 .LASF42
     /tmp/cc4cyZKY.s:4410   .debug_str:0000000000000f7e .LASF44
     /tmp/cc4cyZKY.s:4052   .debug_str:0000000000000396 .LASF46
     /tmp/cc4cyZKY.s:4370   .debug_str:0000000000000d52 .LASF47
     /tmp/cc4cyZKY.s:3986   .debug_str:0000000000000176 .LASF48
     /tmp/cc4cyZKY.s:4120   .debug_str:000000000000057c .LASF49
     /tmp/cc4cyZKY.s:4246   .debug_str:00000000000009a0 .LASF50
     /tmp/cc4cyZKY.s:4250   .debug_str:00000000000009bc .LASF51
     /tmp/cc4cyZKY.s:3980   .debug_str:0000000000000161 .LASF52
     /tmp/cc4cyZKY.s:4284   .debug_str:0000000000000abf .LASF53
     /tmp/cc4cyZKY.s:4428   .debug_str:0000000000000fe4 .LASF54
     /tmp/cc4cyZKY.s:3982   .debug_str:0000000000000166 .LASF55
     /tmp/cc4cyZKY.s:4270   .debug_str:0000000000000a59 .LASF56
     /tmp/cc4cyZKY.s:4156   .debug_str:00000000000006b5 .LASF57
     /tmp/cc4cyZKY.s:4096   .debug_str:00000000000004ec .LASF58
     /tmp/cc4cyZKY.s:3978   .debug_str:0000000000000157 .LASF59
     /tmp/cc4cyZKY.s:4172   .debug_str:0000000000000712 .LASF60
     /tmp/cc4cyZKY.s:4226   .debug_str:00000000000008fe .LASF61
     /tmp/cc4cyZKY.s:4372   .debug_str:0000000000000d5b .LASF62
     /tmp/cc4cyZKY.s:3992   .debug_str:00000000000001c4 .LASF63
     /tmp/cc4cyZKY.s:3990   .debug_str:00000000000001a1 .LASF64
     /tmp/cc4cyZKY.s:4148   .debug_str:0000000000000663 .LASF65
     /tmp/cc4cyZKY.s:4230   .debug_str:0000000000000911 .LASF66
     /tmp/cc4cyZKY.s:3944   .debug_str:0000000000000005 .LASF67
     /tmp/cc4cyZKY.s:4280   .debug_str:0000000000000a86 .LASF68
     /tmp/cc4cyZKY.s:4090   .debug_str:00000000000004c2 .LASF69
     /tmp/cc4cyZKY.s:4330   .debug_str:0000000000000c29 .LASF70
     /tmp/cc4cyZKY.s:4034   .debug_str:0000000000000304 .LASF71
     /tmp/cc4cyZKY.s:4192   .debug_str:00000000000007e8 .LASF72
     /tmp/cc4cyZKY.s:4426   .debug_str:0000000000000fd9 .LASF74
     /tmp/cc4cyZKY.s:3962   .debug_str:00000000000000e5 .LASF76
     /tmp/cc4cyZKY.s:4328   .debug_str:0000000000000c24 .LASF77
     /tmp/cc4cyZKY.s:4332   .debug_str:0000000000000c55 .LASF78
     /tmp/cc4cyZKY.s:4066   .debug_str:0000000000000409 .LASF183
     /tmp/cc4cyZKY.s:4030   .debug_str:00000000000002f7 .LASF79
     /tmp/cc4cyZKY.s:4310   .debug_str:0000000000000ba7 .LASF80
     /tmp/cc4cyZKY.s:4374   .debug_str:0000000000000d7a .LASF81
     /tmp/cc4cyZKY.s:4414   .debug_str:0000000000000f91 .LASF82
GAS LISTING /tmp/cc4cyZKY.s 			page 17


     /tmp/cc4cyZKY.s:4134   .debug_str:00000000000005ec .LASF83
     /tmp/cc4cyZKY.s:4208   .debug_str:0000000000000874 .LASF84
     /tmp/cc4cyZKY.s:4392   .debug_str:0000000000000ece .LASF85
     /tmp/cc4cyZKY.s:4204   .debug_str:000000000000085c .LASF86
     /tmp/cc4cyZKY.s:4170   .debug_str:0000000000000708 .LASF87
     /tmp/cc4cyZKY.s:4072   .debug_str:000000000000042c .LASF88
     /tmp/cc4cyZKY.s:4210   .debug_str:0000000000000891 .LASF89
     /tmp/cc4cyZKY.s:4316   .debug_str:0000000000000bcd .LASF90
     /tmp/cc4cyZKY.s:4068   .debug_str:0000000000000411 .LASF91
     /tmp/cc4cyZKY.s:4266   .debug_str:0000000000000a42 .LASF239
     /tmp/cc4cyZKY.s:4186   .debug_str:00000000000007c8 .LASF240
     /tmp/cc4cyZKY.s:4000   .debug_str:0000000000000211 .LASF92
     /tmp/cc4cyZKY.s:4198   .debug_str:0000000000000822 .LASF93
     /tmp/cc4cyZKY.s:4394   .debug_str:0000000000000ed6 .LASF94
     /tmp/cc4cyZKY.s:4350   .debug_str:0000000000000ce8 .LASF95
     /tmp/cc4cyZKY.s:4304   .debug_str:0000000000000b79 .LASF96
     /tmp/cc4cyZKY.s:4024   .debug_str:00000000000002cd .LASF97
     /tmp/cc4cyZKY.s:4362   .debug_str:0000000000000d27 .LASF98
     /tmp/cc4cyZKY.s:4126   .debug_str:000000000000059d .LASF99
     /tmp/cc4cyZKY.s:4188   .debug_str:00000000000007d8 .LASF100
     /tmp/cc4cyZKY.s:4344   .debug_str:0000000000000cb7 .LASF101
     /tmp/cc4cyZKY.s:4256   .debug_str:00000000000009ee .LASF102
     /tmp/cc4cyZKY.s:4400   .debug_str:0000000000000f1b .LASF103
     /tmp/cc4cyZKY.s:4158   .debug_str:00000000000006ba .LASF104
     /tmp/cc4cyZKY.s:4364   .debug_str:0000000000000d2c .LASF105
     /tmp/cc4cyZKY.s:4306   .debug_str:0000000000000b7e .LASF106
     /tmp/cc4cyZKY.s:4190   .debug_str:00000000000007e3 .LASF107
     /tmp/cc4cyZKY.s:4354   .debug_str:0000000000000d02 .LASF108
     /tmp/cc4cyZKY.s:4376   .debug_str:0000000000000d80 .LASF109
     /tmp/cc4cyZKY.s:4144   .debug_str:0000000000000644 .LASF110
     /tmp/cc4cyZKY.s:4412   .debug_str:0000000000000f8b .LASF186
     /tmp/cc4cyZKY.s:4176   .debug_str:000000000000074a .LASF111
     /tmp/cc4cyZKY.s:4168   .debug_str:00000000000006f8 .LASF112
     /tmp/cc4cyZKY.s:4160   .debug_str:00000000000006bf .LASF113
     /tmp/cc4cyZKY.s:4174   .debug_str:0000000000000738 .LASF114
     /tmp/cc4cyZKY.s:4296   .debug_str:0000000000000b34 .LASF115
     /tmp/cc4cyZKY.s:4222   .debug_str:00000000000008e7 .LASF116
     /tmp/cc4cyZKY.s:4094   .debug_str:00000000000004db .LASF117
     /tmp/cc4cyZKY.s:4264   .debug_str:0000000000000a3b .LASF118
     /tmp/cc4cyZKY.s:4406   .debug_str:0000000000000f5e .LASF119
     /tmp/cc4cyZKY.s:4092   .debug_str:00000000000004d4 .LASF120
     /tmp/cc4cyZKY.s:4136   .debug_str:00000000000005f7 .LASF121
     /tmp/cc4cyZKY.s:3952   .debug_str:0000000000000080 .LASF122
     /tmp/cc4cyZKY.s:4016   .debug_str:000000000000026a .LASF123
     /tmp/cc4cyZKY.s:4274   .debug_str:0000000000000a67 .LASF241
     /tmp/cc4cyZKY.s:4108   .debug_str:000000000000053a .LASF124
     /tmp/cc4cyZKY.s:4404   .debug_str:0000000000000f47 .LASF125
     /tmp/cc4cyZKY.s:4036   .debug_str:0000000000000312 .LASF126
     /tmp/cc4cyZKY.s:4086   .debug_str:000000000000048f .LASF127
     /tmp/cc4cyZKY.s:4080   .debug_str:0000000000000466 .LASF128
     /tmp/cc4cyZKY.s:4290   .debug_str:0000000000000aef .LASF129
     /tmp/cc4cyZKY.s:4014   .debug_str:000000000000025e .LASF130
     /tmp/cc4cyZKY.s:4336   .debug_str:0000000000000c76 .LASF131
     /tmp/cc4cyZKY.s:4326   .debug_str:0000000000000c1d .LASF132
     /tmp/cc4cyZKY.s:4038   .debug_str:000000000000031d .LASF133
     /tmp/cc4cyZKY.s:4342   .debug_str:0000000000000cae .LASF135
     /tmp/cc4cyZKY.s:4228   .debug_str:0000000000000909 .LASF136
GAS LISTING /tmp/cc4cyZKY.s 			page 18


     /tmp/cc4cyZKY.s:3998   .debug_str:000000000000020b .LASF137
     /tmp/cc4cyZKY.s:4420   .debug_str:0000000000000fb8 .LASF138
     /tmp/cc4cyZKY.s:4010   .debug_str:0000000000000248 .LASF139
     /tmp/cc4cyZKY.s:4146   .debug_str:0000000000000659 .LASF140
     /tmp/cc4cyZKY.s:4322   .debug_str:0000000000000c0a .LASF242
     /tmp/cc4cyZKY.s:4216   .debug_str:00000000000008ba .LASF141
     /tmp/cc4cyZKY.s:4054   .debug_str:00000000000003b8 .LASF142
     /tmp/cc4cyZKY.s:4200   .debug_str:0000000000000835 .LASF143
     /tmp/cc4cyZKY.s:4082   .debug_str:0000000000000473 .LASF144
     /tmp/cc4cyZKY.s:4278   .debug_str:0000000000000a81 .LASF145
     /tmp/cc4cyZKY.s:3960   .debug_str:00000000000000d9 .LASF146
     /tmp/cc4cyZKY.s:4272   .debug_str:0000000000000a5e .LASF147
     /tmp/cc4cyZKY.s:4022   .debug_str:00000000000002ae .LASF148
     /tmp/cc4cyZKY.s:4286   .debug_str:0000000000000ac9 .LASF149
     /tmp/cc4cyZKY.s:4294   .debug_str:0000000000000b20 .LASF150
     /tmp/cc4cyZKY.s:4162   .debug_str:00000000000006d0 .LASF151
     /tmp/cc4cyZKY.s:4046   .debug_str:0000000000000371 .LASF152
     /tmp/cc4cyZKY.s:4324   .debug_str:0000000000000c12 .LASF153
     /tmp/cc4cyZKY.s:4318   .debug_str:0000000000000be0 .LASF154
     /tmp/cc4cyZKY.s:4138   .debug_str:0000000000000611 .LASF155
     /tmp/cc4cyZKY.s:4382   .debug_str:0000000000000d95 .LASF156
     /tmp/cc4cyZKY.s:4064   .debug_str:00000000000003fd .LASF157
     /tmp/cc4cyZKY.s:4058   .debug_str:00000000000003ce .LASF158
     /tmp/cc4cyZKY.s:4218   .debug_str:00000000000008c6 .LASF159
     /tmp/cc4cyZKY.s:4432   .debug_str:0000000000001005 .LASF160
     /tmp/cc4cyZKY.s:4118   .debug_str:000000000000056c .LASF161
     /tmp/cc4cyZKY.s:4384   .debug_str:0000000000000dae .LASF162
     /tmp/cc4cyZKY.s:4078   .debug_str:0000000000000457 .LASF163
     /tmp/cc4cyZKY.s:4212   .debug_str:0000000000000899 .LASF164
     /tmp/cc4cyZKY.s:4312   .debug_str:0000000000000bb4 .LASF165
     /tmp/cc4cyZKY.s:4398   .debug_str:0000000000000ef9 .LASF166
     /tmp/cc4cyZKY.s:4206   .debug_str:000000000000086f .LASF243
     /tmp/cc4cyZKY.s:4352   .debug_str:0000000000000cfc .LASF167
     /tmp/cc4cyZKY.s:4346   .debug_str:0000000000000cce .LASF169
     /tmp/cc4cyZKY.s:4028   .debug_str:00000000000002ee .LASF168
     /tmp/cc4cyZKY.s:4366   .debug_str:0000000000000d35 .LASF170
     /tmp/cc4cyZKY.s:4128   .debug_str:00000000000005ad .LASF171
     /tmp/cc4cyZKY.s:3950   .debug_str:0000000000000066 .LASF172
     /tmp/cc4cyZKY.s:3970   .debug_str:0000000000000125 .LASF173
     /tmp/cc4cyZKY.s:4338   .debug_str:0000000000000c96 .LASF174
     /tmp/cc4cyZKY.s:4402   .debug_str:0000000000000f30 .LASF175
     /tmp/cc4cyZKY.s:4182   .debug_str:0000000000000787 .LASF177
     /tmp/cc4cyZKY.s:4380   .debug_str:0000000000000d8b .LASF176
     /tmp/cc4cyZKY.s:3996   .debug_str:00000000000001f7 .LASF178
     /tmp/cc4cyZKY.s:4302   .debug_str:0000000000000b69 .LASF179
     /tmp/cc4cyZKY.s:4334   .debug_str:0000000000000c5a .LASF180
     /tmp/cc4cyZKY.s:4282   .debug_str:0000000000000ab1 .LASF181
     /tmp/cc4cyZKY.s:4260   .debug_str:0000000000000a14 .LASF182
     /tmp/cc4cyZKY.s:4026   .debug_str:00000000000002dd .LASF184
     /tmp/cc4cyZKY.s:4340   .debug_str:0000000000000ca6 .LASF185
     /tmp/cc4cyZKY.s:4008   .debug_str:000000000000023d .LASF187
     /tmp/cc4cyZKY.s:4152   .debug_str:000000000000068f .LASF188
     /tmp/cc4cyZKY.s:4100   .debug_str:00000000000004fe .LASF189
     /tmp/cc4cyZKY.s:3966   .debug_str:0000000000000112 .LASF190
     /tmp/cc4cyZKY.s:4110   .debug_str:0000000000000542 .LASF191
     /tmp/cc4cyZKY.s:4378   .debug_str:0000000000000d86 .LASF192
     /tmp/cc4cyZKY.s:4292   .debug_str:0000000000000b1a .LASF193
GAS LISTING /tmp/cc4cyZKY.s 			page 19


     /tmp/cc4cyZKY.s:4348   .debug_str:0000000000000cde .LASF194
     /tmp/cc4cyZKY.s:4032   .debug_str:00000000000002fe .LASF195
     /tmp/cc4cyZKY.s:4164   .debug_str:00000000000006d7 .LASF196
     /tmp/cc4cyZKY.s:4114   .debug_str:0000000000000559 .LASF197
     /tmp/cc4cyZKY.s:4214   .debug_str:00000000000008b3 .LASF198
     /tmp/cc4cyZKY.s:4360   .debug_str:0000000000000d1f .LASF199
     /tmp/cc4cyZKY.s:4430   .debug_str:0000000000000fee .LASF208
     /tmp/cc4cyZKY.s:3988   .debug_str:0000000000000193 .LASF202
     /tmp/cc4cyZKY.s:4140   .debug_str:000000000000061e .LASF204
     /tmp/cc4cyZKY.s:4102   .debug_str:000000000000050b .LASF200
     /tmp/cc4cyZKY.s:3958   .debug_str:00000000000000b1 .LASF201
     /tmp/cc4cyZKY.s:3974   .debug_str:0000000000000130 .LASF203
     /tmp/cc4cyZKY.s:4178   .debug_str:000000000000075b .LASF205
     /tmp/cc4cyZKY.s:4116   .debug_str:0000000000000562 .LASF206
     /tmp/cc4cyZKY.s:4202   .debug_str:0000000000000842 .LASF207
     /tmp/cc4cyZKY.s:4416   .debug_str:0000000000000f96 .LASF244
     /tmp/cc4cyZKY.s:4088   .debug_str:00000000000004aa .LASF209
     /tmp/cc4cyZKY.s:3968   .debug_str:000000000000011c .LASF210
     /tmp/cc4cyZKY.s:4154   .debug_str:000000000000069c .LASF211
     /tmp/cc4cyZKY.s:4300   .debug_str:0000000000000b5d .LASF212
     /tmp/cc4cyZKY.s:4238   .debug_str:000000000000094a .LASF213
     /tmp/cc4cyZKY.s:4356   .debug_str:0000000000000d09 .LASF214
     /tmp/cc4cyZKY.s:4020   .debug_str:0000000000000290 .LASF215
     /tmp/cc4cyZKY.s:4044   .debug_str:0000000000000367 .LASF216
     /tmp/cc4cyZKY.s:4042   .debug_str:0000000000000349 .LASF217
     /tmp/cc4cyZKY.s:4104   .debug_str:0000000000000519 .LASF218
     /tmp/cc4cyZKY.s:3976   .debug_str:000000000000013a .LASF219
     /tmp/cc4cyZKY.s:4418   .debug_str:0000000000000faa .LASF220
     /tmp/cc4cyZKY.s:4132   .debug_str:00000000000005cd .LASF221
     /tmp/cc4cyZKY.s:4268   .debug_str:0000000000000a4c .LASF222
     /tmp/cc4cyZKY.s:4150   .debug_str:0000000000000671 .LASF223
     /tmp/cc4cyZKY.s:4396   .debug_str:0000000000000ede .LASF224
     /tmp/cc4cyZKY.s:3984   .debug_str:0000000000000170 .LASF225
     /tmp/cc4cyZKY.s:4234   .debug_str:000000000000093a .LASF226
     /tmp/cc4cyZKY.s:4244   .debug_str:000000000000098b .LASF227
     /tmp/cc4cyZKY.s:4180   .debug_str:000000000000076f .LASF228
     /tmp/cc4cyZKY.s:3994   .debug_str:00000000000001d3 .LASF229
     /tmp/cc4cyZKY.s:400    .text:000000000000022c .LFB45
     /tmp/cc4cyZKY.s:426    .text:0000000000000260 .LFE45
     /tmp/cc4cyZKY.s:416    .text:0000000000000250 .LVL27
     /tmp/cc4cyZKY.s:4390   .debug_str:0000000000000ea4 .LASF230
     /tmp/cc4cyZKY.s:66     .text:000000000000003c .LFB44
     /tmp/cc4cyZKY.s:119    .text:000000000000008c .LFE44
     /tmp/cc4cyZKY.s:4084   .debug_str:0000000000000480 .LASF231
     /tmp/cc4cyZKY.s:4422   .debug_str:0000000000000fc1 .LASF232
     /tmp/cc4cyZKY.s:94     .text:0000000000000068 .LBB10
     /tmp/cc4cyZKY.s:106    .text:000000000000007c .LBE10
     /tmp/cc4cyZKY.s:3782   .debug_loc:0000000000000000 .LLST2
     /tmp/cc4cyZKY.s:107    .text:000000000000007c .LBB13
     /tmp/cc4cyZKY.s:115    .text:0000000000000088 .LBE13
     /tmp/cc4cyZKY.s:310    .text:0000000000000190 .LFB43
     /tmp/cc4cyZKY.s:395    .text:000000000000022c .LFE43
     /tmp/cc4cyZKY.s:3791   .debug_loc:000000000000002c .LLST6
     /tmp/cc4cyZKY.s:355    .text:00000000000001ec .LBB16
     /tmp/cc4cyZKY.s:364    .text:00000000000001f4 .LBE16
     /tmp/cc4cyZKY.s:3802   .debug_loc:0000000000000062 .LLST7
     /tmp/cc4cyZKY.s:3810   .debug_loc:0000000000000086 .LLST8
GAS LISTING /tmp/cc4cyZKY.s 			page 20


     /tmp/cc4cyZKY.s:329    .text:00000000000001b8 .LVL19
     /tmp/cc4cyZKY.s:353    .text:00000000000001ec .LVL21
     /tmp/cc4cyZKY.s:369    .text:0000000000000200 .LVL23
     /tmp/cc4cyZKY.s:374    .text:000000000000020c .LVL24
     /tmp/cc4cyZKY.s:270    .text:0000000000000150 .LFB42
     /tmp/cc4cyZKY.s:304    .text:0000000000000190 .LFE42
     /tmp/cc4cyZKY.s:3817   .debug_loc:00000000000000a9 .LLST4
     /tmp/cc4cyZKY.s:4224   .debug_str:00000000000008f9 .LASF233
     /tmp/cc4cyZKY.s:3835   .debug_loc:00000000000000f5 .LLST5
     /tmp/cc4cyZKY.s:293    .text:0000000000000180 .LVL18
     /tmp/cc4cyZKY.s:13     .text:0000000000000000 .LFB41
     /tmp/cc4cyZKY.s:61     .text:000000000000003c .LFE41
     /tmp/cc4cyZKY.s:3859   .debug_loc:0000000000000156 .LLST0
     /tmp/cc4cyZKY.s:4408   .debug_str:0000000000000f79 .LASF234
     /tmp/cc4cyZKY.s:3877   .debug_loc:00000000000001a2 .LLST1
     /tmp/cc4cyZKY.s:238    .text:0000000000000120 .LFB40
     /tmp/cc4cyZKY.s:264    .text:0000000000000150 .LFE40
     /tmp/cc4cyZKY.s:253    .text:0000000000000140 .LVL14
     /tmp/cc4cyZKY.s:215    .text:0000000000000108 .LFB39
     /tmp/cc4cyZKY.s:232    .text:0000000000000120 .LFE39
     /tmp/cc4cyZKY.s:192    .text:00000000000000f0 .LFB38
     /tmp/cc4cyZKY.s:209    .text:0000000000000108 .LFE38
     /tmp/cc4cyZKY.s:157    .text:00000000000000bc .LFB37
     /tmp/cc4cyZKY.s:186    .text:00000000000000f0 .LFE37
     /tmp/cc4cyZKY.s:3909   .debug_loc:00000000000001fc .LLST3
     /tmp/cc4cyZKY.s:175    .text:00000000000000e0 .LVL13
     /tmp/cc4cyZKY.s:125    .text:000000000000008c .LFB36
     /tmp/cc4cyZKY.s:151    .text:00000000000000bc .LFE36
     /tmp/cc4cyZKY.s:140    .text:00000000000000ac .LVL10
     /tmp/cc4cyZKY.s:4050   .debug_str:0000000000000391 .LASF235
     /tmp/cc4cyZKY.s:4194   .debug_str:000000000000080a .LASF245
     /tmp/cc4cyZKY.s:93     .text:0000000000000068 .LVL8
     /tmp/cc4cyZKY.s:103    .text:000000000000007c .LVL9
     /tmp/cc4cyZKY.s:339    .text:00000000000001cc .LVL20
     /tmp/cc4cyZKY.s:379    .text:0000000000000214 .LVL26
     /tmp/cc4cyZKY.s:362    .text:00000000000001f4 .LVL22
     /tmp/cc4cyZKY.s:273    .text:0000000000000150 .LVL15
     /tmp/cc4cyZKY.s:291    .text:0000000000000178 .LVL17
     /tmp/cc4cyZKY.s:289    .text:0000000000000170 .LVL16
     /tmp/cc4cyZKY.s:17     .text:0000000000000000 .LVL0
     /tmp/cc4cyZKY.s:41     .text:0000000000000024 .LVL3
     /tmp/cc4cyZKY.s:49     .text:0000000000000030 .LVL4
     /tmp/cc4cyZKY.s:30     .text:0000000000000018 .LVL1
     /tmp/cc4cyZKY.s:36     .text:0000000000000020 .LVL2
     /tmp/cc4cyZKY.s:55     .text:0000000000000034 .LVL5
     /tmp/cc4cyZKY.s:58     .text:0000000000000038 .LVL6
     /tmp/cc4cyZKY.s:160    .text:00000000000000bc .LVL11
     /tmp/cc4cyZKY.s:173    .text:00000000000000d8 .LVL12
     /tmp/cc4cyZKY.s:452    .debug_info:0000000000000000 .Ldebug_info0

UNDEFINED SYMBOLS
_ZN8TcbQueue6removeEv
_ZN8TcbQueue6insertEP3TCB
_ZN8TcbQueue10printQueueEv
_ZN8TcbQueue12insertSortedEP3TCBPFiS1_S1_E
_ZN8TcbQueue3topEv
