GAS LISTING /tmp/cclFzx07.s 			page 1


   1              		.file	"tcb.cpp"
   2              		.option nopic
   3              		.option norelax
   4              		.attribute arch, "rv64i2p0_m2p0_a2p0"
   5              		.attribute unaligned_access, 0
   6              		.attribute stack_align, 16
   7              		.text
   8              	.Ltext0:
   9              		.align	2
  10              		.globl	_ZN5Riscv10popSppSpieEv
  12              	_ZN5Riscv10popSppSpieEv:
  13              	.LFB113:
  14              		.file 1 "src/kernel/concurency/tcb.cpp"
   1:src/kernel/concurency/tcb.cpp **** #include"../../../h/kernel_lib.h"
   2:src/kernel/concurency/tcb.cpp **** 
   3:src/kernel/concurency/tcb.cpp **** 
   4:src/kernel/concurency/tcb.cpp **** TCB* TCB::running = nullptr;
   5:src/kernel/concurency/tcb.cpp **** uint64 TCB::timeSliceCounter = 0;
   6:src/kernel/concurency/tcb.cpp **** TCB* TCB::kernelThread = nullptr;
   7:src/kernel/concurency/tcb.cpp **** int TCB::threadsUp = 0;
   8:src/kernel/concurency/tcb.cpp **** TCB::Context TCB::panicContext;
   9:src/kernel/concurency/tcb.cpp **** ObjectCache* TCB::cache = nullptr;
  10:src/kernel/concurency/tcb.cpp **** void Riscv::popSppSpie() 
  11:src/kernel/concurency/tcb.cpp **** {
  15              		.loc 1 11 1
  16              		.cfi_startproc
  17 0000 130101FF 		addi	sp,sp,-16
  18              		.cfi_def_cfa_offset 16
  19 0004 23348100 		sd	s0,8(sp)
  20              		.cfi_offset 8, -8
  21 0008 13040101 		addi	s0,sp,16
  22              		.cfi_def_cfa 8, 0
  12:src/kernel/concurency/tcb.cpp ****     __asm__ volatile ("csrw sepc, ra");
  23              		.loc 1 12 5
  24              		.loc 1 12 39 is_stmt 0
  25              	 #APP
  26              	# 12 "src/kernel/concurency/tcb.cpp" 1
  13              	    __asm__ volatile ("sret");
  27              		csrw sepc, ra
  28              	# 0 "" 2
  29              		.loc 1 13 5 is_stmt 1
  30              		.loc 1 13 30 is_stmt 0
  31              	# 13 "src/kernel/concurency/tcb.cpp" 1
  14              	}
  32              		sret
  33              	# 0 "" 2
  34              		.loc 1 14 1
  35              	 #NO_APP
  36 0014 03348100 		ld	s0,8(sp)
  37              		.cfi_restore 8
  38              		.cfi_def_cfa 2, 16
  39 0018 13010101 		addi	sp,sp,16
  40              		.cfi_def_cfa_offset 0
  41 001c 67800000 		jr	ra
  42              		.cfi_endproc
  43              	.LFE113:
  45              		.align	2
GAS LISTING /tmp/cclFzx07.s 			page 2


  46              		.globl	_ZN3TCBC2EPFvPvES0_Pmm
  48              	_ZN3TCBC2EPFvPvES0_Pmm:
  49              	.LFB116:
  15:src/kernel/concurency/tcb.cpp **** 
  16:src/kernel/concurency/tcb.cpp **** TCB* TCB::createThread(Body body, void* args, uint64* stack)
  17:src/kernel/concurency/tcb.cpp **** {
  18:src/kernel/concurency/tcb.cpp ****     return new TCB(body, args, stack);
  19:src/kernel/concurency/tcb.cpp **** }
  20:src/kernel/concurency/tcb.cpp **** 
  21:src/kernel/concurency/tcb.cpp **** TCB::TCB(TCB::Body bbody, void* aargs, uint64* sstack, uint64 ttimeSlice):
  50              		.loc 1 21 1 is_stmt 1
  51              		.cfi_startproc
  52              	.LVL0:
  53              	.LBB31:
  22:src/kernel/concurency/tcb.cpp **** next(nullptr), sleep_time(0),body(bbody), args(aargs), stack(sstack),
  23:src/kernel/concurency/tcb.cpp **** timeSlice(ttimeSlice), state(READY), deleteOnEnd(false),userMode(true), locked(false),
  24:src/kernel/concurency/tcb.cpp **** context({(uint64) &threadWrapper, stack ? (uint64)((char*)stack+DEFAULT_STACK_SIZE) : 0})
  54              		.loc 1 24 89 is_stmt 0
  55 0020 23300500 		sd	zero,0(a0)
  56 0024 23340500 		sd	zero,8(a0)
  57 0028 2338B500 		sd	a1,16(a0)
  58 002c 233CC500 		sd	a2,24(a0)
  59 0030 2330D502 		sd	a3,32(a0)
  60 0034 2334E502 		sd	a4,40(a0)
  61 0038 93071000 		li	a5,1
  62 003c 2328F502 		sw	a5,48(a0)
  63 0040 230A0502 		sb	zero,52(a0)
  64 0044 A30AF502 		sb	a5,53(a0)
  65 0048 230B0502 		sb	zero,54(a0)
  66 004c 97070000 		lla	a5,_ZN3TCB13threadWrapperEv
  66      93870700 
  67 0054 233CF502 		sd	a5,56(a0)
  68              		.loc 1 24 41
  69 0058 638A0604 		beq	a3,zero,.L6
  70              		.loc 1 24 64 discriminator 1
  71 005c B7170000 		li	a5,4096
  72 0060 B387F600 		add	a5,a3,a5
  73              	.L4:
  74              		.loc 1 24 89 discriminator 4
  75 0064 2330F504 		sd	a5,64(a0)
  25:src/kernel/concurency/tcb.cpp **** {    
  26:src/kernel/concurency/tcb.cpp ****     if(body && stack){
  76              		.loc 1 26 5 is_stmt 1 discriminator 4
  77 0068 63860504 		beq	a1,zero,.L8
  78              		.loc 1 26 13 is_stmt 0 discriminator 1
  79 006c 63840604 		beq	a3,zero,.L8
  80              	.LBE31:
  21:src/kernel/concurency/tcb.cpp **** next(nullptr), sleep_time(0),body(bbody), args(aargs), stack(sstack),
  81              		.loc 1 21 1
  82 0070 130101FF 		addi	sp,sp,-16
  83              		.cfi_def_cfa_offset 16
  84 0074 23341100 		sd	ra,8(sp)
  85 0078 23308100 		sd	s0,0(sp)
  86              		.cfi_offset 1, -8
  87              		.cfi_offset 8, -16
  88 007c 13040101 		addi	s0,sp,16
  89              		.cfi_def_cfa 8, 0
GAS LISTING /tmp/cclFzx07.s 			page 3


  90              	.LBB32:
  27:src/kernel/concurency/tcb.cpp ****         Scheduler::put(this);
  91              		.loc 1 27 9 is_stmt 1
  92              		.loc 1 27 23 is_stmt 0
  93 0080 97000000 		call	_ZN9Scheduler3putEP3TCB
  93      E7800000 
  94              	.LVL1:
  28:src/kernel/concurency/tcb.cpp ****         threadsUp++;
  95              		.loc 1 28 9 is_stmt 1
  96              		.loc 1 28 18 is_stmt 0
  97 0088 17070000 		lla	a4,_ZN3TCB9threadsUpE
  97      13070700 
  98 0090 83270700 		lw	a5,0(a4)
  99 0094 9B871700 		addiw	a5,a5,1
 100 0098 2320F700 		sw	a5,0(a4)
 101              	.LBE32:
  29:src/kernel/concurency/tcb.cpp ****     }
  30:src/kernel/concurency/tcb.cpp ****     // kprintString("TCB initalizing!\n");
  31:src/kernel/concurency/tcb.cpp ****     // KCHECKPRINT(this);
  32:src/kernel/concurency/tcb.cpp ****     // KCHECKPRINT(stack);
  33:src/kernel/concurency/tcb.cpp **** }   
 102              		.loc 1 33 1
 103 009c 83308100 		ld	ra,8(sp)
 104              		.cfi_restore 1
 105 00a0 03340100 		ld	s0,0(sp)
 106              		.cfi_restore 8
 107              		.cfi_def_cfa 2, 16
 108 00a4 13010101 		addi	sp,sp,16
 109              		.cfi_def_cfa_offset 0
 110 00a8 67800000 		jr	ra
 111              	.LVL2:
 112              	.L6:
 113              	.LBB33:
  24:src/kernel/concurency/tcb.cpp **** {    
 114              		.loc 1 24 41
 115 00ac 93070000 		li	a5,0
 116 00b0 6FF05FFB 		j	.L4
 117              	.L8:
 118 00b4 67800000 		ret
 119              	.LBE33:
 120              		.cfi_endproc
 121              	.LFE116:
 123              		.globl	_ZN3TCBC1EPFvPvES0_Pmm
 124              		.set	_ZN3TCBC1EPFvPvES0_Pmm,_ZN3TCBC2EPFvPvES0_Pmm
 125              		.align	2
 126              		.globl	_ZN3TCB9initalizeEv
 128              	_ZN3TCB9initalizeEv:
 129              	.LFB119:
  34:src/kernel/concurency/tcb.cpp **** 
  35:src/kernel/concurency/tcb.cpp **** void TCB::yield()
  36:src/kernel/concurency/tcb.cpp **** {
  37:src/kernel/concurency/tcb.cpp ****     Riscv::pushRegisters();
  38:src/kernel/concurency/tcb.cpp ****     dispatch();
  39:src/kernel/concurency/tcb.cpp ****     Riscv::popRegisters();
  40:src/kernel/concurency/tcb.cpp **** }
  41:src/kernel/concurency/tcb.cpp **** 
  42:src/kernel/concurency/tcb.cpp **** void TCB::initalize(){
GAS LISTING /tmp/cclFzx07.s 			page 4


 130              		.loc 1 42 22 is_stmt 1
 131              		.cfi_startproc
 132 00b8 130101FF 		addi	sp,sp,-16
 133              		.cfi_def_cfa_offset 16
 134 00bc 23348100 		sd	s0,8(sp)
 135              		.cfi_offset 8, -8
 136 00c0 13040101 		addi	s0,sp,16
 137              		.cfi_def_cfa 8, 0
  43:src/kernel/concurency/tcb.cpp ****     if(running->userMode){
 138              		.loc 1 43 5
 139              		.loc 1 43 17 is_stmt 0
 140 00c4 97070000 		lla	a5,_ZN3TCB7runningE
 140      93870700 
 141 00cc 83B70700 		ld	a5,0(a5)
 142 00d0 03C75703 		lbu	a4,53(a5)
 143              		.loc 1 43 5
 144 00d4 63000702 		beq	a4,zero,.L12
  44:src/kernel/concurency/tcb.cpp ****         //Riscv::mc_sstatus(Riscv::SSTATUS_SPP);
  45:src/kernel/concurency/tcb.cpp ****         running->setState(PREPARING);
 145              		.loc 1 45 9 is_stmt 1
 146              	.LVL3:
 147              	.LBB34:
 148              	.LBB35:
 149              		.file 2 "src/kernel/concurency/../../../h/../h/tcb.hpp"
   1:src/kernel/concurency/../../../h/../h/tcb.hpp **** #ifndef __tcb__h
   2:src/kernel/concurency/../../../h/../h/tcb.hpp **** #define __tcb__h
   3:src/kernel/concurency/../../../h/../h/tcb.hpp **** 
   4:src/kernel/concurency/../../../h/../h/tcb.hpp **** #include"../h/memory_allocator.hpp"
   5:src/kernel/concurency/../../../h/../h/tcb.hpp **** #include"../h/slab_allocator.h"
   6:src/kernel/concurency/../../../h/../h/tcb.hpp **** #include "object_cache.h"
   7:src/kernel/concurency/../../../h/../h/tcb.hpp **** 
   8:src/kernel/concurency/../../../h/../h/tcb.hpp **** class KSemaphore;
   9:src/kernel/concurency/../../../h/../h/tcb.hpp **** 
  10:src/kernel/concurency/../../../h/../h/tcb.hpp **** /* THREAD CONTROL BLOCK */
  11:src/kernel/concurency/../../../h/../h/tcb.hpp **** class TCB{ 
  12:src/kernel/concurency/../../../h/../h/tcb.hpp ****     
  13:src/kernel/concurency/../../../h/../h/tcb.hpp **** public:
  14:src/kernel/concurency/../../../h/../h/tcb.hpp ****     //alokacija
  15:src/kernel/concurency/../../../h/../h/tcb.hpp ****     //#include"../h/kernel_operators.hpp"
  16:src/kernel/concurency/../../../h/../h/tcb.hpp ****     
  17:src/kernel/concurency/../../../h/../h/tcb.hpp ****     void* operator new(size_t sz); 
  18:src/kernel/concurency/../../../h/../h/tcb.hpp ****     void* operator new[](size_t sz);
  19:src/kernel/concurency/../../../h/../h/tcb.hpp ****     void operator delete(void* ptr);
  20:src/kernel/concurency/../../../h/../h/tcb.hpp ****     void operator delete[](void* ptr);
  21:src/kernel/concurency/../../../h/../h/tcb.hpp **** 
  22:src/kernel/concurency/../../../h/../h/tcb.hpp ****     using Body = void (*)(void*);
  23:src/kernel/concurency/../../../h/../h/tcb.hpp ****     enum TCBState{
  24:src/kernel/concurency/../../../h/../h/tcb.hpp ****         BLOCKED,
  25:src/kernel/concurency/../../../h/../h/tcb.hpp ****         READY,
  26:src/kernel/concurency/../../../h/../h/tcb.hpp ****         FINISHED,
  27:src/kernel/concurency/../../../h/../h/tcb.hpp ****         SLEEPING,
  28:src/kernel/concurency/../../../h/../h/tcb.hpp ****         PREPARING
  29:src/kernel/concurency/../../../h/../h/tcb.hpp ****     };
  30:src/kernel/concurency/../../../h/../h/tcb.hpp ****     
  31:src/kernel/concurency/../../../h/../h/tcb.hpp ****     ~TCB(){ 
  32:src/kernel/concurency/../../../h/../h/tcb.hpp ****         if(isKernelThread()){
  33:src/kernel/concurency/../../../h/../h/tcb.hpp ****             SlabAllocator::getInstance().kfree(this->stack);
GAS LISTING /tmp/cclFzx07.s 			page 5


  34:src/kernel/concurency/../../../h/../h/tcb.hpp ****         }
  35:src/kernel/concurency/../../../h/../h/tcb.hpp ****         else{
  36:src/kernel/concurency/../../../h/../h/tcb.hpp ****             MemoryAllocator& allocator = MemoryAllocator::getInstance(); 
  37:src/kernel/concurency/../../../h/../h/tcb.hpp ****             allocator.mem_free(this->stack);
  38:src/kernel/concurency/../../../h/../h/tcb.hpp ****         }
  39:src/kernel/concurency/../../../h/../h/tcb.hpp ****     }
  40:src/kernel/concurency/../../../h/../h/tcb.hpp ****     
  41:src/kernel/concurency/../../../h/../h/tcb.hpp ****     //nestaticki metodi
  42:src/kernel/concurency/../../../h/../h/tcb.hpp ****     void setState(TCBState s) {state = s;}
 150              		.loc 2 42 32
 151              		.loc 2 42 38 is_stmt 0
 152 00d8 13074000 		li	a4,4
 153 00dc 23A8E702 		sw	a4,48(a5)
 154              	.LVL4:
 155              	.L13:
 156              	.LBE35:
 157              	.LBE34:
  46:src/kernel/concurency/tcb.cpp ****     }
  47:src/kernel/concurency/tcb.cpp ****     else {
  48:src/kernel/concurency/tcb.cpp ****         if(running->locked)
  49:src/kernel/concurency/tcb.cpp ****             Riscv::mc_sstatus(Riscv::SSTATUS_SPIE);
  50:src/kernel/concurency/tcb.cpp ****         else
  51:src/kernel/concurency/tcb.cpp ****             Riscv::ms_sstatus(Riscv::SSTATUS_SPIE);
  52:src/kernel/concurency/tcb.cpp ****     }   
  53:src/kernel/concurency/tcb.cpp ****     Riscv::ms_sstatus(Riscv::SSTATUS_SPP);
 158              		.loc 1 53 5 is_stmt 1
 159              	.LBB36:
 160              	.LBB37:
 161              		.file 3 "src/kernel/concurency/../../../h/../h/riscv.hpp"
   1:src/kernel/concurency/../../../h/../h/riscv.hpp **** #ifndef __riscv__
   2:src/kernel/concurency/../../../h/../h/riscv.hpp **** #define __riscv__
   3:src/kernel/concurency/../../../h/../h/riscv.hpp **** 
   4:src/kernel/concurency/../../../h/../h/riscv.hpp **** #include"../lib/hw.h"
   5:src/kernel/concurency/../../../h/../h/riscv.hpp **** 
   6:src/kernel/concurency/../../../h/../h/riscv.hpp **** class Riscv{
   7:src/kernel/concurency/../../../h/../h/riscv.hpp **** public:
   8:src/kernel/concurency/../../../h/../h/riscv.hpp **** /* 
   9:src/kernel/concurency/../../../h/../h/riscv.hpp **** --------------------SUPERVISOR REGISTERS--------------------    
  10:src/kernel/concurency/../../../h/../h/riscv.hpp **** */
  11:src/kernel/concurency/../../../h/../h/riscv.hpp ****     static void w_scause(uint64);
  12:src/kernel/concurency/../../../h/../h/riscv.hpp ****     static uint64 r_scause(); 
  13:src/kernel/concurency/../../../h/../h/riscv.hpp **** 
  14:src/kernel/concurency/../../../h/../h/riscv.hpp ****     static void w_sepc(uint64);
  15:src/kernel/concurency/../../../h/../h/riscv.hpp ****     static uint64 r_sepc();
  16:src/kernel/concurency/../../../h/../h/riscv.hpp ****     static void ni_sepc();
  17:src/kernel/concurency/../../../h/../h/riscv.hpp **** 
  18:src/kernel/concurency/../../../h/../h/riscv.hpp ****     static void w_stvec(uint64);
  19:src/kernel/concurency/../../../h/../h/riscv.hpp ****     static uint64 r_stvec();
  20:src/kernel/concurency/../../../h/../h/riscv.hpp ****      
  21:src/kernel/concurency/../../../h/../h/riscv.hpp ****     static void w_stval(uint64);
  22:src/kernel/concurency/../../../h/../h/riscv.hpp ****     static uint64 r_stval();
  23:src/kernel/concurency/../../../h/../h/riscv.hpp **** 
  24:src/kernel/concurency/../../../h/../h/riscv.hpp ****     static void w_satp(uint64);
  25:src/kernel/concurency/../../../h/../h/riscv.hpp ****     static uint64 r_satp();
  26:src/kernel/concurency/../../../h/../h/riscv.hpp ****     
  27:src/kernel/concurency/../../../h/../h/riscv.hpp ****     enum BitMaskSip{
  28:src/kernel/concurency/../../../h/../h/riscv.hpp ****         SIP_SSIE = (1<<1),
GAS LISTING /tmp/cclFzx07.s 			page 6


  29:src/kernel/concurency/../../../h/../h/riscv.hpp ****         SIP_STIE = (1<<5),
  30:src/kernel/concurency/../../../h/../h/riscv.hpp ****         SIP_SEIE = (1<<9),
  31:src/kernel/concurency/../../../h/../h/riscv.hpp ****     };
  32:src/kernel/concurency/../../../h/../h/riscv.hpp **** 
  33:src/kernel/concurency/../../../h/../h/riscv.hpp ****     static void ms_sip(uint64);
  34:src/kernel/concurency/../../../h/../h/riscv.hpp ****     static void mc_sip(uint64);
  35:src/kernel/concurency/../../../h/../h/riscv.hpp **** 
  36:src/kernel/concurency/../../../h/../h/riscv.hpp ****     static void w_sip(uint64);
  37:src/kernel/concurency/../../../h/../h/riscv.hpp ****     static uint64 r_sip();
  38:src/kernel/concurency/../../../h/../h/riscv.hpp **** 
  39:src/kernel/concurency/../../../h/../h/riscv.hpp ****     static void ms_sie(uint64);
  40:src/kernel/concurency/../../../h/../h/riscv.hpp ****     static void mc_sie(uint64);
  41:src/kernel/concurency/../../../h/../h/riscv.hpp **** 
  42:src/kernel/concurency/../../../h/../h/riscv.hpp ****     static void w_sie(uint64);
  43:src/kernel/concurency/../../../h/../h/riscv.hpp ****     static uint64 r_sie();
  44:src/kernel/concurency/../../../h/../h/riscv.hpp **** 
  45:src/kernel/concurency/../../../h/../h/riscv.hpp ****     enum BitMaskSstatus{
  46:src/kernel/concurency/../../../h/../h/riscv.hpp ****         SSTATUS_SIE = (1<<1),
  47:src/kernel/concurency/../../../h/../h/riscv.hpp ****         SSTATUS_SPIE = (1<<5),
  48:src/kernel/concurency/../../../h/../h/riscv.hpp ****         SSTATUS_SPP = (1<<8),
  49:src/kernel/concurency/../../../h/../h/riscv.hpp ****         SSTATUS_SUM = (1<<18),
  50:src/kernel/concurency/../../../h/../h/riscv.hpp ****     };
  51:src/kernel/concurency/../../../h/../h/riscv.hpp **** 
  52:src/kernel/concurency/../../../h/../h/riscv.hpp ****     static void ms_sstatus(uint64);
  53:src/kernel/concurency/../../../h/../h/riscv.hpp ****     static void mc_sstatus(uint64);
  54:src/kernel/concurency/../../../h/../h/riscv.hpp **** 
  55:src/kernel/concurency/../../../h/../h/riscv.hpp ****     static void w_sstatus(uint64);
  56:src/kernel/concurency/../../../h/../h/riscv.hpp ****     static uint64 r_sstatus();
  57:src/kernel/concurency/../../../h/../h/riscv.hpp **** 
  58:src/kernel/concurency/../../../h/../h/riscv.hpp **** /* 
  59:src/kernel/concurency/../../../h/../h/riscv.hpp **** --------------------CLASSIC REGISTERS--------------------    
  60:src/kernel/concurency/../../../h/../h/riscv.hpp **** */
  61:src/kernel/concurency/../../../h/../h/riscv.hpp ****     static uint64 r_sp();
  62:src/kernel/concurency/../../../h/../h/riscv.hpp ****     static uint64 r_a0(); /* parameter registers */
  63:src/kernel/concurency/../../../h/../h/riscv.hpp ****     static uint64 s_a0(uint64 a0);
  64:src/kernel/concurency/../../../h/../h/riscv.hpp ****     static uint64 r_a1();
  65:src/kernel/concurency/../../../h/../h/riscv.hpp ****     static uint64 r_a2();
  66:src/kernel/concurency/../../../h/../h/riscv.hpp ****     static uint64 r_a3();
  67:src/kernel/concurency/../../../h/../h/riscv.hpp ****     static uint64 r_a4();
  68:src/kernel/concurency/../../../h/../h/riscv.hpp **** 
  69:src/kernel/concurency/../../../h/../h/riscv.hpp ****     static void popRegisters(); /* pop all context registers */
  70:src/kernel/concurency/../../../h/../h/riscv.hpp ****     static void pushRegisters(); /* push all context registers */
  71:src/kernel/concurency/../../../h/../h/riscv.hpp ****  
  72:src/kernel/concurency/../../../h/../h/riscv.hpp ****     static void popSppSpie(); /* jump from kernel to start of thread */
  73:src/kernel/concurency/../../../h/../h/riscv.hpp **** 
  74:src/kernel/concurency/../../../h/../h/riscv.hpp **** /* 
  75:src/kernel/concurency/../../../h/../h/riscv.hpp **** --------------------CONSOLE REGISTERS--------------------    
  76:src/kernel/concurency/../../../h/../h/riscv.hpp **** */
  77:src/kernel/concurency/../../../h/../h/riscv.hpp ****     static void mc_cstatus(uint64 mask); 
  78:src/kernel/concurency/../../../h/../h/riscv.hpp ****     static bool cstatus_ready(uint64 mask);
  79:src/kernel/concurency/../../../h/../h/riscv.hpp **** };
  80:src/kernel/concurency/../../../h/../h/riscv.hpp **** 
  81:src/kernel/concurency/../../../h/../h/riscv.hpp **** /* 
  82:src/kernel/concurency/../../../h/../h/riscv.hpp **** --------------------CLASSIC REGISTERS--------------------    
  83:src/kernel/concurency/../../../h/../h/riscv.hpp **** */
  84:src/kernel/concurency/../../../h/../h/riscv.hpp **** 
  85:src/kernel/concurency/../../../h/../h/riscv.hpp **** inline uint64 Riscv::r_sp(){
GAS LISTING /tmp/cclFzx07.s 			page 7


  86:src/kernel/concurency/../../../h/../h/riscv.hpp ****     uint64 a0;
  87:src/kernel/concurency/../../../h/../h/riscv.hpp ****     asm volatile("mv %0, sp" : "=r" (a0));
  88:src/kernel/concurency/../../../h/../h/riscv.hpp ****     return a0;
  89:src/kernel/concurency/../../../h/../h/riscv.hpp **** }
  90:src/kernel/concurency/../../../h/../h/riscv.hpp **** 
  91:src/kernel/concurency/../../../h/../h/riscv.hpp **** inline uint64 Riscv::r_a0(){
  92:src/kernel/concurency/../../../h/../h/riscv.hpp ****     uint64 a0;
  93:src/kernel/concurency/../../../h/../h/riscv.hpp ****     asm volatile("mv %0, a0" : "=r" (a0));
  94:src/kernel/concurency/../../../h/../h/riscv.hpp ****     return a0;
  95:src/kernel/concurency/../../../h/../h/riscv.hpp **** }
  96:src/kernel/concurency/../../../h/../h/riscv.hpp **** 
  97:src/kernel/concurency/../../../h/../h/riscv.hpp **** inline uint64 Riscv::r_a1(){
  98:src/kernel/concurency/../../../h/../h/riscv.hpp ****     uint64 a0;
  99:src/kernel/concurency/../../../h/../h/riscv.hpp ****     asm volatile("mv %0, a1" : "=r" (a0));
 100:src/kernel/concurency/../../../h/../h/riscv.hpp ****     return a0;
 101:src/kernel/concurency/../../../h/../h/riscv.hpp **** }
 102:src/kernel/concurency/../../../h/../h/riscv.hpp **** 
 103:src/kernel/concurency/../../../h/../h/riscv.hpp **** inline uint64 Riscv::r_a2(){
 104:src/kernel/concurency/../../../h/../h/riscv.hpp ****     uint64 a0;
 105:src/kernel/concurency/../../../h/../h/riscv.hpp ****     asm volatile("mv %0, a2" : "=r" (a0));
 106:src/kernel/concurency/../../../h/../h/riscv.hpp ****     return a0;
 107:src/kernel/concurency/../../../h/../h/riscv.hpp **** }
 108:src/kernel/concurency/../../../h/../h/riscv.hpp **** 
 109:src/kernel/concurency/../../../h/../h/riscv.hpp **** inline uint64 Riscv::r_a3(){
 110:src/kernel/concurency/../../../h/../h/riscv.hpp ****     uint64 a0;
 111:src/kernel/concurency/../../../h/../h/riscv.hpp ****     asm volatile("mv %0, a3" : "=r" (a0));
 112:src/kernel/concurency/../../../h/../h/riscv.hpp ****     return a0;
 113:src/kernel/concurency/../../../h/../h/riscv.hpp **** }
 114:src/kernel/concurency/../../../h/../h/riscv.hpp **** 
 115:src/kernel/concurency/../../../h/../h/riscv.hpp **** inline uint64 Riscv::r_a4(){
 116:src/kernel/concurency/../../../h/../h/riscv.hpp ****     uint64 a0;
 117:src/kernel/concurency/../../../h/../h/riscv.hpp ****     asm volatile("mv %0, a4" : "=r" (a0));
 118:src/kernel/concurency/../../../h/../h/riscv.hpp ****     return a0;
 119:src/kernel/concurency/../../../h/../h/riscv.hpp **** }
 120:src/kernel/concurency/../../../h/../h/riscv.hpp **** 
 121:src/kernel/concurency/../../../h/../h/riscv.hpp **** 
 122:src/kernel/concurency/../../../h/../h/riscv.hpp **** inline uint64 Riscv::s_a0(uint64 a0){
 123:src/kernel/concurency/../../../h/../h/riscv.hpp ****     return a0;
 124:src/kernel/concurency/../../../h/../h/riscv.hpp **** }
 125:src/kernel/concurency/../../../h/../h/riscv.hpp **** 
 126:src/kernel/concurency/../../../h/../h/riscv.hpp **** /* 
 127:src/kernel/concurency/../../../h/../h/riscv.hpp **** --------------------SUPERVISOR REGISTERS--------------------    
 128:src/kernel/concurency/../../../h/../h/riscv.hpp **** */
 129:src/kernel/concurency/../../../h/../h/riscv.hpp **** 
 130:src/kernel/concurency/../../../h/../h/riscv.hpp **** inline void Riscv::w_scause(uint64 scause){
 131:src/kernel/concurency/../../../h/../h/riscv.hpp ****     asm volatile("csrw scause, %0" : : "r" (scause));
 132:src/kernel/concurency/../../../h/../h/riscv.hpp **** }
 133:src/kernel/concurency/../../../h/../h/riscv.hpp **** 
 134:src/kernel/concurency/../../../h/../h/riscv.hpp **** inline uint64 Riscv::r_scause(){
 135:src/kernel/concurency/../../../h/../h/riscv.hpp ****     uint64 volatile scause;
 136:src/kernel/concurency/../../../h/../h/riscv.hpp ****     asm volatile("csrr %0, scause" : "=r" (scause));
 137:src/kernel/concurency/../../../h/../h/riscv.hpp ****     return scause;
 138:src/kernel/concurency/../../../h/../h/riscv.hpp **** } 
 139:src/kernel/concurency/../../../h/../h/riscv.hpp **** 
 140:src/kernel/concurency/../../../h/../h/riscv.hpp **** inline void Riscv::w_sepc(uint64 sepc){
 141:src/kernel/concurency/../../../h/../h/riscv.hpp ****     asm volatile("csrw sepc, %0" : : "r" (sepc));
 142:src/kernel/concurency/../../../h/../h/riscv.hpp **** }
GAS LISTING /tmp/cclFzx07.s 			page 8


 143:src/kernel/concurency/../../../h/../h/riscv.hpp **** 
 144:src/kernel/concurency/../../../h/../h/riscv.hpp **** inline uint64 Riscv::r_sepc(){
 145:src/kernel/concurency/../../../h/../h/riscv.hpp ****     uint64 volatile sepc;
 146:src/kernel/concurency/../../../h/../h/riscv.hpp ****     asm volatile("csrr %0, sepc" : "=r" (sepc));
 147:src/kernel/concurency/../../../h/../h/riscv.hpp ****     return sepc;
 148:src/kernel/concurency/../../../h/../h/riscv.hpp **** } 
 149:src/kernel/concurency/../../../h/../h/riscv.hpp **** 
 150:src/kernel/concurency/../../../h/../h/riscv.hpp **** inline void Riscv::w_stvec(uint64 stvec){
 151:src/kernel/concurency/../../../h/../h/riscv.hpp ****     asm volatile("csrw stvec, %0" : : "r" (stvec));
 152:src/kernel/concurency/../../../h/../h/riscv.hpp **** }
 153:src/kernel/concurency/../../../h/../h/riscv.hpp **** 
 154:src/kernel/concurency/../../../h/../h/riscv.hpp **** inline uint64 Riscv::r_stvec(){
 155:src/kernel/concurency/../../../h/../h/riscv.hpp ****     uint64 volatile stvec;
 156:src/kernel/concurency/../../../h/../h/riscv.hpp ****     asm volatile("csrr %0, stvec" : "=r" (stvec));
 157:src/kernel/concurency/../../../h/../h/riscv.hpp ****     return stvec;
 158:src/kernel/concurency/../../../h/../h/riscv.hpp **** } 
 159:src/kernel/concurency/../../../h/../h/riscv.hpp **** 
 160:src/kernel/concurency/../../../h/../h/riscv.hpp **** inline void Riscv::w_stval(uint64 stval){
 161:src/kernel/concurency/../../../h/../h/riscv.hpp ****     asm volatile("csrw stval, %0" : : "r" (stval));
 162:src/kernel/concurency/../../../h/../h/riscv.hpp **** }
 163:src/kernel/concurency/../../../h/../h/riscv.hpp **** 
 164:src/kernel/concurency/../../../h/../h/riscv.hpp **** inline uint64 Riscv::r_stval(){
 165:src/kernel/concurency/../../../h/../h/riscv.hpp ****     uint64 volatile stval;
 166:src/kernel/concurency/../../../h/../h/riscv.hpp ****     asm volatile("csrr %0, stval" : "=r" (stval));
 167:src/kernel/concurency/../../../h/../h/riscv.hpp ****     return stval;
 168:src/kernel/concurency/../../../h/../h/riscv.hpp **** } 
 169:src/kernel/concurency/../../../h/../h/riscv.hpp **** 
 170:src/kernel/concurency/../../../h/../h/riscv.hpp **** inline void Riscv::ms_sip(uint64 mask){
 171:src/kernel/concurency/../../../h/../h/riscv.hpp ****     asm volatile ("csrs sip, %0" : : "r" (mask));
 172:src/kernel/concurency/../../../h/../h/riscv.hpp **** }
 173:src/kernel/concurency/../../../h/../h/riscv.hpp **** 
 174:src/kernel/concurency/../../../h/../h/riscv.hpp **** inline void Riscv::mc_sip(uint64 mask){
 175:src/kernel/concurency/../../../h/../h/riscv.hpp ****     asm volatile ("csrc sip, %0" : : "r" (mask));
 176:src/kernel/concurency/../../../h/../h/riscv.hpp **** }
 177:src/kernel/concurency/../../../h/../h/riscv.hpp **** 
 178:src/kernel/concurency/../../../h/../h/riscv.hpp **** inline void Riscv::w_sip(uint64 sip){
 179:src/kernel/concurency/../../../h/../h/riscv.hpp ****     asm volatile("csrw sip, %0" : : "r" (sip));
 180:src/kernel/concurency/../../../h/../h/riscv.hpp **** }
 181:src/kernel/concurency/../../../h/../h/riscv.hpp **** 
 182:src/kernel/concurency/../../../h/../h/riscv.hpp **** inline uint64 Riscv::r_sip(){
 183:src/kernel/concurency/../../../h/../h/riscv.hpp ****     uint64 volatile sip;
 184:src/kernel/concurency/../../../h/../h/riscv.hpp ****     asm volatile("csrr %0, sip" : "=r" (sip));
 185:src/kernel/concurency/../../../h/../h/riscv.hpp ****     return sip;
 186:src/kernel/concurency/../../../h/../h/riscv.hpp **** } 
 187:src/kernel/concurency/../../../h/../h/riscv.hpp **** 
 188:src/kernel/concurency/../../../h/../h/riscv.hpp **** inline void Riscv::ms_sie(uint64 mask){
 189:src/kernel/concurency/../../../h/../h/riscv.hpp ****     asm volatile ("csrs sie, %0" : : "r" (mask));
 190:src/kernel/concurency/../../../h/../h/riscv.hpp **** }
 191:src/kernel/concurency/../../../h/../h/riscv.hpp **** 
 192:src/kernel/concurency/../../../h/../h/riscv.hpp **** inline void Riscv::mc_sie(uint64 mask){
 193:src/kernel/concurency/../../../h/../h/riscv.hpp ****     asm volatile ("csrc sie, %0" : : "r" (mask));
 194:src/kernel/concurency/../../../h/../h/riscv.hpp **** }
 195:src/kernel/concurency/../../../h/../h/riscv.hpp **** 
 196:src/kernel/concurency/../../../h/../h/riscv.hpp **** inline void Riscv::w_sie(uint64 sie){
 197:src/kernel/concurency/../../../h/../h/riscv.hpp ****     asm volatile("csrw sie, %0" : : "r" (sie));
 198:src/kernel/concurency/../../../h/../h/riscv.hpp **** }
 199:src/kernel/concurency/../../../h/../h/riscv.hpp **** 
GAS LISTING /tmp/cclFzx07.s 			page 9


 200:src/kernel/concurency/../../../h/../h/riscv.hpp **** inline uint64 Riscv::r_sie(){
 201:src/kernel/concurency/../../../h/../h/riscv.hpp ****     uint64 volatile sie;
 202:src/kernel/concurency/../../../h/../h/riscv.hpp ****     asm volatile("csrr %0, sie" : "=r" (sie));
 203:src/kernel/concurency/../../../h/../h/riscv.hpp ****     return sie;
 204:src/kernel/concurency/../../../h/../h/riscv.hpp **** } 
 205:src/kernel/concurency/../../../h/../h/riscv.hpp **** 
 206:src/kernel/concurency/../../../h/../h/riscv.hpp **** inline void Riscv::ms_sstatus(uint64 mask){
 207:src/kernel/concurency/../../../h/../h/riscv.hpp ****     asm volatile ("csrs sstatus, %0" : : "r" (mask));
 162              		.loc 3 207 5
 163              		.loc 3 207 53 is_stmt 0
 164 00e0 93070010 		li	a5,256
 165              	 #APP
 166              	# 207 "src/kernel/concurency/../../../h/../h/riscv.hpp" 1
 208              	}
 167              		csrs sstatus, a5
 168              	# 0 "" 2
 169              	.LVL5:
 170              	 #NO_APP
 171              	.LBE37:
 172              	.LBE36:
  54:src/kernel/concurency/tcb.cpp **** }
 173              		.loc 1 54 1
 174 00e8 03348100 		ld	s0,8(sp)
 175              		.cfi_remember_state
 176              		.cfi_restore 8
 177              		.cfi_def_cfa 2, 16
 178 00ec 13010101 		addi	sp,sp,16
 179              		.cfi_def_cfa_offset 0
 180 00f0 67800000 		jr	ra
 181              	.L12:
 182              		.cfi_restore_state
  48:src/kernel/concurency/tcb.cpp ****             Riscv::mc_sstatus(Riscv::SSTATUS_SPIE);
 183              		.loc 1 48 9 is_stmt 1
  48:src/kernel/concurency/tcb.cpp ****             Riscv::mc_sstatus(Riscv::SSTATUS_SPIE);
 184              		.loc 1 48 21 is_stmt 0
 185 00f4 83C76703 		lbu	a5,54(a5)
  48:src/kernel/concurency/tcb.cpp ****             Riscv::mc_sstatus(Riscv::SSTATUS_SPIE);
 186              		.loc 1 48 9
 187 00f8 63880700 		beq	a5,zero,.L14
  49:src/kernel/concurency/tcb.cpp ****         else
 188              		.loc 1 49 13 is_stmt 1
 189              	.LVL6:
 190              	.LBB38:
 191              	.LBB39:
 209:src/kernel/concurency/../../../h/../h/riscv.hpp **** 
 210:src/kernel/concurency/../../../h/../h/riscv.hpp **** inline void Riscv::mc_sstatus(uint64 mask){
 211:src/kernel/concurency/../../../h/../h/riscv.hpp ****     asm volatile ("csrc sstatus, %0" : : "r" (mask));
 192              		.loc 3 211 5
 193              		.loc 3 211 53 is_stmt 0
 194 00fc 93070002 		li	a5,32
 195              	 #APP
 196              	# 211 "src/kernel/concurency/../../../h/../h/riscv.hpp" 1
 212              	}
 197              		csrc sstatus, a5
 198              	# 0 "" 2
 199              	 #NO_APP
 200 0104 6FF0DFFD 		j	.L13
GAS LISTING /tmp/cclFzx07.s 			page 10


 201              	.LVL7:
 202              	.L14:
 203              	.LBE39:
 204              	.LBE38:
  51:src/kernel/concurency/tcb.cpp ****     }   
 205              		.loc 1 51 13 is_stmt 1
 206              	.LBB40:
 207              	.LBB41:
 207:src/kernel/concurency/../../../h/../h/riscv.hpp **** }
 208              		.loc 3 207 5
 207:src/kernel/concurency/../../../h/../h/riscv.hpp **** }
 209              		.loc 3 207 53 is_stmt 0
 210 0108 93070002 		li	a5,32
 211              	 #APP
 212              	# 207 "src/kernel/concurency/../../../h/../h/riscv.hpp" 1
 213              		csrs sstatus, a5
 214              	# 0 "" 2
 215              	 #NO_APP
 216 0110 6FF01FFD 		j	.L13
 217              	.LBE41:
 218              	.LBE40:
 219              		.cfi_endproc
 220              	.LFE119:
 222              		.align	2
 223              		.globl	_ZN3TCB13threadWrapperEv
 225              	_ZN3TCB13threadWrapperEv:
 226              	.LFB120:
  55:src/kernel/concurency/tcb.cpp **** 
  56:src/kernel/concurency/tcb.cpp **** void TCB::threadWrapper()
  57:src/kernel/concurency/tcb.cpp **** {
 227              		.loc 1 57 1 is_stmt 1
 228              		.cfi_startproc
 229 0114 130101FF 		addi	sp,sp,-16
 230              		.cfi_def_cfa_offset 16
 231 0118 23341100 		sd	ra,8(sp)
 232 011c 23308100 		sd	s0,0(sp)
 233              		.cfi_offset 1, -8
 234              		.cfi_offset 8, -16
 235 0120 13040101 		addi	s0,sp,16
 236              		.cfi_def_cfa 8, 0
  58:src/kernel/concurency/tcb.cpp ****     //print("start of thread", (uint64)TCB::running, 0);
  59:src/kernel/concurency/tcb.cpp ****     initalize();
 237              		.loc 1 59 5
 238              		.loc 1 59 14 is_stmt 0
 239 0124 97000000 		call	_ZN3TCB9initalizeEv
 239      E7800000 
 240              	.LVL8:
  60:src/kernel/concurency/tcb.cpp ****     Riscv::popSppSpie();
 241              		.loc 1 60 5 is_stmt 1
 242              		.loc 1 60 22 is_stmt 0
 243 012c 97000000 		call	_ZN5Riscv10popSppSpieEv
 243      E7800000 
 244              	.LVL9:
  61:src/kernel/concurency/tcb.cpp ****     //__asm__ volatile ("csrw sepc, %0" : : "r" (running->body) );
  62:src/kernel/concurency/tcb.cpp ****     //__asm__ volatile ("sret");
  63:src/kernel/concurency/tcb.cpp ****     running->body(running->args);
 245              		.loc 1 63 5 is_stmt 1
GAS LISTING /tmp/cclFzx07.s 			page 11


 246              		.loc 1 63 14 is_stmt 0
 247 0134 97070000 		lla	a5,_ZN3TCB7runningE
 247      93870700 
 248 013c 83B70700 		ld	a5,0(a5)
 249 0140 03B70701 		ld	a4,16(a5)
 250              		.loc 1 63 18
 251 0144 03B58701 		ld	a0,24(a5)
 252 0148 E7000700 		jalr	a4
 253              	.LVL10:
  64:src/kernel/concurency/tcb.cpp ****     thread_exit();
 254              		.loc 1 64 5 is_stmt 1
 255              		.loc 1 64 16 is_stmt 0
 256 014c 97000000 		call	thread_exit
 256      E7800000 
 257              	.LVL11:
  65:src/kernel/concurency/tcb.cpp **** }
 258              		.loc 1 65 1
 259 0154 83308100 		ld	ra,8(sp)
 260              		.cfi_restore 1
 261 0158 03340100 		ld	s0,0(sp)
 262              		.cfi_restore 8
 263              		.cfi_def_cfa 2, 16
 264 015c 13010101 		addi	sp,sp,16
 265              		.cfi_def_cfa_offset 0
 266 0160 67800000 		jr	ra
 267              		.cfi_endproc
 268              	.LFE120:
 270              		.align	2
 271              		.globl	_ZN3TCB15setPanicContextEmm
 273              	_ZN3TCB15setPanicContextEmm:
 274              	.LFB126:
  66:src/kernel/concurency/tcb.cpp **** 
  67:src/kernel/concurency/tcb.cpp **** void TCB::dispatch()
  68:src/kernel/concurency/tcb.cpp **** {
  69:src/kernel/concurency/tcb.cpp ****     //Scheduler::print_queue();
  70:src/kernel/concurency/tcb.cpp ****     TCB* oldRunning = running;
  71:src/kernel/concurency/tcb.cpp ****     
  72:src/kernel/concurency/tcb.cpp ****     if(oldRunning->isFinished())
  73:src/kernel/concurency/tcb.cpp ****     {
  74:src/kernel/concurency/tcb.cpp ****         threadsUp--;
  75:src/kernel/concurency/tcb.cpp ****         if(oldRunning->deleteOnEnd)
  76:src/kernel/concurency/tcb.cpp ****             delete oldRunning;
  77:src/kernel/concurency/tcb.cpp ****     }
  78:src/kernel/concurency/tcb.cpp ****     else if(!oldRunning->isSuspended())
  79:src/kernel/concurency/tcb.cpp ****     {
  80:src/kernel/concurency/tcb.cpp ****         Scheduler::put(oldRunning);
  81:src/kernel/concurency/tcb.cpp ****     }
  82:src/kernel/concurency/tcb.cpp ****     if(threadsUp <= 2 && StdIO::obuffer->tmpLen == 0) endKernel();
  83:src/kernel/concurency/tcb.cpp ****     
  84:src/kernel/concurency/tcb.cpp ****     running = Scheduler::get(); 
  85:src/kernel/concurency/tcb.cpp ****     contextSwitch(&oldRunning->context, &running->context); 
  86:src/kernel/concurency/tcb.cpp **** }
  87:src/kernel/concurency/tcb.cpp **** 
  88:src/kernel/concurency/tcb.cpp **** void TCB::deleteThread(TCB* t)
  89:src/kernel/concurency/tcb.cpp **** {
  90:src/kernel/concurency/tcb.cpp ****     if(t)
  91:src/kernel/concurency/tcb.cpp ****     {
GAS LISTING /tmp/cclFzx07.s 			page 12


  92:src/kernel/concurency/tcb.cpp ****         if(running != t && t->isFinished())
  93:src/kernel/concurency/tcb.cpp ****         {
  94:src/kernel/concurency/tcb.cpp ****             delete t;
  95:src/kernel/concurency/tcb.cpp ****         }
  96:src/kernel/concurency/tcb.cpp ****         else
  97:src/kernel/concurency/tcb.cpp ****         {
  98:src/kernel/concurency/tcb.cpp ****             t->deleteOnEnd = true;
  99:src/kernel/concurency/tcb.cpp ****         }        
 100:src/kernel/concurency/tcb.cpp ****     }
 101:src/kernel/concurency/tcb.cpp **** }
 102:src/kernel/concurency/tcb.cpp **** 
 103:src/kernel/concurency/tcb.cpp **** void TCB::sleep(time_t t)
 104:src/kernel/concurency/tcb.cpp **** {
 105:src/kernel/concurency/tcb.cpp ****     running->setState(SLEEPING);
 106:src/kernel/concurency/tcb.cpp ****     Scheduler::put_sleeper(running, t);
 107:src/kernel/concurency/tcb.cpp ****     TCB::yield(); 
 108:src/kernel/concurency/tcb.cpp **** }
 109:src/kernel/concurency/tcb.cpp **** 
 110:src/kernel/concurency/tcb.cpp **** TCB* TCB::createMainKernelThread()
 111:src/kernel/concurency/tcb.cpp **** {
 112:src/kernel/concurency/tcb.cpp ****     if(!kernelThread)
 113:src/kernel/concurency/tcb.cpp ****     {    
 114:src/kernel/concurency/tcb.cpp ****         kernelThread = createThread(nullptr);
 115:src/kernel/concurency/tcb.cpp ****         kernelThread->setKernelMode();
 116:src/kernel/concurency/tcb.cpp ****         kernelThread->setKernelLocked();
 117:src/kernel/concurency/tcb.cpp ****         kernelThread->setState(BLOCKED);
 118:src/kernel/concurency/tcb.cpp ****     }
 119:src/kernel/concurency/tcb.cpp ****     running = kernelThread;
 120:src/kernel/concurency/tcb.cpp ****     return kernelThread;
 121:src/kernel/concurency/tcb.cpp **** }
 122:src/kernel/concurency/tcb.cpp **** 
 123:src/kernel/concurency/tcb.cpp **** int TCB::endKernel()
 124:src/kernel/concurency/tcb.cpp **** {
 125:src/kernel/concurency/tcb.cpp ****     if(kernelThread)
 126:src/kernel/concurency/tcb.cpp ****     {
 127:src/kernel/concurency/tcb.cpp ****         Scheduler::put_front(kernelThread);
 128:src/kernel/concurency/tcb.cpp ****         kernelThread = nullptr;
 129:src/kernel/concurency/tcb.cpp ****         TCB::dispatch();
 130:src/kernel/concurency/tcb.cpp ****     }
 131:src/kernel/concurency/tcb.cpp ****     return -1;
 132:src/kernel/concurency/tcb.cpp **** 
 133:src/kernel/concurency/tcb.cpp ****     
 134:src/kernel/concurency/tcb.cpp **** }
 135:src/kernel/concurency/tcb.cpp **** 
 136:src/kernel/concurency/tcb.cpp **** void TCB::setPanicContext(uint64 ra, uint64 sp)
 137:src/kernel/concurency/tcb.cpp **** {
 275              		.loc 1 137 1 is_stmt 1
 276              		.cfi_startproc
 277              	.LVL12:
 278 0164 130101FF 		addi	sp,sp,-16
 279              		.cfi_def_cfa_offset 16
 280 0168 23348100 		sd	s0,8(sp)
 281              		.cfi_offset 8, -8
 282 016c 13040101 		addi	s0,sp,16
 283              		.cfi_def_cfa 8, 0
 138:src/kernel/concurency/tcb.cpp ****     panicContext.ra = ra;
 284              		.loc 1 138 5
GAS LISTING /tmp/cclFzx07.s 			page 13


 285              		.loc 1 138 21 is_stmt 0
 286 0170 97070000 		lla	a5,.LANCHOR0
 286      93870700 
 287 0178 23B0A700 		sd	a0,0(a5)
 139:src/kernel/concurency/tcb.cpp ****     panicContext.sp = sp;
 288              		.loc 1 139 5 is_stmt 1
 289              		.loc 1 139 21 is_stmt 0
 290 017c 23B4B700 		sd	a1,8(a5)
 140:src/kernel/concurency/tcb.cpp **** }
 291              		.loc 1 140 1
 292 0180 03348100 		ld	s0,8(sp)
 293              		.cfi_restore 8
 294              		.cfi_def_cfa 2, 16
 295 0184 13010101 		addi	sp,sp,16
 296              		.cfi_def_cfa_offset 0
 297 0188 67800000 		jr	ra
 298              		.cfi_endproc
 299              	.LFE126:
 301              		.align	2
 302              		.globl	_ZN3TCB13panicDispatchEv
 304              	_ZN3TCB13panicDispatchEv:
 305              	.LFB127:
 141:src/kernel/concurency/tcb.cpp **** 
 142:src/kernel/concurency/tcb.cpp **** void TCB::panicDispatch()
 143:src/kernel/concurency/tcb.cpp **** {
 306              		.loc 1 143 1 is_stmt 1
 307              		.cfi_startproc
 308 018c 130101FF 		addi	sp,sp,-16
 309              		.cfi_def_cfa_offset 16
 310 0190 23341100 		sd	ra,8(sp)
 311 0194 23308100 		sd	s0,0(sp)
 312              		.cfi_offset 1, -8
 313              		.cfi_offset 8, -16
 314 0198 13040101 		addi	s0,sp,16
 315              		.cfi_def_cfa 8, 0
 144:src/kernel/concurency/tcb.cpp ****     contextSwitch(&running->context, &panicContext);
 316              		.loc 1 144 5
 317              		.loc 1 144 29 is_stmt 0
 318 019c 97070000 		lla	a5,_ZN3TCB7runningE
 318      93870700 
 319 01a4 03B50700 		ld	a0,0(a5)
 320              		.loc 1 144 18
 321 01a8 97050000 		lla	a1,.LANCHOR0
 321      93850500 
 322 01b0 13058503 		addi	a0,a0,56
 323 01b4 97000000 		call	_ZN3TCB13contextSwitchEPNS_7ContextES1_
 323      E7800000 
 324              	.LVL13:
 145:src/kernel/concurency/tcb.cpp **** }
 325              		.loc 1 145 1
 326 01bc 83308100 		ld	ra,8(sp)
 327              		.cfi_restore 1
 328 01c0 03340100 		ld	s0,0(sp)
 329              		.cfi_restore 8
 330              		.cfi_def_cfa 2, 16
 331 01c4 13010101 		addi	sp,sp,16
 332              		.cfi_def_cfa_offset 0
GAS LISTING /tmp/cclFzx07.s 			page 14


 333 01c8 67800000 		jr	ra
 334              		.cfi_endproc
 335              	.LFE127:
 337              		.align	2
 338              		.globl	_ZN3TCBnwEm
 340              	_ZN3TCBnwEm:
 341              	.LFB128:
 146:src/kernel/concurency/tcb.cpp **** 
 147:src/kernel/concurency/tcb.cpp **** void* TCB::operator new(size_t sz){ 
 342              		.loc 1 147 35 is_stmt 1
 343              		.cfi_startproc
 344              		.cfi_personality 0x9b,DW.ref.__gxx_personality_v0
 345              		.cfi_lsda 0x1b,.LLSDA128
 346              	.LVL14:
 347 01cc 130101FE 		addi	sp,sp,-32
 348              		.cfi_def_cfa_offset 32
 349 01d0 233C1100 		sd	ra,24(sp)
 350 01d4 23388100 		sd	s0,16(sp)
 351 01d8 23349100 		sd	s1,8(sp)
 352 01dc 23302101 		sd	s2,0(sp)
 353              		.cfi_offset 1, -8
 354              		.cfi_offset 8, -16
 355              		.cfi_offset 9, -24
 356              		.cfi_offset 18, -32
 357 01e0 13040102 		addi	s0,sp,32
 358              		.cfi_def_cfa 8, 0
 148:src/kernel/concurency/tcb.cpp ****     if(!cache){
 359              		.loc 1 148 5
 360              		.loc 1 148 8 is_stmt 0
 361 01e4 97070000 		lla	a5,_ZN3TCB5cacheE
 361      93870700 
 362 01ec 83B70700 		ld	a5,0(a5)
 363              		.loc 1 148 5
 364 01f0 63880702 		beq	a5,zero,.L29
 365              	.LVL15:
 366              	.L23:
 149:src/kernel/concurency/tcb.cpp ****         cache = new ObjectCache("tcb_cache", sz, nullptr, nullptr); 
 150:src/kernel/concurency/tcb.cpp ****     }
 151:src/kernel/concurency/tcb.cpp ****     return cache->alloc_obj();
 367              		.loc 1 151 5 is_stmt 1
 368              		.loc 1 151 28 is_stmt 0
 369 01f4 97070000 		lla	a5,_ZN3TCB5cacheE
 369      93870700 
 370 01fc 03B50700 		ld	a0,0(a5)
 371              	.LEHB0:
 372 0200 97000000 		call	_ZN11ObjectCache9alloc_objEv
 372      E7800000 
 373              	.LVL16:
 152:src/kernel/concurency/tcb.cpp **** } 
 374              		.loc 1 152 1
 375 0208 83308101 		ld	ra,24(sp)
 376              		.cfi_remember_state
 377              		.cfi_restore 1
 378 020c 03340101 		ld	s0,16(sp)
 379              		.cfi_restore 8
 380              		.cfi_def_cfa 2, 32
 381 0210 83348100 		ld	s1,8(sp)
GAS LISTING /tmp/cclFzx07.s 			page 15


 382              		.cfi_restore 9
 383 0214 03390100 		ld	s2,0(sp)
 384              		.cfi_restore 18
 385 0218 13010102 		addi	sp,sp,32
 386              		.cfi_def_cfa_offset 0
 387 021c 67800000 		jr	ra
 388              	.LVL17:
 389              	.L29:
 390              		.cfi_restore_state
 391 0220 93040500 		mv	s1,a0
 149:src/kernel/concurency/tcb.cpp ****         cache = new ObjectCache("tcb_cache", sz, nullptr, nullptr); 
 392              		.loc 1 149 9 is_stmt 1
 149:src/kernel/concurency/tcb.cpp ****         cache = new ObjectCache("tcb_cache", sz, nullptr, nullptr); 
 393              		.loc 1 149 66 is_stmt 0
 394 0224 13058005 		li	a0,88
 395              	.LVL18:
 396 0228 97000000 		call	_ZN11ObjectCachenwEm
 396      E7800000 
 397              	.LVL19:
 398              	.LEHE0:
 399 0230 13090500 		mv	s2,a0
 400 0234 63020502 		beq	a0,zero,.L24
 149:src/kernel/concurency/tcb.cpp ****         cache = new ObjectCache("tcb_cache", sz, nullptr, nullptr); 
 401              		.loc 1 149 66 discriminator 1
 402 0238 93070000 		li	a5,0
 403 023c 13070000 		li	a4,0
 404 0240 93060000 		li	a3,0
 405 0244 13860400 		mv	a2,s1
 406 0248 97050000 		lla	a1,.LC0
 406      93850500 
 407              	.LEHB1:
 408 0250 97000000 		call	_ZN11ObjectCacheC1EPKcmPFvPvES4_NS_12SlabMetaTypeE
 408      E7800000 
 409              	.LVL20:
 410              	.LEHE1:
 411              	.L24:
 149:src/kernel/concurency/tcb.cpp ****         cache = new ObjectCache("tcb_cache", sz, nullptr, nullptr); 
 412              		.loc 1 149 15 discriminator 6
 413 0258 97070000 		sd	s2,_ZN3TCB5cacheE,a5
 413      23B02701 
 414 0260 6FF05FF9 		j	.L23
 415              	.L26:
 416 0264 93040500 		mv	s1,a0
 417              	.LVL21:
 149:src/kernel/concurency/tcb.cpp ****         cache = new ObjectCache("tcb_cache", sz, nullptr, nullptr); 
 418              		.loc 1 149 66
 419 0268 13050900 		mv	a0,s2
 420 026c 97000000 		call	_ZN11ObjectCachedlEPv
 420      E7800000 
 421              	.LVL22:
 422 0274 13850400 		mv	a0,s1
 423              	.LEHB2:
 424 0278 97000000 		call	_Unwind_Resume
 424      E7800000 
 425              	.LVL23:
 426              	.LEHE2:
 427              		.cfi_endproc
GAS LISTING /tmp/cclFzx07.s 			page 16


 428              	.LFE128:
 429              		.globl	__gxx_personality_v0
 430              		.section	.gcc_except_table,"aw",@progbits
 431              	.LLSDA128:
 432 0000 FF       		.byte	0xff
 433 0001 FF       		.byte	0xff
 434 0002 03       		.byte	0x3
 435 0003 27       		.byte	0x27
 436 0004 00000000 		.4byte	.LEHB0-.LFB128
 437 0008 00000000 		.4byte	.LEHE0-.LEHB0
 438 000c 00000000 		.4byte	0
 439 0010 00       		.byte	0
 440 0011 00000000 		.4byte	.LEHB1-.LFB128
 441 0015 00000000 		.4byte	.LEHE1-.LEHB1
 442 0019 00000000 		.4byte	.L26-.LFB128
 443 001d 00       		.byte	0
 444 001e 00000000 		.4byte	.LEHB2-.LFB128
 445 0022 00000000 		.4byte	.LEHE2-.LEHB2
 446 0026 00000000 		.4byte	0
 447 002a 00       		.byte	0
 448              		.text
 450              		.align	2
 451              		.globl	_ZN3TCBnaEm
 453              	_ZN3TCBnaEm:
 454              	.LFB129:
 153:src/kernel/concurency/tcb.cpp **** void* TCB::operator new[](size_t sz){ 
 455              		.loc 1 153 37 is_stmt 1
 456              		.cfi_startproc
 457              	.LVL24:
 458 0280 130101FE 		addi	sp,sp,-32
 459              		.cfi_def_cfa_offset 32
 460 0284 233C1100 		sd	ra,24(sp)
 461 0288 23388100 		sd	s0,16(sp)
 462 028c 23349100 		sd	s1,8(sp)
 463              		.cfi_offset 1, -8
 464              		.cfi_offset 8, -16
 465              		.cfi_offset 9, -24
 466 0290 13040102 		addi	s0,sp,32
 467              		.cfi_def_cfa 8, 0
 468 0294 93040500 		mv	s1,a0
 154:src/kernel/concurency/tcb.cpp ****     return SlabAllocator::getInstance().kmalloc(sz);
 469              		.loc 1 154 5
 470              		.loc 1 154 39 is_stmt 0
 471 0298 97000000 		call	_ZN13SlabAllocator11getInstanceEv
 471      E7800000 
 472              	.LVL25:
 473              		.loc 1 154 48
 474 02a0 93850400 		mv	a1,s1
 475 02a4 97000000 		call	_ZN13SlabAllocator7kmallocEm
 475      E7800000 
 476              	.LVL26:
 155:src/kernel/concurency/tcb.cpp **** } 
 477              		.loc 1 155 1
 478 02ac 83308101 		ld	ra,24(sp)
 479              		.cfi_restore 1
 480 02b0 03340101 		ld	s0,16(sp)
 481              		.cfi_restore 8
GAS LISTING /tmp/cclFzx07.s 			page 17


 482              		.cfi_def_cfa 2, 32
 483 02b4 83348100 		ld	s1,8(sp)
 484              		.cfi_restore 9
 485              	.LVL27:
 486 02b8 13010102 		addi	sp,sp,32
 487              		.cfi_def_cfa_offset 0
 488 02bc 67800000 		jr	ra
 489              		.cfi_endproc
 490              	.LFE129:
 492              		.align	2
 493              		.globl	_ZN3TCBdlEPv
 495              	_ZN3TCBdlEPv:
 496              	.LFB130:
 156:src/kernel/concurency/tcb.cpp **** void TCB::operator delete(void* ptr){ 
 497              		.loc 1 156 37 is_stmt 1
 498              		.cfi_startproc
 499              	.LVL28:
 500 02c0 130101FF 		addi	sp,sp,-16
 501              		.cfi_def_cfa_offset 16
 502 02c4 23341100 		sd	ra,8(sp)
 503 02c8 23308100 		sd	s0,0(sp)
 504              		.cfi_offset 1, -8
 505              		.cfi_offset 8, -16
 506 02cc 13040101 		addi	s0,sp,16
 507              		.cfi_def_cfa 8, 0
 157:src/kernel/concurency/tcb.cpp ****     // kprintString("TCB dealloc!\n");
 158:src/kernel/concurency/tcb.cpp ****     cache->free_obj(ptr);
 508              		.loc 1 158 5
 509              		.loc 1 158 20 is_stmt 0
 510 02d0 93050500 		mv	a1,a0
 511 02d4 97070000 		lla	a5,_ZN3TCB5cacheE
 511      93870700 
 512 02dc 03B50700 		ld	a0,0(a5)
 513              	.LVL29:
 514 02e0 97000000 		call	_ZN11ObjectCache8free_objEPv
 514      E7800000 
 515              	.LVL30:
 159:src/kernel/concurency/tcb.cpp **** } 
 516              		.loc 1 159 1
 517 02e8 83308100 		ld	ra,8(sp)
 518              		.cfi_restore 1
 519 02ec 03340100 		ld	s0,0(sp)
 520              		.cfi_restore 8
 521              		.cfi_def_cfa 2, 16
 522 02f0 13010101 		addi	sp,sp,16
 523              		.cfi_def_cfa_offset 0
 524 02f4 67800000 		jr	ra
 525              		.cfi_endproc
 526              	.LFE130:
 528              		.align	2
 529              		.globl	_ZN3TCB12createThreadEPFvPvES0_Pm
 531              	_ZN3TCB12createThreadEPFvPvES0_Pm:
 532              	.LFB114:
  17:src/kernel/concurency/tcb.cpp ****     return new TCB(body, args, stack);
 533              		.loc 1 17 1 is_stmt 1
 534              		.cfi_startproc
 535              		.cfi_personality 0x9b,DW.ref.__gxx_personality_v0
GAS LISTING /tmp/cclFzx07.s 			page 18


 536              		.cfi_lsda 0x1b,.LLSDA114
 537              	.LVL31:
 538 02f8 130101FD 		addi	sp,sp,-48
 539              		.cfi_def_cfa_offset 48
 540 02fc 23341102 		sd	ra,40(sp)
 541 0300 23308102 		sd	s0,32(sp)
 542 0304 233C9100 		sd	s1,24(sp)
 543 0308 23382101 		sd	s2,16(sp)
 544 030c 23343101 		sd	s3,8(sp)
 545 0310 23304101 		sd	s4,0(sp)
 546              		.cfi_offset 1, -8
 547              		.cfi_offset 8, -16
 548              		.cfi_offset 9, -24
 549              		.cfi_offset 18, -32
 550              		.cfi_offset 19, -40
 551              		.cfi_offset 20, -48
 552 0314 13040103 		addi	s0,sp,48
 553              		.cfi_def_cfa 8, 0
 554 0318 13090500 		mv	s2,a0
 555 031c 93890500 		mv	s3,a1
 556 0320 130A0600 		mv	s4,a2
  18:src/kernel/concurency/tcb.cpp **** }
 557              		.loc 1 18 5
  18:src/kernel/concurency/tcb.cpp **** }
 558              		.loc 1 18 37 is_stmt 0
 559 0324 13058004 		li	a0,72
 560              	.LVL32:
 561              	.LEHB3:
 562 0328 97000000 		call	_ZN3TCBnwEm
 562      E7800000 
 563              	.LVL33:
 564              	.LEHE3:
 565 0330 93040500 		mv	s1,a0
 566 0334 630E0502 		beq	a0,zero,.L34
  18:src/kernel/concurency/tcb.cpp **** }
 567              		.loc 1 18 37 discriminator 1
 568 0338 13072000 		li	a4,2
 569 033c 93060A00 		mv	a3,s4
 570 0340 13860900 		mv	a2,s3
 571 0344 93050900 		mv	a1,s2
 572              	.LEHB4:
 573 0348 97000000 		call	_ZN3TCBC1EPFvPvES0_Pmm
 573      E7800000 
 574              	.LVL34:
 575              	.LEHE4:
 576 0350 6F000002 		j	.L34
 577              	.L37:
 578 0354 13090500 		mv	s2,a0
 579              	.LVL35:
  18:src/kernel/concurency/tcb.cpp **** }
 580              		.loc 1 18 37
 581 0358 13850400 		mv	a0,s1
 582 035c 97000000 		call	_ZN3TCBdlEPv
 582      E7800000 
 583              	.LVL36:
 584 0364 13050900 		mv	a0,s2
 585              	.LEHB5:
GAS LISTING /tmp/cclFzx07.s 			page 19


 586 0368 97000000 		call	_Unwind_Resume
 586      E7800000 
 587              	.LVL37:
 588              	.LEHE5:
 589              	.L34:
  19:src/kernel/concurency/tcb.cpp **** 
 590              		.loc 1 19 1
 591 0370 13850400 		mv	a0,s1
 592 0374 83308102 		ld	ra,40(sp)
 593              		.cfi_restore 1
 594 0378 03340102 		ld	s0,32(sp)
 595              		.cfi_restore 8
 596              		.cfi_def_cfa 2, 48
 597 037c 83348101 		ld	s1,24(sp)
 598              		.cfi_restore 9
 599 0380 03390101 		ld	s2,16(sp)
 600              		.cfi_restore 18
 601              	.LVL38:
 602 0384 83398100 		ld	s3,8(sp)
 603              		.cfi_restore 19
 604              	.LVL39:
 605 0388 033A0100 		ld	s4,0(sp)
 606              		.cfi_restore 20
 607              	.LVL40:
 608 038c 13010103 		addi	sp,sp,48
 609              		.cfi_def_cfa_offset 0
 610 0390 67800000 		jr	ra
 611              		.cfi_endproc
 612              	.LFE114:
 613              		.section	.gcc_except_table
 614              	.LLSDA114:
 615 002b FF       		.byte	0xff
 616 002c FF       		.byte	0xff
 617 002d 03       		.byte	0x3
 618 002e 27       		.byte	0x27
 619 002f 00000000 		.4byte	.LEHB3-.LFB114
 620 0033 00000000 		.4byte	.LEHE3-.LEHB3
 621 0037 00000000 		.4byte	0
 622 003b 00       		.byte	0
 623 003c 00000000 		.4byte	.LEHB4-.LFB114
 624 0040 00000000 		.4byte	.LEHE4-.LEHB4
 625 0044 00000000 		.4byte	.L37-.LFB114
 626 0048 00       		.byte	0
 627 0049 00000000 		.4byte	.LEHB5-.LFB114
 628 004d 00000000 		.4byte	.LEHE5-.LEHB5
 629 0051 00000000 		.4byte	0
 630 0055 00       		.byte	0
 631              		.text
 633              		.align	2
 634              		.globl	_ZN3TCB22createMainKernelThreadEv
 636              	_ZN3TCB22createMainKernelThreadEv:
 637              	.LFB124:
 111:src/kernel/concurency/tcb.cpp ****     if(!kernelThread)
 638              		.loc 1 111 1 is_stmt 1
 639              		.cfi_startproc
 112:src/kernel/concurency/tcb.cpp ****     {    
 640              		.loc 1 112 5
GAS LISTING /tmp/cclFzx07.s 			page 20


 112:src/kernel/concurency/tcb.cpp ****     {    
 641              		.loc 1 112 8 is_stmt 0
 642 0394 97070000 		lla	a5,_ZN3TCB12kernelThreadE
 642      93870700 
 643 039c 83B70700 		ld	a5,0(a5)
 112:src/kernel/concurency/tcb.cpp ****     {    
 644              		.loc 1 112 5
 645 03a0 638E0700 		beq	a5,zero,.L45
 119:src/kernel/concurency/tcb.cpp ****     return kernelThread;
 646              		.loc 1 119 5 is_stmt 1
 119:src/kernel/concurency/tcb.cpp ****     return kernelThread;
 647              		.loc 1 119 13 is_stmt 0
 648 03a4 97070000 		lla	a5,_ZN3TCB12kernelThreadE
 648      93870700 
 649 03ac 03B50700 		ld	a0,0(a5)
 650 03b0 97070000 		sd	a0,_ZN3TCB7runningE,a5
 650      23B0A700 
 120:src/kernel/concurency/tcb.cpp **** }
 651              		.loc 1 120 5 is_stmt 1
 121:src/kernel/concurency/tcb.cpp **** 
 652              		.loc 1 121 1 is_stmt 0
 653 03b8 67800000 		ret
 654              	.L45:
 111:src/kernel/concurency/tcb.cpp ****     if(!kernelThread)
 655              		.loc 1 111 1
 656 03bc 130101FF 		addi	sp,sp,-16
 657              		.cfi_def_cfa_offset 16
 658 03c0 23341100 		sd	ra,8(sp)
 659 03c4 23308100 		sd	s0,0(sp)
 660              		.cfi_offset 1, -8
 661              		.cfi_offset 8, -16
 662 03c8 13040101 		addi	s0,sp,16
 663              		.cfi_def_cfa 8, 0
 114:src/kernel/concurency/tcb.cpp ****         kernelThread->setKernelMode();
 664              		.loc 1 114 9 is_stmt 1
 114:src/kernel/concurency/tcb.cpp ****         kernelThread->setKernelMode();
 665              		.loc 1 114 36 is_stmt 0
 666 03cc 13060000 		li	a2,0
 667 03d0 93050000 		li	a1,0
 668 03d4 13050000 		li	a0,0
 669 03d8 97000000 		call	_ZN3TCB12createThreadEPFvPvES0_Pm
 669      E7800000 
 670              	.LVL41:
 114:src/kernel/concurency/tcb.cpp ****         kernelThread->setKernelMode();
 671              		.loc 1 114 22
 672 03e0 97070000 		sd	a0,_ZN3TCB12kernelThreadE,a5
 672      23B0A700 
 115:src/kernel/concurency/tcb.cpp ****         kernelThread->setKernelLocked();
 673              		.loc 1 115 9 is_stmt 1
 674              	.LVL42:
 675              	.LBB42:
 676              	.LBB43:
  43:src/kernel/concurency/../../../h/../h/tcb.hpp ****     TCBState getState() const{ return state; }
  44:src/kernel/concurency/../../../h/../h/tcb.hpp ****     void finish() { state = FINISHED; }
  45:src/kernel/concurency/../../../h/../h/tcb.hpp ****     bool isFinished(){ return state == FINISHED; }
  46:src/kernel/concurency/../../../h/../h/tcb.hpp ****     uint64 getTimeSlice() const { return timeSlice; }
  47:src/kernel/concurency/../../../h/../h/tcb.hpp ****     bool isSuspended(){return state == BLOCKED || state == SLEEPING;}
GAS LISTING /tmp/cclFzx07.s 			page 21


  48:src/kernel/concurency/../../../h/../h/tcb.hpp ****     void setKernelMode() { userMode = false; }
 677              		.loc 2 48 28
 678              		.loc 2 48 37 is_stmt 0
 679 03e8 A30A0502 		sb	zero,53(a0)
 680              	.LVL43:
 681              	.LBE43:
 682              	.LBE42:
 116:src/kernel/concurency/tcb.cpp ****         kernelThread->setState(BLOCKED);
 683              		.loc 1 116 9 is_stmt 1
 684              	.LBB44:
 685              	.LBB45:
  49:src/kernel/concurency/../../../h/../h/tcb.hpp ****     void setKernelLocked() { locked = true; }
 686              		.loc 2 49 30
 687              		.loc 2 49 37 is_stmt 0
 688 03ec 93071000 		li	a5,1
 689 03f0 230BF502 		sb	a5,54(a0)
 690              	.LVL44:
 691              	.LBE45:
 692              	.LBE44:
 117:src/kernel/concurency/tcb.cpp ****     }
 693              		.loc 1 117 9 is_stmt 1
 694              	.LBB46:
 695              	.LBB47:
  42:src/kernel/concurency/../../../h/../h/tcb.hpp ****     TCBState getState() const{ return state; }
 696              		.loc 2 42 32
  42:src/kernel/concurency/../../../h/../h/tcb.hpp ****     TCBState getState() const{ return state; }
 697              		.loc 2 42 38 is_stmt 0
 698 03f4 23280502 		sw	zero,48(a0)
 699              	.LBE47:
 700              	.LBE46:
 119:src/kernel/concurency/tcb.cpp ****     return kernelThread;
 701              		.loc 1 119 5 is_stmt 1
 119:src/kernel/concurency/tcb.cpp ****     return kernelThread;
 702              		.loc 1 119 13 is_stmt 0
 703 03f8 97070000 		lla	a5,_ZN3TCB12kernelThreadE
 703      93870700 
 704 0400 03B50700 		ld	a0,0(a5)
 705 0404 97070000 		sd	a0,_ZN3TCB7runningE,a5
 705      23B0A700 
 120:src/kernel/concurency/tcb.cpp **** }
 706              		.loc 1 120 5 is_stmt 1
 121:src/kernel/concurency/tcb.cpp **** 
 707              		.loc 1 121 1 is_stmt 0
 708 040c 83308100 		ld	ra,8(sp)
 709              		.cfi_restore 1
 710 0410 03340100 		ld	s0,0(sp)
 711              		.cfi_restore 8
 712              		.cfi_def_cfa 2, 16
 713 0414 13010101 		addi	sp,sp,16
 714              		.cfi_def_cfa_offset 0
 715 0418 67800000 		jr	ra
 716              		.cfi_endproc
 717              	.LFE124:
 719              		.align	2
 720              		.globl	_ZN3TCB8dispatchEv
 722              	_ZN3TCB8dispatchEv:
 723              	.LFB121:
GAS LISTING /tmp/cclFzx07.s 			page 22


  68:src/kernel/concurency/tcb.cpp ****     //Scheduler::print_queue();
 724              		.loc 1 68 1 is_stmt 1
 725              		.cfi_startproc
 726              		.cfi_personality 0x9b,DW.ref.__gxx_personality_v0
 727              		.cfi_lsda 0x1b,.LLSDA121
 728 041c 130101FE 		addi	sp,sp,-32
 729              		.cfi_def_cfa_offset 32
 730 0420 233C1100 		sd	ra,24(sp)
 731 0424 23388100 		sd	s0,16(sp)
 732 0428 23349100 		sd	s1,8(sp)
 733              		.cfi_offset 1, -8
 734              		.cfi_offset 8, -16
 735              		.cfi_offset 9, -24
 736 042c 13040102 		addi	s0,sp,32
 737              		.cfi_def_cfa 8, 0
  70:src/kernel/concurency/tcb.cpp ****     
 738              		.loc 1 70 5
  70:src/kernel/concurency/tcb.cpp ****     
 739              		.loc 1 70 10 is_stmt 0
 740 0430 97070000 		lla	a5,_ZN3TCB7runningE
 740      93870700 
 741 0438 83B40700 		ld	s1,0(a5)
 742              	.LVL45:
  72:src/kernel/concurency/tcb.cpp ****     {
 743              		.loc 1 72 5 is_stmt 1
 744              	.LBB59:
 745              	.LBB60:
  45:src/kernel/concurency/../../../h/../h/tcb.hpp ****     uint64 getTimeSlice() const { return timeSlice; }
 746              		.loc 2 45 24
  45:src/kernel/concurency/../../../h/../h/tcb.hpp ****     uint64 getTimeSlice() const { return timeSlice; }
 747              		.loc 2 45 31 is_stmt 0
 748 043c 83A70403 		lw	a5,48(s1)
 749              	.LVL46:
 750              	.LBE60:
 751              	.LBE59:
  72:src/kernel/concurency/tcb.cpp ****     {
 752              		.loc 1 72 5
 753 0440 13072000 		li	a4,2
 754 0444 638CE706 		beq	a5,a4,.L53
  78:src/kernel/concurency/tcb.cpp ****     {
 755              		.loc 1 78 10 is_stmt 1
 756              	.LVL47:
 757              	.LBB61:
 758              	.LBB62:
  47:src/kernel/concurency/../../../h/../h/tcb.hpp ****     void setKernelMode() { userMode = false; }
 759              		.loc 2 47 24
  47:src/kernel/concurency/../../../h/../h/tcb.hpp ****     void setKernelMode() { userMode = false; }
 760              		.loc 2 47 48 is_stmt 0
 761 0448 638C0700 		beq	a5,zero,.L48
 762 044c 13073000 		li	a4,3
 763 0450 6388E700 		beq	a5,a4,.L48
 764              	.LVL48:
 765              	.LBE62:
 766              	.LBE61:
  80:src/kernel/concurency/tcb.cpp ****     }
 767              		.loc 1 80 9 is_stmt 1
  80:src/kernel/concurency/tcb.cpp ****     }
GAS LISTING /tmp/cclFzx07.s 			page 23


 768              		.loc 1 80 23 is_stmt 0
 769 0454 13850400 		mv	a0,s1
 770              	.LEHB6:
 771 0458 97000000 		call	_ZN9Scheduler3putEP3TCB
 771      E7800000 
 772              	.LVL49:
 773              	.L48:
  82:src/kernel/concurency/tcb.cpp ****     
 774              		.loc 1 82 5 is_stmt 1
  82:src/kernel/concurency/tcb.cpp ****     
 775              		.loc 1 82 18 is_stmt 0
 776 0460 97070000 		lla	a5,_ZN3TCB9threadsUpE
 776      93870700 
 777 0468 03A70700 		lw	a4,0(a5)
  82:src/kernel/concurency/tcb.cpp ****     
 778              		.loc 1 82 5
 779 046c 93072000 		li	a5,2
 780 0470 63CCE700 		bgt	a4,a5,.L51
  82:src/kernel/concurency/tcb.cpp ****     
 781              		.loc 1 82 42 discriminator 1
 782 0474 97070000 		lla	a5,_ZN5StdIO7obufferE
 782      93870700 
 783 047c 83B70700 		ld	a5,0(a5)
 784 0480 83A70748 		lw	a5,1152(a5)
  82:src/kernel/concurency/tcb.cpp ****     
 785              		.loc 1 82 23 discriminator 1
 786 0484 638E0708 		beq	a5,zero,.L54
 787              	.L51:
  84:src/kernel/concurency/tcb.cpp ****     contextSwitch(&oldRunning->context, &running->context); 
 788              		.loc 1 84 5 is_stmt 1
  84:src/kernel/concurency/tcb.cpp ****     contextSwitch(&oldRunning->context, &running->context); 
 789              		.loc 1 84 29 is_stmt 0
 790 0488 97000000 		call	_ZN9Scheduler3getEv
 790      E7800000 
 791              	.LVL50:
  84:src/kernel/concurency/tcb.cpp ****     contextSwitch(&oldRunning->context, &running->context); 
 792              		.loc 1 84 13
 793 0490 97070000 		sd	a0,_ZN3TCB7runningE,a5
 793      23B0A700 
  85:src/kernel/concurency/tcb.cpp **** }
 794              		.loc 1 85 5 is_stmt 1
  85:src/kernel/concurency/tcb.cpp **** }
 795              		.loc 1 85 18 is_stmt 0
 796 0498 93058503 		addi	a1,a0,56
 797 049c 13858403 		addi	a0,s1,56
 798 04a0 97000000 		call	_ZN3TCB13contextSwitchEPNS_7ContextES1_
 798      E7800000 
 799              	.LVL51:
 800              	.LEHE6:
  86:src/kernel/concurency/tcb.cpp **** 
 801              		.loc 1 86 1
 802 04a8 83308101 		ld	ra,24(sp)
 803              		.cfi_remember_state
 804              		.cfi_restore 1
 805 04ac 03340101 		ld	s0,16(sp)
 806              		.cfi_restore 8
 807              		.cfi_def_cfa 2, 32
GAS LISTING /tmp/cclFzx07.s 			page 24


 808 04b0 83348100 		ld	s1,8(sp)
 809              		.cfi_restore 9
 810              	.LVL52:
 811 04b4 13010102 		addi	sp,sp,32
 812              		.cfi_def_cfa_offset 0
 813 04b8 67800000 		jr	ra
 814              	.LVL53:
 815              	.L53:
 816              		.cfi_restore_state
  74:src/kernel/concurency/tcb.cpp ****         if(oldRunning->deleteOnEnd)
 817              		.loc 1 74 9 is_stmt 1
  74:src/kernel/concurency/tcb.cpp ****         if(oldRunning->deleteOnEnd)
 818              		.loc 1 74 18 is_stmt 0
 819 04bc 17070000 		lla	a4,_ZN3TCB9threadsUpE
 819      13070700 
 820 04c4 83270700 		lw	a5,0(a4)
 821 04c8 9B87F7FF 		addiw	a5,a5,-1
 822 04cc 2320F700 		sw	a5,0(a4)
  75:src/kernel/concurency/tcb.cpp ****             delete oldRunning;
 823              		.loc 1 75 9 is_stmt 1
  75:src/kernel/concurency/tcb.cpp ****             delete oldRunning;
 824              		.loc 1 75 24 is_stmt 0
 825 04d0 83C74403 		lbu	a5,52(s1)
  75:src/kernel/concurency/tcb.cpp ****             delete oldRunning;
 826              		.loc 1 75 9
 827 04d4 E38607F8 		beq	a5,zero,.L48
  76:src/kernel/concurency/tcb.cpp ****     }
 828              		.loc 1 76 13 is_stmt 1
  76:src/kernel/concurency/tcb.cpp ****     }
 829              		.loc 1 76 30 is_stmt 0
 830 04d8 E38404F8 		beq	s1,zero,.L48
 831              	.LVL54:
  32:src/kernel/concurency/../../../h/../h/tcb.hpp ****             SlabAllocator::getInstance().kfree(this->stack);
 832              		.loc 2 32 9 is_stmt 1
 833              	.LBB63:
 834              	.LBB64:
 835              	.LBB65:
 836              	.LBB66:
  50:src/kernel/concurency/../../../h/../h/tcb.hpp ****     bool isKernelThread() { return !userMode; } 
 837              		.loc 2 50 29
 838              		.loc 2 50 37 is_stmt 0
 839 04dc 83C75403 		lbu	a5,53(s1)
 840              	.LVL55:
 841              	.LBE66:
 842              	.LBE65:
  32:src/kernel/concurency/../../../h/../h/tcb.hpp ****             SlabAllocator::getInstance().kfree(this->stack);
 843              		.loc 2 32 9
 844 04e0 63940702 		bne	a5,zero,.L49
  33:src/kernel/concurency/../../../h/../h/tcb.hpp ****         }
 845              		.loc 2 33 13 is_stmt 1
  33:src/kernel/concurency/../../../h/../h/tcb.hpp ****         }
 846              		.loc 2 33 40 is_stmt 0
 847 04e4 97000000 		call	_ZN13SlabAllocator11getInstanceEv
 847      E7800000 
 848              	.LVL56:
  33:src/kernel/concurency/../../../h/../h/tcb.hpp ****         }
 849              		.loc 2 33 47
GAS LISTING /tmp/cclFzx07.s 			page 25


 850 04ec 83B50402 		ld	a1,32(s1)
 851 04f0 97000000 		call	_ZN13SlabAllocator5kfreeEPv
 851      E7800000 
 852              	.LVL57:
 853              	.L50:
 854              	.LBE64:
 855              	.LBE63:
  76:src/kernel/concurency/tcb.cpp ****     }
 856              		.loc 1 76 20
 857 04f8 13850400 		mv	a0,s1
 858              	.LEHB7:
 859 04fc 97000000 		call	_ZN3TCBdlEPv
 859      E7800000 
 860              	.LVL58:
 861              	.LEHE7:
 862 0504 6FF0DFF5 		j	.L48
 863              	.LVL59:
 864              	.L49:
 865              	.LBB69:
 866              	.LBB68:
 867              	.LBB67:
  36:src/kernel/concurency/../../../h/../h/tcb.hpp ****             allocator.mem_free(this->stack);
 868              		.loc 2 36 13 is_stmt 1
  36:src/kernel/concurency/../../../h/../h/tcb.hpp ****             allocator.mem_free(this->stack);
 869              		.loc 2 36 71 is_stmt 0
 870 0508 97000000 		call	_ZN15MemoryAllocator11getInstanceEv
 870      E7800000 
 871              	.LVL60:
  37:src/kernel/concurency/../../../h/../h/tcb.hpp ****         }
 872              		.loc 2 37 13 is_stmt 1
  37:src/kernel/concurency/../../../h/../h/tcb.hpp ****         }
 873              		.loc 2 37 31 is_stmt 0
 874 0510 83B50402 		ld	a1,32(s1)
 875 0514 97000000 		call	_ZN15MemoryAllocator8mem_freeEPv
 875      E7800000 
 876              	.LVL61:
 877 051c 6FF0DFFD 		j	.L50
 878              	.LVL62:
 879              	.L54:
 880              	.LBE67:
 881              	.LBE68:
 882              	.LBE69:
  82:src/kernel/concurency/tcb.cpp ****     
 883              		.loc 1 82 55 is_stmt 1 discriminator 2
 884              	.LEHB8:
  82:src/kernel/concurency/tcb.cpp ****     
 885              		.loc 1 82 64 is_stmt 0 discriminator 2
 886 0520 97000000 		call	_ZN3TCB9endKernelEv
 886      E7800000 
 887              	.LVL63:
 888              	.LEHE8:
 889 0528 6FF01FF6 		j	.L51
 890              		.cfi_endproc
 891              	.LFE121:
 892              		.section	.gcc_except_table
 893              	.LLSDA121:
 894 0056 FF       		.byte	0xff
GAS LISTING /tmp/cclFzx07.s 			page 26


 895 0057 FF       		.byte	0xff
 896 0058 03       		.byte	0x3
 897 0059 27       		.byte	0x27
 898 005a 00000000 		.4byte	.LEHB6-.LFB121
 899 005e 00000000 		.4byte	.LEHE6-.LEHB6
 900 0062 00000000 		.4byte	0
 901 0066 00       		.byte	0
 902 0067 00000000 		.4byte	.LEHB7-.LFB121
 903 006b 00000000 		.4byte	.LEHE7-.LEHB7
 904 006f 00000000 		.4byte	0
 905 0073 00       		.byte	0
 906 0074 00000000 		.4byte	.LEHB8-.LFB121
 907 0078 00000000 		.4byte	.LEHE8-.LEHB8
 908 007c 00000000 		.4byte	0
 909 0080 00       		.byte	0
 910              		.text
 912              		.align	2
 913              		.globl	_ZN3TCB5yieldEv
 915              	_ZN3TCB5yieldEv:
 916              	.LFB118:
  36:src/kernel/concurency/tcb.cpp ****     Riscv::pushRegisters();
 917              		.loc 1 36 1 is_stmt 1
 918              		.cfi_startproc
 919 052c 130101FF 		addi	sp,sp,-16
 920              		.cfi_def_cfa_offset 16
 921 0530 23341100 		sd	ra,8(sp)
 922 0534 23308100 		sd	s0,0(sp)
 923              		.cfi_offset 1, -8
 924              		.cfi_offset 8, -16
 925 0538 13040101 		addi	s0,sp,16
 926              		.cfi_def_cfa 8, 0
  37:src/kernel/concurency/tcb.cpp ****     dispatch();
 927              		.loc 1 37 5
  37:src/kernel/concurency/tcb.cpp ****     dispatch();
 928              		.loc 1 37 25 is_stmt 0
 929 053c 97000000 		call	_ZN5Riscv13pushRegistersEv
 929      E7800000 
 930              	.LVL64:
  38:src/kernel/concurency/tcb.cpp ****     Riscv::popRegisters();
 931              		.loc 1 38 5 is_stmt 1
  38:src/kernel/concurency/tcb.cpp ****     Riscv::popRegisters();
 932              		.loc 1 38 13 is_stmt 0
 933 0544 97000000 		call	_ZN3TCB8dispatchEv
 933      E7800000 
 934              	.LVL65:
  39:src/kernel/concurency/tcb.cpp **** }
 935              		.loc 1 39 5 is_stmt 1
  39:src/kernel/concurency/tcb.cpp **** }
 936              		.loc 1 39 24 is_stmt 0
 937 054c 97000000 		call	_ZN5Riscv12popRegistersEv
 937      E7800000 
 938              	.LVL66:
  40:src/kernel/concurency/tcb.cpp **** 
 939              		.loc 1 40 1
 940 0554 83308100 		ld	ra,8(sp)
 941              		.cfi_restore 1
 942 0558 03340100 		ld	s0,0(sp)
GAS LISTING /tmp/cclFzx07.s 			page 27


 943              		.cfi_restore 8
 944              		.cfi_def_cfa 2, 16
 945 055c 13010101 		addi	sp,sp,16
 946              		.cfi_def_cfa_offset 0
 947 0560 67800000 		jr	ra
 948              		.cfi_endproc
 949              	.LFE118:
 951              		.align	2
 952              		.globl	_ZN3TCB5sleepEm
 954              	_ZN3TCB5sleepEm:
 955              	.LFB123:
 104:src/kernel/concurency/tcb.cpp ****     running->setState(SLEEPING);
 956              		.loc 1 104 1 is_stmt 1
 957              		.cfi_startproc
 958              	.LVL67:
 959 0564 130101FF 		addi	sp,sp,-16
 960              		.cfi_def_cfa_offset 16
 961 0568 23341100 		sd	ra,8(sp)
 962 056c 23308100 		sd	s0,0(sp)
 963              		.cfi_offset 1, -8
 964              		.cfi_offset 8, -16
 965 0570 13040101 		addi	s0,sp,16
 966              		.cfi_def_cfa 8, 0
 105:src/kernel/concurency/tcb.cpp ****     Scheduler::put_sleeper(running, t);
 967              		.loc 1 105 5
 105:src/kernel/concurency/tcb.cpp ****     Scheduler::put_sleeper(running, t);
 968              		.loc 1 105 22 is_stmt 0
 969 0574 97070000 		lla	a5,_ZN3TCB7runningE
 969      93870700 
 970 057c 83B70700 		ld	a5,0(a5)
 971              	.LVL68:
 972              	.LBB70:
 973              	.LBB71:
  42:src/kernel/concurency/../../../h/../h/tcb.hpp ****     TCBState getState() const{ return state; }
 974              		.loc 2 42 32 is_stmt 1
  42:src/kernel/concurency/../../../h/../h/tcb.hpp ****     TCBState getState() const{ return state; }
 975              		.loc 2 42 38 is_stmt 0
 976 0580 13073000 		li	a4,3
 977 0584 23A8E702 		sw	a4,48(a5)
 978              	.LVL69:
 979              	.LBE71:
 980              	.LBE70:
 106:src/kernel/concurency/tcb.cpp ****     TCB::yield(); 
 981              		.loc 1 106 5 is_stmt 1
 106:src/kernel/concurency/tcb.cpp ****     TCB::yield(); 
 982              		.loc 1 106 27 is_stmt 0
 983 0588 93050500 		mv	a1,a0
 984 058c 13850700 		mv	a0,a5
 985              	.LVL70:
 986 0590 97000000 		call	_ZN9Scheduler11put_sleeperEP3TCBm
 986      E7800000 
 987              	.LVL71:
 107:src/kernel/concurency/tcb.cpp **** }
 988              		.loc 1 107 5 is_stmt 1
 107:src/kernel/concurency/tcb.cpp **** }
 989              		.loc 1 107 15 is_stmt 0
 990 0598 97000000 		call	_ZN3TCB5yieldEv
GAS LISTING /tmp/cclFzx07.s 			page 28


 990      E7800000 
 991              	.LVL72:
 108:src/kernel/concurency/tcb.cpp **** 
 992              		.loc 1 108 1
 993 05a0 83308100 		ld	ra,8(sp)
 994              		.cfi_restore 1
 995 05a4 03340100 		ld	s0,0(sp)
 996              		.cfi_restore 8
 997              		.cfi_def_cfa 2, 16
 998 05a8 13010101 		addi	sp,sp,16
 999              		.cfi_def_cfa_offset 0
 1000 05ac 67800000 		jr	ra
 1001              		.cfi_endproc
 1002              	.LFE123:
 1004              		.align	2
 1005              		.globl	_ZN3TCB9endKernelEv
 1007              	_ZN3TCB9endKernelEv:
 1008              	.LFB125:
 124:src/kernel/concurency/tcb.cpp ****     if(kernelThread)
 1009              		.loc 1 124 1 is_stmt 1
 1010              		.cfi_startproc
 125:src/kernel/concurency/tcb.cpp ****     {
 1011              		.loc 1 125 5
 125:src/kernel/concurency/tcb.cpp ****     {
 1012              		.loc 1 125 20 is_stmt 0
 1013 05b0 97070000 		lla	a5,_ZN3TCB12kernelThreadE
 1013      93870700 
 1014 05b8 83B50700 		ld	a1,0(a5)
 125:src/kernel/concurency/tcb.cpp ****     {
 1015              		.loc 1 125 5
 1016 05bc 63840504 		beq	a1,zero,.L62
 124:src/kernel/concurency/tcb.cpp ****     if(kernelThread)
 1017              		.loc 1 124 1
 1018 05c0 130101FF 		addi	sp,sp,-16
 1019              		.cfi_def_cfa_offset 16
 1020 05c4 23341100 		sd	ra,8(sp)
 1021 05c8 23308100 		sd	s0,0(sp)
 1022              		.cfi_offset 1, -8
 1023              		.cfi_offset 8, -16
 1024 05cc 13040101 		addi	s0,sp,16
 1025              		.cfi_def_cfa 8, 0
 127:src/kernel/concurency/tcb.cpp ****         kernelThread = nullptr;
 1026              		.loc 1 127 9 is_stmt 1
 1027              	.LVL73:
 1028              	.LBB72:
 1029              	.LBB73:
 1030              		.file 4 "src/kernel/concurency/../../../h/../h/scheduler.hpp"
   1:src/kernel/concurency/../../../h/../h/scheduler.hpp **** #ifndef _scheduler_
   2:src/kernel/concurency/../../../h/../h/scheduler.hpp **** #define _scheduler_
   3:src/kernel/concurency/../../../h/../h/scheduler.hpp **** 
   4:src/kernel/concurency/../../../h/../h/scheduler.hpp **** #include"../lib/hw.h"
   5:src/kernel/concurency/../../../h/../h/scheduler.hpp **** #include"../h/ptr_queue.hpp"
   6:src/kernel/concurency/../../../h/../h/scheduler.hpp **** 
   7:src/kernel/concurency/../../../h/../h/scheduler.hpp **** class Scheduler
   8:src/kernel/concurency/../../../h/../h/scheduler.hpp **** {
   9:src/kernel/concurency/../../../h/../h/scheduler.hpp **** public:  
  10:src/kernel/concurency/../../../h/../h/scheduler.hpp ****     static void initalize();
GAS LISTING /tmp/cclFzx07.s 			page 29


  11:src/kernel/concurency/../../../h/../h/scheduler.hpp ****     static TCB* get();
  12:src/kernel/concurency/../../../h/../h/scheduler.hpp ****     static void put(TCB*);
  13:src/kernel/concurency/../../../h/../h/scheduler.hpp ****     static void finalize();
  14:src/kernel/concurency/../../../h/../h/scheduler.hpp ****     static void put_sleeper(TCB*, time_t);
  15:src/kernel/concurency/../../../h/../h/scheduler.hpp ****     static void update_sleep();
  16:src/kernel/concurency/../../../h/../h/scheduler.hpp ****     static void put_front(TCB* t) { queue.insertFront(t); }
 1031              		.loc 4 16 37
 1032              		.loc 4 16 54 is_stmt 0
 1033 05d0 17050000 		lla	a0,_ZN9Scheduler5queueE
 1033      13050500 
 1034 05d8 97000000 		call	_ZN8TcbQueue11insertFrontEP3TCB
 1034      E7800000 
 1035              	.LVL74:
 1036              	.LBE73:
 1037              	.LBE72:
 128:src/kernel/concurency/tcb.cpp ****         TCB::dispatch();
 1038              		.loc 1 128 9 is_stmt 1
 128:src/kernel/concurency/tcb.cpp ****         TCB::dispatch();
 1039              		.loc 1 128 22 is_stmt 0
 1040 05e0 97070000 		sd	zero,_ZN3TCB12kernelThreadE,a5
 1040      23B00700 
 129:src/kernel/concurency/tcb.cpp ****     }
 1041              		.loc 1 129 9 is_stmt 1
 129:src/kernel/concurency/tcb.cpp ****     }
 1042              		.loc 1 129 22 is_stmt 0
 1043 05e8 97000000 		call	_ZN3TCB8dispatchEv
 1043      E7800000 
 1044              	.LVL75:
 131:src/kernel/concurency/tcb.cpp **** 
 1045              		.loc 1 131 5 is_stmt 1
 134:src/kernel/concurency/tcb.cpp **** 
 1046              		.loc 1 134 1 is_stmt 0
 1047 05f0 1305F0FF 		li	a0,-1
 1048 05f4 83308100 		ld	ra,8(sp)
 1049              		.cfi_restore 1
 1050 05f8 03340100 		ld	s0,0(sp)
 1051              		.cfi_restore 8
 1052              		.cfi_def_cfa 2, 16
 1053 05fc 13010101 		addi	sp,sp,16
 1054              		.cfi_def_cfa_offset 0
 1055 0600 67800000 		jr	ra
 1056              	.L62:
 131:src/kernel/concurency/tcb.cpp **** 
 1057              		.loc 1 131 5 is_stmt 1
 134:src/kernel/concurency/tcb.cpp **** 
 1058              		.loc 1 134 1 is_stmt 0
 1059 0604 1305F0FF 		li	a0,-1
 1060 0608 67800000 		ret
 1061              		.cfi_endproc
 1062              	.LFE125:
 1064              		.align	2
 1065              		.globl	_ZN3TCB12deleteThreadEPS_
 1067              	_ZN3TCB12deleteThreadEPS_:
 1068              	.LFB122:
  89:src/kernel/concurency/tcb.cpp ****     if(t)
 1069              		.loc 1 89 1 is_stmt 1
 1070              		.cfi_startproc
GAS LISTING /tmp/cclFzx07.s 			page 30


 1071              		.cfi_personality 0x9b,DW.ref.__gxx_personality_v0
 1072              		.cfi_lsda 0x1b,.LLSDA122
 1073              	.LVL76:
  90:src/kernel/concurency/tcb.cpp ****     {
 1074              		.loc 1 90 5
 1075 060c 630C0508 		beq	a0,zero,.L71
  92:src/kernel/concurency/tcb.cpp ****         {
 1076              		.loc 1 92 9
  92:src/kernel/concurency/tcb.cpp ****         {
 1077              		.loc 1 92 20 is_stmt 0
 1078 0610 97070000 		lla	a5,_ZN3TCB7runningE
 1078      93870700 
 1079 0618 83B70700 		ld	a5,0(a5)
  92:src/kernel/concurency/tcb.cpp ****         {
 1080              		.loc 1 92 25
 1081 061c 6388A700 		beq	a5,a0,.L67
 1082              	.LVL77:
 1083              	.LBB83:
 1084              	.LBB84:
  45:src/kernel/concurency/../../../h/../h/tcb.hpp ****     uint64 getTimeSlice() const { return timeSlice; }
 1085              		.loc 2 45 24 is_stmt 1
  45:src/kernel/concurency/../../../h/../h/tcb.hpp ****     uint64 getTimeSlice() const { return timeSlice; }
 1086              		.loc 2 45 31 is_stmt 0
 1087 0620 03270503 		lw	a4,48(a0)
 1088              	.LVL78:
 1089              	.LBE84:
 1090              	.LBE83:
  92:src/kernel/concurency/tcb.cpp ****         {
 1091              		.loc 1 92 25
 1092 0624 93072000 		li	a5,2
 1093 0628 6308F700 		beq	a4,a5,.L74
 1094              	.L67:
  98:src/kernel/concurency/tcb.cpp ****         }        
 1095              		.loc 1 98 13 is_stmt 1 discriminator 4
  98:src/kernel/concurency/tcb.cpp ****         }        
 1096              		.loc 1 98 28 is_stmt 0 discriminator 4
 1097 062c 93071000 		li	a5,1
 1098 0630 230AF502 		sb	a5,52(a0)
 101:src/kernel/concurency/tcb.cpp **** 
 1099              		.loc 1 101 1 discriminator 4
 1100 0634 67800000 		ret
 1101              	.L74:
  89:src/kernel/concurency/tcb.cpp ****     if(t)
 1102              		.loc 1 89 1
 1103 0638 130101FE 		addi	sp,sp,-32
 1104              		.cfi_def_cfa_offset 32
 1105 063c 233C1100 		sd	ra,24(sp)
 1106 0640 23388100 		sd	s0,16(sp)
 1107 0644 23349100 		sd	s1,8(sp)
 1108              		.cfi_offset 1, -8
 1109              		.cfi_offset 8, -16
 1110              		.cfi_offset 9, -24
 1111 0648 13040102 		addi	s0,sp,32
 1112              		.cfi_def_cfa 8, 0
 1113 064c 93040500 		mv	s1,a0
  94:src/kernel/concurency/tcb.cpp ****         }
 1114              		.loc 1 94 13 is_stmt 1
GAS LISTING /tmp/cclFzx07.s 			page 31


 1115              	.LVL79:
  32:src/kernel/concurency/../../../h/../h/tcb.hpp ****             SlabAllocator::getInstance().kfree(this->stack);
 1116              		.loc 2 32 9
 1117              	.LBB85:
 1118              	.LBB86:
 1119              	.LBB87:
 1120              	.LBB88:
 1121              		.loc 2 50 29
 1122              		.loc 2 50 37 is_stmt 0
 1123 0650 83475503 		lbu	a5,53(a0)
 1124              	.LVL80:
 1125              	.LBE88:
 1126              	.LBE87:
  32:src/kernel/concurency/../../../h/../h/tcb.hpp ****             SlabAllocator::getInstance().kfree(this->stack);
 1127              		.loc 2 32 9
 1128 0654 639C0702 		bne	a5,zero,.L68
 1129              	.LVL81:
  33:src/kernel/concurency/../../../h/../h/tcb.hpp ****         }
 1130              		.loc 2 33 13 is_stmt 1
  33:src/kernel/concurency/../../../h/../h/tcb.hpp ****         }
 1131              		.loc 2 33 40 is_stmt 0
 1132 0658 97000000 		call	_ZN13SlabAllocator11getInstanceEv
 1132      E7800000 
 1133              	.LVL82:
  33:src/kernel/concurency/../../../h/../h/tcb.hpp ****         }
 1134              		.loc 2 33 47
 1135 0660 83B50402 		ld	a1,32(s1)
 1136 0664 97000000 		call	_ZN13SlabAllocator5kfreeEPv
 1136      E7800000 
 1137              	.LVL83:
 1138              	.L69:
 1139              	.LBE86:
 1140              	.LBE85:
  94:src/kernel/concurency/tcb.cpp ****         }
 1141              		.loc 1 94 20
 1142 066c 13850400 		mv	a0,s1
 1143              	.LEHB9:
 1144 0670 97000000 		call	_ZN3TCBdlEPv
 1144      E7800000 
 1145              	.LVL84:
 1146              	.LEHE9:
 101:src/kernel/concurency/tcb.cpp **** 
 1147              		.loc 1 101 1
 1148 0678 83308101 		ld	ra,24(sp)
 1149              		.cfi_remember_state
 1150              		.cfi_restore 1
 1151 067c 03340101 		ld	s0,16(sp)
 1152              		.cfi_restore 8
 1153              		.cfi_def_cfa 2, 32
 1154 0680 83348100 		ld	s1,8(sp)
 1155              		.cfi_restore 9
 1156              	.LVL85:
 1157 0684 13010102 		addi	sp,sp,32
 1158              		.cfi_def_cfa_offset 0
 1159 0688 67800000 		jr	ra
 1160              	.LVL86:
 1161              	.L68:
GAS LISTING /tmp/cclFzx07.s 			page 32


 1162              		.cfi_restore_state
 1163              	.LBB91:
 1164              	.LBB90:
 1165              	.LBB89:
  36:src/kernel/concurency/../../../h/../h/tcb.hpp ****             allocator.mem_free(this->stack);
 1166              		.loc 2 36 13 is_stmt 1
  36:src/kernel/concurency/../../../h/../h/tcb.hpp ****             allocator.mem_free(this->stack);
 1167              		.loc 2 36 71 is_stmt 0
 1168 068c 97000000 		call	_ZN15MemoryAllocator11getInstanceEv
 1168      E7800000 
 1169              	.LVL87:
  37:src/kernel/concurency/../../../h/../h/tcb.hpp ****         }
 1170              		.loc 2 37 13 is_stmt 1
  37:src/kernel/concurency/../../../h/../h/tcb.hpp ****         }
 1171              		.loc 2 37 31 is_stmt 0
 1172 0694 83B50402 		ld	a1,32(s1)
 1173 0698 97000000 		call	_ZN15MemoryAllocator8mem_freeEPv
 1173      E7800000 
 1174              	.LVL88:
 1175 06a0 6FF0DFFC 		j	.L69
 1176              	.LVL89:
 1177              	.L71:
 1178              		.cfi_def_cfa_register 2
 1179              		.cfi_restore 1
 1180              		.cfi_restore 8
 1181              		.cfi_restore 9
 1182 06a4 67800000 		ret
 1183              	.LBE89:
 1184              	.LBE90:
 1185              	.LBE91:
 1186              		.cfi_endproc
 1187              	.LFE122:
 1188              		.section	.gcc_except_table
 1189              	.LLSDA122:
 1190 0081 FF       		.byte	0xff
 1191 0082 FF       		.byte	0xff
 1192 0083 03       		.byte	0x3
 1193 0084 0D       		.byte	0xd
 1194 0085 00000000 		.4byte	.LEHB9-.LFB122
 1195 0089 00000000 		.4byte	.LEHE9-.LEHB9
 1196 008d 00000000 		.4byte	0
 1197 0091 00       		.byte	0
 1198              		.text
 1200              		.align	2
 1201              		.globl	_ZN3TCBdaEPv
 1203              	_ZN3TCBdaEPv:
 1204              	.LFB131:
 160:src/kernel/concurency/tcb.cpp **** void TCB::operator delete[](void* ptr){
 1205              		.loc 1 160 39 is_stmt 1
 1206              		.cfi_startproc
 1207              	.LVL90:
 1208 06a8 130101FE 		addi	sp,sp,-32
 1209              		.cfi_def_cfa_offset 32
 1210 06ac 233C1100 		sd	ra,24(sp)
 1211 06b0 23388100 		sd	s0,16(sp)
 1212 06b4 23349100 		sd	s1,8(sp)
 1213              		.cfi_offset 1, -8
GAS LISTING /tmp/cclFzx07.s 			page 33


 1214              		.cfi_offset 8, -16
 1215              		.cfi_offset 9, -24
 1216 06b8 13040102 		addi	s0,sp,32
 1217              		.cfi_def_cfa 8, 0
 1218 06bc 93040500 		mv	s1,a0
 161:src/kernel/concurency/tcb.cpp ****     SlabAllocator::getInstance().kfree(ptr);
 1219              		.loc 1 161 5
 1220              		.loc 1 161 32 is_stmt 0
 1221 06c0 97000000 		call	_ZN13SlabAllocator11getInstanceEv
 1221      E7800000 
 1222              	.LVL91:
 1223              		.loc 1 161 39
 1224 06c8 93850400 		mv	a1,s1
 1225 06cc 97000000 		call	_ZN13SlabAllocator5kfreeEPv
 1225      E7800000 
 1226              	.LVL92:
 162:src/kernel/concurency/tcb.cpp **** }...
 1227              		.loc 1 162 1
 1228 06d4 83308101 		ld	ra,24(sp)
 1229              		.cfi_restore 1
 1230 06d8 03340101 		ld	s0,16(sp)
 1231              		.cfi_restore 8
 1232              		.cfi_def_cfa 2, 32
 1233 06dc 83348100 		ld	s1,8(sp)
 1234              		.cfi_restore 9
 1235              	.LVL93:
 1236 06e0 13010102 		addi	sp,sp,32
 1237              		.cfi_def_cfa_offset 0
 1238 06e4 67800000 		jr	ra
 1239              		.cfi_endproc
 1240              	.LFE131:
 1242              		.globl	_ZN3TCB5cacheE
 1243              		.globl	_ZN3TCB12panicContextE
 1244              		.globl	_ZN3TCB9threadsUpE
 1245              		.globl	_ZN3TCB12kernelThreadE
 1246              		.globl	_ZN3TCB16timeSliceCounterE
 1247              		.globl	_ZN3TCB7runningE
 1248              		.bss
 1249              		.align	3
 1250              		.set	.LANCHOR0,. + 0
 1253              	_ZN3TCB12panicContextE:
 1254 0000 00000000 		.zero	16
 1254      00000000 
 1254      00000000 
 1254      00000000 
 1255              		.section	.rodata.str1.8,"aMS",@progbits,1
 1256              		.align	3
 1257              	.LC0:
 1258 0000 7463625F 		.string	"tcb_cache"
 1258      63616368 
 1258      6500
 1259              		.section	.sbss,"aw",@nobits
 1260              		.align	3
 1263              	_ZN3TCB5cacheE:
 1264 0000 00000000 		.zero	8
 1264      00000000 
 1267              	_ZN3TCB9threadsUpE:
GAS LISTING /tmp/cclFzx07.s 			page 34


 1268 0008 00000000 		.zero	4
 1269 000c 00000000 		.zero	4
 1272              	_ZN3TCB12kernelThreadE:
 1273 0010 00000000 		.zero	8
 1273      00000000 
 1276              	_ZN3TCB16timeSliceCounterE:
 1277 0018 00000000 		.zero	8
 1277      00000000 
 1280              	_ZN3TCB7runningE:
 1281 0020 00000000 		.zero	8
 1281      00000000 
 1282              		.text
 1283              	.Letext0:
 1284              		.file 5 "src/kernel/concurency/../../../h/../h/../lib/hw.h"
 1285              		.file 6 "src/kernel/concurency/../../../h/../h/../h/../h/list.h"
 1286              		.file 7 "src/kernel/concurency/../../../h/../h/../h/object_cache.h"
 1287              		.file 8 "src/kernel/concurency/../../../h/../h/slab_allocator.h"
 1288              		.file 9 "src/kernel/concurency/../../../h/../h/../h/memory_allocator.hpp"
 1289              		.file 10 "src/kernel/concurency/../../../h/../h/ptr_queue.hpp"
 1290              		.file 11 "src/kernel/concurency/../../../h/../h/slab.h"
 1291              		.file 12 "src/kernel/concurency/../../../h/kernel_lib.h"
 1292              		.file 13 "src/kernel/concurency/../../../h/../h/syscall_c.h"
 7986              		.align	3
 7989              	DW.ref.__gxx_personality_v0:
 7990 0000 00000000 		.dword	__gxx_personality_v0
 7990      00000000 
 7991              		.ident	"GCC: () 8.3.0"
GAS LISTING /tmp/cclFzx07.s 			page 35

